; Listing generated by Microsoft (R) Optimizing Compiler Version 14.00.50727.762 

	TITLE	D:\CLEARSKY\sources\engine\xrEngine\ai_script_lua_extension.cpp
	.686P
	.XMM
	include listing.inc
	.model	flat

INCLUDELIB OLDNAMES

PUBLIC	?get_globals@luabind@@YA?AVobject@1@PAUlua_State@@@Z ; luabind::get_globals
PUBLIC	??0lua_reference@detail@luabind@@QAE@PAUlua_State@@@Z ; luabind::detail::lua_reference::lua_reference
PUBLIC	??1lua_reference@detail@luabind@@QAE@XZ		; luabind::detail::lua_reference::~lua_reference
PUBLIC	?reset@lua_reference@detail@luabind@@QAEXXZ	; luabind::detail::lua_reference::reset
PUBLIC	?set@lua_reference@detail@luabind@@QAEXPAUlua_State@@@Z ; luabind::detail::lua_reference::set
PUBLIC	?apply@?$primitive_converter@Ucpp_to_lua@detail@luabind@@@detail@luabind@@QAEXPAUlua_State@@PBD@Z ; luabind::detail::primitive_converter<luabind::detail::cpp_to_lua>::apply
PUBLIC	??$get@PAD@?$unwrap_ref@$0A@@detail@luabind@@SAABQADABQAD@Z ; luabind::detail::unwrap_ref<0>::get<char *>
PUBLIC	??$convert_to_lua@PAD@detail@luabind@@YAXPAUlua_State@@ABQAD@Z ; luabind::detail::convert_to_lua<char *>
PUBLIC	??$?APAD@object@luabind@@QBE?AVproxy_object@detail@1@ABQAD@Z ; luabind::object::operator[]<char *>
PUBLIC	??$xr_alloc@D@@YAPADI@Z				; xr_alloc<char>
PUBLIC	?strchr@@YAPADPADH@Z				; strchr
PUBLIC	??_C@_08IMKMBAMC@?$CK?5?$FLLUA?$FN?5?$AA@	; `string'
PUBLIC	??_C@_0P@HJGNOHJI@?$FLINFO?$FN?5?5?5?5?5?5?5?5?$AA@ ; `string'
PUBLIC	??_C@_08OPJIOBP@?$CB?5?$FLLUA?$FN?5?$AA@	; `string'
PUBLIC	??_C@_0P@ICNMMABI@?$FLERROR?$FN?5?5?5?5?5?5?5?$AA@ ; `string'
PUBLIC	??_C@_06BJGALBHJ@?$FLLUA?$FN?5?$AA@		; `string'
PUBLIC	??_C@_0P@KHHLIJPP@?$FLMESSAGE?$FN?5?5?5?5?5?$AA@ ; `string'
PUBLIC	??_C@_0BC@EGJIJFOJ@?$FLLUA?$FN?$FLHOOK_CALL?$FN?5?$AA@ ; `string'
PUBLIC	??_C@_0P@PPPPGGFG@?$FLCALL?$FN?5?5?5?5?5?5?5?5?$AA@ ; `string'
PUBLIC	??_C@_0BE@OIIJDOGE@?$FLLUA?$FN?$FLHOOK_RETURN?$FN?5?$AA@ ; `string'
PUBLIC	??_C@_0P@EJKLDFGM@?$FLRETURN?$FN?5?5?5?5?5?5?$AA@ ; `string'
PUBLIC	??_C@_0BC@FLELHLIH@?$FLLUA?$FN?$FLHOOK_LINE?$FN?5?$AA@ ; `string'
PUBLIC	??_C@_0P@GEBOKBNH@?$FLLINE?$FN?5?5?5?5?5?5?5?5?$AA@ ; `string'
PUBLIC	??_C@_0BD@GDBDCJAM@?$FLLUA?$FN?$FLHOOK_COUNT?$FN?5?$AA@ ; `string'
PUBLIC	??_C@_0P@DBDNALAC@?$FLCOUNT?$FN?5?5?5?5?5?5?5?$AA@ ; `string'
PUBLIC	??_C@_0BJ@OHLKGHFL@?$FLLUA?$FN?$FLHOOK_TAIL_RETURN?$FN?5?$AA@ ; `string'
PUBLIC	??_C@_0P@GBICLCIN@?$FLTAIL_RETURN?$FN?5?$AA@	; `string'
PUBLIC	??_C@_02NIGGJGKC@_G?$AA@			; `string'
PUBLIC	??_C@_0CE@GCHHINEE@the?5namespace?5name?5?$CFs?5is?5incorre@ ; `string'
PUBLIC	??_C@_0EF@KPJLLNGM@the?5namespace?5name?5?$CFs?5is?5already@ ; `string'
PUBLIC	??_C@_0BB@HKFHIFCF@local?5this?5?$DN?5?$CFs?6?$AA@ ; `string'
PUBLIC	??_C@_08PMNLLPGM@bfDoFile?$AA@			; `string'
PUBLIC	??_C@_0EA@BHDCNKG@D?3?2CLEARSKY?2sources?2engine?2xrEng@ ; `string'
PUBLIC	??_C@_0P@JOFMJCIK@l_tpFileReader?$AA@		; `string'
PUBLIC	??_C@_01EOFPKCAF@?$EA?$AA@			; `string'
PUBLIC	??_C@_0EM@GJGPGKEH@?5Error?5?3?5the?5namespace?5name?5is?5a@ ; `string'
PUBLIC	??_C@_0BM@HHDFHKBA@Script?3?3bfGetNamespaceTable?$AA@ ; `string'
PUBLIC	??_C@_0BM@ICPGEACD@Script?3?3get_namespace_table?$AA@ ; `string'
EXTRN	__imp_??Bproxy_object@detail@luabind@@QAE?AVobject@2@XZ:PROC
EXTRN	__imp_??0object@luabind@@QAE@PAUlua_State@@ABUlua_reference@detail@1@_N@Z:PROC
EXTRN	__imp_??0object@luabind@@QAE@ABV01@@Z:PROC
EXTRN	__imp_??1object@luabind@@QAE@XZ:PROC
EXTRN	__imp_??4object@luabind@@QBEAAV01@ABVproxy_object@detail@1@@Z:PROC
EXTRN	__imp_?ref@detail@luabind@@YAHPAUlua_State@@@Z:PROC
EXTRN	__imp_?unref@detail@luabind@@YAXPAUlua_State@@H@Z:PROC
EXTRN	__imp_??0proxy_object@detail@luabind@@AAE@PAVobject@2@ABUlua_reference@12@@Z:PROC
EXTRN	__imp_??1proxy_object@detail@luabind@@QAE@XZ:PROC
EXTRN	__imp__lua_createtable:PROC
EXTRN	__imp__luaL_loadbuffer:PROC
EXTRN	__imp__lua_insert:PROC
EXTRN	__imp__lua_call:PROC
EXTRN	__imp__lua_pushvalue:PROC
EXTRN	__imp__lua_equal:PROC
EXTRN	__imp__lua_settable:PROC
EXTRN	__imp__lua_remove:PROC
EXTRN	__imp__lua_pushstring:PROC
EXTRN	__imp__lua_gettable:PROC
EXTRN	__imp__lua_settop:PROC
EXTRN	__imp__lua_type:PROC
EXTRN	__imp__lua_pushnil:PROC
EXTRN	__imp__lua_next:PROC
;	COMDAT ?ignore_always@?3??bfDoFile@@YA_NPAUlua_State@@PBD1_N@Z@4_NA
_BSS	SEGMENT
?ignore_always@?3??bfDoFile@@YA_NPAUlua_State@@PBD1_N@Z@4_NA DB 01H DUP (?) ; `bfDoFile'::`4'::ignore_always
;	COMDAT ??_C@_0BM@ICPGEACD@Script?3?3get_namespace_table?$AA@
CONST	SEGMENT
??_C@_0BM@ICPGEACD@Script?3?3get_namespace_table?$AA@ DB 'Script::get_nam'
	DB	'espace_table', 00H				; `string'
CONST	ENDS
;	COMDAT ??_C@_0BM@HHDFHKBA@Script?3?3bfGetNamespaceTable?$AA@
CONST	SEGMENT
??_C@_0BM@HHDFHKBA@Script?3?3bfGetNamespaceTable?$AA@ DB 'Script::bfGetNa'
	DB	'mespaceTable', 00H				; `string'
CONST	ENDS
;	COMDAT ??_C@_0EM@GJGPGKEH@?5Error?5?3?5the?5namespace?5name?5is?5a@
CONST	SEGMENT
??_C@_0EM@GJGPGKEH@?5Error?5?3?5the?5namespace?5name?5is?5a@ DB ' Error :'
	DB	' the namespace name is already being used by the non-table ob'
	DB	'ject!', 0aH, 00H				; `string'
CONST	ENDS
;	COMDAT ??_C@_01EOFPKCAF@?$EA?$AA@
CONST	SEGMENT
??_C@_01EOFPKCAF@?$EA?$AA@ DB '@', 00H			; `string'
CONST	ENDS
;	COMDAT ??_C@_0P@JOFMJCIK@l_tpFileReader?$AA@
CONST	SEGMENT
??_C@_0P@JOFMJCIK@l_tpFileReader?$AA@ DB 'l_tpFileReader', 00H ; `string'
CONST	ENDS
;	COMDAT ??_C@_0EA@BHDCNKG@D?3?2CLEARSKY?2sources?2engine?2xrEng@
CONST	SEGMENT
??_C@_0EA@BHDCNKG@D?3?2CLEARSKY?2sources?2engine?2xrEng@ DB 'D:\CLEARSKY\'
	DB	'sources\engine\xrEngine\ai_script_lua_extension.cpp', 00H ; `string'
CONST	ENDS
;	COMDAT ??_C@_08PMNLLPGM@bfDoFile?$AA@
CONST	SEGMENT
??_C@_08PMNLLPGM@bfDoFile?$AA@ DB 'bfDoFile', 00H	; `string'
CONST	ENDS
;	COMDAT ??_C@_0BB@HKFHIFCF@local?5this?5?$DN?5?$CFs?6?$AA@
CONST	SEGMENT
??_C@_0BB@HKFHIFCF@local?5this?5?$DN?5?$CFs?6?$AA@ DB 'local this = %s', 0aH
	DB	00H						; `string'
CONST	ENDS
;	COMDAT ??_C@_0EF@KPJLLNGM@the?5namespace?5name?5?$CFs?5is?5already@
CONST	SEGMENT
??_C@_0EF@KPJLLNGM@the?5namespace?5name?5?$CFs?5is?5already@ DB 'the name'
	DB	'space name %s is already being used by the non-table object!', 00H ; `string'
CONST	ENDS
;	COMDAT ??_C@_0CE@GCHHINEE@the?5namespace?5name?5?$CFs?5is?5incorre@
CONST	SEGMENT
??_C@_0CE@GCHHINEE@the?5namespace?5name?5?$CFs?5is?5incorre@ DB 'the name'
	DB	'space name %s is incorrect!', 00H		; `string'
CONST	ENDS
;	COMDAT ??_C@_02NIGGJGKC@_G?$AA@
CONST	SEGMENT
??_C@_02NIGGJGKC@_G?$AA@ DB '_G', 00H			; `string'
CONST	ENDS
;	COMDAT ??_C@_0P@GBICLCIN@?$FLTAIL_RETURN?$FN?5?$AA@
CONST	SEGMENT
??_C@_0P@GBICLCIN@?$FLTAIL_RETURN?$FN?5?$AA@ DB '[TAIL_RETURN] ', 00H ; `string'
CONST	ENDS
;	COMDAT ??_C@_0BJ@OHLKGHFL@?$FLLUA?$FN?$FLHOOK_TAIL_RETURN?$FN?5?$AA@
CONST	SEGMENT
??_C@_0BJ@OHLKGHFL@?$FLLUA?$FN?$FLHOOK_TAIL_RETURN?$FN?5?$AA@ DB '[LUA][H'
	DB	'OOK_TAIL_RETURN] ', 00H			; `string'
CONST	ENDS
;	COMDAT ??_C@_0P@DBDNALAC@?$FLCOUNT?$FN?5?5?5?5?5?5?5?$AA@
CONST	SEGMENT
??_C@_0P@DBDNALAC@?$FLCOUNT?$FN?5?5?5?5?5?5?5?$AA@ DB '[COUNT]       ', 00H ; `string'
CONST	ENDS
;	COMDAT ??_C@_0BD@GDBDCJAM@?$FLLUA?$FN?$FLHOOK_COUNT?$FN?5?$AA@
CONST	SEGMENT
??_C@_0BD@GDBDCJAM@?$FLLUA?$FN?$FLHOOK_COUNT?$FN?5?$AA@ DB '[LUA][HOOK_CO'
	DB	'UNT] ', 00H					; `string'
CONST	ENDS
;	COMDAT ??_C@_0P@GEBOKBNH@?$FLLINE?$FN?5?5?5?5?5?5?5?5?$AA@
CONST	SEGMENT
??_C@_0P@GEBOKBNH@?$FLLINE?$FN?5?5?5?5?5?5?5?5?$AA@ DB '[LINE]        ', 00H ; `string'
CONST	ENDS
;	COMDAT ??_C@_0BC@FLELHLIH@?$FLLUA?$FN?$FLHOOK_LINE?$FN?5?$AA@
CONST	SEGMENT
??_C@_0BC@FLELHLIH@?$FLLUA?$FN?$FLHOOK_LINE?$FN?5?$AA@ DB '[LUA][HOOK_LIN'
	DB	'E] ', 00H					; `string'
CONST	ENDS
;	COMDAT ??_C@_0P@EJKLDFGM@?$FLRETURN?$FN?5?5?5?5?5?5?$AA@
CONST	SEGMENT
??_C@_0P@EJKLDFGM@?$FLRETURN?$FN?5?5?5?5?5?5?$AA@ DB '[RETURN]      ', 00H ; `string'
CONST	ENDS
;	COMDAT ??_C@_0BE@OIIJDOGE@?$FLLUA?$FN?$FLHOOK_RETURN?$FN?5?$AA@
CONST	SEGMENT
??_C@_0BE@OIIJDOGE@?$FLLUA?$FN?$FLHOOK_RETURN?$FN?5?$AA@ DB '[LUA][HOOK_R'
	DB	'ETURN] ', 00H				; `string'
CONST	ENDS
;	COMDAT ??_C@_0P@PPPPGGFG@?$FLCALL?$FN?5?5?5?5?5?5?5?5?$AA@
CONST	SEGMENT
??_C@_0P@PPPPGGFG@?$FLCALL?$FN?5?5?5?5?5?5?5?5?$AA@ DB '[CALL]        ', 00H ; `string'
CONST	ENDS
;	COMDAT ??_C@_0BC@EGJIJFOJ@?$FLLUA?$FN?$FLHOOK_CALL?$FN?5?$AA@
CONST	SEGMENT
??_C@_0BC@EGJIJFOJ@?$FLLUA?$FN?$FLHOOK_CALL?$FN?5?$AA@ DB '[LUA][HOOK_CAL'
	DB	'L] ', 00H					; `string'
CONST	ENDS
;	COMDAT ??_C@_0P@KHHLIJPP@?$FLMESSAGE?$FN?5?5?5?5?5?$AA@
CONST	SEGMENT
??_C@_0P@KHHLIJPP@?$FLMESSAGE?$FN?5?5?5?5?5?$AA@ DB '[MESSAGE]     ', 00H ; `string'
CONST	ENDS
;	COMDAT ??_C@_06BJGALBHJ@?$FLLUA?$FN?5?$AA@
CONST	SEGMENT
??_C@_06BJGALBHJ@?$FLLUA?$FN?5?$AA@ DB '[LUA] ', 00H	; `string'
CONST	ENDS
;	COMDAT ??_C@_0P@ICNMMABI@?$FLERROR?$FN?5?5?5?5?5?5?5?$AA@
CONST	SEGMENT
??_C@_0P@ICNMMABI@?$FLERROR?$FN?5?5?5?5?5?5?5?$AA@ DB '[ERROR]       ', 00H ; `string'
CONST	ENDS
;	COMDAT ??_C@_08OPJIOBP@?$CB?5?$FLLUA?$FN?5?$AA@
CONST	SEGMENT
??_C@_08OPJIOBP@?$CB?5?$FLLUA?$FN?5?$AA@ DB '! [LUA] ', 00H ; `string'
CONST	ENDS
;	COMDAT ??_C@_0P@HJGNOHJI@?$FLINFO?$FN?5?5?5?5?5?5?5?5?$AA@
CONST	SEGMENT
??_C@_0P@HJGNOHJI@?$FLINFO?$FN?5?5?5?5?5?5?5?5?$AA@ DB '[INFO]        ', 00H ; `string'
CONST	ENDS
;	COMDAT ??_C@_08IMKMBAMC@?$CK?5?$FLLUA?$FN?5?$AA@
CONST	SEGMENT
??_C@_08IMKMBAMC@?$CK?5?$FLLUA?$FN?5?$AA@ DB '* [LUA] ', 00H ; `string'
; Function compile flags: /Ogtpy
; File d:\clearsky\sources\engine\xrcore\xrmemory.h
;	COMDAT ??$xr_alloc@D@@YAPADI@Z
_TEXT	SEGMENT
??$xr_alloc@D@@YAPADI@Z PROC				; xr_alloc<char>, COMDAT
; _count$ = eax

; 109  : 	IC T*		xr_alloc	(u32 count)				{	return  (T*)Memory.mem_alloc(count*sizeof(T));	}

	mov	ecx, DWORD PTR __imp_?Memory@@3VxrMemory@@A
	push	eax
	call	DWORD PTR __imp_?mem_alloc@xrMemory@@QAEPAXI@Z
	ret	0
??$xr_alloc@D@@YAPADI@Z ENDP				; xr_alloc<char>
; Function compile flags: /Ogtpy
; File d:\clearsky\sources\sdk\include\luabind\detail\ref.hpp
_TEXT	ENDS
;	COMDAT ?reset@lua_reference@detail@luabind@@QAEXXZ
_TEXT	SEGMENT
?reset@lua_reference@detail@luabind@@QAEXXZ PROC	; luabind::detail::lua_reference::reset, COMDAT
; _this$ = esi

; 101  : 			if (L && m_ref != LUA_NOREF) unref(L, m_ref);

	mov	ecx, DWORD PTR [esi]
	test	ecx, ecx
	je	SHORT $LN5@reset
	mov	eax, DWORD PTR [esi+4]
	cmp	eax, -2					; fffffffeH
	je	SHORT $LN5@reset
	push	eax
	push	ecx
	call	DWORD PTR __imp_?unref@detail@luabind@@YAXPAUlua_State@@H@Z
	add	esp, 8
$LN5@reset:

; 102  : 			m_ref = LUA_NOREF;

	mov	DWORD PTR [esi+4], -2			; fffffffeH

; 103  : 		}

	ret	0
?reset@lua_reference@detail@luabind@@QAEXXZ ENDP	; luabind::detail::lua_reference::reset
; Function compile flags: /Ogtpy
_TEXT	ENDS
;	COMDAT ??1lua_reference@detail@luabind@@QAE@XZ
_TEXT	SEGMENT
??1lua_reference@detail@luabind@@QAE@XZ PROC		; luabind::detail::lua_reference::~lua_reference, COMDAT
; _this$ = esi

; 60   : 		~lua_reference() { reset(); }

	mov	ecx, DWORD PTR [esi]
	test	ecx, ecx
	je	SHORT $LN7@lua_refere
	mov	eax, DWORD PTR [esi+4]
	cmp	eax, -2					; fffffffeH
	je	SHORT $LN7@lua_refere
	push	eax
	push	ecx
	call	DWORD PTR __imp_?unref@detail@luabind@@YAXPAUlua_State@@H@Z
	add	esp, 8
$LN7@lua_refere:
	mov	DWORD PTR [esi+4], -2			; fffffffeH
	ret	0
??1lua_reference@detail@luabind@@QAE@XZ ENDP		; luabind::detail::lua_reference::~lua_reference
END
