; Listing generated by Microsoft (R) Optimizing Compiler Version 14.00.50727.762 

	TITLE	D:\CLEARSKY\sources\engine\xrEngine\edit_actions.cpp
	.686P
	.XMM
	include listing.inc
	.model	flat

INCLUDELIB OLDNAMES

PUBLIC	?on_key_press@key_state_base@text_editor@@UAEXQAVline_edit_control@2@@Z ; text_editor::key_state_base::on_key_press
PUBLIC	??_R4key_state_base@text_editor@@6B@		; text_editor::key_state_base::`RTTI Complete Object Locator'
PUBLIC	??_R3key_state_base@text_editor@@8		; text_editor::key_state_base::`RTTI Class Hierarchy Descriptor'
PUBLIC	??_R2key_state_base@text_editor@@8		; text_editor::key_state_base::`RTTI Base Class Array'
PUBLIC	??_R1A@?0A@EA@key_state_base@text_editor@@8	; text_editor::key_state_base::`RTTI Base Class Descriptor at (0,-1,0,64)'
PUBLIC	??_R0?AVkey_state_base@text_editor@@@8		; text_editor::key_state_base `RTTI Type Descriptor'
PUBLIC	?on_key_press@type_pair@text_editor@@UAEXQAVline_edit_control@2@@Z ; text_editor::type_pair::on_key_press
PUBLIC	??_R4type_pair@text_editor@@6B@			; text_editor::type_pair::`RTTI Complete Object Locator'
PUBLIC	??_R3type_pair@text_editor@@8			; text_editor::type_pair::`RTTI Class Hierarchy Descriptor'
PUBLIC	??_R2type_pair@text_editor@@8			; text_editor::type_pair::`RTTI Base Class Array'
PUBLIC	??_R1A@?0A@EA@type_pair@text_editor@@8		; text_editor::type_pair::`RTTI Base Class Descriptor at (0,-1,0,64)'
PUBLIC	??_R0?AVtype_pair@text_editor@@@8		; text_editor::type_pair `RTTI Type Descriptor'
PUBLIC	?on_key_press@callback_base@text_editor@@UAEXQAVline_edit_control@2@@Z ; text_editor::callback_base::on_key_press
PUBLIC	??_R4callback_base@text_editor@@6B@		; text_editor::callback_base::`RTTI Complete Object Locator'
PUBLIC	??_R3callback_base@text_editor@@8		; text_editor::callback_base::`RTTI Class Hierarchy Descriptor'
PUBLIC	??_R2callback_base@text_editor@@8		; text_editor::callback_base::`RTTI Base Class Array'
PUBLIC	??_R1A@?0A@EA@callback_base@text_editor@@8	; text_editor::callback_base::`RTTI Base Class Descriptor at (0,-1,0,64)'
PUBLIC	??_R0?AVcallback_base@text_editor@@@8		; text_editor::callback_base `RTTI Type Descriptor'
PUBLIC	?on_key_press@base@text_editor@@UAEXQAVline_edit_control@2@@Z ; text_editor::base::on_key_press
PUBLIC	??_R4base@text_editor@@6B@			; text_editor::base::`RTTI Complete Object Locator'
PUBLIC	??_R3base@text_editor@@8			; text_editor::base::`RTTI Class Hierarchy Descriptor'
PUBLIC	??_R2base@text_editor@@8			; text_editor::base::`RTTI Base Class Array'
PUBLIC	??_R13?0A@EN@noncopyable@boost@@8		; boost::noncopyable::`RTTI Base Class Descriptor at (4,-1,0,77)'
PUBLIC	??_R3noncopyable@boost@@8			; boost::noncopyable::`RTTI Class Hierarchy Descriptor'
PUBLIC	??_R2noncopyable@boost@@8			; boost::noncopyable::`RTTI Base Class Array'
PUBLIC	??_R1A@?0A@EA@noncopyable@boost@@8		; boost::noncopyable::`RTTI Base Class Descriptor at (0,-1,0,64)'
PUBLIC	??_R0?AVnoncopyable@boost@@@8			; boost::noncopyable `RTTI Type Descriptor'
PUBLIC	??_R1A@?0A@EA@base@text_editor@@8		; text_editor::base::`RTTI Base Class Descriptor at (0,-1,0,64)'
PUBLIC	??_R0?AVbase@text_editor@@@8			; text_editor::base `RTTI Type Descriptor'
PUBLIC	??_Gcallback_base@text_editor@@UAEPAXI@Z	; text_editor::callback_base::`scalar deleting destructor'
PUBLIC	??_Gtype_pair@text_editor@@UAEPAXI@Z		; text_editor::type_pair::`scalar deleting destructor'
PUBLIC	??_Gkey_state_base@text_editor@@UAEPAXI@Z	; text_editor::key_state_base::`scalar deleting destructor'
PUBLIC	??0noncopyable@boost@@IAE@XZ			; boost::noncopyable::noncopyable
PUBLIC	??1noncopyable@boost@@IAE@XZ			; boost::noncopyable::~noncopyable
PUBLIC	??_Gbase@text_editor@@UAEPAXI@Z			; text_editor::base::`scalar deleting destructor'
PUBLIC	??_7base@text_editor@@6B@			; text_editor::base::`vftable'
PUBLIC	??_7callback_base@text_editor@@6B@		; text_editor::callback_base::`vftable'
PUBLIC	??_7type_pair@text_editor@@6B@			; text_editor::type_pair::`vftable'
PUBLIC	??_7key_state_base@text_editor@@6B@		; text_editor::key_state_base::`vftable'
EXTRN	__imp____pctype_func:PROC
EXTRN	__imp___isctype_l:PROC
EXTRN	__imp___strlwr_l:PROC
EXTRN	__imp___strupr_l:PROC
EXTRN	__imp___create_locale:PROC
EXTRN	??_Ecallback_base@text_editor@@UAEPAXI@Z:PROC	; text_editor::callback_base::`vector deleting destructor'
EXTRN	??_Etype_pair@text_editor@@UAEPAXI@Z:PROC	; text_editor::type_pair::`vector deleting destructor'
EXTRN	??_Ekey_state_base@text_editor@@UAEPAXI@Z:PROC	; text_editor::key_state_base::`vector deleting destructor'
EXTRN	??_Ebase@text_editor@@UAEPAXI@Z:PROC		; text_editor::base::`vector deleting destructor'
;	COMDAT ??_7key_state_base@text_editor@@6B@
CONST	SEGMENT
??_7key_state_base@text_editor@@6B@ DD FLAT:??_R4key_state_base@text_editor@@6B@ ; text_editor::key_state_base::`vftable'
	DD	FLAT:??_Ekey_state_base@text_editor@@UAEPAXI@Z
	DD	FLAT:?on_key_press@key_state_base@text_editor@@UAEXQAVline_edit_control@2@@Z
CONST	ENDS
;	COMDAT ??_R4key_state_base@text_editor@@6B@
rdata$r	SEGMENT
??_R4key_state_base@text_editor@@6B@ DD 00H		; text_editor::key_state_base::`RTTI Complete Object Locator'
	DD	00H
	DD	00H
	DD	FLAT:??_R0?AVkey_state_base@text_editor@@@8
	DD	FLAT:??_R3key_state_base@text_editor@@8
rdata$r	ENDS
;	COMDAT ??_R3key_state_base@text_editor@@8
rdata$r	SEGMENT
??_R3key_state_base@text_editor@@8 DD 00H		; text_editor::key_state_base::`RTTI Class Hierarchy Descriptor'
	DD	00H
	DD	03H
	DD	FLAT:??_R2key_state_base@text_editor@@8
rdata$r	ENDS
;	COMDAT ??_R2key_state_base@text_editor@@8
rdata$r	SEGMENT
??_R2key_state_base@text_editor@@8 DD FLAT:??_R1A@?0A@EA@key_state_base@text_editor@@8 ; text_editor::key_state_base::`RTTI Base Class Array'
	DD	FLAT:??_R1A@?0A@EA@base@text_editor@@8
	DD	FLAT:??_R13?0A@EN@noncopyable@boost@@8
rdata$r	ENDS
;	COMDAT ??_R1A@?0A@EA@key_state_base@text_editor@@8
rdata$r	SEGMENT
??_R1A@?0A@EA@key_state_base@text_editor@@8 DD FLAT:??_R0?AVkey_state_base@text_editor@@@8 ; text_editor::key_state_base::`RTTI Base Class Descriptor at (0,-1,0,64)'
	DD	02H
	DD	00H
	DD	0ffffffffH
	DD	00H
	DD	040H
	DD	FLAT:??_R3key_state_base@text_editor@@8
rdata$r	ENDS
;	COMDAT ??_R0?AVkey_state_base@text_editor@@@8
_DATA	SEGMENT
??_R0?AVkey_state_base@text_editor@@@8 DD FLAT:??_7type_info@@6B@ ; text_editor::key_state_base `RTTI Type Descriptor'
	DD	00H
	DB	'.?AVkey_state_base@text_editor@@', 00H
_DATA	ENDS
;	COMDAT ??_7type_pair@text_editor@@6B@
CONST	SEGMENT
??_7type_pair@text_editor@@6B@ DD FLAT:??_R4type_pair@text_editor@@6B@ ; text_editor::type_pair::`vftable'
	DD	FLAT:??_Etype_pair@text_editor@@UAEPAXI@Z
	DD	FLAT:?on_key_press@type_pair@text_editor@@UAEXQAVline_edit_control@2@@Z
CONST	ENDS
;	COMDAT ??_R4type_pair@text_editor@@6B@
rdata$r	SEGMENT
??_R4type_pair@text_editor@@6B@ DD 00H			; text_editor::type_pair::`RTTI Complete Object Locator'
	DD	00H
	DD	00H
	DD	FLAT:??_R0?AVtype_pair@text_editor@@@8
	DD	FLAT:??_R3type_pair@text_editor@@8
rdata$r	ENDS
;	COMDAT ??_R3type_pair@text_editor@@8
rdata$r	SEGMENT
??_R3type_pair@text_editor@@8 DD 00H			; text_editor::type_pair::`RTTI Class Hierarchy Descriptor'
	DD	00H
	DD	03H
	DD	FLAT:??_R2type_pair@text_editor@@8
rdata$r	ENDS
;	COMDAT ??_R2type_pair@text_editor@@8
rdata$r	SEGMENT
??_R2type_pair@text_editor@@8 DD FLAT:??_R1A@?0A@EA@type_pair@text_editor@@8 ; text_editor::type_pair::`RTTI Base Class Array'
	DD	FLAT:??_R1A@?0A@EA@base@text_editor@@8
	DD	FLAT:??_R13?0A@EN@noncopyable@boost@@8
rdata$r	ENDS
;	COMDAT ??_R1A@?0A@EA@type_pair@text_editor@@8
rdata$r	SEGMENT
??_R1A@?0A@EA@type_pair@text_editor@@8 DD FLAT:??_R0?AVtype_pair@text_editor@@@8 ; text_editor::type_pair::`RTTI Base Class Descriptor at (0,-1,0,64)'
	DD	02H
	DD	00H
	DD	0ffffffffH
	DD	00H
	DD	040H
	DD	FLAT:??_R3type_pair@text_editor@@8
rdata$r	ENDS
;	COMDAT ??_R0?AVtype_pair@text_editor@@@8
_DATA	SEGMENT
??_R0?AVtype_pair@text_editor@@@8 DD FLAT:??_7type_info@@6B@ ; text_editor::type_pair `RTTI Type Descriptor'
	DD	00H
	DB	'.?AVtype_pair@text_editor@@', 00H
_DATA	ENDS
;	COMDAT ??_7callback_base@text_editor@@6B@
CONST	SEGMENT
??_7callback_base@text_editor@@6B@ DD FLAT:??_R4callback_base@text_editor@@6B@ ; text_editor::callback_base::`vftable'
	DD	FLAT:??_Ecallback_base@text_editor@@UAEPAXI@Z
	DD	FLAT:?on_key_press@callback_base@text_editor@@UAEXQAVline_edit_control@2@@Z
CONST	ENDS
;	COMDAT ??_R4callback_base@text_editor@@6B@
rdata$r	SEGMENT
??_R4callback_base@text_editor@@6B@ DD 00H		; text_editor::callback_base::`RTTI Complete Object Locator'
	DD	00H
	DD	00H
	DD	FLAT:??_R0?AVcallback_base@text_editor@@@8
	DD	FLAT:??_R3callback_base@text_editor@@8
rdata$r	ENDS
;	COMDAT ??_R3callback_base@text_editor@@8
rdata$r	SEGMENT
??_R3callback_base@text_editor@@8 DD 00H		; text_editor::callback_base::`RTTI Class Hierarchy Descriptor'
	DD	00H
	DD	03H
	DD	FLAT:??_R2callback_base@text_editor@@8
rdata$r	ENDS
;	COMDAT ??_R2callback_base@text_editor@@8
rdata$r	SEGMENT
??_R2callback_base@text_editor@@8 DD FLAT:??_R1A@?0A@EA@callback_base@text_editor@@8 ; text_editor::callback_base::`RTTI Base Class Array'
	DD	FLAT:??_R1A@?0A@EA@base@text_editor@@8
	DD	FLAT:??_R13?0A@EN@noncopyable@boost@@8
rdata$r	ENDS
;	COMDAT ??_R1A@?0A@EA@callback_base@text_editor@@8
rdata$r	SEGMENT
??_R1A@?0A@EA@callback_base@text_editor@@8 DD FLAT:??_R0?AVcallback_base@text_editor@@@8 ; text_editor::callback_base::`RTTI Base Class Descriptor at (0,-1,0,64)'
	DD	02H
	DD	00H
	DD	0ffffffffH
	DD	00H
	DD	040H
	DD	FLAT:??_R3callback_base@text_editor@@8
rdata$r	ENDS
;	COMDAT ??_R0?AVcallback_base@text_editor@@@8
_DATA	SEGMENT
??_R0?AVcallback_base@text_editor@@@8 DD FLAT:??_7type_info@@6B@ ; text_editor::callback_base `RTTI Type Descriptor'
	DD	00H
	DB	'.?AVcallback_base@text_editor@@', 00H
_DATA	ENDS
;	COMDAT ??_7base@text_editor@@6B@
CONST	SEGMENT
??_7base@text_editor@@6B@ DD FLAT:??_R4base@text_editor@@6B@ ; text_editor::base::`vftable'
	DD	FLAT:??_Ebase@text_editor@@UAEPAXI@Z
	DD	FLAT:?on_key_press@base@text_editor@@UAEXQAVline_edit_control@2@@Z
CONST	ENDS
;	COMDAT ??_R4base@text_editor@@6B@
rdata$r	SEGMENT
??_R4base@text_editor@@6B@ DD 00H			; text_editor::base::`RTTI Complete Object Locator'
	DD	00H
	DD	00H
	DD	FLAT:??_R0?AVbase@text_editor@@@8
	DD	FLAT:??_R3base@text_editor@@8
rdata$r	ENDS
;	COMDAT ??_R3base@text_editor@@8
rdata$r	SEGMENT
??_R3base@text_editor@@8 DD 00H				; text_editor::base::`RTTI Class Hierarchy Descriptor'
	DD	00H
	DD	02H
	DD	FLAT:??_R2base@text_editor@@8
rdata$r	ENDS
;	COMDAT ??_R2base@text_editor@@8
rdata$r	SEGMENT
??_R2base@text_editor@@8 DD FLAT:??_R1A@?0A@EA@base@text_editor@@8 ; text_editor::base::`RTTI Base Class Array'
	DD	FLAT:??_R13?0A@EN@noncopyable@boost@@8
rdata$r	ENDS
;	COMDAT ??_R13?0A@EN@noncopyable@boost@@8
rdata$r	SEGMENT
??_R13?0A@EN@noncopyable@boost@@8 DD FLAT:??_R0?AVnoncopyable@boost@@@8 ; boost::noncopyable::`RTTI Base Class Descriptor at (4,-1,0,77)'
	DD	00H
	DD	04H
	DD	0ffffffffH
	DD	00H
	DD	04dH
	DD	FLAT:??_R3noncopyable@boost@@8
rdata$r	ENDS
;	COMDAT ??_R3noncopyable@boost@@8
rdata$r	SEGMENT
??_R3noncopyable@boost@@8 DD 00H			; boost::noncopyable::`RTTI Class Hierarchy Descriptor'
	DD	00H
	DD	01H
	DD	FLAT:??_R2noncopyable@boost@@8
rdata$r	ENDS
;	COMDAT ??_R2noncopyable@boost@@8
rdata$r	SEGMENT
??_R2noncopyable@boost@@8 DD FLAT:??_R1A@?0A@EA@noncopyable@boost@@8 ; boost::noncopyable::`RTTI Base Class Array'
rdata$r	ENDS
;	COMDAT ??_R1A@?0A@EA@noncopyable@boost@@8
rdata$r	SEGMENT
??_R1A@?0A@EA@noncopyable@boost@@8 DD FLAT:??_R0?AVnoncopyable@boost@@@8 ; boost::noncopyable::`RTTI Base Class Descriptor at (0,-1,0,64)'
	DD	00H
	DD	00H
	DD	0ffffffffH
	DD	00H
	DD	040H
	DD	FLAT:??_R3noncopyable@boost@@8
rdata$r	ENDS
;	COMDAT ??_R0?AVnoncopyable@boost@@@8
_DATA	SEGMENT
??_R0?AVnoncopyable@boost@@@8 DD FLAT:??_7type_info@@6B@ ; boost::noncopyable `RTTI Type Descriptor'
	DD	00H
	DB	'.?AVnoncopyable@boost@@', 00H
_DATA	ENDS
;	COMDAT ??_R1A@?0A@EA@base@text_editor@@8
rdata$r	SEGMENT
??_R1A@?0A@EA@base@text_editor@@8 DD FLAT:??_R0?AVbase@text_editor@@@8 ; text_editor::base::`RTTI Base Class Descriptor at (0,-1,0,64)'
	DD	01H
	DD	00H
	DD	0ffffffffH
	DD	00H
	DD	040H
	DD	FLAT:??_R3base@text_editor@@8
rdata$r	ENDS
;	COMDAT ??_R0?AVbase@text_editor@@@8
_DATA	SEGMENT
??_R0?AVbase@text_editor@@@8 DD FLAT:??_7type_info@@6B@	; text_editor::base `RTTI Type Descriptor'
	DD	00H
	DB	'.?AVbase@text_editor@@', 00H
PUBLIC	?init@type_pair@text_editor@@QAEXIDD_N@Z	; text_editor::type_pair::init
; Function compile flags: /Ogtpy
; File d:\clearsky\sources\engine\xrengine\edit_actions.cpp
;	COMDAT ?init@type_pair@text_editor@@QAEXIDD_N@Z
_TEXT	SEGMENT
_c$ = 8							; size = 1
_c_shift$ = 12						; size = 1
?init@type_pair@text_editor@@QAEXIDD_N@Z PROC		; text_editor::type_pair::init, COMDAT
; _this$ = eax
; _dik$ = edx
; _b_translate$ = ecx

; 74   : 	m_translate	= b_translate;

	mov	BYTE PTR [eax+12], cl

; 75   : 	m_dik = dik;
; 76   : 	m_char = c;

	mov	cl, BYTE PTR _c$[esp-4]
	mov	DWORD PTR [eax+8], edx

; 77   : 	m_char_shift = c_shift;

	mov	dl, BYTE PTR _c_shift$[esp-4]
	mov	BYTE PTR [eax+13], cl
	mov	BYTE PTR [eax+14], dl

; 78   : }

	ret	8
?init@type_pair@text_editor@@QAEXIDD_N@Z ENDP		; text_editor::type_pair::init
; Function compile flags: /Ogtpy
_TEXT	ENDS
;	COMDAT ?on_key_press@base@text_editor@@UAEXQAVline_edit_control@2@@Z
_TEXT	SEGMENT
_control$ = 8						; size = 4
?on_key_press@base@text_editor@@UAEXQAVline_edit_control@2@@Z PROC ; text_editor::base::on_key_press, COMDAT
; _this$ = ecx

; 33   : 	if ( m_previous_action )

	cmp	DWORD PTR [ecx+4], 0
	je	SHORT $LN1@on_key_pre

; 34   : 	{
; 35   : 		m_previous_action->on_key_press( control );

	mov	ecx, DWORD PTR [ecx+4]
	mov	eax, DWORD PTR [ecx]
	mov	eax, DWORD PTR [eax+4]
	jmp	eax
$LN1@on_key_pre:

; 36   : 	}
; 37   : }

	ret	4
?on_key_press@base@text_editor@@UAEXQAVline_edit_control@2@@Z ENDP ; text_editor::base::on_key_press
_TEXT	ENDS
PUBLIC	?on_assign@base@text_editor@@QAEXQAV12@@Z	; text_editor::base::on_assign
; Function compile flags: /Ogtpy
;	COMDAT ?on_assign@base@text_editor@@QAEXQAV12@@Z
_TEXT	SEGMENT
?on_assign@base@text_editor@@QAEXQAV12@@Z PROC		; text_editor::base::on_assign, COMDAT
; _this$ = eax
; _prev_action$ = ecx

; 28   : 	m_previous_action = prev_action;

	mov	DWORD PTR [eax+4], ecx

; 29   : }

	ret	0
?on_assign@base@text_editor@@QAEXQAV12@@Z ENDP		; text_editor::base::on_assign
; Function compile flags: /Ogtpy
; File d:\clearsky\sources\sdk\include\boost\noncopyable.hpp
_TEXT	ENDS
;	COMDAT ??1noncopyable@boost@@IAE@XZ
_TEXT	SEGMENT
??1noncopyable@boost@@IAE@XZ PROC			; boost::noncopyable::~noncopyable, COMDAT

; 25   :     ~noncopyable() {}

	ret	0
??1noncopyable@boost@@IAE@XZ ENDP			; boost::noncopyable::~noncopyable
; Function compile flags: /Ogtpy
_TEXT	ENDS
;	COMDAT ??0noncopyable@boost@@IAE@XZ
_TEXT	SEGMENT
??0noncopyable@boost@@IAE@XZ PROC			; boost::noncopyable::noncopyable, COMDAT
; _this$ = eax

; 24   :     noncopyable() {}

	ret	0
??0noncopyable@boost@@IAE@XZ ENDP			; boost::noncopyable::noncopyable
PUBLIC	??1base@text_editor@@UAE@XZ			; text_editor::base::~base
; Function compile flags: /Ogtpy
; File d:\clearsky\sources\engine\xrengine\edit_actions.cpp
;	COMDAT ??1base@text_editor@@UAE@XZ
_TEXT	SEGMENT
??1base@text_editor@@UAE@XZ PROC			; text_editor::base::~base, COMDAT
; _this$ = ecx

; 22   : {

	push	esi
	mov	esi, ecx
	mov	DWORD PTR [esi], OFFSET ??_7base@text_editor@@6B@

; 23   : 	xr_delete( m_previous_action );

	mov	eax, DWORD PTR [esi+4]
	test	eax, eax
	je	SHORT $LN5@base
	push	edi
	push	eax
	call	___RTCastToVoid
	mov	ecx, DWORD PTR [esi+4]
	mov	edi, eax
	mov	eax, DWORD PTR [ecx]
	mov	edx, DWORD PTR [eax]
	add	esp, 4
	push	0
	call	edx
	mov	ecx, DWORD PTR __imp_?Memory@@3VxrMemory@@A
	push	edi
	call	DWORD PTR __imp_?mem_free@xrMemory@@QAEXPAX@Z
	mov	DWORD PTR [esi+4], 0
	pop	edi
$LN5@base:
	pop	esi

; 24   : }

	ret	0
??1base@text_editor@@UAE@XZ ENDP			; text_editor::base::~base
; Function compile flags: /Ogtpy
_TEXT	ENDS
;	COMDAT ??_Gbase@text_editor@@UAEPAXI@Z
_TEXT	SEGMENT
___flags$ = 8						; size = 4
??_Gbase@text_editor@@UAEPAXI@Z PROC			; text_editor::base::`scalar deleting destructor', COMDAT
; _this$ = ecx
	push	ebx
	mov	ebx, DWORD PTR __imp_?mem_free@xrMemory@@QAEXPAX@Z
	push	esi
	mov	esi, ecx
	mov	DWORD PTR [esi], OFFSET ??_7base@text_editor@@6B@
	mov	eax, DWORD PTR [esi+4]
	test	eax, eax
	je	SHORT $LN8@scalar@2
	push	edi
	push	eax
	call	___RTCastToVoid
	mov	ecx, DWORD PTR [esi+4]
	mov	edi, eax
	mov	eax, DWORD PTR [ecx]
	mov	edx, DWORD PTR [eax]
	add	esp, 4
	push	0
	call	edx
	mov	ecx, DWORD PTR __imp_?Memory@@3VxrMemory@@A
	push	edi
	call	ebx
	mov	DWORD PTR [esi+4], 0
	pop	edi
$LN8@scalar@2:
	test	BYTE PTR ___flags$[esp+4], 1
	je	SHORT $LN20@scalar@2
	mov	ecx, DWORD PTR __imp_?Memory@@3VxrMemory@@A
	push	esi
	call	ebx
$LN20@scalar@2:
	mov	eax, esi
	pop	esi
	pop	ebx
	ret	4
??_Gbase@text_editor@@UAEPAXI@Z ENDP			; text_editor::base::`scalar deleting destructor'
_TEXT	ENDS
PUBLIC	??0base@text_editor@@QAE@XZ			; text_editor::base::base
; Function compile flags: /Ogtpy
;	COMDAT ??0base@text_editor@@QAE@XZ
_TEXT	SEGMENT
??0base@text_editor@@QAE@XZ PROC			; text_editor::base::base, COMDAT
; _this$ = eax

; 18   : {

	mov	DWORD PTR [eax], OFFSET ??_7base@text_editor@@6B@
	mov	DWORD PTR [eax+4], 0

; 19   : }

	ret	0
??0base@text_editor@@QAE@XZ ENDP			; text_editor::base::base
; Function compile flags: /Ogtpy
;	COMDAT ?on_key_press@key_state_base@text_editor@@UAEXQAVline_edit_control@2@@Z
_TEXT	SEGMENT
_control$ = 8						; size = 4
?on_key_press@key_state_base@text_editor@@UAEXQAVline_edit_control@2@@Z PROC ; text_editor::key_state_base::on_key_press, COMDAT
; _this$ = ecx

; 144  : {

	push	esi
	push	edi

; 145  : 	control->set_key_state( m_state, true );

	mov	edi, DWORD PTR _control$[esp+4]
	mov	esi, ecx
	mov	eax, DWORD PTR [esi+8]
	push	1
	push	eax
	lea	ecx, DWORD PTR [edi+1096]
	call	?set@?$_flags@I@@QAEAAU1@IH@Z		; _flags<unsigned int>::set

; 146  : 	if(m_type_pair)

	cmp	DWORD PTR [esi+12], 0
	je	SHORT $LN1@on_key_pre@2

; 147  : 		m_type_pair->on_key_press(control);

	mov	ecx, DWORD PTR [esi+12]
	mov	edx, DWORD PTR [ecx]
	mov	eax, DWORD PTR [edx+4]
	push	edi
	call	eax
$LN1@on_key_pre@2:
	pop	edi
	pop	esi

; 148  : }

	ret	4
?on_key_press@key_state_base@text_editor@@UAEXQAVline_edit_control@2@@Z ENDP ; text_editor::key_state_base::on_key_press
_TEXT	ENDS
PUBLIC	??1key_state_base@text_editor@@UAE@XZ		; text_editor::key_state_base::~key_state_base
; Function compile flags: /Ogtpy
;	COMDAT ??1key_state_base@text_editor@@UAE@XZ
_TEXT	SEGMENT
??1key_state_base@text_editor@@UAE@XZ PROC		; text_editor::key_state_base::~key_state_base, COMDAT
; _this$ = ecx

; 139  : {

	push	ebx

; 140  : 	xr_delete(m_type_pair);

	mov	ebx, DWORD PTR __imp_?mem_free@xrMemory@@QAEXPAX@Z
	push	esi
	mov	esi, ecx
	mov	DWORD PTR [esi], OFFSET ??_7key_state_base@text_editor@@6B@
	mov	eax, DWORD PTR [esi+12]
	test	eax, eax
	push	edi
	je	SHORT $LN3@key_state_
	push	eax
	call	___RTCastToVoid
	mov	ecx, DWORD PTR [esi+12]
	mov	edi, eax
	mov	eax, DWORD PTR [ecx]
	mov	edx, DWORD PTR [eax]
	add	esp, 4
	push	0
	call	edx
	mov	ecx, DWORD PTR __imp_?Memory@@3VxrMemory@@A
	push	edi
	call	ebx
	mov	DWORD PTR [esi+12], 0
$LN3@key_state_:

; 141  : }

	mov	DWORD PTR [esi], OFFSET ??_7base@text_editor@@6B@
	mov	eax, DWORD PTR [esi+4]
	test	eax, eax
	je	SHORT $LN12@key_state_
	push	eax
	call	___RTCastToVoid
	mov	ecx, DWORD PTR [esi+4]
	mov	edi, eax
	mov	eax, DWORD PTR [ecx]
	mov	edx, DWORD PTR [eax]
	add	esp, 4
	push	0
	call	edx
	mov	ecx, DWORD PTR __imp_?Memory@@3VxrMemory@@A
	push	edi
	call	ebx
	mov	DWORD PTR [esi+4], 0
$LN12@key_state_:
	pop	edi
	pop	esi
	pop	ebx
	ret	0
??1key_state_base@text_editor@@UAE@XZ ENDP		; text_editor::key_state_base::~key_state_base
; Function compile flags: /Ogtpy
_TEXT	ENDS
;	COMDAT ??_Gkey_state_base@text_editor@@UAEPAXI@Z
_TEXT	SEGMENT
___flags$ = 8						; size = 4
??_Gkey_state_base@text_editor@@UAEPAXI@Z PROC		; text_editor::key_state_base::`scalar deleting destructor', COMDAT
; _this$ = ecx
	push	esi
	mov	esi, ecx
	call	??1key_state_base@text_editor@@UAE@XZ	; text_editor::key_state_base::~key_state_base
	test	BYTE PTR ___flags$[esp], 1
	je	SHORT $LN10@scalar@22
	test	esi, esi
	je	SHORT $LN10@scalar@22
	mov	ecx, DWORD PTR __imp_?Memory@@3VxrMemory@@A
	push	esi
	call	DWORD PTR __imp_?mem_free@xrMemory@@QAEXPAX@Z
$LN10@scalar@22:
	mov	eax, esi
	pop	esi
	ret	4
??_Gkey_state_base@text_editor@@UAEPAXI@Z ENDP		; text_editor::key_state_base::`scalar deleting destructor'
_TEXT	ENDS
PUBLIC	??0key_state_base@text_editor@@QAE@W4key_state@1@PAVbase@1@@Z ; text_editor::key_state_base::key_state_base
; Function compile flags: /Ogtpy
;	COMDAT ??0key_state_base@text_editor@@QAE@W4key_state@1@PAVbase@1@@Z
_TEXT	SEGMENT
??0key_state_base@text_editor@@QAE@W4key_state@1@PAVbase@1@@Z PROC ; text_editor::key_state_base::key_state_base, COMDAT
; _this$ = eax
; _state$ = ecx
; _type_pair$ = edx

; 135  : {

	mov	DWORD PTR [eax+4], 0
	mov	DWORD PTR [eax], OFFSET ??_7key_state_base@text_editor@@6B@
	mov	DWORD PTR [eax+8], ecx
	mov	DWORD PTR [eax+12], edx

; 136  : }

	ret	0
??0key_state_base@text_editor@@QAE@W4key_state@1@PAVbase@1@@Z ENDP ; text_editor::key_state_base::key_state_base
_TEXT	ENDS
;	COMDAT ?current_locale@?4??on_key_press@type_pair@text_editor@@UAEXQAVline_edit_control@3@@Z@4PAUlocaleinfo_struct@@A
; File d:\clearsky\sources\engine\xrengine\line_edit_control.cpp
_BSS	SEGMENT
?current_locale@?4??on_key_press@type_pair@text_editor@@UAEXQAVline_edit_control@3@@Z@4PAUlocaleinfo_struct@@A DD 01H DUP (?) ; `text_editor::type_pair::on_key_press'::`5'::current_locale
_BSS	ENDS
;	COMDAT ?$S6@?4??on_key_press@type_pair@text_editor@@UAEXQAVline_edit_control@3@@Z@4IA
_BSS	SEGMENT
?$S6@?4??on_key_press@type_pair@text_editor@@UAEXQAVline_edit_control@3@@Z@4IA DD 01H DUP (?) ; `text_editor::type_pair::on_key_press'::`5'::$S6
; Function compile flags: /Ogtpy
; File d:\clearsky\sources\engine\xrengine\edit_actions.cpp
_BSS	ENDS
;	COMDAT ?on_key_press@type_pair@text_editor@@UAEXQAVline_edit_control@2@@Z
_TEXT	SEGMENT
_c$ = -130						; size = 1
_c_shift$117813 = -129					; size = 1
_buff$117814 = -128					; size = 128
_control$ = 8						; size = 4
?on_key_press@type_pair@text_editor@@UAEXQAVline_edit_control@2@@Z PROC ; text_editor::type_pair::on_key_press, COMDAT
; _this$ = ecx

; 82   : {

	sub	esp, 132				; 00000084H
	push	ebx
	push	esi
	mov	esi, ecx

; 83   : 	char c = 0;
; 84   : 	if( m_translate )

	cmp	BYTE PTR [esi+12], 0

; 85   : 	{
; 86   : 		c				= m_char;

	mov	al, BYTE PTR [esi+13]
	push	edi
	mov	BYTE PTR _c$[esp+144], al
	je	$LN8@on_key_pre@3

; 87   : 		char c_shift	= m_char_shift;

	mov	cl, BYTE PTR [esi+14]

; 88   : 		string128		buff;
; 89   : 		buff[0]			= 0;
; 90   : 		
; 91   : 		/*
; 92   : 		//setlocale( LC_ALL, "" ); // User-default
; 93   : 
; 94   : 		// The following 3 lines looks useless
; 95   : 
; 96   : 		LPSTR			loc;
; 97   : 		STRCONCAT		( loc, ".", itoa( GetACP(), code_page, 10 ) );
; 98   : 		setlocale		( LC_ALL, loc );*/
; 99   : 
; 100  : 		static _locale_t current_locale = _create_locale(LC_ALL, "");

	mov	ebx, 1
	test	BYTE PTR ?$S6@?4??on_key_press@type_pair@text_editor@@UAEXQAVline_edit_control@3@@Z@4IA, bl
	mov	BYTE PTR _c_shift$117813[esp+144], cl
	mov	BYTE PTR _buff$117814[esp+144], 0
	jne	SHORT $LN44@on_key_pre@3
	or	DWORD PTR ?$S6@?4??on_key_press@type_pair@text_editor@@UAEXQAVline_edit_control@3@@Z@4IA, ebx
	push	OFFSET ??_C@_00CNPNBAHC@?$AA@
	push	0
	call	DWORD PTR __imp___create_locale
	add	esp, 8
	mov	DWORD PTR ?current_locale@?4??on_key_press@type_pair@text_editor@@UAEXQAVline_edit_control@3@@Z@4PAUlocaleinfo_struct@@A, eax
$LN44@on_key_pre@3:

; 101  : 		
; 102  : 		if ( pInput->get_dik_name( m_dik, buff, sizeof(buff) ) )

	mov	eax, DWORD PTR [esi+8]
	mov	ecx, DWORD PTR ?pInput@@3PAVCInput@@A	; pInput
	push	128					; 00000080H
	lea	edx, DWORD PTR _buff$117814[esp+148]
	push	edx
	push	eax
	call	?get_dik_name@CInput@@QAE_NHPADH@Z	; CInput::get_dik_name
	test	al, al
	je	$LN5@on_key_pre@3

; 103  : 		{
; 104  : 			if ( _isalpha_l(buff[0], current_locale) || buff[0] == char(-1) ) // "ÿ" = -1

	mov	ecx, DWORD PTR ?current_locale@?4??on_key_press@type_pair@text_editor@@UAEXQAVline_edit_control@3@@Z@4PAUlocaleinfo_struct@@A
	test	ecx, ecx
	je	SHORT $LN41@on_key_pre@3
	mov	eax, DWORD PTR [ecx]
	cmp	DWORD PTR [eax+172], ebx
	jle	SHORT $LN12@on_key_pre@3
	push	ecx
	movsx	ecx, BYTE PTR _buff$117814[esp+148]
	push	259					; 00000103H
	push	ecx
	call	DWORD PTR __imp___isctype_l
	mov	ecx, DWORD PTR ?current_locale@?4??on_key_press@type_pair@text_editor@@UAEXQAVline_edit_control@3@@Z@4PAUlocaleinfo_struct@@A
	add	esp, 12					; 0000000cH
	jmp	SHORT $LN13@on_key_pre@3
$LN41@on_key_pre@3:
	call	DWORD PTR __imp____pctype_func
	mov	ecx, DWORD PTR ?current_locale@?4??on_key_press@type_pair@text_editor@@UAEXQAVline_edit_control@3@@Z@4PAUlocaleinfo_struct@@A
	jmp	SHORT $LN46@on_key_pre@3
$LN12@on_key_pre@3:
	mov	eax, DWORD PTR [eax+200]
$LN46@on_key_pre@3:
	movsx	edx, BYTE PTR _buff$117814[esp+144]
	movzx	eax, WORD PTR [eax+edx*2]
	and	eax, 259				; 00000103H
$LN13@on_key_pre@3:
	test	eax, eax
	jne	SHORT $LN4@on_key_pre@3
	cmp	BYTE PTR _buff$117814[esp+144], -1
	jne	SHORT $LN5@on_key_pre@3
$LN4@on_key_pre@3:

; 105  : 			{
; 106  : 				_strlwr_l	(buff, current_locale);

	push	ecx
	lea	ecx, DWORD PTR _buff$117814[esp+148]
	push	ecx
	call	DWORD PTR __imp___strlwr_l

; 107  : 				c			= buff[0];
; 108  : 				_strupr_l	(buff, current_locale);

	mov	eax, DWORD PTR ?current_locale@?4??on_key_press@type_pair@text_editor@@UAEXQAVline_edit_control@3@@Z@4PAUlocaleinfo_struct@@A
	movzx	edx, BYTE PTR _buff$117814[esp+152]
	push	eax
	lea	ecx, DWORD PTR _buff$117814[esp+156]
	push	ecx
	mov	BYTE PTR _c$[esp+160], dl
	call	DWORD PTR __imp___strupr_l

; 109  : 				c_shift	= buff[0];

	movzx	edx, BYTE PTR _buff$117814[esp+160]
	add	esp, 16					; 00000010H
	mov	BYTE PTR _c_shift$117813[esp+144], dl
$LN5@on_key_pre@3:

; 110  : 			}
; 111  : 		}
; 112  : 
; 113  : 		//setlocale( LC_ALL, "C" );	// restore to ANSI
; 114  : 
; 115  : 		if ( control->get_key_state( ks_Shift ) != control->get_key_state( ks_CapsLock ) )

	mov	edi, DWORD PTR _control$[esp+140]
	lea	esi, DWORD PTR [edi+1096]
	push	3
	mov	ecx, esi
	call	?test@?$_flags@I@@QBEHI@Z		; _flags<unsigned int>::test
	mov	ebx, eax
	neg	ebx
	sbb	ebx, ebx
	push	64					; 00000040H
	mov	ecx, esi
	neg	ebx
	call	?test@?$_flags@I@@QBEHI@Z		; _flags<unsigned int>::test
	test	eax, eax
	setne	al
	cmp	bl, al
	je	SHORT $LN43@on_key_pre@3

; 124  : 		{
; 125  : 			c = m_char_shift;
; 126  : 		}
; 127  : 	}
; 128  : 	control->insert_character( c );

	mov	ecx, DWORD PTR [edi+1032]
	mov	dl, BYTE PTR _c_shift$117813[esp+144]
	pop	edi
	pop	esi
	mov	BYTE PTR [ecx], dl
	pop	ebx

; 129  : }

	add	esp, 132				; 00000084H
	ret	4
$LN8@on_key_pre@3:
	push	ebp

; 116  : 		{
; 117  : 			c = c_shift;
; 118  : 		}
; 119  : 	}
; 120  : 	else
; 121  : 	{
; 122  : 		c = m_char;
; 123  : 		if ( control->get_key_state( ks_Shift ) != control->get_key_state( ks_CapsLock ) )

	mov	ebp, DWORD PTR _control$[esp+144]
	lea	edi, DWORD PTR [ebp+1096]
	push	3
	mov	ecx, edi
	call	?test@?$_flags@I@@QBEHI@Z		; _flags<unsigned int>::test
	mov	ebx, eax
	neg	ebx
	sbb	ebx, ebx
	push	64					; 00000040H
	mov	ecx, edi
	neg	ebx
	call	?test@?$_flags@I@@QBEHI@Z		; _flags<unsigned int>::test
	test	eax, eax
	setne	cl
	cmp	bl, cl
	je	SHORT $LN42@on_key_pre@3

; 124  : 		{
; 125  : 			c = m_char_shift;
; 126  : 		}
; 127  : 	}
; 128  : 	control->insert_character( c );

	mov	edx, DWORD PTR [ebp+1032]
	mov	al, BYTE PTR [esi+14]
	pop	ebp
	pop	edi
	pop	esi
	mov	BYTE PTR [edx], al
	pop	ebx

; 129  : }

	add	esp, 132				; 00000084H
	ret	4
$LN42@on_key_pre@3:

; 124  : 		{
; 125  : 			c = m_char_shift;
; 126  : 		}
; 127  : 	}
; 128  : 	control->insert_character( c );

	mov	eax, DWORD PTR [ebp+1032]
	mov	cl, BYTE PTR _c$[esp+148]
	pop	ebp
	pop	edi
	pop	esi
	mov	BYTE PTR [eax], cl
	pop	ebx

; 129  : }

	add	esp, 132				; 00000084H
	ret	4
$LN43@on_key_pre@3:

; 124  : 		{
; 125  : 			c = m_char_shift;
; 126  : 		}
; 127  : 	}
; 128  : 	control->insert_character( c );

	mov	edx, DWORD PTR [edi+1032]
	mov	al, BYTE PTR _c$[esp+144]
	pop	edi
	pop	esi
	mov	BYTE PTR [edx], al
	pop	ebx

; 129  : }

	add	esp, 132				; 00000084H
	ret	4
?on_key_press@type_pair@text_editor@@UAEXQAVline_edit_control@2@@Z ENDP ; text_editor::type_pair::on_key_press
_TEXT	ENDS
PUBLIC	??1type_pair@text_editor@@UAE@XZ		; text_editor::type_pair::~type_pair
; Function compile flags: /Ogtpy
;	COMDAT ??1type_pair@text_editor@@UAE@XZ
_TEXT	SEGMENT
??1type_pair@text_editor@@UAE@XZ PROC			; text_editor::type_pair::~type_pair, COMDAT
; _this$ = ecx

; 69   : {

	push	esi
	mov	esi, ecx

; 70   : }

	mov	DWORD PTR [esi], OFFSET ??_7base@text_editor@@6B@
	mov	eax, DWORD PTR [esi+4]
	test	eax, eax
	je	SHORT $LN7@type_pair
	push	edi
	push	eax
	call	___RTCastToVoid
	mov	ecx, DWORD PTR [esi+4]
	mov	edi, eax
	mov	eax, DWORD PTR [ecx]
	mov	edx, DWORD PTR [eax]
	add	esp, 4
	push	0
	call	edx
	mov	ecx, DWORD PTR __imp_?Memory@@3VxrMemory@@A
	push	edi
	call	DWORD PTR __imp_?mem_free@xrMemory@@QAEXPAX@Z
	mov	DWORD PTR [esi+4], 0
	pop	edi
$LN7@type_pair:
	pop	esi
	ret	0
??1type_pair@text_editor@@UAE@XZ ENDP			; text_editor::type_pair::~type_pair
; Function compile flags: /Ogtpy
_TEXT	ENDS
;	COMDAT ??_Gtype_pair@text_editor@@UAEPAXI@Z
_TEXT	SEGMENT
___flags$ = 8						; size = 4
??_Gtype_pair@text_editor@@UAEPAXI@Z PROC		; text_editor::type_pair::`scalar deleting destructor', COMDAT
; _this$ = ecx
	push	ebx
	mov	ebx, DWORD PTR __imp_?mem_free@xrMemory@@QAEXPAX@Z
	push	esi
	mov	esi, ecx
	mov	DWORD PTR [esi], OFFSET ??_7base@text_editor@@6B@
	mov	eax, DWORD PTR [esi+4]
	test	eax, eax
	je	SHORT $LN10@scalar@23
	push	edi
	push	eax
	call	___RTCastToVoid
	mov	ecx, DWORD PTR [esi+4]
	mov	edi, eax
	mov	eax, DWORD PTR [ecx]
	mov	edx, DWORD PTR [eax]
	add	esp, 4
	push	0
	call	edx
	mov	ecx, DWORD PTR __imp_?Memory@@3VxrMemory@@A
	push	edi
	call	ebx
	mov	DWORD PTR [esi+4], 0
	pop	edi
$LN10@scalar@23:
	test	BYTE PTR ___flags$[esp+4], 1
	je	SHORT $LN22@scalar@23
	mov	ecx, DWORD PTR __imp_?Memory@@3VxrMemory@@A
	push	esi
	call	ebx
$LN22@scalar@23:
	mov	eax, esi
	pop	esi
	pop	ebx
	ret	4
??_Gtype_pair@text_editor@@UAEPAXI@Z ENDP		; text_editor::type_pair::`scalar deleting destructor'
_TEXT	ENDS
PUBLIC	??0type_pair@text_editor@@QAE@IDD_N@Z		; text_editor::type_pair::type_pair
; Function compile flags: /Ogtpy
;	COMDAT ??0type_pair@text_editor@@QAE@IDD_N@Z
_TEXT	SEGMENT
_c$ = 8							; size = 1
_c_shift$ = 12						; size = 1
??0type_pair@text_editor@@QAE@IDD_N@Z PROC		; text_editor::type_pair::type_pair, COMDAT
; _this$ = eax
; _dik$ = edx
; _b_translate$ = ecx

; 65   : 	init( dik, c, c_shift, b_translate );

	mov	BYTE PTR [eax+12], cl
	mov	cl, BYTE PTR _c$[esp-4]
	mov	DWORD PTR [eax+8], edx
	mov	dl, BYTE PTR _c_shift$[esp-4]
	mov	DWORD PTR [eax+4], 0
	mov	DWORD PTR [eax], OFFSET ??_7type_pair@text_editor@@6B@
	mov	BYTE PTR [eax+13], cl
	mov	BYTE PTR [eax+14], dl

; 66   : }

	ret	8
??0type_pair@text_editor@@QAE@IDD_N@Z ENDP		; text_editor::type_pair::type_pair
; Function compile flags: /Ogtpy
_TEXT	ENDS
;	COMDAT ?on_key_press@callback_base@text_editor@@UAEXQAVline_edit_control@2@@Z
_TEXT	SEGMENT
_control$ = 8						; size = 4
?on_key_press@callback_base@text_editor@@UAEXQAVline_edit_control@2@@Z PROC ; text_editor::callback_base::on_key_press, COMDAT
; _this$ = ecx

; 52   : {

	push	esi
	mov	esi, ecx

; 53   : 	if ( control->get_key_state( m_run_state ) )

	mov	eax, DWORD PTR [esi+8]
	test	eax, eax
	push	edi
	je	SHORT $LN19@on_key_pre@4
	mov	edi, DWORD PTR _control$[esp+4]
	push	eax
	lea	ecx, DWORD PTR [edi+1096]
	call	?test@?$_flags@I@@QBEHI@Z		; _flags<unsigned int>::test
	neg	eax
	sbb	eax, eax
	neg	eax
	test	al, al
	je	SHORT $LN1@on_key_pre@4
$LN19@on_key_pre@4:

; 54   : 	{
; 55   : 		m_callback();

	mov	eax, DWORD PTR [esi+12]
	mov	ecx, DWORD PTR [esi+16]
	push	eax
	call	ecx
	pop	edi
	pop	esi

; 59   : }

	ret	4
$LN1@on_key_pre@4:

; 56   : 		return;
; 57   : 	}
; 58   : 	base::on_key_press( control );

	cmp	DWORD PTR [esi+4], 0
	je	SHORT $LN16@on_key_pre@4
	mov	ecx, DWORD PTR [esi+4]
	mov	edx, DWORD PTR [ecx]
	mov	eax, DWORD PTR [edx+4]
	push	edi
	call	eax
$LN16@on_key_pre@4:
	pop	edi
	pop	esi

; 59   : }

	ret	4
?on_key_press@callback_base@text_editor@@UAEXQAVline_edit_control@2@@Z ENDP ; text_editor::callback_base::on_key_press
_TEXT	ENDS
PUBLIC	??1callback_base@text_editor@@UAE@XZ		; text_editor::callback_base::~callback_base
; Function compile flags: /Ogtpy
;	COMDAT ??1callback_base@text_editor@@UAE@XZ
_TEXT	SEGMENT
??1callback_base@text_editor@@UAE@XZ PROC		; text_editor::callback_base::~callback_base, COMDAT
; _this$ = ecx

; 48   : {

	push	esi
	mov	esi, ecx

; 49   : }

	mov	DWORD PTR [esi], OFFSET ??_7base@text_editor@@6B@
	mov	eax, DWORD PTR [esi+4]
	test	eax, eax
	je	SHORT $LN7@callback_b
	push	edi
	push	eax
	call	___RTCastToVoid
	mov	ecx, DWORD PTR [esi+4]
	mov	edi, eax
	mov	eax, DWORD PTR [ecx]
	mov	edx, DWORD PTR [eax]
	add	esp, 4
	push	0
	call	edx
	mov	ecx, DWORD PTR __imp_?Memory@@3VxrMemory@@A
	push	edi
	call	DWORD PTR __imp_?mem_free@xrMemory@@QAEXPAX@Z
	mov	DWORD PTR [esi+4], 0
	pop	edi
$LN7@callback_b:
	pop	esi
	ret	0
??1callback_base@text_editor@@UAE@XZ ENDP		; text_editor::callback_base::~callback_base
; Function compile flags: /Ogtpy
_TEXT	ENDS
;	COMDAT ??_Gcallback_base@text_editor@@UAEPAXI@Z
_TEXT	SEGMENT
___flags$ = 8						; size = 4
??_Gcallback_base@text_editor@@UAEPAXI@Z PROC		; text_editor::callback_base::`scalar deleting destructor', COMDAT
; _this$ = ecx
	push	ebx
	mov	ebx, DWORD PTR __imp_?mem_free@xrMemory@@QAEXPAX@Z
	push	esi
	mov	esi, ecx
	mov	DWORD PTR [esi], OFFSET ??_7base@text_editor@@6B@
	mov	eax, DWORD PTR [esi+4]
	test	eax, eax
	je	SHORT $LN10@scalar@24
	push	edi
	push	eax
	call	___RTCastToVoid
	mov	ecx, DWORD PTR [esi+4]
	mov	edi, eax
	mov	eax, DWORD PTR [ecx]
	mov	edx, DWORD PTR [eax]
	add	esp, 4
	push	0
	call	edx
	mov	ecx, DWORD PTR __imp_?Memory@@3VxrMemory@@A
	push	edi
	call	ebx
	mov	DWORD PTR [esi+4], 0
	pop	edi
$LN10@scalar@24:
	test	BYTE PTR ___flags$[esp+4], 1
	je	SHORT $LN22@scalar@24
	mov	ecx, DWORD PTR __imp_?Memory@@3VxrMemory@@A
	push	esi
	call	ebx
$LN22@scalar@24:
	mov	eax, esi
	pop	esi
	pop	ebx
	ret	4
??_Gcallback_base@text_editor@@UAEPAXI@Z ENDP		; text_editor::callback_base::`scalar deleting destructor'
PUBLIC	??0callback_base@text_editor@@QAE@ABV?$FastDelegate0@X@fastdelegate@@W4key_state@1@@Z ; text_editor::callback_base::callback_base
; Function compile flags: /Ogtpy
;	COMDAT ??0callback_base@text_editor@@QAE@ABV?$FastDelegate0@X@fastdelegate@@W4key_state@1@@Z
_TEXT	SEGMENT
_state$ = 8						; size = 4
??0callback_base@text_editor@@QAE@ABV?$FastDelegate0@X@fastdelegate@@W4key_state@1@@Z PROC ; text_editor::callback_base::callback_base, COMDAT
; _this$ = eax
; _callback$ = ecx

; 42   : {

	xor	edx, edx
	mov	DWORD PTR [eax+4], edx
	mov	DWORD PTR [eax], OFFSET ??_7callback_base@text_editor@@6B@
	mov	DWORD PTR [eax+12], edx
	mov	DWORD PTR [eax+16], edx

; 43   : 	m_callback  = callback;

	mov	edx, DWORD PTR [ecx+4]
	mov	DWORD PTR [eax+16], edx
	mov	ecx, DWORD PTR [ecx]

; 44   : 	m_run_state = state;

	mov	edx, DWORD PTR _state$[esp-4]
	mov	DWORD PTR [eax+12], ecx
	mov	DWORD PTR [eax+8], edx

; 45   : }

	ret	4
??0callback_base@text_editor@@QAE@ABV?$FastDelegate0@X@fastdelegate@@W4key_state@1@@Z ENDP ; text_editor::callback_base::callback_base
END
