; Listing generated by Microsoft (R) Optimizing Compiler Version 14.00.50727.762 

	TITLE	D:\CLEARSKY\sources\engine\xrEngine\Environment_misc.cpp
	.686P
	.XMM
	include listing.inc
	.model	flat

INCLUDELIB OLDNAMES

PUBLIC	?back@?$vector@PAVCEnvDescriptor@@V?$xalloc@PAVCEnvDescriptor@@@@@stlp_std@@QAEAAPAVCEnvDescriptor@@XZ ; stlp_std::vector<CEnvDescriptor *,xalloc<CEnvDescriptor *> >::back
PUBLIC	?clear@?$vector@PAVCEnvAmbient@@V?$xalloc@PAVCEnvAmbient@@@@@stlp_std@@QAEXXZ ; stlp_std::vector<CEnvAmbient *,xalloc<CEnvAmbient *> >::clear
PUBLIC	?clear_and_free@?$xr_vector@PAVCEnvAmbient@@V?$xalloc@PAVCEnvAmbient@@@@@@QAEXXZ ; xr_vector<CEnvAmbient *,xalloc<CEnvAmbient *> >::clear_and_free
PUBLIC	?clear@?$xr_vector@PAVCEnvAmbient@@V?$xalloc@PAVCEnvAmbient@@@@@@QAEXXZ ; xr_vector<CEnvAmbient *,xalloc<CEnvAmbient *> >::clear
PUBLIC	?clear@?$map@Vshared_str@@V?$xr_vector@PAVCEnvDescriptor@@V?$xalloc@PAVCEnvDescriptor@@@@@@Ustr_pred@CEnvironment@@V?$xalloc@U?$pair@Vshared_str@@V?$xr_vector@PAVCEnvDescriptor@@V?$xalloc@PAVCEnvDescriptor@@@@@@@stlp_std@@@@@stlp_std@@QAEXXZ ; stlp_std::map<shared_str,xr_vector<CEnvDescriptor *,xalloc<CEnvDescriptor *> >,CEnvironment::str_pred,xalloc<stlp_std::pair<shared_str,xr_vector<CEnvDescriptor *,xalloc<CEnvDescriptor *> > > > >::clear
PUBLIC	??0_Rb_tree_base_iterator@priv@stlp_std@@QAE@XZ	; stlp_std::priv::_Rb_tree_base_iterator::_Rb_tree_base_iterator
PUBLIC	??0?$_Rb_tree_iterator@U?$pair@$$CBVshared_str@@V?$xr_vector@PAVCEnvDescriptor@@V?$xalloc@PAVCEnvDescriptor@@@@@@@stlp_std@@U?$_MapTraitsT@U?$pair@$$CBVshared_str@@V?$xr_vector@PAVCEnvDescriptor@@V?$xalloc@PAVCEnvDescriptor@@@@@@@stlp_std@@@priv@2@@priv@stlp_std@@QAE@XZ ; stlp_std::priv::_Rb_tree_iterator<stlp_std::pair<shared_str const ,xr_vector<CEnvDescriptor *,xalloc<CEnvDescriptor *> > >,stlp_std::priv::_MapTraitsT<stlp_std::pair<shared_str const ,xr_vector<CEnvDescriptor *,xalloc<CEnvDescriptor *> > > > >::_Rb_tree_iterator<stlp_std::pair<shared_str const ,xr_vector<CEnvDescriptor *,xalloc<CEnvDescriptor *> > >,stlp_std::priv::_MapTraitsT<stlp_std::pair<shared_str const ,xr_vector<CEnvDescriptor *,xalloc<CEnvDescriptor *> > > > >
PUBLIC	??_GCEnvDescriptor@@QAEPAXI@Z			; CEnvDescriptor::`scalar deleting destructor'
PUBLIC	??R?$xr_special_free@$0A@VCEnvDescriptor@@@@QAEXAAPAVCEnvDescriptor@@@Z ; xr_special_free<0,CEnvDescriptor>::operator()
PUBLIC	??$xr_delete@VCEnvDescriptor@@@@YAXAAPAVCEnvDescriptor@@@Z ; xr_delete<CEnvDescriptor>
PUBLIC	??_GCEnvAmbient@@QAEPAXI@Z			; CEnvAmbient::`scalar deleting destructor'
PUBLIC	??R?$xr_special_free@$0A@VCEnvAmbient@@@@QAEXAAPAVCEnvAmbient@@@Z ; xr_special_free<0,CEnvAmbient>::operator()
PUBLIC	??$xr_delete@VCEnvAmbient@@@@YAXAAPAVCEnvAmbient@@@Z ; xr_delete<CEnvAmbient>
PUBLIC	??_GCEffect_Rain@@QAEPAXI@Z			; CEffect_Rain::`scalar deleting destructor'
PUBLIC	??R?$xr_special_free@$0A@VCEffect_Rain@@@@QAEXAAPAVCEffect_Rain@@@Z ; xr_special_free<0,CEffect_Rain>::operator()
PUBLIC	??$xr_delete@VCEffect_Rain@@@@YAXAAPAVCEffect_Rain@@@Z ; xr_delete<CEffect_Rain>
PUBLIC	??R?$xr_special_free@$00VCLensFlare@@@@QAEXAAPAVCLensFlare@@@Z ; xr_special_free<1,CLensFlare>::operator()
PUBLIC	??$xr_delete@VCLensFlare@@@@YAXAAPAVCLensFlare@@@Z ; xr_delete<CLensFlare>
PUBLIC	??_GCEffect_Thunderbolt@@QAEPAXI@Z		; CEffect_Thunderbolt::`scalar deleting destructor'
PUBLIC	??R?$xr_special_free@$0A@VCEffect_Thunderbolt@@@@QAEXAAPAVCEffect_Thunderbolt@@@Z ; xr_special_free<0,CEffect_Thunderbolt>::operator()
PUBLIC	??$xr_delete@VCEffect_Thunderbolt@@@@YAXAAPAVCEffect_Thunderbolt@@@Z ; xr_delete<CEffect_Thunderbolt>
PUBLIC	??$xr_new@VCEffect_Rain@@@@YAPAVCEffect_Rain@@XZ ; xr_new<CEffect_Rain>
PUBLIC	??$xr_new@VCLensFlare@@@@YAPAVCLensFlare@@XZ	; xr_new<CLensFlare>
PUBLIC	??$xr_new@VCEffect_Thunderbolt@@@@YAPAVCEffect_Thunderbolt@@XZ ; xr_new<CEffect_Thunderbolt>
PUBLIC	?lerp@?$_vector3@M@@QAEAAU1@ABU1@0M@Z		; _vector3<float>::lerp
PUBLIC	?lerp@?$_vector4@M@@QAEAAU1@ABU1@0M@Z		; _vector4<float>::lerp
PUBLIC	??D?$FactoryPtr@VIEnvDescriptorRender@@@@QBEAAVIEnvDescriptorRender@@XZ ; FactoryPtr<IEnvDescriptorRender>::operator*
PUBLIC	?mad@?$_vector3@M@@QAEAAU1@ABU1@M@Z		; _vector3<float>::mad
PUBLIC	?set@?$_flags@G@@QAEAAU1@GH@Z			; _flags<unsigned short>::set
PUBLIC	?test@?$_flags@G@@QBEHG@Z			; _flags<unsigned short>::test
PUBLIC	??0?$FactoryPtr@VIEnvDescriptorMixerRender@@@@QAE@XZ ; FactoryPtr<IEnvDescriptorMixerRender>::FactoryPtr<IEnvDescriptorMixerRender>
PUBLIC	?one@?$_flags@G@@QAEAAU1@XZ			; _flags<unsigned short>::one
PUBLIC	?assign@?$_flags@G@@QAEAAU1@G@Z			; _flags<unsigned short>::assign
PUBLIC	??$__destroy_mv_srcs@V?$reverse_iterator@PAUref_sound@@@stlp_std@@Uref_sound@@@stlp_std@@YAXV?$reverse_iterator@PAUref_sound@@@0@0PAUref_sound@@@Z ; stlp_std::__destroy_mv_srcs<stlp_std::reverse_iterator<ref_sound *>,ref_sound>
PUBLIC	??$_Destroy_Moved_Range@V?$reverse_iterator@PAUref_sound@@@stlp_std@@@stlp_std@@YAXV?$reverse_iterator@PAUref_sound@@@0@0@Z ; stlp_std::_Destroy_Moved_Range<stlp_std::reverse_iterator<ref_sound *> >
PUBLIC	?_M_clear_after_move@?$_Impl_vector@Uref_sound@@V?$xalloc@Uref_sound@@@@@priv@stlp_std@@AAEXXZ ; stlp_std::priv::_Impl_vector<ref_sound,xalloc<ref_sound> >::_M_clear_after_move
PUBLIC	?_M_set@?$_Impl_vector@Uref_sound@@V?$xalloc@Uref_sound@@@@@priv@stlp_std@@AAEXPAUref_sound@@00@Z ; stlp_std::priv::_Impl_vector<ref_sound,xalloc<ref_sound> >::_M_set
PUBLIC	??$__uninitialized_move@PAUref_sound@@PAU1@U__false_type@stlp_std@@@priv@stlp_std@@YAPAUref_sound@@PAU2@00U__false_type@1@ABU31@@Z ; stlp_std::priv::__uninitialized_move<ref_sound *,ref_sound *,stlp_std::__false_type>
PUBLIC	??$_Copy_Construct@Uref_sound@@@stlp_std@@YAXPAUref_sound@@ABU1@@Z ; stlp_std::_Copy_Construct<ref_sound>
PUBLIC	?_M_insert_overflow_aux@?$_Impl_vector@Uref_sound@@V?$xalloc@Uref_sound@@@@@priv@stlp_std@@AAEXPAUref_sound@@ABU4@ABU__false_type@3@I_N@Z ; stlp_std::priv::_Impl_vector<ref_sound,xalloc<ref_sound> >::_M_insert_overflow_aux
PUBLIC	?_M_insert_overflow@?$_Impl_vector@Uref_sound@@V?$xalloc@Uref_sound@@@@@priv@stlp_std@@AAEXPAUref_sound@@ABU4@ABU__false_type@3@I_N@Z ; stlp_std::priv::_Impl_vector<ref_sound,xalloc<ref_sound> >::_M_insert_overflow
PUBLIC	?_M_is_inside@?$_Impl_vector@Uref_sound@@V?$xalloc@Uref_sound@@@@@priv@stlp_std@@ABE_NABUref_sound@@@Z ; stlp_std::priv::_Impl_vector<ref_sound,xalloc<ref_sound> >::_M_is_inside
PUBLIC	??$__ufill@PAUref_sound@@U1@H@priv@stlp_std@@YAXPAUref_sound@@0ABU2@ABUrandom_access_iterator_tag@1@PAH@Z ; stlp_std::priv::__ufill<ref_sound *,ref_sound,int>
PUBLIC	??$__uninitialized_fill_n@PAUref_sound@@IU1@@priv@stlp_std@@YAPAUref_sound@@PAU2@IABU2@@Z ; stlp_std::priv::__uninitialized_fill_n<ref_sound *,unsigned int,ref_sound>
PUBLIC	??$__ucopy@PAUref_sound@@PAU1@H@priv@stlp_std@@YAPAUref_sound@@PAU2@00ABUrandom_access_iterator_tag@1@PAH@Z ; stlp_std::priv::__ucopy<ref_sound *,ref_sound *,int>
PUBLIC	??$__ucopy_ptrs@PAUref_sound@@PAU1@@priv@stlp_std@@YAPAUref_sound@@PAU2@00ABU__false_type@1@@Z ; stlp_std::priv::__ucopy_ptrs<ref_sound *,ref_sound *>
PUBLIC	??$__copy_backward@PAUref_sound@@PAU1@H@priv@stlp_std@@YAPAUref_sound@@PAU2@00ABUrandom_access_iterator_tag@1@PAH@Z ; stlp_std::priv::__copy_backward<ref_sound *,ref_sound *,int>
PUBLIC	??$__copy_backward_ptrs@PAUref_sound@@PAU1@@priv@stlp_std@@YAPAUref_sound@@PAU2@00ABU__false_type@1@@Z ; stlp_std::priv::__copy_backward_ptrs<ref_sound *,ref_sound *>
PUBLIC	??$fill@PAUref_sound@@U1@@stlp_std@@YAXPAUref_sound@@0ABU1@@Z ; stlp_std::fill<ref_sound *,ref_sound>
PUBLIC	?_M_fill_insert_aux@?$_Impl_vector@Uref_sound@@V?$xalloc@Uref_sound@@@@@priv@stlp_std@@AAEXPAUref_sound@@IABU4@ABU__false_type@3@@Z ; stlp_std::priv::_Impl_vector<ref_sound,xalloc<ref_sound> >::_M_fill_insert_aux
PUBLIC	?_M_fill_insert@?$_Impl_vector@Uref_sound@@V?$xalloc@Uref_sound@@@@@priv@stlp_std@@AAEXPAUref_sound@@IABU4@@Z ; stlp_std::priv::_Impl_vector<ref_sound,xalloc<ref_sound> >::_M_fill_insert
PUBLIC	?insert@?$_Impl_vector@Uref_sound@@V?$xalloc@Uref_sound@@@@@priv@stlp_std@@QAEXPAUref_sound@@IABU4@@Z ; stlp_std::priv::_Impl_vector<ref_sound,xalloc<ref_sound> >::insert
PUBLIC	??$__copy@PAUref_sound@@PAU1@H@priv@stlp_std@@YAPAUref_sound@@PAU2@00ABUrandom_access_iterator_tag@1@PAH@Z ; stlp_std::priv::__copy<ref_sound *,ref_sound *,int>
PUBLIC	??$__copy_ptrs@PAUref_sound@@PAU1@@priv@stlp_std@@YAPAUref_sound@@PAU2@00ABU__false_type@1@@Z ; stlp_std::priv::__copy_ptrs<ref_sound *,ref_sound *>
PUBLIC	?_M_erase@?$_Impl_vector@Uref_sound@@V?$xalloc@Uref_sound@@@@@priv@stlp_std@@AAEPAUref_sound@@PAU4@0ABU__false_type@3@@Z ; stlp_std::priv::_Impl_vector<ref_sound,xalloc<ref_sound> >::_M_erase
PUBLIC	?erase@?$_Impl_vector@Uref_sound@@V?$xalloc@Uref_sound@@@@@priv@stlp_std@@QAEPAUref_sound@@PAU4@0@Z ; stlp_std::priv::_Impl_vector<ref_sound,xalloc<ref_sound> >::erase
PUBLIC	?resize@?$_Impl_vector@Uref_sound@@V?$xalloc@Uref_sound@@@@@priv@stlp_std@@QAEXIABUref_sound@@@Z ; stlp_std::priv::_Impl_vector<ref_sound,xalloc<ref_sound> >::resize
PUBLIC	?to_storage_type_cref@?$_CastTraits@Uref_sound@@U1@@priv@stlp_std@@SAABUref_sound@@ABU4@@Z ; stlp_std::priv::_CastTraits<ref_sound,ref_sound>::to_storage_type_cref
PUBLIC	?resize@?$vector@Uref_sound@@V?$xalloc@Uref_sound@@@@@stlp_std@@QAEXIABUref_sound@@@Z ; stlp_std::vector<ref_sound,xalloc<ref_sound> >::resize
PUBLIC	?create@ref_sound@@QAEXPBDW4esound_type@@H@Z	; ref_sound::create
PUBLIC	??0?$resptr_core@Vref_sound_data@@V?$resptr_base@Vref_sound_data@@@@@@QAE@XZ ; resptr_core<ref_sound_data,resptr_base<ref_sound_data> >::resptr_core<ref_sound_data,resptr_base<ref_sound_data> >
PUBLIC	??0ref_sound@@QAE@XZ				; ref_sound::ref_sound
PUBLIC	??0SEffect@CEnvAmbient@@QAE@XZ			; CEnvAmbient::SEffect::SEffect
PUBLIC	??$xr_new@USEffect@CEnvAmbient@@@@YAPAUSEffect@CEnvAmbient@@XZ ; xr_new<CEnvAmbient::SEffect>
PUBLIC	??0SSndChannel@CEnvAmbient@@QAE@XZ		; CEnvAmbient::SSndChannel::SSndChannel
PUBLIC	??$xr_new@USSndChannel@CEnvAmbient@@@@YAPAUSSndChannel@CEnvAmbient@@XZ ; xr_new<CEnvAmbient::SSndChannel>
PUBLIC	?end@?$vector@PAUSEffect@CEnvAmbient@@V?$xalloc@PAUSEffect@CEnvAmbient@@@@@stlp_std@@QAEPAPAUSEffect@CEnvAmbient@@XZ ; stlp_std::vector<CEnvAmbient::SEffect *,xalloc<CEnvAmbient::SEffect *> >::end
PUBLIC	?clear@?$vector@PAUSEffect@CEnvAmbient@@V?$xalloc@PAUSEffect@CEnvAmbient@@@@@stlp_std@@QAEXXZ ; stlp_std::vector<CEnvAmbient::SEffect *,xalloc<CEnvAmbient::SEffect *> >::clear
PUBLIC	?clear_and_free@?$xr_vector@PAUSEffect@CEnvAmbient@@V?$xalloc@PAUSEffect@CEnvAmbient@@@@@@QAEXXZ ; xr_vector<CEnvAmbient::SEffect *,xalloc<CEnvAmbient::SEffect *> >::clear_and_free
PUBLIC	?clear@?$xr_vector@PAUSEffect@CEnvAmbient@@V?$xalloc@PAUSEffect@CEnvAmbient@@@@@@QAEXXZ ; xr_vector<CEnvAmbient::SEffect *,xalloc<CEnvAmbient::SEffect *> >::clear
PUBLIC	??$delete_data@$0A@@?$CHelper1@USEffect@CEnvAmbient@@@CDestroyer@@SAXAAUSEffect@CEnvAmbient@@@Z ; CDestroyer::CHelper1<CEnvAmbient::SEffect>::delete_data<0>
PUBLIC	??$delete_data@$0A@@?$CHelper2@USEffect@CEnvAmbient@@@CDestroyer@@SAXAAUSEffect@CEnvAmbient@@@Z ; CDestroyer::CHelper2<CEnvAmbient::SEffect>::delete_data<0>
PUBLIC	??$delete_data@$0A@@?$CHelper4@USEffect@CEnvAmbient@@@CDestroyer@@SAXAAUSEffect@CEnvAmbient@@@Z ; CDestroyer::CHelper4<CEnvAmbient::SEffect>::delete_data<0>
PUBLIC	??$delete_data@USEffect@CEnvAmbient@@@CDestroyer@@SAXAAUSEffect@CEnvAmbient@@@Z ; CDestroyer::delete_data<CEnvAmbient::SEffect>
PUBLIC	??1SEffect@CEnvAmbient@@QAE@XZ			; CEnvAmbient::SEffect::~SEffect
PUBLIC	??_GSEffect@CEnvAmbient@@QAEPAXI@Z		; CEnvAmbient::SEffect::`scalar deleting destructor'
PUBLIC	??R?$xr_special_free@$0A@USEffect@CEnvAmbient@@@@QAEXAAPAUSEffect@CEnvAmbient@@@Z ; xr_special_free<0,CEnvAmbient::SEffect>::operator()
PUBLIC	??$xr_delete@USEffect@CEnvAmbient@@@@YAXAAPAUSEffect@CEnvAmbient@@@Z ; xr_delete<CEnvAmbient::SEffect>
PUBLIC	??$delete_data@$00@?$CHelper2@PAUSEffect@CEnvAmbient@@@CDestroyer@@SAXAAPAUSEffect@CEnvAmbient@@@Z ; CDestroyer::CHelper2<CEnvAmbient::SEffect *>::delete_data<1>
PUBLIC	??$delete_data@$0A@@?$CHelper4@PAUSEffect@CEnvAmbient@@@CDestroyer@@SAXAAPAUSEffect@CEnvAmbient@@@Z ; CDestroyer::CHelper4<CEnvAmbient::SEffect *>::delete_data<0>
PUBLIC	??$delete_data@PAUSEffect@CEnvAmbient@@@CDestroyer@@SAXAAPAUSEffect@CEnvAmbient@@@Z ; CDestroyer::delete_data<CEnvAmbient::SEffect *>
PUBLIC	??$delete_data@V?$xr_vector@PAUSEffect@CEnvAmbient@@V?$xalloc@PAUSEffect@CEnvAmbient@@@@@@@CHelper3@CDestroyer@@SAXAAV?$xr_vector@PAUSEffect@CEnvAmbient@@V?$xalloc@PAUSEffect@CEnvAmbient@@@@@@@Z ; CDestroyer::CHelper3::delete_data<xr_vector<CEnvAmbient::SEffect *,xalloc<CEnvAmbient::SEffect *> > >
PUBLIC	??$delete_data@$00@?$CHelper4@V?$xr_vector@PAUSEffect@CEnvAmbient@@V?$xalloc@PAUSEffect@CEnvAmbient@@@@@@@CDestroyer@@SAXAAV?$xr_vector@PAUSEffect@CEnvAmbient@@V?$xalloc@PAUSEffect@CEnvAmbient@@@@@@@Z ; CDestroyer::CHelper4<xr_vector<CEnvAmbient::SEffect *,xalloc<CEnvAmbient::SEffect *> > >::delete_data<1>
PUBLIC	??$delete_data@V?$xr_vector@PAUSEffect@CEnvAmbient@@V?$xalloc@PAUSEffect@CEnvAmbient@@@@@@@CDestroyer@@SAXAAV?$xr_vector@PAUSEffect@CEnvAmbient@@V?$xalloc@PAUSEffect@CEnvAmbient@@@@@@@Z ; CDestroyer::delete_data<xr_vector<CEnvAmbient::SEffect *,xalloc<CEnvAmbient::SEffect *> > >
PUBLIC	??$delete_data@V?$xr_vector@PAUSEffect@CEnvAmbient@@V?$xalloc@PAUSEffect@CEnvAmbient@@@@@@@@YAXABV?$xr_vector@PAUSEffect@CEnvAmbient@@V?$xalloc@PAUSEffect@CEnvAmbient@@@@@@@Z ; delete_data<xr_vector<CEnvAmbient::SEffect *,xalloc<CEnvAmbient::SEffect *> > >
PUBLIC	?end@?$vector@PAUSSndChannel@CEnvAmbient@@V?$xalloc@PAUSSndChannel@CEnvAmbient@@@@@stlp_std@@QAEPAPAUSSndChannel@CEnvAmbient@@XZ ; stlp_std::vector<CEnvAmbient::SSndChannel *,xalloc<CEnvAmbient::SSndChannel *> >::end
PUBLIC	?clear@?$vector@PAUSSndChannel@CEnvAmbient@@V?$xalloc@PAUSSndChannel@CEnvAmbient@@@@@stlp_std@@QAEXXZ ; stlp_std::vector<CEnvAmbient::SSndChannel *,xalloc<CEnvAmbient::SSndChannel *> >::clear
PUBLIC	?clear_and_free@?$xr_vector@PAUSSndChannel@CEnvAmbient@@V?$xalloc@PAUSSndChannel@CEnvAmbient@@@@@@QAEXXZ ; xr_vector<CEnvAmbient::SSndChannel *,xalloc<CEnvAmbient::SSndChannel *> >::clear_and_free
PUBLIC	?clear@?$xr_vector@PAUSSndChannel@CEnvAmbient@@V?$xalloc@PAUSSndChannel@CEnvAmbient@@@@@@QAEXXZ ; xr_vector<CEnvAmbient::SSndChannel *,xalloc<CEnvAmbient::SSndChannel *> >::clear
PUBLIC	??$delete_data@$0A@@?$CHelper1@USSndChannel@CEnvAmbient@@@CDestroyer@@SAXAAUSSndChannel@CEnvAmbient@@@Z ; CDestroyer::CHelper1<CEnvAmbient::SSndChannel>::delete_data<0>
PUBLIC	??$delete_data@$0A@@?$CHelper2@USSndChannel@CEnvAmbient@@@CDestroyer@@SAXAAUSSndChannel@CEnvAmbient@@@Z ; CDestroyer::CHelper2<CEnvAmbient::SSndChannel>::delete_data<0>
PUBLIC	??$delete_data@$0A@@?$CHelper4@USSndChannel@CEnvAmbient@@@CDestroyer@@SAXAAUSSndChannel@CEnvAmbient@@@Z ; CDestroyer::CHelper4<CEnvAmbient::SSndChannel>::delete_data<0>
PUBLIC	??$delete_data@USSndChannel@CEnvAmbient@@@CDestroyer@@SAXAAUSSndChannel@CEnvAmbient@@@Z ; CDestroyer::delete_data<CEnvAmbient::SSndChannel>
PUBLIC	??1SSndChannel@CEnvAmbient@@QAE@XZ		; CEnvAmbient::SSndChannel::~SSndChannel
PUBLIC	??_GSSndChannel@CEnvAmbient@@QAEPAXI@Z		; CEnvAmbient::SSndChannel::`scalar deleting destructor'
PUBLIC	??R?$xr_special_free@$0A@USSndChannel@CEnvAmbient@@@@QAEXAAPAUSSndChannel@CEnvAmbient@@@Z ; xr_special_free<0,CEnvAmbient::SSndChannel>::operator()
PUBLIC	??$xr_delete@USSndChannel@CEnvAmbient@@@@YAXAAPAUSSndChannel@CEnvAmbient@@@Z ; xr_delete<CEnvAmbient::SSndChannel>
PUBLIC	??$delete_data@$00@?$CHelper2@PAUSSndChannel@CEnvAmbient@@@CDestroyer@@SAXAAPAUSSndChannel@CEnvAmbient@@@Z ; CDestroyer::CHelper2<CEnvAmbient::SSndChannel *>::delete_data<1>
PUBLIC	??$delete_data@$0A@@?$CHelper4@PAUSSndChannel@CEnvAmbient@@@CDestroyer@@SAXAAPAUSSndChannel@CEnvAmbient@@@Z ; CDestroyer::CHelper4<CEnvAmbient::SSndChannel *>::delete_data<0>
PUBLIC	??$delete_data@PAUSSndChannel@CEnvAmbient@@@CDestroyer@@SAXAAPAUSSndChannel@CEnvAmbient@@@Z ; CDestroyer::delete_data<CEnvAmbient::SSndChannel *>
PUBLIC	??$delete_data@V?$xr_vector@PAUSSndChannel@CEnvAmbient@@V?$xalloc@PAUSSndChannel@CEnvAmbient@@@@@@@CHelper3@CDestroyer@@SAXAAV?$xr_vector@PAUSSndChannel@CEnvAmbient@@V?$xalloc@PAUSSndChannel@CEnvAmbient@@@@@@@Z ; CDestroyer::CHelper3::delete_data<xr_vector<CEnvAmbient::SSndChannel *,xalloc<CEnvAmbient::SSndChannel *> > >
PUBLIC	??$delete_data@$00@?$CHelper4@V?$xr_vector@PAUSSndChannel@CEnvAmbient@@V?$xalloc@PAUSSndChannel@CEnvAmbient@@@@@@@CDestroyer@@SAXAAV?$xr_vector@PAUSSndChannel@CEnvAmbient@@V?$xalloc@PAUSSndChannel@CEnvAmbient@@@@@@@Z ; CDestroyer::CHelper4<xr_vector<CEnvAmbient::SSndChannel *,xalloc<CEnvAmbient::SSndChannel *> > >::delete_data<1>
PUBLIC	??$delete_data@V?$xr_vector@PAUSSndChannel@CEnvAmbient@@V?$xalloc@PAUSSndChannel@CEnvAmbient@@@@@@@CDestroyer@@SAXAAV?$xr_vector@PAUSSndChannel@CEnvAmbient@@V?$xalloc@PAUSSndChannel@CEnvAmbient@@@@@@@Z ; CDestroyer::delete_data<xr_vector<CEnvAmbient::SSndChannel *,xalloc<CEnvAmbient::SSndChannel *> > >
PUBLIC	??$delete_data@V?$xr_vector@PAUSSndChannel@CEnvAmbient@@V?$xalloc@PAUSSndChannel@CEnvAmbient@@@@@@@@YAXABV?$xr_vector@PAUSSndChannel@CEnvAmbient@@V?$xalloc@PAUSSndChannel@CEnvAmbient@@@@@@@Z ; delete_data<xr_vector<CEnvAmbient::SSndChannel *,xalloc<CEnvAmbient::SSndChannel *> > >
PUBLIC	?to_storage_type_cref@?$_CastTraits@PAXPAUSEffect@CEnvAmbient@@@priv@stlp_std@@SAABQAXABQAUSEffect@CEnvAmbient@@@Z ; stlp_std::priv::_CastTraits<void *,CEnvAmbient::SEffect *>::to_storage_type_cref
PUBLIC	?resize@?$vector@PAUSEffect@CEnvAmbient@@V?$xalloc@PAUSEffect@CEnvAmbient@@@@@stlp_std@@QAEXIABQAUSEffect@CEnvAmbient@@@Z ; stlp_std::vector<CEnvAmbient::SEffect *,xalloc<CEnvAmbient::SEffect *> >::resize
PUBLIC	?empty@?$vector@PAUSSndChannel@CEnvAmbient@@V?$xalloc@PAUSSndChannel@CEnvAmbient@@@@@stlp_std@@QBE_NXZ ; stlp_std::vector<CEnvAmbient::SSndChannel *,xalloc<CEnvAmbient::SSndChannel *> >::empty
PUBLIC	?_M_is_inside@?$_Impl_vector@PAXV?$xalloc@PAX@@@priv@stlp_std@@ABE_NABQAX@Z ; stlp_std::priv::_Impl_vector<void *,xalloc<void *> >::_M_is_inside
PUBLIC	??$fill@PAPAXPAX@stlp_std@@YAXPAPAX0ABQAX@Z	; stlp_std::fill<void * *,void *>
PUBLIC	??$_Param_Construct@PAXPAX@stlp_std@@YAXPAPAXABQAX@Z ; stlp_std::_Param_Construct<void *,void *>
PUBLIC	??$__ufill@PAPAXPAXH@priv@stlp_std@@YAXPAPAX0ABQAXABUrandom_access_iterator_tag@1@PAH@Z ; stlp_std::priv::__ufill<void * *,void *,int>
PUBLIC	??$__uninitialized_fill_n@PAPAXIPAX@priv@stlp_std@@YAPAPAXPAPAXIABQAX@Z ; stlp_std::priv::__uninitialized_fill_n<void * *,unsigned int,void *>
PUBLIC	?_M_fill_insert_aux@?$_Impl_vector@PAXV?$xalloc@PAX@@@priv@stlp_std@@AAEXPAPAXIABQAXABU__false_type@3@@Z ; stlp_std::priv::_Impl_vector<void *,xalloc<void *> >::_M_fill_insert_aux
PUBLIC	?_M_fill_insert@?$_Impl_vector@PAXV?$xalloc@PAX@@@priv@stlp_std@@AAEXPAPAXIABQAX@Z ; stlp_std::priv::_Impl_vector<void *,xalloc<void *> >::_M_fill_insert
PUBLIC	?insert@?$_Impl_vector@PAXV?$xalloc@PAX@@@priv@stlp_std@@QAEXPAPAXIABQAX@Z ; stlp_std::priv::_Impl_vector<void *,xalloc<void *> >::insert
PUBLIC	?resize@?$_Impl_vector@PAXV?$xalloc@PAX@@@priv@stlp_std@@QAEXIABQAX@Z ; stlp_std::priv::_Impl_vector<void *,xalloc<void *> >::resize
PUBLIC	?to_storage_type_cref@?$_CastTraits@PAXPAUSSndChannel@CEnvAmbient@@@priv@stlp_std@@SAABQAXABQAUSSndChannel@CEnvAmbient@@@Z ; stlp_std::priv::_CastTraits<void *,CEnvAmbient::SSndChannel *>::to_storage_type_cref
PUBLIC	?resize@?$vector@PAUSSndChannel@CEnvAmbient@@V?$xalloc@PAUSSndChannel@CEnvAmbient@@@@@stlp_std@@QAEXIABQAUSSndChannel@CEnvAmbient@@@Z ; stlp_std::vector<CEnvAmbient::SSndChannel *,xalloc<CEnvAmbient::SSndChannel *> >::resize
PUBLIC	?to_value_type_ptr@?$_CastTraits@PAXPAUSSndChannel@CEnvAmbient@@@priv@stlp_std@@SAPAPAUSSndChannel@CEnvAmbient@@PAPAX@Z ; stlp_std::priv::_CastTraits<void *,CEnvAmbient::SSndChannel *>::to_value_type_ptr
PUBLIC	?begin@?$vector@PAUSSndChannel@CEnvAmbient@@V?$xalloc@PAUSSndChannel@CEnvAmbient@@@@@stlp_std@@QAEPAPAUSSndChannel@CEnvAmbient@@XZ ; stlp_std::vector<CEnvAmbient::SSndChannel *,xalloc<CEnvAmbient::SSndChannel *> >::begin
PUBLIC	??A?$xr_vector@PAUSSndChannel@CEnvAmbient@@V?$xalloc@PAUSSndChannel@CEnvAmbient@@@@@@QAEAAPAUSSndChannel@CEnvAmbient@@I@Z ; xr_vector<CEnvAmbient::SSndChannel *,xalloc<CEnvAmbient::SSndChannel *> >::operator[]
PUBLIC	??$_GetItem@$0CAI@@@YAPADPBDHAAY0CAI@DD0_N@Z	; _GetItem<520>
PUBLIC	?set@?$_vector4@M@@QAEAAU1@MMMM@Z		; _vector4<float>::set
PUBLIC	??0?$FactoryPtr@VIEnvDescriptorRender@@@@QAE@XZ	; FactoryPtr<IEnvDescriptorRender>::FactoryPtr<IEnvDescriptorRender>
PUBLIC	?mul@?$_vector4@M@@QAEAAU1@M@Z			; _vector4<float>::mul
PUBLIC	??C?$FactoryPtr@VIEnvDescriptorRender@@@@QBEPAVIEnvDescriptorRender@@XZ ; FactoryPtr<IEnvDescriptorRender>::operator->
PUBLIC	??C?$FactoryPtr@VIEnvDescriptorMixerRender@@@@QBEPAVIEnvDescriptorMixerRender@@XZ ; FactoryPtr<IEnvDescriptorMixerRender>::operator->
PUBLIC	?to_value_type_ref@?$_CastTraits@PAXPAVCEnvAmbient@@@priv@stlp_std@@SAAAPAVCEnvAmbient@@AAPAX@Z ; stlp_std::priv::_CastTraits<void *,CEnvAmbient *>::to_value_type_ref
PUBLIC	?back@?$vector@PAVCEnvAmbient@@V?$xalloc@PAVCEnvAmbient@@@@@stlp_std@@QAEAAPAVCEnvAmbient@@XZ ; stlp_std::vector<CEnvAmbient *,xalloc<CEnvAmbient *> >::back
PUBLIC	?to_storage_type_cref@?$_CastTraits@PAXPAVCEnvAmbient@@@priv@stlp_std@@SAABQAXABQAVCEnvAmbient@@@Z ; stlp_std::priv::_CastTraits<void *,CEnvAmbient *>::to_storage_type_cref
PUBLIC	?push_back@?$vector@PAVCEnvAmbient@@V?$xalloc@PAVCEnvAmbient@@@@@stlp_std@@QAEXABQAVCEnvAmbient@@@Z ; stlp_std::vector<CEnvAmbient *,xalloc<CEnvAmbient *> >::push_back
PUBLIC	??$xr_new@VCEnvAmbient@@@@YAPAVCEnvAmbient@@XZ	; xr_new<CEnvAmbient>
PUBLIC	?_M_set@?$_Impl_vector@VCEnvModifier@@V?$xalloc@VCEnvModifier@@@@@priv@stlp_std@@AAEXPAVCEnvModifier@@00@Z ; stlp_std::priv::_Impl_vector<CEnvModifier,xalloc<CEnvModifier> >::_M_set
PUBLIC	??$__fill_n@PAVCEnvModifier@@IV1@@priv@stlp_std@@YAPAVCEnvModifier@@PAV2@IABV2@@Z ; stlp_std::priv::__fill_n<CEnvModifier *,unsigned int,CEnvModifier>
PUBLIC	?_M_insert_overflow@?$_Impl_vector@VCEnvModifier@@V?$xalloc@VCEnvModifier@@@@@priv@stlp_std@@AAEXPAVCEnvModifier@@ABV4@ABU__true_type@3@I_N@Z ; stlp_std::priv::_Impl_vector<CEnvModifier,xalloc<CEnvModifier> >::_M_insert_overflow
PUBLIC	??$_Copy_Construct@VCEnvModifier@@@stlp_std@@YAXPAVCEnvModifier@@ABV1@@Z ; stlp_std::_Copy_Construct<CEnvModifier>
PUBLIC	?push_back@?$_Impl_vector@VCEnvModifier@@V?$xalloc@VCEnvModifier@@@@@priv@stlp_std@@QAEXABVCEnvModifier@@@Z ; stlp_std::priv::_Impl_vector<CEnvModifier,xalloc<CEnvModifier> >::push_back
PUBLIC	?to_storage_type_cref@?$_CastTraits@VCEnvModifier@@V1@@priv@stlp_std@@SAABVCEnvModifier@@ABV4@@Z ; stlp_std::priv::_CastTraits<CEnvModifier,CEnvModifier>::to_storage_type_cref
PUBLIC	?push_back@?$vector@VCEnvModifier@@V?$xalloc@VCEnvModifier@@@@@stlp_std@@QAEXABVCEnvModifier@@@Z ; stlp_std::vector<CEnvModifier,xalloc<CEnvModifier> >::push_back
PUBLIC	??$__copy_ptrs@PAVCEnvModifier@@PAV1@@priv@stlp_std@@YAPAVCEnvModifier@@PAV2@00ABU__true_type@1@@Z ; stlp_std::priv::__copy_ptrs<CEnvModifier *,CEnvModifier *>
PUBLIC	?_M_erase@?$_Impl_vector@VCEnvModifier@@V?$xalloc@VCEnvModifier@@@@@priv@stlp_std@@AAEPAVCEnvModifier@@PAV4@0ABU__false_type@3@@Z ; stlp_std::priv::_Impl_vector<CEnvModifier,xalloc<CEnvModifier> >::_M_erase
PUBLIC	?erase@?$_Impl_vector@VCEnvModifier@@V?$xalloc@VCEnvModifier@@@@@priv@stlp_std@@QAEPAVCEnvModifier@@PAV4@0@Z ; stlp_std::priv::_Impl_vector<CEnvModifier,xalloc<CEnvModifier> >::erase
PUBLIC	?clear@?$_Impl_vector@VCEnvModifier@@V?$xalloc@VCEnvModifier@@@@@priv@stlp_std@@QAEXXZ ; stlp_std::priv::_Impl_vector<CEnvModifier,xalloc<CEnvModifier> >::clear
PUBLIC	?clear@?$vector@VCEnvModifier@@V?$xalloc@VCEnvModifier@@@@@stlp_std@@QAEXXZ ; stlp_std::vector<CEnvModifier,xalloc<CEnvModifier> >::clear
PUBLIC	?clear_and_free@?$xr_vector@VCEnvModifier@@V?$xalloc@VCEnvModifier@@@@@@QAEXXZ ; xr_vector<CEnvModifier,xalloc<CEnvModifier> >::clear_and_free
PUBLIC	?begin@?$vector@PAVCEnvAmbient@@V?$xalloc@PAVCEnvAmbient@@@@@stlp_std@@QAEPAPAVCEnvAmbient@@XZ ; stlp_std::vector<CEnvAmbient *,xalloc<CEnvAmbient *> >::begin
PUBLIC	?to_value_type_ptr@?$_CastTraits@PAXPAVCEnvAmbient@@@priv@stlp_std@@SAPAPAVCEnvAmbient@@PAPAX@Z ; stlp_std::priv::_CastTraits<void *,CEnvAmbient *>::to_value_type_ptr
PUBLIC	?end@?$vector@PAVCEnvAmbient@@V?$xalloc@PAVCEnvAmbient@@@@@stlp_std@@QAEPAPAVCEnvAmbient@@XZ ; stlp_std::vector<CEnvAmbient *,xalloc<CEnvAmbient *> >::end
PUBLIC	??$xr_new@VCEnvDescriptor@@Vshared_str@@@@YAPAVCEnvDescriptor@@ABVshared_str@@@Z ; xr_new<CEnvDescriptor,shared_str>
PUBLIC	?end@?$vector@PADV?$xalloc@PAD@@@stlp_std@@QAEPAPADXZ ; stlp_std::vector<char *,xalloc<char *> >::end
PUBLIC	?begin@?$vector@PAUSect@CInifile@@V?$xalloc@PAUSect@CInifile@@@@@stlp_std@@QAEPAPAUSect@CInifile@@XZ ; stlp_std::vector<CInifile::Sect *,xalloc<CInifile::Sect *> >::begin
PUBLIC	?to_value_type_ptr@?$_CastTraits@PAXPAUSect@CInifile@@@priv@stlp_std@@SAPAPAUSect@CInifile@@PAPAX@Z ; stlp_std::priv::_CastTraits<void *,CInifile::Sect *>::to_value_type_ptr
PUBLIC	?end@?$vector@PAUSect@CInifile@@V?$xalloc@PAUSect@CInifile@@@@@stlp_std@@QAEPAPAUSect@CInifile@@XZ ; stlp_std::vector<CInifile::Sect *,xalloc<CInifile::Sect *> >::end
PUBLIC	?size@?$vector@PAUSect@CInifile@@V?$xalloc@PAUSect@CInifile@@@@@stlp_std@@QBEIXZ ; stlp_std::vector<CInifile::Sect *,xalloc<CInifile::Sect *> >::size
PUBLIC	?size@?$xr_vector@PAUSect@CInifile@@V?$xalloc@PAUSect@CInifile@@@@@@QBEIXZ ; xr_vector<CInifile::Sect *,xalloc<CInifile::Sect *> >::size
PUBLIC	?_M_throw_length_error@?$_Vector_base@PAXV?$xalloc@PAX@@@priv@stlp_std@@IBEXXZ ; stlp_std::priv::_Vector_base<void *,xalloc<void *> >::_M_throw_length_error
PUBLIC	?max_size@?$xalloc@PAX@@QBEIXZ			; xalloc<void *>::max_size
PUBLIC	?max_size@?$_Impl_vector@PAXV?$xalloc@PAX@@@priv@stlp_std@@QBEIXZ ; stlp_std::priv::_Impl_vector<void *,xalloc<void *> >::max_size
PUBLIC	?_Answer@?$_BothPtrType@PAPAXPAPAX@stlp_std@@SA?AU__true_type@2@XZ ; stlp_std::_BothPtrType<void * *,void * *>::_Answer
PUBLIC	??$__ucopy_aux@PAPAXPAPAX@priv@stlp_std@@YAPAPAXPAPAX00ABU__true_type@1@@Z ; stlp_std::priv::__ucopy_aux<void * *,void * *>
PUBLIC	??$uninitialized_copy@PAPAXPAPAX@stlp_std@@YAPAPAXPAPAX00@Z ; stlp_std::uninitialized_copy<void * *,void * *>
PUBLIC	??$_M_allocate_and_copy@PAPAX@?$_Impl_vector@PAXV?$xalloc@PAX@@@priv@stlp_std@@AAEPAPAXAAIPAPAX1@Z ; stlp_std::priv::_Impl_vector<void *,xalloc<void *> >::_M_allocate_and_copy<void * *>
PUBLIC	?reserve@?$_Impl_vector@PAXV?$xalloc@PAX@@@priv@stlp_std@@QAEXI@Z ; stlp_std::priv::_Impl_vector<void *,xalloc<void *> >::reserve
PUBLIC	?reserve@?$vector@PAVCEnvDescriptor@@V?$xalloc@PAVCEnvDescriptor@@@@@stlp_std@@QAEXI@Z ; stlp_std::vector<CEnvDescriptor *,xalloc<CEnvDescriptor *> >::reserve
PUBLIC	?to_storage_type_cref@?$_CastTraits@PAXPAVCEnvDescriptor@@@priv@stlp_std@@SAABQAXABQAVCEnvDescriptor@@@Z ; stlp_std::priv::_CastTraits<void *,CEnvDescriptor *>::to_storage_type_cref
PUBLIC	?push_back@?$vector@PAVCEnvDescriptor@@V?$xalloc@PAVCEnvDescriptor@@@@@stlp_std@@QAEXABQAVCEnvDescriptor@@@Z ; stlp_std::vector<CEnvDescriptor *,xalloc<CEnvDescriptor *> >::push_back
PUBLIC	?begin@?$map@Vshared_str@@V?$xr_vector@PAVCEnvDescriptor@@V?$xalloc@PAVCEnvDescriptor@@@@@@Ustr_pred@CEnvironment@@V?$xalloc@U?$pair@Vshared_str@@V?$xr_vector@PAVCEnvDescriptor@@V?$xalloc@PAVCEnvDescriptor@@@@@@@stlp_std@@@@@stlp_std@@QAE?AU?$_Rb_tree_iterator@U?$pair@$$CBVshared_str@@V?$xr_vector@PAVCEnvDescriptor@@V?$xalloc@PAVCEnvDescriptor@@@@@@@stlp_std@@U?$_MapTraitsT@U?$pair@$$CBVshared_str@@V?$xr_vector@PAVCEnvDescriptor@@V?$xalloc@PAVCEnvDescriptor@@@@@@@stlp_std@@@priv@2@@priv@2@XZ ; stlp_std::map<shared_str,xr_vector<CEnvDescriptor *,xalloc<CEnvDescriptor *> >,CEnvironment::str_pred,xalloc<stlp_std::pair<shared_str,xr_vector<CEnvDescriptor *,xalloc<CEnvDescriptor *> > > > >::begin
PUBLIC	?empty@?$map@Vshared_str@@V?$xr_vector@PAVCEnvDescriptor@@V?$xalloc@PAVCEnvDescriptor@@@@@@Ustr_pred@CEnvironment@@V?$xalloc@U?$pair@Vshared_str@@V?$xr_vector@PAVCEnvDescriptor@@V?$xalloc@PAVCEnvDescriptor@@@@@@@stlp_std@@@@@stlp_std@@QBE_NXZ ; stlp_std::map<shared_str,xr_vector<CEnvDescriptor *,xalloc<CEnvDescriptor *> >,CEnvironment::str_pred,xalloc<stlp_std::pair<shared_str,xr_vector<CEnvDescriptor *,xalloc<CEnvDescriptor *> > > > >::empty
PUBLIC	??0?$xalloc@PAVCEnvDescriptor@@@@QAE@XZ		; xalloc<CEnvDescriptor *>::xalloc<CEnvDescriptor *>
PUBLIC	??$?0PAVCEnvDescriptor@@@?$xalloc@PAX@@QAE@ABV?$xalloc@PAVCEnvDescriptor@@@@@Z ; xalloc<void *>::xalloc<void *><CEnvDescriptor *>
PUBLIC	??0?$vector@PAVCEnvDescriptor@@V?$xalloc@PAVCEnvDescriptor@@@@@stlp_std@@QAE@ABV?$xalloc@PAVCEnvDescriptor@@@@@Z ; stlp_std::vector<CEnvDescriptor *,xalloc<CEnvDescriptor *> >::vector<CEnvDescriptor *,xalloc<CEnvDescriptor *> >
PUBLIC	??0?$xr_vector@PAVCEnvDescriptor@@V?$xalloc@PAVCEnvDescriptor@@@@@@QAE@XZ ; xr_vector<CEnvDescriptor *,xalloc<CEnvDescriptor *> >::xr_vector<CEnvDescriptor *,xalloc<CEnvDescriptor *> >
PUBLIC	?key_comp@?$_Rb_tree@Vshared_str@@Ustr_pred@CEnvironment@@U?$pair@$$CBVshared_str@@V?$xr_vector@PAVCEnvDescriptor@@V?$xalloc@PAVCEnvDescriptor@@@@@@@stlp_std@@U?$_Select1st@U?$pair@$$CBVshared_str@@V?$xr_vector@PAVCEnvDescriptor@@V?$xalloc@PAVCEnvDescriptor@@@@@@@stlp_std@@@priv@5@U?$_MapTraitsT@U?$pair@$$CBVshared_str@@V?$xr_vector@PAVCEnvDescriptor@@V?$xalloc@PAVCEnvDescriptor@@@@@@@stlp_std@@@75@V?$xalloc@U?$pair@Vshared_str@@V?$xr_vector@PAVCEnvDescriptor@@V?$xalloc@PAVCEnvDescriptor@@@@@@@stlp_std@@@@@priv@stlp_std@@QBE?AUstr_pred@CEnvironment@@XZ ; stlp_std::priv::_Rb_tree<shared_str,CEnvironment::str_pred,stlp_std::pair<shared_str const ,xr_vector<CEnvDescriptor *,xalloc<CEnvDescriptor *> > >,stlp_std::priv::_Select1st<stlp_std::pair<shared_str const ,xr_vector<CEnvDescriptor *,xalloc<CEnvDescriptor *> > > >,stlp_std::priv::_MapTraitsT<stlp_std::pair<shared_str const ,xr_vector<CEnvDescriptor *,xalloc<CEnvDescriptor *> > > >,xalloc<stlp_std::pair<shared_str,xr_vector<CEnvDescriptor *,xalloc<CEnvDescriptor *> > > > >::key_comp
PUBLIC	?key_comp@?$map@Vshared_str@@V?$xr_vector@PAVCEnvDescriptor@@V?$xalloc@PAVCEnvDescriptor@@@@@@Ustr_pred@CEnvironment@@V?$xalloc@U?$pair@Vshared_str@@V?$xr_vector@PAVCEnvDescriptor@@V?$xalloc@PAVCEnvDescriptor@@@@@@@stlp_std@@@@@stlp_std@@QBE?AUstr_pred@CEnvironment@@XZ ; stlp_std::map<shared_str,xr_vector<CEnvDescriptor *,xalloc<CEnvDescriptor *> >,CEnvironment::str_pred,xalloc<stlp_std::pair<shared_str,xr_vector<CEnvDescriptor *,xalloc<CEnvDescriptor *> > > > >::key_comp
PUBLIC	?empty@?$_Rb_tree@Vshared_str@@Ustr_pred@CEnvironment@@U?$pair@$$CBVshared_str@@V?$xr_vector@PAVCEnvDescriptor@@V?$xalloc@PAVCEnvDescriptor@@@@@@@stlp_std@@U?$_Select1st@U?$pair@$$CBVshared_str@@V?$xr_vector@PAVCEnvDescriptor@@V?$xalloc@PAVCEnvDescriptor@@@@@@@stlp_std@@@priv@5@U?$_MapTraitsT@U?$pair@$$CBVshared_str@@V?$xr_vector@PAVCEnvDescriptor@@V?$xalloc@PAVCEnvDescriptor@@@@@@@stlp_std@@@75@V?$xalloc@U?$pair@Vshared_str@@V?$xr_vector@PAVCEnvDescriptor@@V?$xalloc@PAVCEnvDescriptor@@@@@@@stlp_std@@@@@priv@stlp_std@@QBE_NXZ ; stlp_std::priv::_Rb_tree<shared_str,CEnvironment::str_pred,stlp_std::pair<shared_str const ,xr_vector<CEnvDescriptor *,xalloc<CEnvDescriptor *> > >,stlp_std::priv::_Select1st<stlp_std::pair<shared_str const ,xr_vector<CEnvDescriptor *,xalloc<CEnvDescriptor *> > > >,stlp_std::priv::_MapTraitsT<stlp_std::pair<shared_str const ,xr_vector<CEnvDescriptor *,xalloc<CEnvDescriptor *> > > >,xalloc<stlp_std::pair<shared_str,xr_vector<CEnvDescriptor *,xalloc<CEnvDescriptor *> > > > >::empty
PUBLIC	?_Rotate_left@?$_Rb_global@_N@priv@stlp_std@@SAXPAU_Rb_tree_node_base@23@AAPAU423@@Z ; stlp_std::priv::_Rb_global<bool>::_Rotate_left
PUBLIC	?_Rotate_right@?$_Rb_global@_N@priv@stlp_std@@SAXPAU_Rb_tree_node_base@23@AAPAU423@@Z ; stlp_std::priv::_Rb_global<bool>::_Rotate_right
PUBLIC	?_Rebalance@?$_Rb_global@_N@priv@stlp_std@@SAXPAU_Rb_tree_node_base@23@AAPAU423@@Z ; stlp_std::priv::_Rb_global<bool>::_Rebalance
PUBLIC	?_M_insert@?$_Rb_tree@Vshared_str@@Ustr_pred@CEnvironment@@U?$pair@$$CBVshared_str@@V?$xr_vector@PAVCEnvDescriptor@@V?$xalloc@PAVCEnvDescriptor@@@@@@@stlp_std@@U?$_Select1st@U?$pair@$$CBVshared_str@@V?$xr_vector@PAVCEnvDescriptor@@V?$xalloc@PAVCEnvDescriptor@@@@@@@stlp_std@@@priv@5@U?$_MapTraitsT@U?$pair@$$CBVshared_str@@V?$xr_vector@PAVCEnvDescriptor@@V?$xalloc@PAVCEnvDescriptor@@@@@@@stlp_std@@@75@V?$xalloc@U?$pair@Vshared_str@@V?$xr_vector@PAVCEnvDescriptor@@V?$xalloc@PAVCEnvDescriptor@@@@@@@stlp_std@@@@@priv@stlp_std@@AAE?AU?$_Rb_tree_iterator@U?$pair@$$CBVshared_str@@V?$xr_vector@PAVCEnvDescriptor@@V?$xalloc@PAVCEnvDescriptor@@@@@@@stlp_std@@U?$_MapTraitsT@U?$pair@$$CBVshared_str@@V?$xr_vector@PAVCEnvDescriptor@@V?$xalloc@PAVCEnvDescriptor@@@@@@@stlp_std@@@priv@2@@23@PAU_Rb_tree_node_base@23@ABU?$pair@$$CBVshared_str@@V?$xr_vector@PAVCEnvDescriptor@@V?$xalloc@PAVCEnvDescriptor@@@@@@@3@00@Z ; stlp_std::priv::_Rb_tree<shared_str,CEnvironment::str_pred,stlp_std::pair<shared_str const ,xr_vector<CEnvDescriptor *,xalloc<CEnvDescriptor *> > >,stlp_std::priv::_Select1st<stlp_std::pair<shared_str const ,xr_vector<CEnvDescriptor *,xalloc<CEnvDescriptor *> > > >,stlp_std::priv::_MapTraitsT<stlp_std::pair<shared_str const ,xr_vector<CEnvDescriptor *,xalloc<CEnvDescriptor *> > > >,xalloc<stlp_std::pair<shared_str,xr_vector<CEnvDescriptor *,xalloc<CEnvDescriptor *> > > > >::_M_insert
PUBLIC	?begin@?$_Rb_tree@Vshared_str@@Ustr_pred@CEnvironment@@U?$pair@$$CBVshared_str@@V?$xr_vector@PAVCEnvDescriptor@@V?$xalloc@PAVCEnvDescriptor@@@@@@@stlp_std@@U?$_Select1st@U?$pair@$$CBVshared_str@@V?$xr_vector@PAVCEnvDescriptor@@V?$xalloc@PAVCEnvDescriptor@@@@@@@stlp_std@@@priv@5@U?$_MapTraitsT@U?$pair@$$CBVshared_str@@V?$xr_vector@PAVCEnvDescriptor@@V?$xalloc@PAVCEnvDescriptor@@@@@@@stlp_std@@@75@V?$xalloc@U?$pair@Vshared_str@@V?$xr_vector@PAVCEnvDescriptor@@V?$xalloc@PAVCEnvDescriptor@@@@@@@stlp_std@@@@@priv@stlp_std@@QAE?AU?$_Rb_tree_iterator@U?$pair@$$CBVshared_str@@V?$xr_vector@PAVCEnvDescriptor@@V?$xalloc@PAVCEnvDescriptor@@@@@@@stlp_std@@U?$_MapTraitsT@U?$pair@$$CBVshared_str@@V?$xr_vector@PAVCEnvDescriptor@@V?$xalloc@PAVCEnvDescriptor@@@@@@@stlp_std@@@priv@2@@23@XZ ; stlp_std::priv::_Rb_tree<shared_str,CEnvironment::str_pred,stlp_std::pair<shared_str const ,xr_vector<CEnvDescriptor *,xalloc<CEnvDescriptor *> > >,stlp_std::priv::_Select1st<stlp_std::pair<shared_str const ,xr_vector<CEnvDescriptor *,xalloc<CEnvDescriptor *> > > >,stlp_std::priv::_MapTraitsT<stlp_std::pair<shared_str const ,xr_vector<CEnvDescriptor *,xalloc<CEnvDescriptor *> > > >,xalloc<stlp_std::pair<shared_str,xr_vector<CEnvDescriptor *,xalloc<CEnvDescriptor *> > > > >::begin
PUBLIC	??0?$pair@U?$_Rb_tree_iterator@U?$pair@$$CBVshared_str@@V?$xr_vector@PAVCEnvDescriptor@@V?$xalloc@PAVCEnvDescriptor@@@@@@@stlp_std@@U?$_MapTraitsT@U?$pair@$$CBVshared_str@@V?$xr_vector@PAVCEnvDescriptor@@V?$xalloc@PAVCEnvDescriptor@@@@@@@stlp_std@@@priv@2@@priv@stlp_std@@_N@stlp_std@@QAE@ABU?$_Rb_tree_iterator@U?$pair@$$CBVshared_str@@V?$xr_vector@PAVCEnvDescriptor@@V?$xalloc@PAVCEnvDescriptor@@@@@@@stlp_std@@U?$_MapTraitsT@U?$pair@$$CBVshared_str@@V?$xr_vector@PAVCEnvDescriptor@@V?$xalloc@PAVCEnvDescriptor@@@@@@@stlp_std@@@priv@2@@priv@1@AB_N@Z ; stlp_std::pair<stlp_std::priv::_Rb_tree_iterator<stlp_std::pair<shared_str const ,xr_vector<CEnvDescriptor *,xalloc<CEnvDescriptor *> > >,stlp_std::priv::_MapTraitsT<stlp_std::pair<shared_str const ,xr_vector<CEnvDescriptor *,xalloc<CEnvDescriptor *> > > > >,bool>::pair<stlp_std::priv::_Rb_tree_iterator<stlp_std::pair<shared_str const ,xr_vector<CEnvDescriptor *,xalloc<CEnvDescriptor *> > >,stlp_std::priv::_MapTraitsT<stlp_std::pair<shared_str const ,xr_vector<CEnvDescriptor *,xalloc<CEnvDescriptor *> > > > >,bool>
PUBLIC	?insert_unique@?$_Rb_tree@Vshared_str@@Ustr_pred@CEnvironment@@U?$pair@$$CBVshared_str@@V?$xr_vector@PAVCEnvDescriptor@@V?$xalloc@PAVCEnvDescriptor@@@@@@@stlp_std@@U?$_Select1st@U?$pair@$$CBVshared_str@@V?$xr_vector@PAVCEnvDescriptor@@V?$xalloc@PAVCEnvDescriptor@@@@@@@stlp_std@@@priv@5@U?$_MapTraitsT@U?$pair@$$CBVshared_str@@V?$xr_vector@PAVCEnvDescriptor@@V?$xalloc@PAVCEnvDescriptor@@@@@@@stlp_std@@@75@V?$xalloc@U?$pair@Vshared_str@@V?$xr_vector@PAVCEnvDescriptor@@V?$xalloc@PAVCEnvDescriptor@@@@@@@stlp_std@@@@@priv@stlp_std@@QAE?AU?$pair@U?$_Rb_tree_iterator@U?$pair@$$CBVshared_str@@V?$xr_vector@PAVCEnvDescriptor@@V?$xalloc@PAVCEnvDescriptor@@@@@@@stlp_std@@U?$_MapTraitsT@U?$pair@$$CBVshared_str@@V?$xr_vector@PAVCEnvDescriptor@@V?$xalloc@PAVCEnvDescriptor@@@@@@@stlp_std@@@priv@2@@priv@stlp_std@@_N@3@ABU?$pair@$$CBVshared_str@@V?$xr_vector@PAVCEnvDescriptor@@V?$xalloc@PAVCEnvDescriptor@@@@@@@3@@Z ; stlp_std::priv::_Rb_tree<shared_str,CEnvironment::str_pred,stlp_std::pair<shared_str const ,xr_vector<CEnvDescriptor *,xalloc<CEnvDescriptor *> > >,stlp_std::priv::_Select1st<stlp_std::pair<shared_str const ,xr_vector<CEnvDescriptor *,xalloc<CEnvDescriptor *> > > >,stlp_std::priv::_MapTraitsT<stlp_std::pair<shared_str const ,xr_vector<CEnvDescriptor *,xalloc<CEnvDescriptor *> > > >,xalloc<stlp_std::pair<shared_str,xr_vector<CEnvDescriptor *,xalloc<CEnvDescriptor *> > > > >::insert_unique
PUBLIC	??F?$_Rb_tree_iterator@U?$pair@$$CBVshared_str@@V?$xr_vector@PAVCEnvDescriptor@@V?$xalloc@PAVCEnvDescriptor@@@@@@@stlp_std@@U?$_MapTraitsT@U?$pair@$$CBVshared_str@@V?$xr_vector@PAVCEnvDescriptor@@V?$xalloc@PAVCEnvDescriptor@@@@@@@stlp_std@@@priv@2@@priv@stlp_std@@QAEAAU012@XZ ; stlp_std::priv::_Rb_tree_iterator<stlp_std::pair<shared_str const ,xr_vector<CEnvDescriptor *,xalloc<CEnvDescriptor *> > >,stlp_std::priv::_MapTraitsT<stlp_std::pair<shared_str const ,xr_vector<CEnvDescriptor *,xalloc<CEnvDescriptor *> > > > >::operator--
PUBLIC	?insert_unique@?$_Rb_tree@Vshared_str@@Ustr_pred@CEnvironment@@U?$pair@$$CBVshared_str@@V?$xr_vector@PAVCEnvDescriptor@@V?$xalloc@PAVCEnvDescriptor@@@@@@@stlp_std@@U?$_Select1st@U?$pair@$$CBVshared_str@@V?$xr_vector@PAVCEnvDescriptor@@V?$xalloc@PAVCEnvDescriptor@@@@@@@stlp_std@@@priv@5@U?$_MapTraitsT@U?$pair@$$CBVshared_str@@V?$xr_vector@PAVCEnvDescriptor@@V?$xalloc@PAVCEnvDescriptor@@@@@@@stlp_std@@@75@V?$xalloc@U?$pair@Vshared_str@@V?$xr_vector@PAVCEnvDescriptor@@V?$xalloc@PAVCEnvDescriptor@@@@@@@stlp_std@@@@@priv@stlp_std@@QAE?AU?$_Rb_tree_iterator@U?$pair@$$CBVshared_str@@V?$xr_vector@PAVCEnvDescriptor@@V?$xalloc@PAVCEnvDescriptor@@@@@@@stlp_std@@U?$_MapTraitsT@U?$pair@$$CBVshared_str@@V?$xr_vector@PAVCEnvDescriptor@@V?$xalloc@PAVCEnvDescriptor@@@@@@@stlp_std@@@priv@2@@23@U423@ABU?$pair@$$CBVshared_str@@V?$xr_vector@PAVCEnvDescriptor@@V?$xalloc@PAVCEnvDescriptor@@@@@@@3@@Z ; stlp_std::priv::_Rb_tree<shared_str,CEnvironment::str_pred,stlp_std::pair<shared_str const ,xr_vector<CEnvDescriptor *,xalloc<CEnvDescriptor *> > >,stlp_std::priv::_Select1st<stlp_std::pair<shared_str const ,xr_vector<CEnvDescriptor *,xalloc<CEnvDescriptor *> > > >,stlp_std::priv::_MapTraitsT<stlp_std::pair<shared_str const ,xr_vector<CEnvDescriptor *,xalloc<CEnvDescriptor *> > > >,xalloc<stlp_std::pair<shared_str,xr_vector<CEnvDescriptor *,xalloc<CEnvDescriptor *> > > > >::insert_unique
PUBLIC	?insert@?$map@Vshared_str@@V?$xr_vector@PAVCEnvDescriptor@@V?$xalloc@PAVCEnvDescriptor@@@@@@Ustr_pred@CEnvironment@@V?$xalloc@U?$pair@Vshared_str@@V?$xr_vector@PAVCEnvDescriptor@@V?$xalloc@PAVCEnvDescriptor@@@@@@@stlp_std@@@@@stlp_std@@QAE?AU?$_Rb_tree_iterator@U?$pair@$$CBVshared_str@@V?$xr_vector@PAVCEnvDescriptor@@V?$xalloc@PAVCEnvDescriptor@@@@@@@stlp_std@@U?$_MapTraitsT@U?$pair@$$CBVshared_str@@V?$xr_vector@PAVCEnvDescriptor@@V?$xalloc@PAVCEnvDescriptor@@@@@@@stlp_std@@@priv@2@@priv@2@U342@ABU?$pair@$$CBVshared_str@@V?$xr_vector@PAVCEnvDescriptor@@V?$xalloc@PAVCEnvDescriptor@@@@@@@2@@Z ; stlp_std::map<shared_str,xr_vector<CEnvDescriptor *,xalloc<CEnvDescriptor *> >,CEnvironment::str_pred,xalloc<stlp_std::pair<shared_str,xr_vector<CEnvDescriptor *,xalloc<CEnvDescriptor *> > > > >::insert
PUBLIC	??0?$pair@$$CBVshared_str@@V?$xr_vector@PAVCEnvDescriptor@@V?$xalloc@PAVCEnvDescriptor@@@@@@@stlp_std@@QAE@ABVshared_str@@ABV?$xr_vector@PAVCEnvDescriptor@@V?$xalloc@PAVCEnvDescriptor@@@@@@@Z ; stlp_std::pair<shared_str const ,xr_vector<CEnvDescriptor *,xalloc<CEnvDescriptor *> > >::pair<shared_str const ,xr_vector<CEnvDescriptor *,xalloc<CEnvDescriptor *> > >
PUBLIC	??$_M_lower_bound@PAD@?$_Rb_tree@Vshared_str@@Ustr_pred@CEnvironment@@U?$pair@$$CBVshared_str@@V?$xr_vector@PAVCEnvDescriptor@@V?$xalloc@PAVCEnvDescriptor@@@@@@@stlp_std@@U?$_Select1st@U?$pair@$$CBVshared_str@@V?$xr_vector@PAVCEnvDescriptor@@V?$xalloc@PAVCEnvDescriptor@@@@@@@stlp_std@@@priv@5@U?$_MapTraitsT@U?$pair@$$CBVshared_str@@V?$xr_vector@PAVCEnvDescriptor@@V?$xalloc@PAVCEnvDescriptor@@@@@@@stlp_std@@@75@V?$xalloc@U?$pair@Vshared_str@@V?$xr_vector@PAVCEnvDescriptor@@V?$xalloc@PAVCEnvDescriptor@@@@@@@stlp_std@@@@@priv@stlp_std@@ABEPAU_Rb_tree_node_base@12@ABQAD@Z ; stlp_std::priv::_Rb_tree<shared_str,CEnvironment::str_pred,stlp_std::pair<shared_str const ,xr_vector<CEnvDescriptor *,xalloc<CEnvDescriptor *> > >,stlp_std::priv::_Select1st<stlp_std::pair<shared_str const ,xr_vector<CEnvDescriptor *,xalloc<CEnvDescriptor *> > > >,stlp_std::priv::_MapTraitsT<stlp_std::pair<shared_str const ,xr_vector<CEnvDescriptor *,xalloc<CEnvDescriptor *> > > >,xalloc<stlp_std::pair<shared_str,xr_vector<CEnvDescriptor *,xalloc<CEnvDescriptor *> > > > >::_M_lower_bound<char *>
PUBLIC	??$lower_bound@PAD@?$_Rb_tree@Vshared_str@@Ustr_pred@CEnvironment@@U?$pair@$$CBVshared_str@@V?$xr_vector@PAVCEnvDescriptor@@V?$xalloc@PAVCEnvDescriptor@@@@@@@stlp_std@@U?$_Select1st@U?$pair@$$CBVshared_str@@V?$xr_vector@PAVCEnvDescriptor@@V?$xalloc@PAVCEnvDescriptor@@@@@@@stlp_std@@@priv@5@U?$_MapTraitsT@U?$pair@$$CBVshared_str@@V?$xr_vector@PAVCEnvDescriptor@@V?$xalloc@PAVCEnvDescriptor@@@@@@@stlp_std@@@75@V?$xalloc@U?$pair@Vshared_str@@V?$xr_vector@PAVCEnvDescriptor@@V?$xalloc@PAVCEnvDescriptor@@@@@@@stlp_std@@@@@priv@stlp_std@@QAE?AU?$_Rb_tree_iterator@U?$pair@$$CBVshared_str@@V?$xr_vector@PAVCEnvDescriptor@@V?$xalloc@PAVCEnvDescriptor@@@@@@@stlp_std@@U?$_MapTraitsT@U?$pair@$$CBVshared_str@@V?$xr_vector@PAVCEnvDescriptor@@V?$xalloc@PAVCEnvDescriptor@@@@@@@stlp_std@@@priv@2@@12@ABQAD@Z ; stlp_std::priv::_Rb_tree<shared_str,CEnvironment::str_pred,stlp_std::pair<shared_str const ,xr_vector<CEnvDescriptor *,xalloc<CEnvDescriptor *> > >,stlp_std::priv::_Select1st<stlp_std::pair<shared_str const ,xr_vector<CEnvDescriptor *,xalloc<CEnvDescriptor *> > > >,stlp_std::priv::_MapTraitsT<stlp_std::pair<shared_str const ,xr_vector<CEnvDescriptor *,xalloc<CEnvDescriptor *> > > >,xalloc<stlp_std::pair<shared_str,xr_vector<CEnvDescriptor *,xalloc<CEnvDescriptor *> > > > >::lower_bound<char *>
PUBLIC	??$lower_bound@PAD@?$map@Vshared_str@@V?$xr_vector@PAVCEnvDescriptor@@V?$xalloc@PAVCEnvDescriptor@@@@@@Ustr_pred@CEnvironment@@V?$xalloc@U?$pair@Vshared_str@@V?$xr_vector@PAVCEnvDescriptor@@V?$xalloc@PAVCEnvDescriptor@@@@@@@stlp_std@@@@@stlp_std@@QAE?AU?$_Rb_tree_iterator@U?$pair@$$CBVshared_str@@V?$xr_vector@PAVCEnvDescriptor@@V?$xalloc@PAVCEnvDescriptor@@@@@@@stlp_std@@U?$_MapTraitsT@U?$pair@$$CBVshared_str@@V?$xr_vector@PAVCEnvDescriptor@@V?$xalloc@PAVCEnvDescriptor@@@@@@@stlp_std@@@priv@2@@priv@1@ABQAD@Z ; stlp_std::map<shared_str,xr_vector<CEnvDescriptor *,xalloc<CEnvDescriptor *> >,CEnvironment::str_pred,xalloc<stlp_std::pair<shared_str,xr_vector<CEnvDescriptor *,xalloc<CEnvDescriptor *> > > > >::lower_bound<char *>
PUBLIC	??$?APAD@?$map@Vshared_str@@V?$xr_vector@PAVCEnvDescriptor@@V?$xalloc@PAVCEnvDescriptor@@@@@@Ustr_pred@CEnvironment@@V?$xalloc@U?$pair@Vshared_str@@V?$xr_vector@PAVCEnvDescriptor@@V?$xalloc@PAVCEnvDescriptor@@@@@@@stlp_std@@@@@stlp_std@@QAEAAV?$xr_vector@PAVCEnvDescriptor@@V?$xalloc@PAVCEnvDescriptor@@@@@@ABQAD@Z ; stlp_std::map<shared_str,xr_vector<CEnvDescriptor *,xalloc<CEnvDescriptor *> >,CEnvironment::str_pred,xalloc<stlp_std::pair<shared_str,xr_vector<CEnvDescriptor *,xalloc<CEnvDescriptor *> > > > >::operator[]<char *>
PUBLIC	??$xr_strcat@$0CAI@@@YAHAAY0CAI@DPBD@Z		; xr_strcat<520>
PUBLIC	??0?$_Rb_tree_iterator@U?$pair@$$CBVshared_str@@V?$xr_vector@PAVCEnvDescriptor@@V?$xalloc@PAVCEnvDescriptor@@@@@@@stlp_std@@U?$_MapTraitsT@U?$pair@$$CBVshared_str@@V?$xr_vector@PAVCEnvDescriptor@@V?$xalloc@PAVCEnvDescriptor@@@@@@@stlp_std@@@priv@2@@priv@stlp_std@@QAE@ABU012@@Z ; stlp_std::priv::_Rb_tree_iterator<stlp_std::pair<shared_str const ,xr_vector<CEnvDescriptor *,xalloc<CEnvDescriptor *> > >,stlp_std::priv::_MapTraitsT<stlp_std::pair<shared_str const ,xr_vector<CEnvDescriptor *,xalloc<CEnvDescriptor *> > > > >::_Rb_tree_iterator<stlp_std::pair<shared_str const ,xr_vector<CEnvDescriptor *,xalloc<CEnvDescriptor *> > >,stlp_std::priv::_MapTraitsT<stlp_std::pair<shared_str const ,xr_vector<CEnvDescriptor *,xalloc<CEnvDescriptor *> > > > >
PUBLIC	??E?$_Rb_tree_iterator@U?$pair@$$CBVshared_str@@V?$xr_vector@PAVCEnvDescriptor@@V?$xalloc@PAVCEnvDescriptor@@@@@@@stlp_std@@U?$_MapTraitsT@U?$pair@$$CBVshared_str@@V?$xr_vector@PAVCEnvDescriptor@@V?$xalloc@PAVCEnvDescriptor@@@@@@@stlp_std@@@priv@2@@priv@stlp_std@@QAEAAU012@XZ ; stlp_std::priv::_Rb_tree_iterator<stlp_std::pair<shared_str const ,xr_vector<CEnvDescriptor *,xalloc<CEnvDescriptor *> > >,stlp_std::priv::_MapTraitsT<stlp_std::pair<shared_str const ,xr_vector<CEnvDescriptor *,xalloc<CEnvDescriptor *> > > > >::operator++
PUBLIC	??E?$_Rb_tree_iterator@U?$pair@$$CBVshared_str@@V?$xr_vector@PAVCEnvDescriptor@@V?$xalloc@PAVCEnvDescriptor@@@@@@@stlp_std@@U?$_MapTraitsT@U?$pair@$$CBVshared_str@@V?$xr_vector@PAVCEnvDescriptor@@V?$xalloc@PAVCEnvDescriptor@@@@@@@stlp_std@@@priv@2@@priv@stlp_std@@QAE?AU012@H@Z ; stlp_std::priv::_Rb_tree_iterator<stlp_std::pair<shared_str const ,xr_vector<CEnvDescriptor *,xalloc<CEnvDescriptor *> > >,stlp_std::priv::_MapTraitsT<stlp_std::pair<shared_str const ,xr_vector<CEnvDescriptor *,xalloc<CEnvDescriptor *> > > > >::operator++
PUBLIC	??_C@_0N@OILKOPDA@min_distance?$AA@		; `string'
PUBLIC	??_C@_0N@KIPFJHEG@max_distance?$AA@		; `string'
PUBLIC	??_C@_07MOBGNJOI@period0?$AA@			; `string'
PUBLIC	??_C@_07NHANOIKJ@period1?$AA@			; `string'
PUBLIC	??_C@_07PMCALLGK@period2?$AA@			; `string'
PUBLIC	??_C@_07OFDLIKCL@period3?$AA@			; `string'
PUBLIC	??_C@_0BP@KOPBFBGJ@CEnvAmbient?3?3SSndChannel?3?3load?$AA@ ; `string'
PUBLIC	??_C@_0DJ@LMFGIIMF@D?3?2CLEARSKY?2sources?2engine?2xrEng@ ; `string'
PUBLIC	??_C@_0EN@KLGKENFP@m_sound_period?4x?5?$DM?$DN?5m_sound_peri@ ; `string'
PUBLIC	??_C@_0CA@NAJJMFOP@m_sound_dist?4y?5?$DO?5m_sound_dist?4x?$AA@ ; `string'
PUBLIC	??_C@_06OHLGPBPO@sounds?$AA@			; `string'
PUBLIC	??_C@_0N@POGEGAMB@sounds?5empty?$AA@		; `string'
PUBLIC	??_C@_03PODCCCNG@cnt?$AA@			; `string'
PUBLIC	??_C@_09HEFANMD@life_time?$AA@			; `string'
PUBLIC	??_C@_09JNOBNNGJ@particles?$AA@			; `string'
PUBLIC	??_C@_06KLHHMIGM@offset?$AA@			; `string'
PUBLIC	??_C@_0BB@CCMBLOMC@wind_gust_factor?$AA@	; `string'
PUBLIC	??_C@_05MHNANJII@sound?$AA@			; `string'
PUBLIC	??_C@_0BE@KFMLMFEH@wind_blast_strength?$AA@	; `string'
PUBLIC	??_C@_0BF@DPMPPAHL@wind_blast_longitude?$AA@	; `string'
PUBLIC	??_C@_0BD@IJOHBNIL@wind_blast_in_time?$AA@	; `string'
PUBLIC	??_C@_0BE@IJHCHLOP@wind_blast_out_time?$AA@	; `string'
PUBLIC	??_C@_0P@DNBEMGJE@sound_channels?$AA@		; `string'
PUBLIC	??_C@_0BC@GGMJBMHC@max_effect_period?$AA@	; `string'
PUBLIC	??_C@_0BC@DFGPAEJG@min_effect_period?$AA@	; `string'
PUBLIC	??_C@_07BLLGFBLI@effects?$AA@			; `string'
PUBLIC	??_C@_0BC@HDHPDBCF@CEnvAmbient?3?3load?$AA@	; `string'
PUBLIC	??_C@_0DA@LDDMEOP@?$CBm_sound_channels?4empty?$CI?$CJ?5?$HM?$HM?5?$CBm_@ ; `string'
PUBLIC	??_C@_08BCHAAPIF@?$CFd?3?$CFd?3?$CFd?$AA@	; `string'
PUBLIC	??_C@_0BF@EANFLFCA@CEnvDescriptor?3?3load?$AA@	; `string'
PUBLIC	??_C@_0BH@MPEMKMHJ@Incorrect?5weather?5time?$AA@ ; `string'
PUBLIC	??_C@_0EB@NFPMNHOA@?$CItm?4x?$DO?$DN0?$CJ?$CG?$CG?$CItm?4x?$DM24?$CJ?$CG?$CG?$CItm?4y?$DO?$DN0?$CJ?$CG@ ; `string'
PUBLIC	??_C@_0M@KBFBNOE@sky_texture?$AA@		; `string'
PUBLIC	??_C@_06HLMNEJJK@?$CDsmall?$AA@			; `string'
PUBLIC	??_C@_0P@BBBMCHHG@clouds_texture?$AA@		; `string'
PUBLIC	??_C@_0N@PBBLJPHJ@clouds_color?$AA@		; `string'
PUBLIC	??_C@_0P@NDAOCKKN@?$CFf?0?$CFf?0?$CFf?0?$CFf?0?$CFf?$AA@ ; `string'
PUBLIC	??_C@_0N@JNJNJFLD@sky_rotation?$AA@		; `string'
PUBLIC	??_C@_09DOMFAHMJ@far_plane?$AA@			; `string'
PUBLIC	??_C@_0M@PEDBIAKE@fog_density?$AA@		; `string'
PUBLIC	??_C@_0N@JLADMLPG@fog_distance?$AA@		; `string'
PUBLIC	??_C@_0N@DKAAMBIA@rain_density?$AA@		; `string'
PUBLIC	??_C@_0L@FGFPJEPN@rain_color?$AA@		; `string'
PUBLIC	??_C@_0O@NKEOPANL@wind_velocity?$AA@		; `string'
PUBLIC	??_C@_0P@MACDNOKA@wind_direction?$AA@		; `string'
PUBLIC	??_C@_0O@HNCBNJOB@ambient_color?$AA@		; `string'
PUBLIC	??_C@_0BB@KLFILGFK@hemisphere_color?$AA@	; `string'
PUBLIC	??_C@_0O@NONJJHIB@sun_longitude?$AA@		; `string'
PUBLIC	??_C@_0N@PNIGFPCO@sun_altitude?$AA@		; `string'
PUBLIC	??_C@_0BA@MPNGEPPI@_valid?$CIsun_dir?$CJ?$AA@	; `string'
PUBLIC	??_C@_03OHFMDAD@sun?$AA@			; `string'
PUBLIC	??_C@_0BH@JJPAPJPK@thunderbolt_collection?$AA@	; `string'
PUBLIC	??_C@_0BD@JCGMNLO@thunderbolt_period?$AA@	; `string'
PUBLIC	??_C@_0BF@KDPICAFM@thunderbolt_duration?$AA@	; `string'
PUBLIC	??_C@_07LIABELBC@ambient?$AA@			; `string'
PUBLIC	??_C@_0BF@ILNJDLLL@sun_shafts_intensity?$AA@	; `string'
PUBLIC	??_C@_0BA@CGFGMFHM@water_intensity?$AA@		; `string'
PUBLIC	??_C@_0CD@GDHIGMGD@?$CB?5Invalid?5?8?$CFs?8?5in?5env?9section?5?8?$CF@ ; `string'
PUBLIC	??_C@_0L@EEMEPANN@hemi_color?$AA@		; `string'
PUBLIC	??_C@_0BK@JGPMIJHM@CEnvDescriptorMixer?3?3lerp?$AA@ ; `string'
PUBLIC	??_C@_0BC@CPBJAOIM@_valid?$CIA?4sun_dir?$CJ?$AA@ ; `string'
PUBLIC	??_C@_0BC@LGPLGIIN@_valid?$CIB?4sun_dir?$CJ?$AA@ ; `string'
PUBLIC	??_C@_0O@FPEAHABB@level?4env_mod?$AA@		; `string'
PUBLIC	??_C@_04ICMCOCEO@?4ltx?$AA@			; `string'
PUBLIC	??_C@_0BG@KCNLLLEN@environment?2ambients?2?$AA@	; `string'
PUBLIC	??_C@_0BA@NPNEALIJ@$game_weathers$?$AA@		; `string'
PUBLIC	??_C@_0BM@LCBBCHEL@CEnvironment?3?3load_weathers?$AA@ ; `string'
PUBLIC	??_C@_0CA@KLGPDKEF@Environment?5in?5weather?5must?5?$DO?$DN2?$AA@ ; `string'
PUBLIC	??_C@_0BE@OAKBGENP@_I?9?$DOsecond?4size?$CI?$CJ?$DO1?$AA@ ; `string'
PUBLIC	??_C@_0BA@HJPKPFGD@Empty?5weathers?4?$AA@	; `string'
PUBLIC	??_C@_0BH@GOFEJBEP@?$CBWeatherCycles?4empty?$CI?$CJ?$AA@ ; `string'
PUBLIC	??_C@_0BH@NCMIJIFN@$game_weather_effects$?$AA@	; `string'
PUBLIC	??_C@_08NFEFNABD@24?300?300?$AA@		; `string'
PUBLIC	??_C@_0CD@FDPACMLH@CEnvironment?3?3load_weather_effec@ ; `string'
EXTRN	__imp_?r_u16@?$IReaderBase@VIReader@@@@QAEGXZ:PROC
EXTRN	__imp_?r_float@?$IReaderBase@VIReader@@@@QAEMXZ:PROC
EXTRN	__imp_?r_fvector3@?$IReaderBase@VIReader@@@@QAEXAAU?$_vector3@M@@@Z:PROC
EXTRN	__imp_?r_s32@CInifile@@QBEHABVshared_str@@PBD@Z:PROC
EXTRN	__imp_?r_float@CInifile@@QBEMABVshared_str@@PBD@Z:PROC
EXTRN	__imp_?r_fvector3@CInifile@@QBE?AU?$_vector3@M@@PBD0@Z:PROC
EXTRN	__imp_?r_fvector4@CInifile@@QBE?AU?$_vector4@M@@PBD0@Z:PROC
EXTRN	__imp_?r_u32@?$IReaderBase@VIReader@@@@QAEIXZ:PROC
EXTRN	__imp_?find_chunk@IReader@@QAEIIPAH@Z:PROC
EXTRN	__imp_?r_open@CLocatorAPI@@QAEPAVIReader@@PBD@Z:PROC
EXTRN	__imp_?fname@CInifile@@QBEPBDXZ:PROC
EXTRN	__imp_?section_exist@CInifile@@QBEHABVshared_str@@@Z:PROC
EXTRN	__imp_?Create@CInifile@@SAPAV1@PBDH@Z:PROC
EXTRN	__imp_?sections@CInifile@@QAEAAV?$xr_vector@PAUSect@CInifile@@V?$xalloc@PAUSect@CInifile@@@@@@XZ:PROC
EXTRN	__imp_?file_list_open@CLocatorAPI@@QAEPAV?$xr_vector@PADV?$xalloc@PAD@@@@PBD0I@Z:PROC
;	COMDAT ?ignore_always@?3??load@SSndChannel@CEnvAmbient@@QAEXAAVCInifile@@PBD@Z@4_NA
_BSS	SEGMENT
?ignore_always@?3??load@SSndChannel@CEnvAmbient@@QAEXAAVCInifile@@PBD@Z@4_NA DB 01H DUP (?) ; `CEnvAmbient::SSndChannel::load'::`4'::ignore_always
_BSS	ENDS
;	COMDAT ?ignore_always@?7??load@SSndChannel@CEnvAmbient@@QAEXAAVCInifile@@PBD@Z@4_NA
_BSS	SEGMENT
?ignore_always@?7??load@SSndChannel@CEnvAmbient@@QAEXAAVCInifile@@PBD@Z@4_NA DB 01H DUP (?) ; `CEnvAmbient::SSndChannel::load'::`8'::ignore_always
_BSS	ENDS
;	COMDAT ?ignore_always@?M@??load@SSndChannel@CEnvAmbient@@QAEXAAVCInifile@@PBD@Z@4_NA
_BSS	SEGMENT
?ignore_always@?M@??load@SSndChannel@CEnvAmbient@@QAEXAAVCInifile@@PBD@Z@4_NA DB 01H DUP (?) ; `CEnvAmbient::SSndChannel::load'::`12'::ignore_always
_BSS	ENDS
;	COMDAT ?ignore_always@?5??load@CEnvAmbient@@QAEXAAVCInifile@@00ABVshared_str@@@Z@4_NA
_BSS	SEGMENT
?ignore_always@?5??load@CEnvAmbient@@QAEXAAVCInifile@@00ABVshared_str@@@Z@4_NA DB 01H DUP (?) ; `CEnvAmbient::load'::`6'::ignore_always
_BSS	ENDS
;	COMDAT ?ignore_always@?3??load@CEnvDescriptor@@QAEXAAVCEnvironment@@AAVCInifile@@@Z@4_NA
_BSS	SEGMENT
?ignore_always@?3??load@CEnvDescriptor@@QAEXAAVCEnvironment@@AAVCInifile@@@Z@4_NA DB 01H DUP (?) ; `CEnvDescriptor::load'::`4'::ignore_always
_BSS	ENDS
;	COMDAT ?ignore_always@?L@??load@CEnvDescriptor@@QAEXAAVCEnvironment@@AAVCInifile@@@Z@4_NA
_BSS	SEGMENT
?ignore_always@?L@??load@CEnvDescriptor@@QAEXAAVCEnvironment@@AAVCInifile@@@Z@4_NA DB 01H DUP (?) ; `CEnvDescriptor::load'::`11'::ignore_always
_BSS	ENDS
;	COMDAT ?ignore_always@?BD@??lerp@CEnvDescriptorMixer@@QAEXPAVCEnvironment@@AAVCEnvDescriptor@@1MAAVCEnvModifier@@M@Z@4_NA
_BSS	SEGMENT
?ignore_always@?BD@??lerp@CEnvDescriptorMixer@@QAEXPAVCEnvironment@@AAVCEnvDescriptor@@1MAAVCEnvModifier@@M@Z@4_NA DB 01H DUP (?) ; `CEnvDescriptorMixer::lerp'::`19'::ignore_always
_BSS	ENDS
;	COMDAT ?ignore_always@?BH@??lerp@CEnvDescriptorMixer@@QAEXPAVCEnvironment@@AAVCEnvDescriptor@@1MAAVCEnvModifier@@M@Z@4_NA
_BSS	SEGMENT
?ignore_always@?BH@??lerp@CEnvDescriptorMixer@@QAEXPAVCEnvironment@@AAVCEnvDescriptor@@1MAAVCEnvModifier@@M@Z@4_NA DB 01H DUP (?) ; `CEnvDescriptorMixer::lerp'::`23'::ignore_always
_BSS	ENDS
;	COMDAT ?ignore_always@?BL@??lerp@CEnvDescriptorMixer@@QAEXPAVCEnvironment@@AAVCEnvDescriptor@@1MAAVCEnvModifier@@M@Z@4_NA
_BSS	SEGMENT
?ignore_always@?BL@??lerp@CEnvDescriptorMixer@@QAEXPAVCEnvironment@@AAVCEnvDescriptor@@1MAAVCEnvModifier@@M@Z@4_NA DB 01H DUP (?) ; `CEnvDescriptorMixer::lerp'::`27'::ignore_always
_BSS	ENDS
;	COMDAT ?ignore_always@?BI@??load_weathers@CEnvironment@@IAEXXZ@4_NA
_BSS	SEGMENT
?ignore_always@?BI@??load_weathers@CEnvironment@@IAEXXZ@4_NA DB 01H DUP (?) ; `CEnvironment::load_weathers'::`24'::ignore_always
_BSS	ENDS
;	COMDAT ?ignore_always@?BM@??load_weathers@CEnvironment@@IAEXXZ@4_NA
_BSS	SEGMENT
?ignore_always@?BM@??load_weathers@CEnvironment@@IAEXXZ@4_NA DB 01H DUP (?) ; `CEnvironment::load_weathers'::`28'::ignore_always
_BSS	ENDS
;	COMDAT ?ignore_always@?BI@??load_weather_effects@CEnvironment@@IAEXXZ@4_NA
_BSS	SEGMENT
?ignore_always@?BI@??load_weather_effects@CEnvironment@@IAEXXZ@4_NA DB 01H DUP (?) ; `CEnvironment::load_weather_effects'::`24'::ignore_always
;	COMDAT ??_C@_0CD@FDPACMLH@CEnvironment?3?3load_weather_effec@
CONST	SEGMENT
??_C@_0CD@FDPACMLH@CEnvironment?3?3load_weather_effec@ DB 'CEnvironment::'
	DB	'load_weather_effects', 00H			; `string'
CONST	ENDS
;	COMDAT ??_C@_08NFEFNABD@24?300?300?$AA@
CONST	SEGMENT
??_C@_08NFEFNABD@24?300?300?$AA@ DB '24:00:00', 00H	; `string'
CONST	ENDS
;	COMDAT ??_C@_0BH@NCMIJIFN@$game_weather_effects$?$AA@
CONST	SEGMENT
??_C@_0BH@NCMIJIFN@$game_weather_effects$?$AA@ DB '$game_weather_effects$'
	DB	00H						; `string'
CONST	ENDS
;	COMDAT ??_C@_0BH@GOFEJBEP@?$CBWeatherCycles?4empty?$CI?$CJ?$AA@
CONST	SEGMENT
??_C@_0BH@GOFEJBEP@?$CBWeatherCycles?4empty?$CI?$CJ?$AA@ DB '!WeatherCycl'
	DB	'es.empty()', 00H				; `string'
CONST	ENDS
;	COMDAT ??_C@_0BA@HJPKPFGD@Empty?5weathers?4?$AA@
CONST	SEGMENT
??_C@_0BA@HJPKPFGD@Empty?5weathers?4?$AA@ DB 'Empty weathers.', 00H ; `string'
CONST	ENDS
;	COMDAT ??_C@_0BE@OAKBGENP@_I?9?$DOsecond?4size?$CI?$CJ?$DO1?$AA@
CONST	SEGMENT
??_C@_0BE@OAKBGENP@_I?9?$DOsecond?4size?$CI?$CJ?$DO1?$AA@ DB '_I->second.'
	DB	'size()>1', 00H				; `string'
CONST	ENDS
;	COMDAT ??_C@_0CA@KLGPDKEF@Environment?5in?5weather?5must?5?$DO?$DN2?$AA@
CONST	SEGMENT
??_C@_0CA@KLGPDKEF@Environment?5in?5weather?5must?5?$DO?$DN2?$AA@ DB 'Env'
	DB	'ironment in weather must >=2', 00H		; `string'
CONST	ENDS
;	COMDAT ??_C@_0BM@LCBBCHEL@CEnvironment?3?3load_weathers?$AA@
CONST	SEGMENT
??_C@_0BM@LCBBCHEL@CEnvironment?3?3load_weathers?$AA@ DB 'CEnvironment::l'
	DB	'oad_weathers', 00H				; `string'
CONST	ENDS
;	COMDAT ??_C@_0BA@NPNEALIJ@$game_weathers$?$AA@
CONST	SEGMENT
??_C@_0BA@NPNEALIJ@$game_weathers$?$AA@ DB '$game_weathers$', 00H ; `string'
CONST	ENDS
;	COMDAT ??_C@_0BG@KCNLLLEN@environment?2ambients?2?$AA@
CONST	SEGMENT
??_C@_0BG@KCNLLLEN@environment?2ambients?2?$AA@ DB 'environment\ambients\'
	DB	00H						; `string'
CONST	ENDS
;	COMDAT ??_C@_04ICMCOCEO@?4ltx?$AA@
CONST	SEGMENT
??_C@_04ICMCOCEO@?4ltx?$AA@ DB '.ltx', 00H		; `string'
CONST	ENDS
;	COMDAT ??_C@_0O@FPEAHABB@level?4env_mod?$AA@
CONST	SEGMENT
??_C@_0O@FPEAHABB@level?4env_mod?$AA@ DB 'level.env_mod', 00H ; `string'
CONST	ENDS
;	COMDAT ??_C@_0BC@LGPLGIIN@_valid?$CIB?4sun_dir?$CJ?$AA@
CONST	SEGMENT
??_C@_0BC@LGPLGIIN@_valid?$CIB?4sun_dir?$CJ?$AA@ DB '_valid(B.sun_dir)', 00H ; `string'
CONST	ENDS
;	COMDAT ??_C@_0BC@CPBJAOIM@_valid?$CIA?4sun_dir?$CJ?$AA@
CONST	SEGMENT
??_C@_0BC@CPBJAOIM@_valid?$CIA?4sun_dir?$CJ?$AA@ DB '_valid(A.sun_dir)', 00H ; `string'
CONST	ENDS
;	COMDAT ??_C@_0BK@JGPMIJHM@CEnvDescriptorMixer?3?3lerp?$AA@
CONST	SEGMENT
??_C@_0BK@JGPMIJHM@CEnvDescriptorMixer?3?3lerp?$AA@ DB 'CEnvDescriptorMix'
	DB	'er::lerp', 00H				; `string'
CONST	ENDS
;	COMDAT ??_C@_0L@EEMEPANN@hemi_color?$AA@
CONST	SEGMENT
??_C@_0L@EEMEPANN@hemi_color?$AA@ DB 'hemi_color', 00H	; `string'
CONST	ENDS
;	COMDAT ??_C@_0CD@GDHIGMGD@?$CB?5Invalid?5?8?$CFs?8?5in?5env?9section?5?8?$CF@
CONST	SEGMENT
??_C@_0CD@GDHIGMGD@?$CB?5Invalid?5?8?$CFs?8?5in?5env?9section?5?8?$CF@ DB '!'
	DB	' Invalid ''%s'' in env-section ''%s''', 00H	; `string'
CONST	ENDS
;	COMDAT ??_C@_0BA@CGFGMFHM@water_intensity?$AA@
CONST	SEGMENT
??_C@_0BA@CGFGMFHM@water_intensity?$AA@ DB 'water_intensity', 00H ; `string'
CONST	ENDS
;	COMDAT ??_C@_0BF@ILNJDLLL@sun_shafts_intensity?$AA@
CONST	SEGMENT
??_C@_0BF@ILNJDLLL@sun_shafts_intensity?$AA@ DB 'sun_shafts_intensity', 00H ; `string'
CONST	ENDS
;	COMDAT ??_C@_07LIABELBC@ambient?$AA@
CONST	SEGMENT
??_C@_07LIABELBC@ambient?$AA@ DB 'ambient', 00H		; `string'
CONST	ENDS
;	COMDAT ??_C@_0BF@KDPICAFM@thunderbolt_duration?$AA@
CONST	SEGMENT
??_C@_0BF@KDPICAFM@thunderbolt_duration?$AA@ DB 'thunderbolt_duration', 00H ; `string'
CONST	ENDS
;	COMDAT ??_C@_0BD@JCGMNLO@thunderbolt_period?$AA@
CONST	SEGMENT
??_C@_0BD@JCGMNLO@thunderbolt_period?$AA@ DB 'thunderbolt_period', 00H ; `string'
CONST	ENDS
;	COMDAT ??_C@_0BH@JJPAPJPK@thunderbolt_collection?$AA@
CONST	SEGMENT
??_C@_0BH@JJPAPJPK@thunderbolt_collection?$AA@ DB 'thunderbolt_collection'
	DB	00H						; `string'
CONST	ENDS
;	COMDAT ??_C@_03OHFMDAD@sun?$AA@
CONST	SEGMENT
??_C@_03OHFMDAD@sun?$AA@ DB 'sun', 00H			; `string'
CONST	ENDS
;	COMDAT ??_C@_0BA@MPNGEPPI@_valid?$CIsun_dir?$CJ?$AA@
CONST	SEGMENT
??_C@_0BA@MPNGEPPI@_valid?$CIsun_dir?$CJ?$AA@ DB '_valid(sun_dir)', 00H ; `string'
CONST	ENDS
;	COMDAT ??_C@_0N@PNIGFPCO@sun_altitude?$AA@
CONST	SEGMENT
??_C@_0N@PNIGFPCO@sun_altitude?$AA@ DB 'sun_altitude', 00H ; `string'
CONST	ENDS
;	COMDAT ??_C@_0O@NONJJHIB@sun_longitude?$AA@
CONST	SEGMENT
??_C@_0O@NONJJHIB@sun_longitude?$AA@ DB 'sun_longitude', 00H ; `string'
CONST	ENDS
;	COMDAT ??_C@_0BB@KLFILGFK@hemisphere_color?$AA@
CONST	SEGMENT
??_C@_0BB@KLFILGFK@hemisphere_color?$AA@ DB 'hemisphere_color', 00H ; `string'
CONST	ENDS
;	COMDAT ??_C@_0O@HNCBNJOB@ambient_color?$AA@
CONST	SEGMENT
??_C@_0O@HNCBNJOB@ambient_color?$AA@ DB 'ambient_color', 00H ; `string'
CONST	ENDS
;	COMDAT ??_C@_0P@MACDNOKA@wind_direction?$AA@
CONST	SEGMENT
??_C@_0P@MACDNOKA@wind_direction?$AA@ DB 'wind_direction', 00H ; `string'
CONST	ENDS
;	COMDAT ??_C@_0O@NKEOPANL@wind_velocity?$AA@
CONST	SEGMENT
??_C@_0O@NKEOPANL@wind_velocity?$AA@ DB 'wind_velocity', 00H ; `string'
CONST	ENDS
;	COMDAT ??_C@_0L@FGFPJEPN@rain_color?$AA@
CONST	SEGMENT
??_C@_0L@FGFPJEPN@rain_color?$AA@ DB 'rain_color', 00H	; `string'
CONST	ENDS
;	COMDAT ??_C@_0N@DKAAMBIA@rain_density?$AA@
CONST	SEGMENT
??_C@_0N@DKAAMBIA@rain_density?$AA@ DB 'rain_density', 00H ; `string'
CONST	ENDS
;	COMDAT ??_C@_0N@JLADMLPG@fog_distance?$AA@
CONST	SEGMENT
??_C@_0N@JLADMLPG@fog_distance?$AA@ DB 'fog_distance', 00H ; `string'
CONST	ENDS
;	COMDAT ??_C@_0M@PEDBIAKE@fog_density?$AA@
CONST	SEGMENT
??_C@_0M@PEDBIAKE@fog_density?$AA@ DB 'fog_density', 00H ; `string'
CONST	ENDS
;	COMDAT ??_C@_09DOMFAHMJ@far_plane?$AA@
CONST	SEGMENT
??_C@_09DOMFAHMJ@far_plane?$AA@ DB 'far_plane', 00H	; `string'
CONST	ENDS
;	COMDAT ??_C@_0N@JNJNJFLD@sky_rotation?$AA@
CONST	SEGMENT
??_C@_0N@JNJNJFLD@sky_rotation?$AA@ DB 'sky_rotation', 00H ; `string'
CONST	ENDS
;	COMDAT ??_C@_0P@NDAOCKKN@?$CFf?0?$CFf?0?$CFf?0?$CFf?0?$CFf?$AA@
CONST	SEGMENT
??_C@_0P@NDAOCKKN@?$CFf?0?$CFf?0?$CFf?0?$CFf?0?$CFf?$AA@ DB '%f,%f,%f,%f,'
	DB	'%f', 00H					; `string'
CONST	ENDS
;	COMDAT ??_C@_0N@PBBLJPHJ@clouds_color?$AA@
CONST	SEGMENT
??_C@_0N@PBBLJPHJ@clouds_color?$AA@ DB 'clouds_color', 00H ; `string'
CONST	ENDS
;	COMDAT ??_C@_0P@BBBMCHHG@clouds_texture?$AA@
CONST	SEGMENT
??_C@_0P@BBBMCHHG@clouds_texture?$AA@ DB 'clouds_texture', 00H ; `string'
CONST	ENDS
;	COMDAT ??_C@_06HLMNEJJK@?$CDsmall?$AA@
CONST	SEGMENT
??_C@_06HLMNEJJK@?$CDsmall?$AA@ DB '#small', 00H	; `string'
CONST	ENDS
;	COMDAT ??_C@_0M@KBFBNOE@sky_texture?$AA@
CONST	SEGMENT
??_C@_0M@KBFBNOE@sky_texture?$AA@ DB 'sky_texture', 00H	; `string'
CONST	ENDS
;	COMDAT ??_C@_0EB@NFPMNHOA@?$CItm?4x?$DO?$DN0?$CJ?$CG?$CG?$CItm?4x?$DM24?$CJ?$CG?$CG?$CItm?4y?$DO?$DN0?$CJ?$CG@
CONST	SEGMENT
??_C@_0EB@NFPMNHOA@?$CItm?4x?$DO?$DN0?$CJ?$CG?$CG?$CItm?4x?$DM24?$CJ?$CG?$CG?$CItm?4y?$DO?$DN0?$CJ?$CG@ DB '('
	DB	'tm.x>=0)&&(tm.x<24)&&(tm.y>=0)&&(tm.y<60)&&(tm.z>=0)&&(tm.z<6'
	DB	'0)', 00H					; `string'
CONST	ENDS
;	COMDAT ??_C@_0BH@MPEMKMHJ@Incorrect?5weather?5time?$AA@
CONST	SEGMENT
??_C@_0BH@MPEMKMHJ@Incorrect?5weather?5time?$AA@ DB 'Incorrect weather ti'
	DB	'me', 00H					; `string'
CONST	ENDS
;	COMDAT ??_C@_0BF@EANFLFCA@CEnvDescriptor?3?3load?$AA@
CONST	SEGMENT
??_C@_0BF@EANFLFCA@CEnvDescriptor?3?3load?$AA@ DB 'CEnvDescriptor::load', 00H ; `string'
CONST	ENDS
;	COMDAT ??_C@_08BCHAAPIF@?$CFd?3?$CFd?3?$CFd?$AA@
CONST	SEGMENT
??_C@_08BCHAAPIF@?$CFd?3?$CFd?3?$CFd?$AA@ DB '%d:%d:%d', 00H ; `string'
CONST	ENDS
;	COMDAT ??_C@_0DA@LDDMEOP@?$CBm_sound_channels?4empty?$CI?$CJ?5?$HM?$HM?5?$CBm_@
CONST	SEGMENT
??_C@_0DA@LDDMEOP@?$CBm_sound_channels?4empty?$CI?$CJ?5?$HM?$HM?5?$CBm_@ DB '!'
	DB	'm_sound_channels.empty() || !m_effects.empty()', 00H ; `string'
CONST	ENDS
;	COMDAT ??_C@_0BC@HDHPDBCF@CEnvAmbient?3?3load?$AA@
CONST	SEGMENT
??_C@_0BC@HDHPDBCF@CEnvAmbient?3?3load?$AA@ DB 'CEnvAmbient::load', 00H ; `string'
CONST	ENDS
;	COMDAT ??_C@_07BLLGFBLI@effects?$AA@
CONST	SEGMENT
??_C@_07BLLGFBLI@effects?$AA@ DB 'effects', 00H		; `string'
CONST	ENDS
;	COMDAT ??_C@_0BC@DFGPAEJG@min_effect_period?$AA@
CONST	SEGMENT
??_C@_0BC@DFGPAEJG@min_effect_period?$AA@ DB 'min_effect_period', 00H ; `string'
CONST	ENDS
;	COMDAT ??_C@_0BC@GGMJBMHC@max_effect_period?$AA@
CONST	SEGMENT
??_C@_0BC@GGMJBMHC@max_effect_period?$AA@ DB 'max_effect_period', 00H ; `string'
CONST	ENDS
;	COMDAT ??_C@_0P@DNBEMGJE@sound_channels?$AA@
CONST	SEGMENT
??_C@_0P@DNBEMGJE@sound_channels?$AA@ DB 'sound_channels', 00H ; `string'
CONST	ENDS
;	COMDAT ??_C@_0BE@IJHCHLOP@wind_blast_out_time?$AA@
CONST	SEGMENT
??_C@_0BE@IJHCHLOP@wind_blast_out_time?$AA@ DB 'wind_blast_out_time', 00H ; `string'
CONST	ENDS
;	COMDAT ??_C@_0BD@IJOHBNIL@wind_blast_in_time?$AA@
CONST	SEGMENT
??_C@_0BD@IJOHBNIL@wind_blast_in_time?$AA@ DB 'wind_blast_in_time', 00H ; `string'
CONST	ENDS
;	COMDAT ??_C@_0BF@DPMPPAHL@wind_blast_longitude?$AA@
CONST	SEGMENT
??_C@_0BF@DPMPPAHL@wind_blast_longitude?$AA@ DB 'wind_blast_longitude', 00H ; `string'
CONST	ENDS
;	COMDAT ??_C@_0BE@KFMLMFEH@wind_blast_strength?$AA@
CONST	SEGMENT
??_C@_0BE@KFMLMFEH@wind_blast_strength?$AA@ DB 'wind_blast_strength', 00H ; `string'
CONST	ENDS
;	COMDAT ??_C@_05MHNANJII@sound?$AA@
CONST	SEGMENT
??_C@_05MHNANJII@sound?$AA@ DB 'sound', 00H		; `string'
CONST	ENDS
;	COMDAT ??_C@_0BB@CCMBLOMC@wind_gust_factor?$AA@
CONST	SEGMENT
??_C@_0BB@CCMBLOMC@wind_gust_factor?$AA@ DB 'wind_gust_factor', 00H ; `string'
CONST	ENDS
;	COMDAT ??_C@_06KLHHMIGM@offset?$AA@
CONST	SEGMENT
??_C@_06KLHHMIGM@offset?$AA@ DB 'offset', 00H		; `string'
CONST	ENDS
;	COMDAT ??_C@_09JNOBNNGJ@particles?$AA@
CONST	SEGMENT
??_C@_09JNOBNNGJ@particles?$AA@ DB 'particles', 00H	; `string'
CONST	ENDS
;	COMDAT ??_C@_09HEFANMD@life_time?$AA@
CONST	SEGMENT
??_C@_09HEFANMD@life_time?$AA@ DB 'life_time', 00H	; `string'
CONST	ENDS
;	COMDAT ??_C@_03PODCCCNG@cnt?$AA@
CONST	SEGMENT
??_C@_03PODCCCNG@cnt?$AA@ DB 'cnt', 00H			; `string'
CONST	ENDS
;	COMDAT ??_C@_0N@POGEGAMB@sounds?5empty?$AA@
CONST	SEGMENT
??_C@_0N@POGEGAMB@sounds?5empty?$AA@ DB 'sounds empty', 00H ; `string'
CONST	ENDS
;	COMDAT ??_C@_06OHLGPBPO@sounds?$AA@
CONST	SEGMENT
??_C@_06OHLGPBPO@sounds?$AA@ DB 'sounds', 00H		; `string'
CONST	ENDS
;	COMDAT ??_C@_0CA@NAJJMFOP@m_sound_dist?4y?5?$DO?5m_sound_dist?4x?$AA@
CONST	SEGMENT
??_C@_0CA@NAJJMFOP@m_sound_dist?4y?5?$DO?5m_sound_dist?4x?$AA@ DB 'm_soun'
	DB	'd_dist.y > m_sound_dist.x', 00H		; `string'
CONST	ENDS
;	COMDAT ??_C@_0EN@KLGKENFP@m_sound_period?4x?5?$DM?$DN?5m_sound_peri@
CONST	SEGMENT
??_C@_0EN@KLGKENFP@m_sound_period?4x?5?$DM?$DN?5m_sound_peri@ DB 'm_sound'
	DB	'_period.x <= m_sound_period.y && m_sound_period.z <= m_sound_'
	DB	'period.w', 00H				; `string'
CONST	ENDS
;	COMDAT ??_C@_0DJ@LMFGIIMF@D?3?2CLEARSKY?2sources?2engine?2xrEng@
CONST	SEGMENT
??_C@_0DJ@LMFGIIMF@D?3?2CLEARSKY?2sources?2engine?2xrEng@ DB 'D:\CLEARSKY'
	DB	'\sources\engine\xrEngine\Environment_misc.cpp', 00H ; `string'
CONST	ENDS
;	COMDAT ??_C@_0BP@KOPBFBGJ@CEnvAmbient?3?3SSndChannel?3?3load?$AA@
CONST	SEGMENT
??_C@_0BP@KOPBFBGJ@CEnvAmbient?3?3SSndChannel?3?3load?$AA@ DB 'CEnvAmbien'
	DB	't::SSndChannel::load', 00H			; `string'
CONST	ENDS
;	COMDAT ??_C@_07OFDLIKCL@period3?$AA@
CONST	SEGMENT
??_C@_07OFDLIKCL@period3?$AA@ DB 'period3', 00H		; `string'
CONST	ENDS
;	COMDAT ??_C@_07PMCALLGK@period2?$AA@
CONST	SEGMENT
??_C@_07PMCALLGK@period2?$AA@ DB 'period2', 00H		; `string'
CONST	ENDS
;	COMDAT ??_C@_07NHANOIKJ@period1?$AA@
CONST	SEGMENT
??_C@_07NHANOIKJ@period1?$AA@ DB 'period1', 00H		; `string'
CONST	ENDS
;	COMDAT ??_C@_07MOBGNJOI@period0?$AA@
CONST	SEGMENT
??_C@_07MOBGNJOI@period0?$AA@ DB 'period0', 00H		; `string'
CONST	ENDS
;	COMDAT ??_C@_0N@KIPFJHEG@max_distance?$AA@
CONST	SEGMENT
??_C@_0N@KIPFJHEG@max_distance?$AA@ DB 'max_distance', 00H ; `string'
CONST	ENDS
;	COMDAT ??_C@_0N@OILKOPDA@min_distance?$AA@
CONST	SEGMENT
??_C@_0N@OILKOPDA@min_distance?$AA@ DB 'min_distance', 00H ; `string'
_MACRO_ADD DB	0ecH
	DB	0afH
	DB	0caH
	DB	036H
	DB	0b7H
	DB	0dH
	DB	059H
	DB	0c1H
	DB	0faH
	DB	0a7H
	DB	071H
	DB	0b1H
	DB	023H
	DB	0c5H
	DB	08eH
	DB	065H
	DB	0d1H
	DB	036H
	DB	03H
	DB	012H
	DB	07aH
	DB	02cH
	DB	031H
	DB	03aH
	DB	03eH
	DB	014H
	DB	05dH
	DB	0d2H
	DB	0cH
	DB	051H
	DB	066H
	DB	0c7H
	DB	0e1H
	DB	060H
	DB	098H
	DB	06aH
	DB	016H
	DB	09dH
	DB	0a8H
	DB	080H
	DB	0e4H
	DB	07aH
	DB	094H
	DB	0b2H
	DB	0a2H
	DB	0f5H
	DB	06eH
	DB	027H
	DB	0f5H
	DB	0aH
	DB	03fH
	DB	0c5H
	DB	0ffH
	DB	020H
	DB	04cH
	DB	0b8H
	DB	0c5H
	DB	072H
	DB	071H
	DB	09aH
	DB	0a9H
	DB	0a0H
	DB	0ddH
	DB	04fH
	DB	068H
	DB	053H
	DB	0b1H
	DB	0faH
	DB	026H
	DB	014H
	DB	085H
	DB	094H
	DB	021H
	DB	014H
	DB	080H
	DB	05cH
	DB	070H
	DB	0baH
	DB	0c5H
	DB	0f6H
	DB	058H
	DB	0dbH
	DB	0aeH
	DB	0e5H
	DB	08dH
	DB	0cdH
	DB	0dcH
	DB	06aH
	DB	09cH
	DB	011H
	DB	0fcH
	DB	06dH
	DB	033H
	DB	017H
	DB	0fbH
	DB	0f2H
	DB	030H
	DB	0f2H
	DB	0e0H
	DB	0d3H
	DB	0e3H
	DB	092H
	DB	0acH
	DB	046H
	DB	0c7H
	DB	086H
	DB	09bH
	DB	06eH
	DB	074H
	DB	05dH
	DB	0b1H
	DB	05H
	DB	0b9H
	DB	0faH
	DB	075H
	DB	09fH
	DB	084H
	DB	057H
	DB	02aH
	DB	040H
	DB	072H
	DB	0e7H
	DB	0c9H
	DB	0cbH
_MACRO_SUB DB	0ecH
	DB	0afH
	DB	0caH
	DB	036H
	DB	0b7H
	DB	0dH
	DB	059H
	DB	0c1H
	DB	0faH
	DB	0a7H
	DB	071H
	DB	0b1H
	DB	023H
	DB	0c5H
	DB	08eH
	DB	065H
	DB	0d1H
	DB	036H
	DB	03H
	DB	012H
	DB	07aH
	DB	02cH
	DB	031H
	DB	03aH
	DB	03eH
	DB	014H
	DB	05dH
	DB	0d2H
	DB	0cH
	DB	051H
	DB	066H
	DB	0c7H
	DB	0e1H
	DB	060H
	DB	098H
	DB	06aH
	DB	016H
	DB	09dH
	DB	0a8H
	DB	080H
	DB	0e4H
	DB	07aH
	DB	094H
	DB	0b2H
	DB	0a2H
	DB	0f5H
	DB	06eH
	DB	027H
	DB	0f5H
	DB	0aH
	DB	03fH
	DB	0c5H
	DB	0ffH
	DB	020H
	DB	04cH
	DB	0b8H
	DB	0c5H
	DB	072H
	DB	071H
	DB	09aH
	DB	0a9H
	DB	0a0H
	DB	0ddH
	DB	04fH
	DB	068H
	DB	053H
	DB	0b1H
	DB	0faH
	DB	026H
	DB	014H
	DB	085H
	DB	094H
	DB	021H
	DB	014H
	DB	080H
	DB	05cH
	DB	070H
	DB	0baH
	DB	0c5H
	DB	0f6H
	DB	058H
	DB	0dbH
	DB	0aeH
	DB	0e5H
	DB	08dH
	DB	0cdH
	DB	0dcH
	DB	06aH
	DB	09cH
	DB	011H
	DB	0fcH
	DB	06dH
	DB	033H
	DB	017H
	DB	0fbH
	DB	0f2H
	DB	022H
	DB	0ecH
	DB	0b5H
	DB	0fdH
	DB	075H
	DB	0caH
	DB	02bH
	DB	055H
	DB	0ccH
	DB	02bH
	DB	0beH
	DB	0fcH
	DB	0c6H
	DB	073H
	DB	03cH
	DB	0efH
	DB	0fdH
	DB	0d7H
	DB	08bH
	DB	086H
	DB	069H
	DB	04aH
	DB	06aH
	DB	080H
	DB	0f0H
	DB	06eH
	DB	0a7H
	DB	09H
_MACRO_IF_EQL DB 0ecH
	DB	0afH
	DB	0aaH
	DB	093H
	DB	02dH
	DB	04H
	DB	0a3H
	DB	08fH
	DB	08aH
	DB	010H
	DB	067H
	DB	091H
	DB	0c9H
	DB	0e1H
	DB	0daH
	DB	02cH
	DB	031H
	DB	01dH
	DB	082H
	DB	0e2H
	DB	07H
	DB	0f9H
	DB	0e8H
	DB	024H
	DB	075H
	DB	0e9H
	DB	09dH
	DB	054H
	DB	070H
	DB	036H
	DB	04fH
	DB	0ffH
	DB	0ddH
	DB	04aH
	DB	082H
	DB	014H
	DB	088H
	DB	048H
	DB	074H
	DB	051H
	DB	03fH
	DB	0baH
	DB	051H
	DB	098H
	DB	0e9H
	DB	01dH
	DB	027H
	DB	0b1H
	DB	07bH
	DB	097H
	DB	027H
	DB	046H
	DB	09aH
	DB	046H
	DB	064H
	DB	0d4H
	DB	0efH
	DB	092H
	DB	0f0H
	DB	05H
	DB	05eH
	DB	079H
	DB	0edH
	DB	08dH
	DB	034H
	DB	052H
	DB	08aH
	DB	090H
	DB	0e9H
	DB	0baH
	DB	03cH
	DB	0beH
	DB	08bH
	DB	0e5H
	DB	0caH
	DB	028H
	DB	0b0H
	DB	092H
	DB	0deH
	DB	04cH
	DB	0d8H
	DB	031H
	DB	0ceH
	DB	0ceH
	DB	08eH
	DB	022H
	DB	078H
	DB	0f8H
	DB	07cH
	DB	0ceH
	DB	0f6H
	DB	04eH
	DB	084H
	DB	0d0H
	DB	0eeH
	DB	0b5H
	DB	0bH
	DB	08eH
	DB	053H
	DB	0d5H
	DB	0ceH
	DB	07cH
	DB	04fH
	DB	02fH
	DB	0faH
	DB	0f6H
	DB	0bfH
	DB	0c8H
	DB	070H
	DB	05aH
	DB	0eH
	DB	00H
	DB	0dbH
	DB	093H
	DB	044H
	DB	083H
	DB	0f4H
	DB	0fcH
	DB	0ebH
	DB	02fH
	DB	031H
	DB	01dH
	DB	02H
	DB	023H
	DB	09eH
	DB	08aH
	DB	0b5H
	DB	013H
	DB	068H
	DB	048H
	DB	03dH
	DB	076H
	DB	01H
	DB	0feH
	DB	040H
	DB	078H
	DB	02cH
	DB	0b7H
	DB	09H
	DB	039H
	DB	0cfH
	DB	0a4H
	DB	058H
	DB	087H
	DB	072H
	DB	0f8H
	DB	0a0H
	DB	0bcH
	DB	0e9H
	DB	0a3H
	DB	0d0H
	DB	0c0H
	DB	078H
	DB	080H
	DB	0faH
	DB	0dcH
	DB	05H
	DB	09aH
	DB	0cH
	DB	040H
	DB	09cH
	DB	0b6H
	DB	062H
	DB	0d4H
	DB	06eH
	DB	0a0H
	DB	018H
	DB	09aH
	DB	0eeH
	DB	085H
	DB	04aH
	DB	0b0H
	DB	063H
	DB	0d3H
	DB	02aH
	DB	084H
	DB	0caH
	DB	03cH
	DB	055H
	DB	0a9H
	DB	0d2H
	DB	018H
	DB	0aeH
	DB	04dH
	DB	040H
	DB	080H
	DB	0e5H
	DB	07aH
	DB	095H
	DB	033H
	DB	090H
	DB	0f2H
	DB	0f6H
	DB	06H
	DB	0d9H
	DB	065H
	DB	04dH
	DB	02bH
	DB	095H
	DB	029H
	DB	02H
	DB	0b9H
	DB	0f9H
	DB	0a6H
	DB	05H
	DB	056H
	DB	013H
	DB	02bH
	DB	09fH
	DB	069H
	DB	0faH
	DB	0f1H
	DB	0bbH
	DB	028H
	DB	0a6H
	DB	071H
	DB	040H
	DB	011H
	DB	0d7H
	DB	086H
	DB	04H
	DB	0eeH
	DB	0b6H
	DB	0eeH
	DB	0baH
	DB	0c6H
	DB	045H
	DB	07H
	DB	075H
	DB	0ecH
	DB	0c5H
	DB	0d0H
	DB	07dH
	DB	08cH
	DB	0c5H
	DB	051H
	DB	063H
	DB	0b4H
	DB	0eaH
	DB	051H
	DB	063H
	DB	0b4H
	DB	0eaH
	DB	0d6H
	DB	061H
	DB	0b1H
	DB	0e1H
	DB	0bfH
	DB	0d4H
	DB	05eH
	DB	0adH
	DB	07dH
	DB	0d5H
	DB	03H
	DB	053H
	DB	050H
	DB	09cH
	DB	068H
	DB	01bH
	DB	0a5H
	DB	0b4H
	DB	0f8H
	DB	066H
	DB	01eH
	DB	0c6H
	DB	076H
	DB	019H
	DB	0a9H
	DB	02fH
	DB	054H
	DB	0e6H
	DB	0c1H
	DB	041H
	DB	047H
	DB	0f1H
	DB	01aH
	DB	037H
	DB	047H
	DB	078H
	DB	0c5H
	DB	040H
	DB	07aH
	DB	028H
	DB	0a6H
	DB	0f1H
	DB	044H
	DB	014H
	DB	08eH
	DB	088H
	DB	015H
	DB	0aeH
	DB	0f0H
	DB	091H
	DB	0fH
	DB	06aH
	DB	0e3H
	DB	09dH
	DB	09bH
	DB	071H
	DB	099H
	DB	02H
	DB	034H
	DB	0e8H
	DB	05fH
	DB	02H
	DB	0b5H
	DB	06fH
	DB	045H
	DB	02aH
	DB	05aH
	DB	0efH
	DB	04bH
	DB	0d2H
	DB	07aH
	DB	0efH
	DB	04bH
	DB	053H
	DB	058H
	DB	073H
	DB	0a4H
	DB	01aH
	DB	01bH
	DB	015H
	DB	0e8H
	DB	04H
	DB	0c2H
	DB	0c3H
	DB	065H
	DB	0a5H
	DB	0bH
	DB	016H
	DB	0ccH
	DB	026H
	DB	0f0H
	DB	026H
	DB	0dbH
	DB	0caH
	DB	04aH
	DB	037H
	DB	03H
	DB	079H
	DB	064H
	DB	0dH
	DB	02aH
	DB	0baH
	DB	057H
	DB	061H
	DB	0bdH
	DB	0fcH
	DB	0e7H
	DB	0dH
	DB	0cdH
	DB	072H
	DB	0f9H
	DB	0deH
	DB	0abH
	DB	087H
	DB	054H
	DB	08fH
	DB	0eH
	DB	026H
	DB	0d5H
	DB	08aH
	DB	078H
	DB	015H
	DB	06cH
	DB	04bH
	DB	0dbH
	DB	015H
	DB	06cH
	DB	04bH
	DB	0dbH
	DB	015H
	DB	06cH
	DB	04bH
	DB	0dbH
	DB	095H
	DB	012H
	DB	0f0H
	DB	0f9H
	DB	01dH
	DB	010H
	DB	09fH
	DB	0c3H
	DB	0a8H
	DB	084H
	DB	0b0H
	DB	047H
	DB	058H
	DB	067H
	DB	094H
	DB	058H
	DB	06dH
	DB	08aH
	DB	0feH
	DB	064H
	DB	0daH
	DB	071H
	DB	0cfH
	DB	02dH
	DB	0daH
	DB	0d3H
	DB	06dH
	DB	083H
	DB	0e2H
	DB	07H
	DB	01fH
	DB	047H
	DB	0b7H
	DB	01bH
	DB	0afH
	DB	088H
	DB	021H
	DB	0deH
	DB	08cH
	DB	098H
	DB	052H
	DB	0a8H
	DB	070H
	DB	032H
	DB	092H
	DB	080H
	DB	01bH
	DB	00H
	DB	0fdH
	DB	049H
	DB	032H
	DB	0f0H
	DB	01eH
	DB	0b8H
	DB	0dbH
	DB	065H
	DB	033H
	DB	093H
	DB	093H
	DB	08eH
	DB	0a0H
	DB	097H
	DB	0efH
	DB	0a7H
	DB	0e3H
	DB	0d2H
	DB	084H
	DB	049H
	DB	02cH
	DB	0e0H
	DB	0d9H
	DB	0c0H
	DB	059H
	DB	0f8H
	DB	0cdH
	DB	062H
	DB	083H
	DB	0efH
	DB	07bH
	DB	055H
	DB	05dH
	DB	06bH
	DB	07fH
_M_PI	DD	040490fdbr			; 3.14159
; Function compile flags: /Ogtpy
; File d:\clearsky\sources\engine\xrcore\xr_resource.h
;	COMDAT ??0?$resptr_core@Vref_sound_data@@V?$resptr_base@Vref_sound_data@@@@@@QAE@XZ
_TEXT	SEGMENT
??0?$resptr_core@Vref_sound_data@@V?$resptr_base@Vref_sound_data@@@@@@QAE@XZ PROC ; resptr_core<ref_sound_data,resptr_base<ref_sound_data> >::resptr_core<ref_sound_data,resptr_base<ref_sound_data> >, COMDAT
; _this$ = eax

; 61   : 						resptr_core		()												{	p_ = 0;						}

	mov	DWORD PTR [eax], 0
	ret	0
??0?$resptr_core@Vref_sound_data@@V?$resptr_base@Vref_sound_data@@@@@@QAE@XZ ENDP ; resptr_core<ref_sound_data,resptr_base<ref_sound_data> >::resptr_core<ref_sound_data,resptr_base<ref_sound_data> >
; Function compile flags: /Ogtpy
; File d:\clearsky\sources\engine\xrsound\sound.h
_TEXT	ENDS
;	COMDAT ?create@ref_sound@@QAEXPBDW4esound_type@@H@Z
_TEXT	SEGMENT
_this$ = 8						; size = 4
_name$ = 12						; size = 4
_game_type$ = 16					; size = 4
?create@ref_sound@@QAEXPBDW4esound_type@@H@Z PROC	; ref_sound::create, COMDAT

; 300  : IC void	ref_sound::create						( LPCSTR name, esound_type sound_type, int	game_type)	{	VERIFY(!::Sound->i_locked()); 	::Sound->create		(*this,name,sound_type,game_type);							}

	mov	eax, DWORD PTR __imp_?Sound@@3PAVCSound_manager_interface@@A
	mov	ecx, DWORD PTR [eax]
	mov	eax, DWORD PTR _game_type$[esp-4]
	mov	edx, DWORD PTR [ecx]
	mov	edx, DWORD PTR [edx+28]
	push	eax
	mov	eax, DWORD PTR _name$[esp]
	push	0
	push	eax
	mov	eax, DWORD PTR _this$[esp+8]
	push	eax
	call	edx
	ret	12					; 0000000cH
?create@ref_sound@@QAEXPBDW4esound_type@@H@Z ENDP	; ref_sound::create
; Function compile flags: /Ogtpy
; File d:\clearsky\sources\sdk\include\stlport\stl\_tree.h
_TEXT	ENDS
;	COMDAT ??0_Rb_tree_base_iterator@priv@stlp_std@@QAE@XZ
_TEXT	SEGMENT
??0_Rb_tree_base_iterator@priv@stlp_std@@QAE@XZ PROC	; stlp_std::priv::_Rb_tree_base_iterator::_Rb_tree_base_iterator, COMDAT
; _this$ = eax

; 141  :   _Rb_tree_base_iterator() : _M_node(0) {}

	mov	DWORD PTR [eax], 0
	ret	0
??0_Rb_tree_base_iterator@priv@stlp_std@@QAE@XZ ENDP	; stlp_std::priv::_Rb_tree_base_iterator::_Rb_tree_base_iterator
; Function compile flags: /Ogtpy
; File d:\clearsky\sources\engine\xrserverentities\object_destroyer.h
_TEXT	ENDS
;	COMDAT ??$delete_data@$0A@@?$CHelper1@USSndChannel@CEnvAmbient@@@CDestroyer@@SAXAAUSSndChannel@CEnvAmbient@@@Z
_TEXT	SEGMENT
??$delete_data@$0A@@?$CHelper1@USSndChannel@CEnvAmbient@@@CDestroyer@@SAXAAUSSndChannel@CEnvAmbient@@@Z PROC ; CDestroyer::CHelper1<CEnvAmbient::SSndChannel>::delete_data<0>, COMDAT

; 87   : 		{
; 88   : 		}

	ret	0
??$delete_data@$0A@@?$CHelper1@USSndChannel@CEnvAmbient@@@CDestroyer@@SAXAAUSSndChannel@CEnvAmbient@@@Z ENDP ; CDestroyer::CHelper1<CEnvAmbient::SSndChannel>::delete_data<0>
; Function compile flags: /Ogtpy
_TEXT	ENDS
;	COMDAT ??$delete_data@$0A@@?$CHelper1@USEffect@CEnvAmbient@@@CDestroyer@@SAXAAUSEffect@CEnvAmbient@@@Z
_TEXT	SEGMENT
??$delete_data@$0A@@?$CHelper1@USEffect@CEnvAmbient@@@CDestroyer@@SAXAAUSEffect@CEnvAmbient@@@Z PROC ; CDestroyer::CHelper1<CEnvAmbient::SEffect>::delete_data<0>, COMDAT

; 87   : 		{
; 88   : 		}

	ret	0
??$delete_data@$0A@@?$CHelper1@USEffect@CEnvAmbient@@@CDestroyer@@SAXAAUSEffect@CEnvAmbient@@@Z ENDP ; CDestroyer::CHelper1<CEnvAmbient::SEffect>::delete_data<0>
; Function compile flags: /Ogtpy
_TEXT	ENDS
;	COMDAT ??$delete_data@$0A@@?$CHelper2@USSndChannel@CEnvAmbient@@@CDestroyer@@SAXAAUSSndChannel@CEnvAmbient@@@Z
_TEXT	SEGMENT
??$delete_data@$0A@@?$CHelper2@USSndChannel@CEnvAmbient@@@CDestroyer@@SAXAAUSSndChannel@CEnvAmbient@@@Z PROC ; CDestroyer::CHelper2<CEnvAmbient::SSndChannel>::delete_data<0>, COMDAT

; 101  : 		{
; 102  : 			CHelper1<T>::delete_data<object_type_traits::is_base_and_derived<IPureDestroyableObject,T>::value>(data);
; 103  : 		}

	ret	0
??$delete_data@$0A@@?$CHelper2@USSndChannel@CEnvAmbient@@@CDestroyer@@SAXAAUSSndChannel@CEnvAmbient@@@Z ENDP ; CDestroyer::CHelper2<CEnvAmbient::SSndChannel>::delete_data<0>
; Function compile flags: /Ogtpy
_TEXT	ENDS
;	COMDAT ??$delete_data@$0A@@?$CHelper2@USEffect@CEnvAmbient@@@CDestroyer@@SAXAAUSEffect@CEnvAmbient@@@Z
_TEXT	SEGMENT
??$delete_data@$0A@@?$CHelper2@USEffect@CEnvAmbient@@@CDestroyer@@SAXAAUSEffect@CEnvAmbient@@@Z PROC ; CDestroyer::CHelper2<CEnvAmbient::SEffect>::delete_data<0>, COMDAT

; 101  : 		{
; 102  : 			CHelper1<T>::delete_data<object_type_traits::is_base_and_derived<IPureDestroyableObject,T>::value>(data);
; 103  : 		}

	ret	0
??$delete_data@$0A@@?$CHelper2@USEffect@CEnvAmbient@@@CDestroyer@@SAXAAUSEffect@CEnvAmbient@@@Z ENDP ; CDestroyer::CHelper2<CEnvAmbient::SEffect>::delete_data<0>
; Function compile flags: /Ogtpy
_TEXT	ENDS
;	COMDAT ??$delete_data@$0A@@?$CHelper4@USSndChannel@CEnvAmbient@@@CDestroyer@@SAXAAUSSndChannel@CEnvAmbient@@@Z
_TEXT	SEGMENT
??$delete_data@$0A@@?$CHelper4@USSndChannel@CEnvAmbient@@@CDestroyer@@SAXAAUSSndChannel@CEnvAmbient@@@Z PROC ; CDestroyer::CHelper4<CEnvAmbient::SSndChannel>::delete_data<0>, COMDAT

; 130  : 		{
; 131  : 			CHelper2<T>::delete_data<object_type_traits::is_pointer<T>::value>	(data);
; 132  : 		}

	ret	0
??$delete_data@$0A@@?$CHelper4@USSndChannel@CEnvAmbient@@@CDestroyer@@SAXAAUSSndChannel@CEnvAmbient@@@Z ENDP ; CDestroyer::CHelper4<CEnvAmbient::SSndChannel>::delete_data<0>
; Function compile flags: /Ogtpy
_TEXT	ENDS
;	COMDAT ??$delete_data@$0A@@?$CHelper4@USEffect@CEnvAmbient@@@CDestroyer@@SAXAAUSEffect@CEnvAmbient@@@Z
_TEXT	SEGMENT
??$delete_data@$0A@@?$CHelper4@USEffect@CEnvAmbient@@@CDestroyer@@SAXAAUSEffect@CEnvAmbient@@@Z PROC ; CDestroyer::CHelper4<CEnvAmbient::SEffect>::delete_data<0>, COMDAT

; 130  : 		{
; 131  : 			CHelper2<T>::delete_data<object_type_traits::is_pointer<T>::value>	(data);
; 132  : 		}

	ret	0
??$delete_data@$0A@@?$CHelper4@USEffect@CEnvAmbient@@@CDestroyer@@SAXAAUSEffect@CEnvAmbient@@@Z ENDP ; CDestroyer::CHelper4<CEnvAmbient::SEffect>::delete_data<0>
; Function compile flags: /Ogtpy
_TEXT	ENDS
;	COMDAT ??$delete_data@USSndChannel@CEnvAmbient@@@CDestroyer@@SAXAAUSSndChannel@CEnvAmbient@@@Z
_TEXT	SEGMENT
??$delete_data@USSndChannel@CEnvAmbient@@@CDestroyer@@SAXAAUSSndChannel@CEnvAmbient@@@Z PROC ; CDestroyer::delete_data<CEnvAmbient::SSndChannel>, COMDAT

; 144  : 		CHelper4<T>::delete_data<object_type_traits::is_stl_container<T>::value>(data);
; 145  : 	}

	ret	0
??$delete_data@USSndChannel@CEnvAmbient@@@CDestroyer@@SAXAAUSSndChannel@CEnvAmbient@@@Z ENDP ; CDestroyer::delete_data<CEnvAmbient::SSndChannel>
; Function compile flags: /Ogtpy
_TEXT	ENDS
;	COMDAT ??$delete_data@USEffect@CEnvAmbient@@@CDestroyer@@SAXAAUSEffect@CEnvAmbient@@@Z
_TEXT	SEGMENT
??$delete_data@USEffect@CEnvAmbient@@@CDestroyer@@SAXAAUSEffect@CEnvAmbient@@@Z PROC ; CDestroyer::delete_data<CEnvAmbient::SEffect>, COMDAT

; 144  : 		CHelper4<T>::delete_data<object_type_traits::is_stl_container<T>::value>(data);
; 145  : 	}

	ret	0
??$delete_data@USEffect@CEnvAmbient@@@CDestroyer@@SAXAAUSEffect@CEnvAmbient@@@Z ENDP ; CDestroyer::delete_data<CEnvAmbient::SEffect>
; Function compile flags: /Ogtpy
; File d:\clearsky\sources\sdk\include\stlport\stl\_tree.c
_TEXT	ENDS
;	COMDAT ?_Rotate_right@?$_Rb_global@_N@priv@stlp_std@@SAXPAU_Rb_tree_node_base@23@AAPAU423@@Z
_TEXT	SEGMENT
?_Rotate_right@?$_Rb_global@_N@priv@stlp_std@@SAXPAU_Rb_tree_node_base@23@AAPAU423@@Z PROC ; stlp_std::priv::_Rb_global<bool>::_Rotate_right, COMDAT
; ___x$ = ecx
; ___root$ = esi

; 81   :   _Rb_tree_node_base* __y = __x->_M_left;

	mov	eax, DWORD PTR [ecx+8]

; 82   :   __x->_M_left = __y->_M_right;

	mov	edx, DWORD PTR [eax+12]
	mov	DWORD PTR [ecx+8], edx

; 83   :   if (__y->_M_right != 0)

	mov	edx, DWORD PTR [eax+12]
	test	edx, edx
	je	SHORT $LN5@Rotate_rig

; 84   :     __y->_M_right->_M_parent = __x;

	mov	DWORD PTR [edx+4], ecx
$LN5@Rotate_rig:

; 85   :   __y->_M_parent = __x->_M_parent;

	mov	edx, DWORD PTR [ecx+4]
	mov	DWORD PTR [eax+4], edx

; 86   : 
; 87   :   if (__x == __root)

	cmp	ecx, DWORD PTR [esi]
	jne	SHORT $LN4@Rotate_rig

; 88   :     __root = __y;

	mov	DWORD PTR [esi], eax

; 93   :   __y->_M_right = __x;

	mov	DWORD PTR [eax+12], ecx

; 94   :   __x->_M_parent = __y;

	mov	DWORD PTR [ecx+4], eax

; 95   : }

	ret	0
$LN4@Rotate_rig:

; 89   :   else if (__x == __x->_M_parent->_M_right)

	mov	edx, DWORD PTR [ecx+4]
	cmp	ecx, DWORD PTR [edx+12]
	jne	SHORT $LN2@Rotate_rig

; 90   :     __x->_M_parent->_M_right = __y;

	mov	DWORD PTR [edx+12], eax

; 93   :   __y->_M_right = __x;

	mov	DWORD PTR [eax+12], ecx

; 94   :   __x->_M_parent = __y;

	mov	DWORD PTR [ecx+4], eax

; 95   : }

	ret	0
$LN2@Rotate_rig:

; 91   :   else
; 92   :     __x->_M_parent->_M_left = __y;

	mov	DWORD PTR [edx+8], eax

; 93   :   __y->_M_right = __x;

	mov	DWORD PTR [eax+12], ecx

; 94   :   __x->_M_parent = __y;

	mov	DWORD PTR [ecx+4], eax

; 95   : }

	ret	0
?_Rotate_right@?$_Rb_global@_N@priv@stlp_std@@SAXPAU_Rb_tree_node_base@23@AAPAU423@@Z ENDP ; stlp_std::priv::_Rb_global<bool>::_Rotate_right
; Function compile flags: /Ogtpy
_TEXT	ENDS
;	COMDAT ?_Rotate_left@?$_Rb_global@_N@priv@stlp_std@@SAXPAU_Rb_tree_node_base@23@AAPAU423@@Z
_TEXT	SEGMENT
?_Rotate_left@?$_Rb_global@_N@priv@stlp_std@@SAXPAU_Rb_tree_node_base@23@AAPAU423@@Z PROC ; stlp_std::priv::_Rb_global<bool>::_Rotate_left, COMDAT
; ___x$ = ecx
; ___root$ = esi

; 62   :   _Rb_tree_node_base* __y = __x->_M_right;

	mov	eax, DWORD PTR [ecx+12]

; 63   :   __x->_M_right = __y->_M_left;

	mov	edx, DWORD PTR [eax+8]
	mov	DWORD PTR [ecx+12], edx

; 64   :   if (__y->_M_left != 0)

	mov	edx, DWORD PTR [eax+8]
	test	edx, edx
	je	SHORT $LN5@Rotate_lef

; 65   :     __y->_M_left->_M_parent = __x;

	mov	DWORD PTR [edx+4], ecx
$LN5@Rotate_lef:

; 66   :   __y->_M_parent = __x->_M_parent;

	mov	edx, DWORD PTR [ecx+4]
	mov	DWORD PTR [eax+4], edx

; 67   : 
; 68   :   if (__x == __root)

	cmp	ecx, DWORD PTR [esi]
	jne	SHORT $LN4@Rotate_lef

; 69   :     __root = __y;

	mov	DWORD PTR [esi], eax

; 74   :   __y->_M_left = __x;

	mov	DWORD PTR [eax+8], ecx

; 75   :   __x->_M_parent = __y;

	mov	DWORD PTR [ecx+4], eax

; 76   : }

	ret	0
$LN4@Rotate_lef:

; 70   :   else if (__x == __x->_M_parent->_M_left)

	mov	edx, DWORD PTR [ecx+4]
	cmp	ecx, DWORD PTR [edx+8]
	jne	SHORT $LN2@Rotate_lef

; 71   :     __x->_M_parent->_M_left = __y;

	mov	DWORD PTR [edx+8], eax

; 74   :   __y->_M_left = __x;

	mov	DWORD PTR [eax+8], ecx

; 75   :   __x->_M_parent = __y;

	mov	DWORD PTR [ecx+4], eax

; 76   : }

	ret	0
$LN2@Rotate_lef:

; 72   :   else
; 73   :     __x->_M_parent->_M_right = __y;

	mov	DWORD PTR [edx+12], eax

; 74   :   __y->_M_left = __x;

	mov	DWORD PTR [eax+8], ecx

; 75   :   __x->_M_parent = __y;

	mov	DWORD PTR [ecx+4], eax

; 76   : }

	ret	0
?_Rotate_left@?$_Rb_global@_N@priv@stlp_std@@SAXPAU_Rb_tree_node_base@23@AAPAU423@@Z ENDP ; stlp_std::priv::_Rb_global<bool>::_Rotate_left
; Function compile flags: /Ogtpy
_TEXT	ENDS
;	COMDAT ?_Rebalance@?$_Rb_global@_N@priv@stlp_std@@SAXPAU_Rb_tree_node_base@23@AAPAU423@@Z
_TEXT	SEGMENT
?_Rebalance@?$_Rb_global@_N@priv@stlp_std@@SAXPAU_Rb_tree_node_base@23@AAPAU423@@Z PROC ; stlp_std::priv::_Rb_global<bool>::_Rebalance, COMDAT
; ___x$ = eax
; ___root$ = edi

; 100  :   __x->_M_color = _S_rb_tree_red;

	mov	BYTE PTR [eax], 0

; 101  :   while (__x != __root && __x->_M_parent->_M_color == _S_rb_tree_red) {

	cmp	eax, DWORD PTR [edi]
	je	$LN42@Rebalance
	push	esi
	npad	4
$LL10@Rebalance:
	mov	ecx, DWORD PTR [eax+4]
	cmp	BYTE PTR [ecx], 0
	jne	$LN43@Rebalance

; 102  :     if (__x->_M_parent == __x->_M_parent->_M_parent->_M_left) {

	mov	esi, DWORD PTR [ecx+4]
	mov	edx, DWORD PTR [esi+8]
	cmp	ecx, edx
	jne	$LN8@Rebalance

; 103  :       _Rb_tree_node_base* __y = __x->_M_parent->_M_parent->_M_right;

	mov	edx, DWORD PTR [esi+12]

; 104  :       if (__y && __y->_M_color == _S_rb_tree_red) {

	test	edx, edx
	je	SHORT $LN7@Rebalance
	cmp	BYTE PTR [edx], 0

; 105  :         __x->_M_parent->_M_color = _S_rb_tree_black;
; 106  :         __y->_M_color = _S_rb_tree_black;
; 107  :         __x->_M_parent->_M_parent->_M_color = _S_rb_tree_red;
; 108  :         __x = __x->_M_parent->_M_parent;
; 109  :       }
; 110  :       else {

	je	$LN46@Rebalance
$LN7@Rebalance:

; 111  :         if (__x == __x->_M_parent->_M_right) {

	cmp	eax, DWORD PTR [ecx+12]
	jne	SHORT $LN18@Rebalance

; 112  :           __x = __x->_M_parent;

	mov	eax, ecx

; 113  :           _Rotate_left(__x, __root);

	mov	ecx, DWORD PTR [eax+12]
	mov	edx, DWORD PTR [ecx+8]
	mov	DWORD PTR [eax+12], edx
	mov	edx, DWORD PTR [ecx+8]
	test	edx, edx
	je	SHORT $LN17@Rebalance
	mov	DWORD PTR [edx+4], eax
$LN17@Rebalance:
	mov	edx, DWORD PTR [eax+4]
	mov	DWORD PTR [ecx+4], edx
	cmp	eax, DWORD PTR [edi]
	jne	SHORT $LN16@Rebalance
	mov	DWORD PTR [edi], ecx
	jmp	SHORT $LN13@Rebalance
$LN16@Rebalance:
	mov	edx, DWORD PTR [eax+4]
	cmp	eax, DWORD PTR [edx+8]
	jne	SHORT $LN14@Rebalance
	mov	DWORD PTR [edx+8], ecx
	jmp	SHORT $LN13@Rebalance
$LN14@Rebalance:
	mov	DWORD PTR [edx+12], ecx
$LN13@Rebalance:
	mov	DWORD PTR [ecx+8], eax
	mov	DWORD PTR [eax+4], ecx
$LN18@Rebalance:

; 114  :         }
; 115  :         __x->_M_parent->_M_color = _S_rb_tree_black;

	mov	ecx, DWORD PTR [eax+4]
	mov	BYTE PTR [ecx], 1

; 116  :         __x->_M_parent->_M_parent->_M_color = _S_rb_tree_red;

	mov	edx, DWORD PTR [eax+4]
	mov	ecx, DWORD PTR [edx+4]
	mov	BYTE PTR [ecx], 0

; 117  :         _Rotate_right(__x->_M_parent->_M_parent, __root);

	mov	edx, DWORD PTR [eax+4]
	mov	ecx, DWORD PTR [edx+4]
	mov	edx, DWORD PTR [ecx+8]
	mov	esi, DWORD PTR [edx+12]
	mov	DWORD PTR [ecx+8], esi
	mov	esi, DWORD PTR [edx+12]
	test	esi, esi
	je	SHORT $LN24@Rebalance
	mov	DWORD PTR [esi+4], ecx
$LN24@Rebalance:
	mov	esi, DWORD PTR [ecx+4]
	mov	DWORD PTR [edx+4], esi
	cmp	ecx, DWORD PTR [edi]
	jne	SHORT $LN23@Rebalance
	mov	DWORD PTR [edi], edx
	mov	DWORD PTR [edx+12], ecx

; 118  :       }
; 119  :     }
; 120  :     else {

	jmp	$LN45@Rebalance

; 117  :         _Rotate_right(__x->_M_parent->_M_parent, __root);

$LN23@Rebalance:
	mov	esi, DWORD PTR [ecx+4]
	cmp	ecx, DWORD PTR [esi+12]
	jne	SHORT $LN21@Rebalance
	mov	DWORD PTR [esi+12], edx
	mov	DWORD PTR [edx+12], ecx

; 118  :       }
; 119  :     }
; 120  :     else {

	jmp	$LN45@Rebalance

; 117  :         _Rotate_right(__x->_M_parent->_M_parent, __root);

$LN21@Rebalance:
	mov	DWORD PTR [esi+8], edx
	mov	DWORD PTR [edx+12], ecx

; 118  :       }
; 119  :     }
; 120  :     else {

	jmp	$LN45@Rebalance
$LN8@Rebalance:

; 121  :       _Rb_tree_node_base* __y = __x->_M_parent->_M_parent->_M_left;
; 122  :       if (__y && __y->_M_color == _S_rb_tree_red) {

	test	edx, edx
	je	SHORT $LN3@Rebalance
	cmp	BYTE PTR [edx], 0
	jne	SHORT $LN3@Rebalance
$LN46@Rebalance:

; 123  :         __x->_M_parent->_M_color = _S_rb_tree_black;

	mov	BYTE PTR [ecx], 1

; 124  :         __y->_M_color = _S_rb_tree_black;

	mov	BYTE PTR [edx], 1

; 125  :         __x->_M_parent->_M_parent->_M_color = _S_rb_tree_red;

	mov	edx, DWORD PTR [eax+4]
	mov	ecx, DWORD PTR [edx+4]
	mov	BYTE PTR [ecx], 0

; 126  :         __x = __x->_M_parent->_M_parent;

	mov	edx, DWORD PTR [eax+4]
	mov	eax, DWORD PTR [edx+4]

; 127  :       }
; 128  :       else {

	jmp	$LN39@Rebalance
$LN3@Rebalance:

; 129  :         if (__x == __x->_M_parent->_M_left) {

	cmp	eax, DWORD PTR [ecx+8]
	jne	SHORT $LN32@Rebalance

; 130  :           __x = __x->_M_parent;

	mov	eax, ecx

; 131  :           _Rotate_right(__x, __root);

	mov	ecx, DWORD PTR [eax+8]
	mov	edx, DWORD PTR [ecx+12]
	mov	DWORD PTR [eax+8], edx
	mov	edx, DWORD PTR [ecx+12]
	test	edx, edx
	je	SHORT $LN31@Rebalance
	mov	DWORD PTR [edx+4], eax
$LN31@Rebalance:
	mov	edx, DWORD PTR [eax+4]
	mov	DWORD PTR [ecx+4], edx
	cmp	eax, DWORD PTR [edi]
	jne	SHORT $LN30@Rebalance
	mov	DWORD PTR [edi], ecx
	jmp	SHORT $LN27@Rebalance
$LN30@Rebalance:
	mov	edx, DWORD PTR [eax+4]
	cmp	eax, DWORD PTR [edx+12]
	jne	SHORT $LN28@Rebalance
	mov	DWORD PTR [edx+12], ecx
	jmp	SHORT $LN27@Rebalance
$LN28@Rebalance:
	mov	DWORD PTR [edx+8], ecx
$LN27@Rebalance:
	mov	DWORD PTR [ecx+12], eax
	mov	DWORD PTR [eax+4], ecx
$LN32@Rebalance:

; 132  :         }
; 133  :         __x->_M_parent->_M_color = _S_rb_tree_black;

	mov	ecx, DWORD PTR [eax+4]
	mov	BYTE PTR [ecx], 1

; 134  :         __x->_M_parent->_M_parent->_M_color = _S_rb_tree_red;

	mov	edx, DWORD PTR [eax+4]
	mov	ecx, DWORD PTR [edx+4]
	mov	BYTE PTR [ecx], 0

; 135  :         _Rotate_left(__x->_M_parent->_M_parent, __root);

	mov	edx, DWORD PTR [eax+4]
	mov	ecx, DWORD PTR [edx+4]
	mov	edx, DWORD PTR [ecx+12]
	mov	esi, DWORD PTR [edx+8]
	mov	DWORD PTR [ecx+12], esi
	mov	esi, DWORD PTR [edx+8]
	test	esi, esi
	je	SHORT $LN38@Rebalance
	mov	DWORD PTR [esi+4], ecx
$LN38@Rebalance:
	mov	esi, DWORD PTR [ecx+4]
	mov	DWORD PTR [edx+4], esi
	cmp	ecx, DWORD PTR [edi]
	jne	SHORT $LN37@Rebalance
	mov	DWORD PTR [edi], edx
	jmp	SHORT $LN34@Rebalance
$LN37@Rebalance:
	mov	esi, DWORD PTR [ecx+4]
	cmp	ecx, DWORD PTR [esi+8]
	jne	SHORT $LN35@Rebalance
	mov	DWORD PTR [esi+8], edx
	jmp	SHORT $LN34@Rebalance
$LN35@Rebalance:
	mov	DWORD PTR [esi+12], edx
$LN34@Rebalance:
	mov	DWORD PTR [edx+8], ecx
$LN45@Rebalance:
	mov	DWORD PTR [ecx+4], edx
$LN39@Rebalance:

; 101  :   while (__x != __root && __x->_M_parent->_M_color == _S_rb_tree_red) {

	cmp	eax, DWORD PTR [edi]
	jne	$LL10@Rebalance

; 136  :       }
; 137  :     }
; 138  :   }
; 139  :   __root->_M_color = _S_rb_tree_black;

	mov	eax, DWORD PTR [edi]
	mov	BYTE PTR [eax], 1
	pop	esi

; 140  : }

	ret	0
$LN42@Rebalance:

; 136  :       }
; 137  :     }
; 138  :   }
; 139  :   __root->_M_color = _S_rb_tree_black;

	mov	ecx, DWORD PTR [edi]
	mov	BYTE PTR [ecx], 1

; 140  : }

	ret	0
$LN43@Rebalance:

; 136  :       }
; 137  :     }
; 138  :   }
; 139  :   __root->_M_color = _S_rb_tree_black;

	mov	edx, DWORD PTR [edi]
	mov	BYTE PTR [edx], 1
	pop	esi

; 140  : }

	ret	0
?_Rebalance@?$_Rb_global@_N@priv@stlp_std@@SAXPAU_Rb_tree_node_base@23@AAPAU423@@Z ENDP ; stlp_std::priv::_Rb_global<bool>::_Rebalance
; Function compile flags: /Ogtpy
; File d:\clearsky\sources\sdk\include\stlport\stl\type_traits.h
_TEXT	ENDS
;	COMDAT ?_Answer@?$_BothPtrType@PAPAXPAPAX@stlp_std@@SA?AU__true_type@2@XZ
_TEXT	SEGMENT
?_Answer@?$_BothPtrType@PAPAXPAPAX@stlp_std@@SA?AU__true_type@2@XZ PROC ; stlp_std::_BothPtrType<void * *,void * *>::_Answer, COMDAT

; 468  :   static _Ret _Answer() { return _Ret(); }

	xor	al, al
	ret	0
?_Answer@?$_BothPtrType@PAPAXPAPAX@stlp_std@@SA?AU__true_type@2@XZ ENDP ; stlp_std::_BothPtrType<void * *,void * *>::_Answer
; Function compile flags: /Ogtpy
; File d:\clearsky\sources\sdk\include\stlport\stl\_algobase.h
_TEXT	ENDS
;	COMDAT ??$fill@PAPAXPAX@stlp_std@@YAXPAPAX0ABQAX@Z
_TEXT	SEGMENT
??$fill@PAPAXPAX@stlp_std@@YAXPAPAX0ABQAX@Z PROC	; stlp_std::fill<void * *,void *>, COMDAT
; ___first$ = eax
; ___last$ = ecx
; ___val$ = edx

; 393  :   _STLP_DEBUG_CHECK(_STLP_PRIV __check_range(__first, __last))
; 394  :   for ( ; __first != __last; ++__first)

	cmp	eax, ecx
	je	SHORT $LN1@fill@5
	push	esi
$LL3@fill@5:

; 395  :     *__first = __val;

	mov	esi, DWORD PTR [edx]
	mov	DWORD PTR [eax], esi
	add	eax, 4
	cmp	eax, ecx
	jne	SHORT $LL3@fill@5
	pop	esi
$LN1@fill@5:

; 396  : }

	ret	0
??$fill@PAPAXPAX@stlp_std@@YAXPAPAX0ABQAX@Z ENDP	; stlp_std::fill<void * *,void *>
; Function compile flags: /Ogtpy
; File d:\clearsky\sources\sdk\include\stlport\stl\_vector.h
_TEXT	ENDS
;	COMDAT ?_M_set@?$_Impl_vector@Uref_sound@@V?$xalloc@Uref_sound@@@@@priv@stlp_std@@AAEXPAUref_sound@@00@Z
_TEXT	SEGMENT
___e$ = 8						; size = 4
?_M_set@?$_Impl_vector@Uref_sound@@V?$xalloc@Uref_sound@@@@@priv@stlp_std@@AAEXPAUref_sound@@00@Z PROC ; stlp_std::priv::_Impl_vector<ref_sound,xalloc<ref_sound> >::_M_set, COMDAT
; _this$ = eax
; ___s$ = ecx
; ___f$ = edx

; 626  :     this->_M_start = __s;

	mov	DWORD PTR [eax], ecx

; 627  :     this->_M_finish = __f;
; 628  :     this->_M_end_of_storage._M_data = __e;

	mov	ecx, DWORD PTR ___e$[esp-4]
	mov	DWORD PTR [eax+4], edx
	mov	DWORD PTR [eax+8], ecx

; 629  :   }

	ret	4
?_M_set@?$_Impl_vector@Uref_sound@@V?$xalloc@Uref_sound@@@@@priv@stlp_std@@AAEXPAUref_sound@@00@Z ENDP ; stlp_std::priv::_Impl_vector<ref_sound,xalloc<ref_sound> >::_M_set
; Function compile flags: /Ogtpy
_TEXT	ENDS
;	COMDAT ?_M_is_inside@?$_Impl_vector@Uref_sound@@V?$xalloc@Uref_sound@@@@@priv@stlp_std@@ABE_NABUref_sound@@@Z
_TEXT	SEGMENT
?_M_is_inside@?$_Impl_vector@Uref_sound@@V?$xalloc@Uref_sound@@@@@priv@stlp_std@@ABE_NABUref_sound@@@Z PROC ; stlp_std::priv::_Impl_vector<ref_sound,xalloc<ref_sound> >::_M_is_inside, COMDAT
; _this$ = ecx
; ___x$ = eax

; 393  :     return (&__x >= this->_M_start && &__x < this->_M_finish);

	cmp	eax, DWORD PTR [ecx]
	jb	SHORT $LN3@M_is_insid@8
	cmp	eax, DWORD PTR [ecx+4]
	jae	SHORT $LN3@M_is_insid@8
	mov	eax, 1

; 394  :   }

	ret	0
$LN3@M_is_insid@8:

; 393  :     return (&__x >= this->_M_start && &__x < this->_M_finish);

	xor	eax, eax

; 394  :   }

	ret	0
?_M_is_inside@?$_Impl_vector@Uref_sound@@V?$xalloc@Uref_sound@@@@@priv@stlp_std@@ABE_NABUref_sound@@@Z ENDP ; stlp_std::priv::_Impl_vector<ref_sound,xalloc<ref_sound> >::_M_is_inside
; Function compile flags: /Ogtpy
_TEXT	ENDS
;	COMDAT ?_M_is_inside@?$_Impl_vector@PAXV?$xalloc@PAX@@@priv@stlp_std@@ABE_NABQAX@Z
_TEXT	SEGMENT
?_M_is_inside@?$_Impl_vector@PAXV?$xalloc@PAX@@@priv@stlp_std@@ABE_NABQAX@Z PROC ; stlp_std::priv::_Impl_vector<void *,xalloc<void *> >::_M_is_inside, COMDAT
; _this$ = ecx
; ___x$ = eax

; 393  :     return (&__x >= this->_M_start && &__x < this->_M_finish);

	cmp	eax, DWORD PTR [ecx]
	jb	SHORT $LN3@M_is_insid@9
	cmp	eax, DWORD PTR [ecx+4]
	jae	SHORT $LN3@M_is_insid@9
	mov	eax, 1

; 394  :   }

	ret	0
$LN3@M_is_insid@9:

; 393  :     return (&__x >= this->_M_start && &__x < this->_M_finish);

	xor	eax, eax

; 394  :   }

	ret	0
?_M_is_inside@?$_Impl_vector@PAXV?$xalloc@PAX@@@priv@stlp_std@@ABE_NABQAX@Z ENDP ; stlp_std::priv::_Impl_vector<void *,xalloc<void *> >::_M_is_inside
; Function compile flags: /Ogtpy
; File d:\clearsky\sources\engine\xrcore\_stl_extensions.h
_TEXT	ENDS
;	COMDAT ??$?0PAVCEnvDescriptor@@@?$xalloc@PAX@@QAE@ABV?$xalloc@PAVCEnvDescriptor@@@@@Z
_TEXT	SEGMENT
??$?0PAVCEnvDescriptor@@@?$xalloc@PAX@@QAE@ABV?$xalloc@PAVCEnvDescriptor@@@@@Z PROC ; xalloc<void *>::xalloc<void *><CEnvDescriptor *>, COMDAT
; _this$ = eax

; 79   : 	template<class _Other>							xalloc			(const xalloc<_Other>&)					{	}

	ret	0
??$?0PAVCEnvDescriptor@@@?$xalloc@PAX@@QAE@ABV?$xalloc@PAVCEnvDescriptor@@@@@Z ENDP ; xalloc<void *>::xalloc<void *><CEnvDescriptor *>
; Function compile flags: /Ogtpy
; File d:\clearsky\sources\sdk\include\stlport\stl\_algobase.h
_TEXT	ENDS
;	COMDAT ??$__fill_n@PAVCEnvModifier@@IV1@@priv@stlp_std@@YAPAVCEnvModifier@@PAV2@IABV2@@Z
_TEXT	SEGMENT
??$__fill_n@PAVCEnvModifier@@IV1@@priv@stlp_std@@YAPAVCEnvModifier@@PAV2@IABV2@@Z PROC ; stlp_std::priv::__fill_n<CEnvModifier *,unsigned int,CEnvModifier>, COMDAT
; ___first$ = eax
; ___n$ = edx
; ___val$ = ebx

; 403  :   _STLP_FIX_LITERAL_BUG(__first)
; 404  :   for ( ; __n > 0; --__n, ++__first)

	test	edx, edx
	jbe	SHORT $LN1@fill_n@13
	push	esi
	push	edi
$LL3@fill_n@13:

; 405  :     *__first = __val;

	mov	edi, eax
	sub	edx, 1
	mov	ecx, 20					; 00000014H
	mov	esi, ebx
	add	eax, 80					; 00000050H
	test	edx, edx
	rep movsd
	ja	SHORT $LL3@fill_n@13
	pop	edi
	pop	esi
$LN1@fill_n@13:

; 406  :   return __first;
; 407  : }

	ret	0
??$__fill_n@PAVCEnvModifier@@IV1@@priv@stlp_std@@YAPAVCEnvModifier@@PAV2@IABV2@@Z ENDP ; stlp_std::priv::__fill_n<CEnvModifier *,unsigned int,CEnvModifier>
; Function compile flags: /Ogtpy
; File d:\clearsky\sources\sdk\include\stlport\stl\_tree.h
_TEXT	ENDS
;	COMDAT ?key_comp@?$_Rb_tree@Vshared_str@@Ustr_pred@CEnvironment@@U?$pair@$$CBVshared_str@@V?$xr_vector@PAVCEnvDescriptor@@V?$xalloc@PAVCEnvDescriptor@@@@@@@stlp_std@@U?$_Select1st@U?$pair@$$CBVshared_str@@V?$xr_vector@PAVCEnvDescriptor@@V?$xalloc@PAVCEnvDescriptor@@@@@@@stlp_std@@@priv@5@U?$_MapTraitsT@U?$pair@$$CBVshared_str@@V?$xr_vector@PAVCEnvDescriptor@@V?$xalloc@PAVCEnvDescriptor@@@@@@@stlp_std@@@75@V?$xalloc@U?$pair@Vshared_str@@V?$xr_vector@PAVCEnvDescriptor@@V?$xalloc@PAVCEnvDescriptor@@@@@@@stlp_std@@@@@priv@stlp_std@@QBE?AUstr_pred@CEnvironment@@XZ
_TEXT	SEGMENT
?key_comp@?$_Rb_tree@Vshared_str@@Ustr_pred@CEnvironment@@U?$pair@$$CBVshared_str@@V?$xr_vector@PAVCEnvDescriptor@@V?$xalloc@PAVCEnvDescriptor@@@@@@@stlp_std@@U?$_Select1st@U?$pair@$$CBVshared_str@@V?$xr_vector@PAVCEnvDescriptor@@V?$xalloc@PAVCEnvDescriptor@@@@@@@stlp_std@@@priv@5@U?$_MapTraitsT@U?$pair@$$CBVshared_str@@V?$xr_vector@PAVCEnvDescriptor@@V?$xalloc@PAVCEnvDescriptor@@@@@@@stlp_std@@@75@V?$xalloc@U?$pair@Vshared_str@@V?$xr_vector@PAVCEnvDescriptor@@V?$xalloc@PAVCEnvDescriptor@@@@@@@stlp_std@@@@@priv@stlp_std@@QBE?AUstr_pred@CEnvironment@@XZ PROC ; stlp_std::priv::_Rb_tree<shared_str,CEnvironment::str_pred,stlp_std::pair<shared_str const ,xr_vector<CEnvDescriptor *,xalloc<CEnvDescriptor *> > >,stlp_std::priv::_Select1st<stlp_std::pair<shared_str const ,xr_vector<CEnvDescriptor *,xalloc<CEnvDescriptor *> > > >,stlp_std::priv::_MapTraitsT<stlp_std::pair<shared_str const ,xr_vector<CEnvDescriptor *,xalloc<CEnvDescriptor *> > > >,xalloc<stlp_std::pair<shared_str,xr_vector<CEnvDescriptor *,xalloc<CEnvDescriptor *> > > > >::key_comp, COMDAT
; ___$ReturnUdt$ = eax

; 414  :   _Compare key_comp() const { return _M_key_compare; }

	ret	0
?key_comp@?$_Rb_tree@Vshared_str@@Ustr_pred@CEnvironment@@U?$pair@$$CBVshared_str@@V?$xr_vector@PAVCEnvDescriptor@@V?$xalloc@PAVCEnvDescriptor@@@@@@@stlp_std@@U?$_Select1st@U?$pair@$$CBVshared_str@@V?$xr_vector@PAVCEnvDescriptor@@V?$xalloc@PAVCEnvDescriptor@@@@@@@stlp_std@@@priv@5@U?$_MapTraitsT@U?$pair@$$CBVshared_str@@V?$xr_vector@PAVCEnvDescriptor@@V?$xalloc@PAVCEnvDescriptor@@@@@@@stlp_std@@@75@V?$xalloc@U?$pair@Vshared_str@@V?$xr_vector@PAVCEnvDescriptor@@V?$xalloc@PAVCEnvDescriptor@@@@@@@stlp_std@@@@@priv@stlp_std@@QBE?AUstr_pred@CEnvironment@@XZ ENDP ; stlp_std::priv::_Rb_tree<shared_str,CEnvironment::str_pred,stlp_std::pair<shared_str const ,xr_vector<CEnvDescriptor *,xalloc<CEnvDescriptor *> > >,stlp_std::priv::_Select1st<stlp_std::pair<shared_str const ,xr_vector<CEnvDescriptor *,xalloc<CEnvDescriptor *> > > >,stlp_std::priv::_MapTraitsT<stlp_std::pair<shared_str const ,xr_vector<CEnvDescriptor *,xalloc<CEnvDescriptor *> > > >,xalloc<stlp_std::pair<shared_str,xr_vector<CEnvDescriptor *,xalloc<CEnvDescriptor *> > > > >::key_comp
; Function compile flags: /Ogtpy
; File d:\clearsky\sources\engine\xrcore\_stl_extensions.h
_TEXT	ENDS
;	COMDAT ??0?$xalloc@PAVCEnvDescriptor@@@@QAE@XZ
_TEXT	SEGMENT
??0?$xalloc@PAVCEnvDescriptor@@@@QAE@XZ PROC		; xalloc<CEnvDescriptor *>::xalloc<CEnvDescriptor *>, COMDAT
; _this$ = eax

; 77   : 													xalloc			()										{	}

	ret	0
??0?$xalloc@PAVCEnvDescriptor@@@@QAE@XZ ENDP		; xalloc<CEnvDescriptor *>::xalloc<CEnvDescriptor *>
; Function compile flags: /Ogtpy
_TEXT	ENDS
;	COMDAT ?max_size@?$xalloc@PAX@@QBEIXZ
_TEXT	SEGMENT
?max_size@?$xalloc@PAX@@QBEIXZ PROC			; xalloc<void *>::max_size, COMDAT

; 87   : 							size_type				max_size		() const								{	size_type _Count = (size_type)(-1) / sizeof (T);	return (0 < _Count ? _Count : 1);	}

	mov	eax, 1073741823				; 3fffffffH
	ret	0
?max_size@?$xalloc@PAX@@QBEIXZ ENDP			; xalloc<void *>::max_size
; Function compile flags: /Ogtpy
; File d:\clearsky\sources\engine\xrcore\xrmemory_subst_msvc.h
_TEXT	ENDS
;	COMDAT ??R?$xr_special_free@$00VCLensFlare@@@@QAEXAAPAVCLensFlare@@@Z
_TEXT	SEGMENT
??R?$xr_special_free@$00VCLensFlare@@@@QAEXAAPAVCLensFlare@@@Z PROC ; xr_special_free<1,CLensFlare>::operator(), COMDAT
; _ptr$ = esi

; 132  : 		void*	_real_ptr	= dynamic_cast<void*>(ptr);

	mov	eax, DWORD PTR [esi]
	push	edi
	push	eax
	call	___RTCastToVoid

; 133  : 		ptr->~T			();

	mov	ecx, DWORD PTR [esi]
	mov	edx, DWORD PTR [ecx]
	add	esp, 4
	mov	edi, eax
	mov	eax, DWORD PTR [edx]
	push	0
	call	eax

; 134  : 		Memory.mem_free	(_real_ptr);

	mov	ecx, DWORD PTR __imp_?Memory@@3VxrMemory@@A
	push	edi
	call	DWORD PTR __imp_?mem_free@xrMemory@@QAEXPAX@Z
	pop	edi

; 135  : 	}

	ret	0
??R?$xr_special_free@$00VCLensFlare@@@@QAEXAAPAVCLensFlare@@@Z ENDP ; xr_special_free<1,CLensFlare>::operator()
; Function compile flags: /Ogtpy
; File d:\clearsky\sources\sdk\include\stlport\stl\_vector.h
_TEXT	ENDS
;	COMDAT ?_M_set@?$_Impl_vector@VCEnvModifier@@V?$xalloc@VCEnvModifier@@@@@priv@stlp_std@@AAEXPAVCEnvModifier@@00@Z
_TEXT	SEGMENT
___e$ = 8						; size = 4
?_M_set@?$_Impl_vector@VCEnvModifier@@V?$xalloc@VCEnvModifier@@@@@priv@stlp_std@@AAEXPAVCEnvModifier@@00@Z PROC ; stlp_std::priv::_Impl_vector<CEnvModifier,xalloc<CEnvModifier> >::_M_set, COMDAT
; _this$ = eax
; ___s$ = ecx
; ___f$ = edx

; 626  :     this->_M_start = __s;

	mov	DWORD PTR [eax], ecx

; 627  :     this->_M_finish = __f;
; 628  :     this->_M_end_of_storage._M_data = __e;

	mov	ecx, DWORD PTR ___e$[esp-4]
	mov	DWORD PTR [eax+4], edx
	mov	DWORD PTR [eax+8], ecx

; 629  :   }

	ret	4
?_M_set@?$_Impl_vector@VCEnvModifier@@V?$xalloc@VCEnvModifier@@@@@priv@stlp_std@@AAEXPAVCEnvModifier@@00@Z ENDP ; stlp_std::priv::_Impl_vector<CEnvModifier,xalloc<CEnvModifier> >::_M_set
; Function compile flags: /Ogtpy
; File d:\clearsky\sources\sdk\include\stlport\stl\_map.h
_TEXT	ENDS
;	COMDAT ?key_comp@?$map@Vshared_str@@V?$xr_vector@PAVCEnvDescriptor@@V?$xalloc@PAVCEnvDescriptor@@@@@@Ustr_pred@CEnvironment@@V?$xalloc@U?$pair@Vshared_str@@V?$xr_vector@PAVCEnvDescriptor@@V?$xalloc@PAVCEnvDescriptor@@@@@@@stlp_std@@@@@stlp_std@@QBE?AUstr_pred@CEnvironment@@XZ
_TEXT	SEGMENT
?key_comp@?$map@Vshared_str@@V?$xr_vector@PAVCEnvDescriptor@@V?$xalloc@PAVCEnvDescriptor@@@@@@Ustr_pred@CEnvironment@@V?$xalloc@U?$pair@Vshared_str@@V?$xr_vector@PAVCEnvDescriptor@@V?$xalloc@PAVCEnvDescriptor@@@@@@@stlp_std@@@@@stlp_std@@QBE?AUstr_pred@CEnvironment@@XZ PROC ; stlp_std::map<shared_str,xr_vector<CEnvDescriptor *,xalloc<CEnvDescriptor *> >,CEnvironment::str_pred,xalloc<stlp_std::pair<shared_str,xr_vector<CEnvDescriptor *,xalloc<CEnvDescriptor *> > > > >::key_comp, COMDAT
; ___$ReturnUdt$ = eax

; 157  :   key_compare key_comp() const { return _M_t.key_comp(); }

	ret	0
?key_comp@?$map@Vshared_str@@V?$xr_vector@PAVCEnvDescriptor@@V?$xalloc@PAVCEnvDescriptor@@@@@@Ustr_pred@CEnvironment@@V?$xalloc@U?$pair@Vshared_str@@V?$xr_vector@PAVCEnvDescriptor@@V?$xalloc@PAVCEnvDescriptor@@@@@@@stlp_std@@@@@stlp_std@@QBE?AUstr_pred@CEnvironment@@XZ ENDP ; stlp_std::map<shared_str,xr_vector<CEnvDescriptor *,xalloc<CEnvDescriptor *> >,CEnvironment::str_pred,xalloc<stlp_std::pair<shared_str,xr_vector<CEnvDescriptor *,xalloc<CEnvDescriptor *> > > > >::key_comp
; Function compile flags: /Ogtpy
; File d:\clearsky\sources\sdk\include\stlport\stl\_vector.h
_TEXT	ENDS
;	COMDAT ?max_size@?$_Impl_vector@PAXV?$xalloc@PAX@@@priv@stlp_std@@QBEIXZ
_TEXT	SEGMENT
?max_size@?$_Impl_vector@PAXV?$xalloc@PAX@@@priv@stlp_std@@QBEIXZ PROC ; stlp_std::priv::_Impl_vector<void *,xalloc<void *> >::max_size, COMDAT

; 182  :     size_type __vector_max_size = size_type(-1) / sizeof(_Tp);
; 183  :     typename allocator_type::size_type __alloc_max_size = this->_M_end_of_storage.max_size();
; 184  :     return (__alloc_max_size < __vector_max_size)?__alloc_max_size:__vector_max_size;

	mov	eax, 1073741823				; 3fffffffH

; 185  :   }

	ret	0
?max_size@?$_Impl_vector@PAXV?$xalloc@PAX@@@priv@stlp_std@@QBEIXZ ENDP ; stlp_std::priv::_Impl_vector<void *,xalloc<void *> >::max_size
; Function compile flags: /Ogtpy
; File d:\clearsky\sources\engine\xrcore\xrmemory_subst_msvc.h
_TEXT	ENDS
;	COMDAT ??$xr_delete@VCLensFlare@@@@YAXAAPAVCLensFlare@@@Z
_TEXT	SEGMENT
??$xr_delete@VCLensFlare@@@@YAXAAPAVCLensFlare@@@Z PROC	; xr_delete<CLensFlare>, COMDAT
; _ptr$ = esi

; 151  : 	if (ptr) 

	mov	eax, DWORD PTR [esi]
	test	eax, eax
	je	SHORT $LN1@xr_delete@14
	push	edi

; 152  : 	{
; 153  : 		xr_special_free<is_polymorphic<T>::result,T>()(ptr);

	push	eax
	call	___RTCastToVoid
	mov	ecx, DWORD PTR [esi]
	mov	edi, eax
	mov	eax, DWORD PTR [ecx]
	mov	edx, DWORD PTR [eax]
	add	esp, 4
	push	0
	call	edx
	mov	ecx, DWORD PTR __imp_?Memory@@3VxrMemory@@A
	push	edi
	call	DWORD PTR __imp_?mem_free@xrMemory@@QAEXPAX@Z

; 154  : 		ptr = NULL;

	mov	DWORD PTR [esi], 0
	pop	edi
$LN1@xr_delete@14:

; 155  : 	}
; 156  : }

	ret	0
??$xr_delete@VCLensFlare@@@@YAXAAPAVCLensFlare@@@Z ENDP	; xr_delete<CLensFlare>
; Function compile flags: /Ogtpy
; File d:\clearsky\sources\engine\xrcore\xr_trims.h
_TEXT	ENDS
;	COMDAT ??$_GetItem@$0CAI@@@YAPADPBDHAAY0CAI@DD0_N@Z
_TEXT	SEGMENT
??$_GetItem@$0CAI@@@YAPADPBDHAAY0CAI@DD0_N@Z PROC	; _GetItem<520>, COMDAT
; _src$ = edx
; _index$ = ecx
; _dst$ = eax

; 27   : 	return					_GetItem(src,index,dst,count,separator,def,trim);

	push	1
	push	OFFSET ??_C@_00CNPNBAHC@?$AA@
	push	44					; 0000002cH
	push	520					; 00000208H
	push	eax
	push	ecx
	push	edx
	call	DWORD PTR __imp_?_GetItem@@YAPADPBDHPADID0_N@Z
	add	esp, 28					; 0000001cH

; 28   : }

	ret	0
??$_GetItem@$0CAI@@@YAPADPBDHAAY0CAI@DD0_N@Z ENDP	; _GetItem<520>
; Function compile flags: /Ogtpy
; File d:\clearsky\sources\sdk\include\stlport\stl\pointers\_tools.h
_TEXT	ENDS
;	COMDAT ?to_storage_type_cref@?$_CastTraits@VCEnvModifier@@V1@@priv@stlp_std@@SAABVCEnvModifier@@ABV4@@Z
_TEXT	SEGMENT
?to_storage_type_cref@?$_CastTraits@VCEnvModifier@@V1@@priv@stlp_std@@SAABVCEnvModifier@@ABV4@@Z PROC ; stlp_std::priv::_CastTraits<CEnvModifier,CEnvModifier>::to_storage_type_cref, COMDAT
; ___ref$ = eax

; 254  :   { return __ref; }

	ret	0
?to_storage_type_cref@?$_CastTraits@VCEnvModifier@@V1@@priv@stlp_std@@SAABVCEnvModifier@@ABV4@@Z ENDP ; stlp_std::priv::_CastTraits<CEnvModifier,CEnvModifier>::to_storage_type_cref
; Function compile flags: /Ogtpy
_TEXT	ENDS
;	COMDAT ?to_storage_type_cref@?$_CastTraits@Uref_sound@@U1@@priv@stlp_std@@SAABUref_sound@@ABU4@@Z
_TEXT	SEGMENT
?to_storage_type_cref@?$_CastTraits@Uref_sound@@U1@@priv@stlp_std@@SAABUref_sound@@ABU4@@Z PROC ; stlp_std::priv::_CastTraits<ref_sound,ref_sound>::to_storage_type_cref, COMDAT
; ___ref$ = eax

; 254  :   { return __ref; }

	ret	0
?to_storage_type_cref@?$_CastTraits@Uref_sound@@U1@@priv@stlp_std@@SAABUref_sound@@ABU4@@Z ENDP ; stlp_std::priv::_CastTraits<ref_sound,ref_sound>::to_storage_type_cref
; Function compile flags: /Ogtpy
; File d:\clearsky\sources\sdk\include\stlport\stl\_tree.h
_TEXT	ENDS
;	COMDAT ?empty@?$_Rb_tree@Vshared_str@@Ustr_pred@CEnvironment@@U?$pair@$$CBVshared_str@@V?$xr_vector@PAVCEnvDescriptor@@V?$xalloc@PAVCEnvDescriptor@@@@@@@stlp_std@@U?$_Select1st@U?$pair@$$CBVshared_str@@V?$xr_vector@PAVCEnvDescriptor@@V?$xalloc@PAVCEnvDescriptor@@@@@@@stlp_std@@@priv@5@U?$_MapTraitsT@U?$pair@$$CBVshared_str@@V?$xr_vector@PAVCEnvDescriptor@@V?$xalloc@PAVCEnvDescriptor@@@@@@@stlp_std@@@75@V?$xalloc@U?$pair@Vshared_str@@V?$xr_vector@PAVCEnvDescriptor@@V?$xalloc@PAVCEnvDescriptor@@@@@@@stlp_std@@@@@priv@stlp_std@@QBE_NXZ
_TEXT	SEGMENT
?empty@?$_Rb_tree@Vshared_str@@Ustr_pred@CEnvironment@@U?$pair@$$CBVshared_str@@V?$xr_vector@PAVCEnvDescriptor@@V?$xalloc@PAVCEnvDescriptor@@@@@@@stlp_std@@U?$_Select1st@U?$pair@$$CBVshared_str@@V?$xr_vector@PAVCEnvDescriptor@@V?$xalloc@PAVCEnvDescriptor@@@@@@@stlp_std@@@priv@5@U?$_MapTraitsT@U?$pair@$$CBVshared_str@@V?$xr_vector@PAVCEnvDescriptor@@V?$xalloc@PAVCEnvDescriptor@@@@@@@stlp_std@@@75@V?$xalloc@U?$pair@Vshared_str@@V?$xr_vector@PAVCEnvDescriptor@@V?$xalloc@PAVCEnvDescriptor@@@@@@@stlp_std@@@@@priv@stlp_std@@QBE_NXZ PROC ; stlp_std::priv::_Rb_tree<shared_str,CEnvironment::str_pred,stlp_std::pair<shared_str const ,xr_vector<CEnvDescriptor *,xalloc<CEnvDescriptor *> > >,stlp_std::priv::_Select1st<stlp_std::pair<shared_str const ,xr_vector<CEnvDescriptor *,xalloc<CEnvDescriptor *> > > >,stlp_std::priv::_MapTraitsT<stlp_std::pair<shared_str const ,xr_vector<CEnvDescriptor *,xalloc<CEnvDescriptor *> > > >,xalloc<stlp_std::pair<shared_str,xr_vector<CEnvDescriptor *,xalloc<CEnvDescriptor *> > > > >::empty, COMDAT
; _this$ = ecx

; 427  :   bool empty() const { return _M_node_count == 0; }

	xor	eax, eax
	cmp	DWORD PTR [ecx+16], eax
	sete	al
	ret	0
?empty@?$_Rb_tree@Vshared_str@@Ustr_pred@CEnvironment@@U?$pair@$$CBVshared_str@@V?$xr_vector@PAVCEnvDescriptor@@V?$xalloc@PAVCEnvDescriptor@@@@@@@stlp_std@@U?$_Select1st@U?$pair@$$CBVshared_str@@V?$xr_vector@PAVCEnvDescriptor@@V?$xalloc@PAVCEnvDescriptor@@@@@@@stlp_std@@@priv@5@U?$_MapTraitsT@U?$pair@$$CBVshared_str@@V?$xr_vector@PAVCEnvDescriptor@@V?$xalloc@PAVCEnvDescriptor@@@@@@@stlp_std@@@75@V?$xalloc@U?$pair@Vshared_str@@V?$xr_vector@PAVCEnvDescriptor@@V?$xalloc@PAVCEnvDescriptor@@@@@@@stlp_std@@@@@priv@stlp_std@@QBE_NXZ ENDP ; stlp_std::priv::_Rb_tree<shared_str,CEnvironment::str_pred,stlp_std::pair<shared_str const ,xr_vector<CEnvDescriptor *,xalloc<CEnvDescriptor *> > >,stlp_std::priv::_Select1st<stlp_std::pair<shared_str const ,xr_vector<CEnvDescriptor *,xalloc<CEnvDescriptor *> > > >,stlp_std::priv::_MapTraitsT<stlp_std::pair<shared_str const ,xr_vector<CEnvDescriptor *,xalloc<CEnvDescriptor *> > > >,xalloc<stlp_std::pair<shared_str,xr_vector<CEnvDescriptor *,xalloc<CEnvDescriptor *> > > > >::empty
; Function compile flags: /Ogtpy
_TEXT	ENDS
;	COMDAT ??0?$_Rb_tree_iterator@U?$pair@$$CBVshared_str@@V?$xr_vector@PAVCEnvDescriptor@@V?$xalloc@PAVCEnvDescriptor@@@@@@@stlp_std@@U?$_MapTraitsT@U?$pair@$$CBVshared_str@@V?$xr_vector@PAVCEnvDescriptor@@V?$xalloc@PAVCEnvDescriptor@@@@@@@stlp_std@@@priv@2@@priv@stlp_std@@QAE@XZ
_TEXT	SEGMENT
??0?$_Rb_tree_iterator@U?$pair@$$CBVshared_str@@V?$xr_vector@PAVCEnvDescriptor@@V?$xalloc@PAVCEnvDescriptor@@@@@@@stlp_std@@U?$_MapTraitsT@U?$pair@$$CBVshared_str@@V?$xr_vector@PAVCEnvDescriptor@@V?$xalloc@PAVCEnvDescriptor@@@@@@@stlp_std@@@priv@2@@priv@stlp_std@@QAE@XZ PROC ; stlp_std::priv::_Rb_tree_iterator<stlp_std::pair<shared_str const ,xr_vector<CEnvDescriptor *,xalloc<CEnvDescriptor *> > >,stlp_std::priv::_MapTraitsT<stlp_std::pair<shared_str const ,xr_vector<CEnvDescriptor *,xalloc<CEnvDescriptor *> > > > >::_Rb_tree_iterator<stlp_std::pair<shared_str const ,xr_vector<CEnvDescriptor *,xalloc<CEnvDescriptor *> > >,stlp_std::priv::_MapTraitsT<stlp_std::pair<shared_str const ,xr_vector<CEnvDescriptor *,xalloc<CEnvDescriptor *> > > > >, COMDAT
; _this$ = eax

; 159  :   _Rb_tree_iterator() {}

	mov	DWORD PTR [eax], 0
	ret	0
??0?$_Rb_tree_iterator@U?$pair@$$CBVshared_str@@V?$xr_vector@PAVCEnvDescriptor@@V?$xalloc@PAVCEnvDescriptor@@@@@@@stlp_std@@U?$_MapTraitsT@U?$pair@$$CBVshared_str@@V?$xr_vector@PAVCEnvDescriptor@@V?$xalloc@PAVCEnvDescriptor@@@@@@@stlp_std@@@priv@2@@priv@stlp_std@@QAE@XZ ENDP ; stlp_std::priv::_Rb_tree_iterator<stlp_std::pair<shared_str const ,xr_vector<CEnvDescriptor *,xalloc<CEnvDescriptor *> > >,stlp_std::priv::_MapTraitsT<stlp_std::pair<shared_str const ,xr_vector<CEnvDescriptor *,xalloc<CEnvDescriptor *> > > > >::_Rb_tree_iterator<stlp_std::pair<shared_str const ,xr_vector<CEnvDescriptor *,xalloc<CEnvDescriptor *> > >,stlp_std::priv::_MapTraitsT<stlp_std::pair<shared_str const ,xr_vector<CEnvDescriptor *,xalloc<CEnvDescriptor *> > > > >
; Function compile flags: /Ogtpy
; File d:\clearsky\sources\sdk\include\stlport\stl\_map.h
_TEXT	ENDS
;	COMDAT ?empty@?$map@Vshared_str@@V?$xr_vector@PAVCEnvDescriptor@@V?$xalloc@PAVCEnvDescriptor@@@@@@Ustr_pred@CEnvironment@@V?$xalloc@U?$pair@Vshared_str@@V?$xr_vector@PAVCEnvDescriptor@@V?$xalloc@PAVCEnvDescriptor@@@@@@@stlp_std@@@@@stlp_std@@QBE_NXZ
_TEXT	SEGMENT
?empty@?$map@Vshared_str@@V?$xr_vector@PAVCEnvDescriptor@@V?$xalloc@PAVCEnvDescriptor@@@@@@Ustr_pred@CEnvironment@@V?$xalloc@U?$pair@Vshared_str@@V?$xr_vector@PAVCEnvDescriptor@@V?$xalloc@PAVCEnvDescriptor@@@@@@@stlp_std@@@@@stlp_std@@QBE_NXZ PROC ; stlp_std::map<shared_str,xr_vector<CEnvDescriptor *,xalloc<CEnvDescriptor *> >,CEnvironment::str_pred,xalloc<stlp_std::pair<shared_str,xr_vector<CEnvDescriptor *,xalloc<CEnvDescriptor *> > > > >::empty, COMDAT
; _this$ = ecx

; 169  :   bool empty() const { return _M_t.empty(); }

	xor	eax, eax
	cmp	DWORD PTR [ecx+16], eax
	sete	al
	ret	0
?empty@?$map@Vshared_str@@V?$xr_vector@PAVCEnvDescriptor@@V?$xalloc@PAVCEnvDescriptor@@@@@@Ustr_pred@CEnvironment@@V?$xalloc@U?$pair@Vshared_str@@V?$xr_vector@PAVCEnvDescriptor@@V?$xalloc@PAVCEnvDescriptor@@@@@@@stlp_std@@@@@stlp_std@@QBE_NXZ ENDP ; stlp_std::map<shared_str,xr_vector<CEnvDescriptor *,xalloc<CEnvDescriptor *> >,CEnvironment::str_pred,xalloc<stlp_std::pair<shared_str,xr_vector<CEnvDescriptor *,xalloc<CEnvDescriptor *> > > > >::empty
; Function compile flags: /Ogtpy
; File d:\clearsky\sources\engine\xrcore\_flags.h
_TEXT	ENDS
;	COMDAT ?test@?$_flags@G@@QBEHG@Z
_TEXT	SEGMENT
_mask$ = 8						; size = 2
?test@?$_flags@G@@QBEHG@Z PROC				; _flags<unsigned short>::test, COMDAT
; _this$ = eax

; 25   : 	IC 	BOOL	test	(const T mask)						const	{ return BOOL(!!(flags&mask));			}

	mov	ax, WORD PTR [eax]
	and	ax, WORD PTR _mask$[esp-4]
	neg	ax
	sbb	eax, eax
	neg	eax
	ret	4
?test@?$_flags@G@@QBEHG@Z ENDP				; _flags<unsigned short>::test
; Function compile flags: /Ogtpy
_TEXT	ENDS
;	COMDAT ?set@?$_flags@G@@QAEAAU1@GH@Z
_TEXT	SEGMENT
?set@?$_flags@G@@QAEAAU1@GH@Z PROC			; _flags<unsigned short>::set, COMDAT
; _this$ = eax
; _mask$ = ecx

; 22   : 	IC	SelfRef	set		(const T mask,	BOOL value)					{ if (value) flags|=mask; else flags&=~mask; return *this; }

	or	WORD PTR [eax], cx
	ret	0
?set@?$_flags@G@@QAEAAU1@GH@Z ENDP			; _flags<unsigned short>::set
; Function compile flags: /Ogtpy
_TEXT	ENDS
;	COMDAT ?assign@?$_flags@G@@QAEAAU1@G@Z
_TEXT	SEGMENT
?assign@?$_flags@G@@QAEAAU1@G@Z PROC			; _flags<unsigned short>::assign, COMDAT
; _this$ = eax
; _mask$ = ecx

; 21   : 	IC	SelfRef	assign	(const T mask)								{ flags	=	mask;		return *this;	}

	mov	WORD PTR [eax], cx
	ret	0
?assign@?$_flags@G@@QAEAAU1@G@Z ENDP			; _flags<unsigned short>::assign
; Function compile flags: /Ogtpy
_TEXT	ENDS
;	COMDAT ?one@?$_flags@G@@QAEAAU1@XZ
_TEXT	SEGMENT
?one@?$_flags@G@@QAEAAU1@XZ PROC			; _flags<unsigned short>::one, COMDAT
; _this$ = eax

; 16   :     IC	SelfRef	one		()											{ flags=T(-1);	return *this;	}

	mov	WORD PTR [eax], 65535			; 0000ffffH
	ret	0
?one@?$_flags@G@@QAEAAU1@XZ ENDP			; _flags<unsigned short>::one
; Function compile flags: /Ogtpy
; File d:\clearsky\sources\engine\include\xrrender\factoryptr.h
_TEXT	ENDS
;	COMDAT ??C?$FactoryPtr@VIEnvDescriptorMixerRender@@@@QBEPAVIEnvDescriptorMixerRender@@XZ
_TEXT	SEGMENT
??C?$FactoryPtr@VIEnvDescriptorMixerRender@@@@QBEPAVIEnvDescriptorMixerRender@@XZ PROC ; FactoryPtr<IEnvDescriptorMixerRender>::operator->, COMDAT
; _this$ = eax

; 40   : 	T* operator->() const {return m_pObject;}

	mov	eax, DWORD PTR [eax]
	ret	0
??C?$FactoryPtr@VIEnvDescriptorMixerRender@@@@QBEPAVIEnvDescriptorMixerRender@@XZ ENDP ; FactoryPtr<IEnvDescriptorMixerRender>::operator->
; Function compile flags: /Ogtpy
_TEXT	ENDS
;	COMDAT ??C?$FactoryPtr@VIEnvDescriptorRender@@@@QBEPAVIEnvDescriptorRender@@XZ
_TEXT	SEGMENT
??C?$FactoryPtr@VIEnvDescriptorRender@@@@QBEPAVIEnvDescriptorRender@@XZ PROC ; FactoryPtr<IEnvDescriptorRender>::operator->, COMDAT
; _this$ = eax

; 40   : 	T* operator->() const {return m_pObject;}

	mov	eax, DWORD PTR [eax]
	ret	0
??C?$FactoryPtr@VIEnvDescriptorRender@@@@QBEPAVIEnvDescriptorRender@@XZ ENDP ; FactoryPtr<IEnvDescriptorRender>::operator->
; Function compile flags: /Ogtpy
_TEXT	ENDS
;	COMDAT ??D?$FactoryPtr@VIEnvDescriptorRender@@@@QBEAAVIEnvDescriptorRender@@XZ
_TEXT	SEGMENT
??D?$FactoryPtr@VIEnvDescriptorRender@@@@QBEAAVIEnvDescriptorRender@@XZ PROC ; FactoryPtr<IEnvDescriptorRender>::operator*, COMDAT
; _this$ = eax

; 39   : 	T& operator*() const {return *m_pObject;}

	mov	eax, DWORD PTR [eax]
	ret	0
??D?$FactoryPtr@VIEnvDescriptorRender@@@@QBEAAVIEnvDescriptorRender@@XZ ENDP ; FactoryPtr<IEnvDescriptorRender>::operator*
; Function compile flags: /Ogtpy
; File d:\clearsky\sources\engine\xrcore\_vector4.h
_TEXT	ENDS
;	COMDAT ?lerp@?$_vector4@M@@QAEAAU1@ABU1@0M@Z
_TEXT	SEGMENT
?lerp@?$_vector4@M@@QAEAAU1@ABU1@0M@Z PROC		; _vector4<float>::lerp, COMDAT
; _this$ = eax
; _p1$ = edx
; _p2$ = ecx
; _t$ = xmm1s

; 52   : 		T invt = 1.f-t;
; 53   : 		x = p1.x*invt + p2.x*t;

	movss	xmm2, DWORD PTR [edx]
	movss	xmm3, DWORD PTR [ecx]
	movss	xmm0, DWORD PTR __real@3f800000
	subss	xmm0, xmm1
	mulss	xmm2, xmm0
	mulss	xmm3, xmm1
	addss	xmm2, xmm3
	movss	DWORD PTR [eax], xmm2

; 54   : 		y = p1.y*invt + p2.y*t;

	movss	xmm2, DWORD PTR [edx+4]
	movss	xmm3, DWORD PTR [ecx+4]
	mulss	xmm2, xmm0
	mulss	xmm3, xmm1
	addss	xmm2, xmm3
	movss	DWORD PTR [eax+4], xmm2

; 55   : 		z = p1.z*invt + p2.z*t;

	movss	xmm2, DWORD PTR [edx+8]
	movss	xmm3, DWORD PTR [ecx+8]
	mulss	xmm2, xmm0
	mulss	xmm3, xmm1
	addss	xmm2, xmm3
	movss	DWORD PTR [eax+8], xmm2

; 56   : 		w = p1.w*invt + p2.w*t;

	movss	xmm2, DWORD PTR [edx+12]
	mulss	xmm2, xmm0
	movss	xmm0, DWORD PTR [ecx+12]
	mulss	xmm0, xmm1
	addss	xmm2, xmm0
	movss	DWORD PTR [eax+12], xmm2

; 57   : 		return *this;	
; 58   : 	}

	ret	0
?lerp@?$_vector4@M@@QAEAAU1@ABU1@0M@Z ENDP		; _vector4<float>::lerp
; Function compile flags: /Ogtpy
_TEXT	ENDS
;	COMDAT ?mul@?$_vector4@M@@QAEAAU1@M@Z
_TEXT	SEGMENT
?mul@?$_vector4@M@@QAEAAU1@M@Z PROC			; _vector4<float>::mul, COMDAT
; _this$ = eax
; _s$ = xmm0s

; 33   : 	IC  SelfRef		mul(T s)							{ x*=s;		y*=s;		z*=s;		w*=s;		return *this; }

	movss	xmm1, DWORD PTR [eax]
	mulss	xmm1, xmm0
	movss	DWORD PTR [eax], xmm1
	movss	xmm1, DWORD PTR [eax+4]
	mulss	xmm1, xmm0
	movss	DWORD PTR [eax+4], xmm1
	movss	xmm1, DWORD PTR [eax+8]
	mulss	xmm1, xmm0
	movss	DWORD PTR [eax+8], xmm1
	movss	xmm1, DWORD PTR [eax+12]
	mulss	xmm1, xmm0
	movss	DWORD PTR [eax+12], xmm1
	ret	0
?mul@?$_vector4@M@@QAEAAU1@M@Z ENDP			; _vector4<float>::mul
; Function compile flags: /Ogtpy
_TEXT	ENDS
;	COMDAT ?set@?$_vector4@M@@QAEAAU1@MMMM@Z
_TEXT	SEGMENT
?set@?$_vector4@M@@QAEAAU1@MMMM@Z PROC			; _vector4<float>::set, COMDAT
; _this$ = eax

; 17   : 	IC	SelfRef 	set(T _x, T _y, T _z, T _w=1)		{ x=_x;		y=_y;		z=_z;		w=_w;		return *this; }

	movss	xmm0, DWORD PTR __real@3f800000
	movss	DWORD PTR [eax], xmm0
	movss	DWORD PTR [eax+4], xmm0
	movss	DWORD PTR [eax+8], xmm0
	movss	DWORD PTR [eax+12], xmm0
	ret	0
?set@?$_vector4@M@@QAEAAU1@MMMM@Z ENDP			; _vector4<float>::set
; Function compile flags: /Ogtpy
; File d:\clearsky\sources\engine\xrcore\_vector3d.h
_TEXT	ENDS
;	COMDAT ?mad@?$_vector3@M@@QAEAAU1@ABU1@M@Z
_TEXT	SEGMENT
?mad@?$_vector3@M@@QAEAAU1@ABU1@M@Z PROC		; _vector3<float>::mad, COMDAT
; _this$ = eax
; _d$ = ecx
; _m$ = xmm0s

; 137  : 		x += d.x*m;

	movss	xmm1, DWORD PTR [ecx]
	mulss	xmm1, xmm0
	addss	xmm1, DWORD PTR [eax]
	movss	DWORD PTR [eax], xmm1

; 138  : 		y += d.y*m;

	movss	xmm1, DWORD PTR [ecx+4]
	mulss	xmm1, xmm0
	addss	xmm1, DWORD PTR [eax+4]
	movss	DWORD PTR [eax+4], xmm1

; 139  : 		z += d.z*m;

	movss	xmm1, DWORD PTR [ecx+8]
	mulss	xmm1, xmm0
	addss	xmm1, DWORD PTR [eax+8]
	movss	DWORD PTR [eax+8], xmm1

; 140  : 		return *this;	
; 141  : 	}

	ret	0
?mad@?$_vector3@M@@QAEAAU1@ABU1@M@Z ENDP		; _vector3<float>::mad
; Function compile flags: /Ogtpy
_TEXT	ENDS
;	COMDAT ?lerp@?$_vector3@M@@QAEAAU1@ABU1@0M@Z
_TEXT	SEGMENT
?lerp@?$_vector3@M@@QAEAAU1@ABU1@0M@Z PROC		; _vector3<float>::lerp, COMDAT
; _this$ = eax
; _p1$ = edx
; _p2$ = ecx
; _t$ = xmm1s

; 127  : 		T invt = 1.f-t;
; 128  : 		x = p1.x*invt + p2.x*t;

	movss	xmm2, DWORD PTR [edx]
	movss	xmm3, DWORD PTR [ecx]
	movss	xmm0, DWORD PTR __real@3f800000
	subss	xmm0, xmm1
	mulss	xmm2, xmm0
	mulss	xmm3, xmm1
	addss	xmm2, xmm3
	movss	DWORD PTR [eax], xmm2

; 129  : 		y = p1.y*invt + p2.y*t;

	movss	xmm2, DWORD PTR [edx+4]
	movss	xmm3, DWORD PTR [ecx+4]
	mulss	xmm2, xmm0
	mulss	xmm3, xmm1
	addss	xmm2, xmm3
	movss	DWORD PTR [eax+4], xmm2

; 130  : 		z = p1.z*invt + p2.z*t;

	movss	xmm2, DWORD PTR [edx+8]
	mulss	xmm2, xmm0
	movss	xmm0, DWORD PTR [ecx+8]
	mulss	xmm0, xmm1
	addss	xmm2, xmm0
	movss	DWORD PTR [eax+8], xmm2

; 131  : 		return *this;	
; 132  : 	}

	ret	0
?lerp@?$_vector3@M@@QAEAAU1@ABU1@0M@Z ENDP		; _vector3<float>::lerp
_TEXT	ENDS
PUBLIC	?clear@CEnvDescriptorMixer@@QAEXXZ		; CEnvDescriptorMixer::clear
; Function compile flags: /Ogtpy
; File d:\clearsky\sources\engine\xrengine\environment_misc.cpp
;	COMDAT ?clear@CEnvDescriptorMixer@@QAEXXZ
_TEXT	SEGMENT
?clear@CEnvDescriptorMixer@@QAEXXZ PROC			; CEnvDescriptorMixer::clear, COMDAT
; _this$ = ecx

; 366  : 	m_pDescriptorMixer->Clear();

	mov	ecx, DWORD PTR [ecx+188]
	mov	eax, DWORD PTR [ecx]
	mov	edx, DWORD PTR [eax+12]
	jmp	edx
?clear@CEnvDescriptorMixer@@QAEXXZ ENDP			; CEnvDescriptorMixer::clear
_TEXT	ENDS
PUBLIC	?on_device_destroy@CEnvDescriptor@@QAEXXZ	; CEnvDescriptor::on_device_destroy
; Function compile flags: /Ogtpy
;	COMDAT ?on_device_destroy@CEnvDescriptor@@QAEXXZ
_TEXT	SEGMENT
?on_device_destroy@CEnvDescriptor@@QAEXXZ PROC		; CEnvDescriptor::on_device_destroy, COMDAT
; _this$ = ecx

; 330  : 	m_pDescriptor->OnDeviceDestroy();

	mov	ecx, DWORD PTR [ecx+20]
	mov	eax, DWORD PTR [ecx]
	mov	edx, DWORD PTR [eax+12]
	jmp	edx
?on_device_destroy@CEnvDescriptor@@QAEXXZ ENDP		; CEnvDescriptor::on_device_destroy
_TEXT	ENDS
PUBLIC	?on_device_create@CEnvDescriptor@@QAEXXZ	; CEnvDescriptor::on_device_create
; Function compile flags: /Ogtpy
;	COMDAT ?on_device_create@CEnvDescriptor@@QAEXXZ
_TEXT	SEGMENT
?on_device_create@CEnvDescriptor@@QAEXXZ PROC		; CEnvDescriptor::on_device_create, COMDAT
; _this$ = ecx

; 314  : {

	mov	eax, ecx

; 315  : 	m_pDescriptor->OnDeviceCreate(*this);

	mov	ecx, DWORD PTR [eax+20]
	mov	edx, DWORD PTR [ecx]
	push	eax
	mov	eax, DWORD PTR [edx+8]
	call	eax

; 316  : 	/*
; 317  : 	if (sky_texture_name.size())	
; 318  : 		sky_texture.create		(sky_texture_name.c_str());
; 319  : 
; 320  : 	if (sky_texture_env_name.size())
; 321  : 		sky_texture_env.create	(sky_texture_env_name.c_str());
; 322  : 
; 323  : 	if (clouds_texture_name.size())	
; 324  : 		clouds_texture.create	(clouds_texture_name.c_str());
; 325  : 		*/
; 326  : }

	ret	0
?on_device_create@CEnvDescriptor@@QAEXXZ ENDP		; CEnvDescriptor::on_device_create
_TEXT	ENDS
PUBLIC	?load@CEnvModifier@@QAEXPAVIReader@@I@Z		; CEnvModifier::load
; Function compile flags: /Ogtpy
;	COMDAT ?load@CEnvModifier@@QAEXPAVIReader@@I@Z
_TEXT	SEGMENT
_fs$ = 8						; size = 4
_version$ = 12						; size = 4
?load@CEnvModifier@@QAEXPAVIReader@@I@Z PROC		; CEnvModifier::load, COMDAT
; _this$ = ecx

; 16   : {

	push	esi
	push	edi

; 17   : 	use_flags.one					();
; 18   : 	fs->r_fvector3	(position);

	mov	edi, DWORD PTR _fs$[esp+4]
	mov	esi, ecx
	push	esi
	mov	ecx, edi
	mov	WORD PTR [esi+76], 65535		; 0000ffffH
	call	DWORD PTR __imp_?r_fvector3@?$IReaderBase@VIReader@@@@QAEXAAU?$_vector3@M@@@Z

; 19   : 	radius			= fs->r_float	();

	mov	ecx, edi
	call	DWORD PTR __imp_?r_float@?$IReaderBase@VIReader@@@@QAEMXZ
	fstp	DWORD PTR [esi+12]

; 20   : 	power			= fs->r_float	();

	mov	ecx, edi
	call	DWORD PTR __imp_?r_float@?$IReaderBase@VIReader@@@@QAEMXZ
	fstp	DWORD PTR [esi+16]

; 21   : 	far_plane		= fs->r_float	();

	mov	ecx, edi
	call	DWORD PTR __imp_?r_float@?$IReaderBase@VIReader@@@@QAEMXZ
	fstp	DWORD PTR [esi+20]

; 22   : 	fs->r_fvector3	(fog_color);

	lea	eax, DWORD PTR [esi+24]
	push	eax
	mov	ecx, edi
	call	DWORD PTR __imp_?r_fvector3@?$IReaderBase@VIReader@@@@QAEXAAU?$_vector3@M@@@Z

; 23   : 	fog_density		= fs->r_float	();

	mov	ecx, edi
	call	DWORD PTR __imp_?r_float@?$IReaderBase@VIReader@@@@QAEMXZ
	fstp	DWORD PTR [esi+36]

; 24   : 	fs->r_fvector3	(ambient);

	lea	ecx, DWORD PTR [esi+40]
	push	ecx
	mov	ecx, edi
	call	DWORD PTR __imp_?r_fvector3@?$IReaderBase@VIReader@@@@QAEXAAU?$_vector3@M@@@Z

; 25   : 	fs->r_fvector3	(sky_color);

	lea	edx, DWORD PTR [esi+52]
	push	edx
	mov	ecx, edi
	call	DWORD PTR __imp_?r_fvector3@?$IReaderBase@VIReader@@@@QAEXAAU?$_vector3@M@@@Z

; 26   : 	fs->r_fvector3	(hemi_color);

	lea	eax, DWORD PTR [esi+64]
	push	eax
	mov	ecx, edi
	call	DWORD PTR __imp_?r_fvector3@?$IReaderBase@VIReader@@@@QAEXAAU?$_vector3@M@@@Z

; 27   : 
; 28   : 	if(version>=0x0016)

	cmp	DWORD PTR _version$[esp+4], 22		; 00000016H
	jb	SHORT $LN6@load

; 29   : 	{
; 30   : 		use_flags.assign(fs->r_u16());

	mov	ecx, edi
	call	DWORD PTR __imp_?r_u16@?$IReaderBase@VIReader@@@@QAEGXZ
	mov	WORD PTR [esi+76], ax
$LN6@load:
	pop	edi
	pop	esi

; 31   : 	}
; 32   : }

	ret	8
?load@CEnvModifier@@QAEXPAVIReader@@I@Z ENDP		; CEnvModifier::load
; Function compile flags: /Ogtpy
; File d:\clearsky\sources\sdk\include\stlport\stl\_construct.h
;	COMDAT ??$_Param_Construct@PAXPAX@stlp_std@@YAXPAPAXABQAX@Z
_TEXT	SEGMENT
??$_Param_Construct@PAXPAX@stlp_std@@YAXPAPAXABQAX@Z PROC ; stlp_std::_Param_Construct<void *,void *>, COMDAT
; ___p$ = eax
; ___val$ = ecx

; 118  : #if defined (_STLP_DEBUG_UNINITIALIZED)
; 119  :   memset((char*)__p, _STLP_SHRED_BYTE, sizeof(_T1));
; 120  : #endif
; 121  :   _STLP_PLACEMENT_NEW (__p) _T1(__val);

	test	eax, eax
	je	SHORT $LN3@Param_Cons@7
	mov	edx, DWORD PTR [ecx]
	mov	DWORD PTR [eax], edx
$LN3@Param_Cons@7:

; 122  : }

	ret	0
??$_Param_Construct@PAXPAX@stlp_std@@YAXPAPAXABQAX@Z ENDP ; stlp_std::_Param_Construct<void *,void *>
; Function compile flags: /Ogtpy
; File d:\clearsky\sources\sdk\include\stlport\stl\_uninitialized.h
_TEXT	ENDS
;	COMDAT ??$__ufill@PAPAXPAXH@priv@stlp_std@@YAXPAPAX0ABQAXABUrandom_access_iterator_tag@1@PAH@Z
_TEXT	SEGMENT
??$__ufill@PAPAXPAXH@priv@stlp_std@@YAXPAPAX0ABQAXABUrandom_access_iterator_tag@1@PAH@Z PROC ; stlp_std::priv::__ufill<void * *,void *,int>, COMDAT
; ___first$ = ecx
; ___last$ = eax
; ___x$ = edx

; 247  :   _ForwardIter __cur = __first;
; 248  :   _STLP_TRY {
; 249  :     for (_Distance __n = __last - __first; __n > 0; --__n, ++__cur)

	sub	eax, ecx
	sar	eax, 2
	test	eax, eax
	jle	SHORT $LN1@ufill@5
	push	esi
	npad	6
$LL3@ufill@5:

; 250  :       _Param_Construct(&*__cur, __x);

	test	ecx, ecx
	je	SHORT $LN2@ufill@5
	mov	esi, DWORD PTR [edx]
	mov	DWORD PTR [ecx], esi
$LN2@ufill@5:
	sub	eax, 1
	add	ecx, 4
	test	eax, eax
	jg	SHORT $LL3@ufill@5
	pop	esi
$LN1@ufill@5:

; 251  :   }
; 252  :   _STLP_UNWIND(_STLP_STD::_Destroy_Range(__first, __cur))
; 253  : }

	ret	0
??$__ufill@PAPAXPAXH@priv@stlp_std@@YAXPAPAX0ABQAXABUrandom_access_iterator_tag@1@PAH@Z ENDP ; stlp_std::priv::__ufill<void * *,void *,int>
; Function compile flags: /Ogtpy
; File d:\clearsky\sources\sdk\include\stlport\stl\pointers\_vector.h
_TEXT	ENDS
;	COMDAT ?end@?$vector@PAUSEffect@CEnvAmbient@@V?$xalloc@PAUSEffect@CEnvAmbient@@@@@stlp_std@@QAEPAPAUSEffect@CEnvAmbient@@XZ
_TEXT	SEGMENT
?end@?$vector@PAUSEffect@CEnvAmbient@@V?$xalloc@PAUSEffect@CEnvAmbient@@@@@stlp_std@@QAEPAPAUSEffect@CEnvAmbient@@XZ PROC ; stlp_std::vector<CEnvAmbient::SEffect *,xalloc<CEnvAmbient::SEffect *> >::end, COMDAT
; _this$ = eax

; 81   :   iterator end()               { return cast_traits::to_value_type_ptr(_M_impl.end()); }

	mov	eax, DWORD PTR [eax+4]
	push	eax
	call	?to_value_type_ptr@?$_CastTraits@PAXPAUSEffect@CEnvAmbient@@@priv@stlp_std@@SAPAPAUSEffect@CEnvAmbient@@PAPAX@Z ; stlp_std::priv::_CastTraits<void *,CEnvAmbient::SEffect *>::to_value_type_ptr
	add	esp, 4
	ret	0
?end@?$vector@PAUSEffect@CEnvAmbient@@V?$xalloc@PAUSEffect@CEnvAmbient@@@@@stlp_std@@QAEPAPAUSEffect@CEnvAmbient@@XZ ENDP ; stlp_std::vector<CEnvAmbient::SEffect *,xalloc<CEnvAmbient::SEffect *> >::end
; Function compile flags: /Ogtpy
; File d:\clearsky\sources\sdk\include\stlport\stl\_uninitialized.h
_TEXT	ENDS
;	COMDAT ??$__uninitialized_fill_n@PAPAXIPAX@priv@stlp_std@@YAPAPAXPAPAXIABQAX@Z
_TEXT	SEGMENT
??$__uninitialized_fill_n@PAPAXIPAX@priv@stlp_std@@YAPAPAXPAPAXIABQAX@Z PROC ; stlp_std::priv::__uninitialized_fill_n<void * *,unsigned int,void *>, COMDAT
; ___first$ = edx
; ___n$ = eax
; ___x$ = esi

; 314  :   _ForwardIter __last = __first + __n;

	lea	eax, DWORD PTR [edx+eax*4]

; 315  :   __ufill(__first, __last, __x, random_access_iterator_tag(), (ptrdiff_t*)0);

	mov	ecx, eax
	sub	ecx, edx
	sar	ecx, 2
	test	ecx, ecx
	jle	SHORT $LN3@uninitiali@4
	push	edi
	npad	1
$LL5@uninitiali@4:
	test	edx, edx
	je	SHORT $LN4@uninitiali@4
	mov	edi, DWORD PTR [esi]
	mov	DWORD PTR [edx], edi
$LN4@uninitiali@4:
	sub	ecx, 1
	add	edx, 4
	test	ecx, ecx
	jg	SHORT $LL5@uninitiali@4
	pop	edi
$LN3@uninitiali@4:

; 316  :   return __last;
; 317  : }

	ret	0
??$__uninitialized_fill_n@PAPAXIPAX@priv@stlp_std@@YAPAPAXPAPAXIABQAX@Z ENDP ; stlp_std::priv::__uninitialized_fill_n<void * *,unsigned int,void *>
; Function compile flags: /Ogtpy
; File d:\clearsky\sources\sdk\include\stlport\stl\_tree.h
_TEXT	ENDS
;	COMDAT ??F?$_Rb_tree_iterator@U?$pair@$$CBVshared_str@@V?$xr_vector@PAVCEnvDescriptor@@V?$xalloc@PAVCEnvDescriptor@@@@@@@stlp_std@@U?$_MapTraitsT@U?$pair@$$CBVshared_str@@V?$xr_vector@PAVCEnvDescriptor@@V?$xalloc@PAVCEnvDescriptor@@@@@@@stlp_std@@@priv@2@@priv@stlp_std@@QAEAAU012@XZ
_TEXT	SEGMENT
??F?$_Rb_tree_iterator@U?$pair@$$CBVshared_str@@V?$xr_vector@PAVCEnvDescriptor@@V?$xalloc@PAVCEnvDescriptor@@@@@@@stlp_std@@U?$_MapTraitsT@U?$pair@$$CBVshared_str@@V?$xr_vector@PAVCEnvDescriptor@@V?$xalloc@PAVCEnvDescriptor@@@@@@@stlp_std@@@priv@2@@priv@stlp_std@@QAEAAU012@XZ PROC ; stlp_std::priv::_Rb_tree_iterator<stlp_std::pair<shared_str const ,xr_vector<CEnvDescriptor *,xalloc<CEnvDescriptor *> > >,stlp_std::priv::_MapTraitsT<stlp_std::pair<shared_str const ,xr_vector<CEnvDescriptor *,xalloc<CEnvDescriptor *> > > > >::operator--, COMDAT
; _this$ = esi

; 187  :     _M_node = _Rb_global_inst::_M_decrement(_M_node);

	mov	eax, DWORD PTR [esi]
	push	eax
	call	?_M_decrement@?$_Rb_global@_N@priv@stlp_std@@SAPAU_Rb_tree_node_base@23@PAU423@@Z ; stlp_std::priv::_Rb_global<bool>::_M_decrement
	mov	DWORD PTR [esi], eax
	add	esp, 4

; 188  :     return *this;

	mov	eax, esi

; 189  :   }

	ret	0
??F?$_Rb_tree_iterator@U?$pair@$$CBVshared_str@@V?$xr_vector@PAVCEnvDescriptor@@V?$xalloc@PAVCEnvDescriptor@@@@@@@stlp_std@@U?$_MapTraitsT@U?$pair@$$CBVshared_str@@V?$xr_vector@PAVCEnvDescriptor@@V?$xalloc@PAVCEnvDescriptor@@@@@@@stlp_std@@@priv@2@@priv@stlp_std@@QAEAAU012@XZ ENDP ; stlp_std::priv::_Rb_tree_iterator<stlp_std::pair<shared_str const ,xr_vector<CEnvDescriptor *,xalloc<CEnvDescriptor *> > >,stlp_std::priv::_MapTraitsT<stlp_std::pair<shared_str const ,xr_vector<CEnvDescriptor *,xalloc<CEnvDescriptor *> > > > >::operator--
; Function compile flags: /Ogtpy
; File d:\clearsky\sources\sdk\include\stlport\stl\_vector.c
_TEXT	ENDS
;	COMDAT ?_M_throw_length_error@?$_Vector_base@PAXV?$xalloc@PAX@@@priv@stlp_std@@IBEXXZ
_TEXT	SEGMENT
?_M_throw_length_error@?$_Vector_base@PAXV?$xalloc@PAX@@@priv@stlp_std@@IBEXXZ PROC ; stlp_std::priv::_Vector_base<void *,xalloc<void *> >::_M_throw_length_error, COMDAT

; 41   :   __stl_throw_length_error("vector");

	push	OFFSET ??_C@_06NBFPPGEG@vector?$AA@
	call	DWORD PTR __imp__puts
	add	esp, 4
	jmp	DWORD PTR __imp__abort
?_M_throw_length_error@?$_Vector_base@PAXV?$xalloc@PAX@@@priv@stlp_std@@IBEXXZ ENDP ; stlp_std::priv::_Vector_base<void *,xalloc<void *> >::_M_throw_length_error
; Function compile flags: /Ogtpy
; File d:\clearsky\sources\sdk\include\stlport\stl\_algobase.h
_TEXT	ENDS
;	COMDAT ??$__copy_ptrs@PAVCEnvModifier@@PAV1@@priv@stlp_std@@YAPAVCEnvModifier@@PAV2@00ABU__true_type@1@@Z
_TEXT	SEGMENT
??$__copy_ptrs@PAVCEnvModifier@@PAV1@@priv@stlp_std@@YAPAVCEnvModifier@@PAV2@00ABU__true_type@1@@Z PROC ; stlp_std::priv::__copy_ptrs<CEnvModifier *,CEnvModifier *>, COMDAT
; ___first$ = edx
; ___last$ = ecx
; ___result$ = eax

; 255  :   // we know they all pointers, so this cast is OK
; 256  :   //  return (_OutputIter)__copy_trivial(&(*__first), &(*__last), &(*__result));
; 257  :   return (_OutputIter)__copy_trivial(__first, __last, __result);

	sub	ecx, edx
	push	esi
	mov	esi, ecx
	je	SHORT $LN6@copy_ptrs@18
	push	esi
	push	edx
	push	eax
	call	DWORD PTR __imp__memmove
	add	esp, 12					; 0000000cH
	add	eax, esi
$LN6@copy_ptrs@18:
	pop	esi

; 258  : }

	ret	0
??$__copy_ptrs@PAVCEnvModifier@@PAV1@@priv@stlp_std@@YAPAVCEnvModifier@@PAV2@00ABU__true_type@1@@Z ENDP ; stlp_std::priv::__copy_ptrs<CEnvModifier *,CEnvModifier *>
; Function compile flags: /Ogtpy
; File d:\clearsky\sources\sdk\include\stlport\stl\_construct.h
_TEXT	ENDS
;	COMDAT ??$_Copy_Construct@VCEnvModifier@@@stlp_std@@YAXPAVCEnvModifier@@ABV1@@Z
_TEXT	SEGMENT
??$_Copy_Construct@VCEnvModifier@@@stlp_std@@YAXPAVCEnvModifier@@ABV1@@Z PROC ; stlp_std::_Copy_Construct<CEnvModifier>, COMDAT
; ___p$ = eax
; ___val$ = edx

; 109  : inline void _Copy_Construct(_Tp* __p, const _Tp& __val) {

	push	edi
	mov	edi, eax

; 110  : #if defined (_STLP_DEBUG_UNINITIALIZED)
; 111  :   memset((char*)__p, _STLP_SHRED_BYTE, sizeof(_Tp));
; 112  : #endif
; 113  :   _STLP_PLACEMENT_NEW (__p) _Tp(__val);

	test	edi, edi
	je	SHORT $LN3@Copy_Const@14
	push	esi
	mov	ecx, 20					; 00000014H
	mov	esi, edx
	rep movsd
	pop	esi
$LN3@Copy_Const@14:
	pop	edi

; 114  : }

	ret	0
??$_Copy_Construct@VCEnvModifier@@@stlp_std@@YAXPAVCEnvModifier@@ABV1@@Z ENDP ; stlp_std::_Copy_Construct<CEnvModifier>
; Function compile flags: /Ogtpy
; File d:\clearsky\sources\engine\xrcore\_std_extensions.h
_TEXT	ENDS
;	COMDAT ??$xr_strcat@$0CAI@@@YAHAAY0CAI@DPBD@Z
_TEXT	SEGMENT
??$xr_strcat@$0CAI@@@YAHAAY0CAI@DPBD@Z PROC		; xr_strcat<520>, COMDAT
; _destination$ = edx

; 263  : 	return						xr_strcat( destination, count, source );

	mov	eax, edx
	push	esi
	lea	esi, DWORD PTR [eax+1]
$LL13@xr_strcat@2:
	mov	cl, BYTE PTR [eax]
	add	eax, 1
	test	cl, cl
	jne	SHORT $LL13@xr_strcat@2
	sub	eax, esi
	add	eax, edx
	lea	esi, DWORD PTR [edx+519]
	cmp	eax, esi
	ja	SHORT $LN14@xr_strcat@2
	mov	ecx, OFFSET ??_C@_04ICMCOCEO@?4ltx?$AA@
	sub	ecx, eax
$LL5@xr_strcat@2:
	cmp	eax, esi
	je	SHORT $LN3@xr_strcat@2
	mov	dl, BYTE PTR [ecx+eax]
	mov	BYTE PTR [eax], dl
	add	eax, 1
	cmp	BYTE PTR [ecx+eax], 0
	jne	SHORT $LL5@xr_strcat@2
$LN3@xr_strcat@2:
	mov	BYTE PTR [eax], 0
$LN14@xr_strcat@2:
	xor	eax, eax
	pop	esi

; 264  : }

	ret	0
??$xr_strcat@$0CAI@@@YAHAAY0CAI@DPBD@Z ENDP		; xr_strcat<520>
; Function compile flags: /Ogtpy
; File d:\clearsky\sources\sdk\include\stlport\stl\_vector.h
_TEXT	ENDS
;	COMDAT ?_M_erase@?$_Impl_vector@VCEnvModifier@@V?$xalloc@VCEnvModifier@@@@@priv@stlp_std@@AAEPAVCEnvModifier@@PAV4@0ABU__false_type@3@@Z
_TEXT	SEGMENT
_this$ = 8						; size = 4
?_M_erase@?$_Impl_vector@VCEnvModifier@@V?$xalloc@VCEnvModifier@@@@@priv@stlp_std@@AAEPAVCEnvModifier@@PAV4@0ABU__false_type@3@@Z PROC ; stlp_std::priv::_Impl_vector<CEnvModifier,xalloc<CEnvModifier> >::_M_erase, COMDAT
; ___first$ = ebx
; ___last$ = eax

; 578  :   iterator _M_erase(iterator __first, iterator __last, const __false_type& /*_Movable*/) {

	push	ebp
	mov	ebp, DWORD PTR _this$[esp]
	push	esi
	push	edi

; 579  :     pointer __i = _STLP_PRIV __copy_ptrs(__last, this->_M_finish, __first, _TrivialCopy());

	mov	edi, DWORD PTR [ebp+4]
	sub	edi, eax
	je	SHORT $LN7@M_erase@15
	push	edi
	push	eax
	push	ebx
	call	DWORD PTR __imp__memmove
	mov	esi, eax
	add	esp, 12					; 0000000cH
	add	esi, edi
	jmp	SHORT $LN8@M_erase@15
$LN7@M_erase@15:
	mov	esi, ebx
$LN8@M_erase@15:

; 580  :     _STLP_STD::_Destroy_Range(__i, this->_M_finish);

	mov	eax, DWORD PTR [ebp+4]
	push	eax
	push	esi
	call	??$_Destroy_Range@PAVCEnvModifier@@@stlp_std@@YAXPAVCEnvModifier@@0@Z ; stlp_std::_Destroy_Range<CEnvModifier *>
	add	esp, 8
	pop	edi

; 581  :     this->_M_finish = __i;

	mov	DWORD PTR [ebp+4], esi
	pop	esi

; 582  :     return __first;

	mov	eax, ebx
	pop	ebp

; 583  :   }

	ret	4
?_M_erase@?$_Impl_vector@VCEnvModifier@@V?$xalloc@VCEnvModifier@@@@@priv@stlp_std@@AAEPAVCEnvModifier@@PAV4@0ABU__false_type@3@@Z ENDP ; stlp_std::priv::_Impl_vector<CEnvModifier,xalloc<CEnvModifier> >::_M_erase
; Function compile flags: /Ogtpy
_TEXT	ENDS
;	COMDAT ?erase@?$_Impl_vector@VCEnvModifier@@V?$xalloc@VCEnvModifier@@@@@priv@stlp_std@@QAEPAVCEnvModifier@@PAV4@0@Z
_TEXT	SEGMENT
_this$ = 8						; size = 4
?erase@?$_Impl_vector@VCEnvModifier@@V?$xalloc@VCEnvModifier@@@@@priv@stlp_std@@QAEPAVCEnvModifier@@PAV4@0@Z PROC ; stlp_std::priv::_Impl_vector<CEnvModifier,xalloc<CEnvModifier> >::erase, COMDAT
; ___first$ = ebx
; ___last$ = eax

; 590  :     if (__first == __last)

	cmp	ebx, eax
	push	ebp
	mov	ebp, DWORD PTR _this$[esp]

; 591  :       return __first;

	je	SHORT $LN18@erase@18
	push	esi
	push	edi

; 592  :     return _M_erase(__first, __last, _Movable());

	mov	edi, DWORD PTR [ebp+4]
	sub	edi, eax
	je	SHORT $LN10@erase@18
	push	edi
	push	eax
	push	ebx
	call	DWORD PTR __imp__memmove
	mov	esi, eax
	add	esp, 12					; 0000000cH
	add	esi, edi
	jmp	SHORT $LN11@erase@18
$LN10@erase@18:
	mov	esi, ebx
$LN11@erase@18:
	mov	eax, DWORD PTR [ebp+4]
	push	eax
	push	esi
	call	??$_Destroy_Range@PAVCEnvModifier@@@stlp_std@@YAXPAVCEnvModifier@@0@Z ; stlp_std::_Destroy_Range<CEnvModifier *>
	add	esp, 8
	pop	edi
	mov	DWORD PTR [ebp+4], esi
	pop	esi
$LN18@erase@18:
	mov	eax, ebx
	pop	ebp

; 593  :   }

	ret	4
?erase@?$_Impl_vector@VCEnvModifier@@V?$xalloc@VCEnvModifier@@@@@priv@stlp_std@@QAEPAVCEnvModifier@@PAV4@0@Z ENDP ; stlp_std::priv::_Impl_vector<CEnvModifier,xalloc<CEnvModifier> >::erase
; Function compile flags: /Ogtpy
; File d:\clearsky\sources\sdk\include\stlport\stl\pointers\_tools.h
_TEXT	ENDS
;	COMDAT ?to_value_type_ptr@?$_CastTraits@PAXPAUSSndChannel@CEnvAmbient@@@priv@stlp_std@@SAPAPAUSSndChannel@CEnvAmbient@@PAPAX@Z
_TEXT	SEGMENT
?to_value_type_ptr@?$_CastTraits@PAXPAUSSndChannel@CEnvAmbient@@@priv@stlp_std@@SAPAPAUSSndChannel@CEnvAmbient@@PAPAX@Z PROC ; stlp_std::priv::_CastTraits<void *,CEnvAmbient::SSndChannel *>::to_value_type_ptr, COMDAT
; ___ptr$ = eax

; 207  :   { return __REINTERPRET_CAST(value_type *, cv_traits::cv_ptr(__ptr)); }

	push	eax
	call	?cv_ptr@?$_VoidCastTraitsAux@PAXPAX@priv@stlp_std@@SAPAPAXPAPAX@Z ; stlp_std::priv::_VoidCastTraitsAux<void *,void *>::cv_ptr
	add	esp, 4
	ret	0
?to_value_type_ptr@?$_CastTraits@PAXPAUSSndChannel@CEnvAmbient@@@priv@stlp_std@@SAPAPAUSSndChannel@CEnvAmbient@@PAPAX@Z ENDP ; stlp_std::priv::_CastTraits<void *,CEnvAmbient::SSndChannel *>::to_value_type_ptr
; Function compile flags: /Ogtpy
; File d:\clearsky\sources\sdk\include\stlport\stl\_vector.h
_TEXT	ENDS
;	COMDAT ?clear@?$_Impl_vector@VCEnvModifier@@V?$xalloc@VCEnvModifier@@@@@priv@stlp_std@@QAEXXZ
_TEXT	SEGMENT
_this$ = 8						; size = 4
?clear@?$_Impl_vector@VCEnvModifier@@V?$xalloc@VCEnvModifier@@@@@priv@stlp_std@@QAEXXZ PROC ; stlp_std::priv::_Impl_vector<CEnvModifier,xalloc<CEnvModifier> >::clear, COMDAT

; 610  :   void clear() {

	push	ebx
	push	ebp
	mov	ebp, DWORD PTR _this$[esp+4]

; 611  :     erase(begin(), end());

	mov	ecx, ebp
	call	?end@?$_Impl_vector@VCEnvModifier@@V?$xalloc@VCEnvModifier@@@@@priv@stlp_std@@QAEPAVCEnvModifier@@XZ ; stlp_std::priv::_Impl_vector<CEnvModifier,xalloc<CEnvModifier> >::end
	mov	ecx, ebp
	mov	ebx, eax
	call	?begin@?$_Impl_vector@VCEnvModifier@@V?$xalloc@VCEnvModifier@@@@@priv@stlp_std@@QAEPAVCEnvModifier@@XZ ; stlp_std::priv::_Impl_vector<CEnvModifier,xalloc<CEnvModifier> >::begin
	cmp	eax, ebx
	je	SHORT $LN10@clear@15
	push	esi
	push	edi
	mov	edi, DWORD PTR [ebp+4]
	sub	edi, ebx
	je	SHORT $LN16@clear@15
	push	edi
	push	ebx
	push	eax
	call	DWORD PTR __imp__memmove
	mov	esi, eax
	add	esp, 12					; 0000000cH
	add	esi, edi
	jmp	SHORT $LN17@clear@15
$LN16@clear@15:
	mov	esi, eax
$LN17@clear@15:
	mov	eax, DWORD PTR [ebp+4]
	push	eax
	push	esi
	call	??$_Destroy_Range@PAVCEnvModifier@@@stlp_std@@YAXPAVCEnvModifier@@0@Z ; stlp_std::_Destroy_Range<CEnvModifier *>
	add	esp, 8
	pop	edi
	mov	DWORD PTR [ebp+4], esi
	pop	esi
$LN10@clear@15:
	pop	ebp
	pop	ebx

; 612  :   }

	ret	4
?clear@?$_Impl_vector@VCEnvModifier@@V?$xalloc@VCEnvModifier@@@@@priv@stlp_std@@QAEXXZ ENDP ; stlp_std::priv::_Impl_vector<CEnvModifier,xalloc<CEnvModifier> >::clear
; Function compile flags: /Ogtpy
; File d:\clearsky\sources\sdk\include\stlport\stl\pointers\_tools.h
_TEXT	ENDS
;	COMDAT ?to_storage_type_cref@?$_CastTraits@PAXPAVCEnvDescriptor@@@priv@stlp_std@@SAABQAXABQAVCEnvDescriptor@@@Z
_TEXT	SEGMENT
?to_storage_type_cref@?$_CastTraits@PAXPAVCEnvDescriptor@@@priv@stlp_std@@SAABQAXABQAVCEnvDescriptor@@@Z PROC ; stlp_std::priv::_CastTraits<void *,CEnvDescriptor *>::to_storage_type_cref, COMDAT
; ___ref$ = eax

; 224  :   { return cv_traits::uncv_cref(__REINTERPRET_CAST(void_cv_type const&, __ref)); }

	ret	0
?to_storage_type_cref@?$_CastTraits@PAXPAVCEnvDescriptor@@@priv@stlp_std@@SAABQAXABQAVCEnvDescriptor@@@Z ENDP ; stlp_std::priv::_CastTraits<void *,CEnvDescriptor *>::to_storage_type_cref
; Function compile flags: /Ogtpy
_TEXT	ENDS
;	COMDAT ?to_storage_type_cref@?$_CastTraits@PAXPAVCEnvAmbient@@@priv@stlp_std@@SAABQAXABQAVCEnvAmbient@@@Z
_TEXT	SEGMENT
?to_storage_type_cref@?$_CastTraits@PAXPAVCEnvAmbient@@@priv@stlp_std@@SAABQAXABQAVCEnvAmbient@@@Z PROC ; stlp_std::priv::_CastTraits<void *,CEnvAmbient *>::to_storage_type_cref, COMDAT
; ___ref$ = eax

; 224  :   { return cv_traits::uncv_cref(__REINTERPRET_CAST(void_cv_type const&, __ref)); }

	ret	0
?to_storage_type_cref@?$_CastTraits@PAXPAVCEnvAmbient@@@priv@stlp_std@@SAABQAXABQAVCEnvAmbient@@@Z ENDP ; stlp_std::priv::_CastTraits<void *,CEnvAmbient *>::to_storage_type_cref
; Function compile flags: /Ogtpy
_TEXT	ENDS
;	COMDAT ?to_value_type_ref@?$_CastTraits@PAXPAVCEnvAmbient@@@priv@stlp_std@@SAAAPAVCEnvAmbient@@AAPAX@Z
_TEXT	SEGMENT
?to_value_type_ref@?$_CastTraits@PAXPAVCEnvAmbient@@@priv@stlp_std@@SAAAPAVCEnvAmbient@@AAPAX@Z PROC ; stlp_std::priv::_CastTraits<void *,CEnvAmbient *>::to_value_type_ref, COMDAT
; ___ref$ = eax

; 213  :   { return __REINTERPRET_CAST(value_type &, cv_traits::cv_ref(__ref)); }

	ret	0
?to_value_type_ref@?$_CastTraits@PAXPAVCEnvAmbient@@@priv@stlp_std@@SAAAPAVCEnvAmbient@@AAPAX@Z ENDP ; stlp_std::priv::_CastTraits<void *,CEnvAmbient *>::to_value_type_ref
; Function compile flags: /Ogtpy
_TEXT	ENDS
;	COMDAT ?to_value_type_ptr@?$_CastTraits@PAXPAVCEnvAmbient@@@priv@stlp_std@@SAPAPAVCEnvAmbient@@PAPAX@Z
_TEXT	SEGMENT
?to_value_type_ptr@?$_CastTraits@PAXPAVCEnvAmbient@@@priv@stlp_std@@SAPAPAVCEnvAmbient@@PAPAX@Z PROC ; stlp_std::priv::_CastTraits<void *,CEnvAmbient *>::to_value_type_ptr, COMDAT
; ___ptr$ = eax

; 207  :   { return __REINTERPRET_CAST(value_type *, cv_traits::cv_ptr(__ptr)); }

	push	eax
	call	?cv_ptr@?$_VoidCastTraitsAux@PAXPAX@priv@stlp_std@@SAPAPAXPAPAX@Z ; stlp_std::priv::_VoidCastTraitsAux<void *,void *>::cv_ptr
	add	esp, 4
	ret	0
?to_value_type_ptr@?$_CastTraits@PAXPAVCEnvAmbient@@@priv@stlp_std@@SAPAPAVCEnvAmbient@@PAPAX@Z ENDP ; stlp_std::priv::_CastTraits<void *,CEnvAmbient *>::to_value_type_ptr
; Function compile flags: /Ogtpy
_TEXT	ENDS
;	COMDAT ?to_storage_type_cref@?$_CastTraits@PAXPAUSSndChannel@CEnvAmbient@@@priv@stlp_std@@SAABQAXABQAUSSndChannel@CEnvAmbient@@@Z
_TEXT	SEGMENT
?to_storage_type_cref@?$_CastTraits@PAXPAUSSndChannel@CEnvAmbient@@@priv@stlp_std@@SAABQAXABQAUSSndChannel@CEnvAmbient@@@Z PROC ; stlp_std::priv::_CastTraits<void *,CEnvAmbient::SSndChannel *>::to_storage_type_cref, COMDAT
; ___ref$ = eax

; 224  :   { return cv_traits::uncv_cref(__REINTERPRET_CAST(void_cv_type const&, __ref)); }

	ret	0
?to_storage_type_cref@?$_CastTraits@PAXPAUSSndChannel@CEnvAmbient@@@priv@stlp_std@@SAABQAXABQAUSSndChannel@CEnvAmbient@@@Z ENDP ; stlp_std::priv::_CastTraits<void *,CEnvAmbient::SSndChannel *>::to_storage_type_cref
; Function compile flags: /Ogtpy
_TEXT	ENDS
;	COMDAT ?to_storage_type_cref@?$_CastTraits@PAXPAUSEffect@CEnvAmbient@@@priv@stlp_std@@SAABQAXABQAUSEffect@CEnvAmbient@@@Z
_TEXT	SEGMENT
?to_storage_type_cref@?$_CastTraits@PAXPAUSEffect@CEnvAmbient@@@priv@stlp_std@@SAABQAXABQAUSEffect@CEnvAmbient@@@Z PROC ; stlp_std::priv::_CastTraits<void *,CEnvAmbient::SEffect *>::to_storage_type_cref, COMDAT
; ___ref$ = eax

; 224  :   { return cv_traits::uncv_cref(__REINTERPRET_CAST(void_cv_type const&, __ref)); }

	ret	0
?to_storage_type_cref@?$_CastTraits@PAXPAUSEffect@CEnvAmbient@@@priv@stlp_std@@SAABQAXABQAUSEffect@CEnvAmbient@@@Z ENDP ; stlp_std::priv::_CastTraits<void *,CEnvAmbient::SEffect *>::to_storage_type_cref
; Function compile flags: /Ogtpy
_TEXT	ENDS
;	COMDAT ?to_value_type_ptr@?$_CastTraits@PAXPAUSect@CInifile@@@priv@stlp_std@@SAPAPAUSect@CInifile@@PAPAX@Z
_TEXT	SEGMENT
?to_value_type_ptr@?$_CastTraits@PAXPAUSect@CInifile@@@priv@stlp_std@@SAPAPAUSect@CInifile@@PAPAX@Z PROC ; stlp_std::priv::_CastTraits<void *,CInifile::Sect *>::to_value_type_ptr, COMDAT
; ___ptr$ = eax

; 207  :   { return __REINTERPRET_CAST(value_type *, cv_traits::cv_ptr(__ptr)); }

	push	eax
	call	?cv_ptr@?$_VoidCastTraitsAux@PAXPAX@priv@stlp_std@@SAPAPAXPAPAX@Z ; stlp_std::priv::_VoidCastTraitsAux<void *,void *>::cv_ptr
	add	esp, 4
	ret	0
?to_value_type_ptr@?$_CastTraits@PAXPAUSect@CInifile@@@priv@stlp_std@@SAPAPAUSect@CInifile@@PAPAX@Z ENDP ; stlp_std::priv::_CastTraits<void *,CInifile::Sect *>::to_value_type_ptr
; Function compile flags: /Ogtpy
; File d:\clearsky\sources\sdk\include\stlport\stl\_tree.h
_TEXT	ENDS
;	COMDAT ??0?$_Rb_tree_iterator@U?$pair@$$CBVshared_str@@V?$xr_vector@PAVCEnvDescriptor@@V?$xalloc@PAVCEnvDescriptor@@@@@@@stlp_std@@U?$_MapTraitsT@U?$pair@$$CBVshared_str@@V?$xr_vector@PAVCEnvDescriptor@@V?$xalloc@PAVCEnvDescriptor@@@@@@@stlp_std@@@priv@2@@priv@stlp_std@@QAE@ABU012@@Z
_TEXT	SEGMENT
??0?$_Rb_tree_iterator@U?$pair@$$CBVshared_str@@V?$xr_vector@PAVCEnvDescriptor@@V?$xalloc@PAVCEnvDescriptor@@@@@@@stlp_std@@U?$_MapTraitsT@U?$pair@$$CBVshared_str@@V?$xr_vector@PAVCEnvDescriptor@@V?$xalloc@PAVCEnvDescriptor@@@@@@@stlp_std@@@priv@2@@priv@stlp_std@@QAE@ABU012@@Z PROC ; stlp_std::priv::_Rb_tree_iterator<stlp_std::pair<shared_str const ,xr_vector<CEnvDescriptor *,xalloc<CEnvDescriptor *> > >,stlp_std::priv::_MapTraitsT<stlp_std::pair<shared_str const ,xr_vector<CEnvDescriptor *,xalloc<CEnvDescriptor *> > > > >::_Rb_tree_iterator<stlp_std::pair<shared_str const ,xr_vector<CEnvDescriptor *,xalloc<CEnvDescriptor *> > >,stlp_std::priv::_MapTraitsT<stlp_std::pair<shared_str const ,xr_vector<CEnvDescriptor *,xalloc<CEnvDescriptor *> > > > >, COMDAT
; _this$ = eax
; ___it$ = ecx

; 168  :   _Rb_tree_iterator(const iterator& __it) : _Rb_tree_base_iterator(__it._M_node) {}

	mov	edx, DWORD PTR [ecx]
	mov	DWORD PTR [eax], edx
	ret	0
??0?$_Rb_tree_iterator@U?$pair@$$CBVshared_str@@V?$xr_vector@PAVCEnvDescriptor@@V?$xalloc@PAVCEnvDescriptor@@@@@@@stlp_std@@U?$_MapTraitsT@U?$pair@$$CBVshared_str@@V?$xr_vector@PAVCEnvDescriptor@@V?$xalloc@PAVCEnvDescriptor@@@@@@@stlp_std@@@priv@2@@priv@stlp_std@@QAE@ABU012@@Z ENDP ; stlp_std::priv::_Rb_tree_iterator<stlp_std::pair<shared_str const ,xr_vector<CEnvDescriptor *,xalloc<CEnvDescriptor *> > >,stlp_std::priv::_MapTraitsT<stlp_std::pair<shared_str const ,xr_vector<CEnvDescriptor *,xalloc<CEnvDescriptor *> > > > >::_Rb_tree_iterator<stlp_std::pair<shared_str const ,xr_vector<CEnvDescriptor *,xalloc<CEnvDescriptor *> > >,stlp_std::priv::_MapTraitsT<stlp_std::pair<shared_str const ,xr_vector<CEnvDescriptor *,xalloc<CEnvDescriptor *> > > > >
; Function compile flags: /Ogtpy
; File d:\clearsky\sources\sdk\include\stlport\stl\pointers\_vector.h
_TEXT	ENDS
;	COMDAT ?clear@?$vector@VCEnvModifier@@V?$xalloc@VCEnvModifier@@@@@stlp_std@@QAEXXZ
_TEXT	SEGMENT
_this$ = 8						; size = 4
?clear@?$vector@VCEnvModifier@@V?$xalloc@VCEnvModifier@@@@@stlp_std@@QAEXXZ PROC ; stlp_std::vector<CEnvModifier,xalloc<CEnvModifier> >::clear, COMDAT

; 223  :   void clear() { _M_impl.clear(); }

	push	ebx
	push	ebp
	mov	ebp, DWORD PTR _this$[esp+4]
	mov	ecx, ebp
	call	?end@?$_Impl_vector@VCEnvModifier@@V?$xalloc@VCEnvModifier@@@@@priv@stlp_std@@QAEPAVCEnvModifier@@XZ ; stlp_std::priv::_Impl_vector<CEnvModifier,xalloc<CEnvModifier> >::end
	mov	ecx, ebp
	mov	ebx, eax
	call	?begin@?$_Impl_vector@VCEnvModifier@@V?$xalloc@VCEnvModifier@@@@@priv@stlp_std@@QAEPAVCEnvModifier@@XZ ; stlp_std::priv::_Impl_vector<CEnvModifier,xalloc<CEnvModifier> >::begin
	cmp	eax, ebx
	je	SHORT $LN12@clear@16
	push	esi
	push	edi
	mov	edi, DWORD PTR [ebp+4]
	sub	edi, ebx
	je	SHORT $LN18@clear@16
	push	edi
	push	ebx
	push	eax
	call	DWORD PTR __imp__memmove
	mov	esi, eax
	add	esp, 12					; 0000000cH
	add	esi, edi
	jmp	SHORT $LN19@clear@16
$LN18@clear@16:
	mov	esi, eax
$LN19@clear@16:
	mov	eax, DWORD PTR [ebp+4]
	push	eax
	push	esi
	call	??$_Destroy_Range@PAVCEnvModifier@@@stlp_std@@YAXPAVCEnvModifier@@0@Z ; stlp_std::_Destroy_Range<CEnvModifier *>
	add	esp, 8
	pop	edi
	mov	DWORD PTR [ebp+4], esi
	pop	esi
$LN12@clear@16:
	pop	ebp
	pop	ebx
	ret	4
?clear@?$vector@VCEnvModifier@@V?$xalloc@VCEnvModifier@@@@@stlp_std@@QAEXXZ ENDP ; stlp_std::vector<CEnvModifier,xalloc<CEnvModifier> >::clear
; Function compile flags: /Ogtpy
_TEXT	ENDS
;	COMDAT ?begin@?$vector@PAUSSndChannel@CEnvAmbient@@V?$xalloc@PAUSSndChannel@CEnvAmbient@@@@@stlp_std@@QAEPAPAUSSndChannel@CEnvAmbient@@XZ
_TEXT	SEGMENT
?begin@?$vector@PAUSSndChannel@CEnvAmbient@@V?$xalloc@PAUSSndChannel@CEnvAmbient@@@@@stlp_std@@QAEPAPAUSSndChannel@CEnvAmbient@@XZ PROC ; stlp_std::vector<CEnvAmbient::SSndChannel *,xalloc<CEnvAmbient::SSndChannel *> >::begin, COMDAT
; _this$ = eax

; 79   :   iterator begin()             { return cast_traits::to_value_type_ptr(_M_impl.begin()); }

	mov	eax, DWORD PTR [eax]
	push	eax
	call	?cv_ptr@?$_VoidCastTraitsAux@PAXPAX@priv@stlp_std@@SAPAPAXPAPAX@Z ; stlp_std::priv::_VoidCastTraitsAux<void *,void *>::cv_ptr
	add	esp, 4
	ret	0
?begin@?$vector@PAUSSndChannel@CEnvAmbient@@V?$xalloc@PAUSSndChannel@CEnvAmbient@@@@@stlp_std@@QAEPAPAUSSndChannel@CEnvAmbient@@XZ ENDP ; stlp_std::vector<CEnvAmbient::SSndChannel *,xalloc<CEnvAmbient::SSndChannel *> >::begin
; Function compile flags: /Ogtpy
_TEXT	ENDS
;	COMDAT ?size@?$vector@PAUSect@CInifile@@V?$xalloc@PAUSect@CInifile@@@@@stlp_std@@QBEIXZ
_TEXT	SEGMENT
?size@?$vector@PAUSect@CInifile@@V?$xalloc@PAUSect@CInifile@@@@@stlp_std@@QBEIXZ PROC ; stlp_std::vector<CInifile::Sect *,xalloc<CInifile::Sect *> >::size, COMDAT
; _this$ = ecx

; 89   :   size_type size() const        { return _M_impl.size(); }

	mov	eax, DWORD PTR [ecx+4]
	sub	eax, DWORD PTR [ecx]
	sar	eax, 2
	ret	0
?size@?$vector@PAUSect@CInifile@@V?$xalloc@PAUSect@CInifile@@@@@stlp_std@@QBEIXZ ENDP ; stlp_std::vector<CInifile::Sect *,xalloc<CInifile::Sect *> >::size
; Function compile flags: /Ogtpy
; File d:\clearsky\sources\engine\xrcore\_stl_extensions.h
_TEXT	ENDS
;	COMDAT ?clear_and_free@?$xr_vector@VCEnvModifier@@V?$xalloc@VCEnvModifier@@@@@@QAEXXZ
_TEXT	SEGMENT
_this$ = 8						; size = 4
?clear_and_free@?$xr_vector@VCEnvModifier@@V?$xalloc@VCEnvModifier@@@@@@QAEXXZ PROC ; xr_vector<CEnvModifier,xalloc<CEnvModifier> >::clear_and_free, COMDAT

; 128  : 	void	clear_and_free		()									{ inherited::clear();			}

	push	ebx
	push	ebp
	mov	ebp, DWORD PTR _this$[esp+4]
	mov	ecx, ebp
	call	?end@?$_Impl_vector@VCEnvModifier@@V?$xalloc@VCEnvModifier@@@@@priv@stlp_std@@QAEPAVCEnvModifier@@XZ ; stlp_std::priv::_Impl_vector<CEnvModifier,xalloc<CEnvModifier> >::end
	mov	ecx, ebp
	mov	ebx, eax
	call	?begin@?$_Impl_vector@VCEnvModifier@@V?$xalloc@VCEnvModifier@@@@@priv@stlp_std@@QAEPAVCEnvModifier@@XZ ; stlp_std::priv::_Impl_vector<CEnvModifier,xalloc<CEnvModifier> >::begin
	cmp	eax, ebx
	je	SHORT $LN14@clear_and_@5
	push	esi
	push	edi
	mov	edi, DWORD PTR [ebp+4]
	sub	edi, ebx
	je	SHORT $LN20@clear_and_@5
	push	edi
	push	ebx
	push	eax
	call	DWORD PTR __imp__memmove
	mov	esi, eax
	add	esp, 12					; 0000000cH
	add	esi, edi
	jmp	SHORT $LN21@clear_and_@5
$LN20@clear_and_@5:
	mov	esi, eax
$LN21@clear_and_@5:
	mov	eax, DWORD PTR [ebp+4]
	push	eax
	push	esi
	call	??$_Destroy_Range@PAVCEnvModifier@@@stlp_std@@YAXPAVCEnvModifier@@0@Z ; stlp_std::_Destroy_Range<CEnvModifier *>
	add	esp, 8
	pop	edi
	mov	DWORD PTR [ebp+4], esi
	pop	esi
$LN14@clear_and_@5:
	pop	ebp
	pop	ebx
	ret	4
?clear_and_free@?$xr_vector@VCEnvModifier@@V?$xalloc@VCEnvModifier@@@@@@QAEXXZ ENDP ; xr_vector<CEnvModifier,xalloc<CEnvModifier> >::clear_and_free
; Function compile flags: /Ogtpy
; File d:\clearsky\sources\sdk\include\stlport\stl\pointers\_vector.h
_TEXT	ENDS
;	COMDAT ?end@?$vector@PAVCEnvAmbient@@V?$xalloc@PAVCEnvAmbient@@@@@stlp_std@@QAEPAPAVCEnvAmbient@@XZ
_TEXT	SEGMENT
?end@?$vector@PAVCEnvAmbient@@V?$xalloc@PAVCEnvAmbient@@@@@stlp_std@@QAEPAPAVCEnvAmbient@@XZ PROC ; stlp_std::vector<CEnvAmbient *,xalloc<CEnvAmbient *> >::end, COMDAT
; _this$ = eax

; 81   :   iterator end()               { return cast_traits::to_value_type_ptr(_M_impl.end()); }

	mov	eax, DWORD PTR [eax+4]
	push	eax
	call	?cv_ptr@?$_VoidCastTraitsAux@PAXPAX@priv@stlp_std@@SAPAPAXPAPAX@Z ; stlp_std::priv::_VoidCastTraitsAux<void *,void *>::cv_ptr
	add	esp, 4
	ret	0
?end@?$vector@PAVCEnvAmbient@@V?$xalloc@PAVCEnvAmbient@@@@@stlp_std@@QAEPAPAVCEnvAmbient@@XZ ENDP ; stlp_std::vector<CEnvAmbient *,xalloc<CEnvAmbient *> >::end
; Function compile flags: /Ogtpy
_TEXT	ENDS
;	COMDAT ?begin@?$vector@PAVCEnvAmbient@@V?$xalloc@PAVCEnvAmbient@@@@@stlp_std@@QAEPAPAVCEnvAmbient@@XZ
_TEXT	SEGMENT
?begin@?$vector@PAVCEnvAmbient@@V?$xalloc@PAVCEnvAmbient@@@@@stlp_std@@QAEPAPAVCEnvAmbient@@XZ PROC ; stlp_std::vector<CEnvAmbient *,xalloc<CEnvAmbient *> >::begin, COMDAT
; _this$ = eax

; 79   :   iterator begin()             { return cast_traits::to_value_type_ptr(_M_impl.begin()); }

	mov	eax, DWORD PTR [eax]
	push	eax
	call	?cv_ptr@?$_VoidCastTraitsAux@PAXPAX@priv@stlp_std@@SAPAPAXPAPAX@Z ; stlp_std::priv::_VoidCastTraitsAux<void *,void *>::cv_ptr
	add	esp, 4
	ret	0
?begin@?$vector@PAVCEnvAmbient@@V?$xalloc@PAVCEnvAmbient@@@@@stlp_std@@QAEPAPAVCEnvAmbient@@XZ ENDP ; stlp_std::vector<CEnvAmbient *,xalloc<CEnvAmbient *> >::begin
; Function compile flags: /Ogtpy
_TEXT	ENDS
;	COMDAT ?empty@?$vector@PAUSSndChannel@CEnvAmbient@@V?$xalloc@PAUSSndChannel@CEnvAmbient@@@@@stlp_std@@QBE_NXZ
_TEXT	SEGMENT
?empty@?$vector@PAUSSndChannel@CEnvAmbient@@V?$xalloc@PAUSSndChannel@CEnvAmbient@@@@@stlp_std@@QBE_NXZ PROC ; stlp_std::vector<CEnvAmbient::SSndChannel *,xalloc<CEnvAmbient::SSndChannel *> >::empty, COMDAT
; _this$ = ecx

; 93   :   bool empty() const            { return _M_impl.empty(); }

	jmp	?empty@?$_Impl_vector@PAXV?$xalloc@PAX@@@priv@stlp_std@@QBE_NXZ ; stlp_std::priv::_Impl_vector<void *,xalloc<void *> >::empty
?empty@?$vector@PAUSSndChannel@CEnvAmbient@@V?$xalloc@PAUSSndChannel@CEnvAmbient@@@@@stlp_std@@QBE_NXZ ENDP ; stlp_std::vector<CEnvAmbient::SSndChannel *,xalloc<CEnvAmbient::SSndChannel *> >::empty
; Function compile flags: /Ogtpy
; File d:\clearsky\sources\engine\xrcore\_stl_extensions.h
_TEXT	ENDS
;	COMDAT ??A?$xr_vector@PAUSSndChannel@CEnvAmbient@@V?$xalloc@PAUSSndChannel@CEnvAmbient@@@@@@QAEAAPAUSSndChannel@CEnvAmbient@@I@Z
_TEXT	SEGMENT
__Pos$ = 8						; size = 4
??A?$xr_vector@PAUSSndChannel@CEnvAmbient@@V?$xalloc@PAUSSndChannel@CEnvAmbient@@@@@@QAEAAPAUSSndChannel@CEnvAmbient@@I@Z PROC ; xr_vector<CEnvAmbient::SSndChannel *,xalloc<CEnvAmbient::SSndChannel *> >::operator[], COMDAT
; _this$ = eax

; 139  : 	reference operator[]		(size_type _Pos)					{ {VERIFY2(_Pos<size(),make_string("index is out of range: index requested[%d], size of container[%d]", _Pos, size()).c_str());} return (*(begin() + _Pos)); }

	mov	eax, DWORD PTR [eax]
	push	eax
	call	?cv_ptr@?$_VoidCastTraitsAux@PAXPAX@priv@stlp_std@@SAPAPAXPAPAX@Z ; stlp_std::priv::_VoidCastTraitsAux<void *,void *>::cv_ptr
	mov	ecx, DWORD PTR __Pos$[esp]
	add	esp, 4
	lea	eax, DWORD PTR [eax+ecx*4]
	ret	4
??A?$xr_vector@PAUSSndChannel@CEnvAmbient@@V?$xalloc@PAUSSndChannel@CEnvAmbient@@@@@@QAEAAPAUSSndChannel@CEnvAmbient@@I@Z ENDP ; xr_vector<CEnvAmbient::SSndChannel *,xalloc<CEnvAmbient::SSndChannel *> >::operator[]
; Function compile flags: /Ogtpy
; File d:\clearsky\sources\engine\include\xrrender\factoryptr.h
_TEXT	ENDS
;	COMDAT ??0?$FactoryPtr@VIEnvDescriptorMixerRender@@@@QAE@XZ
_TEXT	SEGMENT
??0?$FactoryPtr@VIEnvDescriptorMixerRender@@@@QAE@XZ PROC ; FactoryPtr<IEnvDescriptorMixerRender>::FactoryPtr<IEnvDescriptorMixerRender>, COMDAT
; _this$ = esi

; 24   : 	FactoryPtr() { CreateObject();}

	mov	eax, DWORD PTR __imp_?RenderFactory@@3PAVIRenderFactory@@A
	mov	ecx, DWORD PTR [eax]
	mov	edx, DWORD PTR [ecx]
	mov	eax, DWORD PTR [edx+72]
	call	eax
	mov	DWORD PTR [esi], eax
	mov	eax, esi
	ret	0
??0?$FactoryPtr@VIEnvDescriptorMixerRender@@@@QAE@XZ ENDP ; FactoryPtr<IEnvDescriptorMixerRender>::FactoryPtr<IEnvDescriptorMixerRender>
; Function compile flags: /Ogtpy
_TEXT	ENDS
;	COMDAT ??0?$FactoryPtr@VIEnvDescriptorRender@@@@QAE@XZ
_TEXT	SEGMENT
??0?$FactoryPtr@VIEnvDescriptorRender@@@@QAE@XZ PROC	; FactoryPtr<IEnvDescriptorRender>::FactoryPtr<IEnvDescriptorRender>, COMDAT
; _this$ = esi

; 24   : 	FactoryPtr() { CreateObject();}

	mov	eax, DWORD PTR __imp_?RenderFactory@@3PAVIRenderFactory@@A
	mov	ecx, DWORD PTR [eax]
	mov	edx, DWORD PTR [ecx]
	mov	eax, DWORD PTR [edx+80]
	call	eax
	mov	DWORD PTR [esi], eax
	mov	eax, esi
	ret	0
??0?$FactoryPtr@VIEnvDescriptorRender@@@@QAE@XZ ENDP	; FactoryPtr<IEnvDescriptorRender>::FactoryPtr<IEnvDescriptorRender>
; Function compile flags: /Ogtpy
; File d:\clearsky\sources\sdk\include\stlport\stl\pointers\_vector.h
_TEXT	ENDS
;	COMDAT ?end@?$vector@PAUSect@CInifile@@V?$xalloc@PAUSect@CInifile@@@@@stlp_std@@QAEPAPAUSect@CInifile@@XZ
_TEXT	SEGMENT
?end@?$vector@PAUSect@CInifile@@V?$xalloc@PAUSect@CInifile@@@@@stlp_std@@QAEPAPAUSect@CInifile@@XZ PROC ; stlp_std::vector<CInifile::Sect *,xalloc<CInifile::Sect *> >::end, COMDAT
; _this$ = eax

; 81   :   iterator end()               { return cast_traits::to_value_type_ptr(_M_impl.end()); }

	mov	eax, DWORD PTR [eax+4]
	push	eax
	call	?cv_ptr@?$_VoidCastTraitsAux@PAXPAX@priv@stlp_std@@SAPAPAXPAPAX@Z ; stlp_std::priv::_VoidCastTraitsAux<void *,void *>::cv_ptr
	add	esp, 4
	ret	0
?end@?$vector@PAUSect@CInifile@@V?$xalloc@PAUSect@CInifile@@@@@stlp_std@@QAEPAPAUSect@CInifile@@XZ ENDP ; stlp_std::vector<CInifile::Sect *,xalloc<CInifile::Sect *> >::end
; Function compile flags: /Ogtpy
_TEXT	ENDS
;	COMDAT ?begin@?$vector@PAUSect@CInifile@@V?$xalloc@PAUSect@CInifile@@@@@stlp_std@@QAEPAPAUSect@CInifile@@XZ
_TEXT	SEGMENT
?begin@?$vector@PAUSect@CInifile@@V?$xalloc@PAUSect@CInifile@@@@@stlp_std@@QAEPAPAUSect@CInifile@@XZ PROC ; stlp_std::vector<CInifile::Sect *,xalloc<CInifile::Sect *> >::begin, COMDAT
; _this$ = eax

; 79   :   iterator begin()             { return cast_traits::to_value_type_ptr(_M_impl.begin()); }

	mov	eax, DWORD PTR [eax]
	push	eax
	call	?cv_ptr@?$_VoidCastTraitsAux@PAXPAX@priv@stlp_std@@SAPAPAXPAPAX@Z ; stlp_std::priv::_VoidCastTraitsAux<void *,void *>::cv_ptr
	add	esp, 4
	ret	0
?begin@?$vector@PAUSect@CInifile@@V?$xalloc@PAUSect@CInifile@@@@@stlp_std@@QAEPAPAUSect@CInifile@@XZ ENDP ; stlp_std::vector<CInifile::Sect *,xalloc<CInifile::Sect *> >::begin
; Function compile flags: /Ogtpy
; File d:\clearsky\sources\engine\xrcore\_stl_extensions.h
_TEXT	ENDS
;	COMDAT ?size@?$xr_vector@PAUSect@CInifile@@V?$xalloc@PAUSect@CInifile@@@@@@QBEIXZ
_TEXT	SEGMENT
?size@?$xr_vector@PAUSect@CInifile@@V?$xalloc@PAUSect@CInifile@@@@@@QBEIXZ PROC ; xr_vector<CInifile::Sect *,xalloc<CInifile::Sect *> >::size, COMDAT
; _this$ = ecx

; 126  : 	u32		size				() const							{ return (u32)inherited::size();} 

	mov	eax, DWORD PTR [ecx+4]
	sub	eax, DWORD PTR [ecx]
	sar	eax, 2
	ret	0
?size@?$xr_vector@PAUSect@CInifile@@V?$xalloc@PAUSect@CInifile@@@@@@QBEIXZ ENDP ; xr_vector<CInifile::Sect *,xalloc<CInifile::Sect *> >::size
; Function compile flags: /Ogtpy
; File d:\clearsky\sources\sdk\include\stlport\stl\pointers\_vector.h
_TEXT	ENDS
;	COMDAT ?end@?$vector@PADV?$xalloc@PAD@@@stlp_std@@QAEPAPADXZ
_TEXT	SEGMENT
?end@?$vector@PADV?$xalloc@PAD@@@stlp_std@@QAEPAPADXZ PROC ; stlp_std::vector<char *,xalloc<char *> >::end, COMDAT
; _this$ = eax

; 81   :   iterator end()               { return cast_traits::to_value_type_ptr(_M_impl.end()); }

	mov	eax, DWORD PTR [eax+4]
	push	eax
	call	?to_value_type_ptr@?$_CastTraits@PAXPAD@priv@stlp_std@@SAPAPADPAPAX@Z ; stlp_std::priv::_CastTraits<void *,char *>::to_value_type_ptr
	add	esp, 4
	ret	0
?end@?$vector@PADV?$xalloc@PAD@@@stlp_std@@QAEPAPADXZ ENDP ; stlp_std::vector<char *,xalloc<char *> >::end
_TEXT	ENDS
PUBLIC	?mods_unload@CEnvironment@@QAEXXZ		; CEnvironment::mods_unload
; Function compile flags: /Ogtpy
; File d:\clearsky\sources\engine\xrengine\environment_misc.cpp
;	COMDAT ?mods_unload@CEnvironment@@QAEXXZ
_TEXT	SEGMENT
?mods_unload@CEnvironment@@QAEXXZ PROC			; CEnvironment::mods_unload, COMDAT
; _this$ = ecx

; 531  : {

	push	ebx

; 532  : 	Modifiers.clear_and_free			();

	lea	ebx, DWORD PTR [ecx+208]
	push	ebp
	mov	ecx, ebx
	call	?end@?$_Impl_vector@VCEnvModifier@@V?$xalloc@VCEnvModifier@@@@@priv@stlp_std@@QAEPAVCEnvModifier@@XZ ; stlp_std::priv::_Impl_vector<CEnvModifier,xalloc<CEnvModifier> >::end
	mov	ecx, ebx
	mov	ebp, eax
	call	?begin@?$_Impl_vector@VCEnvModifier@@V?$xalloc@VCEnvModifier@@@@@priv@stlp_std@@QAEPAVCEnvModifier@@XZ ; stlp_std::priv::_Impl_vector<CEnvModifier,xalloc<CEnvModifier> >::begin
	cmp	eax, ebp
	je	SHORT $LN16@mods_unloa
	push	esi
	push	edi
	mov	edi, DWORD PTR [ebx+4]
	sub	edi, ebp
	je	SHORT $LN22@mods_unloa
	push	edi
	push	ebp
	push	eax
	call	DWORD PTR __imp__memmove
	mov	esi, eax
	add	esp, 12					; 0000000cH
	add	esi, edi
	jmp	SHORT $LN23@mods_unloa
$LN22@mods_unloa:
	mov	esi, eax
$LN23@mods_unloa:
	mov	eax, DWORD PTR [ebx+4]
	push	eax
	push	esi
	call	??$_Destroy_Range@PAVCEnvModifier@@@stlp_std@@YAXPAVCEnvModifier@@0@Z ; stlp_std::_Destroy_Range<CEnvModifier *>
	add	esp, 8
	pop	edi
	mov	DWORD PTR [ebx+4], esi
	pop	esi
$LN16@mods_unloa:
	pop	ebp
	pop	ebx

; 533  : }

	ret	0
?mods_unload@CEnvironment@@QAEXXZ ENDP			; CEnvironment::mods_unload
_TEXT	ENDS
PUBLIC	?destroy@CEnvDescriptorMixer@@QAEXXZ		; CEnvDescriptorMixer::destroy
; Function compile flags: /Ogtpy
;	COMDAT ?destroy@CEnvDescriptorMixer@@QAEXXZ
_TEXT	SEGMENT
?destroy@CEnvDescriptorMixer@@QAEXXZ PROC		; CEnvDescriptorMixer::destroy, COMDAT
; _this$ = ecx

; 347  : {

	push	esi
	mov	esi, ecx

; 348  : 	m_pDescriptorMixer->Destroy();

	mov	ecx, DWORD PTR [esi+188]
	mov	eax, DWORD PTR [ecx]
	mov	edx, DWORD PTR [eax+8]
	call	edx

; 349  : 	/*
; 350  : 	sky_r_textures.clear		();
; 351  : 	sky_r_textures_env.clear	();
; 352  : 	clouds_r_textures.clear		();
; 353  : 	*/
; 354  : 
; 355  : 	//	Reuse existing code
; 356  : 	on_device_destroy();

	mov	ecx, DWORD PTR [esi+20]
	mov	eax, DWORD PTR [ecx]
	mov	edx, DWORD PTR [eax+12]
	pop	esi
	jmp	edx
?destroy@CEnvDescriptorMixer@@QAEXXZ ENDP		; CEnvDescriptorMixer::destroy
_TEXT	ENDS
PUBLIC	?sum@CEnvModifier@@QAEMAAV1@AAU?$_vector3@M@@@Z	; CEnvModifier::sum
; Function compile flags: /Ogtpy
;	COMDAT ?sum@CEnvModifier@@QAEMAAV1@AAU?$_vector3@M@@@Z
_TEXT	SEGMENT
_M$ = 8							; size = 4
__power$ = 12						; size = 4
__dist_sq$ = 12						; size = 4
_view$ = 12						; size = 4
?sum@CEnvModifier@@QAEMAAV1@AAU?$_vector3@M@@@Z PROC	; CEnvModifier::sum, COMDAT
; _this$ = ecx

; 35   : {

	push	ecx

; 36   : 	float	_dist_sq	=	view.distance_to_sqr(M.position);

	mov	eax, DWORD PTR _view$[esp]
	movss	xmm2, DWORD PTR [eax+4]
	movss	xmm1, DWORD PTR [eax+8]
	movss	xmm0, DWORD PTR [eax]
	push	esi
	push	edi
	mov	edi, DWORD PTR _M$[esp+8]
	subss	xmm2, DWORD PTR [edi+4]
	subss	xmm1, DWORD PTR [edi+8]
	subss	xmm0, DWORD PTR [edi]
	movaps	xmm3, xmm2
	mulss	xmm3, xmm2
	mulss	xmm0, xmm0
	movaps	xmm2, xmm1
	mulss	xmm2, xmm1

; 37   : 	if (_dist_sq>=(M.radius*M.radius))	

	movss	xmm1, DWORD PTR [edi+12]
	addss	xmm0, xmm3
	addss	xmm0, xmm2
	movaps	xmm2, xmm1
	mulss	xmm2, xmm1
	comiss	xmm0, xmm2
	mov	esi, ecx
	movss	DWORD PTR __dist_sq$[esp+8], xmm0
	jb	SHORT $LN7@sum

; 38   : 		return			0;

	fldz

; 76   : 	}
; 77   : 	
; 78   : 	return				_power;
; 79   : }

	pop	edi
	pop	esi
	pop	ecx
	ret	8
$LN7@sum:

; 39   : 
; 40   : 	float	_att		=	1-_sqrt(_dist_sq)/M.radius;	//[0..1];

	fld	DWORD PTR __dist_sq$[esp+8]
	push	ecx
	fstp	DWORD PTR [esp]
	call	_sqrtf
	fdiv	DWORD PTR [edi+12]

; 41   : 	float	_power		=	M.power*_att;
; 42   : 	
; 43   : 
; 44   : 	if(M.use_flags.test(eViewDist))

	mov	eax, 1
	add	esp, 4
	test	BYTE PTR [edi+76], al
	fld1
	fsubrp	ST(1), ST(0)
	fmul	DWORD PTR [edi+16]
	fst	DWORD PTR __power$[esp+8]
	movss	xmm0, DWORD PTR __power$[esp+8]
	je	SHORT $LN18@sum

; 45   : 	{
; 46   : 		far_plane			+=	M.far_plane*_power;

	movss	xmm1, DWORD PTR [edi+20]
	mulss	xmm1, xmm0
	addss	xmm1, DWORD PTR [esi+20]
	movss	DWORD PTR [esi+20], xmm1

; 47   : 		use_flags.set		(eViewDist, TRUE);

	or	WORD PTR [esi+76], ax
$LN18@sum:

; 48   : 	}
; 49   : 	if(M.use_flags.test(eFogColor))

	mov	eax, 2
	test	BYTE PTR [edi+76], al
	je	SHORT $LN26@sum

; 50   : 	{
; 51   : 		fog_color.mad		(M.fog_color,_power);

	movss	xmm1, DWORD PTR [edi+24]
	mulss	xmm1, xmm0
	addss	xmm1, DWORD PTR [esi+24]
	movss	DWORD PTR [esi+24], xmm1
	movss	xmm1, DWORD PTR [edi+28]
	mulss	xmm1, xmm0
	addss	xmm1, DWORD PTR [esi+28]
	movss	DWORD PTR [esi+28], xmm1
	movss	xmm1, DWORD PTR [edi+32]
	mulss	xmm1, xmm0
	addss	xmm1, DWORD PTR [esi+32]
	movss	DWORD PTR [esi+32], xmm1

; 52   : 		use_flags.set		(eFogColor, TRUE);

	or	WORD PTR [esi+76], ax
$LN26@sum:

; 53   : 	}
; 54   : 	if(M.use_flags.test(eFogDensity))

	mov	eax, 4
	test	BYTE PTR [edi+76], al
	je	SHORT $LN32@sum

; 55   : 	{
; 56   : 		fog_density			+=	M.fog_density*_power;

	movss	xmm1, DWORD PTR [edi+36]
	mulss	xmm1, xmm0
	addss	xmm1, DWORD PTR [esi+36]
	movss	DWORD PTR [esi+36], xmm1

; 57   : 		use_flags.set		(eFogDensity, TRUE);

	or	WORD PTR [esi+76], ax
$LN32@sum:

; 58   : 	}
; 59   : 
; 60   : 	if(M.use_flags.test(eAmbientColor))

	mov	eax, 8
	test	BYTE PTR [edi+76], al
	je	SHORT $LN40@sum

; 61   : 	{
; 62   : 		ambient.mad			(M.ambient,_power);

	movss	xmm1, DWORD PTR [edi+40]
	mulss	xmm1, xmm0
	addss	xmm1, DWORD PTR [esi+40]
	movss	DWORD PTR [esi+40], xmm1
	movss	xmm1, DWORD PTR [edi+44]
	mulss	xmm1, xmm0
	addss	xmm1, DWORD PTR [esi+44]
	movss	DWORD PTR [esi+44], xmm1
	movss	xmm1, DWORD PTR [edi+48]
	mulss	xmm1, xmm0
	addss	xmm1, DWORD PTR [esi+48]
	movss	DWORD PTR [esi+48], xmm1

; 63   : 		use_flags.set		(eAmbientColor, TRUE);

	or	WORD PTR [esi+76], ax
$LN40@sum:

; 64   : 	}
; 65   : 
; 66   : 	if(M.use_flags.test(eSkyColor))

	mov	eax, 16					; 00000010H
	test	BYTE PTR [edi+76], al
	je	SHORT $LN48@sum

; 67   : 	{
; 68   : 		sky_color.mad		(M.sky_color,_power);

	movss	xmm1, DWORD PTR [edi+52]
	mulss	xmm1, xmm0
	addss	xmm1, DWORD PTR [esi+52]
	movss	DWORD PTR [esi+52], xmm1
	movss	xmm1, DWORD PTR [edi+56]
	mulss	xmm1, xmm0
	addss	xmm1, DWORD PTR [esi+56]
	movss	DWORD PTR [esi+56], xmm1
	movss	xmm1, DWORD PTR [edi+60]
	mulss	xmm1, xmm0
	addss	xmm1, DWORD PTR [esi+60]
	movss	DWORD PTR [esi+60], xmm1

; 69   : 		use_flags.set		(eSkyColor, TRUE);

	or	WORD PTR [esi+76], ax
$LN48@sum:

; 70   : 	}
; 71   : 
; 72   : 	if(M.use_flags.test(eHemiColor))

	mov	eax, 32					; 00000020H
	test	BYTE PTR [edi+76], al
	je	SHORT $LN8@sum

; 73   : 	{
; 74   : 		hemi_color.mad		(M.hemi_color,_power);

	movss	xmm1, DWORD PTR [edi+64]
	mulss	xmm1, xmm0
	addss	xmm1, DWORD PTR [esi+64]
	movss	DWORD PTR [esi+64], xmm1
	movss	xmm1, DWORD PTR [edi+68]
	mulss	xmm1, xmm0
	addss	xmm1, DWORD PTR [esi+68]
	movss	DWORD PTR [esi+68], xmm1
	movss	xmm1, DWORD PTR [edi+72]
	mulss	xmm1, xmm0
	addss	xmm1, DWORD PTR [esi+72]
	movss	DWORD PTR [esi+72], xmm1

; 75   : 		use_flags.set		(eHemiColor, TRUE);

	or	WORD PTR [esi+76], ax
$LN8@sum:

; 76   : 	}
; 77   : 	
; 78   : 	return				_power;
; 79   : }

	pop	edi
	pop	esi
	pop	ecx
	ret	8
?sum@CEnvModifier@@QAEMAAV1@AAU?$_vector3@M@@@Z ENDP	; CEnvModifier::sum
; Function compile flags: /Ogtpy
; File d:\clearsky\sources\engine\xrsound\sound.h
;	COMDAT ??0ref_sound@@QAE@XZ
_TEXT	SEGMENT
??0ref_sound@@QAE@XZ PROC				; ref_sound::ref_sound, COMDAT
; _this$ = eax

; 116  : 							ref_sound				(){ }

	mov	DWORD PTR [eax], 0
	ret	0
??0ref_sound@@QAE@XZ ENDP				; ref_sound::ref_sound
; Function compile flags: /Ogtpy
; File d:\clearsky\sources\sdk\include\stlport\stl\_algobase.h
_TEXT	ENDS
;	COMDAT ??$__copy_backward@PAUref_sound@@PAU1@H@priv@stlp_std@@YAPAUref_sound@@PAU2@00ABUrandom_access_iterator_tag@1@PAH@Z
_TEXT	SEGMENT
___first$ = 8						; size = 4
??$__copy_backward@PAUref_sound@@PAU1@H@priv@stlp_std@@YAPAUref_sound@@PAU2@00ABUrandom_access_iterator_tag@1@PAH@Z PROC ; stlp_std::priv::__copy_backward<ref_sound *,ref_sound *,int>, COMDAT
; ___last$ = ecx
; ___result$ = eax

; 235  :                                           _Distance*) {

	push	ebx
	push	esi
	push	edi
	mov	edi, ecx

; 236  :   for (_Distance __n = __last - __first; __n > 0; --__n)

	mov	esi, edi
	sub	esi, DWORD PTR ___first$[esp+8]
	mov	ebx, eax
	sar	esi, 2
	test	esi, esi
	jle	SHORT $LN1@copy_backw@34
$LL3@copy_backw@34:

; 237  :     *--__result = *--__last;

	sub	edi, 4
	sub	ebx, 4
	push	edi
	mov	ecx, ebx
	call	??4ref_sound@@QAEAAU0@ABU0@@Z
	sub	esi, 1
	test	esi, esi
	jg	SHORT $LL3@copy_backw@34

; 238  :   return __result;

	mov	eax, ebx
$LN1@copy_backw@34:
	pop	edi
	pop	esi
	pop	ebx

; 239  : }

	ret	0
??$__copy_backward@PAUref_sound@@PAU1@H@priv@stlp_std@@YAPAUref_sound@@PAU2@00ABUrandom_access_iterator_tag@1@PAH@Z ENDP ; stlp_std::priv::__copy_backward<ref_sound *,ref_sound *,int>
; Function compile flags: /Ogtpy
; File d:\clearsky\sources\sdk\include\stlport\stl\_uninitialized.h
_TEXT	ENDS
;	COMDAT ??$__ucopy@PAUref_sound@@PAU1@H@priv@stlp_std@@YAPAUref_sound@@PAU2@00ABUrandom_access_iterator_tag@1@PAH@Z
_TEXT	SEGMENT
??$__ucopy@PAUref_sound@@PAU1@H@priv@stlp_std@@YAPAUref_sound@@PAU2@00ABUrandom_access_iterator_tag@1@PAH@Z PROC ; stlp_std::priv::__ucopy<ref_sound *,ref_sound *,int>, COMDAT
; ___first$ = ecx
; ___last$ = eax
; ___result$ = edx

; 83   :                            _OutputIter __result, const random_access_iterator_tag &, _Distance*) {

	push	ebx
	push	esi
	mov	esi, eax
	mov	ebx, ecx

; 84   :   _OutputIter __cur = __result;
; 85   :   _STLP_TRY {
; 86   :     for (_Distance __n = __last - __first; __n > 0; --__n) {

	sub	esi, ebx
	sar	esi, 2
	test	esi, esi
	push	edi
	mov	edi, edx
	jle	SHORT $LN21@ucopy@10
$LL3@ucopy@10:

; 87   :       _Param_Construct(&*__cur, *__first);

	push	ebx
	push	edi
	call	??$_Param_Construct@Uref_sound@@U1@@stlp_std@@YAXPAUref_sound@@ABU1@@Z ; stlp_std::_Param_Construct<ref_sound,ref_sound>
	sub	esi, 1
	add	esp, 8

; 88   :       ++__first;

	add	ebx, 4

; 89   :       ++__cur;

	add	edi, 4
	test	esi, esi
	jg	SHORT $LL3@ucopy@10
$LN21@ucopy@10:

; 90   :     }
; 91   :     return __cur;

	mov	eax, edi
	pop	edi
	pop	esi
	pop	ebx

; 92   :   }
; 93   :   _STLP_UNWIND(_STLP_STD::_Destroy_Range(__result, __cur))
; 94   :   _STLP_RET_AFTER_THROW(__cur)
; 95   : }

	ret	0
??$__ucopy@PAUref_sound@@PAU1@H@priv@stlp_std@@YAPAUref_sound@@PAU2@00ABUrandom_access_iterator_tag@1@PAH@Z ENDP ; stlp_std::priv::__ucopy<ref_sound *,ref_sound *,int>
; Function compile flags: /Ogtpy
_TEXT	ENDS
;	COMDAT ??$__ufill@PAUref_sound@@U1@H@priv@stlp_std@@YAXPAUref_sound@@0ABU2@ABUrandom_access_iterator_tag@1@PAH@Z
_TEXT	SEGMENT
??$__ufill@PAUref_sound@@U1@H@priv@stlp_std@@YAXPAUref_sound@@0ABU2@ABUrandom_access_iterator_tag@1@PAH@Z PROC ; stlp_std::priv::__ufill<ref_sound *,ref_sound,int>, COMDAT
; ___first$ = ecx
; ___last$ = eax
; ___x$ = ebx

; 246  :                     const _Tp& __x, const random_access_iterator_tag &, _Distance*) {

	push	esi
	push	edi
	mov	esi, eax
	mov	edi, ecx

; 247  :   _ForwardIter __cur = __first;
; 248  :   _STLP_TRY {
; 249  :     for (_Distance __n = __last - __first; __n > 0; --__n, ++__cur)

	sub	esi, edi
	sar	esi, 2
	test	esi, esi
	jle	SHORT $LN1@ufill@10
	npad	1
$LL3@ufill@10:

; 250  :       _Param_Construct(&*__cur, __x);

	push	ebx
	push	edi
	call	??$_Param_Construct@Uref_sound@@U1@@stlp_std@@YAXPAUref_sound@@ABU1@@Z ; stlp_std::_Param_Construct<ref_sound,ref_sound>
	sub	esi, 1
	add	esp, 8
	add	edi, 4
	test	esi, esi
	jg	SHORT $LL3@ufill@10
$LN1@ufill@10:
	pop	edi
	pop	esi

; 251  :   }
; 252  :   _STLP_UNWIND(_STLP_STD::_Destroy_Range(__first, __cur))
; 253  : }

	ret	0
??$__ufill@PAUref_sound@@U1@H@priv@stlp_std@@YAXPAUref_sound@@0ABU2@ABUrandom_access_iterator_tag@1@PAH@Z ENDP ; stlp_std::priv::__ufill<ref_sound *,ref_sound,int>
; Function compile flags: /Ogtpy
_TEXT	ENDS
;	COMDAT ??$__ucopy_aux@PAPAXPAPAX@priv@stlp_std@@YAPAPAXPAPAX00ABU__true_type@1@@Z
_TEXT	SEGMENT
??$__ucopy_aux@PAPAXPAPAX@priv@stlp_std@@YAPAPAXPAPAX00ABU__true_type@1@@Z PROC ; stlp_std::priv::__ucopy_aux<void * *,void * *>, COMDAT
; ___first$ = ecx
; ___last$ = edx
; ___result$ = eax

; 125  :                                const __true_type& /*BothPtrType*/) {

	push	esi
	mov	esi, edx

; 126  :   return __ucopy_ptrs(__first, __last, __result,
; 127  :                       _UseTrivialUCopy(_STLP_VALUE_TYPE(__first, _InputIter),
; 128  :                                        _STLP_VALUE_TYPE(__result, _OutputIter))._Answer());

	cmp	esi, ecx
	je	SHORT $LN12@ucopy_aux@9
	sub	esi, ecx
	push	esi
	push	ecx
	push	eax
	call	_memcpy
	add	esp, 12					; 0000000cH
	add	eax, esi
$LN12@ucopy_aux@9:
	pop	esi

; 129  : }

	ret	0
??$__ucopy_aux@PAPAXPAPAX@priv@stlp_std@@YAPAPAXPAPAX00ABU__true_type@1@@Z ENDP ; stlp_std::priv::__ucopy_aux<void * *,void * *>
; Function compile flags: /Ogtpy
; File d:\clearsky\sources\sdk\include\stlport\stl\_pair.h
_TEXT	ENDS
;	COMDAT ??0?$pair@U?$_Rb_tree_iterator@U?$pair@$$CBVshared_str@@V?$xr_vector@PAVCEnvDescriptor@@V?$xalloc@PAVCEnvDescriptor@@@@@@@stlp_std@@U?$_MapTraitsT@U?$pair@$$CBVshared_str@@V?$xr_vector@PAVCEnvDescriptor@@V?$xalloc@PAVCEnvDescriptor@@@@@@@stlp_std@@@priv@2@@priv@stlp_std@@_N@stlp_std@@QAE@ABU?$_Rb_tree_iterator@U?$pair@$$CBVshared_str@@V?$xr_vector@PAVCEnvDescriptor@@V?$xalloc@PAVCEnvDescriptor@@@@@@@stlp_std@@U?$_MapTraitsT@U?$pair@$$CBVshared_str@@V?$xr_vector@PAVCEnvDescriptor@@V?$xalloc@PAVCEnvDescriptor@@@@@@@stlp_std@@@priv@2@@priv@1@AB_N@Z
_TEXT	SEGMENT
___b$ = 8						; size = 4
??0?$pair@U?$_Rb_tree_iterator@U?$pair@$$CBVshared_str@@V?$xr_vector@PAVCEnvDescriptor@@V?$xalloc@PAVCEnvDescriptor@@@@@@@stlp_std@@U?$_MapTraitsT@U?$pair@$$CBVshared_str@@V?$xr_vector@PAVCEnvDescriptor@@V?$xalloc@PAVCEnvDescriptor@@@@@@@stlp_std@@@priv@2@@priv@stlp_std@@_N@stlp_std@@QAE@ABU?$_Rb_tree_iterator@U?$pair@$$CBVshared_str@@V?$xr_vector@PAVCEnvDescriptor@@V?$xalloc@PAVCEnvDescriptor@@@@@@@stlp_std@@U?$_MapTraitsT@U?$pair@$$CBVshared_str@@V?$xr_vector@PAVCEnvDescriptor@@V?$xalloc@PAVCEnvDescriptor@@@@@@@stlp_std@@@priv@2@@priv@1@AB_N@Z PROC ; stlp_std::pair<stlp_std::priv::_Rb_tree_iterator<stlp_std::pair<shared_str const ,xr_vector<CEnvDescriptor *,xalloc<CEnvDescriptor *> > >,stlp_std::priv::_MapTraitsT<stlp_std::pair<shared_str const ,xr_vector<CEnvDescriptor *,xalloc<CEnvDescriptor *> > > > >,bool>::pair<stlp_std::priv::_Rb_tree_iterator<stlp_std::pair<shared_str const ,xr_vector<CEnvDescriptor *,xalloc<CEnvDescriptor *> > >,stlp_std::priv::_MapTraitsT<stlp_std::pair<shared_str const ,xr_vector<CEnvDescriptor *,xalloc<CEnvDescriptor *> > > > >,bool>, COMDAT
; _this$ = eax
; ___a$ = ecx

; 56   :   pair(const _T1& __a, const _T2& __b) : first(__a), second(__b) {}

	mov	edx, DWORD PTR [ecx]
	mov	ecx, DWORD PTR ___b$[esp-4]
	mov	DWORD PTR [eax], edx
	mov	dl, BYTE PTR [ecx]
	mov	BYTE PTR [eax+4], dl
	ret	4
??0?$pair@U?$_Rb_tree_iterator@U?$pair@$$CBVshared_str@@V?$xr_vector@PAVCEnvDescriptor@@V?$xalloc@PAVCEnvDescriptor@@@@@@@stlp_std@@U?$_MapTraitsT@U?$pair@$$CBVshared_str@@V?$xr_vector@PAVCEnvDescriptor@@V?$xalloc@PAVCEnvDescriptor@@@@@@@stlp_std@@@priv@2@@priv@stlp_std@@_N@stlp_std@@QAE@ABU?$_Rb_tree_iterator@U?$pair@$$CBVshared_str@@V?$xr_vector@PAVCEnvDescriptor@@V?$xalloc@PAVCEnvDescriptor@@@@@@@stlp_std@@U?$_MapTraitsT@U?$pair@$$CBVshared_str@@V?$xr_vector@PAVCEnvDescriptor@@V?$xalloc@PAVCEnvDescriptor@@@@@@@stlp_std@@@priv@2@@priv@1@AB_N@Z ENDP ; stlp_std::pair<stlp_std::priv::_Rb_tree_iterator<stlp_std::pair<shared_str const ,xr_vector<CEnvDescriptor *,xalloc<CEnvDescriptor *> > >,stlp_std::priv::_MapTraitsT<stlp_std::pair<shared_str const ,xr_vector<CEnvDescriptor *,xalloc<CEnvDescriptor *> > > > >,bool>::pair<stlp_std::priv::_Rb_tree_iterator<stlp_std::pair<shared_str const ,xr_vector<CEnvDescriptor *,xalloc<CEnvDescriptor *> > >,stlp_std::priv::_MapTraitsT<stlp_std::pair<shared_str const ,xr_vector<CEnvDescriptor *,xalloc<CEnvDescriptor *> > > > >,bool>
; Function compile flags: /Ogtpy
; File d:\clearsky\sources\sdk\include\stlport\stl\pointers\_vector.h
_TEXT	ENDS
;	COMDAT ?end@?$vector@PAUSSndChannel@CEnvAmbient@@V?$xalloc@PAUSSndChannel@CEnvAmbient@@@@@stlp_std@@QAEPAPAUSSndChannel@CEnvAmbient@@XZ
_TEXT	SEGMENT
?end@?$vector@PAUSSndChannel@CEnvAmbient@@V?$xalloc@PAUSSndChannel@CEnvAmbient@@@@@stlp_std@@QAEPAPAUSSndChannel@CEnvAmbient@@XZ PROC ; stlp_std::vector<CEnvAmbient::SSndChannel *,xalloc<CEnvAmbient::SSndChannel *> >::end, COMDAT
; _this$ = eax

; 81   :   iterator end()               { return cast_traits::to_value_type_ptr(_M_impl.end()); }

	mov	eax, DWORD PTR [eax+4]
	push	eax
	call	?cv_ptr@?$_VoidCastTraitsAux@PAXPAX@priv@stlp_std@@SAPAPAXPAPAX@Z ; stlp_std::priv::_VoidCastTraitsAux<void *,void *>::cv_ptr
	add	esp, 4
	ret	0
?end@?$vector@PAUSSndChannel@CEnvAmbient@@V?$xalloc@PAUSSndChannel@CEnvAmbient@@@@@stlp_std@@QAEPAPAUSSndChannel@CEnvAmbient@@XZ ENDP ; stlp_std::vector<CEnvAmbient::SSndChannel *,xalloc<CEnvAmbient::SSndChannel *> >::end
; Function compile flags: /Ogtpy
; File d:\clearsky\sources\sdk\include\stlport\stl\_algobase.h
_TEXT	ENDS
;	COMDAT ??$fill@PAUref_sound@@U1@@stlp_std@@YAXPAUref_sound@@0ABU1@@Z
_TEXT	SEGMENT
??$fill@PAUref_sound@@U1@@stlp_std@@YAXPAUref_sound@@0ABU1@@Z PROC ; stlp_std::fill<ref_sound *,ref_sound>, COMDAT
; ___first$ = eax
; ___last$ = edi
; ___val$ = ebx

; 392  : void fill(_ForwardIter __first, _ForwardIter __last, const _Tp& __val) {

	push	esi
	mov	esi, eax

; 393  :   _STLP_DEBUG_CHECK(_STLP_PRIV __check_range(__first, __last))
; 394  :   for ( ; __first != __last; ++__first)

	cmp	esi, edi
	je	SHORT $LN1@fill@10
$LL3@fill@10:

; 395  :     *__first = __val;

	push	ebx
	mov	ecx, esi
	call	??4ref_sound@@QAEAAU0@ABU0@@Z
	add	esi, 4
	cmp	esi, edi
	jne	SHORT $LL3@fill@10
$LN1@fill@10:
	pop	esi

; 396  : }

	ret	0
??$fill@PAUref_sound@@U1@@stlp_std@@YAXPAUref_sound@@0ABU1@@Z ENDP ; stlp_std::fill<ref_sound *,ref_sound>
; Function compile flags: /Ogtpy
_TEXT	ENDS
;	COMDAT ??$__copy_backward_ptrs@PAUref_sound@@PAU1@@priv@stlp_std@@YAPAUref_sound@@PAU2@00ABU__false_type@1@@Z
_TEXT	SEGMENT
___first$ = 8						; size = 4
??$__copy_backward_ptrs@PAUref_sound@@PAU1@@priv@stlp_std@@YAPAUref_sound@@PAU2@00ABU__false_type@1@@Z PROC ; stlp_std::priv::__copy_backward_ptrs<ref_sound *,ref_sound *>, COMDAT
; ___last$ = ecx
; ___result$ = eax

; 288  :                                         _OutputIter __result, const __false_type& /*TrivialAssignment*/) {

	push	ebx
	push	esi
	mov	ebx, ecx

; 289  :   return __copy_backward(__first, __last, __result, _STLP_ITERATOR_CATEGORY(__first, _InputIter), _STLP_DISTANCE_TYPE(__first, _InputIter));

	mov	esi, ebx
	sub	esi, DWORD PTR ___first$[esp+4]
	push	edi
	sar	esi, 2
	test	esi, esi
	mov	edi, eax
	jle	SHORT $LN3@copy_backw@35
	sub	ebx, edi
$LL5@copy_backw@35:
	sub	edi, 4
	lea	eax, DWORD PTR [ebx+edi]
	push	eax
	mov	ecx, edi
	call	??4ref_sound@@QAEAAU0@ABU0@@Z
	sub	esi, 1
	test	esi, esi
	jg	SHORT $LL5@copy_backw@35
	mov	eax, edi
$LN3@copy_backw@35:
	pop	edi
	pop	esi
	pop	ebx

; 290  : }

	ret	0
??$__copy_backward_ptrs@PAUref_sound@@PAU1@@priv@stlp_std@@YAPAUref_sound@@PAU2@00ABU__false_type@1@@Z ENDP ; stlp_std::priv::__copy_backward_ptrs<ref_sound *,ref_sound *>
; Function compile flags: /Ogtpy
; File d:\clearsky\sources\sdk\include\stlport\stl\_uninitialized.h
_TEXT	ENDS
;	COMDAT ??$__ucopy_ptrs@PAUref_sound@@PAU1@@priv@stlp_std@@YAPAUref_sound@@PAU2@00ABU__false_type@1@@Z
_TEXT	SEGMENT
??$__ucopy_ptrs@PAUref_sound@@PAU1@@priv@stlp_std@@YAPAUref_sound@@PAU2@00ABU__false_type@1@@Z PROC ; stlp_std::priv::__ucopy_ptrs<ref_sound *,ref_sound *>, COMDAT
; ___first$ = edx
; ___last$ = ecx
; ___result$ = eax

; 113  : { return __ucopy(__first, __last, __result, random_access_iterator_tag(), (ptrdiff_t*)0); }

	push	ebx
	push	esi
	push	edi
	mov	edi, ecx
	mov	ebx, edx
	sub	edi, ebx
	sar	edi, 2
	test	edi, edi
	mov	esi, eax
	jle	SHORT $LN3@ucopy_ptrs@26
	sub	ebx, esi
$LL5@ucopy_ptrs@26:
	lea	eax, DWORD PTR [ebx+esi]
	push	eax
	push	esi
	call	??$_Param_Construct@Uref_sound@@U1@@stlp_std@@YAXPAUref_sound@@ABU1@@Z ; stlp_std::_Param_Construct<ref_sound,ref_sound>
	sub	edi, 1
	add	esp, 8
	add	esi, 4
	test	edi, edi
	jg	SHORT $LL5@ucopy_ptrs@26
	mov	eax, esi
$LN3@ucopy_ptrs@26:
	pop	edi
	pop	esi
	pop	ebx
	ret	0
??$__ucopy_ptrs@PAUref_sound@@PAU1@@priv@stlp_std@@YAPAUref_sound@@PAU2@00ABU__false_type@1@@Z ENDP ; stlp_std::priv::__ucopy_ptrs<ref_sound *,ref_sound *>
; Function compile flags: /Ogtpy
_TEXT	ENDS
;	COMDAT ??$__uninitialized_fill_n@PAUref_sound@@IU1@@priv@stlp_std@@YAPAUref_sound@@PAU2@IABU2@@Z
_TEXT	SEGMENT
??$__uninitialized_fill_n@PAUref_sound@@IU1@@priv@stlp_std@@YAPAUref_sound@@PAU2@IABU2@@Z PROC ; stlp_std::priv::__uninitialized_fill_n<ref_sound *,unsigned int,ref_sound>, COMDAT
; ___first$ = ecx
; ___n$ = eax
; ___x$ = ebx

; 313  : inline _ForwardIter __uninitialized_fill_n(_ForwardIter __first, _Size __n, const _Tp& __x) {

	push	ebp
	push	esi
	push	edi
	mov	edi, ecx

; 314  :   _ForwardIter __last = __first + __n;

	lea	ebp, DWORD PTR [edi+eax*4]

; 315  :   __ufill(__first, __last, __x, random_access_iterator_tag(), (ptrdiff_t*)0);

	mov	esi, ebp
	sub	esi, edi
	sar	esi, 2
	test	esi, esi
	jle	SHORT $LN23@uninitiali@16
$LL5@uninitiali@16:
	push	ebx
	push	edi
	call	??$_Param_Construct@Uref_sound@@U1@@stlp_std@@YAXPAUref_sound@@ABU1@@Z ; stlp_std::_Param_Construct<ref_sound,ref_sound>
	sub	esi, 1
	add	esp, 8
	add	edi, 4
	test	esi, esi
	jg	SHORT $LL5@uninitiali@16
$LN23@uninitiali@16:
	pop	edi
	pop	esi

; 316  :   return __last;

	mov	eax, ebp
	pop	ebp

; 317  : }

	ret	0
??$__uninitialized_fill_n@PAUref_sound@@IU1@@priv@stlp_std@@YAPAUref_sound@@PAU2@IABU2@@Z ENDP ; stlp_std::priv::__uninitialized_fill_n<ref_sound *,unsigned int,ref_sound>
; Function compile flags: /Ogtpy
; File d:\clearsky\sources\sdk\include\stlport\stl\_construct.h
_TEXT	ENDS
;	COMDAT ??$_Copy_Construct@Uref_sound@@@stlp_std@@YAXPAUref_sound@@ABU1@@Z
_TEXT	SEGMENT
??$_Copy_Construct@Uref_sound@@@stlp_std@@YAXPAUref_sound@@ABU1@@Z PROC ; stlp_std::_Copy_Construct<ref_sound>, COMDAT
; ___p$ = ecx
; ___val$ = eax

; 110  : #if defined (_STLP_DEBUG_UNINITIALIZED)
; 111  :   memset((char*)__p, _STLP_SHRED_BYTE, sizeof(_Tp));
; 112  : #endif
; 113  :   _STLP_PLACEMENT_NEW (__p) _Tp(__val);

	test	ecx, ecx
	je	SHORT $LN3@Copy_Const@23
	push	eax
	call	??0ref_sound@@QAE@ABU0@@Z
$LN3@Copy_Const@23:

; 114  : }

	ret	0
??$_Copy_Construct@Uref_sound@@@stlp_std@@YAXPAUref_sound@@ABU1@@Z ENDP ; stlp_std::_Copy_Construct<ref_sound>
; Function compile flags: /Ogtpy
; File d:\clearsky\sources\sdk\include\stlport\stl\_uninitialized.h
_TEXT	ENDS
;	COMDAT ??$__uninitialized_move@PAUref_sound@@PAU1@U__false_type@stlp_std@@@priv@stlp_std@@YAPAUref_sound@@PAU2@00U__false_type@1@ABU31@@Z
_TEXT	SEGMENT
___trivial_ucpy$ = 8					; size = 1
??$__uninitialized_move@PAUref_sound@@PAU1@U__false_type@stlp_std@@@priv@stlp_std@@YAPAUref_sound@@PAU2@00U__false_type@1@ABU31@@Z PROC ; stlp_std::priv::__uninitialized_move<ref_sound *,ref_sound *,stlp_std::__false_type>, COMDAT
; ___first$ = edx
; ___last$ = ecx
; ___result$ = eax

; 414  : { return __ucopy_ptrs(__first, __last, __result, __trivial_ucpy); }

	push	ebx
	push	esi
	push	edi
	mov	edi, ecx
	mov	ebx, edx
	sub	edi, ebx
	sar	edi, 2
	test	edi, edi
	mov	esi, eax
	jle	SHORT $LN5@uninitiali@17
	sub	ebx, esi
$LL7@uninitiali@17:
	lea	eax, DWORD PTR [ebx+esi]
	push	eax
	push	esi
	call	??$_Param_Construct@Uref_sound@@U1@@stlp_std@@YAXPAUref_sound@@ABU1@@Z ; stlp_std::_Param_Construct<ref_sound,ref_sound>
	sub	edi, 1
	add	esp, 8
	add	esi, 4
	test	edi, edi
	jg	SHORT $LL7@uninitiali@17
	mov	eax, esi
$LN5@uninitiali@17:
	pop	edi
	pop	esi
	pop	ebx
	ret	0
??$__uninitialized_move@PAUref_sound@@PAU1@U__false_type@stlp_std@@@priv@stlp_std@@YAPAUref_sound@@PAU2@00U__false_type@1@ABU31@@Z ENDP ; stlp_std::priv::__uninitialized_move<ref_sound *,ref_sound *,stlp_std::__false_type>
; Function compile flags: /Ogtpy
_TEXT	ENDS
;	COMDAT ??$uninitialized_copy@PAPAXPAPAX@stlp_std@@YAPAPAXPAPAX00@Z
_TEXT	SEGMENT
??$uninitialized_copy@PAPAXPAPAX@stlp_std@@YAPAPAXPAPAX00@Z PROC ; stlp_std::uninitialized_copy<void * *,void * *>, COMDAT
; ___first$ = ecx
; ___last$ = edx
; ___result$ = eax

; 144  : { return _STLP_PRIV __ucopy_aux(__first, __last, __result, _BothPtrType< _InputIter, _ForwardIter>::_Answer()); }

	push	esi
	mov	esi, edx
	cmp	esi, ecx
	je	SHORT $LN16@uninitiali@18
	sub	esi, ecx
	push	esi
	push	ecx
	push	eax
	call	_memcpy
	add	esp, 12					; 0000000cH
	add	eax, esi
$LN16@uninitiali@18:
	pop	esi
	ret	0
??$uninitialized_copy@PAPAXPAPAX@stlp_std@@YAPAPAXPAPAX00@Z ENDP ; stlp_std::uninitialized_copy<void * *,void * *>
; Function compile flags: /Ogtpy
; File d:\clearsky\sources\sdk\include\stlport\stl\_algobase.h
_TEXT	ENDS
;	COMDAT ??$__copy@PAUref_sound@@PAU1@H@priv@stlp_std@@YAPAUref_sound@@PAU2@00ABUrandom_access_iterator_tag@1@PAH@Z
_TEXT	SEGMENT
??$__copy@PAUref_sound@@PAU1@H@priv@stlp_std@@YAPAUref_sound@@PAU2@00ABUrandom_access_iterator_tag@1@PAH@Z PROC ; stlp_std::priv::__copy<ref_sound *,ref_sound *,int>, COMDAT
; ___first$ = edx
; ___last$ = ecx
; ___result$ = eax

; 200  :        _OutputIter __result, const random_access_iterator_tag &, _Distance*) {

	push	ebx
	push	esi
	push	edi
	mov	esi, ecx
	mov	edi, edx

; 201  :   for (_Distance __n = __last - __first; __n > 0; --__n) {

	sub	esi, edi
	sar	esi, 2
	test	esi, esi
	mov	ebx, eax
	jle	SHORT $LN1@copy@14
$LL3@copy@14:

; 202  :     *__result = *__first;

	push	edi
	mov	ecx, ebx
	call	??4ref_sound@@QAEAAU0@ABU0@@Z
	sub	esi, 1

; 203  :     ++__first;

	add	edi, 4

; 204  :     ++__result;

	add	ebx, 4
	test	esi, esi
	jg	SHORT $LL3@copy@14

; 205  :   }
; 206  :   return __result;

	mov	eax, ebx
$LN1@copy@14:
	pop	edi
	pop	esi
	pop	ebx

; 207  : }

	ret	0
??$__copy@PAUref_sound@@PAU1@H@priv@stlp_std@@YAPAUref_sound@@PAU2@00ABUrandom_access_iterator_tag@1@PAH@Z ENDP ; stlp_std::priv::__copy<ref_sound *,ref_sound *,int>
; Function compile flags: /Ogtpy
; File d:\clearsky\sources\sdk\include\stlport\stl\_vector.h
_TEXT	ENDS
;	COMDAT ??$_M_allocate_and_copy@PAPAX@?$_Impl_vector@PAXV?$xalloc@PAX@@@priv@stlp_std@@AAEPAPAXAAIPAPAX1@Z
_TEXT	SEGMENT
??$_M_allocate_and_copy@PAPAX@?$_Impl_vector@PAXV?$xalloc@PAX@@@priv@stlp_std@@AAEPAPAXAAIPAPAX1@Z PROC ; stlp_std::priv::_Impl_vector<void *,xalloc<void *> >::_M_allocate_and_copy<void * *>, COMDAT
; ___n$ = eax
; ___first$ = ebx
; ___last$ = ecx

; 634  :                                _ForwardIterator __first, _ForwardIterator __last)
; 635  : #else /* _STLP_MEMBER_TEMPLATES */
; 636  :   pointer _M_allocate_and_copy(size_type& __n,
; 637  :                                const_pointer __first, const_pointer __last)
; 638  : #endif /* _STLP_MEMBER_TEMPLATES */
; 639  :   {
; 640  :     pointer __result = this->_M_end_of_storage.allocate(__n, __n);

	mov	eax, DWORD PTR [eax]
	push	esi
	mov	esi, ecx
	lea	ecx, DWORD PTR [eax*4]
	push	edi
	push	ecx
	mov	ecx, DWORD PTR __imp_?Memory@@3VxrMemory@@A
	call	DWORD PTR __imp_?mem_alloc@xrMemory@@QAEPAXI@Z

; 641  :     _STLP_TRY {
; 642  :       uninitialized_copy(__first, __last, __result);

	cmp	esi, ebx
	mov	edi, eax
	je	SHORT $LN28@M_allocate@9
	sub	esi, ebx
	push	esi
	push	ebx
	push	edi
	call	_memcpy
	add	esp, 12					; 0000000cH

; 643  :       return __result;

	mov	eax, edi
$LN28@M_allocate@9:
	pop	edi
	pop	esi

; 644  :     }
; 645  :     _STLP_UNWIND(this->_M_end_of_storage.deallocate(__result, __n))
; 646  :     _STLP_RET_AFTER_THROW(__result)
; 647  :   }

	ret	0
??$_M_allocate_and_copy@PAPAX@?$_Impl_vector@PAXV?$xalloc@PAX@@@priv@stlp_std@@AAEPAPAXAAIPAPAX1@Z ENDP ; stlp_std::priv::_Impl_vector<void *,xalloc<void *> >::_M_allocate_and_copy<void * *>
; Function compile flags: /Ogtpy
; File d:\clearsky\sources\sdk\include\stlport\stl\_vector.c
_TEXT	ENDS
;	COMDAT ?_M_fill_insert_aux@?$_Impl_vector@PAXV?$xalloc@PAX@@@priv@stlp_std@@AAEXPAPAXIABQAXABU__false_type@3@@Z
_TEXT	SEGMENT
___x_copy$136762 = -4					; size = 4
tv333 = 8						; size = 4
___last$313126 = 8					; size = 4
___pos$ = 8						; size = 4
___n$ = 12						; size = 4
$T313027 = 16						; size = 1
___x$ = 16						; size = 4
___formal$ = 20						; size = 4
?_M_fill_insert_aux@?$_Impl_vector@PAXV?$xalloc@PAX@@@priv@stlp_std@@AAEXPAPAXIABQAXABU__false_type@3@@Z PROC ; stlp_std::priv::_Impl_vector<void *,xalloc<void *> >::_M_fill_insert_aux, COMDAT
; _this$ = ecx

; 143  :                                               const _Tp& __x, const __false_type& /*_Movable*/) {

	push	ecx

; 144  :   //Here self referencing needs to be checked even for non movable types.
; 145  :   if (_M_is_inside(__x)) {

	mov	edx, DWORD PTR ___x$[esp]
	push	ebp
	mov	ebp, ecx
	cmp	edx, DWORD PTR [ebp]
	jb	SHORT $LN3@M_fill_ins@10
	cmp	edx, DWORD PTR [ebp+4]
	jae	SHORT $LN3@M_fill_ins@10

; 146  :     _Tp __x_copy = __x;

	mov	eax, DWORD PTR [edx]

; 147  :     _M_fill_insert_aux(__pos, __n, __x_copy, __false_type());

	lea	ecx, DWORD PTR $T313027[esp+4]
	push	ecx
	mov	ecx, DWORD PTR ___pos$[esp+8]
	lea	edx, DWORD PTR ___x_copy$136762[esp+12]
	mov	DWORD PTR ___x_copy$136762[esp+12], eax
	mov	eax, DWORD PTR ___n$[esp+8]
	push	edx
	push	eax
	push	ecx
	mov	ecx, ebp
	mov	BYTE PTR $T313027[esp+20], 0
	call	?_M_fill_insert_aux@?$_Impl_vector@PAXV?$xalloc@PAX@@@priv@stlp_std@@AAEXPAPAXIABQAXABU__false_type@3@@Z ; stlp_std::priv::_Impl_vector<void *,xalloc<void *> >::_M_fill_insert_aux
	pop	ebp

; 162  :   }
; 163  : }

	pop	ecx
	ret	16					; 00000010H
$LN3@M_fill_ins@10:

; 148  :     return;
; 149  :   }
; 150  :   const size_type __elems_after = this->_M_finish - __pos;
; 151  :   pointer __old_finish = this->_M_finish;
; 152  :   if (__elems_after > __n) {

	mov	eax, DWORD PTR ___n$[esp+4]
	push	ebx
	mov	ebx, DWORD PTR ___pos$[esp+8]
	push	esi
	mov	esi, DWORD PTR [ebp+4]
	push	edi
	mov	edi, esi
	sub	edi, ebx
	sar	edi, 2
	cmp	edi, eax
	jbe	SHORT $LN2@M_fill_ins@10

; 153  :     _STLP_PRIV __ucopy_ptrs(this->_M_finish - __n, this->_M_finish, this->_M_finish, _TrivialUCopy());

	lea	ecx, DWORD PTR [eax*4]
	mov	edi, esi
	sub	edi, ecx
	cmp	esi, edi
	mov	DWORD PTR tv333[esp+16], ecx
	je	SHORT $LN15@M_fill_ins@10
	mov	edx, esi
	sub	edx, edi
	push	edx
	push	edi
	push	esi
	call	_memcpy
	mov	ecx, DWORD PTR tv333[esp+28]
	mov	edx, DWORD PTR ___x$[esp+28]
	add	esp, 12					; 0000000cH
$LN15@M_fill_ins@10:

; 154  :     this->_M_finish += __n;

	add	DWORD PTR [ebp+4], ecx

; 155  :     _STLP_PRIV __copy_backward_ptrs(__pos, __old_finish - __n, __old_finish, _TrivialCopy());

	sub	edi, ebx
	test	edi, edi
	jle	SHORT $LN20@M_fill_ins@10
	push	edi
	push	ebx
	sub	esi, edi
	push	esi
	call	DWORD PTR __imp__memmove
	mov	ecx, DWORD PTR tv333[esp+28]
	mov	edx, DWORD PTR ___x$[esp+28]
	add	esp, 12					; 0000000cH
$LN20@M_fill_ins@10:

; 156  :     _STLP_STD::fill(__pos, __pos + __n, __x);

	add	ecx, ebx
	cmp	ebx, ecx
	mov	eax, ebx
	je	SHORT $LN58@M_fill_ins@10
$LL24@M_fill_ins@10:
	mov	esi, DWORD PTR [edx]
	mov	DWORD PTR [eax], esi
	add	eax, 4
	cmp	eax, ecx
	jne	SHORT $LL24@M_fill_ins@10
	pop	edi
	pop	esi
	pop	ebx
	pop	ebp

; 162  :   }
; 163  : }

	pop	ecx
	ret	16					; 00000010H
$LN2@M_fill_ins@10:

; 157  :   } else {
; 158  :     this->_M_finish = _STLP_PRIV __uninitialized_fill_n(this->_M_finish, __n - __elems_after, __x);

	sub	eax, edi
	lea	edx, DWORD PTR [esi+eax*4]
	mov	eax, edx
	sub	eax, esi
	sar	eax, 2
	test	eax, eax
	mov	DWORD PTR ___last$313126[esp+16], edx
	mov	ecx, esi
	jle	SHORT $LN29@M_fill_ins@10
$LL31@M_fill_ins@10:
	test	ecx, ecx
	je	SHORT $LN30@M_fill_ins@10
	mov	edx, DWORD PTR ___x$[esp+16]
	mov	edx, DWORD PTR [edx]
	mov	DWORD PTR [ecx], edx
	mov	edx, DWORD PTR ___last$313126[esp+16]
$LN30@M_fill_ins@10:
	sub	eax, 1
	add	ecx, 4
	test	eax, eax
	jg	SHORT $LL31@M_fill_ins@10
$LN29@M_fill_ins@10:

; 159  :     _STLP_PRIV __ucopy_ptrs(__pos, __old_finish, this->_M_finish, _TrivialUCopy());

	cmp	esi, ebx
	mov	DWORD PTR [ebp+4], edx
	je	SHORT $LN45@M_fill_ins@10
	mov	eax, esi
	sub	eax, ebx
	push	eax
	push	ebx
	push	edx
	call	_memcpy
	add	esp, 12					; 0000000cH
$LN45@M_fill_ins@10:

; 160  :     this->_M_finish += __elems_after;

	lea	ecx, DWORD PTR [edi*4]
	add	DWORD PTR [ebp+4], ecx

; 161  :     _STLP_STD::fill(__pos, __old_finish, __x);

	cmp	ebx, esi
	mov	eax, ebx
	je	SHORT $LN58@M_fill_ins@10
$LL48@M_fill_ins@10:
	mov	edx, DWORD PTR ___x$[esp+16]
	mov	ecx, DWORD PTR [edx]
	mov	DWORD PTR [eax], ecx
	add	eax, 4
	cmp	eax, esi
	jne	SHORT $LL48@M_fill_ins@10
$LN58@M_fill_ins@10:
	pop	edi
	pop	esi
	pop	ebx
	pop	ebp

; 162  :   }
; 163  : }

	pop	ecx
	ret	16					; 00000010H
?_M_fill_insert_aux@?$_Impl_vector@PAXV?$xalloc@PAX@@@priv@stlp_std@@AAEXPAPAXIABQAXABU__false_type@3@@Z ENDP ; stlp_std::priv::_Impl_vector<void *,xalloc<void *> >::_M_fill_insert_aux
; Function compile flags: /Ogtpy
; File d:\clearsky\sources\sdk\include\stlport\stl\pointers\_vector.h
_TEXT	ENDS
;	COMDAT ??0?$vector@PAVCEnvDescriptor@@V?$xalloc@PAVCEnvDescriptor@@@@@stlp_std@@QAE@ABV?$xalloc@PAVCEnvDescriptor@@@@@Z
_TEXT	SEGMENT
??0?$vector@PAVCEnvDescriptor@@V?$xalloc@PAVCEnvDescriptor@@@@@stlp_std@@QAE@ABV?$xalloc@PAVCEnvDescriptor@@@@@Z PROC ; stlp_std::vector<CEnvDescriptor *,xalloc<CEnvDescriptor *> >::vector<CEnvDescriptor *,xalloc<CEnvDescriptor *> >, COMDAT
; _this$ = eax

; 106  :   explicit vector(const allocator_type& __a = allocator_type())

	xor	ecx, ecx
	mov	DWORD PTR [eax], ecx
	mov	DWORD PTR [eax+4], ecx
	mov	DWORD PTR [eax+8], ecx
	ret	0
??0?$vector@PAVCEnvDescriptor@@V?$xalloc@PAVCEnvDescriptor@@@@@stlp_std@@QAE@ABV?$xalloc@PAVCEnvDescriptor@@@@@Z ENDP ; stlp_std::vector<CEnvDescriptor *,xalloc<CEnvDescriptor *> >::vector<CEnvDescriptor *,xalloc<CEnvDescriptor *> >
; Function compile flags: /Ogtpy
; File d:\clearsky\sources\sdk\include\stlport\stl\_algobase.h
_TEXT	ENDS
;	COMDAT ??$__copy_ptrs@PAUref_sound@@PAU1@@priv@stlp_std@@YAPAUref_sound@@PAU2@00ABU__false_type@1@@Z
_TEXT	SEGMENT
??$__copy_ptrs@PAUref_sound@@PAU1@@priv@stlp_std@@YAPAUref_sound@@PAU2@00ABU__false_type@1@@Z PROC ; stlp_std::priv::__copy_ptrs<ref_sound *,ref_sound *>, COMDAT
; ___first$ = edx
; ___last$ = ecx
; ___result$ = eax

; 249  :                                const __false_type& /*IsOKToMemCpy*/) {

	push	ebx
	push	esi
	push	edi
	mov	edi, ecx
	mov	ebx, edx

; 250  :   return __copy(__first, __last, __result, random_access_iterator_tag(), (ptrdiff_t*)0);

	sub	edi, ebx
	sar	edi, 2
	test	edi, edi
	mov	esi, eax
	jle	SHORT $LN3@copy_ptrs@39
	sub	ebx, esi
$LL5@copy_ptrs@39:
	lea	eax, DWORD PTR [ebx+esi]
	push	eax
	mov	ecx, esi
	call	??4ref_sound@@QAEAAU0@ABU0@@Z
	sub	edi, 1
	add	esi, 4
	test	edi, edi
	jg	SHORT $LL5@copy_ptrs@39
	mov	eax, esi
$LN3@copy_ptrs@39:
	pop	edi
	pop	esi
	pop	ebx

; 251  : }

	ret	0
??$__copy_ptrs@PAUref_sound@@PAU1@@priv@stlp_std@@YAPAUref_sound@@PAU2@00ABU__false_type@1@@Z ENDP ; stlp_std::priv::__copy_ptrs<ref_sound *,ref_sound *>
; Function compile flags: /Ogtpy
; File d:\clearsky\sources\sdk\include\stlport\stl\_tree.h
_TEXT	ENDS
;	COMDAT ??E?$_Rb_tree_iterator@U?$pair@$$CBVshared_str@@V?$xr_vector@PAVCEnvDescriptor@@V?$xalloc@PAVCEnvDescriptor@@@@@@@stlp_std@@U?$_MapTraitsT@U?$pair@$$CBVshared_str@@V?$xr_vector@PAVCEnvDescriptor@@V?$xalloc@PAVCEnvDescriptor@@@@@@@stlp_std@@@priv@2@@priv@stlp_std@@QAEAAU012@XZ
_TEXT	SEGMENT
??E?$_Rb_tree_iterator@U?$pair@$$CBVshared_str@@V?$xr_vector@PAVCEnvDescriptor@@V?$xalloc@PAVCEnvDescriptor@@@@@@@stlp_std@@U?$_MapTraitsT@U?$pair@$$CBVshared_str@@V?$xr_vector@PAVCEnvDescriptor@@V?$xalloc@PAVCEnvDescriptor@@@@@@@stlp_std@@@priv@2@@priv@stlp_std@@QAEAAU012@XZ PROC ; stlp_std::priv::_Rb_tree_iterator<stlp_std::pair<shared_str const ,xr_vector<CEnvDescriptor *,xalloc<CEnvDescriptor *> > >,stlp_std::priv::_MapTraitsT<stlp_std::pair<shared_str const ,xr_vector<CEnvDescriptor *,xalloc<CEnvDescriptor *> > > > >::operator++, COMDAT
; _this$ = eax

; 177  :     _M_node = _Rb_global_inst::_M_increment(_M_node);

	mov	ecx, DWORD PTR [eax]
	mov	edx, DWORD PTR [ecx+12]
	test	edx, edx
	je	SHORT $LN7@operator@49
	mov	ecx, DWORD PTR [edx+8]
	test	ecx, ecx
	je	SHORT $LN10@operator@49
$LL11@operator@49:
	mov	edx, ecx
	mov	ecx, DWORD PTR [edx+8]
	test	ecx, ecx
	jne	SHORT $LL11@operator@49
$LN10@operator@49:
	mov	DWORD PTR [eax], edx

; 178  :     return *this;
; 179  :   }

	ret	0

; 177  :     _M_node = _Rb_global_inst::_M_increment(_M_node);

$LN7@operator@49:
	mov	edx, DWORD PTR [ecx+4]
	cmp	ecx, DWORD PTR [edx+12]
	jne	SHORT $LN4@operator@49
$LL5@operator@49:
	mov	ecx, edx
	mov	edx, DWORD PTR [edx+4]
	cmp	ecx, DWORD PTR [edx+12]
	je	SHORT $LL5@operator@49
$LN4@operator@49:
	cmp	DWORD PTR [ecx+12], edx
	jne	SHORT $LN10@operator@49
	mov	DWORD PTR [eax], ecx

; 178  :     return *this;
; 179  :   }

	ret	0
??E?$_Rb_tree_iterator@U?$pair@$$CBVshared_str@@V?$xr_vector@PAVCEnvDescriptor@@V?$xalloc@PAVCEnvDescriptor@@@@@@@stlp_std@@U?$_MapTraitsT@U?$pair@$$CBVshared_str@@V?$xr_vector@PAVCEnvDescriptor@@V?$xalloc@PAVCEnvDescriptor@@@@@@@stlp_std@@@priv@2@@priv@stlp_std@@QAEAAU012@XZ ENDP ; stlp_std::priv::_Rb_tree_iterator<stlp_std::pair<shared_str const ,xr_vector<CEnvDescriptor *,xalloc<CEnvDescriptor *> > >,stlp_std::priv::_MapTraitsT<stlp_std::pair<shared_str const ,xr_vector<CEnvDescriptor *,xalloc<CEnvDescriptor *> > > > >::operator++
; Function compile flags: /Ogtpy
_TEXT	ENDS
;	COMDAT ?begin@?$_Rb_tree@Vshared_str@@Ustr_pred@CEnvironment@@U?$pair@$$CBVshared_str@@V?$xr_vector@PAVCEnvDescriptor@@V?$xalloc@PAVCEnvDescriptor@@@@@@@stlp_std@@U?$_Select1st@U?$pair@$$CBVshared_str@@V?$xr_vector@PAVCEnvDescriptor@@V?$xalloc@PAVCEnvDescriptor@@@@@@@stlp_std@@@priv@5@U?$_MapTraitsT@U?$pair@$$CBVshared_str@@V?$xr_vector@PAVCEnvDescriptor@@V?$xalloc@PAVCEnvDescriptor@@@@@@@stlp_std@@@75@V?$xalloc@U?$pair@Vshared_str@@V?$xr_vector@PAVCEnvDescriptor@@V?$xalloc@PAVCEnvDescriptor@@@@@@@stlp_std@@@@@priv@stlp_std@@QAE?AU?$_Rb_tree_iterator@U?$pair@$$CBVshared_str@@V?$xr_vector@PAVCEnvDescriptor@@V?$xalloc@PAVCEnvDescriptor@@@@@@@stlp_std@@U?$_MapTraitsT@U?$pair@$$CBVshared_str@@V?$xr_vector@PAVCEnvDescriptor@@V?$xalloc@PAVCEnvDescriptor@@@@@@@stlp_std@@@priv@2@@23@XZ
_TEXT	SEGMENT
?begin@?$_Rb_tree@Vshared_str@@Ustr_pred@CEnvironment@@U?$pair@$$CBVshared_str@@V?$xr_vector@PAVCEnvDescriptor@@V?$xalloc@PAVCEnvDescriptor@@@@@@@stlp_std@@U?$_Select1st@U?$pair@$$CBVshared_str@@V?$xr_vector@PAVCEnvDescriptor@@V?$xalloc@PAVCEnvDescriptor@@@@@@@stlp_std@@@priv@5@U?$_MapTraitsT@U?$pair@$$CBVshared_str@@V?$xr_vector@PAVCEnvDescriptor@@V?$xalloc@PAVCEnvDescriptor@@@@@@@stlp_std@@@75@V?$xalloc@U?$pair@Vshared_str@@V?$xr_vector@PAVCEnvDescriptor@@V?$xalloc@PAVCEnvDescriptor@@@@@@@stlp_std@@@@@priv@stlp_std@@QAE?AU?$_Rb_tree_iterator@U?$pair@$$CBVshared_str@@V?$xr_vector@PAVCEnvDescriptor@@V?$xalloc@PAVCEnvDescriptor@@@@@@@stlp_std@@U?$_MapTraitsT@U?$pair@$$CBVshared_str@@V?$xr_vector@PAVCEnvDescriptor@@V?$xalloc@PAVCEnvDescriptor@@@@@@@stlp_std@@@priv@2@@23@XZ PROC ; stlp_std::priv::_Rb_tree<shared_str,CEnvironment::str_pred,stlp_std::pair<shared_str const ,xr_vector<CEnvDescriptor *,xalloc<CEnvDescriptor *> > >,stlp_std::priv::_Select1st<stlp_std::pair<shared_str const ,xr_vector<CEnvDescriptor *,xalloc<CEnvDescriptor *> > > >,stlp_std::priv::_MapTraitsT<stlp_std::pair<shared_str const ,xr_vector<CEnvDescriptor *,xalloc<CEnvDescriptor *> > > >,xalloc<stlp_std::pair<shared_str,xr_vector<CEnvDescriptor *,xalloc<CEnvDescriptor *> > > > >::begin, COMDAT
; _this$ = ecx
; ___$ReturnUdt$ = esi

; 416  :   iterator begin() { return iterator(_M_leftmost()); }

	call	?_M_leftmost@?$_Rb_tree@Vshared_str@@Ustr_pred@CEnvironment@@U?$pair@$$CBVshared_str@@V?$xr_vector@PAVCEnvDescriptor@@V?$xalloc@PAVCEnvDescriptor@@@@@@@stlp_std@@U?$_Select1st@U?$pair@$$CBVshared_str@@V?$xr_vector@PAVCEnvDescriptor@@V?$xalloc@PAVCEnvDescriptor@@@@@@@stlp_std@@@priv@5@U?$_MapTraitsT@U?$pair@$$CBVshared_str@@V?$xr_vector@PAVCEnvDescriptor@@V?$xalloc@PAVCEnvDescriptor@@@@@@@stlp_std@@@75@V?$xalloc@U?$pair@Vshared_str@@V?$xr_vector@PAVCEnvDescriptor@@V?$xalloc@PAVCEnvDescriptor@@@@@@@stlp_std@@@@@priv@stlp_std@@IAEAAPAU_Rb_tree_node_base@23@XZ ; stlp_std::priv::_Rb_tree<shared_str,CEnvironment::str_pred,stlp_std::pair<shared_str const ,xr_vector<CEnvDescriptor *,xalloc<CEnvDescriptor *> > >,stlp_std::priv::_Select1st<stlp_std::pair<shared_str const ,xr_vector<CEnvDescriptor *,xalloc<CEnvDescriptor *> > > >,stlp_std::priv::_MapTraitsT<stlp_std::pair<shared_str const ,xr_vector<CEnvDescriptor *,xalloc<CEnvDescriptor *> > > >,xalloc<stlp_std::pair<shared_str,xr_vector<CEnvDescriptor *,xalloc<CEnvDescriptor *> > > > >::_M_leftmost
	mov	eax, DWORD PTR [eax]
	mov	DWORD PTR [esi], eax
	mov	eax, esi
	ret	0
?begin@?$_Rb_tree@Vshared_str@@Ustr_pred@CEnvironment@@U?$pair@$$CBVshared_str@@V?$xr_vector@PAVCEnvDescriptor@@V?$xalloc@PAVCEnvDescriptor@@@@@@@stlp_std@@U?$_Select1st@U?$pair@$$CBVshared_str@@V?$xr_vector@PAVCEnvDescriptor@@V?$xalloc@PAVCEnvDescriptor@@@@@@@stlp_std@@@priv@5@U?$_MapTraitsT@U?$pair@$$CBVshared_str@@V?$xr_vector@PAVCEnvDescriptor@@V?$xalloc@PAVCEnvDescriptor@@@@@@@stlp_std@@@75@V?$xalloc@U?$pair@Vshared_str@@V?$xr_vector@PAVCEnvDescriptor@@V?$xalloc@PAVCEnvDescriptor@@@@@@@stlp_std@@@@@priv@stlp_std@@QAE?AU?$_Rb_tree_iterator@U?$pair@$$CBVshared_str@@V?$xr_vector@PAVCEnvDescriptor@@V?$xalloc@PAVCEnvDescriptor@@@@@@@stlp_std@@U?$_MapTraitsT@U?$pair@$$CBVshared_str@@V?$xr_vector@PAVCEnvDescriptor@@V?$xalloc@PAVCEnvDescriptor@@@@@@@stlp_std@@@priv@2@@23@XZ ENDP ; stlp_std::priv::_Rb_tree<shared_str,CEnvironment::str_pred,stlp_std::pair<shared_str const ,xr_vector<CEnvDescriptor *,xalloc<CEnvDescriptor *> > >,stlp_std::priv::_Select1st<stlp_std::pair<shared_str const ,xr_vector<CEnvDescriptor *,xalloc<CEnvDescriptor *> > > >,stlp_std::priv::_MapTraitsT<stlp_std::pair<shared_str const ,xr_vector<CEnvDescriptor *,xalloc<CEnvDescriptor *> > > >,xalloc<stlp_std::pair<shared_str,xr_vector<CEnvDescriptor *,xalloc<CEnvDescriptor *> > > > >::begin
; Function compile flags: /Ogtpy
_TEXT	ENDS
;	COMDAT ??E?$_Rb_tree_iterator@U?$pair@$$CBVshared_str@@V?$xr_vector@PAVCEnvDescriptor@@V?$xalloc@PAVCEnvDescriptor@@@@@@@stlp_std@@U?$_MapTraitsT@U?$pair@$$CBVshared_str@@V?$xr_vector@PAVCEnvDescriptor@@V?$xalloc@PAVCEnvDescriptor@@@@@@@stlp_std@@@priv@2@@priv@stlp_std@@QAE?AU012@H@Z
_TEXT	SEGMENT
??E?$_Rb_tree_iterator@U?$pair@$$CBVshared_str@@V?$xr_vector@PAVCEnvDescriptor@@V?$xalloc@PAVCEnvDescriptor@@@@@@@stlp_std@@U?$_MapTraitsT@U?$pair@$$CBVshared_str@@V?$xr_vector@PAVCEnvDescriptor@@V?$xalloc@PAVCEnvDescriptor@@@@@@@stlp_std@@@priv@2@@priv@stlp_std@@QAE?AU012@H@Z PROC ; stlp_std::priv::_Rb_tree_iterator<stlp_std::pair<shared_str const ,xr_vector<CEnvDescriptor *,xalloc<CEnvDescriptor *> > >,stlp_std::priv::_MapTraitsT<stlp_std::pair<shared_str const ,xr_vector<CEnvDescriptor *,xalloc<CEnvDescriptor *> > > > >::operator++, COMDAT
; _this$ = esi
; ___$ReturnUdt$ = eax

; 181  :     _Self __tmp = *this;

	mov	ecx, DWORD PTR [esi]

; 182  :     ++(*this);

	mov	edx, DWORD PTR [ecx+12]
	test	edx, edx
	mov	DWORD PTR [eax], ecx
	je	SHORT $LN13@operator@50
	mov	ecx, DWORD PTR [edx+8]
	test	ecx, ecx
	je	SHORT $LN16@operator@50
$LL17@operator@50:
	mov	edx, ecx
	mov	ecx, DWORD PTR [edx+8]
	test	ecx, ecx
	jne	SHORT $LL17@operator@50
$LN16@operator@50:
	mov	DWORD PTR [esi], edx

; 183  :     return __tmp;
; 184  :   }

	ret	0

; 182  :     ++(*this);

$LN13@operator@50:
	mov	edx, DWORD PTR [ecx+4]
	cmp	ecx, DWORD PTR [edx+12]
	jne	SHORT $LN10@operator@50
$LL11@operator@50:
	mov	ecx, edx
	mov	edx, DWORD PTR [edx+4]
	cmp	ecx, DWORD PTR [edx+12]
	je	SHORT $LL11@operator@50
$LN10@operator@50:
	cmp	DWORD PTR [ecx+12], edx
	jne	SHORT $LN16@operator@50
	mov	DWORD PTR [esi], ecx

; 183  :     return __tmp;
; 184  :   }

	ret	0
??E?$_Rb_tree_iterator@U?$pair@$$CBVshared_str@@V?$xr_vector@PAVCEnvDescriptor@@V?$xalloc@PAVCEnvDescriptor@@@@@@@stlp_std@@U?$_MapTraitsT@U?$pair@$$CBVshared_str@@V?$xr_vector@PAVCEnvDescriptor@@V?$xalloc@PAVCEnvDescriptor@@@@@@@stlp_std@@@priv@2@@priv@stlp_std@@QAE?AU012@H@Z ENDP ; stlp_std::priv::_Rb_tree_iterator<stlp_std::pair<shared_str const ,xr_vector<CEnvDescriptor *,xalloc<CEnvDescriptor *> > >,stlp_std::priv::_MapTraitsT<stlp_std::pair<shared_str const ,xr_vector<CEnvDescriptor *,xalloc<CEnvDescriptor *> > > > >::operator++
; Function compile flags: /Ogtpy
; File d:\clearsky\sources\sdk\include\stlport\stl\_map.h
_TEXT	ENDS
;	COMDAT ?begin@?$map@Vshared_str@@V?$xr_vector@PAVCEnvDescriptor@@V?$xalloc@PAVCEnvDescriptor@@@@@@Ustr_pred@CEnvironment@@V?$xalloc@U?$pair@Vshared_str@@V?$xr_vector@PAVCEnvDescriptor@@V?$xalloc@PAVCEnvDescriptor@@@@@@@stlp_std@@@@@stlp_std@@QAE?AU?$_Rb_tree_iterator@U?$pair@$$CBVshared_str@@V?$xr_vector@PAVCEnvDescriptor@@V?$xalloc@PAVCEnvDescriptor@@@@@@@stlp_std@@U?$_MapTraitsT@U?$pair@$$CBVshared_str@@V?$xr_vector@PAVCEnvDescriptor@@V?$xalloc@PAVCEnvDescriptor@@@@@@@stlp_std@@@priv@2@@priv@2@XZ
_TEXT	SEGMENT
?begin@?$map@Vshared_str@@V?$xr_vector@PAVCEnvDescriptor@@V?$xalloc@PAVCEnvDescriptor@@@@@@Ustr_pred@CEnvironment@@V?$xalloc@U?$pair@Vshared_str@@V?$xr_vector@PAVCEnvDescriptor@@V?$xalloc@PAVCEnvDescriptor@@@@@@@stlp_std@@@@@stlp_std@@QAE?AU?$_Rb_tree_iterator@U?$pair@$$CBVshared_str@@V?$xr_vector@PAVCEnvDescriptor@@V?$xalloc@PAVCEnvDescriptor@@@@@@@stlp_std@@U?$_MapTraitsT@U?$pair@$$CBVshared_str@@V?$xr_vector@PAVCEnvDescriptor@@V?$xalloc@PAVCEnvDescriptor@@@@@@@stlp_std@@@priv@2@@priv@2@XZ PROC ; stlp_std::map<shared_str,xr_vector<CEnvDescriptor *,xalloc<CEnvDescriptor *> >,CEnvironment::str_pred,xalloc<stlp_std::pair<shared_str,xr_vector<CEnvDescriptor *,xalloc<CEnvDescriptor *> > > > >::begin, COMDAT
; _this$ = ecx
; ___$ReturnUdt$ = esi

; 161  :   iterator begin() { return _M_t.begin(); }

	call	?_M_leftmost@?$_Rb_tree@Vshared_str@@Ustr_pred@CEnvironment@@U?$pair@$$CBVshared_str@@V?$xr_vector@PAVCEnvDescriptor@@V?$xalloc@PAVCEnvDescriptor@@@@@@@stlp_std@@U?$_Select1st@U?$pair@$$CBVshared_str@@V?$xr_vector@PAVCEnvDescriptor@@V?$xalloc@PAVCEnvDescriptor@@@@@@@stlp_std@@@priv@5@U?$_MapTraitsT@U?$pair@$$CBVshared_str@@V?$xr_vector@PAVCEnvDescriptor@@V?$xalloc@PAVCEnvDescriptor@@@@@@@stlp_std@@@75@V?$xalloc@U?$pair@Vshared_str@@V?$xr_vector@PAVCEnvDescriptor@@V?$xalloc@PAVCEnvDescriptor@@@@@@@stlp_std@@@@@priv@stlp_std@@IAEAAPAU_Rb_tree_node_base@23@XZ ; stlp_std::priv::_Rb_tree<shared_str,CEnvironment::str_pred,stlp_std::pair<shared_str const ,xr_vector<CEnvDescriptor *,xalloc<CEnvDescriptor *> > >,stlp_std::priv::_Select1st<stlp_std::pair<shared_str const ,xr_vector<CEnvDescriptor *,xalloc<CEnvDescriptor *> > > >,stlp_std::priv::_MapTraitsT<stlp_std::pair<shared_str const ,xr_vector<CEnvDescriptor *,xalloc<CEnvDescriptor *> > > >,xalloc<stlp_std::pair<shared_str,xr_vector<CEnvDescriptor *,xalloc<CEnvDescriptor *> > > > >::_M_leftmost
	mov	eax, DWORD PTR [eax]
	mov	DWORD PTR [esi], eax
	mov	eax, esi
	ret	0
?begin@?$map@Vshared_str@@V?$xr_vector@PAVCEnvDescriptor@@V?$xalloc@PAVCEnvDescriptor@@@@@@Ustr_pred@CEnvironment@@V?$xalloc@U?$pair@Vshared_str@@V?$xr_vector@PAVCEnvDescriptor@@V?$xalloc@PAVCEnvDescriptor@@@@@@@stlp_std@@@@@stlp_std@@QAE?AU?$_Rb_tree_iterator@U?$pair@$$CBVshared_str@@V?$xr_vector@PAVCEnvDescriptor@@V?$xalloc@PAVCEnvDescriptor@@@@@@@stlp_std@@U?$_MapTraitsT@U?$pair@$$CBVshared_str@@V?$xr_vector@PAVCEnvDescriptor@@V?$xalloc@PAVCEnvDescriptor@@@@@@@stlp_std@@@priv@2@@priv@2@XZ ENDP ; stlp_std::map<shared_str,xr_vector<CEnvDescriptor *,xalloc<CEnvDescriptor *> >,CEnvironment::str_pred,xalloc<stlp_std::pair<shared_str,xr_vector<CEnvDescriptor *,xalloc<CEnvDescriptor *> > > > >::begin
; Function compile flags: /Ogtpy
; File d:\clearsky\sources\sdk\include\stlport\stl\pointers\_vector.h
_TEXT	ENDS
;	COMDAT ?back@?$vector@PAVCEnvDescriptor@@V?$xalloc@PAVCEnvDescriptor@@@@@stlp_std@@QAEAAPAVCEnvDescriptor@@XZ
_TEXT	SEGMENT
?back@?$vector@PAVCEnvDescriptor@@V?$xalloc@PAVCEnvDescriptor@@@@@stlp_std@@QAEAAPAVCEnvDescriptor@@XZ PROC ; stlp_std::vector<CEnvDescriptor *,xalloc<CEnvDescriptor *> >::back, COMDAT
; _this$ = eax

; 100  :   reference back()              { return cast_traits::to_value_type_ref(_M_impl.back()); }

	mov	eax, DWORD PTR [eax+4]
	sub	eax, 4
	ret	0
?back@?$vector@PAVCEnvDescriptor@@V?$xalloc@PAVCEnvDescriptor@@@@@stlp_std@@QAEAAPAVCEnvDescriptor@@XZ ENDP ; stlp_std::vector<CEnvDescriptor *,xalloc<CEnvDescriptor *> >::back
; Function compile flags: /Ogtpy
_TEXT	ENDS
;	COMDAT ?back@?$vector@PAVCEnvAmbient@@V?$xalloc@PAVCEnvAmbient@@@@@stlp_std@@QAEAAPAVCEnvAmbient@@XZ
_TEXT	SEGMENT
?back@?$vector@PAVCEnvAmbient@@V?$xalloc@PAVCEnvAmbient@@@@@stlp_std@@QAEAAPAVCEnvAmbient@@XZ PROC ; stlp_std::vector<CEnvAmbient *,xalloc<CEnvAmbient *> >::back, COMDAT
; _this$ = eax

; 100  :   reference back()              { return cast_traits::to_value_type_ref(_M_impl.back()); }

	mov	eax, DWORD PTR [eax+4]
	sub	eax, 4
	ret	0
?back@?$vector@PAVCEnvAmbient@@V?$xalloc@PAVCEnvAmbient@@@@@stlp_std@@QAEAAPAVCEnvAmbient@@XZ ENDP ; stlp_std::vector<CEnvAmbient *,xalloc<CEnvAmbient *> >::back
_TEXT	ENDS
PUBLIC	__real@3f59999a
PUBLIC	__real@3f7d70a4
PUBLIC	?lerp@CEnvDescriptorMixer@@QAEXPAVCEnvironment@@AAVCEnvDescriptor@@1MAAVCEnvModifier@@M@Z ; CEnvDescriptorMixer::lerp
;	COMDAT __real@3f59999a
; File d:\clearsky\sources\engine\xrcore\_std_extensions.h
CONST	SEGMENT
__real@3f59999a DD 03f59999ar			; 0.85
CONST	ENDS
;	COMDAT __real@3f7d70a4
CONST	SEGMENT
__real@3f7d70a4 DD 03f7d70a4r			; 0.99
; Function compile flags: /Ogtpy
; File d:\clearsky\sources\engine\xrengine\environment_misc.cpp
CONST	ENDS
;	COMDAT ?lerp@CEnvDescriptorMixer@@QAEXPAVCEnvironment@@AAVCEnvDescriptor@@1MAAVCEnvModifier@@M@Z
_TEXT	SEGMENT
tv1445 = -12						; size = 4
tv835 = -12						; size = 4
tv1448 = -8						; size = 4
_modif_power$ = -8					; size = 4
_mag$313619 = -4					; size = 4
_fi$ = -4						; size = 4
___formal$ = 8						; size = 4
_A$ = 12						; size = 4
_B$ = 16						; size = 4
_f$ = 20						; size = 4
_Mdf$ = 24						; size = 4
_modifier_power$ = 28					; size = 4
?lerp@CEnvDescriptorMixer@@QAEXPAVCEnvironment@@AAVCEnvDescriptor@@1MAAVCEnvModifier@@M@Z PROC ; CEnvDescriptorMixer::lerp, COMDAT
; _this$ = ecx

; 389  : {

	push	ebp
	mov	ebp, esp
	and	esp, -64				; ffffffc0H
	sub	esp, 52					; 00000034H

; 390  : 	float	modif_power		=	1.f/(modifier_power+1);	// the environment itself

	movss	xmm0, DWORD PTR __real@3f800000
	movss	xmm2, DWORD PTR _modifier_power$[ebp]
	push	ebx

; 391  : 	float	fi				=	1-f;
; 392  : 
; 393  : 	m_pDescriptorMixer->lerp(&*A.m_pDescriptor, &*B.m_pDescriptor);

	mov	ebx, DWORD PTR _A$[ebp]
	push	esi
	push	edi
	mov	edi, DWORD PTR _B$[ebp]
	mov	edx, DWORD PTR [edi+20]
	mov	esi, ecx
	mov	ecx, DWORD PTR [esi+188]
	mov	eax, DWORD PTR [ecx]
	mov	eax, DWORD PTR [eax+16]
	push	edx
	mov	edx, DWORD PTR [ebx+20]
	addss	xmm2, xmm0
	movaps	xmm1, xmm0
	subss	xmm0, DWORD PTR _f$[ebp]
	divss	xmm1, xmm2
	push	edx
	movss	DWORD PTR _modif_power$[esp+72], xmm1
	movss	DWORD PTR tv835[esp+72], xmm0
	movss	DWORD PTR _fi$[esp+72], xmm0
	call	eax

; 394  : 	/*
; 395  : 	sky_r_textures.clear		();
; 396  : 	sky_r_textures.push_back	(mk_pair(0,A.sky_texture));
; 397  : 	sky_r_textures.push_back	(mk_pair(1,B.sky_texture));
; 398  : 
; 399  : 	sky_r_textures_env.clear	();
; 400  : 
; 401  : 	sky_r_textures_env.push_back(mk_pair(0,A.sky_texture_env));
; 402  : 	sky_r_textures_env.push_back(mk_pair(1,B.sky_texture_env));
; 403  : 
; 404  : 	clouds_r_textures.clear		();
; 405  : 	clouds_r_textures.push_back	(mk_pair(0,A.clouds_texture));
; 406  : 	clouds_r_textures.push_back	(mk_pair(1,B.clouds_texture));
; 407  : 	*/
; 408  : 
; 409  : 	weight					=	f;

	movss	xmm0, DWORD PTR _f$[ebp]

; 410  : 
; 411  : 	clouds_color.lerp		(A.clouds_color,B.clouds_color,f);

	movss	xmm3, DWORD PTR tv835[esp+64]
	movss	DWORD PTR [esi+192], xmm0
	movss	xmm2, DWORD PTR [edi+24]
	mulss	xmm2, xmm0

; 412  : 
; 413  : 	sky_rotation			=	(fi*A.sky_rotation + f*B.sky_rotation);
; 414  : 
; 415  : //.	far_plane				=	(fi*A.far_plane + f*B.far_plane + Mdf.far_plane)*psVisDistance*modif_power;
; 416  : 	if(Mdf.use_flags.test(eViewDist))

	mov	eax, DWORD PTR _Mdf$[ebp]
	movaps	xmm1, xmm3
	movaps	xmm4, xmm1
	mulss	xmm4, DWORD PTR [ebx+24]
	addss	xmm2, xmm4
	movss	DWORD PTR [esi+24], xmm2
	movss	xmm2, DWORD PTR [ebx+28]
	movss	xmm4, DWORD PTR [edi+28]
	mulss	xmm2, xmm1
	mulss	xmm4, xmm0
	addss	xmm2, xmm4
	movss	DWORD PTR [esi+28], xmm2
	movss	xmm2, DWORD PTR [ebx+32]
	movss	xmm4, DWORD PTR [edi+32]
	mulss	xmm2, xmm1
	mulss	xmm4, xmm0
	addss	xmm2, xmm4
	movss	DWORD PTR [esi+32], xmm2
	movss	xmm2, DWORD PTR [ebx+36]
	mulss	xmm2, xmm1
	movss	xmm1, DWORD PTR [edi+36]
	mulss	xmm1, xmm0
	addss	xmm2, xmm1
	movss	xmm1, DWORD PTR _fi$[esp+64]
	movss	DWORD PTR [esi+36], xmm2
	movss	xmm2, DWORD PTR [ebx+52]
	movss	xmm4, DWORD PTR [edi+52]
	mulss	xmm2, xmm1
	mulss	xmm4, xmm0
	addss	xmm2, xmm4
	movss	DWORD PTR [esi+52], xmm2
	test	BYTE PTR [eax+76], 1

; 417  : 		far_plane				=	(fi*A.far_plane + f*B.far_plane + Mdf.far_plane)*psVisDistance*modif_power;

	movss	xmm2, DWORD PTR [ebx+56]
	movss	xmm4, DWORD PTR [edi+56]
	mulss	xmm4, xmm0
	mulss	xmm2, xmm1
	addss	xmm2, xmm4
	movss	xmm4, DWORD PTR _modif_power$[esp+64]
	je	SHORT $LN22@lerp
	addss	xmm2, DWORD PTR [eax+20]
	mulss	xmm2, DWORD PTR ?psVisDistance@@3MA
	mulss	xmm2, xmm4

; 418  : 	else

	jmp	SHORT $LN133@lerp
$LN22@lerp:

; 419  : 		far_plane				=	(fi*A.far_plane + f*B.far_plane)*psVisDistance;

	mulss	xmm2, DWORD PTR ?psVisDistance@@3MA
$LN133@lerp:
	movss	DWORD PTR [esi+56], xmm2

; 420  : 	
; 421  : //.	fog_color.lerp			(A.fog_color,B.fog_color,f).add(Mdf.fog_color).mul(modif_power);
; 422  : 	fog_color.lerp			(A.fog_color,B.fog_color,f);

	movss	xmm5, DWORD PTR [ebx+60]
	movss	xmm6, DWORD PTR [edi+60]
	movaps	xmm2, xmm3
	mulss	xmm5, xmm2
	mulss	xmm6, xmm0
	addss	xmm5, xmm6
	movss	DWORD PTR [esi+60], xmm5
	movss	xmm5, DWORD PTR [ebx+64]
	movss	xmm6, DWORD PTR [edi+64]
	mulss	xmm5, xmm2
	mulss	xmm6, xmm0
	addss	xmm5, xmm6
	movss	DWORD PTR [esi+64], xmm5
	movss	xmm5, DWORD PTR [ebx+68]
	mulss	xmm5, xmm2
	movss	xmm2, DWORD PTR [edi+68]
	mulss	xmm2, xmm0
	addss	xmm5, xmm2
	movss	DWORD PTR [esi+68], xmm5

; 423  : 	if(Mdf.use_flags.test(eFogColor))

	test	BYTE PTR [eax+76], 2
	je	SHORT $LN41@lerp

; 424  : 		fog_color.add(Mdf.fog_color).mul(modif_power);

	movss	xmm2, DWORD PTR [esi+60]
	addss	xmm2, DWORD PTR [eax+24]
	movss	DWORD PTR [esi+60], xmm2
	movss	xmm2, DWORD PTR [eax+28]
	addss	xmm2, DWORD PTR [esi+64]
	movss	DWORD PTR [esi+64], xmm2
	movss	xmm2, DWORD PTR [eax+32]
	addss	xmm2, DWORD PTR [esi+68]
	movss	DWORD PTR [esi+68], xmm2
	movss	xmm2, DWORD PTR [esi+60]
	mulss	xmm2, xmm4
	movss	DWORD PTR [esi+60], xmm2
	movss	xmm2, DWORD PTR [esi+64]
	mulss	xmm2, xmm4
	movss	DWORD PTR [esi+64], xmm2
	movss	xmm2, DWORD PTR [esi+68]
	mulss	xmm2, xmm4
	movss	DWORD PTR [esi+68], xmm2
$LN41@lerp:

; 425  : 
; 426  : //.	fog_density				=	(fi*A.fog_density + f*B.fog_density + Mdf.fog_density)*modif_power;
; 427  : 	fog_density				=	(fi*A.fog_density + f*B.fog_density);

	movss	xmm2, DWORD PTR [ebx+72]
	movss	xmm5, DWORD PTR [edi+72]
	mulss	xmm2, xmm1
	mulss	xmm5, xmm0
	addss	xmm2, xmm5
	movss	DWORD PTR [esi+72], xmm2

; 428  : 	if(Mdf.use_flags.test(eFogDensity))

	test	BYTE PTR [eax+76], 4
	je	SHORT $LN19@lerp

; 429  : 	{
; 430  : 		fog_density			+= Mdf.fog_density;

	movss	xmm5, DWORD PTR [eax+36]
	addss	xmm5, xmm2

; 431  : 		fog_density			*= modif_power;

	mulss	xmm5, xmm4
	movss	DWORD PTR [esi+72], xmm5
$LN19@lerp:

; 432  : 	}
; 433  : 
; 434  : 	fog_distance			=	(fi*A.fog_distance + f*B.fog_distance);

	movss	xmm2, DWORD PTR [ebx+76]
	movss	xmm5, DWORD PTR [edi+76]
	mulss	xmm2, xmm1
	mulss	xmm5, xmm0
	addss	xmm2, xmm5
	movss	DWORD PTR [esi+76], xmm2

; 435  : 	fog_near				=	(1.0f - fog_density)*0.85f * fog_distance;

	movss	xmm5, DWORD PTR __real@3f800000
	subss	xmm5, DWORD PTR [esi+72]
	mulss	xmm5, xmm2

; 436  : 	fog_far					=	0.99f * fog_distance;

	mulss	xmm2, DWORD PTR __real@3f7d70a4
	mulss	xmm5, DWORD PTR __real@3f59999a
	movss	DWORD PTR [esi+200], xmm2
	movss	DWORD PTR [esi+196], xmm5

; 437  : 	
; 438  : 	rain_density			=	fi*A.rain_density + f*B.rain_density;

	movss	xmm2, DWORD PTR [ebx+80]
	movss	xmm5, DWORD PTR [edi+80]
	mulss	xmm2, xmm1
	mulss	xmm5, xmm0
	addss	xmm2, xmm5
	movss	DWORD PTR [esi+80], xmm2

; 439  : 	rain_color.lerp			(A.rain_color,B.rain_color,f);

	movss	xmm5, DWORD PTR [ebx+84]
	movss	xmm6, DWORD PTR [edi+84]
	movaps	xmm2, xmm3
	mulss	xmm5, xmm2
	mulss	xmm6, xmm0
	addss	xmm5, xmm6
	movss	DWORD PTR [esi+84], xmm5
	movss	xmm5, DWORD PTR [ebx+88]
	movss	xmm6, DWORD PTR [edi+88]
	mulss	xmm5, xmm2
	mulss	xmm6, xmm0
	addss	xmm5, xmm6
	movss	DWORD PTR [esi+88], xmm5
	movss	xmm5, DWORD PTR [ebx+92]
	mulss	xmm5, xmm2
	movss	xmm2, DWORD PTR [edi+92]
	mulss	xmm2, xmm0
	addss	xmm5, xmm2
	movss	DWORD PTR [esi+92], xmm5

; 440  : 	bolt_period				=	fi*A.bolt_period + f*B.bolt_period;

	movss	xmm2, DWORD PTR [ebx+96]
	movss	xmm5, DWORD PTR [edi+96]
	mulss	xmm2, xmm1
	mulss	xmm5, xmm0
	addss	xmm2, xmm5
	movss	DWORD PTR [esi+96], xmm2

; 441  : 	bolt_duration			=	fi*A.bolt_duration + f*B.bolt_duration;

	movss	xmm2, DWORD PTR [ebx+100]
	movss	xmm5, DWORD PTR [edi+100]
	mulss	xmm2, xmm1
	mulss	xmm5, xmm0
	addss	xmm2, xmm5
	movss	DWORD PTR [esi+100], xmm2

; 442  : 	// wind
; 443  : 	wind_velocity			=	fi*A.wind_velocity + f*B.wind_velocity;

	movss	xmm2, DWORD PTR [ebx+104]
	movss	xmm5, DWORD PTR [edi+104]
	mulss	xmm2, xmm1
	mulss	xmm5, xmm0
	addss	xmm2, xmm5
	movss	DWORD PTR [esi+104], xmm2

; 444  : 	wind_direction			=	fi*A.wind_direction + f*B.wind_direction;

	movss	xmm2, DWORD PTR [ebx+108]
	movss	xmm5, DWORD PTR [edi+108]
	mulss	xmm2, xmm1
	mulss	xmm5, xmm0
	addss	xmm2, xmm5
	movss	DWORD PTR [esi+108], xmm2

; 445  : 
; 446  : 	m_fSunShaftsIntensity	=	fi*A.m_fSunShaftsIntensity + f*B.m_fSunShaftsIntensity;

	movss	xmm2, DWORD PTR [ebx+164]
	movss	xmm5, DWORD PTR [edi+164]
	mulss	xmm2, xmm1
	mulss	xmm5, xmm0
	addss	xmm2, xmm5
	movss	DWORD PTR [esi+164], xmm2

; 447  : 	m_fWaterIntensity		=	fi*A.m_fWaterIntensity + f*B.m_fWaterIntensity;

	movss	xmm2, DWORD PTR [ebx+168]
	mulss	xmm2, xmm1
	movss	xmm1, DWORD PTR [edi+168]
	mulss	xmm1, xmm0
	addss	xmm2, xmm1
	movss	DWORD PTR [esi+168], xmm2

; 448  : 
; 449  : 	// colors
; 450  : //.	sky_color.lerp			(A.sky_color,B.sky_color,f).add(Mdf.sky_color).mul(modif_power);
; 451  : 	sky_color.lerp			(A.sky_color,B.sky_color,f);

	movss	xmm2, DWORD PTR [ebx+40]
	movss	xmm5, DWORD PTR [edi+40]
	movaps	xmm1, xmm3
	mulss	xmm2, xmm1
	mulss	xmm5, xmm0
	addss	xmm2, xmm5
	movss	DWORD PTR [esi+40], xmm2
	movss	xmm2, DWORD PTR [ebx+44]
	movss	xmm5, DWORD PTR [edi+44]
	mulss	xmm2, xmm1
	mulss	xmm5, xmm0
	addss	xmm2, xmm5
	movss	DWORD PTR [esi+44], xmm2
	movss	xmm2, DWORD PTR [ebx+48]
	mulss	xmm2, xmm1
	movss	xmm1, DWORD PTR [edi+48]
	mulss	xmm1, xmm0
	addss	xmm2, xmm1
	movss	DWORD PTR [esi+48], xmm2

; 452  : 	if(Mdf.use_flags.test(eSkyColor))

	test	BYTE PTR [eax+76], 16			; 00000010H
	je	SHORT $LN53@lerp

; 453  : 		sky_color.add(Mdf.sky_color).mul(modif_power);

	movss	xmm1, DWORD PTR [eax+52]
	addss	xmm1, DWORD PTR [esi+40]
	movss	DWORD PTR [esi+40], xmm1
	movss	xmm1, DWORD PTR [eax+56]
	addss	xmm1, DWORD PTR [esi+44]
	movss	DWORD PTR [esi+44], xmm1
	movss	xmm1, DWORD PTR [eax+60]
	addss	xmm1, DWORD PTR [esi+48]
	movss	DWORD PTR [esi+48], xmm1
	movaps	xmm1, xmm4
	mulss	xmm1, DWORD PTR [esi+40]
	movss	DWORD PTR [esi+40], xmm1
	movss	xmm1, DWORD PTR [esi+44]
	mulss	xmm1, xmm4
	movss	DWORD PTR [esi+44], xmm1
	movss	xmm1, DWORD PTR [esi+48]
	mulss	xmm1, xmm4
	movss	DWORD PTR [esi+48], xmm1
$LN53@lerp:

; 454  : 
; 455  : //.	ambient.lerp			(A.ambient,B.ambient,f).add(Mdf.ambient).mul(modif_power);
; 456  : 	ambient.lerp			(A.ambient,B.ambient,f);

	movss	xmm2, DWORD PTR [ebx+112]
	movss	xmm5, DWORD PTR [edi+112]
	movaps	xmm1, xmm3
	mulss	xmm2, xmm1
	mulss	xmm5, xmm0
	addss	xmm2, xmm5
	movss	DWORD PTR [esi+112], xmm2
	movss	xmm2, DWORD PTR [ebx+116]
	movss	xmm5, DWORD PTR [edi+116]
	mulss	xmm2, xmm1
	mulss	xmm5, xmm0
	addss	xmm2, xmm5
	movss	DWORD PTR [esi+116], xmm2
	movss	xmm2, DWORD PTR [ebx+120]
	mulss	xmm2, xmm1
	movss	xmm1, DWORD PTR [edi+120]
	mulss	xmm1, xmm0
	addss	xmm2, xmm1
	movss	DWORD PTR [esi+120], xmm2

; 457  : 	if(Mdf.use_flags.test(eAmbientColor))

	test	BYTE PTR [eax+76], 8
	je	SHORT $LN61@lerp

; 458  : 		ambient.add(Mdf.ambient).mul(modif_power);

	movss	xmm1, DWORD PTR [esi+112]
	addss	xmm1, DWORD PTR [eax+40]
	movss	DWORD PTR [esi+112], xmm1
	movss	xmm1, DWORD PTR [eax+44]
	addss	xmm1, DWORD PTR [esi+116]
	movss	DWORD PTR [esi+116], xmm1
	movss	xmm1, DWORD PTR [eax+48]
	addss	xmm1, DWORD PTR [esi+120]
	movss	DWORD PTR [esi+120], xmm1
	movss	xmm1, DWORD PTR [esi+112]
	mulss	xmm1, xmm4
	movss	DWORD PTR [esi+112], xmm1
	movss	xmm1, DWORD PTR [esi+116]
	mulss	xmm1, xmm4
	movss	DWORD PTR [esi+116], xmm1
	movss	xmm1, DWORD PTR [esi+120]
	mulss	xmm1, xmm4
	movss	DWORD PTR [esi+120], xmm1
$LN61@lerp:

; 459  : 
; 460  : 	hemi_color.lerp			(A.hemi_color,B.hemi_color,f);

	movss	xmm2, DWORD PTR [ebx+124]
	movss	xmm5, DWORD PTR [edi+124]
	movaps	xmm1, xmm3
	mulss	xmm2, xmm1
	mulss	xmm5, xmm0
	addss	xmm2, xmm5
	movss	DWORD PTR [esi+124], xmm2
	movss	xmm2, DWORD PTR [ebx+128]
	movss	xmm5, DWORD PTR [edi+128]
	mulss	xmm2, xmm1
	mulss	xmm5, xmm0
	addss	xmm2, xmm5
	movss	DWORD PTR [esi+128], xmm2
	movss	xmm2, DWORD PTR [ebx+132]
	movss	xmm5, DWORD PTR [edi+132]
	mulss	xmm2, xmm1
	mulss	xmm5, xmm0
	addss	xmm2, xmm5
	movss	DWORD PTR [esi+132], xmm2
	movss	xmm2, DWORD PTR [ebx+136]
	mulss	xmm2, xmm1
	movss	xmm1, DWORD PTR [edi+136]
	mulss	xmm1, xmm0
	addss	xmm2, xmm1
	movss	DWORD PTR [esi+136], xmm2

; 461  : 
; 462  : 	if(Mdf.use_flags.test(eHemiColor))

	test	BYTE PTR [eax+76], 32			; 00000020H
	je	SHORT $LN16@lerp

; 463  : 	{
; 464  : 		hemi_color.x			+= Mdf.hemi_color.x;

	movss	xmm1, DWORD PTR [eax+64]
	addss	xmm1, DWORD PTR [esi+124]
	movss	DWORD PTR [esi+124], xmm1

; 465  : 		hemi_color.y			+= Mdf.hemi_color.y; 

	movss	xmm1, DWORD PTR [eax+68]
	addss	xmm1, DWORD PTR [esi+128]
	movss	DWORD PTR [esi+128], xmm1

; 466  : 		hemi_color.z			+= Mdf.hemi_color.z;

	movss	xmm1, DWORD PTR [eax+72]
	addss	xmm1, DWORD PTR [esi+132]
	movss	DWORD PTR [esi+132], xmm1

; 467  : 		hemi_color.x			*= modif_power;

	movss	xmm1, DWORD PTR [esi+124]
	mulss	xmm1, xmm4
	movss	DWORD PTR [esi+124], xmm1

; 468  : 		hemi_color.y			*= modif_power;

	movaps	xmm1, xmm4
	mulss	xmm1, DWORD PTR [esi+128]
	movss	DWORD PTR [esi+128], xmm1

; 469  : 		hemi_color.z			*= modif_power;

	movss	xmm1, DWORD PTR [esi+132]
	mulss	xmm1, xmm4
	movss	DWORD PTR [esi+132], xmm1
$LN16@lerp:

; 470  : 	}
; 471  : 
; 472  : 	sun_color.lerp			(A.sun_color,B.sun_color,f);

	movss	xmm2, DWORD PTR [edi+140]
	movss	xmm4, DWORD PTR [ebx+140]
	mulss	xmm2, xmm0
	movaps	xmm1, xmm3
	mulss	xmm4, xmm1
	addss	xmm2, xmm4
	movss	DWORD PTR [esi+140], xmm2
	movss	xmm2, DWORD PTR [ebx+144]
	movss	xmm4, DWORD PTR [edi+144]
	mulss	xmm2, xmm1
	mulss	xmm4, xmm0
	addss	xmm2, xmm4
	movss	DWORD PTR [esi+144], xmm2
	movss	xmm2, DWORD PTR [ebx+148]
	mulss	xmm2, xmm1
	movss	xmm1, DWORD PTR [edi+148]
	mulss	xmm1, xmm0
	addss	xmm2, xmm1
	movss	DWORD PTR [esi+148], xmm2

; 473  : 
; 474  : 	R_ASSERT				( _valid(A.sun_dir) );

	cmp	BYTE PTR ?ignore_always@?BD@??lerp@CEnvDescriptorMixer@@QAEXPAVCEnvironment@@AAVCEnvDescriptor@@1MAAVCEnvModifier@@M@Z@4_NA, 0
	jne	$LN14@lerp
	fld	DWORD PTR [ebx+152]
	sub	esp, 8
	fstp	QWORD PTR [esp]
	call	DWORD PTR __imp___fpclass
	add	esp, 8
	test	eax, 663				; 00000297H
	jne	SHORT $LN71@lerp
	fld	DWORD PTR [ebx+156]
	sub	esp, 8
	fstp	QWORD PTR [esp]
	call	DWORD PTR __imp___fpclass
	add	esp, 8
	test	eax, 663				; 00000297H
	jne	SHORT $LN71@lerp
	fld	DWORD PTR [ebx+160]
	sub	esp, 8
	fstp	QWORD PTR [esp]
	call	DWORD PTR __imp___fpclass
	add	esp, 8
	test	eax, 663				; 00000297H
	je	SHORT $LN131@lerp
$LN71@lerp:
	mov	ecx, DWORD PTR __imp_?Debug@@3VxrDebug@@A
	push	OFFSET ?ignore_always@?BD@??lerp@CEnvDescriptorMixer@@QAEXPAVCEnvironment@@AAVCEnvDescriptor@@1MAAVCEnvModifier@@M@Z@4_NA
	push	OFFSET ??_C@_0BK@JGPMIJHM@CEnvDescriptorMixer?3?3lerp?$AA@
	push	474					; 000001daH
	push	OFFSET ??_C@_0DJ@LMFGIIMF@D?3?2CLEARSKY?2sources?2engine?2xrEng@
	push	OFFSET ??_C@_0BC@CPBJAOIM@_valid?$CIA?4sun_dir?$CJ?$AA@
	call	DWORD PTR __imp_?fail@xrDebug@@QAEXPBD0H0AA_N@Z
$LN131@lerp:
	movss	xmm0, DWORD PTR _f$[ebp]
	movss	xmm3, DWORD PTR tv835[esp+64]
$LN14@lerp:

; 475  : 	R_ASSERT				( _valid(B.sun_dir) );

	cmp	BYTE PTR ?ignore_always@?BH@??lerp@CEnvDescriptorMixer@@QAEXPAVCEnvironment@@AAVCEnvDescriptor@@1MAAVCEnvModifier@@M@Z@4_NA, 0
	jne	$LN10@lerp
	fld	DWORD PTR [edi+152]
	sub	esp, 8
	fstp	QWORD PTR [esp]
	call	DWORD PTR __imp___fpclass
	add	esp, 8
	test	eax, 663				; 00000297H
	jne	SHORT $LN84@lerp
	fld	DWORD PTR [edi+156]
	sub	esp, 8
	fstp	QWORD PTR [esp]
	call	DWORD PTR __imp___fpclass
	add	esp, 8
	test	eax, 663				; 00000297H
	jne	SHORT $LN84@lerp
	fld	DWORD PTR [edi+160]
	sub	esp, 8
	fstp	QWORD PTR [esp]
	call	DWORD PTR __imp___fpclass
	add	esp, 8
	test	eax, 663				; 00000297H
	je	SHORT $LN132@lerp
$LN84@lerp:
	mov	ecx, DWORD PTR __imp_?Debug@@3VxrDebug@@A
	push	OFFSET ?ignore_always@?BH@??lerp@CEnvDescriptorMixer@@QAEXPAVCEnvironment@@AAVCEnvDescriptor@@1MAAVCEnvModifier@@M@Z@4_NA
	push	OFFSET ??_C@_0BK@JGPMIJHM@CEnvDescriptorMixer?3?3lerp?$AA@
	push	475					; 000001dbH
	push	OFFSET ??_C@_0DJ@LMFGIIMF@D?3?2CLEARSKY?2sources?2engine?2xrEng@
	push	OFFSET ??_C@_0BC@LGPLGIIN@_valid?$CIB?4sun_dir?$CJ?$AA@
	call	DWORD PTR __imp_?fail@xrDebug@@QAEXPBD0H0AA_N@Z
$LN132@lerp:
	movss	xmm0, DWORD PTR _f$[ebp]
	movss	xmm3, DWORD PTR tv835[esp+64]
$LN10@lerp:

; 476  : 	sun_dir.lerp			(A.sun_dir,B.sun_dir,f).normalize();

	movss	xmm1, DWORD PTR [edi+152]
	movss	xmm2, DWORD PTR [ebx+152]
	mulss	xmm1, xmm0
	mulss	xmm2, xmm3
	addss	xmm1, xmm2
	movss	DWORD PTR [esi+152], xmm1
	movss	xmm1, DWORD PTR [ebx+156]
	movss	xmm2, DWORD PTR [edi+156]
	mulss	xmm2, xmm0
	mulss	xmm1, xmm3
	addss	xmm1, xmm2
	movss	DWORD PTR [esi+156], xmm1
	movss	xmm1, DWORD PTR [ebx+160]
	movss	xmm2, DWORD PTR [edi+160]
	mulss	xmm2, xmm0
	movss	xmm0, DWORD PTR [esi+156]
	mulss	xmm1, xmm3
	addss	xmm1, xmm2
	movss	xmm2, DWORD PTR [esi+152]
	movaps	xmm3, xmm2
	mulss	xmm3, xmm2
	movss	DWORD PTR tv1445[esp+64], xmm0
	movss	DWORD PTR tv1448[esp+64], xmm2
	movaps	xmm2, xmm0
	mulss	xmm2, xmm0
	movaps	xmm0, xmm1
	mulss	xmm0, xmm1
	addss	xmm3, xmm2
	addss	xmm3, xmm0
	movss	xmm0, DWORD PTR __real@3f800000
	push	ecx
	divss	xmm0, xmm3
	movss	DWORD PTR [esi+160], xmm1
	movss	DWORD PTR [esp], xmm0
	call	_sqrtf
	fst	DWORD PTR _mag$313619[esp+68]
	movss	xmm1, DWORD PTR _mag$313619[esp+68]
	fmul	DWORD PTR [esi+160]
	movss	xmm0, DWORD PTR tv1448[esp+68]
	mulss	xmm0, xmm1
	movss	DWORD PTR [esi+152], xmm0
	fstp	DWORD PTR [esi+160]
	movss	xmm0, DWORD PTR tv1445[esp+68]
	mulss	xmm0, xmm1
	add	esp, 4
	movss	DWORD PTR [esi+156], xmm0

; 477  : 	R_ASSERT				( _valid(sun_dir) );

	cmp	BYTE PTR ?ignore_always@?BL@??lerp@CEnvDescriptorMixer@@QAEXPAVCEnvironment@@AAVCEnvDescriptor@@1MAAVCEnvModifier@@M@Z@4_NA, 0
	jne	SHORT $LN6@lerp
	fld	DWORD PTR [esi+152]
	mov	edi, DWORD PTR __imp___fpclass
	sub	esp, 8
	fstp	QWORD PTR [esp]
	call	edi
	add	esp, 8
	test	eax, 663				; 00000297H
	jne	SHORT $LN108@lerp
	fld	DWORD PTR [esi+156]
	sub	esp, 8
	fstp	QWORD PTR [esp]
	call	edi
	add	esp, 8
	test	eax, 663				; 00000297H
	jne	SHORT $LN108@lerp
	fld	DWORD PTR [esi+160]
	sub	esp, 8
	fstp	QWORD PTR [esp]
	call	edi
	add	esp, 8
	test	eax, 663				; 00000297H
	je	SHORT $LN6@lerp
$LN108@lerp:
	mov	ecx, DWORD PTR __imp_?Debug@@3VxrDebug@@A
	push	OFFSET ?ignore_always@?BL@??lerp@CEnvDescriptorMixer@@QAEXPAVCEnvironment@@AAVCEnvDescriptor@@1MAAVCEnvModifier@@M@Z@4_NA
	push	OFFSET ??_C@_0BK@JGPMIJHM@CEnvDescriptorMixer?3?3lerp?$AA@
	push	477					; 000001ddH
	push	OFFSET ??_C@_0DJ@LMFGIIMF@D?3?2CLEARSKY?2sources?2engine?2xrEng@
	push	OFFSET ??_C@_0BA@MPNGEPPI@_valid?$CIsun_dir?$CJ?$AA@
	call	DWORD PTR __imp_?fail@xrDebug@@QAEXPBD0H0AA_N@Z
$LN6@lerp:

; 478  : 
; 479  : 	VERIFY2					(sun_dir.y<0,"Invalid sun direction settings while lerp");}

	pop	edi
	pop	esi
	pop	ebx
	mov	esp, ebp
	pop	ebp
	ret	24					; 00000018H
?lerp@CEnvDescriptorMixer@@QAEXPAVCEnvironment@@AAVCEnvDescriptor@@1MAAVCEnvModifier@@M@Z ENDP ; CEnvDescriptorMixer::lerp
; Function compile flags: /Ogtpy
; File d:\clearsky\sources\sdk\include\stlport\stl\_construct.h
;	COMDAT ??$__destroy_mv_srcs@V?$reverse_iterator@PAUref_sound@@@stlp_std@@Uref_sound@@@stlp_std@@YAXV?$reverse_iterator@PAUref_sound@@@0@0PAUref_sound@@@Z
_TEXT	SEGMENT
$T386767 = -1						; size = 1
___first$ = 8						; size = 4
___last$ = 12						; size = 4
??$__destroy_mv_srcs@V?$reverse_iterator@PAUref_sound@@@stlp_std@@Uref_sound@@@stlp_std@@YAXV?$reverse_iterator@PAUref_sound@@@0@0PAUref_sound@@@Z PROC ; stlp_std::__destroy_mv_srcs<stlp_std::reverse_iterator<ref_sound *>,ref_sound>, COMDAT

; 192  : __destroy_mv_srcs(_ForwardIterator __first, _ForwardIterator __last, _Tp *__ptr) {

	push	ecx

; 193  :   typedef typename __move_traits<_Tp>::complete _CompleteMove;
; 194  :   __destroy_range_aux(__first, __last, __ptr, _CompleteMove());

	lea	eax, DWORD PTR $T386767[esp+4]
	push	eax
	push	0
	push	ecx
	lea	edx, DWORD PTR ___last$[esp+12]
	mov	ecx, esp
	push	edx
	mov	BYTE PTR $T386767[esp+20], 0
	call	??0?$reverse_iterator@PAUref_sound@@@stlp_std@@QAE@ABV01@@Z ; stlp_std::reverse_iterator<ref_sound *>::reverse_iterator<ref_sound *>
	push	ecx
	lea	eax, DWORD PTR ___first$[esp+16]
	mov	ecx, esp
	push	eax
	call	??0?$reverse_iterator@PAUref_sound@@@stlp_std@@QAE@ABV01@@Z ; stlp_std::reverse_iterator<ref_sound *>::reverse_iterator<ref_sound *>
	call	??$__destroy_range_aux@V?$reverse_iterator@PAUref_sound@@@stlp_std@@Uref_sound@@@stlp_std@@YAXV?$reverse_iterator@PAUref_sound@@@0@0PAUref_sound@@ABU__false_type@0@@Z ; stlp_std::__destroy_range_aux<stlp_std::reverse_iterator<ref_sound *>,ref_sound>

; 195  : }

	add	esp, 20					; 00000014H
	ret	0
??$__destroy_mv_srcs@V?$reverse_iterator@PAUref_sound@@@stlp_std@@Uref_sound@@@stlp_std@@YAXV?$reverse_iterator@PAUref_sound@@@0@0PAUref_sound@@@Z ENDP ; stlp_std::__destroy_mv_srcs<stlp_std::reverse_iterator<ref_sound *>,ref_sound>
; Function compile flags: /Ogtpy
; File d:\clearsky\sources\sdk\include\stlport\stl\_tree.h
_TEXT	ENDS
;	COMDAT ??$_M_lower_bound@PAD@?$_Rb_tree@Vshared_str@@Ustr_pred@CEnvironment@@U?$pair@$$CBVshared_str@@V?$xr_vector@PAVCEnvDescriptor@@V?$xalloc@PAVCEnvDescriptor@@@@@@@stlp_std@@U?$_Select1st@U?$pair@$$CBVshared_str@@V?$xr_vector@PAVCEnvDescriptor@@V?$xalloc@PAVCEnvDescriptor@@@@@@@stlp_std@@@priv@5@U?$_MapTraitsT@U?$pair@$$CBVshared_str@@V?$xr_vector@PAVCEnvDescriptor@@V?$xalloc@PAVCEnvDescriptor@@@@@@@stlp_std@@@75@V?$xalloc@U?$pair@Vshared_str@@V?$xr_vector@PAVCEnvDescriptor@@V?$xalloc@PAVCEnvDescriptor@@@@@@@stlp_std@@@@@priv@stlp_std@@ABEPAU_Rb_tree_node_base@12@ABQAD@Z
_TEXT	SEGMENT
___k$ = 8						; size = 4
??$_M_lower_bound@PAD@?$_Rb_tree@Vshared_str@@Ustr_pred@CEnvironment@@U?$pair@$$CBVshared_str@@V?$xr_vector@PAVCEnvDescriptor@@V?$xalloc@PAVCEnvDescriptor@@@@@@@stlp_std@@U?$_Select1st@U?$pair@$$CBVshared_str@@V?$xr_vector@PAVCEnvDescriptor@@V?$xalloc@PAVCEnvDescriptor@@@@@@@stlp_std@@@priv@5@U?$_MapTraitsT@U?$pair@$$CBVshared_str@@V?$xr_vector@PAVCEnvDescriptor@@V?$xalloc@PAVCEnvDescriptor@@@@@@@stlp_std@@@75@V?$xalloc@U?$pair@Vshared_str@@V?$xr_vector@PAVCEnvDescriptor@@V?$xalloc@PAVCEnvDescriptor@@@@@@@stlp_std@@@@@priv@stlp_std@@ABEPAU_Rb_tree_node_base@12@ABQAD@Z PROC ; stlp_std::priv::_Rb_tree<shared_str,CEnvironment::str_pred,stlp_std::pair<shared_str const ,xr_vector<CEnvDescriptor *,xalloc<CEnvDescriptor *> > >,stlp_std::priv::_Select1st<stlp_std::pair<shared_str const ,xr_vector<CEnvDescriptor *,xalloc<CEnvDescriptor *> > > >,stlp_std::priv::_MapTraitsT<stlp_std::pair<shared_str const ,xr_vector<CEnvDescriptor *,xalloc<CEnvDescriptor *> > > >,xalloc<stlp_std::pair<shared_str,xr_vector<CEnvDescriptor *,xalloc<CEnvDescriptor *> > > > >::_M_lower_bound<char *>, COMDAT
; _this$ = ecx

; 562  :   _Base_ptr _M_lower_bound(const _KT& __k) const {

	push	ebp
	push	edi

; 563  :     _Base_ptr __y = __CONST_CAST(_Base_ptr, &this->_M_header._M_data); /* Last node which is not less than __k. */

	mov	ebp, ecx

; 564  :     _Base_ptr __x = _M_root(); /* Current node. */

	call	?_M_root@?$_Rb_tree@Vshared_str@@Ustr_pred@CEnvironment@@U?$pair@$$CBVshared_str@@V?$xr_vector@PAVCEnvDescriptor@@V?$xalloc@PAVCEnvDescriptor@@@@@@@stlp_std@@U?$_Select1st@U?$pair@$$CBVshared_str@@V?$xr_vector@PAVCEnvDescriptor@@V?$xalloc@PAVCEnvDescriptor@@@@@@@stlp_std@@@priv@5@U?$_MapTraitsT@U?$pair@$$CBVshared_str@@V?$xr_vector@PAVCEnvDescriptor@@V?$xalloc@PAVCEnvDescriptor@@@@@@@stlp_std@@@75@V?$xalloc@U?$pair@Vshared_str@@V?$xr_vector@PAVCEnvDescriptor@@V?$xalloc@PAVCEnvDescriptor@@@@@@@stlp_std@@@@@priv@stlp_std@@IBEPAU_Rb_tree_node_base@23@XZ ; stlp_std::priv::_Rb_tree<shared_str,CEnvironment::str_pred,stlp_std::pair<shared_str const ,xr_vector<CEnvDescriptor *,xalloc<CEnvDescriptor *> > >,stlp_std::priv::_Select1st<stlp_std::pair<shared_str const ,xr_vector<CEnvDescriptor *,xalloc<CEnvDescriptor *> > > >,stlp_std::priv::_MapTraitsT<stlp_std::pair<shared_str const ,xr_vector<CEnvDescriptor *,xalloc<CEnvDescriptor *> > > >,xalloc<stlp_std::pair<shared_str,xr_vector<CEnvDescriptor *,xalloc<CEnvDescriptor *> > > > >::_M_root
	mov	edi, eax

; 565  : 
; 566  :     while (__x != 0)

	test	edi, edi
	je	$LN57@M_lower_bo@5
	push	ebx
	mov	ebx, DWORD PTR __imp_?dock@str_container@@QAEPAUstr_value@@PBD@Z
	push	esi
	npad	5
$LL4@M_lower_bo@5:

; 567  :       if (!_M_key_compare(_S_key(__x), __k))

	mov	eax, DWORD PTR ___k$[esp+12]
	mov	eax, DWORD PTR [eax]
	mov	ecx, DWORD PTR __imp_?g_pStringContainer@@3PAVstr_container@@A
	mov	ecx, DWORD PTR [ecx]
	push	eax
	call	ebx
	mov	esi, eax
	test	esi, esi
	je	SHORT $LN14@M_lower_bo@5
	add	DWORD PTR [esi], 1
$LN14@M_lower_bo@5:
	push	edi
	call	?_S_value@?$_Rb_tree@Vshared_str@@Ustr_pred@CEnvironment@@U?$pair@$$CBVshared_str@@V?$xr_vector@PAVCEnvDescriptor@@V?$xalloc@PAVCEnvDescriptor@@@@@@@stlp_std@@U?$_Select1st@U?$pair@$$CBVshared_str@@V?$xr_vector@PAVCEnvDescriptor@@V?$xalloc@PAVCEnvDescriptor@@@@@@@stlp_std@@@priv@5@U?$_MapTraitsT@U?$pair@$$CBVshared_str@@V?$xr_vector@PAVCEnvDescriptor@@V?$xalloc@PAVCEnvDescriptor@@@@@@@stlp_std@@@75@V?$xalloc@U?$pair@Vshared_str@@V?$xr_vector@PAVCEnvDescriptor@@V?$xalloc@PAVCEnvDescriptor@@@@@@@stlp_std@@@@@priv@stlp_std@@KAAAU?$pair@$$CBVshared_str@@V?$xr_vector@PAVCEnvDescriptor@@V?$xalloc@PAVCEnvDescriptor@@@@@@@3@PAU_Rb_tree_node_base@23@@Z ; stlp_std::priv::_Rb_tree<shared_str,CEnvironment::str_pred,stlp_std::pair<shared_str const ,xr_vector<CEnvDescriptor *,xalloc<CEnvDescriptor *> > >,stlp_std::priv::_Select1st<stlp_std::pair<shared_str const ,xr_vector<CEnvDescriptor *,xalloc<CEnvDescriptor *> > > >,stlp_std::priv::_MapTraitsT<stlp_std::pair<shared_str const ,xr_vector<CEnvDescriptor *,xalloc<CEnvDescriptor *> > > >,xalloc<stlp_std::pair<shared_str,xr_vector<CEnvDescriptor *,xalloc<CEnvDescriptor *> > > > >::_S_value
	mov	eax, DWORD PTR [eax]
	add	esp, 4
	cmp	eax, esi
	jne	SHORT $LN27@M_lower_bo@5
	xor	eax, eax
	jmp	SHORT $LN56@M_lower_bo@5
$LN27@M_lower_bo@5:
	test	esi, esi
	je	SHORT $LN34@M_lower_bo@5
	lea	ecx, DWORD PTR [esi+16]
	jmp	SHORT $LN35@M_lower_bo@5
$LN34@M_lower_bo@5:
	xor	ecx, ecx
$LN35@M_lower_bo@5:
	test	eax, eax
	je	SHORT $LN38@M_lower_bo@5
	add	eax, 16					; 00000010H
	jmp	SHORT $LL39@M_lower_bo@5
$LN38@M_lower_bo@5:
	xor	eax, eax
$LL39@M_lower_bo@5:
	mov	dl, BYTE PTR [eax]
	cmp	dl, BYTE PTR [ecx]
	jne	SHORT $LN54@M_lower_bo@5
	test	dl, dl
	je	SHORT $LN55@M_lower_bo@5
	mov	dl, BYTE PTR [eax+1]
	cmp	dl, BYTE PTR [ecx+1]
	jne	SHORT $LN54@M_lower_bo@5
	add	eax, 2
	add	ecx, 2
	test	dl, dl
	jne	SHORT $LL39@M_lower_bo@5
$LN55@M_lower_bo@5:
	xor	eax, eax
	jmp	SHORT $LN56@M_lower_bo@5
$LN54@M_lower_bo@5:
	sbb	eax, eax
	sbb	eax, -1
$LN56@M_lower_bo@5:
	test	eax, eax
	setge	al
	test	esi, esi
	je	SHORT $LN44@M_lower_bo@5
	add	DWORD PTR [esi], -1
$LN44@M_lower_bo@5:
	test	al, al

; 568  :         __y = __x, __x = _S_left(__x);

	push	edi
	je	SHORT $LN2@M_lower_bo@5
	mov	ebp, edi
	call	?_S_left@?$_Rb_tree@Vshared_str@@Ustr_pred@CEnvironment@@U?$pair@$$CBVshared_str@@V?$xr_vector@PAVCEnvDescriptor@@V?$xalloc@PAVCEnvDescriptor@@@@@@@stlp_std@@U?$_Select1st@U?$pair@$$CBVshared_str@@V?$xr_vector@PAVCEnvDescriptor@@V?$xalloc@PAVCEnvDescriptor@@@@@@@stlp_std@@@priv@5@U?$_MapTraitsT@U?$pair@$$CBVshared_str@@V?$xr_vector@PAVCEnvDescriptor@@V?$xalloc@PAVCEnvDescriptor@@@@@@@stlp_std@@@75@V?$xalloc@U?$pair@Vshared_str@@V?$xr_vector@PAVCEnvDescriptor@@V?$xalloc@PAVCEnvDescriptor@@@@@@@stlp_std@@@@@priv@stlp_std@@KAAAPAU_Rb_tree_node_base@23@PAU423@@Z ; stlp_std::priv::_Rb_tree<shared_str,CEnvironment::str_pred,stlp_std::pair<shared_str const ,xr_vector<CEnvDescriptor *,xalloc<CEnvDescriptor *> > >,stlp_std::priv::_Select1st<stlp_std::pair<shared_str const ,xr_vector<CEnvDescriptor *,xalloc<CEnvDescriptor *> > > >,stlp_std::priv::_MapTraitsT<stlp_std::pair<shared_str const ,xr_vector<CEnvDescriptor *,xalloc<CEnvDescriptor *> > > >,xalloc<stlp_std::pair<shared_str,xr_vector<CEnvDescriptor *,xalloc<CEnvDescriptor *> > > > >::_S_left

; 569  :       else

	jmp	SHORT $LN58@M_lower_bo@5
$LN2@M_lower_bo@5:

; 570  :         __x = _S_right(__x);

	call	?_S_right@?$_Rb_tree@Vshared_str@@Ustr_pred@CEnvironment@@U?$pair@$$CBVshared_str@@V?$xr_vector@PAVCEnvDescriptor@@V?$xalloc@PAVCEnvDescriptor@@@@@@@stlp_std@@U?$_Select1st@U?$pair@$$CBVshared_str@@V?$xr_vector@PAVCEnvDescriptor@@V?$xalloc@PAVCEnvDescriptor@@@@@@@stlp_std@@@priv@5@U?$_MapTraitsT@U?$pair@$$CBVshared_str@@V?$xr_vector@PAVCEnvDescriptor@@V?$xalloc@PAVCEnvDescriptor@@@@@@@stlp_std@@@75@V?$xalloc@U?$pair@Vshared_str@@V?$xr_vector@PAVCEnvDescriptor@@V?$xalloc@PAVCEnvDescriptor@@@@@@@stlp_std@@@@@priv@stlp_std@@KAAAPAU_Rb_tree_node_base@23@PAU423@@Z ; stlp_std::priv::_Rb_tree<shared_str,CEnvironment::str_pred,stlp_std::pair<shared_str const ,xr_vector<CEnvDescriptor *,xalloc<CEnvDescriptor *> > >,stlp_std::priv::_Select1st<stlp_std::pair<shared_str const ,xr_vector<CEnvDescriptor *,xalloc<CEnvDescriptor *> > > >,stlp_std::priv::_MapTraitsT<stlp_std::pair<shared_str const ,xr_vector<CEnvDescriptor *,xalloc<CEnvDescriptor *> > > >,xalloc<stlp_std::pair<shared_str,xr_vector<CEnvDescriptor *,xalloc<CEnvDescriptor *> > > > >::_S_right
$LN58@M_lower_bo@5:
	mov	edi, DWORD PTR [eax]
	add	esp, 4
	test	edi, edi
	jne	$LL4@M_lower_bo@5
	pop	esi
	pop	ebx
$LN57@M_lower_bo@5:
	pop	edi

; 571  : 
; 572  :     return __y;

	mov	eax, ebp
	pop	ebp

; 573  :   }

	ret	4
??$_M_lower_bound@PAD@?$_Rb_tree@Vshared_str@@Ustr_pred@CEnvironment@@U?$pair@$$CBVshared_str@@V?$xr_vector@PAVCEnvDescriptor@@V?$xalloc@PAVCEnvDescriptor@@@@@@@stlp_std@@U?$_Select1st@U?$pair@$$CBVshared_str@@V?$xr_vector@PAVCEnvDescriptor@@V?$xalloc@PAVCEnvDescriptor@@@@@@@stlp_std@@@priv@5@U?$_MapTraitsT@U?$pair@$$CBVshared_str@@V?$xr_vector@PAVCEnvDescriptor@@V?$xalloc@PAVCEnvDescriptor@@@@@@@stlp_std@@@75@V?$xalloc@U?$pair@Vshared_str@@V?$xr_vector@PAVCEnvDescriptor@@V?$xalloc@PAVCEnvDescriptor@@@@@@@stlp_std@@@@@priv@stlp_std@@ABEPAU_Rb_tree_node_base@12@ABQAD@Z ENDP ; stlp_std::priv::_Rb_tree<shared_str,CEnvironment::str_pred,stlp_std::pair<shared_str const ,xr_vector<CEnvDescriptor *,xalloc<CEnvDescriptor *> > >,stlp_std::priv::_Select1st<stlp_std::pair<shared_str const ,xr_vector<CEnvDescriptor *,xalloc<CEnvDescriptor *> > > >,stlp_std::priv::_MapTraitsT<stlp_std::pair<shared_str const ,xr_vector<CEnvDescriptor *,xalloc<CEnvDescriptor *> > > >,xalloc<stlp_std::pair<shared_str,xr_vector<CEnvDescriptor *,xalloc<CEnvDescriptor *> > > > >::_M_lower_bound<char *>
; Function compile flags: /Ogtpy
; File d:\clearsky\sources\sdk\include\stlport\stl\_construct.h
_TEXT	ENDS
;	COMDAT ??$_Destroy_Moved_Range@V?$reverse_iterator@PAUref_sound@@@stlp_std@@@stlp_std@@YAXV?$reverse_iterator@PAUref_sound@@@0@0@Z
_TEXT	SEGMENT
$T386910 = -9						; size = 1
$T386914 = -8						; size = 4
$T386915 = -4						; size = 4
___first$ = 8						; size = 4
___last$ = 12						; size = 4
??$_Destroy_Moved_Range@V?$reverse_iterator@PAUref_sound@@@stlp_std@@@stlp_std@@YAXV?$reverse_iterator@PAUref_sound@@@0@0@Z PROC ; stlp_std::_Destroy_Moved_Range<stlp_std::reverse_iterator<ref_sound *> >, COMDAT

; 198  : inline void _Destroy_Moved_Range(_ForwardIterator __first, _ForwardIterator __last) {

	sub	esp, 12					; 0000000cH

; 199  :   __destroy_mv_srcs(__first, __last, _STLP_VALUE_TYPE(__first, _ForwardIterator));

	lea	eax, DWORD PTR ___last$[esp+8]
	push	eax
	lea	ecx, DWORD PTR $T386914[esp+16]
	call	??0?$reverse_iterator@PAUref_sound@@@stlp_std@@QAE@ABV01@@Z ; stlp_std::reverse_iterator<ref_sound *>::reverse_iterator<ref_sound *>
	lea	ecx, DWORD PTR ___first$[esp+8]
	push	ecx
	lea	ecx, DWORD PTR $T386915[esp+16]
	call	??0?$reverse_iterator@PAUref_sound@@@stlp_std@@QAE@ABV01@@Z ; stlp_std::reverse_iterator<ref_sound *>::reverse_iterator<ref_sound *>
	lea	edx, DWORD PTR $T386910[esp+12]
	push	edx
	push	0
	push	ecx
	lea	eax, DWORD PTR $T386914[esp+24]
	mov	ecx, esp
	push	eax
	mov	BYTE PTR $T386910[esp+28], 0
	call	??0?$reverse_iterator@PAUref_sound@@@stlp_std@@QAE@ABV01@@Z ; stlp_std::reverse_iterator<ref_sound *>::reverse_iterator<ref_sound *>
	push	ecx
	lea	edx, DWORD PTR $T386915[esp+28]
	mov	ecx, esp
	push	edx
	call	??0?$reverse_iterator@PAUref_sound@@@stlp_std@@QAE@ABV01@@Z ; stlp_std::reverse_iterator<ref_sound *>::reverse_iterator<ref_sound *>
	call	??$__destroy_range_aux@V?$reverse_iterator@PAUref_sound@@@stlp_std@@Uref_sound@@@stlp_std@@YAXV?$reverse_iterator@PAUref_sound@@@0@0PAUref_sound@@ABU__false_type@0@@Z ; stlp_std::__destroy_range_aux<stlp_std::reverse_iterator<ref_sound *>,ref_sound>

; 200  : }

	add	esp, 28					; 0000001cH
	ret	0
??$_Destroy_Moved_Range@V?$reverse_iterator@PAUref_sound@@@stlp_std@@@stlp_std@@YAXV?$reverse_iterator@PAUref_sound@@@0@0@Z ENDP ; stlp_std::_Destroy_Moved_Range<stlp_std::reverse_iterator<ref_sound *> >
; Function compile flags: /Ogtpy
; File d:\clearsky\sources\sdk\include\stlport\stl\_tree.h
_TEXT	ENDS
;	COMDAT ??$lower_bound@PAD@?$_Rb_tree@Vshared_str@@Ustr_pred@CEnvironment@@U?$pair@$$CBVshared_str@@V?$xr_vector@PAVCEnvDescriptor@@V?$xalloc@PAVCEnvDescriptor@@@@@@@stlp_std@@U?$_Select1st@U?$pair@$$CBVshared_str@@V?$xr_vector@PAVCEnvDescriptor@@V?$xalloc@PAVCEnvDescriptor@@@@@@@stlp_std@@@priv@5@U?$_MapTraitsT@U?$pair@$$CBVshared_str@@V?$xr_vector@PAVCEnvDescriptor@@V?$xalloc@PAVCEnvDescriptor@@@@@@@stlp_std@@@75@V?$xalloc@U?$pair@Vshared_str@@V?$xr_vector@PAVCEnvDescriptor@@V?$xalloc@PAVCEnvDescriptor@@@@@@@stlp_std@@@@@priv@stlp_std@@QAE?AU?$_Rb_tree_iterator@U?$pair@$$CBVshared_str@@V?$xr_vector@PAVCEnvDescriptor@@V?$xalloc@PAVCEnvDescriptor@@@@@@@stlp_std@@U?$_MapTraitsT@U?$pair@$$CBVshared_str@@V?$xr_vector@PAVCEnvDescriptor@@V?$xalloc@PAVCEnvDescriptor@@@@@@@stlp_std@@@priv@2@@12@ABQAD@Z
_TEXT	SEGMENT
??$lower_bound@PAD@?$_Rb_tree@Vshared_str@@Ustr_pred@CEnvironment@@U?$pair@$$CBVshared_str@@V?$xr_vector@PAVCEnvDescriptor@@V?$xalloc@PAVCEnvDescriptor@@@@@@@stlp_std@@U?$_Select1st@U?$pair@$$CBVshared_str@@V?$xr_vector@PAVCEnvDescriptor@@V?$xalloc@PAVCEnvDescriptor@@@@@@@stlp_std@@@priv@5@U?$_MapTraitsT@U?$pair@$$CBVshared_str@@V?$xr_vector@PAVCEnvDescriptor@@V?$xalloc@PAVCEnvDescriptor@@@@@@@stlp_std@@@75@V?$xalloc@U?$pair@Vshared_str@@V?$xr_vector@PAVCEnvDescriptor@@V?$xalloc@PAVCEnvDescriptor@@@@@@@stlp_std@@@@@priv@stlp_std@@QAE?AU?$_Rb_tree_iterator@U?$pair@$$CBVshared_str@@V?$xr_vector@PAVCEnvDescriptor@@V?$xalloc@PAVCEnvDescriptor@@@@@@@stlp_std@@U?$_MapTraitsT@U?$pair@$$CBVshared_str@@V?$xr_vector@PAVCEnvDescriptor@@V?$xalloc@PAVCEnvDescriptor@@@@@@@stlp_std@@@priv@2@@12@ABQAD@Z PROC ; stlp_std::priv::_Rb_tree<shared_str,CEnvironment::str_pred,stlp_std::pair<shared_str const ,xr_vector<CEnvDescriptor *,xalloc<CEnvDescriptor *> > >,stlp_std::priv::_Select1st<stlp_std::pair<shared_str const ,xr_vector<CEnvDescriptor *,xalloc<CEnvDescriptor *> > > >,stlp_std::priv::_MapTraitsT<stlp_std::pair<shared_str const ,xr_vector<CEnvDescriptor *,xalloc<CEnvDescriptor *> > > >,xalloc<stlp_std::pair<shared_str,xr_vector<CEnvDescriptor *,xalloc<CEnvDescriptor *> > > > >::lower_bound<char *>, COMDAT
; _this$ = ecx
; ___$ReturnUdt$ = esi
; ___x$ = eax

; 596  :   iterator lower_bound(const _KT& __x) { return iterator(_M_lower_bound(__x)); }

	push	eax
	call	??$_M_lower_bound@PAD@?$_Rb_tree@Vshared_str@@Ustr_pred@CEnvironment@@U?$pair@$$CBVshared_str@@V?$xr_vector@PAVCEnvDescriptor@@V?$xalloc@PAVCEnvDescriptor@@@@@@@stlp_std@@U?$_Select1st@U?$pair@$$CBVshared_str@@V?$xr_vector@PAVCEnvDescriptor@@V?$xalloc@PAVCEnvDescriptor@@@@@@@stlp_std@@@priv@5@U?$_MapTraitsT@U?$pair@$$CBVshared_str@@V?$xr_vector@PAVCEnvDescriptor@@V?$xalloc@PAVCEnvDescriptor@@@@@@@stlp_std@@@75@V?$xalloc@U?$pair@Vshared_str@@V?$xr_vector@PAVCEnvDescriptor@@V?$xalloc@PAVCEnvDescriptor@@@@@@@stlp_std@@@@@priv@stlp_std@@ABEPAU_Rb_tree_node_base@12@ABQAD@Z ; stlp_std::priv::_Rb_tree<shared_str,CEnvironment::str_pred,stlp_std::pair<shared_str const ,xr_vector<CEnvDescriptor *,xalloc<CEnvDescriptor *> > >,stlp_std::priv::_Select1st<stlp_std::pair<shared_str const ,xr_vector<CEnvDescriptor *,xalloc<CEnvDescriptor *> > > >,stlp_std::priv::_MapTraitsT<stlp_std::pair<shared_str const ,xr_vector<CEnvDescriptor *,xalloc<CEnvDescriptor *> > > >,xalloc<stlp_std::pair<shared_str,xr_vector<CEnvDescriptor *,xalloc<CEnvDescriptor *> > > > >::_M_lower_bound<char *>
	mov	DWORD PTR [esi], eax
	mov	eax, esi
	ret	0
??$lower_bound@PAD@?$_Rb_tree@Vshared_str@@Ustr_pred@CEnvironment@@U?$pair@$$CBVshared_str@@V?$xr_vector@PAVCEnvDescriptor@@V?$xalloc@PAVCEnvDescriptor@@@@@@@stlp_std@@U?$_Select1st@U?$pair@$$CBVshared_str@@V?$xr_vector@PAVCEnvDescriptor@@V?$xalloc@PAVCEnvDescriptor@@@@@@@stlp_std@@@priv@5@U?$_MapTraitsT@U?$pair@$$CBVshared_str@@V?$xr_vector@PAVCEnvDescriptor@@V?$xalloc@PAVCEnvDescriptor@@@@@@@stlp_std@@@75@V?$xalloc@U?$pair@Vshared_str@@V?$xr_vector@PAVCEnvDescriptor@@V?$xalloc@PAVCEnvDescriptor@@@@@@@stlp_std@@@@@priv@stlp_std@@QAE?AU?$_Rb_tree_iterator@U?$pair@$$CBVshared_str@@V?$xr_vector@PAVCEnvDescriptor@@V?$xalloc@PAVCEnvDescriptor@@@@@@@stlp_std@@U?$_MapTraitsT@U?$pair@$$CBVshared_str@@V?$xr_vector@PAVCEnvDescriptor@@V?$xalloc@PAVCEnvDescriptor@@@@@@@stlp_std@@@priv@2@@12@ABQAD@Z ENDP ; stlp_std::priv::_Rb_tree<shared_str,CEnvironment::str_pred,stlp_std::pair<shared_str const ,xr_vector<CEnvDescriptor *,xalloc<CEnvDescriptor *> > >,stlp_std::priv::_Select1st<stlp_std::pair<shared_str const ,xr_vector<CEnvDescriptor *,xalloc<CEnvDescriptor *> > > >,stlp_std::priv::_MapTraitsT<stlp_std::pair<shared_str const ,xr_vector<CEnvDescriptor *,xalloc<CEnvDescriptor *> > > >,xalloc<stlp_std::pair<shared_str,xr_vector<CEnvDescriptor *,xalloc<CEnvDescriptor *> > > > >::lower_bound<char *>
; Function compile flags: /Ogtpy
; File d:\clearsky\sources\sdk\include\stlport\stl\_vector.h
_TEXT	ENDS
;	COMDAT ?_M_clear_after_move@?$_Impl_vector@Uref_sound@@V?$xalloc@Uref_sound@@@@@priv@stlp_std@@AAEXXZ
_TEXT	SEGMENT
$T386963 = -17						; size = 1
$T386966 = -16						; size = 4
$T386967 = -12						; size = 4
$T386955 = -8						; size = 4
$T386956 = -4						; size = 4
?_M_clear_after_move@?$_Impl_vector@Uref_sound@@V?$xalloc@Uref_sound@@@@@priv@stlp_std@@AAEXXZ PROC ; stlp_std::priv::_Impl_vector<ref_sound,xalloc<ref_sound> >::_M_clear_after_move, COMDAT
; _this$ = eax

; 620  :   void _M_clear_after_move() {

	sub	esp, 20					; 00000014H
	push	esi
	mov	esi, eax

; 621  :     _STLP_STD::_Destroy_Moved_Range(rbegin(), rend());

	lea	eax, DWORD PTR $T386966[esp+24]
	push	eax
	mov	ecx, esi
	call	?rend@?$_Impl_vector@Uref_sound@@V?$xalloc@Uref_sound@@@@@priv@stlp_std@@QAE?AV?$reverse_iterator@PAUref_sound@@@3@XZ ; stlp_std::priv::_Impl_vector<ref_sound,xalloc<ref_sound> >::rend
	lea	ecx, DWORD PTR $T386967[esp+24]
	push	ecx
	mov	ecx, esi
	call	?rbegin@?$_Impl_vector@Uref_sound@@V?$xalloc@Uref_sound@@@@@priv@stlp_std@@QAE?AV?$reverse_iterator@PAUref_sound@@@3@XZ ; stlp_std::priv::_Impl_vector<ref_sound,xalloc<ref_sound> >::rbegin
	lea	edx, DWORD PTR $T386966[esp+24]
	push	edx
	lea	ecx, DWORD PTR $T386955[esp+28]
	call	??0?$reverse_iterator@PAUref_sound@@@stlp_std@@QAE@ABV01@@Z ; stlp_std::reverse_iterator<ref_sound *>::reverse_iterator<ref_sound *>
	lea	eax, DWORD PTR $T386967[esp+24]
	push	eax
	lea	ecx, DWORD PTR $T386956[esp+28]
	call	??0?$reverse_iterator@PAUref_sound@@@stlp_std@@QAE@ABV01@@Z ; stlp_std::reverse_iterator<ref_sound *>::reverse_iterator<ref_sound *>
	lea	ecx, DWORD PTR $T386963[esp+24]
	push	ecx
	push	0
	push	ecx
	lea	edx, DWORD PTR $T386955[esp+36]
	mov	ecx, esp
	push	edx
	mov	BYTE PTR $T386963[esp+40], 0
	call	??0?$reverse_iterator@PAUref_sound@@@stlp_std@@QAE@ABV01@@Z ; stlp_std::reverse_iterator<ref_sound *>::reverse_iterator<ref_sound *>
	push	ecx
	lea	eax, DWORD PTR $T386956[esp+40]
	mov	ecx, esp
	push	eax
	call	??0?$reverse_iterator@PAUref_sound@@@stlp_std@@QAE@ABV01@@Z ; stlp_std::reverse_iterator<ref_sound *>::reverse_iterator<ref_sound *>
	call	??$__destroy_range_aux@V?$reverse_iterator@PAUref_sound@@@stlp_std@@Uref_sound@@@stlp_std@@YAXV?$reverse_iterator@PAUref_sound@@@0@0PAUref_sound@@ABU__false_type@0@@Z ; stlp_std::__destroy_range_aux<stlp_std::reverse_iterator<ref_sound *>,ref_sound>

; 622  :     this->_M_end_of_storage.deallocate(this->_M_start, this->_M_end_of_storage._M_data - this->_M_start);

	mov	edx, DWORD PTR [esi+8]
	lea	ecx, DWORD PTR [esi+8]
	mov	esi, DWORD PTR [esi]
	sub	edx, esi
	add	esp, 16					; 00000010H
	sar	edx, 2
	push	edx
	push	esi
	call	?deallocate@?$xalloc@Uref_sound@@@@QBEXPAUref_sound@@I@Z ; xalloc<ref_sound>::deallocate

; 623  :   }

	pop	esi
	add	esp, 20					; 00000014H
	ret	0
?_M_clear_after_move@?$_Impl_vector@Uref_sound@@V?$xalloc@Uref_sound@@@@@priv@stlp_std@@AAEXXZ ENDP ; stlp_std::priv::_Impl_vector<ref_sound,xalloc<ref_sound> >::_M_clear_after_move
; Function compile flags: /Ogtpy
; File d:\clearsky\sources\sdk\include\stlport\stl\_map.h
_TEXT	ENDS
