; Listing generated by Microsoft (R) Optimizing Compiler Version 14.00.50727.762 

	TITLE	D:\CLEARSKY\sources\engine\xrEngine\Environment.cpp
	.686P
	.XMM
	include listing.inc
	.model	flat

INCLUDELIB OLDNAMES

PUBLIC	??_ECLensFlare@@UAEPAXI@Z			; CLensFlare::`vector deleting destructor'
PUBLIC	??_R4CLensFlare@@6B@				; CLensFlare::`RTTI Complete Object Locator'
PUBLIC	??_R3CLensFlare@@8				; CLensFlare::`RTTI Class Hierarchy Descriptor'
PUBLIC	??_R2CLensFlare@@8				; CLensFlare::`RTTI Base Class Array'
PUBLIC	??_R1A@?0A@EA@CLensFlare@@8			; CLensFlare::`RTTI Base Class Descriptor at (0,-1,0,64)'
PUBLIC	??_R0?AVCLensFlare@@@8				; CLensFlare `RTTI Type Descriptor'
PUBLIC	??0SSource@CLensFlareDescriptor@@QAE@ABU01@@Z	; CLensFlareDescriptor::SSource::SSource
PUBLIC	??0?$_Vector_base@USFlare@CLensFlareDescriptor@@V?$xalloc@USFlare@CLensFlareDescriptor@@@@@priv@stlp_std@@QAE@IABV?$xalloc@USFlare@CLensFlareDescriptor@@@@@Z ; stlp_std::priv::_Vector_base<CLensFlareDescriptor::SFlare,xalloc<CLensFlareDescriptor::SFlare> >::_Vector_base<CLensFlareDescriptor::SFlare,xalloc<CLensFlareDescriptor::SFlare> >
PUBLIC	?get_allocator@?$_Impl_vector@USFlare@CLensFlareDescriptor@@V?$xalloc@USFlare@CLensFlareDescriptor@@@@@priv@stlp_std@@QBE?AV?$xalloc@USFlare@CLensFlareDescriptor@@@@XZ ; stlp_std::priv::_Impl_vector<CLensFlareDescriptor::SFlare,xalloc<CLensFlareDescriptor::SFlare> >::get_allocator
PUBLIC	?begin@?$_Impl_vector@USFlare@CLensFlareDescriptor@@V?$xalloc@USFlare@CLensFlareDescriptor@@@@@priv@stlp_std@@QBEPBUSFlare@CLensFlareDescriptor@@XZ ; stlp_std::priv::_Impl_vector<CLensFlareDescriptor::SFlare,xalloc<CLensFlareDescriptor::SFlare> >::begin
PUBLIC	?end@?$_Impl_vector@USFlare@CLensFlareDescriptor@@V?$xalloc@USFlare@CLensFlareDescriptor@@@@@priv@stlp_std@@QBEPBUSFlare@CLensFlareDescriptor@@XZ ; stlp_std::priv::_Impl_vector<CLensFlareDescriptor::SFlare,xalloc<CLensFlareDescriptor::SFlare> >::end
PUBLIC	??0?$_Impl_vector@USFlare@CLensFlareDescriptor@@V?$xalloc@USFlare@CLensFlareDescriptor@@@@@priv@stlp_std@@QAE@ABV012@@Z ; stlp_std::priv::_Impl_vector<CLensFlareDescriptor::SFlare,xalloc<CLensFlareDescriptor::SFlare> >::_Impl_vector<CLensFlareDescriptor::SFlare,xalloc<CLensFlareDescriptor::SFlare> >
PUBLIC	??0?$vector@USFlare@CLensFlareDescriptor@@V?$xalloc@USFlare@CLensFlareDescriptor@@@@@stlp_std@@QAE@ABV01@@Z ; stlp_std::vector<CLensFlareDescriptor::SFlare,xalloc<CLensFlareDescriptor::SFlare> >::vector<CLensFlareDescriptor::SFlare,xalloc<CLensFlareDescriptor::SFlare> >
PUBLIC	??0?$xr_vector@USFlare@CLensFlareDescriptor@@V?$xalloc@USFlare@CLensFlareDescriptor@@@@@@QAE@ABV0@@Z ; xr_vector<CLensFlareDescriptor::SFlare,xalloc<CLensFlareDescriptor::SFlare> >::xr_vector<CLensFlareDescriptor::SFlare,xalloc<CLensFlareDescriptor::SFlare> >
PUBLIC	??4?$FactoryPtr@VIRainRender@@@@QAEAAV0@ABV0@@Z	; FactoryPtr<IRainRender>::operator=
PUBLIC	?capacity@?$_Impl_vector@UItem@CEffect_Rain@@V?$xalloc@UItem@CEffect_Rain@@@@@priv@stlp_std@@QBEIXZ ; stlp_std::priv::_Impl_vector<CEffect_Rain::Item,xalloc<CEffect_Rain::Item> >::capacity
PUBLIC	?_M_clear@?$_Impl_vector@UItem@CEffect_Rain@@V?$xalloc@UItem@CEffect_Rain@@@@@priv@stlp_std@@AAEXXZ ; stlp_std::priv::_Impl_vector<CEffect_Rain::Item,xalloc<CEffect_Rain::Item> >::_M_clear
PUBLIC	?_Answer@?$_BothPtrType@PBUItem@CEffect_Rain@@PAU12@@stlp_std@@SA?AU__true_type@2@XZ ; stlp_std::_BothPtrType<CEffect_Rain::Item const *,CEffect_Rain::Item *>::_Answer
PUBLIC	??$_UseTrivialUCopy@UItem@CEffect_Rain@@U12@@stlp_std@@YA?AU?$_TrivialUCopy@UItem@CEffect_Rain@@U12@@0@PAUItem@CEffect_Rain@@0@Z ; stlp_std::_UseTrivialUCopy<CEffect_Rain::Item,CEffect_Rain::Item>
PUBLIC	?_Answer@?$_TrivialUCopy@UItem@CEffect_Rain@@U12@@stlp_std@@SA?AU__true_type@2@XZ ; stlp_std::_TrivialUCopy<CEffect_Rain::Item,CEffect_Rain::Item>::_Answer
PUBLIC	??$__ucopy_aux@PBUItem@CEffect_Rain@@PAU12@@priv@stlp_std@@YAPAUItem@CEffect_Rain@@PBU23@0PAU23@ABU__true_type@1@@Z ; stlp_std::priv::__ucopy_aux<CEffect_Rain::Item const *,CEffect_Rain::Item *>
PUBLIC	??$uninitialized_copy@PBUItem@CEffect_Rain@@PAU12@@stlp_std@@YAPAUItem@CEffect_Rain@@PBU12@0PAU12@@Z ; stlp_std::uninitialized_copy<CEffect_Rain::Item const *,CEffect_Rain::Item *>
PUBLIC	??$_M_allocate_and_copy@PBUItem@CEffect_Rain@@@?$_Impl_vector@UItem@CEffect_Rain@@V?$xalloc@UItem@CEffect_Rain@@@@@priv@stlp_std@@AAEPAUItem@CEffect_Rain@@AAIPBU34@1@Z ; stlp_std::priv::_Impl_vector<CEffect_Rain::Item,xalloc<CEffect_Rain::Item> >::_M_allocate_and_copy<CEffect_Rain::Item const *>
PUBLIC	??$__copy_ptrs@PBUItem@CEffect_Rain@@PAU12@@priv@stlp_std@@YAPAUItem@CEffect_Rain@@PBU23@0PAU23@ABU__true_type@1@@Z ; stlp_std::priv::__copy_ptrs<CEffect_Rain::Item const *,CEffect_Rain::Item *>
PUBLIC	??$__destroy_range_aux@PAUItem@CEffect_Rain@@U12@@stlp_std@@YAXPAUItem@CEffect_Rain@@00ABU__true_type@0@@Z ; stlp_std::__destroy_range_aux<CEffect_Rain::Item *,CEffect_Rain::Item>
PUBLIC	??$__destroy_range@PAUItem@CEffect_Rain@@U12@@stlp_std@@YAXPAUItem@CEffect_Rain@@00@Z ; stlp_std::__destroy_range<CEffect_Rain::Item *,CEffect_Rain::Item>
PUBLIC	??$_Destroy_Range@PAUItem@CEffect_Rain@@@stlp_std@@YAXPAUItem@CEffect_Rain@@0@Z ; stlp_std::_Destroy_Range<CEffect_Rain::Item *>
PUBLIC	??4?$_Impl_vector@UItem@CEffect_Rain@@V?$xalloc@UItem@CEffect_Rain@@@@@priv@stlp_std@@QAEAAV012@ABV012@@Z ; stlp_std::priv::_Impl_vector<CEffect_Rain::Item,xalloc<CEffect_Rain::Item> >::operator=
PUBLIC	??4?$vector@UItem@CEffect_Rain@@V?$xalloc@UItem@CEffect_Rain@@@@@stlp_std@@QAEAAV01@ABV01@@Z ; stlp_std::vector<CEffect_Rain::Item,xalloc<CEffect_Rain::Item> >::operator=
PUBLIC	??4?$xr_vector@UItem@CEffect_Rain@@V?$xalloc@UItem@CEffect_Rain@@@@@@QAEAAV0@ABV0@@Z ; xr_vector<CEffect_Rain::Item,xalloc<CEffect_Rain::Item> >::operator=
PUBLIC	?capacity@?$_Impl_vector@UParticle@CEffect_Rain@@V?$xalloc@UParticle@CEffect_Rain@@@@@priv@stlp_std@@QBEIXZ ; stlp_std::priv::_Impl_vector<CEffect_Rain::Particle,xalloc<CEffect_Rain::Particle> >::capacity
PUBLIC	?_M_clear@?$_Impl_vector@UParticle@CEffect_Rain@@V?$xalloc@UParticle@CEffect_Rain@@@@@priv@stlp_std@@AAEXXZ ; stlp_std::priv::_Impl_vector<CEffect_Rain::Particle,xalloc<CEffect_Rain::Particle> >::_M_clear
PUBLIC	?_Answer@?$_BothPtrType@PBUParticle@CEffect_Rain@@PAU12@@stlp_std@@SA?AU__true_type@2@XZ ; stlp_std::_BothPtrType<CEffect_Rain::Particle const *,CEffect_Rain::Particle *>::_Answer
PUBLIC	??$_UseTrivialUCopy@UParticle@CEffect_Rain@@U12@@stlp_std@@YA?AU?$_TrivialUCopy@UParticle@CEffect_Rain@@U12@@0@PAUParticle@CEffect_Rain@@0@Z ; stlp_std::_UseTrivialUCopy<CEffect_Rain::Particle,CEffect_Rain::Particle>
PUBLIC	?_Answer@?$_TrivialUCopy@UParticle@CEffect_Rain@@U12@@stlp_std@@SA?AU__true_type@2@XZ ; stlp_std::_TrivialUCopy<CEffect_Rain::Particle,CEffect_Rain::Particle>::_Answer
PUBLIC	??$__ucopy_aux@PBUParticle@CEffect_Rain@@PAU12@@priv@stlp_std@@YAPAUParticle@CEffect_Rain@@PBU23@0PAU23@ABU__true_type@1@@Z ; stlp_std::priv::__ucopy_aux<CEffect_Rain::Particle const *,CEffect_Rain::Particle *>
PUBLIC	??$uninitialized_copy@PBUParticle@CEffect_Rain@@PAU12@@stlp_std@@YAPAUParticle@CEffect_Rain@@PBU12@0PAU12@@Z ; stlp_std::uninitialized_copy<CEffect_Rain::Particle const *,CEffect_Rain::Particle *>
PUBLIC	??$_M_allocate_and_copy@PBUParticle@CEffect_Rain@@@?$_Impl_vector@UParticle@CEffect_Rain@@V?$xalloc@UParticle@CEffect_Rain@@@@@priv@stlp_std@@AAEPAUParticle@CEffect_Rain@@AAIPBU34@1@Z ; stlp_std::priv::_Impl_vector<CEffect_Rain::Particle,xalloc<CEffect_Rain::Particle> >::_M_allocate_and_copy<CEffect_Rain::Particle const *>
PUBLIC	??$__copy_ptrs@PBUParticle@CEffect_Rain@@PAU12@@priv@stlp_std@@YAPAUParticle@CEffect_Rain@@PBU23@0PAU23@ABU__true_type@1@@Z ; stlp_std::priv::__copy_ptrs<CEffect_Rain::Particle const *,CEffect_Rain::Particle *>
PUBLIC	??$__destroy_range_aux@PAUParticle@CEffect_Rain@@U12@@stlp_std@@YAXPAUParticle@CEffect_Rain@@00ABU__true_type@0@@Z ; stlp_std::__destroy_range_aux<CEffect_Rain::Particle *,CEffect_Rain::Particle>
PUBLIC	??$__destroy_range@PAUParticle@CEffect_Rain@@U12@@stlp_std@@YAXPAUParticle@CEffect_Rain@@00@Z ; stlp_std::__destroy_range<CEffect_Rain::Particle *,CEffect_Rain::Particle>
PUBLIC	??$_Destroy_Range@PAUParticle@CEffect_Rain@@@stlp_std@@YAXPAUParticle@CEffect_Rain@@0@Z ; stlp_std::_Destroy_Range<CEffect_Rain::Particle *>
PUBLIC	??4?$_Impl_vector@UParticle@CEffect_Rain@@V?$xalloc@UParticle@CEffect_Rain@@@@@priv@stlp_std@@QAEAAV012@ABV012@@Z ; stlp_std::priv::_Impl_vector<CEffect_Rain::Particle,xalloc<CEffect_Rain::Particle> >::operator=
PUBLIC	??4?$vector@UParticle@CEffect_Rain@@V?$xalloc@UParticle@CEffect_Rain@@@@@stlp_std@@QAEAAV01@ABV01@@Z ; stlp_std::vector<CEffect_Rain::Particle,xalloc<CEffect_Rain::Particle> >::operator=
PUBLIC	??4?$xr_vector@UParticle@CEffect_Rain@@V?$xalloc@UParticle@CEffect_Rain@@@@@@QAEAAV0@ABV0@@Z ; xr_vector<CEffect_Rain::Particle,xalloc<CEffect_Rain::Particle> >::operator=
PUBLIC	??_GCEnvDescriptorMixer@@QAEPAXI@Z		; CEnvDescriptorMixer::`scalar deleting destructor'
PUBLIC	??R?$xr_special_free@$0A@VCEnvDescriptorMixer@@@@QAEXAAPAVCEnvDescriptorMixer@@@Z ; xr_special_free<0,CEnvDescriptorMixer>::operator()
PUBLIC	??$xr_delete@VCEnvDescriptorMixer@@@@YAXAAPAVCEnvDescriptorMixer@@@Z ; xr_delete<CEnvDescriptorMixer>
PUBLIC	??4SSource@CLensFlareDescriptor@@QAEAAU01@ABU01@@Z ; CLensFlareDescriptor::SSource::operator=
PUBLIC	?size@?$_Impl_vector@USFlare@CLensFlareDescriptor@@V?$xalloc@USFlare@CLensFlareDescriptor@@@@@priv@stlp_std@@QBEIXZ ; stlp_std::priv::_Impl_vector<CLensFlareDescriptor::SFlare,xalloc<CLensFlareDescriptor::SFlare> >::size
PUBLIC	?capacity@?$_Impl_vector@USFlare@CLensFlareDescriptor@@V?$xalloc@USFlare@CLensFlareDescriptor@@@@@priv@stlp_std@@QBEIXZ ; stlp_std::priv::_Impl_vector<CLensFlareDescriptor::SFlare,xalloc<CLensFlareDescriptor::SFlare> >::capacity
PUBLIC	?_M_clear@?$_Impl_vector@USFlare@CLensFlareDescriptor@@V?$xalloc@USFlare@CLensFlareDescriptor@@@@@priv@stlp_std@@AAEXXZ ; stlp_std::priv::_Impl_vector<CLensFlareDescriptor::SFlare,xalloc<CLensFlareDescriptor::SFlare> >::_M_clear
PUBLIC	??$xr_alloc@USFlare@CLensFlareDescriptor@@@@YAPAUSFlare@CLensFlareDescriptor@@I@Z ; xr_alloc<CLensFlareDescriptor::SFlare>
PUBLIC	?allocate@?$xalloc@USFlare@CLensFlareDescriptor@@@@QBEPAUSFlare@CLensFlareDescriptor@@IPBX@Z ; xalloc<CLensFlareDescriptor::SFlare>::allocate
PUBLIC	?allocate@?$_STLP_alloc_proxy@PAUSFlare@CLensFlareDescriptor@@U12@V?$xalloc@USFlare@CLensFlareDescriptor@@@@@priv@stlp_std@@QAEPAUSFlare@CLensFlareDescriptor@@I@Z ; stlp_std::priv::_STLP_alloc_proxy<CLensFlareDescriptor::SFlare *,CLensFlareDescriptor::SFlare,xalloc<CLensFlareDescriptor::SFlare> >::allocate
PUBLIC	?allocate@?$_STLP_alloc_proxy@PAUSFlare@CLensFlareDescriptor@@U12@V?$xalloc@USFlare@CLensFlareDescriptor@@@@@priv@stlp_std@@AAEPAUSFlare@CLensFlareDescriptor@@IAAIABU__false_type@3@@Z ; stlp_std::priv::_STLP_alloc_proxy<CLensFlareDescriptor::SFlare *,CLensFlareDescriptor::SFlare,xalloc<CLensFlareDescriptor::SFlare> >::allocate
PUBLIC	?allocate@?$_STLP_alloc_proxy@PAUSFlare@CLensFlareDescriptor@@U12@V?$xalloc@USFlare@CLensFlareDescriptor@@@@@priv@stlp_std@@QAEPAUSFlare@CLensFlareDescriptor@@IAAI@Z ; stlp_std::priv::_STLP_alloc_proxy<CLensFlareDescriptor::SFlare *,CLensFlareDescriptor::SFlare,xalloc<CLensFlareDescriptor::SFlare> >::allocate
PUBLIC	?_Answer@?$_BothPtrType@PBUSFlare@CLensFlareDescriptor@@PAU12@@stlp_std@@SA?AU__true_type@2@XZ ; stlp_std::_BothPtrType<CLensFlareDescriptor::SFlare const *,CLensFlareDescriptor::SFlare *>::_Answer
PUBLIC	??0?$FactoryPtr@VIFlareRender@@@@QAE@ABV0@@Z	; FactoryPtr<IFlareRender>::FactoryPtr<IFlareRender>
PUBLIC	??0SFlare@CLensFlareDescriptor@@QAE@ABU01@@Z	; CLensFlareDescriptor::SFlare::SFlare
PUBLIC	??$_Param_Construct@USFlare@CLensFlareDescriptor@@U12@@stlp_std@@YAXPAUSFlare@CLensFlareDescriptor@@ABU12@@Z ; stlp_std::_Param_Construct<CLensFlareDescriptor::SFlare,CLensFlareDescriptor::SFlare>
PUBLIC	??$__ucopy@PBUSFlare@CLensFlareDescriptor@@PAU12@H@priv@stlp_std@@YAPAUSFlare@CLensFlareDescriptor@@PBU23@0PAU23@ABUrandom_access_iterator_tag@1@PAH@Z ; stlp_std::priv::__ucopy<CLensFlareDescriptor::SFlare const *,CLensFlareDescriptor::SFlare *,int>
PUBLIC	??$__ucopy_ptrs@PBUSFlare@CLensFlareDescriptor@@PAU12@@priv@stlp_std@@YAPAUSFlare@CLensFlareDescriptor@@PBU23@0PAU23@ABU__false_type@1@@Z ; stlp_std::priv::__ucopy_ptrs<CLensFlareDescriptor::SFlare const *,CLensFlareDescriptor::SFlare *>
PUBLIC	??$_UseTrivialUCopy@USFlare@CLensFlareDescriptor@@U12@@stlp_std@@YA?AU?$_TrivialUCopy@USFlare@CLensFlareDescriptor@@U12@@0@PAUSFlare@CLensFlareDescriptor@@0@Z ; stlp_std::_UseTrivialUCopy<CLensFlareDescriptor::SFlare,CLensFlareDescriptor::SFlare>
PUBLIC	?_Answer@?$_TrivialUCopy@USFlare@CLensFlareDescriptor@@U12@@stlp_std@@SA?AU__false_type@2@XZ ; stlp_std::_TrivialUCopy<CLensFlareDescriptor::SFlare,CLensFlareDescriptor::SFlare>::_Answer
PUBLIC	??$__ucopy_aux@PBUSFlare@CLensFlareDescriptor@@PAU12@@priv@stlp_std@@YAPAUSFlare@CLensFlareDescriptor@@PBU23@0PAU23@ABU__true_type@1@@Z ; stlp_std::priv::__ucopy_aux<CLensFlareDescriptor::SFlare const *,CLensFlareDescriptor::SFlare *>
PUBLIC	??$uninitialized_copy@PBUSFlare@CLensFlareDescriptor@@PAU12@@stlp_std@@YAPAUSFlare@CLensFlareDescriptor@@PBU12@0PAU12@@Z ; stlp_std::uninitialized_copy<CLensFlareDescriptor::SFlare const *,CLensFlareDescriptor::SFlare *>
PUBLIC	??$_M_allocate_and_copy@PBUSFlare@CLensFlareDescriptor@@@?$_Impl_vector@USFlare@CLensFlareDescriptor@@V?$xalloc@USFlare@CLensFlareDescriptor@@@@@priv@stlp_std@@AAEPAUSFlare@CLensFlareDescriptor@@AAIPBU34@1@Z ; stlp_std::priv::_Impl_vector<CLensFlareDescriptor::SFlare,xalloc<CLensFlareDescriptor::SFlare> >::_M_allocate_and_copy<CLensFlareDescriptor::SFlare const *>
PUBLIC	??4?$FactoryPtr@VIFlareRender@@@@QAEAAV0@ABV0@@Z ; FactoryPtr<IFlareRender>::operator=
PUBLIC	??4SFlare@CLensFlareDescriptor@@QAEAAU01@ABU01@@Z ; CLensFlareDescriptor::SFlare::operator=
PUBLIC	??$__copy@PBUSFlare@CLensFlareDescriptor@@PAU12@H@priv@stlp_std@@YAPAUSFlare@CLensFlareDescriptor@@PBU23@0PAU23@ABUrandom_access_iterator_tag@1@PAH@Z ; stlp_std::priv::__copy<CLensFlareDescriptor::SFlare const *,CLensFlareDescriptor::SFlare *,int>
PUBLIC	??$__copy_ptrs@PBUSFlare@CLensFlareDescriptor@@PAU12@@priv@stlp_std@@YAPAUSFlare@CLensFlareDescriptor@@PBU23@0PAU23@ABU__false_type@1@@Z ; stlp_std::priv::__copy_ptrs<CLensFlareDescriptor::SFlare const *,CLensFlareDescriptor::SFlare *>
PUBLIC	??$__destroy_range_aux@PAUSFlare@CLensFlareDescriptor@@U12@@stlp_std@@YAXPAUSFlare@CLensFlareDescriptor@@00ABU__false_type@0@@Z ; stlp_std::__destroy_range_aux<CLensFlareDescriptor::SFlare *,CLensFlareDescriptor::SFlare>
PUBLIC	??$__destroy_range@PAUSFlare@CLensFlareDescriptor@@U12@@stlp_std@@YAXPAUSFlare@CLensFlareDescriptor@@00@Z ; stlp_std::__destroy_range<CLensFlareDescriptor::SFlare *,CLensFlareDescriptor::SFlare>
PUBLIC	??$_Destroy_Range@PAUSFlare@CLensFlareDescriptor@@@stlp_std@@YAXPAUSFlare@CLensFlareDescriptor@@0@Z ; stlp_std::_Destroy_Range<CLensFlareDescriptor::SFlare *>
PUBLIC	??4?$_Impl_vector@USFlare@CLensFlareDescriptor@@V?$xalloc@USFlare@CLensFlareDescriptor@@@@@priv@stlp_std@@QAEAAV012@ABV012@@Z ; stlp_std::priv::_Impl_vector<CLensFlareDescriptor::SFlare,xalloc<CLensFlareDescriptor::SFlare> >::operator=
PUBLIC	??4?$vector@USFlare@CLensFlareDescriptor@@V?$xalloc@USFlare@CLensFlareDescriptor@@@@@stlp_std@@QAEAAV01@ABV01@@Z ; stlp_std::vector<CLensFlareDescriptor::SFlare,xalloc<CLensFlareDescriptor::SFlare> >::operator=
PUBLIC	??4?$xr_vector@USFlare@CLensFlareDescriptor@@V?$xalloc@USFlare@CLensFlareDescriptor@@@@@@QAEAAV0@ABV0@@Z ; xr_vector<CLensFlareDescriptor::SFlare,xalloc<CLensFlareDescriptor::SFlare> >::operator=
PUBLIC	??$xr_new@USThunderboltDesc@@@@YAPAUSThunderboltDesc@@XZ ; xr_new<SThunderboltDesc>
PUBLIC	??$xr_new@USThunderboltCollection@@@@YAPAUSThunderboltCollection@@XZ ; xr_new<SThunderboltCollection>
PUBLIC	?begin@?$vector@PAUSThunderboltCollection@@V?$xalloc@PAUSThunderboltCollection@@@@@stlp_std@@QAEPAPAUSThunderboltCollection@@XZ ; stlp_std::vector<SThunderboltCollection *,xalloc<SThunderboltCollection *> >::begin
PUBLIC	?to_value_type_ptr@?$_CastTraits@PAXPAUSThunderboltCollection@@@priv@stlp_std@@SAPAPAUSThunderboltCollection@@PAPAX@Z ; stlp_std::priv::_CastTraits<void *,SThunderboltCollection *>::to_value_type_ptr
PUBLIC	?end@?$vector@PAUSThunderboltCollection@@V?$xalloc@PAUSThunderboltCollection@@@@@stlp_std@@QAEPAPAUSThunderboltCollection@@XZ ; stlp_std::vector<SThunderboltCollection *,xalloc<SThunderboltCollection *> >::end
PUBLIC	?begin@?$vector@PAVCLensFlareDescriptor@@V?$xalloc@PAVCLensFlareDescriptor@@@@@stlp_std@@QAEPAPAVCLensFlareDescriptor@@XZ ; stlp_std::vector<CLensFlareDescriptor *,xalloc<CLensFlareDescriptor *> >::begin
PUBLIC	?to_value_type_ptr@?$_CastTraits@PAXPAVCLensFlareDescriptor@@@priv@stlp_std@@SAPAPAVCLensFlareDescriptor@@PAPAX@Z ; stlp_std::priv::_CastTraits<void *,CLensFlareDescriptor *>::to_value_type_ptr
PUBLIC	?end@?$vector@PAVCLensFlareDescriptor@@V?$xalloc@PAVCLensFlareDescriptor@@@@@stlp_std@@QAEPAPAVCLensFlareDescriptor@@XZ ; stlp_std::vector<CLensFlareDescriptor *,xalloc<CLensFlareDescriptor *> >::end
PUBLIC	?to_storage_type_cref@?$_CastTraits@PAXPAVCLensFlareDescriptor@@@priv@stlp_std@@SAABQAXABQAVCLensFlareDescriptor@@@Z ; stlp_std::priv::_CastTraits<void *,CLensFlareDescriptor *>::to_storage_type_cref
PUBLIC	?push_back@?$vector@PAVCLensFlareDescriptor@@V?$xalloc@PAVCLensFlareDescriptor@@@@@stlp_std@@QAEXABQAVCLensFlareDescriptor@@@Z ; stlp_std::vector<CLensFlareDescriptor *,xalloc<CLensFlareDescriptor *> >::push_back
PUBLIC	??$xr_new@VCLensFlareDescriptor@@@@YAPAVCLensFlareDescriptor@@XZ ; xr_new<CLensFlareDescriptor>
PUBLIC	??_GCPerlinNoise1D@@QAEPAXI@Z			; CPerlinNoise1D::`scalar deleting destructor'
PUBLIC	??R?$xr_special_free@$0A@VCPerlinNoise1D@@@@QAEXAAPAVCPerlinNoise1D@@@Z ; xr_special_free<0,CPerlinNoise1D>::operator()
PUBLIC	??$xr_delete@VCPerlinNoise1D@@@@YAXAAPAVCPerlinNoise1D@@@Z ; xr_delete<CPerlinNoise1D>
PUBLIC	?front@?$_Impl_vector@U?$_vector3@M@@V?$xalloc@U?$_vector3@M@@@@@priv@stlp_std@@QAEAAU?$_vector3@M@@XZ ; stlp_std::priv::_Impl_vector<_vector3<float>,xalloc<_vector3<float> > >::front
PUBLIC	?to_value_type_ref@?$_CastTraits@U?$_vector3@M@@U1@@priv@stlp_std@@SAAAU?$_vector3@M@@AAU4@@Z ; stlp_std::priv::_CastTraits<_vector3<float>,_vector3<float> >::to_value_type_ref
PUBLIC	?front@?$vector@U?$_vector3@M@@V?$xalloc@U?$_vector3@M@@@@@stlp_std@@QAEAAU?$_vector3@M@@XZ ; stlp_std::vector<_vector3<float>,xalloc<_vector3<float> > >::front
PUBLIC	?_M_set@?$_Impl_vector@U?$_vector3@M@@V?$xalloc@U?$_vector3@M@@@@@priv@stlp_std@@AAEXPAU?$_vector3@M@@00@Z ; stlp_std::priv::_Impl_vector<_vector3<float>,xalloc<_vector3<float> > >::_M_set
PUBLIC	??$__fill_n@PAU?$_vector3@M@@IU1@@priv@stlp_std@@YAPAU?$_vector3@M@@PAU2@IABU2@@Z ; stlp_std::priv::__fill_n<_vector3<float> *,unsigned int,_vector3<float> >
PUBLIC	?_M_insert_overflow@?$_Impl_vector@U?$_vector3@M@@V?$xalloc@U?$_vector3@M@@@@@priv@stlp_std@@AAEXPAU?$_vector3@M@@ABU4@ABU__true_type@3@I_N@Z ; stlp_std::priv::_Impl_vector<_vector3<float>,xalloc<_vector3<float> > >::_M_insert_overflow
PUBLIC	?_M_is_inside@?$_Impl_vector@U?$_vector3@M@@V?$xalloc@U?$_vector3@M@@@@@priv@stlp_std@@ABE_NABU?$_vector3@M@@@Z ; stlp_std::priv::_Impl_vector<_vector3<float>,xalloc<_vector3<float> > >::_M_is_inside
PUBLIC	??$__ucopy_ptrs@PAU?$_vector3@M@@PAU1@@priv@stlp_std@@YAPAU?$_vector3@M@@PAU2@00ABU__true_type@1@@Z ; stlp_std::priv::__ucopy_ptrs<_vector3<float> *,_vector3<float> *>
PUBLIC	??$__copy_backward_ptrs@PAU?$_vector3@M@@PAU1@@priv@stlp_std@@YAPAU?$_vector3@M@@PAU2@00ABU__true_type@1@@Z ; stlp_std::priv::__copy_backward_ptrs<_vector3<float> *,_vector3<float> *>
PUBLIC	??$fill@PAU?$_vector3@M@@U1@@stlp_std@@YAXPAU?$_vector3@M@@0ABU1@@Z ; stlp_std::fill<_vector3<float> *,_vector3<float> >
PUBLIC	??$_Param_Construct@U?$_vector3@M@@U1@@stlp_std@@YAXPAU?$_vector3@M@@ABU1@@Z ; stlp_std::_Param_Construct<_vector3<float>,_vector3<float> >
PUBLIC	??$__ufill@PAU?$_vector3@M@@U1@H@priv@stlp_std@@YAXPAU?$_vector3@M@@0ABU2@ABUrandom_access_iterator_tag@1@PAH@Z ; stlp_std::priv::__ufill<_vector3<float> *,_vector3<float>,int>
PUBLIC	??$__uninitialized_fill_n@PAU?$_vector3@M@@IU1@@priv@stlp_std@@YAPAU?$_vector3@M@@PAU2@IABU2@@Z ; stlp_std::priv::__uninitialized_fill_n<_vector3<float> *,unsigned int,_vector3<float> >
PUBLIC	?_M_fill_insert_aux@?$_Impl_vector@U?$_vector3@M@@V?$xalloc@U?$_vector3@M@@@@@priv@stlp_std@@AAEXPAU?$_vector3@M@@IABU4@ABU__false_type@3@@Z ; stlp_std::priv::_Impl_vector<_vector3<float>,xalloc<_vector3<float> > >::_M_fill_insert_aux
PUBLIC	?_M_fill_insert@?$_Impl_vector@U?$_vector3@M@@V?$xalloc@U?$_vector3@M@@@@@priv@stlp_std@@AAEXPAU?$_vector3@M@@IABU4@@Z ; stlp_std::priv::_Impl_vector<_vector3<float>,xalloc<_vector3<float> > >::_M_fill_insert
PUBLIC	?insert@?$_Impl_vector@U?$_vector3@M@@V?$xalloc@U?$_vector3@M@@@@@priv@stlp_std@@QAEXPAU?$_vector3@M@@IABU4@@Z ; stlp_std::priv::_Impl_vector<_vector3<float>,xalloc<_vector3<float> > >::insert
PUBLIC	??$__copy_ptrs@PAU?$_vector3@M@@PAU1@@priv@stlp_std@@YAPAU?$_vector3@M@@PAU2@00ABU__true_type@1@@Z ; stlp_std::priv::__copy_ptrs<_vector3<float> *,_vector3<float> *>
PUBLIC	?_M_erase@?$_Impl_vector@U?$_vector3@M@@V?$xalloc@U?$_vector3@M@@@@@priv@stlp_std@@AAEPAU?$_vector3@M@@PAU4@0ABU__false_type@3@@Z ; stlp_std::priv::_Impl_vector<_vector3<float>,xalloc<_vector3<float> > >::_M_erase
PUBLIC	?erase@?$_Impl_vector@U?$_vector3@M@@V?$xalloc@U?$_vector3@M@@@@@priv@stlp_std@@QAEPAU?$_vector3@M@@PAU4@0@Z ; stlp_std::priv::_Impl_vector<_vector3<float>,xalloc<_vector3<float> > >::erase
PUBLIC	?resize@?$_Impl_vector@U?$_vector3@M@@V?$xalloc@U?$_vector3@M@@@@@priv@stlp_std@@QAEXIABU?$_vector3@M@@@Z ; stlp_std::priv::_Impl_vector<_vector3<float>,xalloc<_vector3<float> > >::resize
PUBLIC	?to_storage_type_cref@?$_CastTraits@U?$_vector3@M@@U1@@priv@stlp_std@@SAABU?$_vector3@M@@ABU4@@Z ; stlp_std::priv::_CastTraits<_vector3<float>,_vector3<float> >::to_storage_type_cref
PUBLIC	?resize@?$vector@U?$_vector3@M@@V?$xalloc@U?$_vector3@M@@@@@stlp_std@@QAEXIABU?$_vector3@M@@@Z ; stlp_std::vector<_vector3<float>,xalloc<_vector3<float> > >::resize
PUBLIC	??0?$xalloc@U?$_vector3@M@@@@QAE@XZ		; xalloc<_vector3<float> >::xalloc<_vector3<float> >
PUBLIC	??0?$_Vector_base@U?$_vector3@M@@V?$xalloc@U?$_vector3@M@@@@@priv@stlp_std@@QAE@ABV?$xalloc@U?$_vector3@M@@@@@Z ; stlp_std::priv::_Vector_base<_vector3<float>,xalloc<_vector3<float> > >::_Vector_base<_vector3<float>,xalloc<_vector3<float> > >
PUBLIC	??0?$_Impl_vector@U?$_vector3@M@@V?$xalloc@U?$_vector3@M@@@@@priv@stlp_std@@QAE@ABV?$xalloc@U?$_vector3@M@@@@@Z ; stlp_std::priv::_Impl_vector<_vector3<float>,xalloc<_vector3<float> > >::_Impl_vector<_vector3<float>,xalloc<_vector3<float> > >
PUBLIC	??0?$vector@U?$_vector3@M@@V?$xalloc@U?$_vector3@M@@@@@stlp_std@@QAE@ABV?$xalloc@U?$_vector3@M@@@@@Z ; stlp_std::vector<_vector3<float>,xalloc<_vector3<float> > >::vector<_vector3<float>,xalloc<_vector3<float> > >
PUBLIC	??0?$xr_vector@U?$_vector3@M@@V?$xalloc@U?$_vector3@M@@@@@@QAE@XZ ; xr_vector<_vector3<float>,xalloc<_vector3<float> > >::xr_vector<_vector3<float>,xalloc<_vector3<float> > >
PUBLIC	?size@?$vector@U?$_vector3@M@@V?$xalloc@U?$_vector3@M@@@@@stlp_std@@QBEIXZ ; stlp_std::vector<_vector3<float>,xalloc<_vector3<float> > >::size
PUBLIC	?size@?$xr_vector@U?$_vector3@M@@V?$xalloc@U?$_vector3@M@@@@@@QBEIXZ ; xr_vector<_vector3<float>,xalloc<_vector3<float> > >::size
PUBLIC	?front@?$_Impl_vector@GV?$xalloc@G@@@priv@stlp_std@@QAEAAGXZ ; stlp_std::priv::_Impl_vector<unsigned short,xalloc<unsigned short> >::front
PUBLIC	?to_value_type_ref@?$_CastTraits@GG@priv@stlp_std@@SAAAGAAG@Z ; stlp_std::priv::_CastTraits<unsigned short,unsigned short>::to_value_type_ref
PUBLIC	?front@?$vector@GV?$xalloc@G@@@stlp_std@@QAEAAGXZ ; stlp_std::vector<unsigned short,xalloc<unsigned short> >::front
PUBLIC	?_M_set@?$_Impl_vector@GV?$xalloc@G@@@priv@stlp_std@@AAEXPAG00@Z ; stlp_std::priv::_Impl_vector<unsigned short,xalloc<unsigned short> >::_M_set
PUBLIC	??$__fill_n@PAGIG@priv@stlp_std@@YAPAGPAGIABG@Z	; stlp_std::priv::__fill_n<unsigned short *,unsigned int,unsigned short>
PUBLIC	?_M_insert_overflow@?$_Impl_vector@GV?$xalloc@G@@@priv@stlp_std@@AAEXPAGABGABU__true_type@3@I_N@Z ; stlp_std::priv::_Impl_vector<unsigned short,xalloc<unsigned short> >::_M_insert_overflow
PUBLIC	?_M_is_inside@?$_Impl_vector@GV?$xalloc@G@@@priv@stlp_std@@ABE_NABG@Z ; stlp_std::priv::_Impl_vector<unsigned short,xalloc<unsigned short> >::_M_is_inside
PUBLIC	??$__ucopy_ptrs@PAGPAG@priv@stlp_std@@YAPAGPAG00ABU__true_type@1@@Z ; stlp_std::priv::__ucopy_ptrs<unsigned short *,unsigned short *>
PUBLIC	??$__copy_backward_ptrs@PAGPAG@priv@stlp_std@@YAPAGPAG00ABU__true_type@1@@Z ; stlp_std::priv::__copy_backward_ptrs<unsigned short *,unsigned short *>
PUBLIC	??$fill@PAGG@stlp_std@@YAXPAG0ABG@Z		; stlp_std::fill<unsigned short *,unsigned short>
PUBLIC	??$_Param_Construct@GG@stlp_std@@YAXPAGABG@Z	; stlp_std::_Param_Construct<unsigned short,unsigned short>
PUBLIC	??$__ufill@PAGGH@priv@stlp_std@@YAXPAG0ABGABUrandom_access_iterator_tag@1@PAH@Z ; stlp_std::priv::__ufill<unsigned short *,unsigned short,int>
PUBLIC	??$__uninitialized_fill_n@PAGIG@priv@stlp_std@@YAPAGPAGIABG@Z ; stlp_std::priv::__uninitialized_fill_n<unsigned short *,unsigned int,unsigned short>
PUBLIC	?_M_fill_insert_aux@?$_Impl_vector@GV?$xalloc@G@@@priv@stlp_std@@AAEXPAGIABGABU__false_type@3@@Z ; stlp_std::priv::_Impl_vector<unsigned short,xalloc<unsigned short> >::_M_fill_insert_aux
PUBLIC	?_M_fill_insert@?$_Impl_vector@GV?$xalloc@G@@@priv@stlp_std@@AAEXPAGIABG@Z ; stlp_std::priv::_Impl_vector<unsigned short,xalloc<unsigned short> >::_M_fill_insert
PUBLIC	?insert@?$_Impl_vector@GV?$xalloc@G@@@priv@stlp_std@@QAEXPAGIABG@Z ; stlp_std::priv::_Impl_vector<unsigned short,xalloc<unsigned short> >::insert
PUBLIC	??$__copy_ptrs@PAGPAG@priv@stlp_std@@YAPAGPAG00ABU__true_type@1@@Z ; stlp_std::priv::__copy_ptrs<unsigned short *,unsigned short *>
PUBLIC	?_M_erase@?$_Impl_vector@GV?$xalloc@G@@@priv@stlp_std@@AAEPAGPAG0ABU__false_type@3@@Z ; stlp_std::priv::_Impl_vector<unsigned short,xalloc<unsigned short> >::_M_erase
PUBLIC	?erase@?$_Impl_vector@GV?$xalloc@G@@@priv@stlp_std@@QAEPAGPAG0@Z ; stlp_std::priv::_Impl_vector<unsigned short,xalloc<unsigned short> >::erase
PUBLIC	?resize@?$_Impl_vector@GV?$xalloc@G@@@priv@stlp_std@@QAEXIABG@Z ; stlp_std::priv::_Impl_vector<unsigned short,xalloc<unsigned short> >::resize
PUBLIC	?to_storage_type_cref@?$_CastTraits@GG@priv@stlp_std@@SAABGABG@Z ; stlp_std::priv::_CastTraits<unsigned short,unsigned short>::to_storage_type_cref
PUBLIC	?resize@?$vector@GV?$xalloc@G@@@stlp_std@@QAEXIABG@Z ; stlp_std::vector<unsigned short,xalloc<unsigned short> >::resize
PUBLIC	??0?$xalloc@G@@QAE@XZ				; xalloc<unsigned short>::xalloc<unsigned short>
PUBLIC	??0?$_Vector_base@GV?$xalloc@G@@@priv@stlp_std@@QAE@ABV?$xalloc@G@@@Z ; stlp_std::priv::_Vector_base<unsigned short,xalloc<unsigned short> >::_Vector_base<unsigned short,xalloc<unsigned short> >
PUBLIC	??0?$_Impl_vector@GV?$xalloc@G@@@priv@stlp_std@@QAE@ABV?$xalloc@G@@@Z ; stlp_std::priv::_Impl_vector<unsigned short,xalloc<unsigned short> >::_Impl_vector<unsigned short,xalloc<unsigned short> >
PUBLIC	??0?$vector@GV?$xalloc@G@@@stlp_std@@QAE@ABV?$xalloc@G@@@Z ; stlp_std::vector<unsigned short,xalloc<unsigned short> >::vector<unsigned short,xalloc<unsigned short> >
PUBLIC	??0?$xr_vector@GV?$xalloc@G@@@@QAE@XZ		; xr_vector<unsigned short,xalloc<unsigned short> >::xr_vector<unsigned short,xalloc<unsigned short> >
PUBLIC	?size@?$vector@GV?$xalloc@G@@@stlp_std@@QBEIXZ	; stlp_std::vector<unsigned short,xalloc<unsigned short> >::size
PUBLIC	?size@?$xr_vector@GV?$xalloc@G@@@@QBEIXZ	; xr_vector<unsigned short,xalloc<unsigned short> >::size
PUBLIC	??0?$FactoryPtr@VIEnvironmentRender@@@@QAE@XZ	; FactoryPtr<IEnvironmentRender>::FactoryPtr<IEnvironmentRender>
PUBLIC	??0?$xalloc@PAVCEnvAmbient@@@@QAE@XZ		; xalloc<CEnvAmbient *>::xalloc<CEnvAmbient *>
PUBLIC	??$?0PAVCEnvAmbient@@@?$xalloc@PAX@@QAE@ABV?$xalloc@PAVCEnvAmbient@@@@@Z ; xalloc<void *>::xalloc<void *><CEnvAmbient *>
PUBLIC	??0?$vector@PAVCEnvAmbient@@V?$xalloc@PAVCEnvAmbient@@@@@stlp_std@@QAE@ABV?$xalloc@PAVCEnvAmbient@@@@@Z ; stlp_std::vector<CEnvAmbient *,xalloc<CEnvAmbient *> >::vector<CEnvAmbient *,xalloc<CEnvAmbient *> >
PUBLIC	??0?$xr_vector@PAVCEnvAmbient@@V?$xalloc@PAVCEnvAmbient@@@@@@QAE@XZ ; xr_vector<CEnvAmbient *,xalloc<CEnvAmbient *> >::xr_vector<CEnvAmbient *,xalloc<CEnvAmbient *> >
PUBLIC	??0?$_Rb_tree@Vshared_str@@Ustr_pred@CEnvironment@@U?$pair@$$CBVshared_str@@V?$xr_vector@PAVCEnvDescriptor@@V?$xalloc@PAVCEnvDescriptor@@@@@@@stlp_std@@U?$_Select1st@U?$pair@$$CBVshared_str@@V?$xr_vector@PAVCEnvDescriptor@@V?$xalloc@PAVCEnvDescriptor@@@@@@@stlp_std@@@priv@5@U?$_MapTraitsT@U?$pair@$$CBVshared_str@@V?$xr_vector@PAVCEnvDescriptor@@V?$xalloc@PAVCEnvDescriptor@@@@@@@stlp_std@@@75@V?$xalloc@U?$pair@Vshared_str@@V?$xr_vector@PAVCEnvDescriptor@@V?$xalloc@PAVCEnvDescriptor@@@@@@@stlp_std@@@@@priv@stlp_std@@QAE@ABUstr_pred@CEnvironment@@ABV?$xalloc@U?$pair@$$CBVshared_str@@V?$xr_vector@PAVCEnvDescriptor@@V?$xalloc@PAVCEnvDescriptor@@@@@@@stlp_std@@@@@Z ; stlp_std::priv::_Rb_tree<shared_str,CEnvironment::str_pred,stlp_std::pair<shared_str const ,xr_vector<CEnvDescriptor *,xalloc<CEnvDescriptor *> > >,stlp_std::priv::_Select1st<stlp_std::pair<shared_str const ,xr_vector<CEnvDescriptor *,xalloc<CEnvDescriptor *> > > >,stlp_std::priv::_MapTraitsT<stlp_std::pair<shared_str const ,xr_vector<CEnvDescriptor *,xalloc<CEnvDescriptor *> > > >,xalloc<stlp_std::pair<shared_str,xr_vector<CEnvDescriptor *,xalloc<CEnvDescriptor *> > > > >::_Rb_tree<shared_str,CEnvironment::str_pred,stlp_std::pair<shared_str const ,xr_vector<CEnvDescriptor *,xalloc<CEnvDescriptor *> > >,stlp_std::priv::_Select1st<stlp_std::pair<shared_str const ,xr_vector<CEnvDescriptor *,xalloc<CEnvDescriptor *> > > >,stlp_std::priv::_MapTraitsT<stlp_std::pair<shared_str const ,xr_vector<CEnvDescriptor *,xalloc<CEnvDescriptor *> > > >,xalloc<stlp_std::pair<shared_str,xr_vector<CEnvDescriptor *,xalloc<CEnvDescriptor *> > > > >
PUBLIC	??0?$xalloc@U?$pair@$$CBVshared_str@@V?$xr_vector@PAVCEnvDescriptor@@V?$xalloc@PAVCEnvDescriptor@@@@@@@stlp_std@@@@QAE@XZ ; xalloc<stlp_std::pair<shared_str const ,xr_vector<CEnvDescriptor *,xalloc<CEnvDescriptor *> > > >::xalloc<stlp_std::pair<shared_str const ,xr_vector<CEnvDescriptor *,xalloc<CEnvDescriptor *> > > >
PUBLIC	??0?$map@Vshared_str@@V?$xr_vector@PAVCEnvDescriptor@@V?$xalloc@PAVCEnvDescriptor@@@@@@Ustr_pred@CEnvironment@@V?$xalloc@U?$pair@Vshared_str@@V?$xr_vector@PAVCEnvDescriptor@@V?$xalloc@PAVCEnvDescriptor@@@@@@@stlp_std@@@@@stlp_std@@QAE@XZ ; stlp_std::map<shared_str,xr_vector<CEnvDescriptor *,xalloc<CEnvDescriptor *> >,CEnvironment::str_pred,xalloc<stlp_std::pair<shared_str,xr_vector<CEnvDescriptor *,xalloc<CEnvDescriptor *> > > > >::map<shared_str,xr_vector<CEnvDescriptor *,xalloc<CEnvDescriptor *> >,CEnvironment::str_pred,xalloc<stlp_std::pair<shared_str,xr_vector<CEnvDescriptor *,xalloc<CEnvDescriptor *> > > > >
PUBLIC	??0?$xr_map@Vshared_str@@V?$xr_vector@PAVCEnvDescriptor@@V?$xalloc@PAVCEnvDescriptor@@@@@@Ustr_pred@CEnvironment@@V?$xalloc@U?$pair@Vshared_str@@V?$xr_vector@PAVCEnvDescriptor@@V?$xalloc@PAVCEnvDescriptor@@@@@@@stlp_std@@@@@@QAE@XZ ; xr_map<shared_str,xr_vector<CEnvDescriptor *,xalloc<CEnvDescriptor *> >,CEnvironment::str_pred,xalloc<stlp_std::pair<shared_str,xr_vector<CEnvDescriptor *,xalloc<CEnvDescriptor *> > > > >::xr_map<shared_str,xr_vector<CEnvDescriptor *,xalloc<CEnvDescriptor *> >,CEnvironment::str_pred,xalloc<stlp_std::pair<shared_str,xr_vector<CEnvDescriptor *,xalloc<CEnvDescriptor *> > > > >
PUBLIC	??0?$xalloc@VCEnvModifier@@@@QAE@XZ		; xalloc<CEnvModifier>::xalloc<CEnvModifier>
PUBLIC	??0?$_Vector_base@VCEnvModifier@@V?$xalloc@VCEnvModifier@@@@@priv@stlp_std@@QAE@ABV?$xalloc@VCEnvModifier@@@@@Z ; stlp_std::priv::_Vector_base<CEnvModifier,xalloc<CEnvModifier> >::_Vector_base<CEnvModifier,xalloc<CEnvModifier> >
PUBLIC	??0?$_Impl_vector@VCEnvModifier@@V?$xalloc@VCEnvModifier@@@@@priv@stlp_std@@QAE@ABV?$xalloc@VCEnvModifier@@@@@Z ; stlp_std::priv::_Impl_vector<CEnvModifier,xalloc<CEnvModifier> >::_Impl_vector<CEnvModifier,xalloc<CEnvModifier> >
PUBLIC	??0?$vector@VCEnvModifier@@V?$xalloc@VCEnvModifier@@@@@stlp_std@@QAE@ABV?$xalloc@VCEnvModifier@@@@@Z ; stlp_std::vector<CEnvModifier,xalloc<CEnvModifier> >::vector<CEnvModifier,xalloc<CEnvModifier> >
PUBLIC	??0?$xr_vector@VCEnvModifier@@V?$xalloc@VCEnvModifier@@@@@@QAE@XZ ; xr_vector<CEnvModifier,xalloc<CEnvModifier> >::xr_vector<CEnvModifier,xalloc<CEnvModifier> >
PUBLIC	??$xr_new@VCPerlinNoise1D@@H@@YAPAVCPerlinNoise1D@@ABH@Z ; xr_new<CPerlinNoise1D,int>
PUBLIC	??$xr_new@VCInifile@@PBDHHH@@YAPAVCInifile@@ABQBDABH11@Z ; xr_new<CInifile,char const *,int,int,int>
PUBLIC	?DestroyObject@?$FactoryPtr@VIThunderboltRender@@@@AAEXXZ ; FactoryPtr<IThunderboltRender>::DestroyObject
PUBLIC	??1?$FactoryPtr@VIThunderboltRender@@@@QAE@XZ	; FactoryPtr<IThunderboltRender>::~FactoryPtr<IThunderboltRender>
PUBLIC	?CreateObject@?$FactoryPtr@VIThunderboltRender@@@@AAEXXZ ; FactoryPtr<IThunderboltRender>::CreateObject
PUBLIC	??0?$FactoryPtr@VIThunderboltRender@@@@QAE@ABV0@@Z ; FactoryPtr<IThunderboltRender>::FactoryPtr<IThunderboltRender>
PUBLIC	??1?$xr_vector@PAUSThunderboltCollection@@V?$xalloc@PAUSThunderboltCollection@@@@@@QAE@XZ ; xr_vector<SThunderboltCollection *,xalloc<SThunderboltCollection *> >::~xr_vector<SThunderboltCollection *,xalloc<SThunderboltCollection *> >
PUBLIC	??0?$vector@PAUSThunderboltCollection@@V?$xalloc@PAUSThunderboltCollection@@@@@stlp_std@@QAE@ABV01@@Z ; stlp_std::vector<SThunderboltCollection *,xalloc<SThunderboltCollection *> >::vector<SThunderboltCollection *,xalloc<SThunderboltCollection *> >
PUBLIC	??1?$vector@PAUSThunderboltCollection@@V?$xalloc@PAUSThunderboltCollection@@@@@stlp_std@@QAE@XZ ; stlp_std::vector<SThunderboltCollection *,xalloc<SThunderboltCollection *> >::~vector<SThunderboltCollection *,xalloc<SThunderboltCollection *> >
PUBLIC	??0?$xr_vector@PAUSThunderboltCollection@@V?$xalloc@PAUSThunderboltCollection@@@@@@QAE@ABV0@@Z ; xr_vector<SThunderboltCollection *,xalloc<SThunderboltCollection *> >::xr_vector<SThunderboltCollection *,xalloc<SThunderboltCollection *> >
PUBLIC	?DestroyObject@?$FactoryPtr@VILensFlareRender@@@@AAEXXZ ; FactoryPtr<ILensFlareRender>::DestroyObject
PUBLIC	??1?$FactoryPtr@VILensFlareRender@@@@QAE@XZ	; FactoryPtr<ILensFlareRender>::~FactoryPtr<ILensFlareRender>
PUBLIC	?CreateObject@?$FactoryPtr@VILensFlareRender@@@@AAEXXZ ; FactoryPtr<ILensFlareRender>::CreateObject
PUBLIC	??0?$FactoryPtr@VILensFlareRender@@@@QAE@ABV0@@Z ; FactoryPtr<ILensFlareRender>::FactoryPtr<ILensFlareRender>
PUBLIC	??1rq_results@collide@@QAE@XZ			; collide::rq_results::~rq_results
PUBLIC	??1?$xr_vector@Urq_result@collide@@V?$xalloc@Urq_result@collide@@@@@@QAE@XZ ; xr_vector<collide::rq_result,xalloc<collide::rq_result> >::~xr_vector<collide::rq_result,xalloc<collide::rq_result> >
PUBLIC	??0?$_STLP_alloc_proxy@PAUrq_result@collide@@U12@V?$xalloc@Urq_result@collide@@@@@priv@stlp_std@@QAE@ABV?$xalloc@Urq_result@collide@@@@PAUrq_result@collide@@@Z ; stlp_std::priv::_STLP_alloc_proxy<collide::rq_result *,collide::rq_result,xalloc<collide::rq_result> >::_STLP_alloc_proxy<collide::rq_result *,collide::rq_result,xalloc<collide::rq_result> >
PUBLIC	??0?$_Vector_base@Urq_result@collide@@V?$xalloc@Urq_result@collide@@@@@priv@stlp_std@@QAE@IABV?$xalloc@Urq_result@collide@@@@@Z ; stlp_std::priv::_Vector_base<collide::rq_result,xalloc<collide::rq_result> >::_Vector_base<collide::rq_result,xalloc<collide::rq_result> >
PUBLIC	??0?$xalloc@Urq_result@collide@@@@QAE@ABV0@@Z	; xalloc<collide::rq_result>::xalloc<collide::rq_result>
PUBLIC	?get_allocator@?$_Impl_vector@Urq_result@collide@@V?$xalloc@Urq_result@collide@@@@@priv@stlp_std@@QBE?AV?$xalloc@Urq_result@collide@@@@XZ ; stlp_std::priv::_Impl_vector<collide::rq_result,xalloc<collide::rq_result> >::get_allocator
PUBLIC	?begin@?$_Impl_vector@Urq_result@collide@@V?$xalloc@Urq_result@collide@@@@@priv@stlp_std@@QBEPBUrq_result@collide@@XZ ; stlp_std::priv::_Impl_vector<collide::rq_result,xalloc<collide::rq_result> >::begin
PUBLIC	?end@?$_Impl_vector@Urq_result@collide@@V?$xalloc@Urq_result@collide@@@@@priv@stlp_std@@QBEPBUrq_result@collide@@XZ ; stlp_std::priv::_Impl_vector<collide::rq_result,xalloc<collide::rq_result> >::end
PUBLIC	??0?$_Impl_vector@Urq_result@collide@@V?$xalloc@Urq_result@collide@@@@@priv@stlp_std@@QAE@ABV012@@Z ; stlp_std::priv::_Impl_vector<collide::rq_result,xalloc<collide::rq_result> >::_Impl_vector<collide::rq_result,xalloc<collide::rq_result> >
PUBLIC	??0?$vector@Urq_result@collide@@V?$xalloc@Urq_result@collide@@@@@stlp_std@@QAE@ABV01@@Z ; stlp_std::vector<collide::rq_result,xalloc<collide::rq_result> >::vector<collide::rq_result,xalloc<collide::rq_result> >
PUBLIC	??1?$_Vector_base@Urq_result@collide@@V?$xalloc@Urq_result@collide@@@@@priv@stlp_std@@QAE@XZ ; stlp_std::priv::_Vector_base<collide::rq_result,xalloc<collide::rq_result> >::~_Vector_base<collide::rq_result,xalloc<collide::rq_result> >
PUBLIC	??1?$_Impl_vector@Urq_result@collide@@V?$xalloc@Urq_result@collide@@@@@priv@stlp_std@@QAE@XZ ; stlp_std::priv::_Impl_vector<collide::rq_result,xalloc<collide::rq_result> >::~_Impl_vector<collide::rq_result,xalloc<collide::rq_result> >
PUBLIC	??1?$vector@Urq_result@collide@@V?$xalloc@Urq_result@collide@@@@@stlp_std@@QAE@XZ ; stlp_std::vector<collide::rq_result,xalloc<collide::rq_result> >::~vector<collide::rq_result,xalloc<collide::rq_result> >
PUBLIC	??0?$xr_vector@Urq_result@collide@@V?$xalloc@Urq_result@collide@@@@@@QAE@ABV0@@Z ; xr_vector<collide::rq_result,xalloc<collide::rq_result> >::xr_vector<collide::rq_result,xalloc<collide::rq_result> >
PUBLIC	??0rq_results@collide@@QAE@ABV01@@Z		; collide::rq_results::rq_results
PUBLIC	??1?$xr_vector@PAVCLensFlareDescriptor@@V?$xalloc@PAVCLensFlareDescriptor@@@@@@QAE@XZ ; xr_vector<CLensFlareDescriptor *,xalloc<CLensFlareDescriptor *> >::~xr_vector<CLensFlareDescriptor *,xalloc<CLensFlareDescriptor *> >
PUBLIC	??0?$vector@PAVCLensFlareDescriptor@@V?$xalloc@PAVCLensFlareDescriptor@@@@@stlp_std@@QAE@ABV01@@Z ; stlp_std::vector<CLensFlareDescriptor *,xalloc<CLensFlareDescriptor *> >::vector<CLensFlareDescriptor *,xalloc<CLensFlareDescriptor *> >
PUBLIC	??1?$vector@PAVCLensFlareDescriptor@@V?$xalloc@PAVCLensFlareDescriptor@@@@@stlp_std@@QAE@XZ ; stlp_std::vector<CLensFlareDescriptor *,xalloc<CLensFlareDescriptor *> >::~vector<CLensFlareDescriptor *,xalloc<CLensFlareDescriptor *> >
PUBLIC	??0?$xr_vector@PAVCLensFlareDescriptor@@V?$xalloc@PAVCLensFlareDescriptor@@@@@@QAE@ABV0@@Z ; xr_vector<CLensFlareDescriptor *,xalloc<CLensFlareDescriptor *> >::xr_vector<CLensFlareDescriptor *,xalloc<CLensFlareDescriptor *> >
PUBLIC	??4?$FactoryPtr@VIThunderboltRender@@@@QAEAAV0@ABV0@@Z ; FactoryPtr<IThunderboltRender>::operator=
PUBLIC	??4?$vector@PAUSThunderboltCollection@@V?$xalloc@PAUSThunderboltCollection@@@@@stlp_std@@QAEAAV01@ABV01@@Z ; stlp_std::vector<SThunderboltCollection *,xalloc<SThunderboltCollection *> >::operator=
PUBLIC	??4?$xr_vector@PAUSThunderboltCollection@@V?$xalloc@PAUSThunderboltCollection@@@@@@QAEAAV0@ABV0@@Z ; xr_vector<SThunderboltCollection *,xalloc<SThunderboltCollection *> >::operator=
PUBLIC	??4?$FactoryPtr@VILensFlareRender@@@@QAEAAV0@ABV0@@Z ; FactoryPtr<ILensFlareRender>::operator=
PUBLIC	?size@?$_Impl_vector@Urq_result@collide@@V?$xalloc@Urq_result@collide@@@@@priv@stlp_std@@QBEIXZ ; stlp_std::priv::_Impl_vector<collide::rq_result,xalloc<collide::rq_result> >::size
PUBLIC	?capacity@?$_Impl_vector@Urq_result@collide@@V?$xalloc@Urq_result@collide@@@@@priv@stlp_std@@QBEIXZ ; stlp_std::priv::_Impl_vector<collide::rq_result,xalloc<collide::rq_result> >::capacity
PUBLIC	??$xr_free@Urq_result@collide@@@@YAXAAPAUrq_result@collide@@@Z ; xr_free<collide::rq_result>
PUBLIC	?deallocate@?$xalloc@Urq_result@collide@@@@QBEXPAUrq_result@collide@@I@Z ; xalloc<collide::rq_result>::deallocate
PUBLIC	?end@?$_Impl_vector@Urq_result@collide@@V?$xalloc@Urq_result@collide@@@@@priv@stlp_std@@QAEPAUrq_result@collide@@XZ ; stlp_std::priv::_Impl_vector<collide::rq_result,xalloc<collide::rq_result> >::end
PUBLIC	?rbegin@?$_Impl_vector@Urq_result@collide@@V?$xalloc@Urq_result@collide@@@@@priv@stlp_std@@QAE?AV?$reverse_iterator@PAUrq_result@collide@@@3@XZ ; stlp_std::priv::_Impl_vector<collide::rq_result,xalloc<collide::rq_result> >::rbegin
PUBLIC	?begin@?$_Impl_vector@Urq_result@collide@@V?$xalloc@Urq_result@collide@@@@@priv@stlp_std@@QAEPAUrq_result@collide@@XZ ; stlp_std::priv::_Impl_vector<collide::rq_result,xalloc<collide::rq_result> >::begin
PUBLIC	??0?$reverse_iterator@PAUrq_result@collide@@@stlp_std@@QAE@PAUrq_result@collide@@@Z ; stlp_std::reverse_iterator<collide::rq_result *>::reverse_iterator<collide::rq_result *>
PUBLIC	?rend@?$_Impl_vector@Urq_result@collide@@V?$xalloc@Urq_result@collide@@@@@priv@stlp_std@@QAE?AV?$reverse_iterator@PAUrq_result@collide@@@3@XZ ; stlp_std::priv::_Impl_vector<collide::rq_result,xalloc<collide::rq_result> >::rend
PUBLIC	??0?$reverse_iterator@PAUrq_result@collide@@@stlp_std@@QAE@ABV01@@Z ; stlp_std::reverse_iterator<collide::rq_result *>::reverse_iterator<collide::rq_result *>
PUBLIC	??$__destroy_range_aux@V?$reverse_iterator@PAUrq_result@collide@@@stlp_std@@Urq_result@collide@@@stlp_std@@YAXV?$reverse_iterator@PAUrq_result@collide@@@0@0PAUrq_result@collide@@ABU__true_type@0@@Z ; stlp_std::__destroy_range_aux<stlp_std::reverse_iterator<collide::rq_result *>,collide::rq_result>
PUBLIC	??$__destroy_range@V?$reverse_iterator@PAUrq_result@collide@@@stlp_std@@Urq_result@collide@@@stlp_std@@YAXV?$reverse_iterator@PAUrq_result@collide@@@0@0PAUrq_result@collide@@@Z ; stlp_std::__destroy_range<stlp_std::reverse_iterator<collide::rq_result *>,collide::rq_result>
PUBLIC	??$_Destroy_Range@V?$reverse_iterator@PAUrq_result@collide@@@stlp_std@@@stlp_std@@YAXV?$reverse_iterator@PAUrq_result@collide@@@0@0@Z ; stlp_std::_Destroy_Range<stlp_std::reverse_iterator<collide::rq_result *> >
PUBLIC	?_M_clear@?$_Impl_vector@Urq_result@collide@@V?$xalloc@Urq_result@collide@@@@@priv@stlp_std@@AAEXXZ ; stlp_std::priv::_Impl_vector<collide::rq_result,xalloc<collide::rq_result> >::_M_clear
PUBLIC	??$__destroy_range_aux@PAUrq_result@collide@@U12@@stlp_std@@YAXPAUrq_result@collide@@00ABU__true_type@0@@Z ; stlp_std::__destroy_range_aux<collide::rq_result *,collide::rq_result>
PUBLIC	??$__destroy_range@PAUrq_result@collide@@U12@@stlp_std@@YAXPAUrq_result@collide@@00@Z ; stlp_std::__destroy_range<collide::rq_result *,collide::rq_result>
PUBLIC	??$_Destroy_Range@PAUrq_result@collide@@@stlp_std@@YAXPAUrq_result@collide@@0@Z ; stlp_std::_Destroy_Range<collide::rq_result *>
PUBLIC	??$xr_alloc@Urq_result@collide@@@@YAPAUrq_result@collide@@I@Z ; xr_alloc<collide::rq_result>
PUBLIC	?allocate@?$xalloc@Urq_result@collide@@@@QBEPAUrq_result@collide@@IPBX@Z ; xalloc<collide::rq_result>::allocate
PUBLIC	?allocate@?$_STLP_alloc_proxy@PAUrq_result@collide@@U12@V?$xalloc@Urq_result@collide@@@@@priv@stlp_std@@QAEPAUrq_result@collide@@I@Z ; stlp_std::priv::_STLP_alloc_proxy<collide::rq_result *,collide::rq_result,xalloc<collide::rq_result> >::allocate
PUBLIC	?allocate@?$_STLP_alloc_proxy@PAUrq_result@collide@@U12@V?$xalloc@Urq_result@collide@@@@@priv@stlp_std@@AAEPAUrq_result@collide@@IAAIABU__false_type@3@@Z ; stlp_std::priv::_STLP_alloc_proxy<collide::rq_result *,collide::rq_result,xalloc<collide::rq_result> >::allocate
PUBLIC	?allocate@?$_STLP_alloc_proxy@PAUrq_result@collide@@U12@V?$xalloc@Urq_result@collide@@@@@priv@stlp_std@@QAEPAUrq_result@collide@@IAAI@Z ; stlp_std::priv::_STLP_alloc_proxy<collide::rq_result *,collide::rq_result,xalloc<collide::rq_result> >::allocate
PUBLIC	?_Answer@?$_BothPtrType@PBUrq_result@collide@@PAU12@@stlp_std@@SA?AU__true_type@2@XZ ; stlp_std::_BothPtrType<collide::rq_result const *,collide::rq_result *>::_Answer
PUBLIC	??$__ucopy_ptrs@PBUrq_result@collide@@PAU12@@priv@stlp_std@@YAPAUrq_result@collide@@PBU23@0PAU23@ABU__true_type@1@@Z ; stlp_std::priv::__ucopy_ptrs<collide::rq_result const *,collide::rq_result *>
PUBLIC	??$_UseTrivialUCopy@Urq_result@collide@@U12@@stlp_std@@YA?AU?$_TrivialUCopy@Urq_result@collide@@U12@@0@PAUrq_result@collide@@0@Z ; stlp_std::_UseTrivialUCopy<collide::rq_result,collide::rq_result>
PUBLIC	?_Answer@?$_TrivialUCopy@Urq_result@collide@@U12@@stlp_std@@SA?AU__true_type@2@XZ ; stlp_std::_TrivialUCopy<collide::rq_result,collide::rq_result>::_Answer
PUBLIC	??$__ucopy_aux@PBUrq_result@collide@@PAU12@@priv@stlp_std@@YAPAUrq_result@collide@@PBU23@0PAU23@ABU__true_type@1@@Z ; stlp_std::priv::__ucopy_aux<collide::rq_result const *,collide::rq_result *>
PUBLIC	??$uninitialized_copy@PBUrq_result@collide@@PAU12@@stlp_std@@YAPAUrq_result@collide@@PBU12@0PAU12@@Z ; stlp_std::uninitialized_copy<collide::rq_result const *,collide::rq_result *>
PUBLIC	??$_M_allocate_and_copy@PBUrq_result@collide@@@?$_Impl_vector@Urq_result@collide@@V?$xalloc@Urq_result@collide@@@@@priv@stlp_std@@AAEPAUrq_result@collide@@AAIPBU34@1@Z ; stlp_std::priv::_Impl_vector<collide::rq_result,xalloc<collide::rq_result> >::_M_allocate_and_copy<collide::rq_result const *>
PUBLIC	??$__copy_ptrs@PBUrq_result@collide@@PAU12@@priv@stlp_std@@YAPAUrq_result@collide@@PBU23@0PAU23@ABU__true_type@1@@Z ; stlp_std::priv::__copy_ptrs<collide::rq_result const *,collide::rq_result *>
PUBLIC	??4?$_Impl_vector@Urq_result@collide@@V?$xalloc@Urq_result@collide@@@@@priv@stlp_std@@QAEAAV012@ABV012@@Z ; stlp_std::priv::_Impl_vector<collide::rq_result,xalloc<collide::rq_result> >::operator=
PUBLIC	??4?$vector@Urq_result@collide@@V?$xalloc@Urq_result@collide@@@@@stlp_std@@QAEAAV01@ABV01@@Z ; stlp_std::vector<collide::rq_result,xalloc<collide::rq_result> >::operator=
PUBLIC	??4?$xr_vector@Urq_result@collide@@V?$xalloc@Urq_result@collide@@@@@@QAEAAV0@ABV0@@Z ; xr_vector<collide::rq_result,xalloc<collide::rq_result> >::operator=
PUBLIC	??4rq_results@collide@@QAEAAV01@ABV01@@Z	; collide::rq_results::operator=
PUBLIC	??4?$vector@PAVCLensFlareDescriptor@@V?$xalloc@PAVCLensFlareDescriptor@@@@@stlp_std@@QAEAAV01@ABV01@@Z ; stlp_std::vector<CLensFlareDescriptor *,xalloc<CLensFlareDescriptor *> >::operator=
PUBLIC	??4?$xr_vector@PAVCLensFlareDescriptor@@V?$xalloc@PAVCLensFlareDescriptor@@@@@@QAEAAV0@ABV0@@Z ; xr_vector<CLensFlareDescriptor *,xalloc<CLensFlareDescriptor *> >::operator=
PUBLIC	??0?$xalloc@M@@QAE@XZ				; xalloc<float>::xalloc<float>
PUBLIC	??0?$_Vector_base@MV?$xalloc@M@@@priv@stlp_std@@QAE@ABV?$xalloc@M@@@Z ; stlp_std::priv::_Vector_base<float,xalloc<float> >::_Vector_base<float,xalloc<float> >
PUBLIC	??0?$_Impl_vector@MV?$xalloc@M@@@priv@stlp_std@@QAE@ABV?$xalloc@M@@@Z ; stlp_std::priv::_Impl_vector<float,xalloc<float> >::_Impl_vector<float,xalloc<float> >
PUBLIC	??0?$vector@MV?$xalloc@M@@@stlp_std@@QAE@ABV?$xalloc@M@@@Z ; stlp_std::vector<float,xalloc<float> >::vector<float,xalloc<float> >
PUBLIC	??0?$xr_vector@MV?$xalloc@M@@@@QAE@XZ		; xr_vector<float,xalloc<float> >::xr_vector<float,xalloc<float> >
PUBLIC	??8?$_Rb_tree_iterator@U?$pair@$$CBVshared_str@@V?$xr_vector@PAVCEnvDescriptor@@V?$xalloc@PAVCEnvDescriptor@@@@@@@stlp_std@@U?$_MapTraitsT@U?$pair@$$CBVshared_str@@V?$xr_vector@PAVCEnvDescriptor@@V?$xalloc@PAVCEnvDescriptor@@@@@@@stlp_std@@@priv@2@@priv@stlp_std@@QBE_NU?$_Rb_tree_iterator@U?$pair@$$CBVshared_str@@V?$xr_vector@PAVCEnvDescriptor@@V?$xalloc@PAVCEnvDescriptor@@@@@@@stlp_std@@U?$_ConstMapTraitsT@U?$pair@$$CBVshared_str@@V?$xr_vector@PAVCEnvDescriptor@@V?$xalloc@PAVCEnvDescriptor@@@@@@@stlp_std@@@priv@2@@12@@Z ; stlp_std::priv::_Rb_tree_iterator<stlp_std::pair<shared_str const ,xr_vector<CEnvDescriptor *,xalloc<CEnvDescriptor *> > >,stlp_std::priv::_MapTraitsT<stlp_std::pair<shared_str const ,xr_vector<CEnvDescriptor *,xalloc<CEnvDescriptor *> > > > >::operator==
PUBLIC	?size@shared_str@@QBEIXZ			; shared_str::size
PUBLIC	?__stl_throw_out_of_range@stlp_std@@YAXPBD@Z	; stlp_std::__stl_throw_out_of_range
PUBLIC	?_M_throw_out_of_range@?$_Vector_base@PAXV?$xalloc@PAX@@@priv@stlp_std@@IBEXXZ ; stlp_std::priv::_Vector_base<void *,xalloc<void *> >::_M_throw_out_of_range
PUBLIC	?_M_range_check@?$_Impl_vector@PAXV?$xalloc@PAX@@@priv@stlp_std@@ABEXI@Z ; stlp_std::priv::_Impl_vector<void *,xalloc<void *> >::_M_range_check
PUBLIC	??A?$_Impl_vector@PAXV?$xalloc@PAX@@@priv@stlp_std@@QAEAAPAXI@Z ; stlp_std::priv::_Impl_vector<void *,xalloc<void *> >::operator[]
PUBLIC	?at@?$_Impl_vector@PAXV?$xalloc@PAX@@@priv@stlp_std@@QAEAAPAXI@Z ; stlp_std::priv::_Impl_vector<void *,xalloc<void *> >::at
PUBLIC	?at@?$vector@PAVCEnvDescriptor@@V?$xalloc@PAVCEnvDescriptor@@@@@stlp_std@@QAEAAPAVCEnvDescriptor@@I@Z ; stlp_std::vector<CEnvDescriptor *,xalloc<CEnvDescriptor *> >::at
PUBLIC	?size@?$vector@PAVCEnvDescriptor@@V?$xalloc@PAVCEnvDescriptor@@@@@stlp_std@@QBEIXZ ; stlp_std::vector<CEnvDescriptor *,xalloc<CEnvDescriptor *> >::size
PUBLIC	?size@?$xr_vector@PAVCEnvDescriptor@@V?$xalloc@PAVCEnvDescriptor@@@@@@QBEIXZ ; xr_vector<CEnvDescriptor *,xalloc<CEnvDescriptor *> >::size
PUBLIC	?end@?$_Rb_tree@Vshared_str@@Ustr_pred@CEnvironment@@U?$pair@$$CBVshared_str@@V?$xr_vector@PAVCEnvDescriptor@@V?$xalloc@PAVCEnvDescriptor@@@@@@@stlp_std@@U?$_Select1st@U?$pair@$$CBVshared_str@@V?$xr_vector@PAVCEnvDescriptor@@V?$xalloc@PAVCEnvDescriptor@@@@@@@stlp_std@@@priv@5@U?$_MapTraitsT@U?$pair@$$CBVshared_str@@V?$xr_vector@PAVCEnvDescriptor@@V?$xalloc@PAVCEnvDescriptor@@@@@@@stlp_std@@@75@V?$xalloc@U?$pair@Vshared_str@@V?$xr_vector@PAVCEnvDescriptor@@V?$xalloc@PAVCEnvDescriptor@@@@@@@stlp_std@@@@@priv@stlp_std@@QAE?AU?$_Rb_tree_iterator@U?$pair@$$CBVshared_str@@V?$xr_vector@PAVCEnvDescriptor@@V?$xalloc@PAVCEnvDescriptor@@@@@@@stlp_std@@U?$_MapTraitsT@U?$pair@$$CBVshared_str@@V?$xr_vector@PAVCEnvDescriptor@@V?$xalloc@PAVCEnvDescriptor@@@@@@@stlp_std@@@priv@2@@23@XZ ; stlp_std::priv::_Rb_tree<shared_str,CEnvironment::str_pred,stlp_std::pair<shared_str const ,xr_vector<CEnvDescriptor *,xalloc<CEnvDescriptor *> > >,stlp_std::priv::_Select1st<stlp_std::pair<shared_str const ,xr_vector<CEnvDescriptor *,xalloc<CEnvDescriptor *> > > >,stlp_std::priv::_MapTraitsT<stlp_std::pair<shared_str const ,xr_vector<CEnvDescriptor *,xalloc<CEnvDescriptor *> > > >,xalloc<stlp_std::pair<shared_str,xr_vector<CEnvDescriptor *,xalloc<CEnvDescriptor *> > > > >::end
PUBLIC	?end@?$map@Vshared_str@@V?$xr_vector@PAVCEnvDescriptor@@V?$xalloc@PAVCEnvDescriptor@@@@@@Ustr_pred@CEnvironment@@V?$xalloc@U?$pair@Vshared_str@@V?$xr_vector@PAVCEnvDescriptor@@V?$xalloc@PAVCEnvDescriptor@@@@@@@stlp_std@@@@@stlp_std@@QAE?AU?$_Rb_tree_iterator@U?$pair@$$CBVshared_str@@V?$xr_vector@PAVCEnvDescriptor@@V?$xalloc@PAVCEnvDescriptor@@@@@@@stlp_std@@U?$_MapTraitsT@U?$pair@$$CBVshared_str@@V?$xr_vector@PAVCEnvDescriptor@@V?$xalloc@PAVCEnvDescriptor@@@@@@@stlp_std@@@priv@2@@priv@2@XZ ; stlp_std::map<shared_str,xr_vector<CEnvDescriptor *,xalloc<CEnvDescriptor *> >,CEnvironment::str_pred,xalloc<stlp_std::pair<shared_str,xr_vector<CEnvDescriptor *,xalloc<CEnvDescriptor *> > > > >::end
PUBLIC	??D?$_Rb_tree_iterator@U?$pair@$$CBVshared_str@@V?$xr_vector@PAVCEnvDescriptor@@V?$xalloc@PAVCEnvDescriptor@@@@@@@stlp_std@@U?$_MapTraitsT@U?$pair@$$CBVshared_str@@V?$xr_vector@PAVCEnvDescriptor@@V?$xalloc@PAVCEnvDescriptor@@@@@@@stlp_std@@@priv@2@@priv@stlp_std@@QBEAAU?$pair@$$CBVshared_str@@V?$xr_vector@PAVCEnvDescriptor@@V?$xalloc@PAVCEnvDescriptor@@@@@@@2@XZ ; stlp_std::priv::_Rb_tree_iterator<stlp_std::pair<shared_str const ,xr_vector<CEnvDescriptor *,xalloc<CEnvDescriptor *> > >,stlp_std::priv::_MapTraitsT<stlp_std::pair<shared_str const ,xr_vector<CEnvDescriptor *,xalloc<CEnvDescriptor *> > > > >::operator*
PUBLIC	??C?$_Rb_tree_iterator@U?$pair@$$CBVshared_str@@V?$xr_vector@PAVCEnvDescriptor@@V?$xalloc@PAVCEnvDescriptor@@@@@@@stlp_std@@U?$_MapTraitsT@U?$pair@$$CBVshared_str@@V?$xr_vector@PAVCEnvDescriptor@@V?$xalloc@PAVCEnvDescriptor@@@@@@@stlp_std@@@priv@2@@priv@stlp_std@@QBEPAU?$pair@$$CBVshared_str@@V?$xr_vector@PAVCEnvDescriptor@@V?$xalloc@PAVCEnvDescriptor@@@@@@@2@XZ ; stlp_std::priv::_Rb_tree_iterator<stlp_std::pair<shared_str const ,xr_vector<CEnvDescriptor *,xalloc<CEnvDescriptor *> > >,stlp_std::priv::_MapTraitsT<stlp_std::pair<shared_str const ,xr_vector<CEnvDescriptor *,xalloc<CEnvDescriptor *> > > > >::operator->
PUBLIC	??9?$_Rb_tree_iterator@U?$pair@$$CBVshared_str@@V?$xr_vector@PAVCEnvDescriptor@@V?$xalloc@PAVCEnvDescriptor@@@@@@@stlp_std@@U?$_MapTraitsT@U?$pair@$$CBVshared_str@@V?$xr_vector@PAVCEnvDescriptor@@V?$xalloc@PAVCEnvDescriptor@@@@@@@stlp_std@@@priv@2@@priv@stlp_std@@QBE_NU?$_Rb_tree_iterator@U?$pair@$$CBVshared_str@@V?$xr_vector@PAVCEnvDescriptor@@V?$xalloc@PAVCEnvDescriptor@@@@@@@stlp_std@@U?$_ConstMapTraitsT@U?$pair@$$CBVshared_str@@V?$xr_vector@PAVCEnvDescriptor@@V?$xalloc@PAVCEnvDescriptor@@@@@@@stlp_std@@@priv@2@@12@@Z ; stlp_std::priv::_Rb_tree_iterator<stlp_std::pair<shared_str const ,xr_vector<CEnvDescriptor *,xalloc<CEnvDescriptor *> > >,stlp_std::priv::_MapTraitsT<stlp_std::pair<shared_str const ,xr_vector<CEnvDescriptor *,xalloc<CEnvDescriptor *> > > > >::operator!=
PUBLIC	??0?$_Rb_tree_iterator@U?$pair@$$CBVshared_str@@V?$xr_vector@PAVCEnvDescriptor@@V?$xalloc@PAVCEnvDescriptor@@@@@@@stlp_std@@U?$_MapTraitsT@U?$pair@$$CBVshared_str@@V?$xr_vector@PAVCEnvDescriptor@@V?$xalloc@PAVCEnvDescriptor@@@@@@@stlp_std@@@priv@2@@priv@stlp_std@@QAE@PAU_Rb_tree_node_base@12@@Z ; stlp_std::priv::_Rb_tree_iterator<stlp_std::pair<shared_str const ,xr_vector<CEnvDescriptor *,xalloc<CEnvDescriptor *> > >,stlp_std::priv::_MapTraitsT<stlp_std::pair<shared_str const ,xr_vector<CEnvDescriptor *,xalloc<CEnvDescriptor *> > > > >::_Rb_tree_iterator<stlp_std::pair<shared_str const ,xr_vector<CEnvDescriptor *,xalloc<CEnvDescriptor *> > >,stlp_std::priv::_MapTraitsT<stlp_std::pair<shared_str const ,xr_vector<CEnvDescriptor *,xalloc<CEnvDescriptor *> > > > >
PUBLIC	?xr_strcmp@@YAHABVshared_str@@0@Z		; xr_strcmp
PUBLIC	??Rstr_pred@CEnvironment@@QBE_NABVshared_str@@0@Z ; CEnvironment::str_pred::operator()
PUBLIC	??R?$_Select1st@U?$pair@$$CBVshared_str@@V?$xr_vector@PAVCEnvDescriptor@@V?$xalloc@PAVCEnvDescriptor@@@@@@@stlp_std@@@priv@stlp_std@@QBEABVshared_str@@ABU?$pair@$$CBVshared_str@@V?$xr_vector@PAVCEnvDescriptor@@V?$xalloc@PAVCEnvDescriptor@@@@@@@2@@Z ; stlp_std::priv::_Select1st<stlp_std::pair<shared_str const ,xr_vector<CEnvDescriptor *,xalloc<CEnvDescriptor *> > > >::operator()
PUBLIC	?_S_key@?$_Rb_tree@Vshared_str@@Ustr_pred@CEnvironment@@U?$pair@$$CBVshared_str@@V?$xr_vector@PAVCEnvDescriptor@@V?$xalloc@PAVCEnvDescriptor@@@@@@@stlp_std@@U?$_Select1st@U?$pair@$$CBVshared_str@@V?$xr_vector@PAVCEnvDescriptor@@V?$xalloc@PAVCEnvDescriptor@@@@@@@stlp_std@@@priv@5@U?$_MapTraitsT@U?$pair@$$CBVshared_str@@V?$xr_vector@PAVCEnvDescriptor@@V?$xalloc@PAVCEnvDescriptor@@@@@@@stlp_std@@@75@V?$xalloc@U?$pair@Vshared_str@@V?$xr_vector@PAVCEnvDescriptor@@V?$xalloc@PAVCEnvDescriptor@@@@@@@stlp_std@@@@@priv@stlp_std@@KAABVshared_str@@PAU_Rb_tree_node_base@23@@Z ; stlp_std::priv::_Rb_tree<shared_str,CEnvironment::str_pred,stlp_std::pair<shared_str const ,xr_vector<CEnvDescriptor *,xalloc<CEnvDescriptor *> > >,stlp_std::priv::_Select1st<stlp_std::pair<shared_str const ,xr_vector<CEnvDescriptor *,xalloc<CEnvDescriptor *> > > >,stlp_std::priv::_MapTraitsT<stlp_std::pair<shared_str const ,xr_vector<CEnvDescriptor *,xalloc<CEnvDescriptor *> > > >,xalloc<stlp_std::pair<shared_str,xr_vector<CEnvDescriptor *,xalloc<CEnvDescriptor *> > > > >::_S_key
PUBLIC	??$_M_find@Vshared_str@@@?$_Rb_tree@Vshared_str@@Ustr_pred@CEnvironment@@U?$pair@$$CBVshared_str@@V?$xr_vector@PAVCEnvDescriptor@@V?$xalloc@PAVCEnvDescriptor@@@@@@@stlp_std@@U?$_Select1st@U?$pair@$$CBVshared_str@@V?$xr_vector@PAVCEnvDescriptor@@V?$xalloc@PAVCEnvDescriptor@@@@@@@stlp_std@@@priv@5@U?$_MapTraitsT@U?$pair@$$CBVshared_str@@V?$xr_vector@PAVCEnvDescriptor@@V?$xalloc@PAVCEnvDescriptor@@@@@@@stlp_std@@@75@V?$xalloc@U?$pair@Vshared_str@@V?$xr_vector@PAVCEnvDescriptor@@V?$xalloc@PAVCEnvDescriptor@@@@@@@stlp_std@@@@@priv@stlp_std@@ABEPAU_Rb_tree_node_base@12@ABVshared_str@@@Z ; stlp_std::priv::_Rb_tree<shared_str,CEnvironment::str_pred,stlp_std::pair<shared_str const ,xr_vector<CEnvDescriptor *,xalloc<CEnvDescriptor *> > >,stlp_std::priv::_Select1st<stlp_std::pair<shared_str const ,xr_vector<CEnvDescriptor *,xalloc<CEnvDescriptor *> > > >,stlp_std::priv::_MapTraitsT<stlp_std::pair<shared_str const ,xr_vector<CEnvDescriptor *,xalloc<CEnvDescriptor *> > > >,xalloc<stlp_std::pair<shared_str,xr_vector<CEnvDescriptor *,xalloc<CEnvDescriptor *> > > > >::_M_find<shared_str>
PUBLIC	??$find@Vshared_str@@@?$_Rb_tree@Vshared_str@@Ustr_pred@CEnvironment@@U?$pair@$$CBVshared_str@@V?$xr_vector@PAVCEnvDescriptor@@V?$xalloc@PAVCEnvDescriptor@@@@@@@stlp_std@@U?$_Select1st@U?$pair@$$CBVshared_str@@V?$xr_vector@PAVCEnvDescriptor@@V?$xalloc@PAVCEnvDescriptor@@@@@@@stlp_std@@@priv@5@U?$_MapTraitsT@U?$pair@$$CBVshared_str@@V?$xr_vector@PAVCEnvDescriptor@@V?$xalloc@PAVCEnvDescriptor@@@@@@@stlp_std@@@75@V?$xalloc@U?$pair@Vshared_str@@V?$xr_vector@PAVCEnvDescriptor@@V?$xalloc@PAVCEnvDescriptor@@@@@@@stlp_std@@@@@priv@stlp_std@@QAE?AU?$_Rb_tree_iterator@U?$pair@$$CBVshared_str@@V?$xr_vector@PAVCEnvDescriptor@@V?$xalloc@PAVCEnvDescriptor@@@@@@@stlp_std@@U?$_MapTraitsT@U?$pair@$$CBVshared_str@@V?$xr_vector@PAVCEnvDescriptor@@V?$xalloc@PAVCEnvDescriptor@@@@@@@stlp_std@@@priv@2@@12@ABVshared_str@@@Z ; stlp_std::priv::_Rb_tree<shared_str,CEnvironment::str_pred,stlp_std::pair<shared_str const ,xr_vector<CEnvDescriptor *,xalloc<CEnvDescriptor *> > >,stlp_std::priv::_Select1st<stlp_std::pair<shared_str const ,xr_vector<CEnvDescriptor *,xalloc<CEnvDescriptor *> > > >,stlp_std::priv::_MapTraitsT<stlp_std::pair<shared_str const ,xr_vector<CEnvDescriptor *,xalloc<CEnvDescriptor *> > > >,xalloc<stlp_std::pair<shared_str,xr_vector<CEnvDescriptor *,xalloc<CEnvDescriptor *> > > > >::find<shared_str>
PUBLIC	??$find@Vshared_str@@@?$map@Vshared_str@@V?$xr_vector@PAVCEnvDescriptor@@V?$xalloc@PAVCEnvDescriptor@@@@@@Ustr_pred@CEnvironment@@V?$xalloc@U?$pair@Vshared_str@@V?$xr_vector@PAVCEnvDescriptor@@V?$xalloc@PAVCEnvDescriptor@@@@@@@stlp_std@@@@@stlp_std@@QAE?AU?$_Rb_tree_iterator@U?$pair@$$CBVshared_str@@V?$xr_vector@PAVCEnvDescriptor@@V?$xalloc@PAVCEnvDescriptor@@@@@@@stlp_std@@U?$_MapTraitsT@U?$pair@$$CBVshared_str@@V?$xr_vector@PAVCEnvDescriptor@@V?$xalloc@PAVCEnvDescriptor@@@@@@@stlp_std@@@priv@2@@priv@1@ABVshared_str@@@Z ; stlp_std::map<shared_str,xr_vector<CEnvDescriptor *,xalloc<CEnvDescriptor *> >,CEnvironment::str_pred,xalloc<stlp_std::pair<shared_str,xr_vector<CEnvDescriptor *,xalloc<CEnvDescriptor *> > > > >::find<shared_str>
PUBLIC	??0?$_Rb_tree_iterator@U?$pair@$$CBVshared_str@@V?$xr_vector@PAVCEnvDescriptor@@V?$xalloc@PAVCEnvDescriptor@@@@@@@stlp_std@@U?$_ConstMapTraitsT@U?$pair@$$CBVshared_str@@V?$xr_vector@PAVCEnvDescriptor@@V?$xalloc@PAVCEnvDescriptor@@@@@@@stlp_std@@@priv@2@@priv@stlp_std@@QAE@ABU?$_Rb_tree_iterator@U?$pair@$$CBVshared_str@@V?$xr_vector@PAVCEnvDescriptor@@V?$xalloc@PAVCEnvDescriptor@@@@@@@stlp_std@@U?$_MapTraitsT@U?$pair@$$CBVshared_str@@V?$xr_vector@PAVCEnvDescriptor@@V?$xalloc@PAVCEnvDescriptor@@@@@@@stlp_std@@@priv@2@@12@@Z ; stlp_std::priv::_Rb_tree_iterator<stlp_std::pair<shared_str const ,xr_vector<CEnvDescriptor *,xalloc<CEnvDescriptor *> > >,stlp_std::priv::_ConstMapTraitsT<stlp_std::pair<shared_str const ,xr_vector<CEnvDescriptor *,xalloc<CEnvDescriptor *> > > > >::_Rb_tree_iterator<stlp_std::pair<shared_str const ,xr_vector<CEnvDescriptor *,xalloc<CEnvDescriptor *> > >,stlp_std::priv::_ConstMapTraitsT<stlp_std::pair<shared_str const ,xr_vector<CEnvDescriptor *,xalloc<CEnvDescriptor *> > > > >
PUBLIC	??$__lg@H@priv@stlp_std@@YAHH@Z			; stlp_std::priv::__lg<int>
PUBLIC	??$__make_heap@PAPAVCEnvDescriptor@@P6A_NPBV1@0@ZPAV1@H@stlp_std@@YAXPAPAVCEnvDescriptor@@0P6A_NPBV1@1@Z0PAH@Z ; stlp_std::__make_heap<CEnvDescriptor * *,bool (__cdecl*)(CEnvDescriptor const *,CEnvDescriptor const *),CEnvDescriptor *,int>
PUBLIC	??$make_heap@PAPAVCEnvDescriptor@@P6A_NPBV1@0@Z@stlp_std@@YAXPAPAVCEnvDescriptor@@0P6A_NPBV1@1@Z@Z ; stlp_std::make_heap<CEnvDescriptor * *,bool (__cdecl*)(CEnvDescriptor const *,CEnvDescriptor const *)>
PUBLIC	??$__push_heap@PAPAVCEnvDescriptor@@HPAV1@P6A_NPBV1@0@Z@stlp_std@@YAXPAPAVCEnvDescriptor@@HHPAV1@P6A_NPBV1@2@Z@Z ; stlp_std::__push_heap<CEnvDescriptor * *,int,CEnvDescriptor *,bool (__cdecl*)(CEnvDescriptor const *,CEnvDescriptor const *)>
PUBLIC	??$__adjust_heap@PAPAVCEnvDescriptor@@HPAV1@P6A_NPBV1@0@Z@stlp_std@@YAXPAPAVCEnvDescriptor@@HHPAV1@P6A_NPBV1@2@Z@Z ; stlp_std::__adjust_heap<CEnvDescriptor * *,int,CEnvDescriptor *,bool (__cdecl*)(CEnvDescriptor const *,CEnvDescriptor const *)>
PUBLIC	??$__pop_heap@PAPAVCEnvDescriptor@@PAV1@P6A_NPBV1@0@ZH@stlp_std@@YAXPAPAVCEnvDescriptor@@00PAV1@P6A_NPBV1@2@ZPAH@Z ; stlp_std::__pop_heap<CEnvDescriptor * *,CEnvDescriptor *,bool (__cdecl*)(CEnvDescriptor const *,CEnvDescriptor const *),int>
PUBLIC	??$__pop_heap_aux@PAPAVCEnvDescriptor@@PAV1@P6A_NPBV1@0@Z@stlp_std@@YAXPAPAVCEnvDescriptor@@00P6A_NPBV1@1@Z@Z ; stlp_std::__pop_heap_aux<CEnvDescriptor * *,CEnvDescriptor *,bool (__cdecl*)(CEnvDescriptor const *,CEnvDescriptor const *)>
PUBLIC	??$pop_heap@PAPAVCEnvDescriptor@@P6A_NPBV1@0@Z@stlp_std@@YAXPAPAVCEnvDescriptor@@0P6A_NPBV1@1@Z@Z ; stlp_std::pop_heap<CEnvDescriptor * *,bool (__cdecl*)(CEnvDescriptor const *,CEnvDescriptor const *)>
PUBLIC	??$sort_heap@PAPAVCEnvDescriptor@@P6A_NPBV1@0@Z@stlp_std@@YAXPAPAVCEnvDescriptor@@0P6A_NPBV1@1@Z@Z ; stlp_std::sort_heap<CEnvDescriptor * *,bool (__cdecl*)(CEnvDescriptor const *,CEnvDescriptor const *)>
PUBLIC	??$__partial_sort@PAPAVCEnvDescriptor@@PAV1@P6A_NPBV1@0@Z@priv@stlp_std@@YAXPAPAVCEnvDescriptor@@000P6A_NPBV2@1@Z@Z ; stlp_std::priv::__partial_sort<CEnvDescriptor * *,CEnvDescriptor *,bool (__cdecl*)(CEnvDescriptor const *,CEnvDescriptor const *)>
PUBLIC	??$partial_sort@PAPAVCEnvDescriptor@@P6A_NPBV1@0@Z@stlp_std@@YAXPAPAVCEnvDescriptor@@00P6A_NPBV1@1@Z@Z ; stlp_std::partial_sort<CEnvDescriptor * *,bool (__cdecl*)(CEnvDescriptor const *,CEnvDescriptor const *)>
PUBLIC	??$__median@PAVCEnvDescriptor@@P6A_NPBV1@0@Z@priv@stlp_std@@YAABQAVCEnvDescriptor@@ABQAV2@00P6A_NPBV2@1@Z@Z ; stlp_std::priv::__median<CEnvDescriptor *,bool (__cdecl*)(CEnvDescriptor const *,CEnvDescriptor const *)>
PUBLIC	?_Ret@?$_IsRefType@AAPAVCEnvDescriptor@@@stlp_std@@SA?AU__true_type@2@XZ ; stlp_std::_IsRefType<CEnvDescriptor * &>::_Ret
PUBLIC	??$_IsOKToSwap@PAVCEnvDescriptor@@PAV1@U__true_type@stlp_std@@U23@@stlp_std@@YA?AU?$_OKToSwap@PAVCEnvDescriptor@@PAV1@U__true_type@stlp_std@@U23@@0@PAPAVCEnvDescriptor@@0ABU__true_type@0@1@Z ; stlp_std::_IsOKToSwap<CEnvDescriptor *,CEnvDescriptor *,stlp_std::__true_type,stlp_std::__true_type>
PUBLIC	?_Answer@?$_OKToSwap@PAVCEnvDescriptor@@PAV1@U__true_type@stlp_std@@U23@@stlp_std@@SA?AU__true_type@2@XZ ; stlp_std::_OKToSwap<CEnvDescriptor *,CEnvDescriptor *,stlp_std::__true_type,stlp_std::__true_type>::_Answer
PUBLIC	??$swap@PAVCEnvDescriptor@@@stlp_std@@YAXAAPAVCEnvDescriptor@@0@Z ; stlp_std::swap<CEnvDescriptor *>
PUBLIC	??$__iter_swap_aux@PAPAVCEnvDescriptor@@PAPAV1@@priv@stlp_std@@YAXAAPAPAVCEnvDescriptor@@0ABU__true_type@1@@Z ; stlp_std::priv::__iter_swap_aux<CEnvDescriptor * *,CEnvDescriptor * *>
PUBLIC	??$iter_swap@PAPAVCEnvDescriptor@@PAPAV1@@stlp_std@@YAXPAPAVCEnvDescriptor@@0@Z ; stlp_std::iter_swap<CEnvDescriptor * *,CEnvDescriptor * *>
PUBLIC	??$__unguarded_partition@PAPAVCEnvDescriptor@@PAV1@P6A_NPBV1@0@Z@priv@stlp_std@@YAPAPAVCEnvDescriptor@@PAPAV2@0PAV2@P6A_NPBV2@2@Z@Z ; stlp_std::priv::__unguarded_partition<CEnvDescriptor * *,CEnvDescriptor *,bool (__cdecl*)(CEnvDescriptor const *,CEnvDescriptor const *)>
PUBLIC	??$__introsort_loop@PAPAVCEnvDescriptor@@PAV1@HP6A_NPBV1@0@Z@priv@stlp_std@@YAXPAPAVCEnvDescriptor@@00HP6A_NPBV2@1@Z@Z ; stlp_std::priv::__introsort_loop<CEnvDescriptor * *,CEnvDescriptor *,int,bool (__cdecl*)(CEnvDescriptor const *,CEnvDescriptor const *)>
PUBLIC	?_Answer@?$_BothPtrType@PAPAVCEnvDescriptor@@PAPAV1@@stlp_std@@SA?AU__true_type@2@XZ ; stlp_std::_BothPtrType<CEnvDescriptor * *,CEnvDescriptor * *>::_Answer
PUBLIC	??$_UseTrivialCopy@PAVCEnvDescriptor@@PAV1@@stlp_std@@YA?AU?$_TrivialCopy@PAVCEnvDescriptor@@PAV1@@0@PAPAVCEnvDescriptor@@0@Z ; stlp_std::_UseTrivialCopy<CEnvDescriptor *,CEnvDescriptor *>
PUBLIC	?_Answer@?$_TrivialCopy@PAVCEnvDescriptor@@PAV1@@stlp_std@@SA?AU__true_type@2@XZ ; stlp_std::_TrivialCopy<CEnvDescriptor *,CEnvDescriptor *>::_Answer
PUBLIC	??$__copy_backward_ptrs@PAPAVCEnvDescriptor@@PAPAV1@@priv@stlp_std@@YAPAPAVCEnvDescriptor@@PAPAV2@00ABU__true_type@1@@Z ; stlp_std::priv::__copy_backward_ptrs<CEnvDescriptor * *,CEnvDescriptor * *>
PUBLIC	??$__copy_backward_aux@PAPAVCEnvDescriptor@@PAPAV1@@priv@stlp_std@@YAPAPAVCEnvDescriptor@@PAPAV2@00ABU__true_type@1@@Z ; stlp_std::priv::__copy_backward_aux<CEnvDescriptor * *,CEnvDescriptor * *>
PUBLIC	??$copy_backward@PAPAVCEnvDescriptor@@PAPAV1@@stlp_std@@YAPAPAVCEnvDescriptor@@PAPAV1@00@Z ; stlp_std::copy_backward<CEnvDescriptor * *,CEnvDescriptor * *>
PUBLIC	??$__linear_insert@PAPAVCEnvDescriptor@@PAV1@P6A_NPBV1@0@Z@priv@stlp_std@@YAXPAPAVCEnvDescriptor@@0PAV2@P6A_NPBV2@2@Z@Z ; stlp_std::priv::__linear_insert<CEnvDescriptor * *,CEnvDescriptor *,bool (__cdecl*)(CEnvDescriptor const *,CEnvDescriptor const *)>
PUBLIC	??$__insertion_sort@PAPAVCEnvDescriptor@@PAV1@P6A_NPBV1@0@Z@priv@stlp_std@@YAXPAPAVCEnvDescriptor@@00P6A_NPBV2@1@Z@Z ; stlp_std::priv::__insertion_sort<CEnvDescriptor * *,CEnvDescriptor *,bool (__cdecl*)(CEnvDescriptor const *,CEnvDescriptor const *)>
PUBLIC	??$__unguarded_linear_insert@PAPAVCEnvDescriptor@@PAV1@P6A_NPBV1@0@Z@priv@stlp_std@@YAXPAPAVCEnvDescriptor@@PAV2@P6A_NPBV2@2@Z@Z ; stlp_std::priv::__unguarded_linear_insert<CEnvDescriptor * *,CEnvDescriptor *,bool (__cdecl*)(CEnvDescriptor const *,CEnvDescriptor const *)>
PUBLIC	??$__unguarded_insertion_sort_aux@PAPAVCEnvDescriptor@@PAV1@P6A_NPBV1@0@Z@priv@stlp_std@@YAXPAPAVCEnvDescriptor@@00P6A_NPBV2@1@Z@Z ; stlp_std::priv::__unguarded_insertion_sort_aux<CEnvDescriptor * *,CEnvDescriptor *,bool (__cdecl*)(CEnvDescriptor const *,CEnvDescriptor const *)>
PUBLIC	??$__unguarded_insertion_sort@PAPAVCEnvDescriptor@@P6A_NPBV1@0@Z@priv@stlp_std@@YAXPAPAVCEnvDescriptor@@0P6A_NPBV2@1@Z@Z ; stlp_std::priv::__unguarded_insertion_sort<CEnvDescriptor * *,bool (__cdecl*)(CEnvDescriptor const *,CEnvDescriptor const *)>
PUBLIC	??$__final_insertion_sort@PAPAVCEnvDescriptor@@P6A_NPBV1@0@Z@priv@stlp_std@@YAXPAPAVCEnvDescriptor@@0P6A_NPBV2@1@Z@Z ; stlp_std::priv::__final_insertion_sort<CEnvDescriptor * *,bool (__cdecl*)(CEnvDescriptor const *,CEnvDescriptor const *)>
PUBLIC	??$sort@PAPAVCEnvDescriptor@@P6A_NPBV1@0@Z@stlp_std@@YAXPAPAVCEnvDescriptor@@0P6A_NPBV1@1@Z@Z ; stlp_std::sort<CEnvDescriptor * *,bool (__cdecl*)(CEnvDescriptor const *,CEnvDescriptor const *)>
PUBLIC	??$clampr@M@@YAMABM00@Z				; clampr<float>
PUBLIC	??C?$FactoryPtr@VIEnvironmentRender@@@@QBEPAVIEnvironmentRender@@XZ ; FactoryPtr<IEnvironmentRender>::operator->
PUBLIC	?_M_set@?$_Impl_vector@MV?$xalloc@M@@@priv@stlp_std@@AAEXPAM00@Z ; stlp_std::priv::_Impl_vector<float,xalloc<float> >::_M_set
PUBLIC	??$__fill_n@PAMIM@priv@stlp_std@@YAPAMPAMIABM@Z	; stlp_std::priv::__fill_n<float *,unsigned int,float>
PUBLIC	?_M_insert_overflow@?$_Impl_vector@MV?$xalloc@M@@@priv@stlp_std@@AAEXPAMABMABU__true_type@3@I_N@Z ; stlp_std::priv::_Impl_vector<float,xalloc<float> >::_M_insert_overflow
PUBLIC	?_M_is_inside@?$_Impl_vector@MV?$xalloc@M@@@priv@stlp_std@@ABE_NABM@Z ; stlp_std::priv::_Impl_vector<float,xalloc<float> >::_M_is_inside
PUBLIC	??$__ucopy_ptrs@PAMPAM@priv@stlp_std@@YAPAMPAM00ABU__true_type@1@@Z ; stlp_std::priv::__ucopy_ptrs<float *,float *>
PUBLIC	??$__copy_backward_ptrs@PAMPAM@priv@stlp_std@@YAPAMPAM00ABU__true_type@1@@Z ; stlp_std::priv::__copy_backward_ptrs<float *,float *>
PUBLIC	??$fill@PAMM@stlp_std@@YAXPAM0ABM@Z		; stlp_std::fill<float *,float>
PUBLIC	??$_Param_Construct@MM@stlp_std@@YAXPAMABM@Z	; stlp_std::_Param_Construct<float,float>
PUBLIC	??$__ufill@PAMMH@priv@stlp_std@@YAXPAM0ABMABUrandom_access_iterator_tag@1@PAH@Z ; stlp_std::priv::__ufill<float *,float,int>
PUBLIC	??$__uninitialized_fill_n@PAMIM@priv@stlp_std@@YAPAMPAMIABM@Z ; stlp_std::priv::__uninitialized_fill_n<float *,unsigned int,float>
PUBLIC	?_M_fill_insert_aux@?$_Impl_vector@MV?$xalloc@M@@@priv@stlp_std@@AAEXPAMIABMABU__false_type@3@@Z ; stlp_std::priv::_Impl_vector<float,xalloc<float> >::_M_fill_insert_aux
PUBLIC	?_M_fill_insert@?$_Impl_vector@MV?$xalloc@M@@@priv@stlp_std@@AAEXPAMIABM@Z ; stlp_std::priv::_Impl_vector<float,xalloc<float> >::_M_fill_insert
PUBLIC	?insert@?$_Impl_vector@MV?$xalloc@M@@@priv@stlp_std@@QAEXPAMIABM@Z ; stlp_std::priv::_Impl_vector<float,xalloc<float> >::insert
PUBLIC	??$__copy_ptrs@PAMPAM@priv@stlp_std@@YAPAMPAM00ABU__true_type@1@@Z ; stlp_std::priv::__copy_ptrs<float *,float *>
PUBLIC	?_M_erase@?$_Impl_vector@MV?$xalloc@M@@@priv@stlp_std@@AAEPAMPAM0ABU__false_type@3@@Z ; stlp_std::priv::_Impl_vector<float,xalloc<float> >::_M_erase
PUBLIC	?erase@?$_Impl_vector@MV?$xalloc@M@@@priv@stlp_std@@QAEPAMPAM0@Z ; stlp_std::priv::_Impl_vector<float,xalloc<float> >::erase
PUBLIC	?resize@?$_Impl_vector@MV?$xalloc@M@@@priv@stlp_std@@QAEXIABM@Z ; stlp_std::priv::_Impl_vector<float,xalloc<float> >::resize
PUBLIC	?to_storage_type_cref@?$_CastTraits@MM@priv@stlp_std@@SAABMABM@Z ; stlp_std::priv::_CastTraits<float,float>::to_storage_type_cref
PUBLIC	?resize@?$vector@MV?$xalloc@M@@@stlp_std@@QAEXIABM@Z ; stlp_std::vector<float,xalloc<float> >::resize
PUBLIC	?begin@?$vector@PAVCEnvDescriptor@@V?$xalloc@PAVCEnvDescriptor@@@@@stlp_std@@QAEPAPAVCEnvDescriptor@@XZ ; stlp_std::vector<CEnvDescriptor *,xalloc<CEnvDescriptor *> >::begin
PUBLIC	?to_value_type_ptr@?$_CastTraits@PAXPAVCEnvDescriptor@@@priv@stlp_std@@SAPAPAVCEnvDescriptor@@PAPAX@Z ; stlp_std::priv::_CastTraits<void *,CEnvDescriptor *>::to_value_type_ptr
PUBLIC	?end@?$vector@PAVCEnvDescriptor@@V?$xalloc@PAVCEnvDescriptor@@@@@stlp_std@@QAEPAPAVCEnvDescriptor@@XZ ; stlp_std::vector<CEnvDescriptor *,xalloc<CEnvDescriptor *> >::end
PUBLIC	?front@?$_Impl_vector@PAXV?$xalloc@PAX@@@priv@stlp_std@@QAEAAPAXXZ ; stlp_std::priv::_Impl_vector<void *,xalloc<void *> >::front
PUBLIC	?to_value_type_ref@?$_CastTraits@PAXPAVCEnvDescriptor@@@priv@stlp_std@@SAAAPAVCEnvDescriptor@@AAPAX@Z ; stlp_std::priv::_CastTraits<void *,CEnvDescriptor *>::to_value_type_ref
PUBLIC	?front@?$vector@PAVCEnvDescriptor@@V?$xalloc@PAVCEnvDescriptor@@@@@stlp_std@@QAEAAPAVCEnvDescriptor@@XZ ; stlp_std::vector<CEnvDescriptor *,xalloc<CEnvDescriptor *> >::front
PUBLIC	?lb_env_pred@@YA_NPBVCEnvDescriptor@@M@Z	; lb_env_pred
PUBLIC	??$__distance@PAPAVCEnvDescriptor@@@stlp_std@@YAHABQAPAVCEnvDescriptor@@0ABUrandom_access_iterator_tag@0@@Z ; stlp_std::__distance<CEnvDescriptor * *>
PUBLIC	??$distance@PAPAVCEnvDescriptor@@@stlp_std@@YAHPAPAVCEnvDescriptor@@0@Z ; stlp_std::distance<CEnvDescriptor * *>
PUBLIC	??$__advance@PAPAVCEnvDescriptor@@H@stlp_std@@YAXAAPAPAVCEnvDescriptor@@HABUrandom_access_iterator_tag@0@@Z ; stlp_std::__advance<CEnvDescriptor * *,int>
PUBLIC	??$advance@PAPAVCEnvDescriptor@@H@stlp_std@@YAXAAPAPAVCEnvDescriptor@@H@Z ; stlp_std::advance<CEnvDescriptor * *,int>
PUBLIC	??$__lower_bound@PAPAVCEnvDescriptor@@MP6A_NPBV1@M@ZP6A_N0M@ZH@priv@stlp_std@@YAPAPAVCEnvDescriptor@@PAPAV2@0ABMP6A_NPBV2@M@Z3PAH@Z ; stlp_std::priv::__lower_bound<CEnvDescriptor * *,float,bool (__cdecl*)(CEnvDescriptor const *,float),bool (__cdecl*)(CEnvDescriptor const *,float),int>
PUBLIC	??$lower_bound@PAPAVCEnvDescriptor@@MP6A_NPBV1@M@Z@stlp_std@@YAPAPAVCEnvDescriptor@@PAPAV1@0ABMP6A_NPBV1@M@Z@Z ; stlp_std::lower_bound<CEnvDescriptor * *,float,bool (__cdecl*)(CEnvDescriptor const *,float)>
PUBLIC	?zero@?$_flags@G@@QAEAAU1@XZ			; _flags<unsigned short>::zero
PUBLIC	?begin@?$vector@VCEnvModifier@@V?$xalloc@VCEnvModifier@@@@@stlp_std@@QAEPAVCEnvModifier@@XZ ; stlp_std::vector<CEnvModifier,xalloc<CEnvModifier> >::begin
PUBLIC	?to_value_type_ptr@?$_CastTraits@VCEnvModifier@@V1@@priv@stlp_std@@SAPAVCEnvModifier@@PAV4@@Z ; stlp_std::priv::_CastTraits<CEnvModifier,CEnvModifier>::to_value_type_ptr
PUBLIC	?end@?$vector@VCEnvModifier@@V?$xalloc@VCEnvModifier@@@@@stlp_std@@QAEPAVCEnvModifier@@XZ ; stlp_std::vector<CEnvModifier,xalloc<CEnvModifier> >::end
PUBLIC	?zero@?$_flags@I@@QAEAAU1@XZ			; _flags<unsigned int>::zero
PUBLIC	?CreateObject@?$FactoryPtr@VIFlareRender@@@@AAEXXZ ; FactoryPtr<IFlareRender>::CreateObject
PUBLIC	??0?$FactoryPtr@VIFlareRender@@@@QAE@XZ		; FactoryPtr<IFlareRender>::FactoryPtr<IFlareRender>
PUBLIC	??0SFlare@CLensFlareDescriptor@@QAE@XZ		; CLensFlareDescriptor::SFlare::SFlare
PUBLIC	??0SSource@CLensFlareDescriptor@@QAE@XZ		; CLensFlareDescriptor::SSource::SSource
PUBLIC	??0?$xalloc@USFlare@CLensFlareDescriptor@@@@QAE@XZ ; xalloc<CLensFlareDescriptor::SFlare>::xalloc<CLensFlareDescriptor::SFlare>
PUBLIC	??0?$xalloc@USFlare@CLensFlareDescriptor@@@@QAE@ABV0@@Z ; xalloc<CLensFlareDescriptor::SFlare>::xalloc<CLensFlareDescriptor::SFlare>
PUBLIC	??0?$_STLP_alloc_proxy@PAUSFlare@CLensFlareDescriptor@@U12@V?$xalloc@USFlare@CLensFlareDescriptor@@@@@priv@stlp_std@@QAE@ABV?$xalloc@USFlare@CLensFlareDescriptor@@@@PAUSFlare@CLensFlareDescriptor@@@Z ; stlp_std::priv::_STLP_alloc_proxy<CLensFlareDescriptor::SFlare *,CLensFlareDescriptor::SFlare,xalloc<CLensFlareDescriptor::SFlare> >::_STLP_alloc_proxy<CLensFlareDescriptor::SFlare *,CLensFlareDescriptor::SFlare,xalloc<CLensFlareDescriptor::SFlare> >
PUBLIC	??0?$_Vector_base@USFlare@CLensFlareDescriptor@@V?$xalloc@USFlare@CLensFlareDescriptor@@@@@priv@stlp_std@@QAE@ABV?$xalloc@USFlare@CLensFlareDescriptor@@@@@Z ; stlp_std::priv::_Vector_base<CLensFlareDescriptor::SFlare,xalloc<CLensFlareDescriptor::SFlare> >::_Vector_base<CLensFlareDescriptor::SFlare,xalloc<CLensFlareDescriptor::SFlare> >
PUBLIC	??0?$_Impl_vector@USFlare@CLensFlareDescriptor@@V?$xalloc@USFlare@CLensFlareDescriptor@@@@@priv@stlp_std@@QAE@ABV?$xalloc@USFlare@CLensFlareDescriptor@@@@@Z ; stlp_std::priv::_Impl_vector<CLensFlareDescriptor::SFlare,xalloc<CLensFlareDescriptor::SFlare> >::_Impl_vector<CLensFlareDescriptor::SFlare,xalloc<CLensFlareDescriptor::SFlare> >
PUBLIC	??0?$vector@USFlare@CLensFlareDescriptor@@V?$xalloc@USFlare@CLensFlareDescriptor@@@@@stlp_std@@QAE@ABV?$xalloc@USFlare@CLensFlareDescriptor@@@@@Z ; stlp_std::vector<CLensFlareDescriptor::SFlare,xalloc<CLensFlareDescriptor::SFlare> >::vector<CLensFlareDescriptor::SFlare,xalloc<CLensFlareDescriptor::SFlare> >
PUBLIC	??0?$xr_vector@USFlare@CLensFlareDescriptor@@V?$xalloc@USFlare@CLensFlareDescriptor@@@@@@QAE@XZ ; xr_vector<CLensFlareDescriptor::SFlare,xalloc<CLensFlareDescriptor::SFlare> >::xr_vector<CLensFlareDescriptor::SFlare,xalloc<CLensFlareDescriptor::SFlare> >
PUBLIC	_acosf
PUBLIC	?fis_zero@@YAHMM@Z				; fis_zero
PUBLIC	??$deg2rad@M@implement@@YAMM@Z			; implement::deg2rad<float>
PUBLIC	?deg2rad@@YAMM@Z				; deg2rad
PUBLIC	?setHP@?$_vector3@M@@QAEAAU1@MM@Z		; _vector3<float>::setHP
PUBLIC	?_valid@@YAHM@Z					; _valid
PUBLIC	??$_valid@M@@YAHABU?$_vector3@M@@@Z		; _valid<float>
PUBLIC	??1SSource@CLensFlareDescriptor@@QAE@XZ		; CLensFlareDescriptor::SSource::~SSource
PUBLIC	??$xr_free@USFlare@CLensFlareDescriptor@@@@YAXAAPAUSFlare@CLensFlareDescriptor@@@Z ; xr_free<CLensFlareDescriptor::SFlare>
PUBLIC	?deallocate@?$xalloc@USFlare@CLensFlareDescriptor@@@@QBEXPAUSFlare@CLensFlareDescriptor@@I@Z ; xalloc<CLensFlareDescriptor::SFlare>::deallocate
PUBLIC	??1?$_Vector_base@USFlare@CLensFlareDescriptor@@V?$xalloc@USFlare@CLensFlareDescriptor@@@@@priv@stlp_std@@QAE@XZ ; stlp_std::priv::_Vector_base<CLensFlareDescriptor::SFlare,xalloc<CLensFlareDescriptor::SFlare> >::~_Vector_base<CLensFlareDescriptor::SFlare,xalloc<CLensFlareDescriptor::SFlare> >
PUBLIC	?end@?$_Impl_vector@USFlare@CLensFlareDescriptor@@V?$xalloc@USFlare@CLensFlareDescriptor@@@@@priv@stlp_std@@QAEPAUSFlare@CLensFlareDescriptor@@XZ ; stlp_std::priv::_Impl_vector<CLensFlareDescriptor::SFlare,xalloc<CLensFlareDescriptor::SFlare> >::end
PUBLIC	?rbegin@?$_Impl_vector@USFlare@CLensFlareDescriptor@@V?$xalloc@USFlare@CLensFlareDescriptor@@@@@priv@stlp_std@@QAE?AV?$reverse_iterator@PAUSFlare@CLensFlareDescriptor@@@3@XZ ; stlp_std::priv::_Impl_vector<CLensFlareDescriptor::SFlare,xalloc<CLensFlareDescriptor::SFlare> >::rbegin
PUBLIC	?begin@?$_Impl_vector@USFlare@CLensFlareDescriptor@@V?$xalloc@USFlare@CLensFlareDescriptor@@@@@priv@stlp_std@@QAEPAUSFlare@CLensFlareDescriptor@@XZ ; stlp_std::priv::_Impl_vector<CLensFlareDescriptor::SFlare,xalloc<CLensFlareDescriptor::SFlare> >::begin
PUBLIC	??0?$reverse_iterator@PAUSFlare@CLensFlareDescriptor@@@stlp_std@@QAE@PAUSFlare@CLensFlareDescriptor@@@Z ; stlp_std::reverse_iterator<CLensFlareDescriptor::SFlare *>::reverse_iterator<CLensFlareDescriptor::SFlare *>
PUBLIC	?rend@?$_Impl_vector@USFlare@CLensFlareDescriptor@@V?$xalloc@USFlare@CLensFlareDescriptor@@@@@priv@stlp_std@@QAE?AV?$reverse_iterator@PAUSFlare@CLensFlareDescriptor@@@3@XZ ; stlp_std::priv::_Impl_vector<CLensFlareDescriptor::SFlare,xalloc<CLensFlareDescriptor::SFlare> >::rend
PUBLIC	??0?$reverse_iterator@PAUSFlare@CLensFlareDescriptor@@@stlp_std@@QAE@ABV01@@Z ; stlp_std::reverse_iterator<CLensFlareDescriptor::SFlare *>::reverse_iterator<CLensFlareDescriptor::SFlare *>
PUBLIC	??D?$reverse_iterator@PAUSFlare@CLensFlareDescriptor@@@stlp_std@@QBEAAUSFlare@CLensFlareDescriptor@@XZ ; stlp_std::reverse_iterator<CLensFlareDescriptor::SFlare *>::operator*
PUBLIC	??E?$reverse_iterator@PAUSFlare@CLensFlareDescriptor@@@stlp_std@@QAEAAV01@XZ ; stlp_std::reverse_iterator<CLensFlareDescriptor::SFlare *>::operator++
PUBLIC	?base@?$reverse_iterator@PAUSFlare@CLensFlareDescriptor@@@stlp_std@@QBEPAUSFlare@CLensFlareDescriptor@@XZ ; stlp_std::reverse_iterator<CLensFlareDescriptor::SFlare *>::base
PUBLIC	??$?8PAUSFlare@CLensFlareDescriptor@@@stlp_std@@YA_NABV?$reverse_iterator@PAUSFlare@CLensFlareDescriptor@@@0@0@Z ; stlp_std::operator==<CLensFlareDescriptor::SFlare *>
PUBLIC	??$?9PAUSFlare@CLensFlareDescriptor@@@stlp_std@@YA_NABV?$reverse_iterator@PAUSFlare@CLensFlareDescriptor@@@0@0@Z ; stlp_std::operator!=<CLensFlareDescriptor::SFlare *>
PUBLIC	?DestroyObject@?$FactoryPtr@VIFlareRender@@@@AAEXXZ ; FactoryPtr<IFlareRender>::DestroyObject
PUBLIC	??1?$FactoryPtr@VIFlareRender@@@@QAE@XZ		; FactoryPtr<IFlareRender>::~FactoryPtr<IFlareRender>
PUBLIC	??1SFlare@CLensFlareDescriptor@@QAE@XZ		; CLensFlareDescriptor::SFlare::~SFlare
PUBLIC	??_GSFlare@CLensFlareDescriptor@@QAEPAXI@Z	; CLensFlareDescriptor::SFlare::`scalar deleting destructor'
PUBLIC	??$__destroy_aux@USFlare@CLensFlareDescriptor@@@stlp_std@@YAXPAUSFlare@CLensFlareDescriptor@@ABU__false_type@0@@Z ; stlp_std::__destroy_aux<CLensFlareDescriptor::SFlare>
PUBLIC	??$__destroy_range_aux@V?$reverse_iterator@PAUSFlare@CLensFlareDescriptor@@@stlp_std@@USFlare@CLensFlareDescriptor@@@stlp_std@@YAXV?$reverse_iterator@PAUSFlare@CLensFlareDescriptor@@@0@0PAUSFlare@CLensFlareDescriptor@@ABU__false_type@0@@Z ; stlp_std::__destroy_range_aux<stlp_std::reverse_iterator<CLensFlareDescriptor::SFlare *>,CLensFlareDescriptor::SFlare>
PUBLIC	??$__destroy_range@V?$reverse_iterator@PAUSFlare@CLensFlareDescriptor@@@stlp_std@@USFlare@CLensFlareDescriptor@@@stlp_std@@YAXV?$reverse_iterator@PAUSFlare@CLensFlareDescriptor@@@0@0PAUSFlare@CLensFlareDescriptor@@@Z ; stlp_std::__destroy_range<stlp_std::reverse_iterator<CLensFlareDescriptor::SFlare *>,CLensFlareDescriptor::SFlare>
PUBLIC	??$_Destroy_Range@V?$reverse_iterator@PAUSFlare@CLensFlareDescriptor@@@stlp_std@@@stlp_std@@YAXV?$reverse_iterator@PAUSFlare@CLensFlareDescriptor@@@0@0@Z ; stlp_std::_Destroy_Range<stlp_std::reverse_iterator<CLensFlareDescriptor::SFlare *> >
PUBLIC	??1?$_Impl_vector@USFlare@CLensFlareDescriptor@@V?$xalloc@USFlare@CLensFlareDescriptor@@@@@priv@stlp_std@@QAE@XZ ; stlp_std::priv::_Impl_vector<CLensFlareDescriptor::SFlare,xalloc<CLensFlareDescriptor::SFlare> >::~_Impl_vector<CLensFlareDescriptor::SFlare,xalloc<CLensFlareDescriptor::SFlare> >
PUBLIC	??1?$vector@USFlare@CLensFlareDescriptor@@V?$xalloc@USFlare@CLensFlareDescriptor@@@@@stlp_std@@QAE@XZ ; stlp_std::vector<CLensFlareDescriptor::SFlare,xalloc<CLensFlareDescriptor::SFlare> >::~vector<CLensFlareDescriptor::SFlare,xalloc<CLensFlareDescriptor::SFlare> >
PUBLIC	??1?$xr_vector@USFlare@CLensFlareDescriptor@@V?$xalloc@USFlare@CLensFlareDescriptor@@@@@@QAE@XZ ; xr_vector<CLensFlareDescriptor::SFlare,xalloc<CLensFlareDescriptor::SFlare> >::~xr_vector<CLensFlareDescriptor::SFlare,xalloc<CLensFlareDescriptor::SFlare> >
PUBLIC	?DestroyObject@?$FactoryPtr@VIRainRender@@@@AAEXXZ ; FactoryPtr<IRainRender>::DestroyObject
PUBLIC	??1?$FactoryPtr@VIRainRender@@@@QAE@XZ		; FactoryPtr<IRainRender>::~FactoryPtr<IRainRender>
PUBLIC	?CreateObject@?$FactoryPtr@VIRainRender@@@@AAEXXZ ; FactoryPtr<IRainRender>::CreateObject
PUBLIC	??0?$FactoryPtr@VIRainRender@@@@QAE@ABV0@@Z	; FactoryPtr<IRainRender>::FactoryPtr<IRainRender>
PUBLIC	??1?$xr_vector@UItem@CEffect_Rain@@V?$xalloc@UItem@CEffect_Rain@@@@@@QAE@XZ ; xr_vector<CEffect_Rain::Item,xalloc<CEffect_Rain::Item> >::~xr_vector<CEffect_Rain::Item,xalloc<CEffect_Rain::Item> >
PUBLIC	??0?$_STLP_alloc_proxy@PAUItem@CEffect_Rain@@U12@V?$xalloc@UItem@CEffect_Rain@@@@@priv@stlp_std@@QAE@ABV?$xalloc@UItem@CEffect_Rain@@@@PAUItem@CEffect_Rain@@@Z ; stlp_std::priv::_STLP_alloc_proxy<CEffect_Rain::Item *,CEffect_Rain::Item,xalloc<CEffect_Rain::Item> >::_STLP_alloc_proxy<CEffect_Rain::Item *,CEffect_Rain::Item,xalloc<CEffect_Rain::Item> >
PUBLIC	??$xr_alloc@UItem@CEffect_Rain@@@@YAPAUItem@CEffect_Rain@@I@Z ; xr_alloc<CEffect_Rain::Item>
PUBLIC	?allocate@?$xalloc@UItem@CEffect_Rain@@@@QBEPAUItem@CEffect_Rain@@IPBX@Z ; xalloc<CEffect_Rain::Item>::allocate
PUBLIC	?allocate@?$_STLP_alloc_proxy@PAUItem@CEffect_Rain@@U12@V?$xalloc@UItem@CEffect_Rain@@@@@priv@stlp_std@@QAEPAUItem@CEffect_Rain@@I@Z ; stlp_std::priv::_STLP_alloc_proxy<CEffect_Rain::Item *,CEffect_Rain::Item,xalloc<CEffect_Rain::Item> >::allocate
PUBLIC	?allocate@?$_STLP_alloc_proxy@PAUItem@CEffect_Rain@@U12@V?$xalloc@UItem@CEffect_Rain@@@@@priv@stlp_std@@AAEPAUItem@CEffect_Rain@@IAAIABU__false_type@3@@Z ; stlp_std::priv::_STLP_alloc_proxy<CEffect_Rain::Item *,CEffect_Rain::Item,xalloc<CEffect_Rain::Item> >::allocate
PUBLIC	?allocate@?$_STLP_alloc_proxy@PAUItem@CEffect_Rain@@U12@V?$xalloc@UItem@CEffect_Rain@@@@@priv@stlp_std@@QAEPAUItem@CEffect_Rain@@IAAI@Z ; stlp_std::priv::_STLP_alloc_proxy<CEffect_Rain::Item *,CEffect_Rain::Item,xalloc<CEffect_Rain::Item> >::allocate
PUBLIC	??0?$_Vector_base@UItem@CEffect_Rain@@V?$xalloc@UItem@CEffect_Rain@@@@@priv@stlp_std@@QAE@IABV?$xalloc@UItem@CEffect_Rain@@@@@Z ; stlp_std::priv::_Vector_base<CEffect_Rain::Item,xalloc<CEffect_Rain::Item> >::_Vector_base<CEffect_Rain::Item,xalloc<CEffect_Rain::Item> >
PUBLIC	??0?$xalloc@UItem@CEffect_Rain@@@@QAE@ABV0@@Z	; xalloc<CEffect_Rain::Item>::xalloc<CEffect_Rain::Item>
PUBLIC	?get_allocator@?$_Impl_vector@UItem@CEffect_Rain@@V?$xalloc@UItem@CEffect_Rain@@@@@priv@stlp_std@@QBE?AV?$xalloc@UItem@CEffect_Rain@@@@XZ ; stlp_std::priv::_Impl_vector<CEffect_Rain::Item,xalloc<CEffect_Rain::Item> >::get_allocator
PUBLIC	?begin@?$_Impl_vector@UItem@CEffect_Rain@@V?$xalloc@UItem@CEffect_Rain@@@@@priv@stlp_std@@QBEPBUItem@CEffect_Rain@@XZ ; stlp_std::priv::_Impl_vector<CEffect_Rain::Item,xalloc<CEffect_Rain::Item> >::begin
PUBLIC	?end@?$_Impl_vector@UItem@CEffect_Rain@@V?$xalloc@UItem@CEffect_Rain@@@@@priv@stlp_std@@QBEPBUItem@CEffect_Rain@@XZ ; stlp_std::priv::_Impl_vector<CEffect_Rain::Item,xalloc<CEffect_Rain::Item> >::end
PUBLIC	?size@?$_Impl_vector@UItem@CEffect_Rain@@V?$xalloc@UItem@CEffect_Rain@@@@@priv@stlp_std@@QBEIXZ ; stlp_std::priv::_Impl_vector<CEffect_Rain::Item,xalloc<CEffect_Rain::Item> >::size
PUBLIC	??$__ucopy_ptrs@PBUItem@CEffect_Rain@@PAU12@@priv@stlp_std@@YAPAUItem@CEffect_Rain@@PBU23@0PAU23@ABU__true_type@1@@Z ; stlp_std::priv::__ucopy_ptrs<CEffect_Rain::Item const *,CEffect_Rain::Item *>
PUBLIC	??0?$_Impl_vector@UItem@CEffect_Rain@@V?$xalloc@UItem@CEffect_Rain@@@@@priv@stlp_std@@QAE@ABV012@@Z ; stlp_std::priv::_Impl_vector<CEffect_Rain::Item,xalloc<CEffect_Rain::Item> >::_Impl_vector<CEffect_Rain::Item,xalloc<CEffect_Rain::Item> >
PUBLIC	??0?$vector@UItem@CEffect_Rain@@V?$xalloc@UItem@CEffect_Rain@@@@@stlp_std@@QAE@ABV01@@Z ; stlp_std::vector<CEffect_Rain::Item,xalloc<CEffect_Rain::Item> >::vector<CEffect_Rain::Item,xalloc<CEffect_Rain::Item> >
PUBLIC	??$xr_free@UItem@CEffect_Rain@@@@YAXAAPAUItem@CEffect_Rain@@@Z ; xr_free<CEffect_Rain::Item>
PUBLIC	?deallocate@?$xalloc@UItem@CEffect_Rain@@@@QBEXPAUItem@CEffect_Rain@@I@Z ; xalloc<CEffect_Rain::Item>::deallocate
PUBLIC	??1?$_Vector_base@UItem@CEffect_Rain@@V?$xalloc@UItem@CEffect_Rain@@@@@priv@stlp_std@@QAE@XZ ; stlp_std::priv::_Vector_base<CEffect_Rain::Item,xalloc<CEffect_Rain::Item> >::~_Vector_base<CEffect_Rain::Item,xalloc<CEffect_Rain::Item> >
PUBLIC	?end@?$_Impl_vector@UItem@CEffect_Rain@@V?$xalloc@UItem@CEffect_Rain@@@@@priv@stlp_std@@QAEPAUItem@CEffect_Rain@@XZ ; stlp_std::priv::_Impl_vector<CEffect_Rain::Item,xalloc<CEffect_Rain::Item> >::end
PUBLIC	?rbegin@?$_Impl_vector@UItem@CEffect_Rain@@V?$xalloc@UItem@CEffect_Rain@@@@@priv@stlp_std@@QAE?AV?$reverse_iterator@PAUItem@CEffect_Rain@@@3@XZ ; stlp_std::priv::_Impl_vector<CEffect_Rain::Item,xalloc<CEffect_Rain::Item> >::rbegin
PUBLIC	?begin@?$_Impl_vector@UItem@CEffect_Rain@@V?$xalloc@UItem@CEffect_Rain@@@@@priv@stlp_std@@QAEPAUItem@CEffect_Rain@@XZ ; stlp_std::priv::_Impl_vector<CEffect_Rain::Item,xalloc<CEffect_Rain::Item> >::begin
PUBLIC	??0?$reverse_iterator@PAUItem@CEffect_Rain@@@stlp_std@@QAE@PAUItem@CEffect_Rain@@@Z ; stlp_std::reverse_iterator<CEffect_Rain::Item *>::reverse_iterator<CEffect_Rain::Item *>
PUBLIC	?rend@?$_Impl_vector@UItem@CEffect_Rain@@V?$xalloc@UItem@CEffect_Rain@@@@@priv@stlp_std@@QAE?AV?$reverse_iterator@PAUItem@CEffect_Rain@@@3@XZ ; stlp_std::priv::_Impl_vector<CEffect_Rain::Item,xalloc<CEffect_Rain::Item> >::rend
PUBLIC	??0?$reverse_iterator@PAUItem@CEffect_Rain@@@stlp_std@@QAE@ABV01@@Z ; stlp_std::reverse_iterator<CEffect_Rain::Item *>::reverse_iterator<CEffect_Rain::Item *>
PUBLIC	??$__destroy_range_aux@V?$reverse_iterator@PAUItem@CEffect_Rain@@@stlp_std@@UItem@CEffect_Rain@@@stlp_std@@YAXV?$reverse_iterator@PAUItem@CEffect_Rain@@@0@0PAUItem@CEffect_Rain@@ABU__true_type@0@@Z ; stlp_std::__destroy_range_aux<stlp_std::reverse_iterator<CEffect_Rain::Item *>,CEffect_Rain::Item>
PUBLIC	??$__destroy_range@V?$reverse_iterator@PAUItem@CEffect_Rain@@@stlp_std@@UItem@CEffect_Rain@@@stlp_std@@YAXV?$reverse_iterator@PAUItem@CEffect_Rain@@@0@0PAUItem@CEffect_Rain@@@Z ; stlp_std::__destroy_range<stlp_std::reverse_iterator<CEffect_Rain::Item *>,CEffect_Rain::Item>
PUBLIC	??$_Destroy_Range@V?$reverse_iterator@PAUItem@CEffect_Rain@@@stlp_std@@@stlp_std@@YAXV?$reverse_iterator@PAUItem@CEffect_Rain@@@0@0@Z ; stlp_std::_Destroy_Range<stlp_std::reverse_iterator<CEffect_Rain::Item *> >
PUBLIC	??1?$_Impl_vector@UItem@CEffect_Rain@@V?$xalloc@UItem@CEffect_Rain@@@@@priv@stlp_std@@QAE@XZ ; stlp_std::priv::_Impl_vector<CEffect_Rain::Item,xalloc<CEffect_Rain::Item> >::~_Impl_vector<CEffect_Rain::Item,xalloc<CEffect_Rain::Item> >
PUBLIC	??1?$vector@UItem@CEffect_Rain@@V?$xalloc@UItem@CEffect_Rain@@@@@stlp_std@@QAE@XZ ; stlp_std::vector<CEffect_Rain::Item,xalloc<CEffect_Rain::Item> >::~vector<CEffect_Rain::Item,xalloc<CEffect_Rain::Item> >
PUBLIC	??0?$xr_vector@UItem@CEffect_Rain@@V?$xalloc@UItem@CEffect_Rain@@@@@@QAE@ABV0@@Z ; xr_vector<CEffect_Rain::Item,xalloc<CEffect_Rain::Item> >::xr_vector<CEffect_Rain::Item,xalloc<CEffect_Rain::Item> >
PUBLIC	??1?$xr_vector@UParticle@CEffect_Rain@@V?$xalloc@UParticle@CEffect_Rain@@@@@@QAE@XZ ; xr_vector<CEffect_Rain::Particle,xalloc<CEffect_Rain::Particle> >::~xr_vector<CEffect_Rain::Particle,xalloc<CEffect_Rain::Particle> >
PUBLIC	??0?$_STLP_alloc_proxy@PAUParticle@CEffect_Rain@@U12@V?$xalloc@UParticle@CEffect_Rain@@@@@priv@stlp_std@@QAE@ABV?$xalloc@UParticle@CEffect_Rain@@@@PAUParticle@CEffect_Rain@@@Z ; stlp_std::priv::_STLP_alloc_proxy<CEffect_Rain::Particle *,CEffect_Rain::Particle,xalloc<CEffect_Rain::Particle> >::_STLP_alloc_proxy<CEffect_Rain::Particle *,CEffect_Rain::Particle,xalloc<CEffect_Rain::Particle> >
PUBLIC	??$xr_alloc@UParticle@CEffect_Rain@@@@YAPAUParticle@CEffect_Rain@@I@Z ; xr_alloc<CEffect_Rain::Particle>
PUBLIC	?allocate@?$xalloc@UParticle@CEffect_Rain@@@@QBEPAUParticle@CEffect_Rain@@IPBX@Z ; xalloc<CEffect_Rain::Particle>::allocate
PUBLIC	?allocate@?$_STLP_alloc_proxy@PAUParticle@CEffect_Rain@@U12@V?$xalloc@UParticle@CEffect_Rain@@@@@priv@stlp_std@@QAEPAUParticle@CEffect_Rain@@I@Z ; stlp_std::priv::_STLP_alloc_proxy<CEffect_Rain::Particle *,CEffect_Rain::Particle,xalloc<CEffect_Rain::Particle> >::allocate
PUBLIC	?allocate@?$_STLP_alloc_proxy@PAUParticle@CEffect_Rain@@U12@V?$xalloc@UParticle@CEffect_Rain@@@@@priv@stlp_std@@AAEPAUParticle@CEffect_Rain@@IAAIABU__false_type@3@@Z ; stlp_std::priv::_STLP_alloc_proxy<CEffect_Rain::Particle *,CEffect_Rain::Particle,xalloc<CEffect_Rain::Particle> >::allocate
PUBLIC	?allocate@?$_STLP_alloc_proxy@PAUParticle@CEffect_Rain@@U12@V?$xalloc@UParticle@CEffect_Rain@@@@@priv@stlp_std@@QAEPAUParticle@CEffect_Rain@@IAAI@Z ; stlp_std::priv::_STLP_alloc_proxy<CEffect_Rain::Particle *,CEffect_Rain::Particle,xalloc<CEffect_Rain::Particle> >::allocate
PUBLIC	??0?$_Vector_base@UParticle@CEffect_Rain@@V?$xalloc@UParticle@CEffect_Rain@@@@@priv@stlp_std@@QAE@IABV?$xalloc@UParticle@CEffect_Rain@@@@@Z ; stlp_std::priv::_Vector_base<CEffect_Rain::Particle,xalloc<CEffect_Rain::Particle> >::_Vector_base<CEffect_Rain::Particle,xalloc<CEffect_Rain::Particle> >
PUBLIC	??0?$xalloc@UParticle@CEffect_Rain@@@@QAE@ABV0@@Z ; xalloc<CEffect_Rain::Particle>::xalloc<CEffect_Rain::Particle>
PUBLIC	?get_allocator@?$_Impl_vector@UParticle@CEffect_Rain@@V?$xalloc@UParticle@CEffect_Rain@@@@@priv@stlp_std@@QBE?AV?$xalloc@UParticle@CEffect_Rain@@@@XZ ; stlp_std::priv::_Impl_vector<CEffect_Rain::Particle,xalloc<CEffect_Rain::Particle> >::get_allocator
PUBLIC	?begin@?$_Impl_vector@UParticle@CEffect_Rain@@V?$xalloc@UParticle@CEffect_Rain@@@@@priv@stlp_std@@QBEPBUParticle@CEffect_Rain@@XZ ; stlp_std::priv::_Impl_vector<CEffect_Rain::Particle,xalloc<CEffect_Rain::Particle> >::begin
PUBLIC	?end@?$_Impl_vector@UParticle@CEffect_Rain@@V?$xalloc@UParticle@CEffect_Rain@@@@@priv@stlp_std@@QBEPBUParticle@CEffect_Rain@@XZ ; stlp_std::priv::_Impl_vector<CEffect_Rain::Particle,xalloc<CEffect_Rain::Particle> >::end
PUBLIC	?size@?$_Impl_vector@UParticle@CEffect_Rain@@V?$xalloc@UParticle@CEffect_Rain@@@@@priv@stlp_std@@QBEIXZ ; stlp_std::priv::_Impl_vector<CEffect_Rain::Particle,xalloc<CEffect_Rain::Particle> >::size
PUBLIC	??$__ucopy_ptrs@PBUParticle@CEffect_Rain@@PAU12@@priv@stlp_std@@YAPAUParticle@CEffect_Rain@@PBU23@0PAU23@ABU__true_type@1@@Z ; stlp_std::priv::__ucopy_ptrs<CEffect_Rain::Particle const *,CEffect_Rain::Particle *>
PUBLIC	??0?$_Impl_vector@UParticle@CEffect_Rain@@V?$xalloc@UParticle@CEffect_Rain@@@@@priv@stlp_std@@QAE@ABV012@@Z ; stlp_std::priv::_Impl_vector<CEffect_Rain::Particle,xalloc<CEffect_Rain::Particle> >::_Impl_vector<CEffect_Rain::Particle,xalloc<CEffect_Rain::Particle> >
PUBLIC	??0?$vector@UParticle@CEffect_Rain@@V?$xalloc@UParticle@CEffect_Rain@@@@@stlp_std@@QAE@ABV01@@Z ; stlp_std::vector<CEffect_Rain::Particle,xalloc<CEffect_Rain::Particle> >::vector<CEffect_Rain::Particle,xalloc<CEffect_Rain::Particle> >
PUBLIC	??$xr_free@UParticle@CEffect_Rain@@@@YAXAAPAUParticle@CEffect_Rain@@@Z ; xr_free<CEffect_Rain::Particle>
PUBLIC	?deallocate@?$xalloc@UParticle@CEffect_Rain@@@@QBEXPAUParticle@CEffect_Rain@@I@Z ; xalloc<CEffect_Rain::Particle>::deallocate
PUBLIC	??1?$_Vector_base@UParticle@CEffect_Rain@@V?$xalloc@UParticle@CEffect_Rain@@@@@priv@stlp_std@@QAE@XZ ; stlp_std::priv::_Vector_base<CEffect_Rain::Particle,xalloc<CEffect_Rain::Particle> >::~_Vector_base<CEffect_Rain::Particle,xalloc<CEffect_Rain::Particle> >
PUBLIC	?end@?$_Impl_vector@UParticle@CEffect_Rain@@V?$xalloc@UParticle@CEffect_Rain@@@@@priv@stlp_std@@QAEPAUParticle@CEffect_Rain@@XZ ; stlp_std::priv::_Impl_vector<CEffect_Rain::Particle,xalloc<CEffect_Rain::Particle> >::end
PUBLIC	?rbegin@?$_Impl_vector@UParticle@CEffect_Rain@@V?$xalloc@UParticle@CEffect_Rain@@@@@priv@stlp_std@@QAE?AV?$reverse_iterator@PAUParticle@CEffect_Rain@@@3@XZ ; stlp_std::priv::_Impl_vector<CEffect_Rain::Particle,xalloc<CEffect_Rain::Particle> >::rbegin
PUBLIC	?begin@?$_Impl_vector@UParticle@CEffect_Rain@@V?$xalloc@UParticle@CEffect_Rain@@@@@priv@stlp_std@@QAEPAUParticle@CEffect_Rain@@XZ ; stlp_std::priv::_Impl_vector<CEffect_Rain::Particle,xalloc<CEffect_Rain::Particle> >::begin
PUBLIC	??0?$reverse_iterator@PAUParticle@CEffect_Rain@@@stlp_std@@QAE@PAUParticle@CEffect_Rain@@@Z ; stlp_std::reverse_iterator<CEffect_Rain::Particle *>::reverse_iterator<CEffect_Rain::Particle *>
PUBLIC	?rend@?$_Impl_vector@UParticle@CEffect_Rain@@V?$xalloc@UParticle@CEffect_Rain@@@@@priv@stlp_std@@QAE?AV?$reverse_iterator@PAUParticle@CEffect_Rain@@@3@XZ ; stlp_std::priv::_Impl_vector<CEffect_Rain::Particle,xalloc<CEffect_Rain::Particle> >::rend
PUBLIC	??0?$reverse_iterator@PAUParticle@CEffect_Rain@@@stlp_std@@QAE@ABV01@@Z ; stlp_std::reverse_iterator<CEffect_Rain::Particle *>::reverse_iterator<CEffect_Rain::Particle *>
PUBLIC	??$__destroy_range_aux@V?$reverse_iterator@PAUParticle@CEffect_Rain@@@stlp_std@@UParticle@CEffect_Rain@@@stlp_std@@YAXV?$reverse_iterator@PAUParticle@CEffect_Rain@@@0@0PAUParticle@CEffect_Rain@@ABU__true_type@0@@Z ; stlp_std::__destroy_range_aux<stlp_std::reverse_iterator<CEffect_Rain::Particle *>,CEffect_Rain::Particle>
PUBLIC	??$__destroy_range@V?$reverse_iterator@PAUParticle@CEffect_Rain@@@stlp_std@@UParticle@CEffect_Rain@@@stlp_std@@YAXV?$reverse_iterator@PAUParticle@CEffect_Rain@@@0@0PAUParticle@CEffect_Rain@@@Z ; stlp_std::__destroy_range<stlp_std::reverse_iterator<CEffect_Rain::Particle *>,CEffect_Rain::Particle>
PUBLIC	??$_Destroy_Range@V?$reverse_iterator@PAUParticle@CEffect_Rain@@@stlp_std@@@stlp_std@@YAXV?$reverse_iterator@PAUParticle@CEffect_Rain@@@0@0@Z ; stlp_std::_Destroy_Range<stlp_std::reverse_iterator<CEffect_Rain::Particle *> >
PUBLIC	??1?$_Impl_vector@UParticle@CEffect_Rain@@V?$xalloc@UParticle@CEffect_Rain@@@@@priv@stlp_std@@QAE@XZ ; stlp_std::priv::_Impl_vector<CEffect_Rain::Particle,xalloc<CEffect_Rain::Particle> >::~_Impl_vector<CEffect_Rain::Particle,xalloc<CEffect_Rain::Particle> >
PUBLIC	??1?$vector@UParticle@CEffect_Rain@@V?$xalloc@UParticle@CEffect_Rain@@@@@stlp_std@@QAE@XZ ; stlp_std::vector<CEffect_Rain::Particle,xalloc<CEffect_Rain::Particle> >::~vector<CEffect_Rain::Particle,xalloc<CEffect_Rain::Particle> >
PUBLIC	??0?$xr_vector@UParticle@CEffect_Rain@@V?$xalloc@UParticle@CEffect_Rain@@@@@@QAE@ABV0@@Z ; xr_vector<CEffect_Rain::Particle,xalloc<CEffect_Rain::Particle> >::xr_vector<CEffect_Rain::Particle,xalloc<CEffect_Rain::Particle> >
PUBLIC	??$xr_new@VCEnvDescriptorMixer@@$$BY08$$CBD@@YAPAVCEnvDescriptorMixer@@AAY08$$CBD@Z ; xr_new<CEnvDescriptorMixer,char const [9]>
PUBLIC	?psVisDistance@@3MA				; psVisDistance
PUBLIC	??_C@_0BJ@CIIOKKHI@environment?2ambients?4ltx?$AA@ ; `string'
PUBLIC	??_C@_0BP@JAFAGAPJ@environment?2sound_channels?4ltx?$AA@ ; `string'
PUBLIC	??_C@_0BI@EKOOCMNE@environment?2effects?4ltx?$AA@ ; `string'
PUBLIC	??_C@_0BF@PAEMFBAE@environment?2suns?4ltx?$AA@	; `string'
PUBLIC	??_C@_0CI@BHHNIBLF@environment?2thunderbolt_collecti@ ; `string'
PUBLIC	??_C@_0BN@FNDFIPLN@environment?2thunderbolts?4ltx?$AA@ ; `string'
PUBLIC	??_C@_0BM@MCANILEM@environment?2environment?4ltx?$AA@ ; `string'
PUBLIC	??_C@_08OFJBILFH@altitude?$AA@			; `string'
PUBLIC	??_C@_0M@PINLHHEI@environment?$AA@		; `string'
PUBLIC	??_C@_0BA@OADEFBBF@delta_longitude?$AA@		; `string'
PUBLIC	??_C@_0BA@NMGKLOI@min_dist_factor?$AA@		; `string'
PUBLIC	??_C@_04HJDPHINC@tilt?$AA@			; `string'
PUBLIC	??_C@_0BD@LEHNJEAM@second_propability?$AA@	; `string'
PUBLIC	??_C@_09DMPOHDE@sky_color?$AA@			; `string'
PUBLIC	??_C@_09BBLDEGOF@sun_color?$AA@			; `string'
PUBLIC	??_C@_09PGJFNPIN@fog_color?$AA@			; `string'
PUBLIC	??_C@_0BL@JLFBJDAD@?$CB?5Invalid?5weather?5name?3?5?$CFs?$AA@ ; `string'
PUBLIC	??_C@_0BJ@NEEPJKH@CEnvironment?3?3SetWeather?$AA@ ; `string'
PUBLIC	??_C@_0DE@KEBEOAOH@D?3?2CLEARSKY?2sources?2engine?2xrEng@ ; `string'
PUBLIC	??_C@_0BG@HGMLELDB@Invalid?5weather?5name?4?$AA@ ; `string'
PUBLIC	??_C@_0BI@NMGDFLEF@it?$CB?$DNWeatherCycles?4end?$CI?$CJ?$AA@ ; `string'
PUBLIC	??_C@_0BF@POCGPELE@?$CB?5Empty?5weather?5name?$AA@ ; `string'
PUBLIC	??_C@_0BL@CDFCELPM@CEnvironment?3?3SetWeatherFX?$AA@ ; `string'
PUBLIC	??_C@_0BN@NJOLPOOD@Invalid?5weather?5effect?5name?4?$AA@ ; `string'
PUBLIC	??_C@_0BF@KLDNMBFN@it?$CB?$DNWeatherFXs?4end?$CI?$CJ?$AA@ ; `string'
PUBLIC	??_C@_0BM@GOLKAJHL@?$CB?5Empty?5weather?5effect?5name?$AA@ ; `string'
PUBLIC	??_C@_0CI@PFKCKBCO@CEnvironment?3?3calculate_dynamic_@ ; `string'
PUBLIC	??_C@_0L@DCAKJJFH@_valid?$CIAZ?$CJ?$AA@		; `string'
PUBLIC	??_C@_0M@OFOFEIJG@_valid?$CISEA?$CJ?$AA@	; `string'
PUBLIC	??_C@_0BM@HLLHPBBI@_valid?$CICurrentEnv?9?$DOsun_dir?$CJ?$AA@ ; `string'
PUBLIC	??_C@_08HPPJPGGP@00?300?300?$AA@		; `string'
PUBLIC	??_7CLensFlare@@6B@				; CLensFlare::`vftable'
EXTRN	__imp_?Destroy@CInifile@@SAXPAV1@@Z:PROC
EXTRN	__imp_?fail@xrDebug@@QAEXPBD000H0AA_N@Z:PROC
EXTRN	__imp___fpclass:PROC
;	COMDAT ?ignore_always@?9??SetWeather@CEnvironment@@QAEXVshared_str@@_N@Z@4_NA
_BSS	SEGMENT
?ignore_always@?9??SetWeather@CEnvironment@@QAEXVshared_str@@_N@Z@4_NA DB 01H DUP (?) ; `CEnvironment::SetWeather'::`10'::ignore_always
_BSS	ENDS
;	COMDAT ?ignore_always@?8??SetWeatherFX@CEnvironment@@QAE_NVshared_str@@@Z@4_NA
_BSS	SEGMENT
?ignore_always@?8??SetWeatherFX@CEnvironment@@QAE_NVshared_str@@@Z@4_NA DB 01H DUP (?) ; `CEnvironment::SetWeatherFX'::`9'::ignore_always
_BSS	ENDS
;	COMDAT ?ignore_always@?O@??calculate_dynamic_sun_dir@CEnvironment@@AAEXXZ@4_NA
_BSS	SEGMENT
?ignore_always@?O@??calculate_dynamic_sun_dir@CEnvironment@@AAEXXZ@4_NA DB 01H DUP (?) ; `CEnvironment::calculate_dynamic_sun_dir'::`14'::ignore_always
_BSS	ENDS
;	COMDAT ?ignore_always@?BC@??calculate_dynamic_sun_dir@CEnvironment@@AAEXXZ@4_NA
_BSS	SEGMENT
?ignore_always@?BC@??calculate_dynamic_sun_dir@CEnvironment@@AAEXXZ@4_NA DB 01H DUP (?) ; `CEnvironment::calculate_dynamic_sun_dir'::`18'::ignore_always
_BSS	ENDS
;	COMDAT ?ignore_always@?BG@??calculate_dynamic_sun_dir@CEnvironment@@AAEXXZ@4_NA
_BSS	SEGMENT
?ignore_always@?BG@??calculate_dynamic_sun_dir@CEnvironment@@AAEXXZ@4_NA DB 01H DUP (?) ; `CEnvironment::calculate_dynamic_sun_dir'::`22'::ignore_always
;	COMDAT ??_7CLensFlare@@6B@
CONST	SEGMENT
??_7CLensFlare@@6B@ DD FLAT:??_R4CLensFlare@@6B@	; CLensFlare::`vftable'
	DD	FLAT:??_ECLensFlare@@UAEPAXI@Z
CONST	ENDS
;	COMDAT ??_R4CLensFlare@@6B@
rdata$r	SEGMENT
??_R4CLensFlare@@6B@ DD 00H				; CLensFlare::`RTTI Complete Object Locator'
	DD	00H
	DD	00H
	DD	FLAT:??_R0?AVCLensFlare@@@8
	DD	FLAT:??_R3CLensFlare@@8
rdata$r	ENDS
;	COMDAT ??_R3CLensFlare@@8
rdata$r	SEGMENT
??_R3CLensFlare@@8 DD 00H				; CLensFlare::`RTTI Class Hierarchy Descriptor'
	DD	00H
	DD	01H
	DD	FLAT:??_R2CLensFlare@@8
rdata$r	ENDS
;	COMDAT ??_R2CLensFlare@@8
rdata$r	SEGMENT
??_R2CLensFlare@@8 DD FLAT:??_R1A@?0A@EA@CLensFlare@@8	; CLensFlare::`RTTI Base Class Array'
rdata$r	ENDS
;	COMDAT ??_R1A@?0A@EA@CLensFlare@@8
rdata$r	SEGMENT
??_R1A@?0A@EA@CLensFlare@@8 DD FLAT:??_R0?AVCLensFlare@@@8 ; CLensFlare::`RTTI Base Class Descriptor at (0,-1,0,64)'
	DD	00H
	DD	00H
	DD	0ffffffffH
	DD	00H
	DD	040H
	DD	FLAT:??_R3CLensFlare@@8
rdata$r	ENDS
;	COMDAT ??_R0?AVCLensFlare@@@8
_DATA	SEGMENT
??_R0?AVCLensFlare@@@8 DD FLAT:??_7type_info@@6B@	; CLensFlare `RTTI Type Descriptor'
	DD	00H
	DB	'.?AVCLensFlare@@', 00H
_DATA	ENDS
;	COMDAT ??_C@_08HPPJPGGP@00?300?300?$AA@
CONST	SEGMENT
??_C@_08HPPJPGGP@00?300?300?$AA@ DB '00:00:00', 00H	; `string'
CONST	ENDS
;	COMDAT ??_C@_0BM@HLLHPBBI@_valid?$CICurrentEnv?9?$DOsun_dir?$CJ?$AA@
CONST	SEGMENT
??_C@_0BM@HLLHPBBI@_valid?$CICurrentEnv?9?$DOsun_dir?$CJ?$AA@ DB '_valid('
	DB	'CurrentEnv->sun_dir)', 00H			; `string'
CONST	ENDS
;	COMDAT ??_C@_0M@OFOFEIJG@_valid?$CISEA?$CJ?$AA@
CONST	SEGMENT
??_C@_0M@OFOFEIJG@_valid?$CISEA?$CJ?$AA@ DB '_valid(SEA)', 00H ; `string'
CONST	ENDS
;	COMDAT ??_C@_0L@DCAKJJFH@_valid?$CIAZ?$CJ?$AA@
CONST	SEGMENT
??_C@_0L@DCAKJJFH@_valid?$CIAZ?$CJ?$AA@ DB '_valid(AZ)', 00H ; `string'
CONST	ENDS
;	COMDAT ??_C@_0CI@PFKCKBCO@CEnvironment?3?3calculate_dynamic_@
CONST	SEGMENT
??_C@_0CI@PFKCKBCO@CEnvironment?3?3calculate_dynamic_@ DB 'CEnvironment::'
	DB	'calculate_dynamic_sun_dir', 00H		; `string'
CONST	ENDS
;	COMDAT ??_C@_0BM@GOLKAJHL@?$CB?5Empty?5weather?5effect?5name?$AA@
CONST	SEGMENT
??_C@_0BM@GOLKAJHL@?$CB?5Empty?5weather?5effect?5name?$AA@ DB '! Empty we'
	DB	'ather effect name', 00H			; `string'
CONST	ENDS
;	COMDAT ??_C@_0BF@KLDNMBFN@it?$CB?$DNWeatherFXs?4end?$CI?$CJ?$AA@
CONST	SEGMENT
??_C@_0BF@KLDNMBFN@it?$CB?$DNWeatherFXs?4end?$CI?$CJ?$AA@ DB 'it!=Weather'
	DB	'FXs.end()', 00H				; `string'
CONST	ENDS
;	COMDAT ??_C@_0BN@NJOLPOOD@Invalid?5weather?5effect?5name?4?$AA@
CONST	SEGMENT
??_C@_0BN@NJOLPOOD@Invalid?5weather?5effect?5name?4?$AA@ DB 'Invalid weat'
	DB	'her effect name.', 00H			; `string'
CONST	ENDS
;	COMDAT ??_C@_0BL@CDFCELPM@CEnvironment?3?3SetWeatherFX?$AA@
CONST	SEGMENT
??_C@_0BL@CDFCELPM@CEnvironment?3?3SetWeatherFX?$AA@ DB 'CEnvironment::Se'
	DB	'tWeatherFX', 00H				; `string'
CONST	ENDS
;	COMDAT ??_C@_0BF@POCGPELE@?$CB?5Empty?5weather?5name?$AA@
CONST	SEGMENT
??_C@_0BF@POCGPELE@?$CB?5Empty?5weather?5name?$AA@ DB '! Empty weather na'
	DB	'me', 00H					; `string'
CONST	ENDS
;	COMDAT ??_C@_0BI@NMGDFLEF@it?$CB?$DNWeatherCycles?4end?$CI?$CJ?$AA@
CONST	SEGMENT
??_C@_0BI@NMGDFLEF@it?$CB?$DNWeatherCycles?4end?$CI?$CJ?$AA@ DB 'it!=Weat'
	DB	'herCycles.end()', 00H			; `string'
CONST	ENDS
;	COMDAT ??_C@_0BG@HGMLELDB@Invalid?5weather?5name?4?$AA@
CONST	SEGMENT
??_C@_0BG@HGMLELDB@Invalid?5weather?5name?4?$AA@ DB 'Invalid weather name'
	DB	'.', 00H					; `string'
CONST	ENDS
;	COMDAT ??_C@_0DE@KEBEOAOH@D?3?2CLEARSKY?2sources?2engine?2xrEng@
CONST	SEGMENT
??_C@_0DE@KEBEOAOH@D?3?2CLEARSKY?2sources?2engine?2xrEng@ DB 'D:\CLEARSKY'
	DB	'\sources\engine\xrEngine\Environment.cpp', 00H ; `string'
CONST	ENDS
;	COMDAT ??_C@_0BJ@NEEPJKH@CEnvironment?3?3SetWeather?$AA@
CONST	SEGMENT
??_C@_0BJ@NEEPJKH@CEnvironment?3?3SetWeather?$AA@ DB 'CEnvironment::SetWe'
	DB	'ather', 00H					; `string'
CONST	ENDS
;	COMDAT ??_C@_0BL@JLFBJDAD@?$CB?5Invalid?5weather?5name?3?5?$CFs?$AA@
CONST	SEGMENT
??_C@_0BL@JLFBJDAD@?$CB?5Invalid?5weather?5name?3?5?$CFs?$AA@ DB '! Inval'
	DB	'id weather name: %s', 00H			; `string'
CONST	ENDS
;	COMDAT ??_C@_09PGJFNPIN@fog_color?$AA@
CONST	SEGMENT
??_C@_09PGJFNPIN@fog_color?$AA@ DB 'fog_color', 00H	; `string'
CONST	ENDS
;	COMDAT ??_C@_09BBLDEGOF@sun_color?$AA@
CONST	SEGMENT
??_C@_09BBLDEGOF@sun_color?$AA@ DB 'sun_color', 00H	; `string'
CONST	ENDS
;	COMDAT ??_C@_09DMPOHDE@sky_color?$AA@
CONST	SEGMENT
??_C@_09DMPOHDE@sky_color?$AA@ DB 'sky_color', 00H	; `string'
CONST	ENDS
;	COMDAT ??_C@_0BD@LEHNJEAM@second_propability?$AA@
CONST	SEGMENT
??_C@_0BD@LEHNJEAM@second_propability?$AA@ DB 'second_propability', 00H ; `string'
CONST	ENDS
;	COMDAT ??_C@_04HJDPHINC@tilt?$AA@
CONST	SEGMENT
??_C@_04HJDPHINC@tilt?$AA@ DB 'tilt', 00H		; `string'
CONST	ENDS
;	COMDAT ??_C@_0BA@NMGKLOI@min_dist_factor?$AA@
CONST	SEGMENT
??_C@_0BA@NMGKLOI@min_dist_factor?$AA@ DB 'min_dist_factor', 00H ; `string'
CONST	ENDS
;	COMDAT ??_C@_0BA@OADEFBBF@delta_longitude?$AA@
CONST	SEGMENT
??_C@_0BA@OADEFBBF@delta_longitude?$AA@ DB 'delta_longitude', 00H ; `string'
CONST	ENDS
;	COMDAT ??_C@_0M@PINLHHEI@environment?$AA@
CONST	SEGMENT
??_C@_0M@PINLHHEI@environment?$AA@ DB 'environment', 00H ; `string'
CONST	ENDS
;	COMDAT ??_C@_08OFJBILFH@altitude?$AA@
CONST	SEGMENT
??_C@_08OFJBILFH@altitude?$AA@ DB 'altitude', 00H	; `string'
CONST	ENDS
;	COMDAT ??_C@_0BM@MCANILEM@environment?2environment?4ltx?$AA@
CONST	SEGMENT
??_C@_0BM@MCANILEM@environment?2environment?4ltx?$AA@ DB 'environment\env'
	DB	'ironment.ltx', 00H				; `string'
CONST	ENDS
;	COMDAT ??_C@_0BN@FNDFIPLN@environment?2thunderbolts?4ltx?$AA@
CONST	SEGMENT
??_C@_0BN@FNDFIPLN@environment?2thunderbolts?4ltx?$AA@ DB 'environment\th'
	DB	'underbolts.ltx', 00H			; `string'
CONST	ENDS
;	COMDAT ??_C@_0CI@BHHNIBLF@environment?2thunderbolt_collecti@
CONST	SEGMENT
??_C@_0CI@BHHNIBLF@environment?2thunderbolt_collecti@ DB 'environment\thu'
	DB	'nderbolt_collections.ltx', 00H		; `string'
CONST	ENDS
;	COMDAT ??_C@_0BF@PAEMFBAE@environment?2suns?4ltx?$AA@
CONST	SEGMENT
??_C@_0BF@PAEMFBAE@environment?2suns?4ltx?$AA@ DB 'environment\suns.ltx', 00H ; `string'
CONST	ENDS
;	COMDAT ??_C@_0BI@EKOOCMNE@environment?2effects?4ltx?$AA@
CONST	SEGMENT
??_C@_0BI@EKOOCMNE@environment?2effects?4ltx?$AA@ DB 'environment\effects'
	DB	'.ltx', 00H					; `string'
CONST	ENDS
;	COMDAT ??_C@_0BP@JAFAGAPJ@environment?2sound_channels?4ltx?$AA@
CONST	SEGMENT
??_C@_0BP@JAFAGAPJ@environment?2sound_channels?4ltx?$AA@ DB 'environment\'
	DB	'sound_channels.ltx', 00H			; `string'
CONST	ENDS
;	COMDAT ??_C@_0BJ@CIIOKKHI@environment?2ambients?4ltx?$AA@
CONST	SEGMENT
??_C@_0BJ@CIIOKKHI@environment?2ambients?4ltx?$AA@ DB 'environment\ambien'
	DB	'ts.ltx', 00H				; `string'
?psVisDistance@@3MA DD 03f800000r		; 1	; psVisDistance
_MAX_NOISE_FREQ DD 03cf5c28fr			; 0.03
_EPS_S	DD	033d6bf95r			; 1e-007
_EPS	DD	03727c5acr			; 1e-005
_M_PI	DD	040490fdbr			; 3.14159
_PI	DD	040490fdbr			; 3.14159
PUBLIC	__real@3c8efa35
;	COMDAT __real@3c8efa35
; File d:\clearsky\sources\engine\xrcore\vector.h
CONST	SEGMENT
__real@3c8efa35 DD 03c8efa35r			; 0.0174533
; Function compile flags: /Ogtpy
CONST	ENDS
;	COMDAT ??$deg2rad@M@implement@@YAMM@Z
_TEXT	SEGMENT
??$deg2rad@M@implement@@YAMM@Z PROC			; implement::deg2rad<float>, COMDAT
; _val$ = xmm0s

; 87   : 	template <class T>	ICF T	deg2rad		( T val )						{ return (val*T(M_PI)/T(180));	};

	mulss	xmm0, DWORD PTR __real@3c8efa35
	ret	0
??$deg2rad@M@implement@@YAMM@Z ENDP			; implement::deg2rad<float>
; Function compile flags: /Ogtpy
_TEXT	ENDS
;	COMDAT ?deg2rad@@YAMM@Z
_TEXT	SEGMENT
?deg2rad@@YAMM@Z PROC					; deg2rad, COMDAT
; _val$ = xmm0s

; 90   : ICF float	deg2rad 	(float val)											{return implement::deg2rad(val);}

	mulss	xmm0, DWORD PTR __real@3c8efa35
	ret	0
?deg2rad@@YAMM@Z ENDP					; deg2rad
; Function compile flags: /Ogtpy
; File d:\clearsky\sources\engine\xrcore\xrstring.h
_TEXT	ENDS
;	COMDAT ?size@shared_str@@QBEIXZ
_TEXT	SEGMENT
?size@shared_str@@QBEIXZ PROC				; shared_str::size, COMDAT
; _this$ = eax

; 86   : 	u32					size		()						const	{	if (0==p_) return 0; else return p_->dwLength;	}

	mov	eax, DWORD PTR [eax]
	test	eax, eax
	jne	SHORT $LN2@size@4
	ret	0
$LN2@size@4:
	mov	eax, DWORD PTR [eax+4]
	ret	0
?size@shared_str@@QBEIXZ ENDP				; shared_str::size
; Function compile flags: /Ogtpy
; File d:\clearsky\sources\engine\xrcore\vector.h
_TEXT	ENDS
;	COMDAT ??$clampr@M@@YAMABM00@Z
_TEXT	SEGMENT
??$clampr@M@@YAMABM00@Z PROC				; clampr<float>, COMDAT
; _val$ = eax
; __high$ = ecx

; 102  : 	if		( val<_low	)	return _low; 
; 103  : 	else if	( val>_high )	return _high;

	movss	xmm0, DWORD PTR [eax]
	movss	xmm1, DWORD PTR [ecx]
	comiss	xmm0, xmm1
	jbe	SHORT $LN8@clampr@2
	movaps	xmm0, xmm1
$LN8@clampr@2:

; 104  : 	else					return val;
; 105  : };

	ret	0
??$clampr@M@@YAMABM00@Z ENDP				; clampr<float>
_TEXT	ENDS
EXTRN	__CIacos:PROC
; Function compile flags: /Ogtpy
; File j:\msvs8\vc\include\math.h
;	COMDAT _acosf
_TEXT	SEGMENT
__X$ = 8						; size = 4
_acosf	PROC						; COMDAT

; 389  :         {return ((float)acos((double)_X)); }

	fld	DWORD PTR __X$[esp-4]
	jmp	__CIacos
_acosf	ENDP
; Function compile flags: /Ogtpy
; File d:\clearsky\sources\engine\xrcore\_std_extensions.h
_TEXT	ENDS
;	COMDAT ?_valid@@YAHM@Z
_TEXT	SEGMENT
_x$ = 8							; size = 4
?_valid@@YAHM@Z PROC					; _valid, COMDAT

; 105  : 	// check for: Signaling NaN, Quiet NaN, Negative infinity ( INF), Positive infinity (+INF), Negative denormalized, Positive denormalized
; 106  : 	int			cls			= _fpclass		(double(x));
; 107  : 	if (cls&(_FPCLASS_SNAN+_FPCLASS_QNAN+_FPCLASS_NINF+_FPCLASS_PINF+_FPCLASS_ND+_FPCLASS_PD))	

	fld	DWORD PTR _x$[esp-4]
	sub	esp, 8
	fstp	QWORD PTR [esp]
	call	DWORD PTR __imp___fpclass
	and	eax, 663				; 00000297H
	add	esp, 8
	neg	eax
	sbb	eax, eax
	add	eax, 1

; 108  : 		return	false;	
; 109  : 
; 110  : 	/*	*****other cases are*****
; 111  : 	_FPCLASS_NN Negative normalized non-zero 
; 112  : 	_FPCLASS_NZ Negative zero (  0) 
; 113  : 	_FPCLASS_PZ Positive 0 (+0) 
; 114  : 	_FPCLASS_PN Positive normalized non-zero 
; 115  : 	*/
; 116  : 	return		true;
; 117  : }

	ret	0
?_valid@@YAHM@Z ENDP					; _valid
; Function compile flags: /Ogtpy
; File d:\clearsky\sources\engine\include\xrrender\factoryptr.h
_TEXT	ENDS
;	COMDAT ?CreateObject@?$FactoryPtr@VIFlareRender@@@@AAEXXZ
_TEXT	SEGMENT
_this$ = 8						; size = 4
?CreateObject@?$FactoryPtr@VIFlareRender@@@@AAEXXZ PROC	; FactoryPtr<IFlareRender>::CreateObject, COMDAT

; 71   :     FACTORY_PTR_INSTANCIATE(FlareRender)

	mov	eax, DWORD PTR __imp_?RenderFactory@@3PAVIRenderFactory@@A
	mov	ecx, DWORD PTR [eax]
	mov	edx, DWORD PTR [ecx]
	mov	eax, DWORD PTR [edx+120]
	call	eax
	mov	ecx, DWORD PTR _this$[esp-4]
	mov	DWORD PTR [ecx], eax
	ret	4
?CreateObject@?$FactoryPtr@VIFlareRender@@@@AAEXXZ ENDP	; FactoryPtr<IFlareRender>::CreateObject
; Function compile flags: /Ogtpy
_TEXT	ENDS
;	COMDAT ?DestroyObject@?$FactoryPtr@VIFlareRender@@@@AAEXXZ
_TEXT	SEGMENT
?DestroyObject@?$FactoryPtr@VIFlareRender@@@@AAEXXZ PROC ; FactoryPtr<IFlareRender>::DestroyObject, COMDAT
; _this$ = esi

; 71   :     FACTORY_PTR_INSTANCIATE(FlareRender)

	mov	eax, DWORD PTR __imp_?RenderFactory@@3PAVIRenderFactory@@A
	mov	ecx, DWORD PTR [eax]
	mov	edx, DWORD PTR [ecx]
	mov	eax, DWORD PTR [esi]
	mov	edx, DWORD PTR [edx+124]
	push	eax
	call	edx
	mov	DWORD PTR [esi], 0
	ret	0
?DestroyObject@?$FactoryPtr@VIFlareRender@@@@AAEXXZ ENDP ; FactoryPtr<IFlareRender>::DestroyObject
; Function compile flags: /Ogtpy
_TEXT	ENDS
;	COMDAT ?DestroyObject@?$FactoryPtr@VIThunderboltRender@@@@AAEXXZ
_TEXT	SEGMENT
?DestroyObject@?$FactoryPtr@VIThunderboltRender@@@@AAEXXZ PROC ; FactoryPtr<IThunderboltRender>::DestroyObject, COMDAT
; _this$ = esi

; 72   :     FACTORY_PTR_INSTANCIATE(ThunderboltRender)

	mov	eax, DWORD PTR __imp_?RenderFactory@@3PAVIRenderFactory@@A
	mov	ecx, DWORD PTR [eax]
	mov	edx, DWORD PTR [ecx]
	mov	eax, DWORD PTR [esi]
	mov	edx, DWORD PTR [edx+108]
	push	eax
	call	edx
	mov	DWORD PTR [esi], 0
	ret	0
?DestroyObject@?$FactoryPtr@VIThunderboltRender@@@@AAEXXZ ENDP ; FactoryPtr<IThunderboltRender>::DestroyObject
; Function compile flags: /Ogtpy
_TEXT	ENDS
;	COMDAT ?CreateObject@?$FactoryPtr@VIThunderboltRender@@@@AAEXXZ
_TEXT	SEGMENT
_this$ = 8						; size = 4
?CreateObject@?$FactoryPtr@VIThunderboltRender@@@@AAEXXZ PROC ; FactoryPtr<IThunderboltRender>::CreateObject, COMDAT

; 72   :     FACTORY_PTR_INSTANCIATE(ThunderboltRender)

	mov	eax, DWORD PTR __imp_?RenderFactory@@3PAVIRenderFactory@@A
	mov	ecx, DWORD PTR [eax]
	mov	edx, DWORD PTR [ecx]
	mov	eax, DWORD PTR [edx+104]
	call	eax
	mov	ecx, DWORD PTR _this$[esp-4]
	mov	DWORD PTR [ecx], eax
	ret	4
?CreateObject@?$FactoryPtr@VIThunderboltRender@@@@AAEXXZ ENDP ; FactoryPtr<IThunderboltRender>::CreateObject
; Function compile flags: /Ogtpy
_TEXT	ENDS
;	COMDAT ?DestroyObject@?$FactoryPtr@VILensFlareRender@@@@AAEXXZ
_TEXT	SEGMENT
?DestroyObject@?$FactoryPtr@VILensFlareRender@@@@AAEXXZ PROC ; FactoryPtr<ILensFlareRender>::DestroyObject, COMDAT
; _this$ = esi

; 74   :     FACTORY_PTR_INSTANCIATE(LensFlareRender)

	mov	eax, DWORD PTR __imp_?RenderFactory@@3PAVIRenderFactory@@A
	mov	ecx, DWORD PTR [eax]
	mov	edx, DWORD PTR [ecx]
	mov	eax, DWORD PTR [esi]
	mov	edx, DWORD PTR [edx+100]
	push	eax
	call	edx
	mov	DWORD PTR [esi], 0
	ret	0
?DestroyObject@?$FactoryPtr@VILensFlareRender@@@@AAEXXZ ENDP ; FactoryPtr<ILensFlareRender>::DestroyObject
; Function compile flags: /Ogtpy
_TEXT	ENDS
;	COMDAT ?CreateObject@?$FactoryPtr@VILensFlareRender@@@@AAEXXZ
_TEXT	SEGMENT
_this$ = 8						; size = 4
?CreateObject@?$FactoryPtr@VILensFlareRender@@@@AAEXXZ PROC ; FactoryPtr<ILensFlareRender>::CreateObject, COMDAT

; 74   :     FACTORY_PTR_INSTANCIATE(LensFlareRender)

	mov	eax, DWORD PTR __imp_?RenderFactory@@3PAVIRenderFactory@@A
	mov	ecx, DWORD PTR [eax]
	mov	edx, DWORD PTR [ecx]
	mov	eax, DWORD PTR [edx+96]
	call	eax
	mov	ecx, DWORD PTR _this$[esp-4]
	mov	DWORD PTR [ecx], eax
	ret	4
?CreateObject@?$FactoryPtr@VILensFlareRender@@@@AAEXXZ ENDP ; FactoryPtr<ILensFlareRender>::CreateObject
; Function compile flags: /Ogtpy
_TEXT	ENDS
;	COMDAT ?DestroyObject@?$FactoryPtr@VIRainRender@@@@AAEXXZ
_TEXT	SEGMENT
?DestroyObject@?$FactoryPtr@VIRainRender@@@@AAEXXZ PROC	; FactoryPtr<IRainRender>::DestroyObject, COMDAT
; _this$ = esi

; 75   :     FACTORY_PTR_INSTANCIATE(RainRender)

	mov	eax, DWORD PTR __imp_?RenderFactory@@3PAVIRenderFactory@@A
	mov	ecx, DWORD PTR [eax]
	mov	edx, DWORD PTR [ecx]
	mov	eax, DWORD PTR [esi]
	mov	edx, DWORD PTR [edx+92]
	push	eax
	call	edx
	mov	DWORD PTR [esi], 0
	ret	0
?DestroyObject@?$FactoryPtr@VIRainRender@@@@AAEXXZ ENDP	; FactoryPtr<IRainRender>::DestroyObject
; Function compile flags: /Ogtpy
_TEXT	ENDS
;	COMDAT ?CreateObject@?$FactoryPtr@VIRainRender@@@@AAEXXZ
_TEXT	SEGMENT
_this$ = 8						; size = 4
?CreateObject@?$FactoryPtr@VIRainRender@@@@AAEXXZ PROC	; FactoryPtr<IRainRender>::CreateObject, COMDAT

; 75   :     FACTORY_PTR_INSTANCIATE(RainRender)

	mov	eax, DWORD PTR __imp_?RenderFactory@@3PAVIRenderFactory@@A
	mov	ecx, DWORD PTR [eax]
	mov	edx, DWORD PTR [ecx]
	mov	eax, DWORD PTR [edx+88]
	call	eax
	mov	ecx, DWORD PTR _this$[esp-4]
	mov	DWORD PTR [ecx], eax
	ret	4
?CreateObject@?$FactoryPtr@VIRainRender@@@@AAEXXZ ENDP	; FactoryPtr<IRainRender>::CreateObject
; Function compile flags: /Ogtpy
; File d:\clearsky\sources\sdk\include\stlport\stl\_range_errors.h
_TEXT	ENDS
;	COMDAT ?__stl_throw_out_of_range@stlp_std@@YAXPBD@Z
_TEXT	SEGMENT
?__stl_throw_out_of_range@stlp_std@@YAXPBD@Z PROC	; stlp_std::__stl_throw_out_of_range, COMDAT

; 79   : { _STLP_THROW_MSG(out_of_range, __msg); }

	push	OFFSET ??_C@_06NBFPPGEG@vector?$AA@
	call	DWORD PTR __imp__puts
	add	esp, 4
	jmp	DWORD PTR __imp__abort
?__stl_throw_out_of_range@stlp_std@@YAXPBD@Z ENDP	; stlp_std::__stl_throw_out_of_range
; Function compile flags: /Ogtpy
; File d:\clearsky\sources\sdk\include\stlport\stl\type_traits.h
_TEXT	ENDS
;	COMDAT ??$_UseTrivialCopy@PAVCEnvDescriptor@@PAV1@@stlp_std@@YA?AU?$_TrivialCopy@PAVCEnvDescriptor@@PAV1@@0@PAPAVCEnvDescriptor@@0@Z
_TEXT	SEGMENT
??$_UseTrivialCopy@PAVCEnvDescriptor@@PAV1@@stlp_std@@YA?AU?$_TrivialCopy@PAVCEnvDescriptor@@PAV1@@0@PAPAVCEnvDescriptor@@0@Z PROC ; stlp_std::_UseTrivialCopy<CEnvDescriptor *,CEnvDescriptor *>, COMDAT

; 485  : { return _TrivialCopy<_Src, _Dst>(); }

	xor	al, al
	ret	0
??$_UseTrivialCopy@PAVCEnvDescriptor@@PAV1@@stlp_std@@YA?AU?$_TrivialCopy@PAVCEnvDescriptor@@PAV1@@0@PAPAVCEnvDescriptor@@0@Z ENDP ; stlp_std::_UseTrivialCopy<CEnvDescriptor *,CEnvDescriptor *>
; Function compile flags: /Ogtpy
; File d:\clearsky\sources\sdk\include\stlport\stl\_heap.c
_TEXT	ENDS
;	COMDAT ??$__push_heap@PAPAVCEnvDescriptor@@HPAV1@P6A_NPBV1@0@Z@stlp_std@@YAXPAPAVCEnvDescriptor@@HHPAV1@P6A_NPBV1@2@Z@Z
_TEXT	SEGMENT
___topIndex$ = 8					; size = 4
___val$ = 12						; size = 4
___comp$ = 16						; size = 4
??$__push_heap@PAPAVCEnvDescriptor@@HPAV1@P6A_NPBV1@0@Z@stlp_std@@YAXPAPAVCEnvDescriptor@@HHPAV1@P6A_NPBV1@2@Z@Z PROC ; stlp_std::__push_heap<CEnvDescriptor * *,int,CEnvDescriptor *,bool (__cdecl*)(CEnvDescriptor const *,CEnvDescriptor const *)>, COMDAT
; ___first$ = ebx
; ___holeIndex$ = eax

; 78   : {

	push	ebp
	mov	ebp, DWORD PTR ___val$[esp]
	push	esi
	push	edi
	mov	edi, eax

; 79   :   _Distance __parent = (__holeIndex - 1) / 2;

	lea	eax, DWORD PTR [edi-1]
	cdq
	sub	eax, edx
	mov	esi, eax
	sar	esi, 1

; 80   :   while (__holeIndex > __topIndex && __comp(*(__first + __parent), __val)) {

	cmp	edi, DWORD PTR ___topIndex$[esp+8]
	jle	SHORT $LN8@push_heap@3
	npad	7
$LL2@push_heap@3:
	mov	eax, DWORD PTR [ebx+esi*4]
	push	ebp
	push	eax
	call	DWORD PTR ___comp$[esp+16]
	add	esp, 8
	test	al, al
	je	SHORT $LN8@push_heap@3

; 81   :     _STLP_VERBOSE_ASSERT(!__comp(__val, *(__first + __parent)), _StlMsg_INVALID_STRICT_WEAK_PREDICATE)
; 82   :     *(__first + __holeIndex) = *(__first + __parent);

	mov	ecx, DWORD PTR [ebx+esi*4]

; 83   :     __holeIndex = __parent;
; 84   :     __parent = (__holeIndex - 1) / 2;

	lea	eax, DWORD PTR [esi-1]
	cdq
	sub	eax, edx
	mov	DWORD PTR [ebx+edi*4], ecx
	mov	edi, esi
	sar	eax, 1
	cmp	edi, DWORD PTR ___topIndex$[esp+8]
	mov	esi, eax
	jg	SHORT $LL2@push_heap@3
$LN8@push_heap@3:

; 85   :   }
; 86   :   *(__first + __holeIndex) = __val;

	mov	DWORD PTR [ebx+edi*4], ebp
	pop	edi
	pop	esi
	pop	ebp

; 87   : }

	ret	0
??$__push_heap@PAPAVCEnvDescriptor@@HPAV1@P6A_NPBV1@0@Z@stlp_std@@YAXPAPAVCEnvDescriptor@@HHPAV1@P6A_NPBV1@2@Z@Z ENDP ; stlp_std::__push_heap<CEnvDescriptor * *,int,CEnvDescriptor *,bool (__cdecl*)(CEnvDescriptor const *,CEnvDescriptor const *)>
; Function compile flags: /Ogtpy
; File d:\clearsky\sources\sdk\include\stlport\stl\type_traits.h
_TEXT	ENDS
;	COMDAT ?_Answer@?$_TrivialCopy@PAVCEnvDescriptor@@PAV1@@stlp_std@@SA?AU__true_type@2@XZ
_TEXT	SEGMENT
?_Answer@?$_TrivialCopy@PAVCEnvDescriptor@@PAV1@@stlp_std@@SA?AU__true_type@2@XZ PROC ; stlp_std::_TrivialCopy<CEnvDescriptor *,CEnvDescriptor *>::_Answer, COMDAT

; 390  :   static _Ret _Answer() { return _Ret(); }

	xor	al, al
	ret	0
?_Answer@?$_TrivialCopy@PAVCEnvDescriptor@@PAV1@@stlp_std@@SA?AU__true_type@2@XZ ENDP ; stlp_std::_TrivialCopy<CEnvDescriptor *,CEnvDescriptor *>::_Answer
; Function compile flags: /Ogtpy
; File d:\clearsky\sources\sdk\include\stlport\stl\_algobase.h
_TEXT	ENDS
;	COMDAT ??$swap@PAVCEnvDescriptor@@@stlp_std@@YAXAAPAVCEnvDescriptor@@0@Z
_TEXT	SEGMENT
??$swap@PAVCEnvDescriptor@@@stlp_std@@YAXAAPAVCEnvDescriptor@@0@Z PROC ; stlp_std::swap<CEnvDescriptor *>, COMDAT
; ___a$ = ecx
; ___b$ = eax

; 82   : #if defined (_STLP_USE_PARTIAL_SPEC_WORKAROUND) && !defined (_STLP_FUNCTION_TMPL_PARTIAL_ORDER)
; 83   : #  if !defined(__BORLANDC__)
; 84   :   typedef typename _SwapImplemented<_Tp>::_Ret _Implemented;
; 85   : #  else
; 86   :   enum { _Is = _SwapImplemented<_Tp>::_Is };
; 87   :   typedef typename __bool2type<_Is>::_Ret _Implemented;
; 88   : #  endif
; 89   :   _STLP_PRIV __swap_aux(__a, __b, _Implemented());
; 90   : #else
; 91   :   _Tp __tmp = __a;

	mov	edx, DWORD PTR [ecx]
	push	esi

; 92   :   __a = __b;

	mov	esi, DWORD PTR [eax]
	mov	DWORD PTR [ecx], esi

; 93   :   __b = __tmp;

	mov	DWORD PTR [eax], edx
	pop	esi

; 94   : #endif /* _STLP_USE_PARTIAL_SPEC_WORKAROUND */
; 95   : }

	ret	0
??$swap@PAVCEnvDescriptor@@@stlp_std@@YAXAAPAVCEnvDescriptor@@0@Z ENDP ; stlp_std::swap<CEnvDescriptor *>
; Function compile flags: /Ogtpy
; File d:\clearsky\sources\sdk\include\stlport\stl\_heap.c
_TEXT	ENDS
;	COMDAT ??$__adjust_heap@PAPAVCEnvDescriptor@@HPAV1@P6A_NPBV1@0@Z@stlp_std@@YAXPAPAVCEnvDescriptor@@HHPAV1@P6A_NPBV1@2@Z@Z
_TEXT	SEGMENT
___topIndex$ = 8					; size = 4
___len$ = 8						; size = 4
___val$ = 12						; size = 4
___comp$ = 16						; size = 4
??$__adjust_heap@PAPAVCEnvDescriptor@@HPAV1@P6A_NPBV1@0@Z@stlp_std@@YAXPAPAVCEnvDescriptor@@HHPAV1@P6A_NPBV1@2@Z@Z PROC ; stlp_std::__adjust_heap<CEnvDescriptor * *,int,CEnvDescriptor *,bool (__cdecl*)(CEnvDescriptor const *,CEnvDescriptor const *)>, COMDAT
; ___first$ = ecx
; ___holeIndex$ = eax

; 148  : {

	push	ebx
	push	ebp
	mov	ebp, DWORD PTR ___len$[esp+4]
	push	esi
	push	edi
	mov	edi, eax

; 149  :   _Distance __topIndex = __holeIndex;
; 150  :   _Distance __secondChild = 2 * __holeIndex + 2;

	lea	esi, DWORD PTR [edi+edi+2]

; 151  :   while (__secondChild < __len) {

	cmp	esi, ebp
	mov	ebx, ecx
	mov	DWORD PTR ___topIndex$[esp+12], edi
	jge	SHORT $LN9@adjust_hea@3
$LL4@adjust_hea@3:

; 152  :     if (__comp(*(__first + __secondChild), *(__first + (__secondChild - 1)))) {

	mov	eax, DWORD PTR [ebx+esi*4-4]
	mov	ecx, DWORD PTR [ebx+esi*4]
	push	eax
	push	ecx
	call	DWORD PTR ___comp$[esp+20]
	add	esp, 8
	test	al, al
	je	SHORT $LN2@adjust_hea@3

; 153  :       _STLP_VERBOSE_ASSERT(!__comp(*(__first + (__secondChild - 1)), *(__first + __secondChild)),
; 154  :                            _StlMsg_INVALID_STRICT_WEAK_PREDICATE)
; 155  :       __secondChild--;

	sub	esi, 1
$LN2@adjust_hea@3:

; 156  :     }
; 157  :     *(__first + __holeIndex) = *(__first + __secondChild);

	mov	edx, DWORD PTR [ebx+esi*4]
	mov	DWORD PTR [ebx+edi*4], edx

; 158  :     __holeIndex = __secondChild;

	mov	edi, esi

; 159  :     __secondChild = 2 * (__secondChild + 1);

	lea	esi, DWORD PTR [esi+esi+2]
	cmp	esi, ebp
	jl	SHORT $LL4@adjust_hea@3
$LN9@adjust_hea@3:

; 160  :   }
; 161  :   if (__secondChild == __len) {

	jne	SHORT $LN1@adjust_hea@3

; 162  :     *(__first + __holeIndex) = *(__first + (__secondChild - 1));

	mov	eax, DWORD PTR [ebx+esi*4-4]
	mov	DWORD PTR [ebx+edi*4], eax

; 163  :     __holeIndex = __secondChild - 1;

	lea	edi, DWORD PTR [esi-1]
$LN1@adjust_hea@3:

; 164  :   }
; 165  :   __push_heap(__first, __holeIndex, __topIndex, __val, __comp);

	mov	ecx, DWORD PTR ___comp$[esp+12]
	mov	edx, DWORD PTR ___val$[esp+12]
	mov	eax, DWORD PTR ___topIndex$[esp+12]
	push	ecx
	push	edx
	push	eax
	mov	eax, edi
	call	??$__push_heap@PAPAVCEnvDescriptor@@HPAV1@P6A_NPBV1@0@Z@stlp_std@@YAXPAPAVCEnvDescriptor@@HHPAV1@P6A_NPBV1@2@Z@Z ; stlp_std::__push_heap<CEnvDescriptor * *,int,CEnvDescriptor *,bool (__cdecl*)(CEnvDescriptor const *,CEnvDescriptor const *)>
	add	esp, 12					; 0000000cH
	pop	edi
	pop	esi
	pop	ebp
	pop	ebx

; 166  : }

	ret	0
??$__adjust_heap@PAPAVCEnvDescriptor@@HPAV1@P6A_NPBV1@0@Z@stlp_std@@YAXPAPAVCEnvDescriptor@@HHPAV1@P6A_NPBV1@2@Z@Z ENDP ; stlp_std::__adjust_heap<CEnvDescriptor * *,int,CEnvDescriptor *,bool (__cdecl*)(CEnvDescriptor const *,CEnvDescriptor const *)>
; Function compile flags: /Ogtpy
_TEXT	ENDS
;	COMDAT ??$__make_heap@PAPAVCEnvDescriptor@@P6A_NPBV1@0@ZPAV1@H@stlp_std@@YAXPAPAVCEnvDescriptor@@0P6A_NPBV1@1@Z0PAH@Z
_TEXT	SEGMENT
___comp$ = 8						; size = 4
??$__make_heap@PAPAVCEnvDescriptor@@P6A_NPBV1@0@ZPAV1@H@stlp_std@@YAXPAPAVCEnvDescriptor@@0P6A_NPBV1@1@Z0PAH@Z PROC ; stlp_std::__make_heap<CEnvDescriptor * *,bool (__cdecl*)(CEnvDescriptor const *,CEnvDescriptor const *),CEnvDescriptor *,int>, COMDAT
; ___first$ = edi
; ___last$ = eax

; 218  : {

	push	ebx
	mov	ebx, eax

; 219  :   if (__last - __first < 2) return;
; 220  :   _Distance __len = __last - __first;

	sub	ebx, edi
	sar	ebx, 2
	push	ebp
	mov	ebp, DWORD PTR ___comp$[esp+4]

; 221  :   _Distance __parent = (__len - 2)/2;

	lea	eax, DWORD PTR [ebx-2]
	cdq
	push	esi
	sub	eax, edx
	mov	esi, eax
	sar	esi, 1

; 222  : 
; 223  :   for (;;) {
; 224  :     __adjust_heap(__first, __parent, __len, _Tp(*(__first + __parent)),
; 225  :                   __comp);

	mov	eax, DWORD PTR [edi+esi*4]
	push	ebp
	push	eax
	push	ebx
	mov	eax, esi
	mov	ecx, edi
	call	??$__adjust_heap@PAPAVCEnvDescriptor@@HPAV1@P6A_NPBV1@0@Z@stlp_std@@YAXPAPAVCEnvDescriptor@@HHPAV1@P6A_NPBV1@2@Z@Z ; stlp_std::__adjust_heap<CEnvDescriptor * *,int,CEnvDescriptor *,bool (__cdecl*)(CEnvDescriptor const *,CEnvDescriptor const *)>
	add	esp, 12					; 0000000cH

; 226  :     if (__parent == 0) return;

	test	esi, esi
	je	SHORT $LN13@make_heap@5
	npad	2
$LL3@make_heap@5:

; 222  : 
; 223  :   for (;;) {
; 224  :     __adjust_heap(__first, __parent, __len, _Tp(*(__first + __parent)),
; 225  :                   __comp);

	mov	ecx, DWORD PTR [edi+esi*4-4]

; 227  :     __parent--;

	sub	esi, 1
	push	ebp
	push	ecx
	push	ebx
	mov	eax, esi
	mov	ecx, edi
	call	??$__adjust_heap@PAPAVCEnvDescriptor@@HPAV1@P6A_NPBV1@0@Z@stlp_std@@YAXPAPAVCEnvDescriptor@@HHPAV1@P6A_NPBV1@2@Z@Z ; stlp_std::__adjust_heap<CEnvDescriptor * *,int,CEnvDescriptor *,bool (__cdecl*)(CEnvDescriptor const *,CEnvDescriptor const *)>
	add	esp, 12					; 0000000cH
	test	esi, esi
	jne	SHORT $LL3@make_heap@5
$LN13@make_heap@5:
	pop	esi
	pop	ebp
	pop	ebx

; 228  :   }
; 229  : }

	ret	0
??$__make_heap@PAPAVCEnvDescriptor@@P6A_NPBV1@0@ZPAV1@H@stlp_std@@YAXPAPAVCEnvDescriptor@@0P6A_NPBV1@1@Z0PAH@Z ENDP ; stlp_std::__make_heap<CEnvDescriptor * *,bool (__cdecl*)(CEnvDescriptor const *,CEnvDescriptor const *),CEnvDescriptor *,int>
; Function compile flags: /Ogtpy
; File d:\clearsky\sources\sdk\include\stlport\stl\type_traits.h
_TEXT	ENDS
;	COMDAT ?_Answer@?$_BothPtrType@PAPAVCEnvDescriptor@@PAPAV1@@stlp_std@@SA?AU__true_type@2@XZ
_TEXT	SEGMENT
?_Answer@?$_BothPtrType@PAPAVCEnvDescriptor@@PAPAV1@@stlp_std@@SA?AU__true_type@2@XZ PROC ; stlp_std::_BothPtrType<CEnvDescriptor * *,CEnvDescriptor * *>::_Answer, COMDAT

; 468  :   static _Ret _Answer() { return _Ret(); }

	xor	al, al
	ret	0
?_Answer@?$_BothPtrType@PAPAVCEnvDescriptor@@PAPAV1@@stlp_std@@SA?AU__true_type@2@XZ ENDP ; stlp_std::_BothPtrType<CEnvDescriptor * *,CEnvDescriptor * *>::_Answer
; Function compile flags: /Ogtpy
; File d:\clearsky\sources\sdk\include\stlport\stl\_iterator.h
_TEXT	ENDS
;	COMDAT ?base@?$reverse_iterator@PAUSFlare@CLensFlareDescriptor@@@stlp_std@@QBEPAUSFlare@CLensFlareDescriptor@@XZ
_TEXT	SEGMENT
?base@?$reverse_iterator@PAUSFlare@CLensFlareDescriptor@@@stlp_std@@QBEPAUSFlare@CLensFlareDescriptor@@XZ PROC ; stlp_std::reverse_iterator<CLensFlareDescriptor::SFlare *>::base, COMDAT
; _this$ = eax

; 75   :   iterator_type base() const { return current; }

	mov	eax, DWORD PTR [eax]
	ret	0
?base@?$reverse_iterator@PAUSFlare@CLensFlareDescriptor@@@stlp_std@@QBEPAUSFlare@CLensFlareDescriptor@@XZ ENDP ; stlp_std::reverse_iterator<CLensFlareDescriptor::SFlare *>::base
; Function compile flags: /Ogtpy
_TEXT	ENDS
;	COMDAT ??$?8PAUSFlare@CLensFlareDescriptor@@@stlp_std@@YA_NABV?$reverse_iterator@PAUSFlare@CLensFlareDescriptor@@@0@0@Z
_TEXT	SEGMENT
??$?8PAUSFlare@CLensFlareDescriptor@@@stlp_std@@YA_NABV?$reverse_iterator@PAUSFlare@CLensFlareDescriptor@@@0@0@Z PROC ; stlp_std::operator==<CLensFlareDescriptor::SFlare *>, COMDAT
; ___x$ = eax
; ___y$ = edx

; 116  : { return __x.base() == __y.base(); }

	mov	ecx, DWORD PTR [eax]
	xor	eax, eax
	cmp	ecx, DWORD PTR [edx]
	sete	al
	ret	0
??$?8PAUSFlare@CLensFlareDescriptor@@@stlp_std@@YA_NABV?$reverse_iterator@PAUSFlare@CLensFlareDescriptor@@@0@0@Z ENDP ; stlp_std::operator==<CLensFlareDescriptor::SFlare *>
; Function compile flags: /Ogtpy
; File d:\clearsky\sources\sdk\include\stlport\stl\_algo.c
_TEXT	ENDS
;	COMDAT ??$__unguarded_linear_insert@PAPAVCEnvDescriptor@@PAV1@P6A_NPBV1@0@Z@priv@stlp_std@@YAXPAPAVCEnvDescriptor@@PAV2@P6A_NPBV2@2@Z@Z
_TEXT	SEGMENT
___comp$ = 8						; size = 4
??$__unguarded_linear_insert@PAPAVCEnvDescriptor@@PAV1@P6A_NPBV1@0@Z@priv@stlp_std@@YAXPAPAVCEnvDescriptor@@PAV2@P6A_NPBV2@2@Z@Z PROC ; stlp_std::priv::__unguarded_linear_insert<CEnvDescriptor * *,CEnvDescriptor *,bool (__cdecl*)(CEnvDescriptor const *,CEnvDescriptor const *)>, COMDAT
; ___last$ = eax
; ___val$ = ebx

; 896  :                                _Compare __comp) {

	push	ebp
	mov	ebp, DWORD PTR ___comp$[esp]
	push	esi
	push	edi
	mov	edi, eax

; 897  :   _RandomAccessIter __next = __last;
; 898  :   --__next;
; 899  :   while (__comp(__val, *__next)) {

	mov	eax, DWORD PTR [edi-4]
	lea	esi, DWORD PTR [edi-4]
	push	eax
	push	ebx
	call	ebp
	add	esp, 8
	test	al, al
	je	SHORT $LN7@unguarded_@8
	npad	6
$LL2@unguarded_@8:

; 900  :     _STLP_VERBOSE_ASSERT(!__comp(*__next, __val), _StlMsg_INVALID_STRICT_WEAK_PREDICATE)
; 901  :     *__last = *__next;

	mov	ecx, DWORD PTR [esi]
	mov	DWORD PTR [edi], ecx
	mov	edx, DWORD PTR [esi-4]

; 902  :     __last = __next;

	mov	edi, esi

; 903  :     --__next;

	sub	esi, 4
	push	edx
	push	ebx
	call	ebp
	add	esp, 8
	test	al, al
	jne	SHORT $LL2@unguarded_@8
$LN7@unguarded_@8:

; 904  :   }
; 905  :   *__last = __val;

	mov	DWORD PTR [edi], ebx
	pop	edi
	pop	esi
	pop	ebp

; 906  : }

	ret	0
??$__unguarded_linear_insert@PAPAVCEnvDescriptor@@PAV1@P6A_NPBV1@0@Z@priv@stlp_std@@YAXPAPAVCEnvDescriptor@@PAV2@P6A_NPBV2@2@Z@Z ENDP ; stlp_std::priv::__unguarded_linear_insert<CEnvDescriptor * *,CEnvDescriptor *,bool (__cdecl*)(CEnvDescriptor const *,CEnvDescriptor const *)>
; Function compile flags: /Ogtpy
; File d:\clearsky\sources\sdk\include\stlport\stl\_algobase.h
_TEXT	ENDS
;	COMDAT ??$__iter_swap_aux@PAPAVCEnvDescriptor@@PAPAV1@@priv@stlp_std@@YAXAAPAPAVCEnvDescriptor@@0ABU__true_type@1@@Z
_TEXT	SEGMENT
??$__iter_swap_aux@PAPAVCEnvDescriptor@@PAPAV1@@priv@stlp_std@@YAXAAPAPAVCEnvDescriptor@@0ABU__true_type@1@@Z PROC ; stlp_std::priv::__iter_swap_aux<CEnvDescriptor * *,CEnvDescriptor * *>, COMDAT
; ___i1$ = ecx
; ___i2$ = eax

; 108  :   swap(*__i1, *__i2);

	mov	eax, DWORD PTR [eax]
	mov	ecx, DWORD PTR [ecx]
	mov	edx, DWORD PTR [ecx]
	push	esi
	mov	esi, DWORD PTR [eax]
	mov	DWORD PTR [ecx], esi
	mov	DWORD PTR [eax], edx
	pop	esi

; 109  : }

	ret	0
??$__iter_swap_aux@PAPAVCEnvDescriptor@@PAPAV1@@priv@stlp_std@@YAXAAPAPAVCEnvDescriptor@@0ABU__true_type@1@@Z ENDP ; stlp_std::priv::__iter_swap_aux<CEnvDescriptor * *,CEnvDescriptor * *>
; Function compile flags: /Ogtpy
; File d:\clearsky\sources\sdk\include\stlport\stl\type_traits.h
_TEXT	ENDS
;	COMDAT ??$_IsOKToSwap@PAVCEnvDescriptor@@PAV1@U__true_type@stlp_std@@U23@@stlp_std@@YA?AU?$_OKToSwap@PAVCEnvDescriptor@@PAV1@U__true_type@stlp_std@@U23@@0@PAPAVCEnvDescriptor@@0ABU__true_type@0@1@Z
_TEXT	SEGMENT
??$_IsOKToSwap@PAVCEnvDescriptor@@PAV1@U__true_type@stlp_std@@U23@@stlp_std@@YA?AU?$_OKToSwap@PAVCEnvDescriptor@@PAV1@U__true_type@stlp_std@@U23@@0@PAPAVCEnvDescriptor@@0ABU__true_type@0@1@Z PROC ; stlp_std::_IsOKToSwap<CEnvDescriptor *,CEnvDescriptor *,stlp_std::__true_type,stlp_std::__true_type>, COMDAT

; 481  : { return _OKToSwap<_Tp1, _Tp2, _IsRef1, _IsRef2>(); }

	xor	al, al
	ret	0
??$_IsOKToSwap@PAVCEnvDescriptor@@PAV1@U__true_type@stlp_std@@U23@@stlp_std@@YA?AU?$_OKToSwap@PAVCEnvDescriptor@@PAV1@U__true_type@stlp_std@@U23@@0@PAPAVCEnvDescriptor@@0ABU__true_type@0@1@Z ENDP ; stlp_std::_IsOKToSwap<CEnvDescriptor *,CEnvDescriptor *,stlp_std::__true_type,stlp_std::__true_type>
; Function compile flags: /Ogtpy
; File d:\clearsky\sources\sdk\include\stlport\stl\_heap.h
_TEXT	ENDS
;	COMDAT ??$__pop_heap@PAPAVCEnvDescriptor@@PAV1@P6A_NPBV1@0@ZH@stlp_std@@YAXPAPAVCEnvDescriptor@@00PAV1@P6A_NPBV1@2@ZPAH@Z
_TEXT	SEGMENT
___val$ = 8						; size = 4
___comp$ = 12						; size = 4
??$__pop_heap@PAPAVCEnvDescriptor@@PAV1@P6A_NPBV1@0@ZH@stlp_std@@YAXPAPAVCEnvDescriptor@@00PAV1@P6A_NPBV1@2@ZPAH@Z PROC ; stlp_std::__pop_heap<CEnvDescriptor * *,CEnvDescriptor *,bool (__cdecl*)(CEnvDescriptor const *,CEnvDescriptor const *),int>, COMDAT
; ___first$ = ecx
; ___last$ = eax
; ___result$ = esi

; 78   :   *__result = *__first;

	mov	edx, DWORD PTR [ecx]
	mov	DWORD PTR [esi], edx

; 79   :   __adjust_heap(__first, _Distance(0), _Distance(__last - __first),
; 80   :                 __val, __comp);

	mov	edx, DWORD PTR ___comp$[esp-4]
	push	edx
	mov	edx, DWORD PTR ___val$[esp]
	sub	eax, ecx
	sar	eax, 2
	push	edx
	push	eax
	xor	eax, eax
	call	??$__adjust_heap@PAPAVCEnvDescriptor@@HPAV1@P6A_NPBV1@0@Z@stlp_std@@YAXPAPAVCEnvDescriptor@@HHPAV1@P6A_NPBV1@2@Z@Z ; stlp_std::__adjust_heap<CEnvDescriptor * *,int,CEnvDescriptor *,bool (__cdecl*)(CEnvDescriptor const *,CEnvDescriptor const *)>
	add	esp, 12					; 0000000cH

; 81   : }

	ret	0
??$__pop_heap@PAPAVCEnvDescriptor@@PAV1@P6A_NPBV1@0@ZH@stlp_std@@YAXPAPAVCEnvDescriptor@@00PAV1@P6A_NPBV1@2@ZPAH@Z ENDP ; stlp_std::__pop_heap<CEnvDescriptor * *,CEnvDescriptor *,bool (__cdecl*)(CEnvDescriptor const *,CEnvDescriptor const *),int>
; Function compile flags: /Ogtpy
; File d:\clearsky\sources\sdk\include\stlport\stl\_heap.c
_TEXT	ENDS
;	COMDAT ??$make_heap@PAPAVCEnvDescriptor@@P6A_NPBV1@0@Z@stlp_std@@YAXPAPAVCEnvDescriptor@@0P6A_NPBV1@1@Z@Z
_TEXT	SEGMENT
___comp$ = 8						; size = 4
??$make_heap@PAPAVCEnvDescriptor@@P6A_NPBV1@0@Z@stlp_std@@YAXPAPAVCEnvDescriptor@@0P6A_NPBV1@1@Z@Z PROC ; stlp_std::make_heap<CEnvDescriptor * *,bool (__cdecl*)(CEnvDescriptor const *,CEnvDescriptor const *)>, COMDAT
; ___first$ = edi
; ___last$ = eax

; 235  : {

	push	ebx
	mov	ebx, eax

; 236  :   __make_heap(__first, __last, __comp,
; 237  :               _STLP_VALUE_TYPE(__first, _RandomAccessIterator), _STLP_DISTANCE_TYPE(__first, _RandomAccessIterator));

	sub	ebx, edi
	sar	ebx, 2
	cmp	ebx, 2
	push	ebp
	mov	ebp, DWORD PTR ___comp$[esp+4]
	jl	SHORT $LN11@make_heap@6
	lea	eax, DWORD PTR [ebx-2]
	cdq
	push	esi
	sub	eax, edx
	mov	esi, eax
	sar	esi, 1
	mov	eax, DWORD PTR [edi+esi*4]
	push	ebp
	push	eax
	push	ebx
	mov	eax, esi
	mov	ecx, edi
	call	??$__adjust_heap@PAPAVCEnvDescriptor@@HPAV1@P6A_NPBV1@0@Z@stlp_std@@YAXPAPAVCEnvDescriptor@@HHPAV1@P6A_NPBV1@2@Z@Z ; stlp_std::__adjust_heap<CEnvDescriptor * *,int,CEnvDescriptor *,bool (__cdecl*)(CEnvDescriptor const *,CEnvDescriptor const *)>
	add	esp, 12					; 0000000cH
	test	esi, esi
	je	SHORT $LN13@make_heap@6
$LL5@make_heap@6:
	mov	ecx, DWORD PTR [edi+esi*4-4]
	sub	esi, 1
	push	ebp
	push	ecx
	push	ebx
	mov	eax, esi
	mov	ecx, edi
	call	??$__adjust_heap@PAPAVCEnvDescriptor@@HPAV1@P6A_NPBV1@0@Z@stlp_std@@YAXPAPAVCEnvDescriptor@@HHPAV1@P6A_NPBV1@2@Z@Z ; stlp_std::__adjust_heap<CEnvDescriptor * *,int,CEnvDescriptor *,bool (__cdecl*)(CEnvDescriptor const *,CEnvDescriptor const *)>
	add	esp, 12					; 0000000cH
	test	esi, esi
	jne	SHORT $LL5@make_heap@6
$LN13@make_heap@6:
	pop	esi
$LN11@make_heap@6:
	pop	ebp
	pop	ebx

; 238  : }

	ret	0
??$make_heap@PAPAVCEnvDescriptor@@P6A_NPBV1@0@Z@stlp_std@@YAXPAPAVCEnvDescriptor@@0P6A_NPBV1@1@Z@Z ENDP ; stlp_std::make_heap<CEnvDescriptor * *,bool (__cdecl*)(CEnvDescriptor const *,CEnvDescriptor const *)>
; Function compile flags: /Ogtpy
; File d:\clearsky\sources\sdk\include\stlport\stl\type_traits.h
_TEXT	ENDS
;	COMDAT ??$_UseTrivialUCopy@UParticle@CEffect_Rain@@U12@@stlp_std@@YA?AU?$_TrivialUCopy@UParticle@CEffect_Rain@@U12@@0@PAUParticle@CEffect_Rain@@0@Z
_TEXT	SEGMENT
??$_UseTrivialUCopy@UParticle@CEffect_Rain@@U12@@stlp_std@@YA?AU?$_TrivialUCopy@UParticle@CEffect_Rain@@U12@@0@PAUParticle@CEffect_Rain@@0@Z PROC ; stlp_std::_UseTrivialUCopy<CEffect_Rain::Particle,CEffect_Rain::Particle>, COMDAT

; 489  : { return _TrivialUCopy<_Src, _Dst>(); }

	xor	al, al
	ret	0
??$_UseTrivialUCopy@UParticle@CEffect_Rain@@U12@@stlp_std@@YA?AU?$_TrivialUCopy@UParticle@CEffect_Rain@@U12@@0@PAUParticle@CEffect_Rain@@0@Z ENDP ; stlp_std::_UseTrivialUCopy<CEffect_Rain::Particle,CEffect_Rain::Particle>
; Function compile flags: /Ogtpy
_TEXT	ENDS
;	COMDAT ??$_UseTrivialUCopy@UItem@CEffect_Rain@@U12@@stlp_std@@YA?AU?$_TrivialUCopy@UItem@CEffect_Rain@@U12@@0@PAUItem@CEffect_Rain@@0@Z
_TEXT	SEGMENT
??$_UseTrivialUCopy@UItem@CEffect_Rain@@U12@@stlp_std@@YA?AU?$_TrivialUCopy@UItem@CEffect_Rain@@U12@@0@PAUItem@CEffect_Rain@@0@Z PROC ; stlp_std::_UseTrivialUCopy<CEffect_Rain::Item,CEffect_Rain::Item>, COMDAT

; 489  : { return _TrivialUCopy<_Src, _Dst>(); }

	xor	al, al
	ret	0
??$_UseTrivialUCopy@UItem@CEffect_Rain@@U12@@stlp_std@@YA?AU?$_TrivialUCopy@UItem@CEffect_Rain@@U12@@0@PAUItem@CEffect_Rain@@0@Z ENDP ; stlp_std::_UseTrivialUCopy<CEffect_Rain::Item,CEffect_Rain::Item>
; Function compile flags: /Ogtpy
_TEXT	ENDS
;	COMDAT ??$_UseTrivialUCopy@USFlare@CLensFlareDescriptor@@U12@@stlp_std@@YA?AU?$_TrivialUCopy@USFlare@CLensFlareDescriptor@@U12@@0@PAUSFlare@CLensFlareDescriptor@@0@Z
_TEXT	SEGMENT
??$_UseTrivialUCopy@USFlare@CLensFlareDescriptor@@U12@@stlp_std@@YA?AU?$_TrivialUCopy@USFlare@CLensFlareDescriptor@@U12@@0@PAUSFlare@CLensFlareDescriptor@@0@Z PROC ; stlp_std::_UseTrivialUCopy<CLensFlareDescriptor::SFlare,CLensFlareDescriptor::SFlare>, COMDAT

; 489  : { return _TrivialUCopy<_Src, _Dst>(); }

	xor	al, al
	ret	0
??$_UseTrivialUCopy@USFlare@CLensFlareDescriptor@@U12@@stlp_std@@YA?AU?$_TrivialUCopy@USFlare@CLensFlareDescriptor@@U12@@0@PAUSFlare@CLensFlareDescriptor@@0@Z ENDP ; stlp_std::_UseTrivialUCopy<CLensFlareDescriptor::SFlare,CLensFlareDescriptor::SFlare>
; Function compile flags: /Ogtpy
_TEXT	ENDS
;	COMDAT ??$_UseTrivialUCopy@Urq_result@collide@@U12@@stlp_std@@YA?AU?$_TrivialUCopy@Urq_result@collide@@U12@@0@PAUrq_result@collide@@0@Z
_TEXT	SEGMENT
??$_UseTrivialUCopy@Urq_result@collide@@U12@@stlp_std@@YA?AU?$_TrivialUCopy@Urq_result@collide@@U12@@0@PAUrq_result@collide@@0@Z PROC ; stlp_std::_UseTrivialUCopy<collide::rq_result,collide::rq_result>, COMDAT

; 489  : { return _TrivialUCopy<_Src, _Dst>(); }

	xor	al, al
	ret	0
??$_UseTrivialUCopy@Urq_result@collide@@U12@@stlp_std@@YA?AU?$_TrivialUCopy@Urq_result@collide@@U12@@0@PAUrq_result@collide@@0@Z ENDP ; stlp_std::_UseTrivialUCopy<collide::rq_result,collide::rq_result>
; Function compile flags: /Ogtpy
_TEXT	ENDS
;	COMDAT ?_Answer@?$_OKToSwap@PAVCEnvDescriptor@@PAV1@U__true_type@stlp_std@@U23@@stlp_std@@SA?AU__true_type@2@XZ
_TEXT	SEGMENT
?_Answer@?$_OKToSwap@PAVCEnvDescriptor@@PAV1@U__true_type@stlp_std@@U23@@stlp_std@@SA?AU__true_type@2@XZ PROC ; stlp_std::_OKToSwap<CEnvDescriptor *,CEnvDescriptor *,stlp_std::__true_type,stlp_std::__true_type>::_Answer, COMDAT

; 475  :   static _Type _Answer() { return _Type(); }

	xor	al, al
	ret	0
?_Answer@?$_OKToSwap@PAVCEnvDescriptor@@PAV1@U__true_type@stlp_std@@U23@@stlp_std@@SA?AU__true_type@2@XZ ENDP ; stlp_std::_OKToSwap<CEnvDescriptor *,CEnvDescriptor *,stlp_std::__true_type,stlp_std::__true_type>::_Answer
; Function compile flags: /Ogtpy
_TEXT	ENDS
;	COMDAT ?_Ret@?$_IsRefType@AAPAVCEnvDescriptor@@@stlp_std@@SA?AU__true_type@2@XZ
_TEXT	SEGMENT
?_Ret@?$_IsRefType@AAPAVCEnvDescriptor@@@stlp_std@@SA?AU__true_type@2@XZ PROC ; stlp_std::_IsRefType<CEnvDescriptor * &>::_Ret, COMDAT

; 443  :   static _Type _Ret() { return _Type();}

	xor	al, al
	ret	0
?_Ret@?$_IsRefType@AAPAVCEnvDescriptor@@@stlp_std@@SA?AU__true_type@2@XZ ENDP ; stlp_std::_IsRefType<CEnvDescriptor * &>::_Ret
; Function compile flags: /Ogtpy
_TEXT	ENDS
;	COMDAT ?_Answer@?$_TrivialUCopy@UParticle@CEffect_Rain@@U12@@stlp_std@@SA?AU__true_type@2@XZ
_TEXT	SEGMENT
?_Answer@?$_TrivialUCopy@UParticle@CEffect_Rain@@U12@@stlp_std@@SA?AU__true_type@2@XZ PROC ; stlp_std::_TrivialUCopy<CEffect_Rain::Particle,CEffect_Rain::Particle>::_Answer, COMDAT

; 407  :   static _Ret _Answer() { return _Ret(); }

	xor	al, al
	ret	0
?_Answer@?$_TrivialUCopy@UParticle@CEffect_Rain@@U12@@stlp_std@@SA?AU__true_type@2@XZ ENDP ; stlp_std::_TrivialUCopy<CEffect_Rain::Particle,CEffect_Rain::Particle>::_Answer
; Function compile flags: /Ogtpy
_TEXT	ENDS
;	COMDAT ?_Answer@?$_TrivialUCopy@UItem@CEffect_Rain@@U12@@stlp_std@@SA?AU__true_type@2@XZ
_TEXT	SEGMENT
?_Answer@?$_TrivialUCopy@UItem@CEffect_Rain@@U12@@stlp_std@@SA?AU__true_type@2@XZ PROC ; stlp_std::_TrivialUCopy<CEffect_Rain::Item,CEffect_Rain::Item>::_Answer, COMDAT

; 407  :   static _Ret _Answer() { return _Ret(); }

	xor	al, al
	ret	0
?_Answer@?$_TrivialUCopy@UItem@CEffect_Rain@@U12@@stlp_std@@SA?AU__true_type@2@XZ ENDP ; stlp_std::_TrivialUCopy<CEffect_Rain::Item,CEffect_Rain::Item>::_Answer
; Function compile flags: /Ogtpy
_TEXT	ENDS
;	COMDAT ?_Answer@?$_TrivialUCopy@USFlare@CLensFlareDescriptor@@U12@@stlp_std@@SA?AU__false_type@2@XZ
_TEXT	SEGMENT
?_Answer@?$_TrivialUCopy@USFlare@CLensFlareDescriptor@@U12@@stlp_std@@SA?AU__false_type@2@XZ PROC ; stlp_std::_TrivialUCopy<CLensFlareDescriptor::SFlare,CLensFlareDescriptor::SFlare>::_Answer, COMDAT

; 407  :   static _Ret _Answer() { return _Ret(); }

	xor	al, al
	ret	0
?_Answer@?$_TrivialUCopy@USFlare@CLensFlareDescriptor@@U12@@stlp_std@@SA?AU__false_type@2@XZ ENDP ; stlp_std::_TrivialUCopy<CLensFlareDescriptor::SFlare,CLensFlareDescriptor::SFlare>::_Answer
; Function compile flags: /Ogtpy
_TEXT	ENDS
;	COMDAT ?_Answer@?$_TrivialUCopy@Urq_result@collide@@U12@@stlp_std@@SA?AU__true_type@2@XZ
_TEXT	SEGMENT
?_Answer@?$_TrivialUCopy@Urq_result@collide@@U12@@stlp_std@@SA?AU__true_type@2@XZ PROC ; stlp_std::_TrivialUCopy<collide::rq_result,collide::rq_result>::_Answer, COMDAT

; 407  :   static _Ret _Answer() { return _Ret(); }

	xor	al, al
	ret	0
?_Answer@?$_TrivialUCopy@Urq_result@collide@@U12@@stlp_std@@SA?AU__true_type@2@XZ ENDP ; stlp_std::_TrivialUCopy<collide::rq_result,collide::rq_result>::_Answer
; Function compile flags: /Ogtpy
; File d:\clearsky\sources\sdk\include\stlport\stl\_iterator.h
_TEXT	ENDS
;	COMDAT ??$?9PAUSFlare@CLensFlareDescriptor@@@stlp_std@@YA_NABV?$reverse_iterator@PAUSFlare@CLensFlareDescriptor@@@0@0@Z
_TEXT	SEGMENT
??$?9PAUSFlare@CLensFlareDescriptor@@@stlp_std@@YA_NABV?$reverse_iterator@PAUSFlare@CLensFlareDescriptor@@@0@0@Z PROC ; stlp_std::operator!=<CLensFlareDescriptor::SFlare *>, COMDAT
; ___x$ = eax
; ___y$ = edx

; 127  : { return !(__x == __y); }

	mov	ecx, DWORD PTR [eax]
	xor	eax, eax
	cmp	ecx, DWORD PTR [edx]
	setne	al
	ret	0
??$?9PAUSFlare@CLensFlareDescriptor@@@stlp_std@@YA_NABV?$reverse_iterator@PAUSFlare@CLensFlareDescriptor@@@0@0@Z ENDP ; stlp_std::operator!=<CLensFlareDescriptor::SFlare *>
; Function compile flags: /Ogtpy
; File d:\clearsky\sources\sdk\include\stlport\stl\_iterator_base.h
_TEXT	ENDS
;	COMDAT ??$__advance@PAPAVCEnvDescriptor@@H@stlp_std@@YAXAAPAPAVCEnvDescriptor@@HABUrandom_access_iterator_tag@0@@Z
_TEXT	SEGMENT
??$__advance@PAPAVCEnvDescriptor@@H@stlp_std@@YAXAAPAPAVCEnvDescriptor@@HABUrandom_access_iterator_tag@0@@Z PROC ; stlp_std::__advance<CEnvDescriptor * *,int>, COMDAT
; ___i$ = eax
; ___n$ = ecx

; 522  :   __i += __n;

	lea	edx, DWORD PTR [ecx*4]
	add	DWORD PTR [eax], edx

; 523  : }

	ret	0
??$__advance@PAPAVCEnvDescriptor@@H@stlp_std@@YAXAAPAPAVCEnvDescriptor@@HABUrandom_access_iterator_tag@0@@Z ENDP ; stlp_std::__advance<CEnvDescriptor * *,int>
; Function compile flags: /Ogtpy
_TEXT	ENDS
;	COMDAT ??$__distance@PAPAVCEnvDescriptor@@@stlp_std@@YAHABQAPAVCEnvDescriptor@@0ABUrandom_access_iterator_tag@0@@Z
_TEXT	SEGMENT
??$__distance@PAPAVCEnvDescriptor@@@stlp_std@@YAHABQAPAVCEnvDescriptor@@0ABUrandom_access_iterator_tag@0@@Z PROC ; stlp_std::__distance<CEnvDescriptor * *>, COMDAT
; ___first$ = ecx
; ___last$ = eax

; 372  :   return __last - __first;

	mov	eax, DWORD PTR [eax]
	sub	eax, DWORD PTR [ecx]
	sar	eax, 2

; 373  : }

	ret	0
??$__distance@PAPAVCEnvDescriptor@@@stlp_std@@YAHABQAPAVCEnvDescriptor@@0ABUrandom_access_iterator_tag@0@@Z ENDP ; stlp_std::__distance<CEnvDescriptor * *>
; Function compile flags: /Ogtpy
; File d:\clearsky\sources\sdk\include\stlport\stl\_algo.c
_TEXT	ENDS
;	COMDAT ??$__unguarded_insertion_sort_aux@PAPAVCEnvDescriptor@@PAV1@P6A_NPBV1@0@Z@priv@stlp_std@@YAXPAPAVCEnvDescriptor@@00P6A_NPBV2@1@Z@Z
_TEXT	SEGMENT
___first$ = 8						; size = 4
___last$ = 12						; size = 4
___comp$ = 16						; size = 4
??$__unguarded_insertion_sort_aux@PAPAVCEnvDescriptor@@PAV1@P6A_NPBV1@0@Z@priv@stlp_std@@YAXPAPAVCEnvDescriptor@@00P6A_NPBV2@1@Z@Z PROC ; stlp_std::priv::__unguarded_insertion_sort_aux<CEnvDescriptor * *,CEnvDescriptor *,bool (__cdecl*)(CEnvDescriptor const *,CEnvDescriptor const *)>, COMDAT

; 934  :                                     _Tp*, _Compare __comp) {

	push	ebp
	mov	ebp, DWORD PTR ___first$[esp]

; 935  :   for (_RandomAccessIter __i = __first; __i != __last; ++__i)

	cmp	ebp, DWORD PTR ___last$[esp]
	je	SHORT $LN1@unguarded_@9
	push	ebx
	push	esi
	push	edi
	npad	2
$LL3@unguarded_@9:

; 936  :     __unguarded_linear_insert<_RandomAccessIter, _Tp, _Compare>(__i, *__i, __comp);

	mov	eax, DWORD PTR [ebp-4]
	mov	ebx, DWORD PTR [ebp]
	lea	esi, DWORD PTR [ebp-4]
	push	eax
	push	ebx
	mov	edi, ebp
	call	DWORD PTR ___comp$[esp+20]
	add	esp, 8
	test	al, al
	je	SHORT $LN6@unguarded_@9
$LL7@unguarded_@9:
	mov	ecx, DWORD PTR [esi]
	mov	DWORD PTR [edi], ecx
	mov	edx, DWORD PTR [esi-4]
	mov	edi, esi
	sub	esi, 4
	push	edx
	push	ebx
	call	DWORD PTR ___comp$[esp+20]
	add	esp, 8
	test	al, al
	jne	SHORT $LL7@unguarded_@9
$LN6@unguarded_@9:
	add	ebp, 4
	cmp	ebp, DWORD PTR ___last$[esp+12]
	mov	DWORD PTR [edi], ebx
	jne	SHORT $LL3@unguarded_@9
	pop	edi
	pop	esi
	pop	ebx
$LN1@unguarded_@9:
	pop	ebp

; 937  : }

	ret	0
??$__unguarded_insertion_sort_aux@PAPAVCEnvDescriptor@@PAV1@P6A_NPBV1@0@Z@priv@stlp_std@@YAXPAPAVCEnvDescriptor@@00P6A_NPBV2@1@Z@Z ENDP ; stlp_std::priv::__unguarded_insertion_sort_aux<CEnvDescriptor * *,CEnvDescriptor *,bool (__cdecl*)(CEnvDescriptor const *,CEnvDescriptor const *)>
; Function compile flags: /Ogtpy
; File d:\clearsky\sources\sdk\include\stlport\stl\_algobase.h
_TEXT	ENDS
;	COMDAT ??$iter_swap@PAPAVCEnvDescriptor@@PAPAV1@@stlp_std@@YAXPAPAVCEnvDescriptor@@0@Z
_TEXT	SEGMENT
??$iter_swap@PAPAVCEnvDescriptor@@PAPAV1@@stlp_std@@YAXPAPAVCEnvDescriptor@@0@Z PROC ; stlp_std::iter_swap<CEnvDescriptor * *,CEnvDescriptor * *>, COMDAT
; ___i1$ = ecx
; ___i2$ = eax

; 120  :   // swap(*__i1, *__i2);
; 121  :   _STLP_PRIV __iter_swap_aux( __i1, __i2, _IsOKToSwap(_STLP_VALUE_TYPE(__i1, _ForwardIter1), _STLP_VALUE_TYPE(__i2, _ForwardIter2),
; 122  :                                                       _STLP_IS_REF_TYPE_REAL_REF(__i1, _ForwardIter1),
; 123  :                                                       _STLP_IS_REF_TYPE_REAL_REF(__i2, _ForwardIter2))._Answer());

	mov	edx, DWORD PTR [ecx]
	push	esi
	mov	esi, DWORD PTR [eax]
	mov	DWORD PTR [ecx], esi
	mov	DWORD PTR [eax], edx
	pop	esi

; 124  : }

	ret	0
??$iter_swap@PAPAVCEnvDescriptor@@PAPAV1@@stlp_std@@YAXPAPAVCEnvDescriptor@@0@Z ENDP ; stlp_std::iter_swap<CEnvDescriptor * *,CEnvDescriptor * *>
; Function compile flags: /Ogtpy
; File d:\clearsky\sources\sdk\include\stlport\stl\_construct.h
_TEXT	ENDS
;	COMDAT ??$__destroy_range_aux@PAUParticle@CEffect_Rain@@U12@@stlp_std@@YAXPAUParticle@CEffect_Rain@@00ABU__true_type@0@@Z
_TEXT	SEGMENT
??$__destroy_range_aux@PAUParticle@CEffect_Rain@@U12@@stlp_std@@YAXPAUParticle@CEffect_Rain@@00ABU__true_type@0@@Z PROC ; stlp_std::__destroy_range_aux<CEffect_Rain::Particle *,CEffect_Rain::Particle>, COMDAT

; 169  : __destroy_range_aux(_ForwardIterator, _ForwardIterator, _Tp*, const __true_type& /*_Trivial_destructor*/) {}

	ret	0
??$__destroy_range_aux@PAUParticle@CEffect_Rain@@U12@@stlp_std@@YAXPAUParticle@CEffect_Rain@@00ABU__true_type@0@@Z ENDP ; stlp_std::__destroy_range_aux<CEffect_Rain::Particle *,CEffect_Rain::Particle>
; Function compile flags: /Ogtpy
_TEXT	ENDS
;	COMDAT ??$__destroy_range_aux@PAUItem@CEffect_Rain@@U12@@stlp_std@@YAXPAUItem@CEffect_Rain@@00ABU__true_type@0@@Z
_TEXT	SEGMENT
??$__destroy_range_aux@PAUItem@CEffect_Rain@@U12@@stlp_std@@YAXPAUItem@CEffect_Rain@@00ABU__true_type@0@@Z PROC ; stlp_std::__destroy_range_aux<CEffect_Rain::Item *,CEffect_Rain::Item>, COMDAT

; 169  : __destroy_range_aux(_ForwardIterator, _ForwardIterator, _Tp*, const __true_type& /*_Trivial_destructor*/) {}

	ret	0
??$__destroy_range_aux@PAUItem@CEffect_Rain@@U12@@stlp_std@@YAXPAUItem@CEffect_Rain@@00ABU__true_type@0@@Z ENDP ; stlp_std::__destroy_range_aux<CEffect_Rain::Item *,CEffect_Rain::Item>
; Function compile flags: /Ogtpy
; File d:\clearsky\sources\sdk\include\stlport\stl\_function_base.h
_TEXT	ENDS
;	COMDAT ??R?$_Select1st@U?$pair@$$CBVshared_str@@V?$xr_vector@PAVCEnvDescriptor@@V?$xalloc@PAVCEnvDescriptor@@@@@@@stlp_std@@@priv@stlp_std@@QBEABVshared_str@@ABU?$pair@$$CBVshared_str@@V?$xr_vector@PAVCEnvDescriptor@@V?$xalloc@PAVCEnvDescriptor@@@@@@@2@@Z
_TEXT	SEGMENT
??R?$_Select1st@U?$pair@$$CBVshared_str@@V?$xr_vector@PAVCEnvDescriptor@@V?$xalloc@PAVCEnvDescriptor@@@@@@@stlp_std@@@priv@stlp_std@@QBEABVshared_str@@ABU?$pair@$$CBVshared_str@@V?$xr_vector@PAVCEnvDescriptor@@V?$xalloc@PAVCEnvDescriptor@@@@@@@2@@Z PROC ; stlp_std::priv::_Select1st<stlp_std::pair<shared_str const ,xr_vector<CEnvDescriptor *,xalloc<CEnvDescriptor *> > > >::operator(), COMDAT
; ___x$ = eax

; 133  :     return __x.first;
; 134  :   }

	ret	0
??R?$_Select1st@U?$pair@$$CBVshared_str@@V?$xr_vector@PAVCEnvDescriptor@@V?$xalloc@PAVCEnvDescriptor@@@@@@@stlp_std@@@priv@stlp_std@@QBEABVshared_str@@ABU?$pair@$$CBVshared_str@@V?$xr_vector@PAVCEnvDescriptor@@V?$xalloc@PAVCEnvDescriptor@@@@@@@2@@Z ENDP ; stlp_std::priv::_Select1st<stlp_std::pair<shared_str const ,xr_vector<CEnvDescriptor *,xalloc<CEnvDescriptor *> > > >::operator()
; Function compile flags: /Ogtpy
; File d:\clearsky\sources\sdk\include\stlport\stl\type_traits.h
_TEXT	ENDS
;	COMDAT ?_Answer@?$_BothPtrType@PBUParticle@CEffect_Rain@@PAU12@@stlp_std@@SA?AU__true_type@2@XZ
_TEXT	SEGMENT
?_Answer@?$_BothPtrType@PBUParticle@CEffect_Rain@@PAU12@@stlp_std@@SA?AU__true_type@2@XZ PROC ; stlp_std::_BothPtrType<CEffect_Rain::Particle const *,CEffect_Rain::Particle *>::_Answer, COMDAT

; 468  :   static _Ret _Answer() { return _Ret(); }

	xor	al, al
	ret	0
?_Answer@?$_BothPtrType@PBUParticle@CEffect_Rain@@PAU12@@stlp_std@@SA?AU__true_type@2@XZ ENDP ; stlp_std::_BothPtrType<CEffect_Rain::Particle const *,CEffect_Rain::Particle *>::_Answer
; Function compile flags: /Ogtpy
_TEXT	ENDS
;	COMDAT ?_Answer@?$_BothPtrType@PBUItem@CEffect_Rain@@PAU12@@stlp_std@@SA?AU__true_type@2@XZ
_TEXT	SEGMENT
?_Answer@?$_BothPtrType@PBUItem@CEffect_Rain@@PAU12@@stlp_std@@SA?AU__true_type@2@XZ PROC ; stlp_std::_BothPtrType<CEffect_Rain::Item const *,CEffect_Rain::Item *>::_Answer, COMDAT

; 468  :   static _Ret _Answer() { return _Ret(); }

	xor	al, al
	ret	0
?_Answer@?$_BothPtrType@PBUItem@CEffect_Rain@@PAU12@@stlp_std@@SA?AU__true_type@2@XZ ENDP ; stlp_std::_BothPtrType<CEffect_Rain::Item const *,CEffect_Rain::Item *>::_Answer
; Function compile flags: /Ogtpy
_TEXT	ENDS
;	COMDAT ?_Answer@?$_BothPtrType@PBUSFlare@CLensFlareDescriptor@@PAU12@@stlp_std@@SA?AU__true_type@2@XZ
_TEXT	SEGMENT
?_Answer@?$_BothPtrType@PBUSFlare@CLensFlareDescriptor@@PAU12@@stlp_std@@SA?AU__true_type@2@XZ PROC ; stlp_std::_BothPtrType<CLensFlareDescriptor::SFlare const *,CLensFlareDescriptor::SFlare *>::_Answer, COMDAT

; 468  :   static _Ret _Answer() { return _Ret(); }

	xor	al, al
	ret	0
?_Answer@?$_BothPtrType@PBUSFlare@CLensFlareDescriptor@@PAU12@@stlp_std@@SA?AU__true_type@2@XZ ENDP ; stlp_std::_BothPtrType<CLensFlareDescriptor::SFlare const *,CLensFlareDescriptor::SFlare *>::_Answer
; Function compile flags: /Ogtpy
_TEXT	ENDS
;	COMDAT ?_Answer@?$_BothPtrType@PBUrq_result@collide@@PAU12@@stlp_std@@SA?AU__true_type@2@XZ
_TEXT	SEGMENT
?_Answer@?$_BothPtrType@PBUrq_result@collide@@PAU12@@stlp_std@@SA?AU__true_type@2@XZ PROC ; stlp_std::_BothPtrType<collide::rq_result const *,collide::rq_result *>::_Answer, COMDAT

; 468  :   static _Ret _Answer() { return _Ret(); }

	xor	al, al
	ret	0
?_Answer@?$_BothPtrType@PBUrq_result@collide@@PAU12@@stlp_std@@SA?AU__true_type@2@XZ ENDP ; stlp_std::_BothPtrType<collide::rq_result const *,collide::rq_result *>::_Answer
; Function compile flags: /Ogtpy
; File d:\clearsky\sources\sdk\include\stlport\stl\_iterator.h
_TEXT	ENDS
;	COMDAT ??E?$reverse_iterator@PAUSFlare@CLensFlareDescriptor@@@stlp_std@@QAEAAV01@XZ
_TEXT	SEGMENT
??E?$reverse_iterator@PAUSFlare@CLensFlareDescriptor@@@stlp_std@@QAEAAV01@XZ PROC ; stlp_std::reverse_iterator<CLensFlareDescriptor::SFlare *>::operator++, COMDAT
; _this$ = eax

; 82   :     --current;

	add	DWORD PTR [eax], -24			; ffffffe8H

; 83   :     return *this;
; 84   :   }

	ret	0
??E?$reverse_iterator@PAUSFlare@CLensFlareDescriptor@@@stlp_std@@QAEAAV01@XZ ENDP ; stlp_std::reverse_iterator<CLensFlareDescriptor::SFlare *>::operator++
; Function compile flags: /Ogtpy
_TEXT	ENDS
;	COMDAT ??D?$reverse_iterator@PAUSFlare@CLensFlareDescriptor@@@stlp_std@@QBEAAUSFlare@CLensFlareDescriptor@@XZ
_TEXT	SEGMENT
??D?$reverse_iterator@PAUSFlare@CLensFlareDescriptor@@@stlp_std@@QBEAAUSFlare@CLensFlareDescriptor@@XZ PROC ; stlp_std::reverse_iterator<CLensFlareDescriptor::SFlare *>::operator*, COMDAT
; _this$ = eax

; 77   :     _Iterator __tmp = current;
; 78   :     return *--__tmp;

	mov	eax, DWORD PTR [eax]
	sub	eax, 24					; 00000018H

; 79   :   }

	ret	0
??D?$reverse_iterator@PAUSFlare@CLensFlareDescriptor@@@stlp_std@@QBEAAUSFlare@CLensFlareDescriptor@@XZ ENDP ; stlp_std::reverse_iterator<CLensFlareDescriptor::SFlare *>::operator*
; Function compile flags: /Ogtpy
; File d:\clearsky\sources\sdk\include\stlport\stl\_construct.h
_TEXT	ENDS
;	COMDAT ??$__destroy_range_aux@PAUrq_result@collide@@U12@@stlp_std@@YAXPAUrq_result@collide@@00ABU__true_type@0@@Z
_TEXT	SEGMENT
??$__destroy_range_aux@PAUrq_result@collide@@U12@@stlp_std@@YAXPAUrq_result@collide@@00ABU__true_type@0@@Z PROC ; stlp_std::__destroy_range_aux<collide::rq_result *,collide::rq_result>, COMDAT

; 169  : __destroy_range_aux(_ForwardIterator, _ForwardIterator, _Tp*, const __true_type& /*_Trivial_destructor*/) {}

	ret	0
??$__destroy_range_aux@PAUrq_result@collide@@U12@@stlp_std@@YAXPAUrq_result@collide@@00ABU__true_type@0@@Z ENDP ; stlp_std::__destroy_range_aux<collide::rq_result *,collide::rq_result>
; Function compile flags: /Ogtpy
_TEXT	ENDS
;	COMDAT ??$__destroy_range_aux@V?$reverse_iterator@PAUParticle@CEffect_Rain@@@stlp_std@@UParticle@CEffect_Rain@@@stlp_std@@YAXV?$reverse_iterator@PAUParticle@CEffect_Rain@@@0@0PAUParticle@CEffect_Rain@@ABU__true_type@0@@Z
_TEXT	SEGMENT
___formal$ = 8						; size = 4
___formal$ = 12						; size = 4
??$__destroy_range_aux@V?$reverse_iterator@PAUParticle@CEffect_Rain@@@stlp_std@@UParticle@CEffect_Rain@@@stlp_std@@YAXV?$reverse_iterator@PAUParticle@CEffect_Rain@@@0@0PAUParticle@CEffect_Rain@@ABU__true_type@0@@Z PROC ; stlp_std::__destroy_range_aux<stlp_std::reverse_iterator<CEffect_Rain::Particle *>,CEffect_Rain::Particle>, COMDAT

; 169  : __destroy_range_aux(_ForwardIterator, _ForwardIterator, _Tp*, const __true_type& /*_Trivial_destructor*/) {}

	ret	0
??$__destroy_range_aux@V?$reverse_iterator@PAUParticle@CEffect_Rain@@@stlp_std@@UParticle@CEffect_Rain@@@stlp_std@@YAXV?$reverse_iterator@PAUParticle@CEffect_Rain@@@0@0PAUParticle@CEffect_Rain@@ABU__true_type@0@@Z ENDP ; stlp_std::__destroy_range_aux<stlp_std::reverse_iterator<CEffect_Rain::Particle *>,CEffect_Rain::Particle>
; Function compile flags: /Ogtpy
_TEXT	ENDS
;	COMDAT ??$__destroy_range_aux@V?$reverse_iterator@PAUItem@CEffect_Rain@@@stlp_std@@UItem@CEffect_Rain@@@stlp_std@@YAXV?$reverse_iterator@PAUItem@CEffect_Rain@@@0@0PAUItem@CEffect_Rain@@ABU__true_type@0@@Z
_TEXT	SEGMENT
___formal$ = 8						; size = 4
___formal$ = 12						; size = 4
??$__destroy_range_aux@V?$reverse_iterator@PAUItem@CEffect_Rain@@@stlp_std@@UItem@CEffect_Rain@@@stlp_std@@YAXV?$reverse_iterator@PAUItem@CEffect_Rain@@@0@0PAUItem@CEffect_Rain@@ABU__true_type@0@@Z PROC ; stlp_std::__destroy_range_aux<stlp_std::reverse_iterator<CEffect_Rain::Item *>,CEffect_Rain::Item>, COMDAT

; 169  : __destroy_range_aux(_ForwardIterator, _ForwardIterator, _Tp*, const __true_type& /*_Trivial_destructor*/) {}

	ret	0
??$__destroy_range_aux@V?$reverse_iterator@PAUItem@CEffect_Rain@@@stlp_std@@UItem@CEffect_Rain@@@stlp_std@@YAXV?$reverse_iterator@PAUItem@CEffect_Rain@@@0@0PAUItem@CEffect_Rain@@ABU__true_type@0@@Z ENDP ; stlp_std::__destroy_range_aux<stlp_std::reverse_iterator<CEffect_Rain::Item *>,CEffect_Rain::Item>
; Function compile flags: /Ogtpy
_TEXT	ENDS
;	COMDAT ??$__destroy_range_aux@V?$reverse_iterator@PAUrq_result@collide@@@stlp_std@@Urq_result@collide@@@stlp_std@@YAXV?$reverse_iterator@PAUrq_result@collide@@@0@0PAUrq_result@collide@@ABU__true_type@0@@Z
_TEXT	SEGMENT
___formal$ = 8						; size = 4
___formal$ = 12						; size = 4
??$__destroy_range_aux@V?$reverse_iterator@PAUrq_result@collide@@@stlp_std@@Urq_result@collide@@@stlp_std@@YAXV?$reverse_iterator@PAUrq_result@collide@@@0@0PAUrq_result@collide@@ABU__true_type@0@@Z PROC ; stlp_std::__destroy_range_aux<stlp_std::reverse_iterator<collide::rq_result *>,collide::rq_result>, COMDAT

; 169  : __destroy_range_aux(_ForwardIterator, _ForwardIterator, _Tp*, const __true_type& /*_Trivial_destructor*/) {}

	ret	0
??$__destroy_range_aux@V?$reverse_iterator@PAUrq_result@collide@@@stlp_std@@Urq_result@collide@@@stlp_std@@YAXV?$reverse_iterator@PAUrq_result@collide@@@0@0PAUrq_result@collide@@ABU__true_type@0@@Z ENDP ; stlp_std::__destroy_range_aux<stlp_std::reverse_iterator<collide::rq_result *>,collide::rq_result>
; Function compile flags: /Ogtpy
; File d:\clearsky\sources\sdk\include\stlport\stl\_iterator_base.h
_TEXT	ENDS
;	COMDAT ??$advance@PAPAVCEnvDescriptor@@H@stlp_std@@YAXAAPAPAVCEnvDescriptor@@H@Z
_TEXT	SEGMENT
??$advance@PAPAVCEnvDescriptor@@H@stlp_std@@YAXAAPAPAVCEnvDescriptor@@H@Z PROC ; stlp_std::advance<CEnvDescriptor * *,int>, COMDAT
; ___i$ = eax
; ___n$ = ecx

; 527  :   __advance(__i, __n, _STLP_ITERATOR_CATEGORY(__i, _InputIterator));

	lea	edx, DWORD PTR [ecx*4]
	add	DWORD PTR [eax], edx

; 528  : }

	ret	0
??$advance@PAPAVCEnvDescriptor@@H@stlp_std@@YAXAAPAPAVCEnvDescriptor@@H@Z ENDP ; stlp_std::advance<CEnvDescriptor * *,int>
; Function compile flags: /Ogtpy
_TEXT	ENDS
;	COMDAT ??$distance@PAPAVCEnvDescriptor@@@stlp_std@@YAHPAPAVCEnvDescriptor@@0@Z
_TEXT	SEGMENT
___first$ = 8						; size = 4
??$distance@PAPAVCEnvDescriptor@@@stlp_std@@YAHPAPAVCEnvDescriptor@@0@Z PROC ; stlp_std::distance<CEnvDescriptor * *>, COMDAT
; ___last$ = eax

; 378  :   return __distance(__first, __last, _STLP_ITERATOR_CATEGORY(__first, _InputIterator));

	sub	eax, DWORD PTR ___first$[esp-4]
	sar	eax, 2

; 379  : }

	ret	0
??$distance@PAPAVCEnvDescriptor@@@stlp_std@@YAHPAPAVCEnvDescriptor@@0@Z ENDP ; stlp_std::distance<CEnvDescriptor * *>
; Function compile flags: /Ogtpy
; File d:\clearsky\sources\sdk\include\stlport\stl\_algo.c
_TEXT	ENDS
;	COMDAT ??$__unguarded_insertion_sort@PAPAVCEnvDescriptor@@P6A_NPBV1@0@Z@priv@stlp_std@@YAXPAPAVCEnvDescriptor@@0P6A_NPBV2@1@Z@Z
_TEXT	SEGMENT
??$__unguarded_insertion_sort@PAPAVCEnvDescriptor@@P6A_NPBV1@0@Z@priv@stlp_std@@YAXPAPAVCEnvDescriptor@@0P6A_NPBV2@1@Z@Z PROC ; stlp_std::priv::__unguarded_insertion_sort<CEnvDescriptor * *,bool (__cdecl*)(CEnvDescriptor const *,CEnvDescriptor const *)>, COMDAT
; ___first$ = edx
; ___last$ = ecx
; ___comp$ = eax

; 943  :   __unguarded_insertion_sort_aux(__first, __last, _STLP_VALUE_TYPE(__first, _RandomAccessIter), __comp);

	push	eax
	push	ecx
	push	edx
	call	??$__unguarded_insertion_sort_aux@PAPAVCEnvDescriptor@@PAV1@P6A_NPBV1@0@Z@priv@stlp_std@@YAXPAPAVCEnvDescriptor@@00P6A_NPBV2@1@Z@Z ; stlp_std::priv::__unguarded_insertion_sort_aux<CEnvDescriptor * *,CEnvDescriptor *,bool (__cdecl*)(CEnvDescriptor const *,CEnvDescriptor const *)>
	add	esp, 12					; 0000000cH

; 944  : }

	ret	0
??$__unguarded_insertion_sort@PAPAVCEnvDescriptor@@P6A_NPBV1@0@Z@priv@stlp_std@@YAXPAPAVCEnvDescriptor@@0P6A_NPBV2@1@Z@Z ENDP ; stlp_std::priv::__unguarded_insertion_sort<CEnvDescriptor * *,bool (__cdecl*)(CEnvDescriptor const *,CEnvDescriptor const *)>
; Function compile flags: /Ogtpy
_TEXT	ENDS
;	COMDAT ??$__unguarded_partition@PAPAVCEnvDescriptor@@PAV1@P6A_NPBV1@0@Z@priv@stlp_std@@YAPAPAVCEnvDescriptor@@PAPAV2@0PAV2@P6A_NPBV2@2@Z@Z
_TEXT	SEGMENT
___pivot$ = 8						; size = 4
??$__unguarded_partition@PAPAVCEnvDescriptor@@PAV1@P6A_NPBV1@0@Z@priv@stlp_std@@YAPAPAVCEnvDescriptor@@PAPAV2@0PAV2@P6A_NPBV2@2@Z@Z PROC ; stlp_std::priv::__unguarded_partition<CEnvDescriptor * *,CEnvDescriptor *,bool (__cdecl*)(CEnvDescriptor const *,CEnvDescriptor const *)>, COMDAT
; ___first$ = ecx
; ___last$ = eax
; ___comp$ = ebx

; 873  :                                         _Tp __pivot, _Compare __comp) {

	push	ebp
	mov	ebp, DWORD PTR ___pivot$[esp]
	push	esi
	push	edi
	mov	esi, eax
	mov	edi, ecx
	npad	5
$LL7@unguarded_@10:

; 874  :   for (;;) {
; 875  :     while (__comp(*__first, __pivot)) {

	mov	eax, DWORD PTR [edi]
	push	ebp
	push	eax
	call	ebx
	add	esp, 8
	test	al, al
	je	SHORT $LN4@unguarded_@10
	npad	3
$LL5@unguarded_@10:
	mov	ecx, DWORD PTR [edi+4]

; 876  :       _STLP_VERBOSE_ASSERT(!__comp(__pivot, *__first), _StlMsg_INVALID_STRICT_WEAK_PREDICATE)
; 877  :       ++__first;

	add	edi, 4
	push	ebp
	push	ecx
	call	ebx
	add	esp, 8
	test	al, al
	jne	SHORT $LL5@unguarded_@10
$LN4@unguarded_@10:

; 878  :     }
; 879  :     --__last;
; 880  :     while (__comp(__pivot, *__last)) {

	mov	edx, DWORD PTR [esi-4]
	sub	esi, 4
	push	edx
	push	ebp
	call	ebx
	add	esp, 8
	test	al, al
	je	SHORT $LN2@unguarded_@10
$LL3@unguarded_@10:
	mov	eax, DWORD PTR [esi-4]

; 881  :       _STLP_VERBOSE_ASSERT(!__comp(*__last, __pivot), _StlMsg_INVALID_STRICT_WEAK_PREDICATE)
; 882  :       --__last;

	sub	esi, 4
	push	eax
	push	ebp
	call	ebx
	add	esp, 8
	test	al, al
	jne	SHORT $LL3@unguarded_@10
$LN2@unguarded_@10:

; 883  :     }
; 884  :     if (!(__first < __last))

	cmp	edi, esi
	jae	SHORT $LN31@unguarded_@10

; 886  :     iter_swap(__first, __last);

	mov	eax, DWORD PTR [edi]
	mov	ecx, DWORD PTR [esi]
	mov	DWORD PTR [edi], ecx
	mov	DWORD PTR [esi], eax

; 887  :     ++__first;

	add	edi, 4

; 888  :   }

	jmp	SHORT $LL7@unguarded_@10
$LN31@unguarded_@10:

; 885  :       return __first;

	mov	eax, edi
	pop	edi
	pop	esi
	pop	ebp

; 889  : }

	ret	0
??$__unguarded_partition@PAPAVCEnvDescriptor@@PAV1@P6A_NPBV1@0@Z@priv@stlp_std@@YAPAPAVCEnvDescriptor@@PAPAV2@0PAV2@P6A_NPBV2@2@Z@Z ENDP ; stlp_std::priv::__unguarded_partition<CEnvDescriptor * *,CEnvDescriptor *,bool (__cdecl*)(CEnvDescriptor const *,CEnvDescriptor const *)>
; Function compile flags: /Ogtpy
_TEXT	ENDS
;	COMDAT ??$__median@PAVCEnvDescriptor@@P6A_NPBV1@0@Z@priv@stlp_std@@YAABQAVCEnvDescriptor@@ABQAV2@00P6A_NPBV2@1@Z@Z
_TEXT	SEGMENT
___a$ = 8						; size = 4
??$__median@PAVCEnvDescriptor@@P6A_NPBV1@0@Z@priv@stlp_std@@YAABQAVCEnvDescriptor@@ABQAV2@00P6A_NPBV2@1@Z@Z PROC ; stlp_std::priv::__median<CEnvDescriptor *,bool (__cdecl*)(CEnvDescriptor const *,CEnvDescriptor const *)>, COMDAT
; ___b$ = ebx
; ___c$ = edi
; ___comp$ = esi

; 84   :   if (__comp(__a, __b)) {

	mov	eax, DWORD PTR [ebx]
	push	ebp
	mov	ebp, DWORD PTR ___a$[esp]
	mov	ecx, DWORD PTR [ebp]
	push	eax
	push	ecx
	call	esi
	add	esp, 8
	test	al, al
	je	SHORT $LN10@median@4

; 85   :     _STLP_VERBOSE_ASSERT(!__comp(__b, __a), _StlMsg_INVALID_STRICT_WEAK_PREDICATE)
; 86   :     if (__comp(__b, __c)) {

	mov	edx, DWORD PTR [edi]
	mov	eax, DWORD PTR [ebx]
	push	edx
	push	eax
	call	esi
	add	esp, 8
	test	al, al

; 87   :       _STLP_VERBOSE_ASSERT(!__comp(__c, __b), _StlMsg_INVALID_STRICT_WEAK_PREDICATE)
; 88   :       return __b;

	jne	SHORT $LN2@median@4

; 89   :     }
; 90   :     else if (__comp(__a, __c)) {

	mov	ecx, DWORD PTR [edi]
	mov	edx, DWORD PTR [ebp]
	push	ecx
	push	edx
	call	esi
	add	esp, 8
	test	al, al
	je	SHORT $LN7@median@4

; 91   :       _STLP_VERBOSE_ASSERT(!__comp(__c, __a), _StlMsg_INVALID_STRICT_WEAK_PREDICATE)
; 92   :       return __c;

	mov	eax, edi
	pop	ebp

; 107  : }

	ret	0
$LN7@median@4:

; 93   :     }
; 94   :     else
; 95   :       return __a;

	mov	eax, ebp
	pop	ebp

; 107  : }

	ret	0
$LN10@median@4:

; 96   :   }
; 97   :   else if (__comp(__a, __c)) {

	mov	eax, DWORD PTR [edi]
	mov	ecx, DWORD PTR [ebp]
	push	eax
	push	ecx
	call	esi
	add	esp, 8
	test	al, al

; 98   :     _STLP_VERBOSE_ASSERT(!__comp(__c, __a), _StlMsg_INVALID_STRICT_WEAK_PREDICATE)
; 99   :     return __a;

	jne	SHORT $LN7@median@4

; 100  :   }
; 101  :   else if (__comp(__b, __c)) {

	mov	edx, DWORD PTR [edi]
	mov	eax, DWORD PTR [ebx]
	push	edx
	push	eax
	call	esi
	add	esp, 8
	test	al, al

; 102  :     _STLP_VERBOSE_ASSERT(!__comp(__c, __b), _StlMsg_INVALID_STRICT_WEAK_PREDICATE)
; 103  :     return __c;

	mov	eax, edi
	jne	SHORT $LN1@median@4
$LN2@median@4:

; 104  :   }
; 105  :   else
; 106  :     return __b;

	mov	eax, ebx
$LN1@median@4:
	pop	ebp

; 107  : }

	ret	0
??$__median@PAVCEnvDescriptor@@P6A_NPBV1@0@Z@priv@stlp_std@@YAABQAVCEnvDescriptor@@ABQAV2@00P6A_NPBV2@1@Z@Z ENDP ; stlp_std::priv::__median<CEnvDescriptor *,bool (__cdecl*)(CEnvDescriptor const *,CEnvDescriptor const *)>
; Function compile flags: /Ogtpy
; File d:\clearsky\sources\sdk\include\stlport\stl\_algobase.h
_TEXT	ENDS
;	COMDAT ??$fill@PAMM@stlp_std@@YAXPAM0ABM@Z
_TEXT	SEGMENT
??$fill@PAMM@stlp_std@@YAXPAM0ABM@Z PROC		; stlp_std::fill<float *,float>, COMDAT
; ___first$ = eax
; ___last$ = ecx
; ___val$ = edx

; 393  :   _STLP_DEBUG_CHECK(_STLP_PRIV __check_range(__first, __last))
; 394  :   for ( ; __first != __last; ++__first)

	cmp	eax, ecx
	je	SHORT $LN1@fill@6
$LL3@fill@6:

; 395  :     *__first = __val;

	fld	DWORD PTR [edx]
	add	eax, 4
	cmp	eax, ecx
	fstp	DWORD PTR [eax-4]
	jne	SHORT $LL3@fill@6
$LN1@fill@6:

; 396  : }

	ret	0
??$fill@PAMM@stlp_std@@YAXPAM0ABM@Z ENDP		; stlp_std::fill<float *,float>
; Function compile flags: /Ogtpy
_TEXT	ENDS
;	COMDAT ??$__fill_n@PAMIM@priv@stlp_std@@YAPAMPAMIABM@Z
_TEXT	SEGMENT
??$__fill_n@PAMIM@priv@stlp_std@@YAPAMPAMIABM@Z PROC	; stlp_std::priv::__fill_n<float *,unsigned int,float>, COMDAT
; ___first$ = eax
; ___n$ = ecx
; ___val$ = edx

; 403  :   _STLP_FIX_LITERAL_BUG(__first)
; 404  :   for ( ; __n > 0; --__n, ++__first)

	test	ecx, ecx
	jbe	SHORT $LN1@fill_n@14
$LL3@fill_n@14:

; 405  :     *__first = __val;

	fld	DWORD PTR [edx]
	sub	ecx, 1
	fstp	DWORD PTR [eax]
	add	eax, 4
	test	ecx, ecx
	ja	SHORT $LL3@fill_n@14
$LN1@fill_n@14:

; 406  :   return __first;
; 407  : }

	ret	0
??$__fill_n@PAMIM@priv@stlp_std@@YAPAMPAMIABM@Z ENDP	; stlp_std::priv::__fill_n<float *,unsigned int,float>
; Function compile flags: /Ogtpy
; File d:\clearsky\sources\sdk\include\stlport\stl\_construct.h
_TEXT	ENDS
;	COMDAT ??$__destroy_range@PAUParticle@CEffect_Rain@@U12@@stlp_std@@YAXPAUParticle@CEffect_Rain@@00@Z
_TEXT	SEGMENT
??$__destroy_range@PAUParticle@CEffect_Rain@@U12@@stlp_std@@YAXPAUParticle@CEffect_Rain@@00@Z PROC ; stlp_std::__destroy_range<CEffect_Rain::Particle *,CEffect_Rain::Particle>, COMDAT

; 175  :   typedef typename __type_traits<_Tp>::has_trivial_destructor _Trivial_destructor;
; 176  :   __destroy_range_aux(__first, __last, __ptr, _Trivial_destructor());
; 177  : }

	ret	0
??$__destroy_range@PAUParticle@CEffect_Rain@@U12@@stlp_std@@YAXPAUParticle@CEffect_Rain@@00@Z ENDP ; stlp_std::__destroy_range<CEffect_Rain::Particle *,CEffect_Rain::Particle>
; Function compile flags: /Ogtpy
_TEXT	ENDS
;	COMDAT ??$__destroy_range@PAUItem@CEffect_Rain@@U12@@stlp_std@@YAXPAUItem@CEffect_Rain@@00@Z
_TEXT	SEGMENT
??$__destroy_range@PAUItem@CEffect_Rain@@U12@@stlp_std@@YAXPAUItem@CEffect_Rain@@00@Z PROC ; stlp_std::__destroy_range<CEffect_Rain::Item *,CEffect_Rain::Item>, COMDAT

; 175  :   typedef typename __type_traits<_Tp>::has_trivial_destructor _Trivial_destructor;
; 176  :   __destroy_range_aux(__first, __last, __ptr, _Trivial_destructor());
; 177  : }

	ret	0
??$__destroy_range@PAUItem@CEffect_Rain@@U12@@stlp_std@@YAXPAUItem@CEffect_Rain@@00@Z ENDP ; stlp_std::__destroy_range<CEffect_Rain::Item *,CEffect_Rain::Item>
; Function compile flags: /Ogtpy
; File d:\clearsky\sources\sdk\include\stlport\stl\_algobase.h
_TEXT	ENDS
;	COMDAT ??$fill@PAGG@stlp_std@@YAXPAG0ABG@Z
_TEXT	SEGMENT
??$fill@PAGG@stlp_std@@YAXPAG0ABG@Z PROC		; stlp_std::fill<unsigned short *,unsigned short>, COMDAT
; ___first$ = eax
; ___last$ = ecx
; ___val$ = edx

; 393  :   _STLP_DEBUG_CHECK(_STLP_PRIV __check_range(__first, __last))
; 394  :   for ( ; __first != __last; ++__first)

	cmp	eax, ecx
	je	SHORT $LN1@fill@7
	push	esi
$LL3@fill@7:

; 395  :     *__first = __val;

	mov	si, WORD PTR [edx]
	mov	WORD PTR [eax], si
	add	eax, 2
	cmp	eax, ecx
	jne	SHORT $LL3@fill@7
	pop	esi
$LN1@fill@7:

; 396  : }

	ret	0
??$fill@PAGG@stlp_std@@YAXPAG0ABG@Z ENDP		; stlp_std::fill<unsigned short *,unsigned short>
; Function compile flags: /Ogtpy
_TEXT	ENDS
;	COMDAT ??$__fill_n@PAGIG@priv@stlp_std@@YAPAGPAGIABG@Z
_TEXT	SEGMENT
??$__fill_n@PAGIG@priv@stlp_std@@YAPAGPAGIABG@Z PROC	; stlp_std::priv::__fill_n<unsigned short *,unsigned int,unsigned short>, COMDAT
; ___first$ = eax
; ___n$ = ecx
; ___val$ = edx

; 403  :   _STLP_FIX_LITERAL_BUG(__first)
; 404  :   for ( ; __n > 0; --__n, ++__first)

	test	ecx, ecx
	jbe	SHORT $LN1@fill_n@15
	push	esi
$LL3@fill_n@15:

; 405  :     *__first = __val;

	mov	si, WORD PTR [edx]
	mov	WORD PTR [eax], si
	sub	ecx, 1
	add	eax, 2
	test	ecx, ecx
	ja	SHORT $LL3@fill_n@15
	pop	esi
$LN1@fill_n@15:

; 406  :   return __first;
; 407  : }

	ret	0
??$__fill_n@PAGIG@priv@stlp_std@@YAPAGPAGIABG@Z ENDP	; stlp_std::priv::__fill_n<unsigned short *,unsigned int,unsigned short>
; Function compile flags: /Ogtpy
_TEXT	ENDS
;	COMDAT ??$fill@PAU?$_vector3@M@@U1@@stlp_std@@YAXPAU?$_vector3@M@@0ABU1@@Z
_TEXT	SEGMENT
??$fill@PAU?$_vector3@M@@U1@@stlp_std@@YAXPAU?$_vector3@M@@0ABU1@@Z PROC ; stlp_std::fill<_vector3<float> *,_vector3<float> >, COMDAT
; ___first$ = eax
; ___last$ = edx
; ___val$ = ecx

; 393  :   _STLP_DEBUG_CHECK(_STLP_PRIV __check_range(__first, __last))
; 394  :   for ( ; __first != __last; ++__first)

	cmp	eax, edx
	je	SHORT $LN1@fill@8
	push	esi
$LL3@fill@8:

; 395  :     *__first = __val;

	mov	esi, DWORD PTR [ecx]
	mov	DWORD PTR [eax], esi
	mov	esi, DWORD PTR [ecx+4]
	mov	DWORD PTR [eax+4], esi
	mov	esi, DWORD PTR [ecx+8]
	mov	DWORD PTR [eax+8], esi
	add	eax, 12					; 0000000cH
	cmp	eax, edx
	jne	SHORT $LL3@fill@8
	pop	esi
$LN1@fill@8:

; 396  : }

	ret	0
??$fill@PAU?$_vector3@M@@U1@@stlp_std@@YAXPAU?$_vector3@M@@0ABU1@@Z ENDP ; stlp_std::fill<_vector3<float> *,_vector3<float> >
; Function compile flags: /Ogtpy
_TEXT	ENDS
;	COMDAT ??$__fill_n@PAU?$_vector3@M@@IU1@@priv@stlp_std@@YAPAU?$_vector3@M@@PAU2@IABU2@@Z
_TEXT	SEGMENT
??$__fill_n@PAU?$_vector3@M@@IU1@@priv@stlp_std@@YAPAU?$_vector3@M@@PAU2@IABU2@@Z PROC ; stlp_std::priv::__fill_n<_vector3<float> *,unsigned int,_vector3<float> >, COMDAT
; ___first$ = eax
; ___n$ = edx
; ___val$ = ecx

; 403  :   _STLP_FIX_LITERAL_BUG(__first)
; 404  :   for ( ; __n > 0; --__n, ++__first)

	test	edx, edx
	jbe	SHORT $LN1@fill_n@16
	push	esi
$LL3@fill_n@16:

; 405  :     *__first = __val;

	mov	esi, DWORD PTR [ecx]
	mov	DWORD PTR [eax], esi
	mov	esi, DWORD PTR [ecx+4]
	mov	DWORD PTR [eax+4], esi
	mov	esi, DWORD PTR [ecx+8]
	mov	DWORD PTR [eax+8], esi
	sub	edx, 1
	add	eax, 12					; 0000000cH
	test	edx, edx
	ja	SHORT $LL3@fill_n@16
	pop	esi
$LN1@fill_n@16:

; 406  :   return __first;
; 407  : }

	ret	0
??$__fill_n@PAU?$_vector3@M@@IU1@@priv@stlp_std@@YAPAU?$_vector3@M@@PAU2@IABU2@@Z ENDP ; stlp_std::priv::__fill_n<_vector3<float> *,unsigned int,_vector3<float> >
; Function compile flags: /Ogtpy
; File d:\clearsky\sources\sdk\include\stlport\stl\_vector.h
_TEXT	ENDS
;	COMDAT ?_M_set@?$_Impl_vector@MV?$xalloc@M@@@priv@stlp_std@@AAEXPAM00@Z
_TEXT	SEGMENT
___e$ = 8						; size = 4
?_M_set@?$_Impl_vector@MV?$xalloc@M@@@priv@stlp_std@@AAEXPAM00@Z PROC ; stlp_std::priv::_Impl_vector<float,xalloc<float> >::_M_set, COMDAT
; _this$ = eax
; ___s$ = ecx
; ___f$ = edx

; 626  :     this->_M_start = __s;

	mov	DWORD PTR [eax], ecx

; 627  :     this->_M_finish = __f;
; 628  :     this->_M_end_of_storage._M_data = __e;

	mov	ecx, DWORD PTR ___e$[esp-4]
	mov	DWORD PTR [eax+4], edx
	mov	DWORD PTR [eax+8], ecx

; 629  :   }

	ret	4
?_M_set@?$_Impl_vector@MV?$xalloc@M@@@priv@stlp_std@@AAEXPAM00@Z ENDP ; stlp_std::priv::_Impl_vector<float,xalloc<float> >::_M_set
; Function compile flags: /Ogtpy
_TEXT	ENDS
;	COMDAT ?_M_is_inside@?$_Impl_vector@MV?$xalloc@M@@@priv@stlp_std@@ABE_NABM@Z
_TEXT	SEGMENT
?_M_is_inside@?$_Impl_vector@MV?$xalloc@M@@@priv@stlp_std@@ABE_NABM@Z PROC ; stlp_std::priv::_Impl_vector<float,xalloc<float> >::_M_is_inside, COMDAT
; _this$ = ecx
; ___x$ = eax

; 393  :     return (&__x >= this->_M_start && &__x < this->_M_finish);

	cmp	eax, DWORD PTR [ecx]
	jb	SHORT $LN3@M_is_insid@10
	cmp	eax, DWORD PTR [ecx+4]
	jae	SHORT $LN3@M_is_insid@10
	mov	eax, 1

; 394  :   }

	ret	0
$LN3@M_is_insid@10:

; 393  :     return (&__x >= this->_M_start && &__x < this->_M_finish);

	xor	eax, eax

; 394  :   }

	ret	0
?_M_is_inside@?$_Impl_vector@MV?$xalloc@M@@@priv@stlp_std@@ABE_NABM@Z ENDP ; stlp_std::priv::_Impl_vector<float,xalloc<float> >::_M_is_inside
; Function compile flags: /Ogtpy
_TEXT	ENDS
;	COMDAT ?_M_set@?$_Impl_vector@GV?$xalloc@G@@@priv@stlp_std@@AAEXPAG00@Z
_TEXT	SEGMENT
___e$ = 8						; size = 4
?_M_set@?$_Impl_vector@GV?$xalloc@G@@@priv@stlp_std@@AAEXPAG00@Z PROC ; stlp_std::priv::_Impl_vector<unsigned short,xalloc<unsigned short> >::_M_set, COMDAT
; _this$ = eax
; ___s$ = ecx
; ___f$ = edx

; 626  :     this->_M_start = __s;

	mov	DWORD PTR [eax], ecx

; 627  :     this->_M_finish = __f;
; 628  :     this->_M_end_of_storage._M_data = __e;

	mov	ecx, DWORD PTR ___e$[esp-4]
	mov	DWORD PTR [eax+4], edx
	mov	DWORD PTR [eax+8], ecx

; 629  :   }

	ret	4
?_M_set@?$_Impl_vector@GV?$xalloc@G@@@priv@stlp_std@@AAEXPAG00@Z ENDP ; stlp_std::priv::_Impl_vector<unsigned short,xalloc<unsigned short> >::_M_set
; Function compile flags: /Ogtpy
_TEXT	ENDS
;	COMDAT ?_M_is_inside@?$_Impl_vector@GV?$xalloc@G@@@priv@stlp_std@@ABE_NABG@Z
_TEXT	SEGMENT
?_M_is_inside@?$_Impl_vector@GV?$xalloc@G@@@priv@stlp_std@@ABE_NABG@Z PROC ; stlp_std::priv::_Impl_vector<unsigned short,xalloc<unsigned short> >::_M_is_inside, COMDAT
; _this$ = ecx
; ___x$ = eax

; 393  :     return (&__x >= this->_M_start && &__x < this->_M_finish);

	cmp	eax, DWORD PTR [ecx]
	jb	SHORT $LN3@M_is_insid@11
	cmp	eax, DWORD PTR [ecx+4]
	jae	SHORT $LN3@M_is_insid@11
	mov	eax, 1

; 394  :   }

	ret	0
$LN3@M_is_insid@11:

; 393  :     return (&__x >= this->_M_start && &__x < this->_M_finish);

	xor	eax, eax

; 394  :   }

	ret	0
?_M_is_inside@?$_Impl_vector@GV?$xalloc@G@@@priv@stlp_std@@ABE_NABG@Z ENDP ; stlp_std::priv::_Impl_vector<unsigned short,xalloc<unsigned short> >::_M_is_inside
; Function compile flags: /Ogtpy
_TEXT	ENDS
;	COMDAT ?_M_set@?$_Impl_vector@U?$_vector3@M@@V?$xalloc@U?$_vector3@M@@@@@priv@stlp_std@@AAEXPAU?$_vector3@M@@00@Z
_TEXT	SEGMENT
___e$ = 8						; size = 4
?_M_set@?$_Impl_vector@U?$_vector3@M@@V?$xalloc@U?$_vector3@M@@@@@priv@stlp_std@@AAEXPAU?$_vector3@M@@00@Z PROC ; stlp_std::priv::_Impl_vector<_vector3<float>,xalloc<_vector3<float> > >::_M_set, COMDAT
; _this$ = eax
; ___s$ = ecx
; ___f$ = edx

; 626  :     this->_M_start = __s;

	mov	DWORD PTR [eax], ecx

; 627  :     this->_M_finish = __f;
; 628  :     this->_M_end_of_storage._M_data = __e;

	mov	ecx, DWORD PTR ___e$[esp-4]
	mov	DWORD PTR [eax+4], edx
	mov	DWORD PTR [eax+8], ecx

; 629  :   }

	ret	4
?_M_set@?$_Impl_vector@U?$_vector3@M@@V?$xalloc@U?$_vector3@M@@@@@priv@stlp_std@@AAEXPAU?$_vector3@M@@00@Z ENDP ; stlp_std::priv::_Impl_vector<_vector3<float>,xalloc<_vector3<float> > >::_M_set
; Function compile flags: /Ogtpy
_TEXT	ENDS
;	COMDAT ?_M_is_inside@?$_Impl_vector@U?$_vector3@M@@V?$xalloc@U?$_vector3@M@@@@@priv@stlp_std@@ABE_NABU?$_vector3@M@@@Z
_TEXT	SEGMENT
?_M_is_inside@?$_Impl_vector@U?$_vector3@M@@V?$xalloc@U?$_vector3@M@@@@@priv@stlp_std@@ABE_NABU?$_vector3@M@@@Z PROC ; stlp_std::priv::_Impl_vector<_vector3<float>,xalloc<_vector3<float> > >::_M_is_inside, COMDAT
; _this$ = ecx
; ___x$ = eax

; 393  :     return (&__x >= this->_M_start && &__x < this->_M_finish);

	cmp	eax, DWORD PTR [ecx]
	jb	SHORT $LN3@M_is_insid@12
	cmp	eax, DWORD PTR [ecx+4]
	jae	SHORT $LN3@M_is_insid@12
	mov	eax, 1

; 394  :   }

	ret	0
$LN3@M_is_insid@12:

; 393  :     return (&__x >= this->_M_start && &__x < this->_M_finish);

	xor	eax, eax

; 394  :   }

	ret	0
?_M_is_inside@?$_Impl_vector@U?$_vector3@M@@V?$xalloc@U?$_vector3@M@@@@@priv@stlp_std@@ABE_NABU?$_vector3@M@@@Z ENDP ; stlp_std::priv::_Impl_vector<_vector3<float>,xalloc<_vector3<float> > >::_M_is_inside
; Function compile flags: /Ogtpy
; File d:\clearsky\sources\sdk\include\stlport\stl\_construct.h
_TEXT	ENDS
;	COMDAT ??$__destroy_range@PAUrq_result@collide@@U12@@stlp_std@@YAXPAUrq_result@collide@@00@Z
_TEXT	SEGMENT
??$__destroy_range@PAUrq_result@collide@@U12@@stlp_std@@YAXPAUrq_result@collide@@00@Z PROC ; stlp_std::__destroy_range<collide::rq_result *,collide::rq_result>, COMDAT

; 175  :   typedef typename __type_traits<_Tp>::has_trivial_destructor _Trivial_destructor;
; 176  :   __destroy_range_aux(__first, __last, __ptr, _Trivial_destructor());
; 177  : }

	ret	0
??$__destroy_range@PAUrq_result@collide@@U12@@stlp_std@@YAXPAUrq_result@collide@@00@Z ENDP ; stlp_std::__destroy_range<collide::rq_result *,collide::rq_result>
; Function compile flags: /Ogtpy
; File d:\clearsky\sources\sdk\include\stlport\stl\_algobase.c
_TEXT	ENDS
;	COMDAT ??$__lower_bound@PAPAVCEnvDescriptor@@MP6A_NPBV1@M@ZP6A_N0M@ZH@priv@stlp_std@@YAPAPAVCEnvDescriptor@@PAPAV2@0ABMP6A_NPBV2@M@Z3PAH@Z
_TEXT	SEGMENT
??$__lower_bound@PAPAVCEnvDescriptor@@MP6A_NPBV1@M@ZP6A_N0M@ZH@priv@stlp_std@@YAPAPAVCEnvDescriptor@@PAPAV2@0ABMP6A_NPBV2@M@Z3PAH@Z PROC ; stlp_std::priv::__lower_bound<CEnvDescriptor * *,float,bool (__cdecl*)(CEnvDescriptor const *,float),bool (__cdecl*)(CEnvDescriptor const *,float),int>, COMDAT
; ___first$ = eax
; ___last$ = edx
; ___val$ = ecx

; 375  :   _Distance __len = distance(__first, __last);

	sub	edx, eax
	sar	edx, 2

; 376  :   _Distance __half;
; 377  :   _ForwardIter __middle;
; 378  : 
; 379  :   while (__len > 0) {

	test	edx, edx
	jle	SHORT $LN3@lower_boun@2
	movss	xmm0, DWORD PTR [ecx]
	push	esi
	npad	2
$LL4@lower_boun@2:

; 380  :     __half = __len >> 1;

	mov	ecx, edx
	sar	ecx, 1

; 381  :     __middle = __first;
; 382  :     advance(__middle, __half);
; 383  :     if (__comp1(*__middle, __val)) {

	mov	esi, DWORD PTR [eax+ecx*4]
	comiss	xmm0, DWORD PTR [esi]
	jbe	SHORT $LN2@lower_boun@2

; 384  :       _STLP_VERBOSE_ASSERT(!__comp2(__val, *__middle), _StlMsg_INVALID_STRICT_WEAK_PREDICATE)
; 385  :       __first = __middle;
; 386  :       ++__first;
; 387  :       __len = __len - __half - 1;

	or	esi, -1
	sub	esi, ecx
	lea	eax, DWORD PTR [eax+ecx*4+4]
	add	edx, esi

; 388  :     }
; 389  :     else

	jmp	SHORT $LN1@lower_boun@2
$LN2@lower_boun@2:

; 390  :       __len = __half;

	mov	edx, ecx
$LN1@lower_boun@2:

; 376  :   _Distance __half;
; 377  :   _ForwardIter __middle;
; 378  : 
; 379  :   while (__len > 0) {

	test	edx, edx
	jg	SHORT $LL4@lower_boun@2
	pop	esi
$LN3@lower_boun@2:

; 391  :   }
; 392  :   return __first;
; 393  : }

	ret	0
??$__lower_bound@PAPAVCEnvDescriptor@@MP6A_NPBV1@M@ZP6A_N0M@ZH@priv@stlp_std@@YAPAPAVCEnvDescriptor@@PAPAV2@0ABMP6A_NPBV2@M@Z3PAH@Z ENDP ; stlp_std::priv::__lower_bound<CEnvDescriptor * *,float,bool (__cdecl*)(CEnvDescriptor const *,float),bool (__cdecl*)(CEnvDescriptor const *,float),int>
; Function compile flags: /Ogtpy
; File d:\clearsky\sources\sdk\include\stlport\stl\_construct.h
_TEXT	ENDS
;	COMDAT ??$_Destroy_Range@PAUParticle@CEffect_Rain@@@stlp_std@@YAXPAUParticle@CEffect_Rain@@0@Z
_TEXT	SEGMENT
??$_Destroy_Range@PAUParticle@CEffect_Rain@@@stlp_std@@YAXPAUParticle@CEffect_Rain@@0@Z PROC ; stlp_std::_Destroy_Range<CEffect_Rain::Particle *>, COMDAT

; 181  :   __destroy_range(__first, __last, _STLP_VALUE_TYPE(__first, _ForwardIterator));
; 182  : }

	ret	0
??$_Destroy_Range@PAUParticle@CEffect_Rain@@@stlp_std@@YAXPAUParticle@CEffect_Rain@@0@Z ENDP ; stlp_std::_Destroy_Range<CEffect_Rain::Particle *>
; Function compile flags: /Ogtpy
_TEXT	ENDS
;	COMDAT ??$_Destroy_Range@PAUItem@CEffect_Rain@@@stlp_std@@YAXPAUItem@CEffect_Rain@@0@Z
_TEXT	SEGMENT
??$_Destroy_Range@PAUItem@CEffect_Rain@@@stlp_std@@YAXPAUItem@CEffect_Rain@@0@Z PROC ; stlp_std::_Destroy_Range<CEffect_Rain::Item *>, COMDAT

; 181  :   __destroy_range(__first, __last, _STLP_VALUE_TYPE(__first, _ForwardIterator));
; 182  : }

	ret	0
??$_Destroy_Range@PAUItem@CEffect_Rain@@@stlp_std@@YAXPAUItem@CEffect_Rain@@0@Z ENDP ; stlp_std::_Destroy_Range<CEffect_Rain::Item *>
; Function compile flags: /Ogtpy
; File d:\clearsky\sources\sdk\include\stlport\stl\_algo.h
_TEXT	ENDS
;	COMDAT ??$__lg@H@priv@stlp_std@@YAHH@Z
_TEXT	SEGMENT
??$__lg@H@priv@stlp_std@@YAHH@Z PROC			; stlp_std::priv::__lg<int>, COMDAT
; ___n$ = ecx

; 425  :   _Size __k;
; 426  :   for (__k = 0; __n != 1; __n >>= 1) ++__k;

	xor	eax, eax
	cmp	ecx, 1
	je	SHORT $LN1@lg
$LL3@lg:
	sar	ecx, 1
	add	eax, 1
	cmp	ecx, 1
	jne	SHORT $LL3@lg
$LN1@lg:

; 427  :   return __k;
; 428  : }

	ret	0
??$__lg@H@priv@stlp_std@@YAHH@Z ENDP			; stlp_std::priv::__lg<int>
; Function compile flags: /Ogtpy
; File d:\clearsky\sources\sdk\include\stlport\stl\_iterator.h
_TEXT	ENDS
;	COMDAT ??0?$reverse_iterator@PAUParticle@CEffect_Rain@@@stlp_std@@QAE@ABV01@@Z
_TEXT	SEGMENT
??0?$reverse_iterator@PAUParticle@CEffect_Rain@@@stlp_std@@QAE@ABV01@@Z PROC ; stlp_std::reverse_iterator<CEffect_Rain::Particle *>::reverse_iterator<CEffect_Rain::Particle *>, COMDAT
; _this$ = eax
; ___x$ = ecx

; 66   :   reverse_iterator(const _Self& __x) : current(__x.current) {}

	mov	edx, DWORD PTR [ecx]
	mov	DWORD PTR [eax], edx
	ret	0
??0?$reverse_iterator@PAUParticle@CEffect_Rain@@@stlp_std@@QAE@ABV01@@Z ENDP ; stlp_std::reverse_iterator<CEffect_Rain::Particle *>::reverse_iterator<CEffect_Rain::Particle *>
; Function compile flags: /Ogtpy
_TEXT	ENDS
;	COMDAT ??0?$reverse_iterator@PAUItem@CEffect_Rain@@@stlp_std@@QAE@ABV01@@Z
_TEXT	SEGMENT
??0?$reverse_iterator@PAUItem@CEffect_Rain@@@stlp_std@@QAE@ABV01@@Z PROC ; stlp_std::reverse_iterator<CEffect_Rain::Item *>::reverse_iterator<CEffect_Rain::Item *>, COMDAT
; _this$ = eax
; ___x$ = ecx

; 66   :   reverse_iterator(const _Self& __x) : current(__x.current) {}

	mov	edx, DWORD PTR [ecx]
	mov	DWORD PTR [eax], edx
	ret	0
??0?$reverse_iterator@PAUItem@CEffect_Rain@@@stlp_std@@QAE@ABV01@@Z ENDP ; stlp_std::reverse_iterator<CEffect_Rain::Item *>::reverse_iterator<CEffect_Rain::Item *>
; Function compile flags: /Ogtpy
_TEXT	ENDS
;	COMDAT ??0?$reverse_iterator@PAUSFlare@CLensFlareDescriptor@@@stlp_std@@QAE@ABV01@@Z
_TEXT	SEGMENT
??0?$reverse_iterator@PAUSFlare@CLensFlareDescriptor@@@stlp_std@@QAE@ABV01@@Z PROC ; stlp_std::reverse_iterator<CLensFlareDescriptor::SFlare *>::reverse_iterator<CLensFlareDescriptor::SFlare *>, COMDAT
; _this$ = eax
; ___x$ = ecx

; 66   :   reverse_iterator(const _Self& __x) : current(__x.current) {}

	mov	edx, DWORD PTR [ecx]
	mov	DWORD PTR [eax], edx
	ret	0
??0?$reverse_iterator@PAUSFlare@CLensFlareDescriptor@@@stlp_std@@QAE@ABV01@@Z ENDP ; stlp_std::reverse_iterator<CLensFlareDescriptor::SFlare *>::reverse_iterator<CLensFlareDescriptor::SFlare *>
; Function compile flags: /Ogtpy
_TEXT	ENDS
;	COMDAT ??0?$reverse_iterator@PAUrq_result@collide@@@stlp_std@@QAE@ABV01@@Z
_TEXT	SEGMENT
??0?$reverse_iterator@PAUrq_result@collide@@@stlp_std@@QAE@ABV01@@Z PROC ; stlp_std::reverse_iterator<collide::rq_result *>::reverse_iterator<collide::rq_result *>, COMDAT
; _this$ = eax
; ___x$ = ecx

; 66   :   reverse_iterator(const _Self& __x) : current(__x.current) {}

	mov	edx, DWORD PTR [ecx]
	mov	DWORD PTR [eax], edx
	ret	0
??0?$reverse_iterator@PAUrq_result@collide@@@stlp_std@@QAE@ABV01@@Z ENDP ; stlp_std::reverse_iterator<collide::rq_result *>::reverse_iterator<collide::rq_result *>
; Function compile flags: /Ogtpy
; File d:\clearsky\sources\sdk\include\stlport\stl\_vector.h
_TEXT	ENDS
;	COMDAT ?capacity@?$_Impl_vector@UParticle@CEffect_Rain@@V?$xalloc@UParticle@CEffect_Rain@@@@@priv@stlp_std@@QBEIXZ
_TEXT	SEGMENT
?capacity@?$_Impl_vector@UParticle@CEffect_Rain@@V?$xalloc@UParticle@CEffect_Rain@@@@@priv@stlp_std@@QBEIXZ PROC ; stlp_std::priv::_Impl_vector<CEffect_Rain::Particle,xalloc<CEffect_Rain::Particle> >::capacity, COMDAT
; _this$ = eax

; 187  :   size_type capacity() const    { return size_type(this->_M_end_of_storage._M_data - this->_M_start); }

	mov	ecx, DWORD PTR [eax+8]
	sub	ecx, DWORD PTR [eax]
	mov	eax, -1307163959			; b21642c9H
	imul	ecx
	add	edx, ecx
	sar	edx, 6
	mov	eax, edx
	shr	eax, 31					; 0000001fH
	add	eax, edx
	ret	0
?capacity@?$_Impl_vector@UParticle@CEffect_Rain@@V?$xalloc@UParticle@CEffect_Rain@@@@@priv@stlp_std@@QBEIXZ ENDP ; stlp_std::priv::_Impl_vector<CEffect_Rain::Particle,xalloc<CEffect_Rain::Particle> >::capacity
; Function compile flags: /Ogtpy
_TEXT	ENDS
;	COMDAT ?capacity@?$_Impl_vector@UItem@CEffect_Rain@@V?$xalloc@UItem@CEffect_Rain@@@@@priv@stlp_std@@QBEIXZ
_TEXT	SEGMENT
?capacity@?$_Impl_vector@UItem@CEffect_Rain@@V?$xalloc@UItem@CEffect_Rain@@@@@priv@stlp_std@@QBEIXZ PROC ; stlp_std::priv::_Impl_vector<CEffect_Rain::Item,xalloc<CEffect_Rain::Item> >::capacity, COMDAT
; _this$ = eax

; 187  :   size_type capacity() const    { return size_type(this->_M_end_of_storage._M_data - this->_M_start); }

	mov	ecx, DWORD PTR [eax+8]
	sub	ecx, DWORD PTR [eax]
	mov	eax, 1321528399				; 4ec4ec4fH
	imul	ecx
	sar	edx, 4
	mov	eax, edx
	shr	eax, 31					; 0000001fH
	add	eax, edx
	ret	0
?capacity@?$_Impl_vector@UItem@CEffect_Rain@@V?$xalloc@UItem@CEffect_Rain@@@@@priv@stlp_std@@QBEIXZ ENDP ; stlp_std::priv::_Impl_vector<CEffect_Rain::Item,xalloc<CEffect_Rain::Item> >::capacity
; Function compile flags: /Ogtpy
_TEXT	ENDS
;	COMDAT ?capacity@?$_Impl_vector@USFlare@CLensFlareDescriptor@@V?$xalloc@USFlare@CLensFlareDescriptor@@@@@priv@stlp_std@@QBEIXZ
_TEXT	SEGMENT
?capacity@?$_Impl_vector@USFlare@CLensFlareDescriptor@@V?$xalloc@USFlare@CLensFlareDescriptor@@@@@priv@stlp_std@@QBEIXZ PROC ; stlp_std::priv::_Impl_vector<CLensFlareDescriptor::SFlare,xalloc<CLensFlareDescriptor::SFlare> >::capacity, COMDAT
; _this$ = eax

; 187  :   size_type capacity() const    { return size_type(this->_M_end_of_storage._M_data - this->_M_start); }

	mov	ecx, DWORD PTR [eax+8]
	sub	ecx, DWORD PTR [eax]
	mov	eax, 715827883				; 2aaaaaabH
	imul	ecx
	sar	edx, 2
	mov	eax, edx
	shr	eax, 31					; 0000001fH
	add	eax, edx
	ret	0
?capacity@?$_Impl_vector@USFlare@CLensFlareDescriptor@@V?$xalloc@USFlare@CLensFlareDescriptor@@@@@priv@stlp_std@@QBEIXZ ENDP ; stlp_std::priv::_Impl_vector<CLensFlareDescriptor::SFlare,xalloc<CLensFlareDescriptor::SFlare> >::capacity
; Function compile flags: /Ogtpy
; File d:\clearsky\sources\engine\xrcore\xrmemory.h
_TEXT	ENDS
;	COMDAT ??$xr_alloc@UParticle@CEffect_Rain@@@@YAPAUParticle@CEffect_Rain@@I@Z
_TEXT	SEGMENT
??$xr_alloc@UParticle@CEffect_Rain@@@@YAPAUParticle@CEffect_Rain@@I@Z PROC ; xr_alloc<CEffect_Rain::Particle>, COMDAT
; _count$ = eax

; 109  : 	IC T*		xr_alloc	(u32 count)				{	return  (T*)Memory.mem_alloc(count*sizeof(T));	}

	mov	ecx, DWORD PTR __imp_?Memory@@3VxrMemory@@A
	imul	eax, 92					; 0000005cH
	push	eax
	call	DWORD PTR __imp_?mem_alloc@xrMemory@@QAEPAXI@Z
	ret	0
??$xr_alloc@UParticle@CEffect_Rain@@@@YAPAUParticle@CEffect_Rain@@I@Z ENDP ; xr_alloc<CEffect_Rain::Particle>
; Function compile flags: /Ogtpy
_TEXT	ENDS
;	COMDAT ??$xr_alloc@UItem@CEffect_Rain@@@@YAPAUItem@CEffect_Rain@@I@Z
_TEXT	SEGMENT
??$xr_alloc@UItem@CEffect_Rain@@@@YAPAUItem@CEffect_Rain@@I@Z PROC ; xr_alloc<CEffect_Rain::Item>, COMDAT
; _count$ = eax

; 109  : 	IC T*		xr_alloc	(u32 count)				{	return  (T*)Memory.mem_alloc(count*sizeof(T));	}

	mov	ecx, DWORD PTR __imp_?Memory@@3VxrMemory@@A
	imul	eax, 52					; 00000034H
	push	eax
	call	DWORD PTR __imp_?mem_alloc@xrMemory@@QAEPAXI@Z
	ret	0
??$xr_alloc@UItem@CEffect_Rain@@@@YAPAUItem@CEffect_Rain@@I@Z ENDP ; xr_alloc<CEffect_Rain::Item>
; Function compile flags: /Ogtpy
_TEXT	ENDS
;	COMDAT ??$xr_alloc@USFlare@CLensFlareDescriptor@@@@YAPAUSFlare@CLensFlareDescriptor@@I@Z
_TEXT	SEGMENT
??$xr_alloc@USFlare@CLensFlareDescriptor@@@@YAPAUSFlare@CLensFlareDescriptor@@I@Z PROC ; xr_alloc<CLensFlareDescriptor::SFlare>, COMDAT
; _count$ = eax

; 109  : 	IC T*		xr_alloc	(u32 count)				{	return  (T*)Memory.mem_alloc(count*sizeof(T));	}

	mov	ecx, DWORD PTR __imp_?Memory@@3VxrMemory@@A
	lea	eax, DWORD PTR [eax+eax*2]
	add	eax, eax
	add	eax, eax
	add	eax, eax
	push	eax
	call	DWORD PTR __imp_?mem_alloc@xrMemory@@QAEPAXI@Z
	ret	0
??$xr_alloc@USFlare@CLensFlareDescriptor@@@@YAPAUSFlare@CLensFlareDescriptor@@I@Z ENDP ; xr_alloc<CLensFlareDescriptor::SFlare>
; Function compile flags: /Ogtpy
_TEXT	ENDS
;	COMDAT ??$xr_alloc@Urq_result@collide@@@@YAPAUrq_result@collide@@I@Z
_TEXT	SEGMENT
??$xr_alloc@Urq_result@collide@@@@YAPAUrq_result@collide@@I@Z PROC ; xr_alloc<collide::rq_result>, COMDAT
; _count$ = eax

; 109  : 	IC T*		xr_alloc	(u32 count)				{	return  (T*)Memory.mem_alloc(count*sizeof(T));	}

	mov	ecx, DWORD PTR __imp_?Memory@@3VxrMemory@@A
	lea	eax, DWORD PTR [eax+eax*2]
	add	eax, eax
	add	eax, eax
	push	eax
	call	DWORD PTR __imp_?mem_alloc@xrMemory@@QAEPAXI@Z
	ret	0
??$xr_alloc@Urq_result@collide@@@@YAPAUrq_result@collide@@I@Z ENDP ; xr_alloc<collide::rq_result>
; Function compile flags: /Ogtpy
; File d:\clearsky\sources\sdk\include\stlport\stl\_construct.h
_TEXT	ENDS
;	COMDAT ??$_Destroy_Range@PAUrq_result@collide@@@stlp_std@@YAXPAUrq_result@collide@@0@Z
_TEXT	SEGMENT
??$_Destroy_Range@PAUrq_result@collide@@@stlp_std@@YAXPAUrq_result@collide@@0@Z PROC ; stlp_std::_Destroy_Range<collide::rq_result *>, COMDAT

; 181  :   __destroy_range(__first, __last, _STLP_VALUE_TYPE(__first, _ForwardIterator));
; 182  : }

	ret	0
??$_Destroy_Range@PAUrq_result@collide@@@stlp_std@@YAXPAUrq_result@collide@@0@Z ENDP ; stlp_std::_Destroy_Range<collide::rq_result *>
; Function compile flags: /Ogtpy
; File d:\clearsky\sources\engine\xrcore\xrmemory.h
_TEXT	ENDS
;	COMDAT ??$xr_free@UParticle@CEffect_Rain@@@@YAXAAPAUParticle@CEffect_Rain@@@Z
_TEXT	SEGMENT
??$xr_free@UParticle@CEffect_Rain@@@@YAXAAPAUParticle@CEffect_Rain@@@Z PROC ; xr_free<CEffect_Rain::Particle>, COMDAT
; _P$ = esi

; 111  : 	IC void		xr_free		(T* &P)					{	if (P) { Memory.mem_free((void*)P); P=NULL;	};	}

	mov	eax, DWORD PTR [esi]
	test	eax, eax
	je	SHORT $LN1@xr_free@27
	mov	ecx, DWORD PTR __imp_?Memory@@3VxrMemory@@A
	push	eax
	call	DWORD PTR __imp_?mem_free@xrMemory@@QAEXPAX@Z
	mov	DWORD PTR [esi], 0
$LN1@xr_free@27:
	ret	0
??$xr_free@UParticle@CEffect_Rain@@@@YAXAAPAUParticle@CEffect_Rain@@@Z ENDP ; xr_free<CEffect_Rain::Particle>
; Function compile flags: /Ogtpy
_TEXT	ENDS
;	COMDAT ??$xr_free@UItem@CEffect_Rain@@@@YAXAAPAUItem@CEffect_Rain@@@Z
_TEXT	SEGMENT
??$xr_free@UItem@CEffect_Rain@@@@YAXAAPAUItem@CEffect_Rain@@@Z PROC ; xr_free<CEffect_Rain::Item>, COMDAT
; _P$ = esi

; 111  : 	IC void		xr_free		(T* &P)					{	if (P) { Memory.mem_free((void*)P); P=NULL;	};	}

	mov	eax, DWORD PTR [esi]
	test	eax, eax
	je	SHORT $LN1@xr_free@28
	mov	ecx, DWORD PTR __imp_?Memory@@3VxrMemory@@A
	push	eax
	call	DWORD PTR __imp_?mem_free@xrMemory@@QAEXPAX@Z
	mov	DWORD PTR [esi], 0
$LN1@xr_free@28:
	ret	0
??$xr_free@UItem@CEffect_Rain@@@@YAXAAPAUItem@CEffect_Rain@@@Z ENDP ; xr_free<CEffect_Rain::Item>
; Function compile flags: /Ogtpy
_TEXT	ENDS
;	COMDAT ??$xr_free@USFlare@CLensFlareDescriptor@@@@YAXAAPAUSFlare@CLensFlareDescriptor@@@Z
_TEXT	SEGMENT
??$xr_free@USFlare@CLensFlareDescriptor@@@@YAXAAPAUSFlare@CLensFlareDescriptor@@@Z PROC ; xr_free<CLensFlareDescriptor::SFlare>, COMDAT
; _P$ = esi

; 111  : 	IC void		xr_free		(T* &P)					{	if (P) { Memory.mem_free((void*)P); P=NULL;	};	}

	mov	eax, DWORD PTR [esi]
	test	eax, eax
	je	SHORT $LN1@xr_free@29
	mov	ecx, DWORD PTR __imp_?Memory@@3VxrMemory@@A
	push	eax
	call	DWORD PTR __imp_?mem_free@xrMemory@@QAEXPAX@Z
	mov	DWORD PTR [esi], 0
$LN1@xr_free@29:
	ret	0
??$xr_free@USFlare@CLensFlareDescriptor@@@@YAXAAPAUSFlare@CLensFlareDescriptor@@@Z ENDP ; xr_free<CLensFlareDescriptor::SFlare>
; Function compile flags: /Ogtpy
_TEXT	ENDS
;	COMDAT ??$xr_free@Urq_result@collide@@@@YAXAAPAUrq_result@collide@@@Z
_TEXT	SEGMENT
??$xr_free@Urq_result@collide@@@@YAXAAPAUrq_result@collide@@@Z PROC ; xr_free<collide::rq_result>, COMDAT
; _P$ = esi

; 111  : 	IC void		xr_free		(T* &P)					{	if (P) { Memory.mem_free((void*)P); P=NULL;	};	}

	mov	eax, DWORD PTR [esi]
	test	eax, eax
	je	SHORT $LN1@xr_free@30
	mov	ecx, DWORD PTR __imp_?Memory@@3VxrMemory@@A
	push	eax
	call	DWORD PTR __imp_?mem_free@xrMemory@@QAEXPAX@Z
	mov	DWORD PTR [esi], 0
$LN1@xr_free@30:
	ret	0
??$xr_free@Urq_result@collide@@@@YAXAAPAUrq_result@collide@@@Z ENDP ; xr_free<collide::rq_result>
; Function compile flags: /Ogtpy
; File d:\clearsky\sources\engine\xrcore\_stl_extensions.h
_TEXT	ENDS
;	COMDAT ??$?0PAVCEnvAmbient@@@?$xalloc@PAX@@QAE@ABV?$xalloc@PAVCEnvAmbient@@@@@Z
_TEXT	SEGMENT
??$?0PAVCEnvAmbient@@@?$xalloc@PAX@@QAE@ABV?$xalloc@PAVCEnvAmbient@@@@@Z PROC ; xalloc<void *>::xalloc<void *><CEnvAmbient *>, COMDAT
; _this$ = eax

; 79   : 	template<class _Other>							xalloc			(const xalloc<_Other>&)					{	}

	ret	0
??$?0PAVCEnvAmbient@@@?$xalloc@PAX@@QAE@ABV?$xalloc@PAVCEnvAmbient@@@@@Z ENDP ; xalloc<void *>::xalloc<void *><CEnvAmbient *>
; Function compile flags: /Ogtpy
; File d:\clearsky\sources\sdk\include\stlport\stl\_vector.c
_TEXT	ENDS
;	COMDAT ?_M_throw_out_of_range@?$_Vector_base@PAXV?$xalloc@PAX@@@priv@stlp_std@@IBEXXZ
_TEXT	SEGMENT
?_M_throw_out_of_range@?$_Vector_base@PAXV?$xalloc@PAX@@@priv@stlp_std@@IBEXXZ PROC ; stlp_std::priv::_Vector_base<void *,xalloc<void *> >::_M_throw_out_of_range, COMDAT

; 46   :   __stl_throw_out_of_range("vector");

	push	OFFSET ??_C@_06NBFPPGEG@vector?$AA@
	call	DWORD PTR __imp__puts
	add	esp, 4
	jmp	DWORD PTR __imp__abort
?_M_throw_out_of_range@?$_Vector_base@PAXV?$xalloc@PAX@@@priv@stlp_std@@IBEXXZ ENDP ; stlp_std::priv::_Vector_base<void *,xalloc<void *> >::_M_throw_out_of_range
; Function compile flags: /Ogtpy
; File d:\clearsky\sources\engine\xrcore\_vector3d.h
_TEXT	ENDS
;	COMDAT ??$_valid@M@@YAHABU?$_vector3@M@@@Z
_TEXT	SEGMENT
??$_valid@M@@YAHABU?$_vector3@M@@@Z PROC		; _valid<float>, COMDAT
; _v$ = esi

; 442  : BOOL	_valid			(const _vector3<T>& v)	{ return _valid((T)v.x) && _valid((T)v.y) && _valid((T)v.z);	}

	push	ebp
	mov	ebp, esp
	and	esp, -64				; ffffffc0H
	fld	DWORD PTR [esi]
	sub	esp, 60					; 0000003cH
	push	edi
	mov	edi, DWORD PTR __imp___fpclass
	sub	esp, 8
	fstp	QWORD PTR [esp]
	call	edi
	add	esp, 8
	test	eax, 663				; 00000297H
	jne	SHORT $LN3@valid
	fld	DWORD PTR [esi+4]
	sub	esp, 8
	fstp	QWORD PTR [esp]
	call	edi
	add	esp, 8
	test	eax, 663				; 00000297H
	jne	SHORT $LN3@valid
	fld	DWORD PTR [esi+8]
	sub	esp, 8
	fstp	QWORD PTR [esp]
	call	edi
	add	esp, 8
	test	eax, 663				; 00000297H
	jne	SHORT $LN3@valid
	mov	eax, 1
	pop	edi
	mov	esp, ebp
	pop	ebp
	ret	0
$LN3@valid:
	xor	eax, eax
	pop	edi
	mov	esp, ebp
	pop	ebp
	ret	0
??$_valid@M@@YAHABU?$_vector3@M@@@Z ENDP		; _valid<float>
; Function compile flags: /Ogtpy
; File d:\clearsky\sources\sdk\include\stlport\stl\_algo.h
_TEXT	ENDS
;	COMDAT ??$lower_bound@PAPAVCEnvDescriptor@@MP6A_NPBV1@M@Z@stlp_std@@YAPAPAVCEnvDescriptor@@PAPAV1@0ABMP6A_NPBV1@M@Z@Z
_TEXT	SEGMENT
___val$ = 8						; size = 4
??$lower_bound@PAPAVCEnvDescriptor@@MP6A_NPBV1@M@Z@stlp_std@@YAPAPAVCEnvDescriptor@@PAPAV1@0ABMP6A_NPBV1@M@Z@Z PROC ; stlp_std::lower_bound<CEnvDescriptor * *,float,bool (__cdecl*)(CEnvDescriptor const *,float)>, COMDAT
; ___first$ = ecx
; ___last$ = eax

; 507  :                                 const _Tp& __val, _Compare __comp) {

	push	ebx
	push	ebp
	mov	ebp, DWORD PTR ___val$[esp+4]
	push	edi
	mov	edi, eax
	mov	ebx, ecx

; 508  :   _STLP_DEBUG_CHECK(_STLP_PRIV __check_range(__first, __last))
; 509  :   return _STLP_PRIV __lower_bound(__first, __last, __val, __comp, __comp,
; 510  :                                   _STLP_DISTANCE_TYPE(__first, _ForwardIter));

	sub	edi, ebx
	sar	edi, 2
	test	edi, edi
	jle	SHORT $LN18@lower_boun@3
	push	esi
$LL6@lower_boun@3:
	fld	DWORD PTR [ebp]
	mov	esi, edi
	push	ecx
	sar	esi, 1
	fstp	DWORD PTR [esp]
	mov	eax, DWORD PTR [ebx+esi*4]
	push	eax
	call	?lb_env_pred@@YA_NPBVCEnvDescriptor@@M@Z ; lb_env_pred
	add	esp, 8
	test	al, al
	je	SHORT $LN4@lower_boun@3
	or	ecx, -1
	sub	ecx, esi
	lea	ebx, DWORD PTR [ebx+esi*4+4]
	add	edi, ecx
	jmp	SHORT $LN3@lower_boun@3
$LN4@lower_boun@3:
	mov	edi, esi
$LN3@lower_boun@3:
	test	edi, edi
	jg	SHORT $LL6@lower_boun@3
	pop	esi
$LN18@lower_boun@3:
	pop	edi
	pop	ebp
	mov	eax, ebx
	pop	ebx

; 511  : }

	ret	0
??$lower_bound@PAPAVCEnvDescriptor@@MP6A_NPBV1@M@Z@stlp_std@@YAPAPAVCEnvDescriptor@@PAPAV1@0ABMP6A_NPBV1@M@Z@Z ENDP ; stlp_std::lower_bound<CEnvDescriptor * *,float,bool (__cdecl*)(CEnvDescriptor const *,float)>
; Function compile flags: /Ogtpy
; File d:\clearsky\sources\engine\xrcore\_stl_extensions.h
_TEXT	ENDS
;	COMDAT ?allocate@?$xalloc@UParticle@CEffect_Rain@@@@QBEPAUParticle@CEffect_Rain@@IPBX@Z
_TEXT	SEGMENT
?allocate@?$xalloc@UParticle@CEffect_Rain@@@@QBEPAUParticle@CEffect_Rain@@IPBX@Z PROC ; xalloc<CEffect_Rain::Particle>::allocate, COMDAT
; _n$ = eax

; 81   : 							pointer					allocate		(size_type n, const void* p=0) const	{	return xr_alloc<T>((u32)n);	}

	mov	ecx, DWORD PTR __imp_?Memory@@3VxrMemory@@A
	imul	eax, 92					; 0000005cH
	push	eax
	call	DWORD PTR __imp_?mem_alloc@xrMemory@@QAEPAXI@Z
	ret	0
?allocate@?$xalloc@UParticle@CEffect_Rain@@@@QBEPAUParticle@CEffect_Rain@@IPBX@Z ENDP ; xalloc<CEffect_Rain::Particle>::allocate
; Function compile flags: /Ogtpy
_TEXT	ENDS
;	COMDAT ?allocate@?$xalloc@UItem@CEffect_Rain@@@@QBEPAUItem@CEffect_Rain@@IPBX@Z
_TEXT	SEGMENT
?allocate@?$xalloc@UItem@CEffect_Rain@@@@QBEPAUItem@CEffect_Rain@@IPBX@Z PROC ; xalloc<CEffect_Rain::Item>::allocate, COMDAT
; _n$ = eax

; 81   : 							pointer					allocate		(size_type n, const void* p=0) const	{	return xr_alloc<T>((u32)n);	}

	mov	ecx, DWORD PTR __imp_?Memory@@3VxrMemory@@A
	imul	eax, 52					; 00000034H
	push	eax
	call	DWORD PTR __imp_?mem_alloc@xrMemory@@QAEPAXI@Z
	ret	0
?allocate@?$xalloc@UItem@CEffect_Rain@@@@QBEPAUItem@CEffect_Rain@@IPBX@Z ENDP ; xalloc<CEffect_Rain::Item>::allocate
; Function compile flags: /Ogtpy
_TEXT	ENDS
;	COMDAT ?allocate@?$xalloc@USFlare@CLensFlareDescriptor@@@@QBEPAUSFlare@CLensFlareDescriptor@@IPBX@Z
_TEXT	SEGMENT
?allocate@?$xalloc@USFlare@CLensFlareDescriptor@@@@QBEPAUSFlare@CLensFlareDescriptor@@IPBX@Z PROC ; xalloc<CLensFlareDescriptor::SFlare>::allocate, COMDAT
; _n$ = eax

; 81   : 							pointer					allocate		(size_type n, const void* p=0) const	{	return xr_alloc<T>((u32)n);	}

	mov	ecx, DWORD PTR __imp_?Memory@@3VxrMemory@@A
	lea	eax, DWORD PTR [eax+eax*2]
	add	eax, eax
	add	eax, eax
	add	eax, eax
	push	eax
	call	DWORD PTR __imp_?mem_alloc@xrMemory@@QAEPAXI@Z
	ret	0
?allocate@?$xalloc@USFlare@CLensFlareDescriptor@@@@QBEPAUSFlare@CLensFlareDescriptor@@IPBX@Z ENDP ; xalloc<CLensFlareDescriptor::SFlare>::allocate
; Function compile flags: /Ogtpy
_TEXT	ENDS
;	COMDAT ?allocate@?$xalloc@Urq_result@collide@@@@QBEPAUrq_result@collide@@IPBX@Z
_TEXT	SEGMENT
?allocate@?$xalloc@Urq_result@collide@@@@QBEPAUrq_result@collide@@IPBX@Z PROC ; xalloc<collide::rq_result>::allocate, COMDAT
; _n$ = eax

; 81   : 							pointer					allocate		(size_type n, const void* p=0) const	{	return xr_alloc<T>((u32)n);	}

	mov	ecx, DWORD PTR __imp_?Memory@@3VxrMemory@@A
	lea	eax, DWORD PTR [eax+eax*2]
	add	eax, eax
	add	eax, eax
	push	eax
	call	DWORD PTR __imp_?mem_alloc@xrMemory@@QAEPAXI@Z
	ret	0
?allocate@?$xalloc@Urq_result@collide@@@@QBEPAUrq_result@collide@@IPBX@Z ENDP ; xalloc<collide::rq_result>::allocate
; Function compile flags: /Ogtpy
; File d:\clearsky\sources\sdk\include\stlport\stl\_alloc.h
_TEXT	ENDS
;	COMDAT ?allocate@?$_STLP_alloc_proxy@PAUParticle@CEffect_Rain@@U12@V?$xalloc@UParticle@CEffect_Rain@@@@@priv@stlp_std@@QAEPAUParticle@CEffect_Rain@@I@Z
_TEXT	SEGMENT
?allocate@?$_STLP_alloc_proxy@PAUParticle@CEffect_Rain@@U12@V?$xalloc@UParticle@CEffect_Rain@@@@@priv@stlp_std@@QAEPAUParticle@CEffect_Rain@@I@Z PROC ; stlp_std::priv::_STLP_alloc_proxy<CEffect_Rain::Particle *,CEffect_Rain::Particle,xalloc<CEffect_Rain::Particle> >::allocate, COMDAT
; ___n$ = eax

; 633  :   { return _Base::allocate(__n); }

	mov	ecx, DWORD PTR __imp_?Memory@@3VxrMemory@@A
	imul	eax, 92					; 0000005cH
	push	eax
	call	DWORD PTR __imp_?mem_alloc@xrMemory@@QAEPAXI@Z
	ret	0
?allocate@?$_STLP_alloc_proxy@PAUParticle@CEffect_Rain@@U12@V?$xalloc@UParticle@CEffect_Rain@@@@@priv@stlp_std@@QAEPAUParticle@CEffect_Rain@@I@Z ENDP ; stlp_std::priv::_STLP_alloc_proxy<CEffect_Rain::Particle *,CEffect_Rain::Particle,xalloc<CEffect_Rain::Particle> >::allocate
; Function compile flags: /Ogtpy
_TEXT	ENDS
;	COMDAT ?allocate@?$_STLP_alloc_proxy@PAUItem@CEffect_Rain@@U12@V?$xalloc@UItem@CEffect_Rain@@@@@priv@stlp_std@@QAEPAUItem@CEffect_Rain@@I@Z
_TEXT	SEGMENT
?allocate@?$_STLP_alloc_proxy@PAUItem@CEffect_Rain@@U12@V?$xalloc@UItem@CEffect_Rain@@@@@priv@stlp_std@@QAEPAUItem@CEffect_Rain@@I@Z PROC ; stlp_std::priv::_STLP_alloc_proxy<CEffect_Rain::Item *,CEffect_Rain::Item,xalloc<CEffect_Rain::Item> >::allocate, COMDAT
; ___n$ = eax

; 633  :   { return _Base::allocate(__n); }

	mov	ecx, DWORD PTR __imp_?Memory@@3VxrMemory@@A
	imul	eax, 52					; 00000034H
	push	eax
	call	DWORD PTR __imp_?mem_alloc@xrMemory@@QAEPAXI@Z
	ret	0
?allocate@?$_STLP_alloc_proxy@PAUItem@CEffect_Rain@@U12@V?$xalloc@UItem@CEffect_Rain@@@@@priv@stlp_std@@QAEPAUItem@CEffect_Rain@@I@Z ENDP ; stlp_std::priv::_STLP_alloc_proxy<CEffect_Rain::Item *,CEffect_Rain::Item,xalloc<CEffect_Rain::Item> >::allocate
; Function compile flags: /Ogtpy
_TEXT	ENDS
;	COMDAT ?allocate@?$_STLP_alloc_proxy@PAUSFlare@CLensFlareDescriptor@@U12@V?$xalloc@USFlare@CLensFlareDescriptor@@@@@priv@stlp_std@@QAEPAUSFlare@CLensFlareDescriptor@@I@Z
_TEXT	SEGMENT
?allocate@?$_STLP_alloc_proxy@PAUSFlare@CLensFlareDescriptor@@U12@V?$xalloc@USFlare@CLensFlareDescriptor@@@@@priv@stlp_std@@QAEPAUSFlare@CLensFlareDescriptor@@I@Z PROC ; stlp_std::priv::_STLP_alloc_proxy<CLensFlareDescriptor::SFlare *,CLensFlareDescriptor::SFlare,xalloc<CLensFlareDescriptor::SFlare> >::allocate, COMDAT
; ___n$ = eax

; 633  :   { return _Base::allocate(__n); }

	mov	ecx, DWORD PTR __imp_?Memory@@3VxrMemory@@A
	lea	eax, DWORD PTR [eax+eax*2]
	add	eax, eax
	add	eax, eax
	add	eax, eax
	push	eax
	call	DWORD PTR __imp_?mem_alloc@xrMemory@@QAEPAXI@Z
	ret	0
?allocate@?$_STLP_alloc_proxy@PAUSFlare@CLensFlareDescriptor@@U12@V?$xalloc@USFlare@CLensFlareDescriptor@@@@@priv@stlp_std@@QAEPAUSFlare@CLensFlareDescriptor@@I@Z ENDP ; stlp_std::priv::_STLP_alloc_proxy<CLensFlareDescriptor::SFlare *,CLensFlareDescriptor::SFlare,xalloc<CLensFlareDescriptor::SFlare> >::allocate
; Function compile flags: /Ogtpy
_TEXT	ENDS
;	COMDAT ?allocate@?$_STLP_alloc_proxy@PAUrq_result@collide@@U12@V?$xalloc@Urq_result@collide@@@@@priv@stlp_std@@QAEPAUrq_result@collide@@I@Z
_TEXT	SEGMENT
?allocate@?$_STLP_alloc_proxy@PAUrq_result@collide@@U12@V?$xalloc@Urq_result@collide@@@@@priv@stlp_std@@QAEPAUrq_result@collide@@I@Z PROC ; stlp_std::priv::_STLP_alloc_proxy<collide::rq_result *,collide::rq_result,xalloc<collide::rq_result> >::allocate, COMDAT
; ___n$ = eax

; 633  :   { return _Base::allocate(__n); }

	mov	ecx, DWORD PTR __imp_?Memory@@3VxrMemory@@A
	lea	eax, DWORD PTR [eax+eax*2]
	add	eax, eax
	add	eax, eax
	push	eax
	call	DWORD PTR __imp_?mem_alloc@xrMemory@@QAEPAXI@Z
	ret	0
?allocate@?$_STLP_alloc_proxy@PAUrq_result@collide@@U12@V?$xalloc@Urq_result@collide@@@@@priv@stlp_std@@QAEPAUrq_result@collide@@I@Z ENDP ; stlp_std::priv::_STLP_alloc_proxy<collide::rq_result *,collide::rq_result,xalloc<collide::rq_result> >::allocate
; Function compile flags: /Ogtpy
_TEXT	ENDS
;	COMDAT ?allocate@?$_STLP_alloc_proxy@PAUParticle@CEffect_Rain@@U12@V?$xalloc@UParticle@CEffect_Rain@@@@@priv@stlp_std@@AAEPAUParticle@CEffect_Rain@@IAAIABU__false_type@3@@Z
_TEXT	SEGMENT
?allocate@?$_STLP_alloc_proxy@PAUParticle@CEffect_Rain@@U12@V?$xalloc@UParticle@CEffect_Rain@@@@@priv@stlp_std@@AAEPAUParticle@CEffect_Rain@@IAAIABU__false_type@3@@Z PROC ; stlp_std::priv::_STLP_alloc_proxy<CEffect_Rain::Particle *,CEffect_Rain::Particle,xalloc<CEffect_Rain::Particle> >::allocate, COMDAT
; ___n$ = eax
; ___allocated_n$ = ecx

; 640  :   { __allocated_n = __n; return allocate(__n); }

	mov	DWORD PTR [ecx], eax
	imul	eax, 92					; 0000005cH
	mov	ecx, DWORD PTR __imp_?Memory@@3VxrMemory@@A
	push	eax
	call	DWORD PTR __imp_?mem_alloc@xrMemory@@QAEPAXI@Z
	ret	0
?allocate@?$_STLP_alloc_proxy@PAUParticle@CEffect_Rain@@U12@V?$xalloc@UParticle@CEffect_Rain@@@@@priv@stlp_std@@AAEPAUParticle@CEffect_Rain@@IAAIABU__false_type@3@@Z ENDP ; stlp_std::priv::_STLP_alloc_proxy<CEffect_Rain::Particle *,CEffect_Rain::Particle,xalloc<CEffect_Rain::Particle> >::allocate
; Function compile flags: /Ogtpy
_TEXT	ENDS
;	COMDAT ?allocate@?$_STLP_alloc_proxy@PAUItem@CEffect_Rain@@U12@V?$xalloc@UItem@CEffect_Rain@@@@@priv@stlp_std@@AAEPAUItem@CEffect_Rain@@IAAIABU__false_type@3@@Z
_TEXT	SEGMENT
?allocate@?$_STLP_alloc_proxy@PAUItem@CEffect_Rain@@U12@V?$xalloc@UItem@CEffect_Rain@@@@@priv@stlp_std@@AAEPAUItem@CEffect_Rain@@IAAIABU__false_type@3@@Z PROC ; stlp_std::priv::_STLP_alloc_proxy<CEffect_Rain::Item *,CEffect_Rain::Item,xalloc<CEffect_Rain::Item> >::allocate, COMDAT
; ___n$ = eax
; ___allocated_n$ = ecx

; 640  :   { __allocated_n = __n; return allocate(__n); }

	mov	DWORD PTR [ecx], eax
	imul	eax, 52					; 00000034H
	mov	ecx, DWORD PTR __imp_?Memory@@3VxrMemory@@A
	push	eax
	call	DWORD PTR __imp_?mem_alloc@xrMemory@@QAEPAXI@Z
	ret	0
?allocate@?$_STLP_alloc_proxy@PAUItem@CEffect_Rain@@U12@V?$xalloc@UItem@CEffect_Rain@@@@@priv@stlp_std@@AAEPAUItem@CEffect_Rain@@IAAIABU__false_type@3@@Z ENDP ; stlp_std::priv::_STLP_alloc_proxy<CEffect_Rain::Item *,CEffect_Rain::Item,xalloc<CEffect_Rain::Item> >::allocate
; Function compile flags: /Ogtpy
_TEXT	ENDS
;	COMDAT ?allocate@?$_STLP_alloc_proxy@PAUSFlare@CLensFlareDescriptor@@U12@V?$xalloc@USFlare@CLensFlareDescriptor@@@@@priv@stlp_std@@AAEPAUSFlare@CLensFlareDescriptor@@IAAIABU__false_type@3@@Z
_TEXT	SEGMENT
?allocate@?$_STLP_alloc_proxy@PAUSFlare@CLensFlareDescriptor@@U12@V?$xalloc@USFlare@CLensFlareDescriptor@@@@@priv@stlp_std@@AAEPAUSFlare@CLensFlareDescriptor@@IAAIABU__false_type@3@@Z PROC ; stlp_std::priv::_STLP_alloc_proxy<CLensFlareDescriptor::SFlare *,CLensFlareDescriptor::SFlare,xalloc<CLensFlareDescriptor::SFlare> >::allocate, COMDAT
; ___n$ = eax
; ___allocated_n$ = ecx

; 640  :   { __allocated_n = __n; return allocate(__n); }

	lea	edx, DWORD PTR [eax+eax*2]
	add	edx, edx
	add	edx, edx
	add	edx, edx
	mov	DWORD PTR [ecx], eax
	mov	ecx, DWORD PTR __imp_?Memory@@3VxrMemory@@A
	push	edx
	call	DWORD PTR __imp_?mem_alloc@xrMemory@@QAEPAXI@Z
	ret	0
?allocate@?$_STLP_alloc_proxy@PAUSFlare@CLensFlareDescriptor@@U12@V?$xalloc@USFlare@CLensFlareDescriptor@@@@@priv@stlp_std@@AAEPAUSFlare@CLensFlareDescriptor@@IAAIABU__false_type@3@@Z ENDP ; stlp_std::priv::_STLP_alloc_proxy<CLensFlareDescriptor::SFlare *,CLensFlareDescriptor::SFlare,xalloc<CLensFlareDescriptor::SFlare> >::allocate
; Function compile flags: /Ogtpy
_TEXT	ENDS
;	COMDAT ?allocate@?$_STLP_alloc_proxy@PAUrq_result@collide@@U12@V?$xalloc@Urq_result@collide@@@@@priv@stlp_std@@AAEPAUrq_result@collide@@IAAIABU__false_type@3@@Z
_TEXT	SEGMENT
?allocate@?$_STLP_alloc_proxy@PAUrq_result@collide@@U12@V?$xalloc@Urq_result@collide@@@@@priv@stlp_std@@AAEPAUrq_result@collide@@IAAIABU__false_type@3@@Z PROC ; stlp_std::priv::_STLP_alloc_proxy<collide::rq_result *,collide::rq_result,xalloc<collide::rq_result> >::allocate, COMDAT
; ___n$ = eax
; ___allocated_n$ = ecx

; 640  :   { __allocated_n = __n; return allocate(__n); }

	lea	edx, DWORD PTR [eax+eax*2]
	add	edx, edx
	add	edx, edx
	mov	DWORD PTR [ecx], eax
	mov	ecx, DWORD PTR __imp_?Memory@@3VxrMemory@@A
	push	edx
	call	DWORD PTR __imp_?mem_alloc@xrMemory@@QAEPAXI@Z
	ret	0
?allocate@?$_STLP_alloc_proxy@PAUrq_result@collide@@U12@V?$xalloc@Urq_result@collide@@@@@priv@stlp_std@@AAEPAUrq_result@collide@@IAAIABU__false_type@3@@Z ENDP ; stlp_std::priv::_STLP_alloc_proxy<collide::rq_result *,collide::rq_result,xalloc<collide::rq_result> >::allocate
; Function compile flags: /Ogtpy
_TEXT	ENDS
;	COMDAT ?allocate@?$_STLP_alloc_proxy@PAUParticle@CEffect_Rain@@U12@V?$xalloc@UParticle@CEffect_Rain@@@@@priv@stlp_std@@QAEPAUParticle@CEffect_Rain@@IAAI@Z
_TEXT	SEGMENT
?allocate@?$_STLP_alloc_proxy@PAUParticle@CEffect_Rain@@U12@V?$xalloc@UParticle@CEffect_Rain@@@@@priv@stlp_std@@QAEPAUParticle@CEffect_Rain@@IAAI@Z PROC ; stlp_std::priv::_STLP_alloc_proxy<CEffect_Rain::Particle *,CEffect_Rain::Particle,xalloc<CEffect_Rain::Particle> >::allocate, COMDAT
; ___n$ = eax
; ___allocated_n$ = ecx

; 611  : #if !defined (__BORLANDC__)
; 612  :     typedef typename _IsSTLportClass<_MaybeReboundAlloc>::_Ret _STLportAlloc;
; 613  : #else
; 614  :     typedef typename __bool2type<_IsSTLportClass<_MaybeReboundAlloc>::_Is>::_Ret _STLportAlloc;
; 615  : #endif
; 616  :     return allocate(__n, __allocated_n, _STLportAlloc());

	mov	DWORD PTR [ecx], eax
	imul	eax, 92					; 0000005cH
	mov	ecx, DWORD PTR __imp_?Memory@@3VxrMemory@@A
	push	eax
	call	DWORD PTR __imp_?mem_alloc@xrMemory@@QAEPAXI@Z

; 617  :   }

	ret	0
?allocate@?$_STLP_alloc_proxy@PAUParticle@CEffect_Rain@@U12@V?$xalloc@UParticle@CEffect_Rain@@@@@priv@stlp_std@@QAEPAUParticle@CEffect_Rain@@IAAI@Z ENDP ; stlp_std::priv::_STLP_alloc_proxy<CEffect_Rain::Particle *,CEffect_Rain::Particle,xalloc<CEffect_Rain::Particle> >::allocate
; Function compile flags: /Ogtpy
; File d:\clearsky\sources\engine\xrcore\_stl_extensions.h
_TEXT	ENDS
;	COMDAT ??0?$xalloc@UParticle@CEffect_Rain@@@@QAE@ABV0@@Z
_TEXT	SEGMENT
??0?$xalloc@UParticle@CEffect_Rain@@@@QAE@ABV0@@Z PROC	; xalloc<CEffect_Rain::Particle>::xalloc<CEffect_Rain::Particle>, COMDAT
; _this$ = eax

; 78   : 													xalloc			(const xalloc<T>&)						{	}

	ret	0
??0?$xalloc@UParticle@CEffect_Rain@@@@QAE@ABV0@@Z ENDP	; xalloc<CEffect_Rain::Particle>::xalloc<CEffect_Rain::Particle>
; Function compile flags: /Ogtpy
; File d:\clearsky\sources\sdk\include\stlport\stl\_alloc.h
_TEXT	ENDS
;	COMDAT ?allocate@?$_STLP_alloc_proxy@PAUItem@CEffect_Rain@@U12@V?$xalloc@UItem@CEffect_Rain@@@@@priv@stlp_std@@QAEPAUItem@CEffect_Rain@@IAAI@Z
_TEXT	SEGMENT
?allocate@?$_STLP_alloc_proxy@PAUItem@CEffect_Rain@@U12@V?$xalloc@UItem@CEffect_Rain@@@@@priv@stlp_std@@QAEPAUItem@CEffect_Rain@@IAAI@Z PROC ; stlp_std::priv::_STLP_alloc_proxy<CEffect_Rain::Item *,CEffect_Rain::Item,xalloc<CEffect_Rain::Item> >::allocate, COMDAT
; ___n$ = eax
; ___allocated_n$ = ecx

; 611  : #if !defined (__BORLANDC__)
; 612  :     typedef typename _IsSTLportClass<_MaybeReboundAlloc>::_Ret _STLportAlloc;
; 613  : #else
; 614  :     typedef typename __bool2type<_IsSTLportClass<_MaybeReboundAlloc>::_Is>::_Ret _STLportAlloc;
; 615  : #endif
; 616  :     return allocate(__n, __allocated_n, _STLportAlloc());

	mov	DWORD PTR [ecx], eax
	imul	eax, 52					; 00000034H
	mov	ecx, DWORD PTR __imp_?Memory@@3VxrMemory@@A
	push	eax
	call	DWORD PTR __imp_?mem_alloc@xrMemory@@QAEPAXI@Z

; 617  :   }

	ret	0
?allocate@?$_STLP_alloc_proxy@PAUItem@CEffect_Rain@@U12@V?$xalloc@UItem@CEffect_Rain@@@@@priv@stlp_std@@QAEPAUItem@CEffect_Rain@@IAAI@Z ENDP ; stlp_std::priv::_STLP_alloc_proxy<CEffect_Rain::Item *,CEffect_Rain::Item,xalloc<CEffect_Rain::Item> >::allocate
; Function compile flags: /Ogtpy
; File d:\clearsky\sources\engine\xrcore\_stl_extensions.h
_TEXT	ENDS
;	COMDAT ??0?$xalloc@UItem@CEffect_Rain@@@@QAE@ABV0@@Z
_TEXT	SEGMENT
??0?$xalloc@UItem@CEffect_Rain@@@@QAE@ABV0@@Z PROC	; xalloc<CEffect_Rain::Item>::xalloc<CEffect_Rain::Item>, COMDAT
; _this$ = eax

; 78   : 													xalloc			(const xalloc<T>&)						{	}

	ret	0
??0?$xalloc@UItem@CEffect_Rain@@@@QAE@ABV0@@Z ENDP	; xalloc<CEffect_Rain::Item>::xalloc<CEffect_Rain::Item>
; Function compile flags: /Ogtpy
; File d:\clearsky\sources\sdk\include\stlport\stl\_alloc.h
_TEXT	ENDS
;	COMDAT ?allocate@?$_STLP_alloc_proxy@PAUSFlare@CLensFlareDescriptor@@U12@V?$xalloc@USFlare@CLensFlareDescriptor@@@@@priv@stlp_std@@QAEPAUSFlare@CLensFlareDescriptor@@IAAI@Z
_TEXT	SEGMENT
?allocate@?$_STLP_alloc_proxy@PAUSFlare@CLensFlareDescriptor@@U12@V?$xalloc@USFlare@CLensFlareDescriptor@@@@@priv@stlp_std@@QAEPAUSFlare@CLensFlareDescriptor@@IAAI@Z PROC ; stlp_std::priv::_STLP_alloc_proxy<CLensFlareDescriptor::SFlare *,CLensFlareDescriptor::SFlare,xalloc<CLensFlareDescriptor::SFlare> >::allocate, COMDAT
; ___n$ = eax
; ___allocated_n$ = ecx

; 611  : #if !defined (__BORLANDC__)
; 612  :     typedef typename _IsSTLportClass<_MaybeReboundAlloc>::_Ret _STLportAlloc;
; 613  : #else
; 614  :     typedef typename __bool2type<_IsSTLportClass<_MaybeReboundAlloc>::_Is>::_Ret _STLportAlloc;
; 615  : #endif
; 616  :     return allocate(__n, __allocated_n, _STLportAlloc());

	lea	edx, DWORD PTR [eax+eax*2]
	add	edx, edx
	add	edx, edx
	add	edx, edx
	mov	DWORD PTR [ecx], eax
	mov	ecx, DWORD PTR __imp_?Memory@@3VxrMemory@@A
	push	edx
	call	DWORD PTR __imp_?mem_alloc@xrMemory@@QAEPAXI@Z

; 617  :   }

	ret	0
?allocate@?$_STLP_alloc_proxy@PAUSFlare@CLensFlareDescriptor@@U12@V?$xalloc@USFlare@CLensFlareDescriptor@@@@@priv@stlp_std@@QAEPAUSFlare@CLensFlareDescriptor@@IAAI@Z ENDP ; stlp_std::priv::_STLP_alloc_proxy<CLensFlareDescriptor::SFlare *,CLensFlareDescriptor::SFlare,xalloc<CLensFlareDescriptor::SFlare> >::allocate
; Function compile flags: /Ogtpy
; File d:\clearsky\sources\engine\xrcore\_stl_extensions.h
_TEXT	ENDS
;	COMDAT ??0?$xalloc@USFlare@CLensFlareDescriptor@@@@QAE@ABV0@@Z
_TEXT	SEGMENT
??0?$xalloc@USFlare@CLensFlareDescriptor@@@@QAE@ABV0@@Z PROC ; xalloc<CLensFlareDescriptor::SFlare>::xalloc<CLensFlareDescriptor::SFlare>, COMDAT
; _this$ = eax

; 78   : 													xalloc			(const xalloc<T>&)						{	}

	ret	0
??0?$xalloc@USFlare@CLensFlareDescriptor@@@@QAE@ABV0@@Z ENDP ; xalloc<CLensFlareDescriptor::SFlare>::xalloc<CLensFlareDescriptor::SFlare>
; Function compile flags: /Ogtpy
; File d:\clearsky\sources\sdk\include\stlport\stl\_alloc.h
_TEXT	ENDS
;	COMDAT ?allocate@?$_STLP_alloc_proxy@PAUrq_result@collide@@U12@V?$xalloc@Urq_result@collide@@@@@priv@stlp_std@@QAEPAUrq_result@collide@@IAAI@Z
_TEXT	SEGMENT
?allocate@?$_STLP_alloc_proxy@PAUrq_result@collide@@U12@V?$xalloc@Urq_result@collide@@@@@priv@stlp_std@@QAEPAUrq_result@collide@@IAAI@Z PROC ; stlp_std::priv::_STLP_alloc_proxy<collide::rq_result *,collide::rq_result,xalloc<collide::rq_result> >::allocate, COMDAT
; ___n$ = eax
; ___allocated_n$ = ecx

; 611  : #if !defined (__BORLANDC__)
; 612  :     typedef typename _IsSTLportClass<_MaybeReboundAlloc>::_Ret _STLportAlloc;
; 613  : #else
; 614  :     typedef typename __bool2type<_IsSTLportClass<_MaybeReboundAlloc>::_Is>::_Ret _STLportAlloc;
; 615  : #endif
; 616  :     return allocate(__n, __allocated_n, _STLportAlloc());

	lea	edx, DWORD PTR [eax+eax*2]
	add	edx, edx
	add	edx, edx
	mov	DWORD PTR [ecx], eax
	mov	ecx, DWORD PTR __imp_?Memory@@3VxrMemory@@A
	push	edx
	call	DWORD PTR __imp_?mem_alloc@xrMemory@@QAEPAXI@Z

; 617  :   }

	ret	0
?allocate@?$_STLP_alloc_proxy@PAUrq_result@collide@@U12@V?$xalloc@Urq_result@collide@@@@@priv@stlp_std@@QAEPAUrq_result@collide@@IAAI@Z ENDP ; stlp_std::priv::_STLP_alloc_proxy<collide::rq_result *,collide::rq_result,xalloc<collide::rq_result> >::allocate
; Function compile flags: /Ogtpy
; File d:\clearsky\sources\engine\xrcore\_stl_extensions.h
_TEXT	ENDS
;	COMDAT ??0?$xalloc@Urq_result@collide@@@@QAE@ABV0@@Z
_TEXT	SEGMENT
??0?$xalloc@Urq_result@collide@@@@QAE@ABV0@@Z PROC	; xalloc<collide::rq_result>::xalloc<collide::rq_result>, COMDAT
; _this$ = eax

; 78   : 													xalloc			(const xalloc<T>&)						{	}

	ret	0
??0?$xalloc@Urq_result@collide@@@@QAE@ABV0@@Z ENDP	; xalloc<collide::rq_result>::xalloc<collide::rq_result>
; Function compile flags: /Ogtpy
; File d:\clearsky\sources\sdk\include\stlport\stl\_iterator.h
_TEXT	ENDS
;	COMDAT ??0?$reverse_iterator@PAUParticle@CEffect_Rain@@@stlp_std@@QAE@PAUParticle@CEffect_Rain@@@Z
_TEXT	SEGMENT
??0?$reverse_iterator@PAUParticle@CEffect_Rain@@@stlp_std@@QAE@PAUParticle@CEffect_Rain@@@Z PROC ; stlp_std::reverse_iterator<CEffect_Rain::Particle *>::reverse_iterator<CEffect_Rain::Particle *>, COMDAT
; _this$ = eax
; ___x$ = ecx

; 65   :   explicit reverse_iterator(iterator_type __x) : current(__x) {}

	mov	DWORD PTR [eax], ecx
	ret	0
??0?$reverse_iterator@PAUParticle@CEffect_Rain@@@stlp_std@@QAE@PAUParticle@CEffect_Rain@@@Z ENDP ; stlp_std::reverse_iterator<CEffect_Rain::Particle *>::reverse_iterator<CEffect_Rain::Particle *>
; Function compile flags: /Ogtpy
_TEXT	ENDS
;	COMDAT ??0?$reverse_iterator@PAUItem@CEffect_Rain@@@stlp_std@@QAE@PAUItem@CEffect_Rain@@@Z
_TEXT	SEGMENT
??0?$reverse_iterator@PAUItem@CEffect_Rain@@@stlp_std@@QAE@PAUItem@CEffect_Rain@@@Z PROC ; stlp_std::reverse_iterator<CEffect_Rain::Item *>::reverse_iterator<CEffect_Rain::Item *>, COMDAT
; _this$ = eax
; ___x$ = ecx

; 65   :   explicit reverse_iterator(iterator_type __x) : current(__x) {}

	mov	DWORD PTR [eax], ecx
	ret	0
??0?$reverse_iterator@PAUItem@CEffect_Rain@@@stlp_std@@QAE@PAUItem@CEffect_Rain@@@Z ENDP ; stlp_std::reverse_iterator<CEffect_Rain::Item *>::reverse_iterator<CEffect_Rain::Item *>
; Function compile flags: /Ogtpy
_TEXT	ENDS
;	COMDAT ??0?$reverse_iterator@PAUSFlare@CLensFlareDescriptor@@@stlp_std@@QAE@PAUSFlare@CLensFlareDescriptor@@@Z
_TEXT	SEGMENT
??0?$reverse_iterator@PAUSFlare@CLensFlareDescriptor@@@stlp_std@@QAE@PAUSFlare@CLensFlareDescriptor@@@Z PROC ; stlp_std::reverse_iterator<CLensFlareDescriptor::SFlare *>::reverse_iterator<CLensFlareDescriptor::SFlare *>, COMDAT
; _this$ = eax
; ___x$ = ecx

; 65   :   explicit reverse_iterator(iterator_type __x) : current(__x) {}

	mov	DWORD PTR [eax], ecx
	ret	0
??0?$reverse_iterator@PAUSFlare@CLensFlareDescriptor@@@stlp_std@@QAE@PAUSFlare@CLensFlareDescriptor@@@Z ENDP ; stlp_std::reverse_iterator<CLensFlareDescriptor::SFlare *>::reverse_iterator<CLensFlareDescriptor::SFlare *>
; Function compile flags: /Ogtpy
_TEXT	ENDS
;	COMDAT ??0?$reverse_iterator@PAUrq_result@collide@@@stlp_std@@QAE@PAUrq_result@collide@@@Z
_TEXT	SEGMENT
??0?$reverse_iterator@PAUrq_result@collide@@@stlp_std@@QAE@PAUrq_result@collide@@@Z PROC ; stlp_std::reverse_iterator<collide::rq_result *>::reverse_iterator<collide::rq_result *>, COMDAT
; _this$ = eax
; ___x$ = ecx

; 65   :   explicit reverse_iterator(iterator_type __x) : current(__x) {}

	mov	DWORD PTR [eax], ecx
	ret	0
??0?$reverse_iterator@PAUrq_result@collide@@@stlp_std@@QAE@PAUrq_result@collide@@@Z ENDP ; stlp_std::reverse_iterator<collide::rq_result *>::reverse_iterator<collide::rq_result *>
; Function compile flags: /Ogtpy
; File d:\clearsky\sources\sdk\include\stlport\stl\_vector.h
_TEXT	ENDS
;	COMDAT ?size@?$_Impl_vector@UParticle@CEffect_Rain@@V?$xalloc@UParticle@CEffect_Rain@@@@@priv@stlp_std@@QBEIXZ
_TEXT	SEGMENT
?size@?$_Impl_vector@UParticle@CEffect_Rain@@V?$xalloc@UParticle@CEffect_Rain@@@@@priv@stlp_std@@QBEIXZ PROC ; stlp_std::priv::_Impl_vector<CEffect_Rain::Particle,xalloc<CEffect_Rain::Particle> >::size, COMDAT
; _this$ = eax

; 180  :   size_type size() const        { return size_type(this->_M_finish - this->_M_start); }

	mov	ecx, DWORD PTR [eax+4]
	sub	ecx, DWORD PTR [eax]
	mov	eax, -1307163959			; b21642c9H
	imul	ecx
	add	edx, ecx
	sar	edx, 6
	mov	eax, edx
	shr	eax, 31					; 0000001fH
	add	eax, edx
	ret	0
?size@?$_Impl_vector@UParticle@CEffect_Rain@@V?$xalloc@UParticle@CEffect_Rain@@@@@priv@stlp_std@@QBEIXZ ENDP ; stlp_std::priv::_Impl_vector<CEffect_Rain::Particle,xalloc<CEffect_Rain::Particle> >::size
; Function compile flags: /Ogtpy
_TEXT	ENDS
;	COMDAT ?end@?$_Impl_vector@UParticle@CEffect_Rain@@V?$xalloc@UParticle@CEffect_Rain@@@@@priv@stlp_std@@QBEPBUParticle@CEffect_Rain@@XZ
_TEXT	SEGMENT
?end@?$_Impl_vector@UParticle@CEffect_Rain@@V?$xalloc@UParticle@CEffect_Rain@@@@@priv@stlp_std@@QBEPBUParticle@CEffect_Rain@@XZ PROC ; stlp_std::priv::_Impl_vector<CEffect_Rain::Particle,xalloc<CEffect_Rain::Particle> >::end, COMDAT
; _this$ = eax

; 173  :   const_iterator end() const   { return this->_M_finish; }

	mov	eax, DWORD PTR [eax+4]
	ret	0
?end@?$_Impl_vector@UParticle@CEffect_Rain@@V?$xalloc@UParticle@CEffect_Rain@@@@@priv@stlp_std@@QBEPBUParticle@CEffect_Rain@@XZ ENDP ; stlp_std::priv::_Impl_vector<CEffect_Rain::Particle,xalloc<CEffect_Rain::Particle> >::end
; Function compile flags: /Ogtpy
_TEXT	ENDS
;	COMDAT ?end@?$_Impl_vector@UParticle@CEffect_Rain@@V?$xalloc@UParticle@CEffect_Rain@@@@@priv@stlp_std@@QAEPAUParticle@CEffect_Rain@@XZ
_TEXT	SEGMENT
?end@?$_Impl_vector@UParticle@CEffect_Rain@@V?$xalloc@UParticle@CEffect_Rain@@@@@priv@stlp_std@@QAEPAUParticle@CEffect_Rain@@XZ PROC ; stlp_std::priv::_Impl_vector<CEffect_Rain::Particle,xalloc<CEffect_Rain::Particle> >::end, COMDAT
; _this$ = eax

; 172  :   iterator end()               { return this->_M_finish; }

	mov	eax, DWORD PTR [eax+4]
	ret	0
?end@?$_Impl_vector@UParticle@CEffect_Rain@@V?$xalloc@UParticle@CEffect_Rain@@@@@priv@stlp_std@@QAEPAUParticle@CEffect_Rain@@XZ ENDP ; stlp_std::priv::_Impl_vector<CEffect_Rain::Particle,xalloc<CEffect_Rain::Particle> >::end
; Function compile flags: /Ogtpy
_TEXT	ENDS
;	COMDAT ?begin@?$_Impl_vector@UParticle@CEffect_Rain@@V?$xalloc@UParticle@CEffect_Rain@@@@@priv@stlp_std@@QBEPBUParticle@CEffect_Rain@@XZ
_TEXT	SEGMENT
?begin@?$_Impl_vector@UParticle@CEffect_Rain@@V?$xalloc@UParticle@CEffect_Rain@@@@@priv@stlp_std@@QBEPBUParticle@CEffect_Rain@@XZ PROC ; stlp_std::priv::_Impl_vector<CEffect_Rain::Particle,xalloc<CEffect_Rain::Particle> >::begin, COMDAT
; _this$ = eax

; 171  :   const_iterator begin() const { return this->_M_start; }

	mov	eax, DWORD PTR [eax]
	ret	0
?begin@?$_Impl_vector@UParticle@CEffect_Rain@@V?$xalloc@UParticle@CEffect_Rain@@@@@priv@stlp_std@@QBEPBUParticle@CEffect_Rain@@XZ ENDP ; stlp_std::priv::_Impl_vector<CEffect_Rain::Particle,xalloc<CEffect_Rain::Particle> >::begin
; Function compile flags: /Ogtpy
_TEXT	ENDS
;	COMDAT ?begin@?$_Impl_vector@UParticle@CEffect_Rain@@V?$xalloc@UParticle@CEffect_Rain@@@@@priv@stlp_std@@QAEPAUParticle@CEffect_Rain@@XZ
_TEXT	SEGMENT
?begin@?$_Impl_vector@UParticle@CEffect_Rain@@V?$xalloc@UParticle@CEffect_Rain@@@@@priv@stlp_std@@QAEPAUParticle@CEffect_Rain@@XZ PROC ; stlp_std::priv::_Impl_vector<CEffect_Rain::Particle,xalloc<CEffect_Rain::Particle> >::begin, COMDAT
; _this$ = eax

; 170  :   iterator begin()             { return this->_M_start; }

	mov	eax, DWORD PTR [eax]
	ret	0
?begin@?$_Impl_vector@UParticle@CEffect_Rain@@V?$xalloc@UParticle@CEffect_Rain@@@@@priv@stlp_std@@QAEPAUParticle@CEffect_Rain@@XZ ENDP ; stlp_std::priv::_Impl_vector<CEffect_Rain::Particle,xalloc<CEffect_Rain::Particle> >::begin
; Function compile flags: /Ogtpy
_TEXT	ENDS
;	COMDAT ?get_allocator@?$_Impl_vector@UParticle@CEffect_Rain@@V?$xalloc@UParticle@CEffect_Rain@@@@@priv@stlp_std@@QBE?AV?$xalloc@UParticle@CEffect_Rain@@@@XZ
_TEXT	SEGMENT
?get_allocator@?$_Impl_vector@UParticle@CEffect_Rain@@V?$xalloc@UParticle@CEffect_Rain@@@@@priv@stlp_std@@QBE?AV?$xalloc@UParticle@CEffect_Rain@@@@XZ PROC ; stlp_std::priv::_Impl_vector<CEffect_Rain::Particle,xalloc<CEffect_Rain::Particle> >::get_allocator, COMDAT
; ___$ReturnUdt$ = eax

; 134  :   { return _STLP_CONVERT_ALLOCATOR((const allocator_type&)this->_M_end_of_storage, _Tp); }

	ret	0
?get_allocator@?$_Impl_vector@UParticle@CEffect_Rain@@V?$xalloc@UParticle@CEffect_Rain@@@@@priv@stlp_std@@QBE?AV?$xalloc@UParticle@CEffect_Rain@@@@XZ ENDP ; stlp_std::priv::_Impl_vector<CEffect_Rain::Particle,xalloc<CEffect_Rain::Particle> >::get_allocator
; Function compile flags: /Ogtpy
; File d:\clearsky\sources\engine\xrcore\_stl_extensions.h
_TEXT	ENDS
;	COMDAT ?deallocate@?$xalloc@UParticle@CEffect_Rain@@@@QBEXPAUParticle@CEffect_Rain@@I@Z
_TEXT	SEGMENT
?deallocate@?$xalloc@UParticle@CEffect_Rain@@@@QBEXPAUParticle@CEffect_Rain@@I@Z PROC ; xalloc<CEffect_Rain::Particle>::deallocate, COMDAT
; _p$ = eax

; 83   : 							void					deallocate		(pointer p, size_type n) const			{	xr_free	(p);				}

	test	eax, eax
	je	SHORT $LN3@deallocate@19
	mov	ecx, DWORD PTR __imp_?Memory@@3VxrMemory@@A
	push	eax
	call	DWORD PTR __imp_?mem_free@xrMemory@@QAEXPAX@Z
$LN3@deallocate@19:
	ret	0
?deallocate@?$xalloc@UParticle@CEffect_Rain@@@@QBEXPAUParticle@CEffect_Rain@@I@Z ENDP ; xalloc<CEffect_Rain::Particle>::deallocate
; Function compile flags: /Ogtpy
; File d:\clearsky\sources\sdk\include\stlport\stl\_vector.h
_TEXT	ENDS
;	COMDAT ?size@?$_Impl_vector@UItem@CEffect_Rain@@V?$xalloc@UItem@CEffect_Rain@@@@@priv@stlp_std@@QBEIXZ
_TEXT	SEGMENT
?size@?$_Impl_vector@UItem@CEffect_Rain@@V?$xalloc@UItem@CEffect_Rain@@@@@priv@stlp_std@@QBEIXZ PROC ; stlp_std::priv::_Impl_vector<CEffect_Rain::Item,xalloc<CEffect_Rain::Item> >::size, COMDAT
; _this$ = eax

; 180  :   size_type size() const        { return size_type(this->_M_finish - this->_M_start); }

	mov	ecx, DWORD PTR [eax+4]
	sub	ecx, DWORD PTR [eax]
	mov	eax, 1321528399				; 4ec4ec4fH
	imul	ecx
	sar	edx, 4
	mov	eax, edx
	shr	eax, 31					; 0000001fH
	add	eax, edx
	ret	0
?size@?$_Impl_vector@UItem@CEffect_Rain@@V?$xalloc@UItem@CEffect_Rain@@@@@priv@stlp_std@@QBEIXZ ENDP ; stlp_std::priv::_Impl_vector<CEffect_Rain::Item,xalloc<CEffect_Rain::Item> >::size
; Function compile flags: /Ogtpy
_TEXT	ENDS
;	COMDAT ?end@?$_Impl_vector@UItem@CEffect_Rain@@V?$xalloc@UItem@CEffect_Rain@@@@@priv@stlp_std@@QBEPBUItem@CEffect_Rain@@XZ
_TEXT	SEGMENT
?end@?$_Impl_vector@UItem@CEffect_Rain@@V?$xalloc@UItem@CEffect_Rain@@@@@priv@stlp_std@@QBEPBUItem@CEffect_Rain@@XZ PROC ; stlp_std::priv::_Impl_vector<CEffect_Rain::Item,xalloc<CEffect_Rain::Item> >::end, COMDAT
; _this$ = eax

; 173  :   const_iterator end() const   { return this->_M_finish; }

	mov	eax, DWORD PTR [eax+4]
	ret	0
?end@?$_Impl_vector@UItem@CEffect_Rain@@V?$xalloc@UItem@CEffect_Rain@@@@@priv@stlp_std@@QBEPBUItem@CEffect_Rain@@XZ ENDP ; stlp_std::priv::_Impl_vector<CEffect_Rain::Item,xalloc<CEffect_Rain::Item> >::end
; Function compile flags: /Ogtpy
_TEXT	ENDS
;	COMDAT ?end@?$_Impl_vector@UItem@CEffect_Rain@@V?$xalloc@UItem@CEffect_Rain@@@@@priv@stlp_std@@QAEPAUItem@CEffect_Rain@@XZ
_TEXT	SEGMENT
?end@?$_Impl_vector@UItem@CEffect_Rain@@V?$xalloc@UItem@CEffect_Rain@@@@@priv@stlp_std@@QAEPAUItem@CEffect_Rain@@XZ PROC ; stlp_std::priv::_Impl_vector<CEffect_Rain::Item,xalloc<CEffect_Rain::Item> >::end, COMDAT
; _this$ = eax

; 172  :   iterator end()               { return this->_M_finish; }

	mov	eax, DWORD PTR [eax+4]
	ret	0
?end@?$_Impl_vector@UItem@CEffect_Rain@@V?$xalloc@UItem@CEffect_Rain@@@@@priv@stlp_std@@QAEPAUItem@CEffect_Rain@@XZ ENDP ; stlp_std::priv::_Impl_vector<CEffect_Rain::Item,xalloc<CEffect_Rain::Item> >::end
; Function compile flags: /Ogtpy
_TEXT	ENDS
;	COMDAT ?begin@?$_Impl_vector@UItem@CEffect_Rain@@V?$xalloc@UItem@CEffect_Rain@@@@@priv@stlp_std@@QBEPBUItem@CEffect_Rain@@XZ
_TEXT	SEGMENT
?begin@?$_Impl_vector@UItem@CEffect_Rain@@V?$xalloc@UItem@CEffect_Rain@@@@@priv@stlp_std@@QBEPBUItem@CEffect_Rain@@XZ PROC ; stlp_std::priv::_Impl_vector<CEffect_Rain::Item,xalloc<CEffect_Rain::Item> >::begin, COMDAT
; _this$ = eax

; 171  :   const_iterator begin() const { return this->_M_start; }

	mov	eax, DWORD PTR [eax]
	ret	0
?begin@?$_Impl_vector@UItem@CEffect_Rain@@V?$xalloc@UItem@CEffect_Rain@@@@@priv@stlp_std@@QBEPBUItem@CEffect_Rain@@XZ ENDP ; stlp_std::priv::_Impl_vector<CEffect_Rain::Item,xalloc<CEffect_Rain::Item> >::begin
; Function compile flags: /Ogtpy
_TEXT	ENDS
;	COMDAT ?begin@?$_Impl_vector@UItem@CEffect_Rain@@V?$xalloc@UItem@CEffect_Rain@@@@@priv@stlp_std@@QAEPAUItem@CEffect_Rain@@XZ
_TEXT	SEGMENT
?begin@?$_Impl_vector@UItem@CEffect_Rain@@V?$xalloc@UItem@CEffect_Rain@@@@@priv@stlp_std@@QAEPAUItem@CEffect_Rain@@XZ PROC ; stlp_std::priv::_Impl_vector<CEffect_Rain::Item,xalloc<CEffect_Rain::Item> >::begin, COMDAT
; _this$ = eax

; 170  :   iterator begin()             { return this->_M_start; }

	mov	eax, DWORD PTR [eax]
	ret	0
?begin@?$_Impl_vector@UItem@CEffect_Rain@@V?$xalloc@UItem@CEffect_Rain@@@@@priv@stlp_std@@QAEPAUItem@CEffect_Rain@@XZ ENDP ; stlp_std::priv::_Impl_vector<CEffect_Rain::Item,xalloc<CEffect_Rain::Item> >::begin
; Function compile flags: /Ogtpy
_TEXT	ENDS
;	COMDAT ?get_allocator@?$_Impl_vector@UItem@CEffect_Rain@@V?$xalloc@UItem@CEffect_Rain@@@@@priv@stlp_std@@QBE?AV?$xalloc@UItem@CEffect_Rain@@@@XZ
_TEXT	SEGMENT
?get_allocator@?$_Impl_vector@UItem@CEffect_Rain@@V?$xalloc@UItem@CEffect_Rain@@@@@priv@stlp_std@@QBE?AV?$xalloc@UItem@CEffect_Rain@@@@XZ PROC ; stlp_std::priv::_Impl_vector<CEffect_Rain::Item,xalloc<CEffect_Rain::Item> >::get_allocator, COMDAT
; ___$ReturnUdt$ = eax

; 134  :   { return _STLP_CONVERT_ALLOCATOR((const allocator_type&)this->_M_end_of_storage, _Tp); }

	ret	0
?get_allocator@?$_Impl_vector@UItem@CEffect_Rain@@V?$xalloc@UItem@CEffect_Rain@@@@@priv@stlp_std@@QBE?AV?$xalloc@UItem@CEffect_Rain@@@@XZ ENDP ; stlp_std::priv::_Impl_vector<CEffect_Rain::Item,xalloc<CEffect_Rain::Item> >::get_allocator
; Function compile flags: /Ogtpy
; File d:\clearsky\sources\engine\xrcore\_stl_extensions.h
_TEXT	ENDS
;	COMDAT ?deallocate@?$xalloc@UItem@CEffect_Rain@@@@QBEXPAUItem@CEffect_Rain@@I@Z
_TEXT	SEGMENT
?deallocate@?$xalloc@UItem@CEffect_Rain@@@@QBEXPAUItem@CEffect_Rain@@I@Z PROC ; xalloc<CEffect_Rain::Item>::deallocate, COMDAT
; _p$ = eax

; 83   : 							void					deallocate		(pointer p, size_type n) const			{	xr_free	(p);				}

	test	eax, eax
	je	SHORT $LN3@deallocate@20
	mov	ecx, DWORD PTR __imp_?Memory@@3VxrMemory@@A
	push	eax
	call	DWORD PTR __imp_?mem_free@xrMemory@@QAEXPAX@Z
$LN3@deallocate@20:
	ret	0
?deallocate@?$xalloc@UItem@CEffect_Rain@@@@QBEXPAUItem@CEffect_Rain@@I@Z ENDP ; xalloc<CEffect_Rain::Item>::deallocate
; Function compile flags: /Ogtpy
; File d:\clearsky\sources\sdk\include\stlport\stl\_vector.h
_TEXT	ENDS
;	COMDAT ?size@?$_Impl_vector@USFlare@CLensFlareDescriptor@@V?$xalloc@USFlare@CLensFlareDescriptor@@@@@priv@stlp_std@@QBEIXZ
_TEXT	SEGMENT
?size@?$_Impl_vector@USFlare@CLensFlareDescriptor@@V?$xalloc@USFlare@CLensFlareDescriptor@@@@@priv@stlp_std@@QBEIXZ PROC ; stlp_std::priv::_Impl_vector<CLensFlareDescriptor::SFlare,xalloc<CLensFlareDescriptor::SFlare> >::size, COMDAT
; _this$ = eax

; 180  :   size_type size() const        { return size_type(this->_M_finish - this->_M_start); }

	mov	ecx, DWORD PTR [eax+4]
	sub	ecx, DWORD PTR [eax]
	mov	eax, 715827883				; 2aaaaaabH
	imul	ecx
	sar	edx, 2
	mov	eax, edx
	shr	eax, 31					; 0000001fH
	add	eax, edx
	ret	0
?size@?$_Impl_vector@USFlare@CLensFlareDescriptor@@V?$xalloc@USFlare@CLensFlareDescriptor@@@@@priv@stlp_std@@QBEIXZ ENDP ; stlp_std::priv::_Impl_vector<CLensFlareDescriptor::SFlare,xalloc<CLensFlareDescriptor::SFlare> >::size
; Function compile flags: /Ogtpy
_TEXT	ENDS
;	COMDAT ?end@?$_Impl_vector@USFlare@CLensFlareDescriptor@@V?$xalloc@USFlare@CLensFlareDescriptor@@@@@priv@stlp_std@@QBEPBUSFlare@CLensFlareDescriptor@@XZ
_TEXT	SEGMENT
?end@?$_Impl_vector@USFlare@CLensFlareDescriptor@@V?$xalloc@USFlare@CLensFlareDescriptor@@@@@priv@stlp_std@@QBEPBUSFlare@CLensFlareDescriptor@@XZ PROC ; stlp_std::priv::_Impl_vector<CLensFlareDescriptor::SFlare,xalloc<CLensFlareDescriptor::SFlare> >::end, COMDAT
; _this$ = eax

; 173  :   const_iterator end() const   { return this->_M_finish; }

	mov	eax, DWORD PTR [eax+4]
	ret	0
?end@?$_Impl_vector@USFlare@CLensFlareDescriptor@@V?$xalloc@USFlare@CLensFlareDescriptor@@@@@priv@stlp_std@@QBEPBUSFlare@CLensFlareDescriptor@@XZ ENDP ; stlp_std::priv::_Impl_vector<CLensFlareDescriptor::SFlare,xalloc<CLensFlareDescriptor::SFlare> >::end
; Function compile flags: /Ogtpy
_TEXT	ENDS
;	COMDAT ?end@?$_Impl_vector@USFlare@CLensFlareDescriptor@@V?$xalloc@USFlare@CLensFlareDescriptor@@@@@priv@stlp_std@@QAEPAUSFlare@CLensFlareDescriptor@@XZ
_TEXT	SEGMENT
?end@?$_Impl_vector@USFlare@CLensFlareDescriptor@@V?$xalloc@USFlare@CLensFlareDescriptor@@@@@priv@stlp_std@@QAEPAUSFlare@CLensFlareDescriptor@@XZ PROC ; stlp_std::priv::_Impl_vector<CLensFlareDescriptor::SFlare,xalloc<CLensFlareDescriptor::SFlare> >::end, COMDAT
; _this$ = eax

; 172  :   iterator end()               { return this->_M_finish; }

	mov	eax, DWORD PTR [eax+4]
	ret	0
?end@?$_Impl_vector@USFlare@CLensFlareDescriptor@@V?$xalloc@USFlare@CLensFlareDescriptor@@@@@priv@stlp_std@@QAEPAUSFlare@CLensFlareDescriptor@@XZ ENDP ; stlp_std::priv::_Impl_vector<CLensFlareDescriptor::SFlare,xalloc<CLensFlareDescriptor::SFlare> >::end
; Function compile flags: /Ogtpy
_TEXT	ENDS
;	COMDAT ?begin@?$_Impl_vector@USFlare@CLensFlareDescriptor@@V?$xalloc@USFlare@CLensFlareDescriptor@@@@@priv@stlp_std@@QBEPBUSFlare@CLensFlareDescriptor@@XZ
_TEXT	SEGMENT
?begin@?$_Impl_vector@USFlare@CLensFlareDescriptor@@V?$xalloc@USFlare@CLensFlareDescriptor@@@@@priv@stlp_std@@QBEPBUSFlare@CLensFlareDescriptor@@XZ PROC ; stlp_std::priv::_Impl_vector<CLensFlareDescriptor::SFlare,xalloc<CLensFlareDescriptor::SFlare> >::begin, COMDAT
; _this$ = eax

; 171  :   const_iterator begin() const { return this->_M_start; }

	mov	eax, DWORD PTR [eax]
	ret	0
?begin@?$_Impl_vector@USFlare@CLensFlareDescriptor@@V?$xalloc@USFlare@CLensFlareDescriptor@@@@@priv@stlp_std@@QBEPBUSFlare@CLensFlareDescriptor@@XZ ENDP ; stlp_std::priv::_Impl_vector<CLensFlareDescriptor::SFlare,xalloc<CLensFlareDescriptor::SFlare> >::begin
; Function compile flags: /Ogtpy
_TEXT	ENDS
;	COMDAT ?begin@?$_Impl_vector@USFlare@CLensFlareDescriptor@@V?$xalloc@USFlare@CLensFlareDescriptor@@@@@priv@stlp_std@@QAEPAUSFlare@CLensFlareDescriptor@@XZ
_TEXT	SEGMENT
?begin@?$_Impl_vector@USFlare@CLensFlareDescriptor@@V?$xalloc@USFlare@CLensFlareDescriptor@@@@@priv@stlp_std@@QAEPAUSFlare@CLensFlareDescriptor@@XZ PROC ; stlp_std::priv::_Impl_vector<CLensFlareDescriptor::SFlare,xalloc<CLensFlareDescriptor::SFlare> >::begin, COMDAT
; _this$ = eax

; 170  :   iterator begin()             { return this->_M_start; }

	mov	eax, DWORD PTR [eax]
	ret	0
?begin@?$_Impl_vector@USFlare@CLensFlareDescriptor@@V?$xalloc@USFlare@CLensFlareDescriptor@@@@@priv@stlp_std@@QAEPAUSFlare@CLensFlareDescriptor@@XZ ENDP ; stlp_std::priv::_Impl_vector<CLensFlareDescriptor::SFlare,xalloc<CLensFlareDescriptor::SFlare> >::begin
; Function compile flags: /Ogtpy
_TEXT	ENDS
;	COMDAT ?get_allocator@?$_Impl_vector@USFlare@CLensFlareDescriptor@@V?$xalloc@USFlare@CLensFlareDescriptor@@@@@priv@stlp_std@@QBE?AV?$xalloc@USFlare@CLensFlareDescriptor@@@@XZ
_TEXT	SEGMENT
?get_allocator@?$_Impl_vector@USFlare@CLensFlareDescriptor@@V?$xalloc@USFlare@CLensFlareDescriptor@@@@@priv@stlp_std@@QBE?AV?$xalloc@USFlare@CLensFlareDescriptor@@@@XZ PROC ; stlp_std::priv::_Impl_vector<CLensFlareDescriptor::SFlare,xalloc<CLensFlareDescriptor::SFlare> >::get_allocator, COMDAT
; ___$ReturnUdt$ = eax

; 134  :   { return _STLP_CONVERT_ALLOCATOR((const allocator_type&)this->_M_end_of_storage, _Tp); }

	ret	0
?get_allocator@?$_Impl_vector@USFlare@CLensFlareDescriptor@@V?$xalloc@USFlare@CLensFlareDescriptor@@@@@priv@stlp_std@@QBE?AV?$xalloc@USFlare@CLensFlareDescriptor@@@@XZ ENDP ; stlp_std::priv::_Impl_vector<CLensFlareDescriptor::SFlare,xalloc<CLensFlareDescriptor::SFlare> >::get_allocator
; Function compile flags: /Ogtpy
; File d:\clearsky\sources\engine\xrcore\_stl_extensions.h
_TEXT	ENDS
;	COMDAT ?deallocate@?$xalloc@USFlare@CLensFlareDescriptor@@@@QBEXPAUSFlare@CLensFlareDescriptor@@I@Z
_TEXT	SEGMENT
?deallocate@?$xalloc@USFlare@CLensFlareDescriptor@@@@QBEXPAUSFlare@CLensFlareDescriptor@@I@Z PROC ; xalloc<CLensFlareDescriptor::SFlare>::deallocate, COMDAT
; _p$ = eax

; 83   : 							void					deallocate		(pointer p, size_type n) const			{	xr_free	(p);				}

	test	eax, eax
	je	SHORT $LN3@deallocate@21
	mov	ecx, DWORD PTR __imp_?Memory@@3VxrMemory@@A
	push	eax
	call	DWORD PTR __imp_?mem_free@xrMemory@@QAEXPAX@Z
$LN3@deallocate@21:
	ret	0
?deallocate@?$xalloc@USFlare@CLensFlareDescriptor@@@@QBEXPAUSFlare@CLensFlareDescriptor@@I@Z ENDP ; xalloc<CLensFlareDescriptor::SFlare>::deallocate
; Function compile flags: /Ogtpy
; File d:\clearsky\sources\sdk\include\stlport\stl\_vector.h
_TEXT	ENDS
;	COMDAT ?size@?$_Impl_vector@Urq_result@collide@@V?$xalloc@Urq_result@collide@@@@@priv@stlp_std@@QBEIXZ
_TEXT	SEGMENT
?size@?$_Impl_vector@Urq_result@collide@@V?$xalloc@Urq_result@collide@@@@@priv@stlp_std@@QBEIXZ PROC ; stlp_std::priv::_Impl_vector<collide::rq_result,xalloc<collide::rq_result> >::size, COMDAT
; _this$ = eax

; 180  :   size_type size() const        { return size_type(this->_M_finish - this->_M_start); }

	mov	ecx, DWORD PTR [eax+4]
	sub	ecx, DWORD PTR [eax]
	mov	eax, 715827883				; 2aaaaaabH
	imul	ecx
	sar	edx, 1
	mov	eax, edx
	shr	eax, 31					; 0000001fH
	add	eax, edx
	ret	0
?size@?$_Impl_vector@Urq_result@collide@@V?$xalloc@Urq_result@collide@@@@@priv@stlp_std@@QBEIXZ ENDP ; stlp_std::priv::_Impl_vector<collide::rq_result,xalloc<collide::rq_result> >::size
; Function compile flags: /Ogtpy
_TEXT	ENDS
;	COMDAT ?end@?$_Impl_vector@Urq_result@collide@@V?$xalloc@Urq_result@collide@@@@@priv@stlp_std@@QBEPBUrq_result@collide@@XZ
_TEXT	SEGMENT
?end@?$_Impl_vector@Urq_result@collide@@V?$xalloc@Urq_result@collide@@@@@priv@stlp_std@@QBEPBUrq_result@collide@@XZ PROC ; stlp_std::priv::_Impl_vector<collide::rq_result,xalloc<collide::rq_result> >::end, COMDAT
; _this$ = eax

; 173  :   const_iterator end() const   { return this->_M_finish; }

	mov	eax, DWORD PTR [eax+4]
	ret	0
?end@?$_Impl_vector@Urq_result@collide@@V?$xalloc@Urq_result@collide@@@@@priv@stlp_std@@QBEPBUrq_result@collide@@XZ ENDP ; stlp_std::priv::_Impl_vector<collide::rq_result,xalloc<collide::rq_result> >::end
; Function compile flags: /Ogtpy
_TEXT	ENDS
;	COMDAT ?begin@?$_Impl_vector@Urq_result@collide@@V?$xalloc@Urq_result@collide@@@@@priv@stlp_std@@QBEPBUrq_result@collide@@XZ
_TEXT	SEGMENT
?begin@?$_Impl_vector@Urq_result@collide@@V?$xalloc@Urq_result@collide@@@@@priv@stlp_std@@QBEPBUrq_result@collide@@XZ PROC ; stlp_std::priv::_Impl_vector<collide::rq_result,xalloc<collide::rq_result> >::begin, COMDAT
; _this$ = eax

; 171  :   const_iterator begin() const { return this->_M_start; }

	mov	eax, DWORD PTR [eax]
	ret	0
?begin@?$_Impl_vector@Urq_result@collide@@V?$xalloc@Urq_result@collide@@@@@priv@stlp_std@@QBEPBUrq_result@collide@@XZ ENDP ; stlp_std::priv::_Impl_vector<collide::rq_result,xalloc<collide::rq_result> >::begin
; Function compile flags: /Ogtpy
_TEXT	ENDS
;	COMDAT ?get_allocator@?$_Impl_vector@Urq_result@collide@@V?$xalloc@Urq_result@collide@@@@@priv@stlp_std@@QBE?AV?$xalloc@Urq_result@collide@@@@XZ
_TEXT	SEGMENT
?get_allocator@?$_Impl_vector@Urq_result@collide@@V?$xalloc@Urq_result@collide@@@@@priv@stlp_std@@QBE?AV?$xalloc@Urq_result@collide@@@@XZ PROC ; stlp_std::priv::_Impl_vector<collide::rq_result,xalloc<collide::rq_result> >::get_allocator, COMDAT
; ___$ReturnUdt$ = eax

; 134  :   { return _STLP_CONVERT_ALLOCATOR((const allocator_type&)this->_M_end_of_storage, _Tp); }

	ret	0
?get_allocator@?$_Impl_vector@Urq_result@collide@@V?$xalloc@Urq_result@collide@@@@@priv@stlp_std@@QBE?AV?$xalloc@Urq_result@collide@@@@XZ ENDP ; stlp_std::priv::_Impl_vector<collide::rq_result,xalloc<collide::rq_result> >::get_allocator
; Function compile flags: /Ogtpy
; File d:\clearsky\sources\engine\xrcore\_stl_extensions.h
_TEXT	ENDS
;	COMDAT ?deallocate@?$xalloc@Urq_result@collide@@@@QBEXPAUrq_result@collide@@I@Z
_TEXT	SEGMENT
?deallocate@?$xalloc@Urq_result@collide@@@@QBEXPAUrq_result@collide@@I@Z PROC ; xalloc<collide::rq_result>::deallocate, COMDAT
; _p$ = eax

; 83   : 							void					deallocate		(pointer p, size_type n) const			{	xr_free	(p);				}

	test	eax, eax
	je	SHORT $LN3@deallocate@22
	mov	ecx, DWORD PTR __imp_?Memory@@3VxrMemory@@A
	push	eax
	call	DWORD PTR __imp_?mem_free@xrMemory@@QAEXPAX@Z
$LN3@deallocate@22:
	ret	0
?deallocate@?$xalloc@Urq_result@collide@@@@QBEXPAUrq_result@collide@@I@Z ENDP ; xalloc<collide::rq_result>::deallocate
; Function compile flags: /Ogtpy
; File d:\clearsky\sources\sdk\include\stlport\stl\_vector.h
_TEXT	ENDS
;	COMDAT ?_M_range_check@?$_Impl_vector@PAXV?$xalloc@PAX@@@priv@stlp_std@@ABEXI@Z
_TEXT	SEGMENT
_this$ = 8						; size = 4
?_M_range_check@?$_Impl_vector@PAXV?$xalloc@PAX@@@priv@stlp_std@@ABEXI@Z PROC ; stlp_std::priv::_Impl_vector<void *,xalloc<void *> >::_M_range_check, COMDAT

; 165  :     if (__n >= size_type(this->_M_finish - this->_M_start))
; 166  :       this->_M_throw_out_of_range();

	push	OFFSET ??_C@_06NBFPPGEG@vector?$AA@
	call	DWORD PTR __imp__puts
	add	esp, 4
	call	DWORD PTR __imp__abort
$LN14@M_range_ch:
$LN13@M_range_ch:
	int	3
?_M_range_check@?$_Impl_vector@PAXV?$xalloc@PAX@@@priv@stlp_std@@ABEXI@Z ENDP ; stlp_std::priv::_Impl_vector<void *,xalloc<void *> >::_M_range_check
; Function compile flags: /Ogtpy
; File d:\clearsky\sources\sdk\include\stlport\stl\pointers\_tools.h
_TEXT	ENDS
;	COMDAT ?to_value_type_ptr@?$_CastTraits@VCEnvModifier@@V1@@priv@stlp_std@@SAPAVCEnvModifier@@PAV4@@Z
_TEXT	SEGMENT
?to_value_type_ptr@?$_CastTraits@VCEnvModifier@@V1@@priv@stlp_std@@SAPAVCEnvModifier@@PAV4@@Z PROC ; stlp_std::priv::_CastTraits<CEnvModifier,CEnvModifier>::to_value_type_ptr, COMDAT
; ___ptr$ = eax

; 237  :   { return __ptr; }

	ret	0
?to_value_type_ptr@?$_CastTraits@VCEnvModifier@@V1@@priv@stlp_std@@SAPAVCEnvModifier@@PAV4@@Z ENDP ; stlp_std::priv::_CastTraits<CEnvModifier,CEnvModifier>::to_value_type_ptr
; Function compile flags: /Ogtpy
; File d:\clearsky\sources\engine\xrcore\_stl_extensions.h
_TEXT	ENDS
;	COMDAT ??0?$xalloc@U?$pair@$$CBVshared_str@@V?$xr_vector@PAVCEnvDescriptor@@V?$xalloc@PAVCEnvDescriptor@@@@@@@stlp_std@@@@QAE@XZ
_TEXT	SEGMENT
??0?$xalloc@U?$pair@$$CBVshared_str@@V?$xr_vector@PAVCEnvDescriptor@@V?$xalloc@PAVCEnvDescriptor@@@@@@@stlp_std@@@@QAE@XZ PROC ; xalloc<stlp_std::pair<shared_str const ,xr_vector<CEnvDescriptor *,xalloc<CEnvDescriptor *> > > >::xalloc<stlp_std::pair<shared_str const ,xr_vector<CEnvDescriptor *,xalloc<CEnvDescriptor *> > > >, COMDAT
; _this$ = eax

; 77   : 													xalloc			()										{	}

	ret	0
??0?$xalloc@U?$pair@$$CBVshared_str@@V?$xr_vector@PAVCEnvDescriptor@@V?$xalloc@PAVCEnvDescriptor@@@@@@@stlp_std@@@@QAE@XZ ENDP ; xalloc<stlp_std::pair<shared_str const ,xr_vector<CEnvDescriptor *,xalloc<CEnvDescriptor *> > > >::xalloc<stlp_std::pair<shared_str const ,xr_vector<CEnvDescriptor *,xalloc<CEnvDescriptor *> > > >
; Function compile flags: /Ogtpy
; File d:\clearsky\sources\sdk\include\stlport\stl\pointers\_tools.h
_TEXT	ENDS
;	COMDAT ?to_storage_type_cref@?$_CastTraits@MM@priv@stlp_std@@SAABMABM@Z
_TEXT	SEGMENT
?to_storage_type_cref@?$_CastTraits@MM@priv@stlp_std@@SAABMABM@Z PROC ; stlp_std::priv::_CastTraits<float,float>::to_storage_type_cref, COMDAT
; ___ref$ = eax

; 254  :   { return __ref; }

	ret	0
?to_storage_type_cref@?$_CastTraits@MM@priv@stlp_std@@SAABMABM@Z ENDP ; stlp_std::priv::_CastTraits<float,float>::to_storage_type_cref
; Function compile flags: /Ogtpy
_TEXT	ENDS
;	COMDAT ?to_storage_type_cref@?$_CastTraits@GG@priv@stlp_std@@SAABGABG@Z
_TEXT	SEGMENT
?to_storage_type_cref@?$_CastTraits@GG@priv@stlp_std@@SAABGABG@Z PROC ; stlp_std::priv::_CastTraits<unsigned short,unsigned short>::to_storage_type_cref, COMDAT
; ___ref$ = eax

; 254  :   { return __ref; }

	ret	0
?to_storage_type_cref@?$_CastTraits@GG@priv@stlp_std@@SAABGABG@Z ENDP ; stlp_std::priv::_CastTraits<unsigned short,unsigned short>::to_storage_type_cref
; Function compile flags: /Ogtpy
_TEXT	ENDS
;	COMDAT ?to_value_type_ref@?$_CastTraits@GG@priv@stlp_std@@SAAAGAAG@Z
_TEXT	SEGMENT
?to_value_type_ref@?$_CastTraits@GG@priv@stlp_std@@SAAAGAAG@Z PROC ; stlp_std::priv::_CastTraits<unsigned short,unsigned short>::to_value_type_ref, COMDAT
; ___ref$ = eax

; 243  :   { return __ref; }

	ret	0
?to_value_type_ref@?$_CastTraits@GG@priv@stlp_std@@SAAAGAAG@Z ENDP ; stlp_std::priv::_CastTraits<unsigned short,unsigned short>::to_value_type_ref
; Function compile flags: /Ogtpy
; File d:\clearsky\sources\sdk\include\stlport\stl\_tree.h
_TEXT	ENDS
;	COMDAT ??D?$_Rb_tree_iterator@U?$pair@$$CBVshared_str@@V?$xr_vector@PAVCEnvDescriptor@@V?$xalloc@PAVCEnvDescriptor@@@@@@@stlp_std@@U?$_MapTraitsT@U?$pair@$$CBVshared_str@@V?$xr_vector@PAVCEnvDescriptor@@V?$xalloc@PAVCEnvDescriptor@@@@@@@stlp_std@@@priv@2@@priv@stlp_std@@QBEAAU?$pair@$$CBVshared_str@@V?$xr_vector@PAVCEnvDescriptor@@V?$xalloc@PAVCEnvDescriptor@@@@@@@2@XZ
_TEXT	SEGMENT
??D?$_Rb_tree_iterator@U?$pair@$$CBVshared_str@@V?$xr_vector@PAVCEnvDescriptor@@V?$xalloc@PAVCEnvDescriptor@@@@@@@stlp_std@@U?$_MapTraitsT@U?$pair@$$CBVshared_str@@V?$xr_vector@PAVCEnvDescriptor@@V?$xalloc@PAVCEnvDescriptor@@@@@@@stlp_std@@@priv@2@@priv@stlp_std@@QBEAAU?$pair@$$CBVshared_str@@V?$xr_vector@PAVCEnvDescriptor@@V?$xalloc@PAVCEnvDescriptor@@@@@@@2@XZ PROC ; stlp_std::priv::_Rb_tree_iterator<stlp_std::pair<shared_str const ,xr_vector<CEnvDescriptor *,xalloc<CEnvDescriptor *> > >,stlp_std::priv::_MapTraitsT<stlp_std::pair<shared_str const ,xr_vector<CEnvDescriptor *,xalloc<CEnvDescriptor *> > > > >::operator*, COMDAT
; _this$ = eax

; 171  :     return __STATIC_CAST(_Link_type, _M_node)->_M_value_field;

	mov	eax, DWORD PTR [eax]
	add	eax, 16					; 00000010H

; 172  :   }

	ret	0
??D?$_Rb_tree_iterator@U?$pair@$$CBVshared_str@@V?$xr_vector@PAVCEnvDescriptor@@V?$xalloc@PAVCEnvDescriptor@@@@@@@stlp_std@@U?$_MapTraitsT@U?$pair@$$CBVshared_str@@V?$xr_vector@PAVCEnvDescriptor@@V?$xalloc@PAVCEnvDescriptor@@@@@@@stlp_std@@@priv@2@@priv@stlp_std@@QBEAAU?$pair@$$CBVshared_str@@V?$xr_vector@PAVCEnvDescriptor@@V?$xalloc@PAVCEnvDescriptor@@@@@@@2@XZ ENDP ; stlp_std::priv::_Rb_tree_iterator<stlp_std::pair<shared_str const ,xr_vector<CEnvDescriptor *,xalloc<CEnvDescriptor *> > >,stlp_std::priv::_MapTraitsT<stlp_std::pair<shared_str const ,xr_vector<CEnvDescriptor *,xalloc<CEnvDescriptor *> > > > >::operator*
; Function compile flags: /Ogtpy
; File d:\clearsky\sources\sdk\include\stlport\stl\_vector.h
_TEXT	ENDS
;	COMDAT ??1?$_Vector_base@UParticle@CEffect_Rain@@V?$xalloc@UParticle@CEffect_Rain@@@@@priv@stlp_std@@QAE@XZ
_TEXT	SEGMENT
??1?$_Vector_base@UParticle@CEffect_Rain@@V?$xalloc@UParticle@CEffect_Rain@@@@@priv@stlp_std@@QAE@XZ PROC ; stlp_std::priv::_Vector_base<CEffect_Rain::Particle,xalloc<CEffect_Rain::Particle> >::~_Vector_base<CEffect_Rain::Particle,xalloc<CEffect_Rain::Particle> >, COMDAT
; _this$ = eax

; 85   :     if (_M_start != _STLP_DEFAULT_CONSTRUCTED(pointer))

	mov	eax, DWORD PTR [eax]
	test	eax, eax
	je	SHORT $LN6@Vector_bas@11

; 86   :       _M_end_of_storage.deallocate(_M_start, _M_end_of_storage._M_data - _M_start);

	mov	ecx, DWORD PTR __imp_?Memory@@3VxrMemory@@A
	push	eax
	call	DWORD PTR __imp_?mem_free@xrMemory@@QAEXPAX@Z
$LN6@Vector_bas@11:

; 87   :   }

	ret	0
??1?$_Vector_base@UParticle@CEffect_Rain@@V?$xalloc@UParticle@CEffect_Rain@@@@@priv@stlp_std@@QAE@XZ ENDP ; stlp_std::priv::_Vector_base<CEffect_Rain::Particle,xalloc<CEffect_Rain::Particle> >::~_Vector_base<CEffect_Rain::Particle,xalloc<CEffect_Rain::Particle> >
; Function compile flags: /Ogtpy
_TEXT	ENDS
;	COMDAT ?rend@?$_Impl_vector@UParticle@CEffect_Rain@@V?$xalloc@UParticle@CEffect_Rain@@@@@priv@stlp_std@@QAE?AV?$reverse_iterator@PAUParticle@CEffect_Rain@@@3@XZ
_TEXT	SEGMENT
?rend@?$_Impl_vector@UParticle@CEffect_Rain@@V?$xalloc@UParticle@CEffect_Rain@@@@@priv@stlp_std@@QAE?AV?$reverse_iterator@PAUParticle@CEffect_Rain@@@3@XZ PROC ; stlp_std::priv::_Impl_vector<CEffect_Rain::Particle,xalloc<CEffect_Rain::Particle> >::rend, COMDAT
; _this$ = ecx
; ___$ReturnUdt$ = eax

; 177  :   reverse_iterator rend()                { return reverse_iterator(begin()); }

	mov	edx, DWORD PTR [ecx]
	mov	DWORD PTR [eax], edx
	ret	0
?rend@?$_Impl_vector@UParticle@CEffect_Rain@@V?$xalloc@UParticle@CEffect_Rain@@@@@priv@stlp_std@@QAE?AV?$reverse_iterator@PAUParticle@CEffect_Rain@@@3@XZ ENDP ; stlp_std::priv::_Impl_vector<CEffect_Rain::Particle,xalloc<CEffect_Rain::Particle> >::rend
; Function compile flags: /Ogtpy
_TEXT	ENDS
;	COMDAT ?rbegin@?$_Impl_vector@UParticle@CEffect_Rain@@V?$xalloc@UParticle@CEffect_Rain@@@@@priv@stlp_std@@QAE?AV?$reverse_iterator@PAUParticle@CEffect_Rain@@@3@XZ
_TEXT	SEGMENT
?rbegin@?$_Impl_vector@UParticle@CEffect_Rain@@V?$xalloc@UParticle@CEffect_Rain@@@@@priv@stlp_std@@QAE?AV?$reverse_iterator@PAUParticle@CEffect_Rain@@@3@XZ PROC ; stlp_std::priv::_Impl_vector<CEffect_Rain::Particle,xalloc<CEffect_Rain::Particle> >::rbegin, COMDAT
; _this$ = ecx
; ___$ReturnUdt$ = eax

; 175  :   reverse_iterator rbegin()              { return reverse_iterator(end()); }

	mov	edx, DWORD PTR [ecx+4]
	mov	DWORD PTR [eax], edx
	ret	0
?rbegin@?$_Impl_vector@UParticle@CEffect_Rain@@V?$xalloc@UParticle@CEffect_Rain@@@@@priv@stlp_std@@QAE?AV?$reverse_iterator@PAUParticle@CEffect_Rain@@@3@XZ ENDP ; stlp_std::priv::_Impl_vector<CEffect_Rain::Particle,xalloc<CEffect_Rain::Particle> >::rbegin
; Function compile flags: /Ogtpy
_TEXT	ENDS
;	COMDAT ??1?$_Vector_base@UItem@CEffect_Rain@@V?$xalloc@UItem@CEffect_Rain@@@@@priv@stlp_std@@QAE@XZ
_TEXT	SEGMENT
??1?$_Vector_base@UItem@CEffect_Rain@@V?$xalloc@UItem@CEffect_Rain@@@@@priv@stlp_std@@QAE@XZ PROC ; stlp_std::priv::_Vector_base<CEffect_Rain::Item,xalloc<CEffect_Rain::Item> >::~_Vector_base<CEffect_Rain::Item,xalloc<CEffect_Rain::Item> >, COMDAT
; _this$ = eax

; 85   :     if (_M_start != _STLP_DEFAULT_CONSTRUCTED(pointer))

	mov	eax, DWORD PTR [eax]
	test	eax, eax
	je	SHORT $LN6@Vector_bas@12

; 86   :       _M_end_of_storage.deallocate(_M_start, _M_end_of_storage._M_data - _M_start);

	mov	ecx, DWORD PTR __imp_?Memory@@3VxrMemory@@A
	push	eax
	call	DWORD PTR __imp_?mem_free@xrMemory@@QAEXPAX@Z
$LN6@Vector_bas@12:

; 87   :   }

	ret	0
??1?$_Vector_base@UItem@CEffect_Rain@@V?$xalloc@UItem@CEffect_Rain@@@@@priv@stlp_std@@QAE@XZ ENDP ; stlp_std::priv::_Vector_base<CEffect_Rain::Item,xalloc<CEffect_Rain::Item> >::~_Vector_base<CEffect_Rain::Item,xalloc<CEffect_Rain::Item> >
; Function compile flags: /Ogtpy
_TEXT	ENDS
;	COMDAT ?rend@?$_Impl_vector@UItem@CEffect_Rain@@V?$xalloc@UItem@CEffect_Rain@@@@@priv@stlp_std@@QAE?AV?$reverse_iterator@PAUItem@CEffect_Rain@@@3@XZ
_TEXT	SEGMENT
?rend@?$_Impl_vector@UItem@CEffect_Rain@@V?$xalloc@UItem@CEffect_Rain@@@@@priv@stlp_std@@QAE?AV?$reverse_iterator@PAUItem@CEffect_Rain@@@3@XZ PROC ; stlp_std::priv::_Impl_vector<CEffect_Rain::Item,xalloc<CEffect_Rain::Item> >::rend, COMDAT
; _this$ = ecx
; ___$ReturnUdt$ = eax

; 177  :   reverse_iterator rend()                { return reverse_iterator(begin()); }

	mov	edx, DWORD PTR [ecx]
	mov	DWORD PTR [eax], edx
	ret	0
?rend@?$_Impl_vector@UItem@CEffect_Rain@@V?$xalloc@UItem@CEffect_Rain@@@@@priv@stlp_std@@QAE?AV?$reverse_iterator@PAUItem@CEffect_Rain@@@3@XZ ENDP ; stlp_std::priv::_Impl_vector<CEffect_Rain::Item,xalloc<CEffect_Rain::Item> >::rend
; Function compile flags: /Ogtpy
_TEXT	ENDS
;	COMDAT ?rbegin@?$_Impl_vector@UItem@CEffect_Rain@@V?$xalloc@UItem@CEffect_Rain@@@@@priv@stlp_std@@QAE?AV?$reverse_iterator@PAUItem@CEffect_Rain@@@3@XZ
_TEXT	SEGMENT
?rbegin@?$_Impl_vector@UItem@CEffect_Rain@@V?$xalloc@UItem@CEffect_Rain@@@@@priv@stlp_std@@QAE?AV?$reverse_iterator@PAUItem@CEffect_Rain@@@3@XZ PROC ; stlp_std::priv::_Impl_vector<CEffect_Rain::Item,xalloc<CEffect_Rain::Item> >::rbegin, COMDAT
; _this$ = ecx
; ___$ReturnUdt$ = eax

; 175  :   reverse_iterator rbegin()              { return reverse_iterator(end()); }

	mov	edx, DWORD PTR [ecx+4]
	mov	DWORD PTR [eax], edx
	ret	0
?rbegin@?$_Impl_vector@UItem@CEffect_Rain@@V?$xalloc@UItem@CEffect_Rain@@@@@priv@stlp_std@@QAE?AV?$reverse_iterator@PAUItem@CEffect_Rain@@@3@XZ ENDP ; stlp_std::priv::_Impl_vector<CEffect_Rain::Item,xalloc<CEffect_Rain::Item> >::rbegin
; Function compile flags: /Ogtpy
_TEXT	ENDS
;	COMDAT ??1?$_Vector_base@USFlare@CLensFlareDescriptor@@V?$xalloc@USFlare@CLensFlareDescriptor@@@@@priv@stlp_std@@QAE@XZ
_TEXT	SEGMENT
??1?$_Vector_base@USFlare@CLensFlareDescriptor@@V?$xalloc@USFlare@CLensFlareDescriptor@@@@@priv@stlp_std@@QAE@XZ PROC ; stlp_std::priv::_Vector_base<CLensFlareDescriptor::SFlare,xalloc<CLensFlareDescriptor::SFlare> >::~_Vector_base<CLensFlareDescriptor::SFlare,xalloc<CLensFlareDescriptor::SFlare> >, COMDAT
; _this$ = eax

; 85   :     if (_M_start != _STLP_DEFAULT_CONSTRUCTED(pointer))

	mov	eax, DWORD PTR [eax]
	test	eax, eax
	je	SHORT $LN6@Vector_bas@13

; 86   :       _M_end_of_storage.deallocate(_M_start, _M_end_of_storage._M_data - _M_start);

	mov	ecx, DWORD PTR __imp_?Memory@@3VxrMemory@@A
	push	eax
	call	DWORD PTR __imp_?mem_free@xrMemory@@QAEXPAX@Z
$LN6@Vector_bas@13:

; 87   :   }

	ret	0
??1?$_Vector_base@USFlare@CLensFlareDescriptor@@V?$xalloc@USFlare@CLensFlareDescriptor@@@@@priv@stlp_std@@QAE@XZ ENDP ; stlp_std::priv::_Vector_base<CLensFlareDescriptor::SFlare,xalloc<CLensFlareDescriptor::SFlare> >::~_Vector_base<CLensFlareDescriptor::SFlare,xalloc<CLensFlareDescriptor::SFlare> >
; Function compile flags: /Ogtpy
_TEXT	ENDS
;	COMDAT ?rend@?$_Impl_vector@USFlare@CLensFlareDescriptor@@V?$xalloc@USFlare@CLensFlareDescriptor@@@@@priv@stlp_std@@QAE?AV?$reverse_iterator@PAUSFlare@CLensFlareDescriptor@@@3@XZ
_TEXT	SEGMENT
?rend@?$_Impl_vector@USFlare@CLensFlareDescriptor@@V?$xalloc@USFlare@CLensFlareDescriptor@@@@@priv@stlp_std@@QAE?AV?$reverse_iterator@PAUSFlare@CLensFlareDescriptor@@@3@XZ PROC ; stlp_std::priv::_Impl_vector<CLensFlareDescriptor::SFlare,xalloc<CLensFlareDescriptor::SFlare> >::rend, COMDAT
; _this$ = ecx
; ___$ReturnUdt$ = eax

; 177  :   reverse_iterator rend()                { return reverse_iterator(begin()); }

	mov	edx, DWORD PTR [ecx]
	mov	DWORD PTR [eax], edx
	ret	0
?rend@?$_Impl_vector@USFlare@CLensFlareDescriptor@@V?$xalloc@USFlare@CLensFlareDescriptor@@@@@priv@stlp_std@@QAE?AV?$reverse_iterator@PAUSFlare@CLensFlareDescriptor@@@3@XZ ENDP ; stlp_std::priv::_Impl_vector<CLensFlareDescriptor::SFlare,xalloc<CLensFlareDescriptor::SFlare> >::rend
; Function compile flags: /Ogtpy
_TEXT	ENDS
;	COMDAT ?rbegin@?$_Impl_vector@USFlare@CLensFlareDescriptor@@V?$xalloc@USFlare@CLensFlareDescriptor@@@@@priv@stlp_std@@QAE?AV?$reverse_iterator@PAUSFlare@CLensFlareDescriptor@@@3@XZ
_TEXT	SEGMENT
?rbegin@?$_Impl_vector@USFlare@CLensFlareDescriptor@@V?$xalloc@USFlare@CLensFlareDescriptor@@@@@priv@stlp_std@@QAE?AV?$reverse_iterator@PAUSFlare@CLensFlareDescriptor@@@3@XZ PROC ; stlp_std::priv::_Impl_vector<CLensFlareDescriptor::SFlare,xalloc<CLensFlareDescriptor::SFlare> >::rbegin, COMDAT
; _this$ = ecx
; ___$ReturnUdt$ = eax

; 175  :   reverse_iterator rbegin()              { return reverse_iterator(end()); }

	mov	edx, DWORD PTR [ecx+4]
	mov	DWORD PTR [eax], edx
	ret	0
?rbegin@?$_Impl_vector@USFlare@CLensFlareDescriptor@@V?$xalloc@USFlare@CLensFlareDescriptor@@@@@priv@stlp_std@@QAE?AV?$reverse_iterator@PAUSFlare@CLensFlareDescriptor@@@3@XZ ENDP ; stlp_std::priv::_Impl_vector<CLensFlareDescriptor::SFlare,xalloc<CLensFlareDescriptor::SFlare> >::rbegin
; Function compile flags: /Ogtpy
; File d:\clearsky\sources\engine\xrcore\_stl_extensions.h
_TEXT	ENDS
;	COMDAT ??0?$xalloc@USFlare@CLensFlareDescriptor@@@@QAE@XZ
_TEXT	SEGMENT
??0?$xalloc@USFlare@CLensFlareDescriptor@@@@QAE@XZ PROC	; xalloc<CLensFlareDescriptor::SFlare>::xalloc<CLensFlareDescriptor::SFlare>, COMDAT
; _this$ = eax

; 77   : 													xalloc			()										{	}

	ret	0
??0?$xalloc@USFlare@CLensFlareDescriptor@@@@QAE@XZ ENDP	; xalloc<CLensFlareDescriptor::SFlare>::xalloc<CLensFlareDescriptor::SFlare>
; Function compile flags: /Ogtpy
; File d:\clearsky\sources\sdk\include\stlport\stl\_vector.h
_TEXT	ENDS
;	COMDAT ??1?$_Vector_base@Urq_result@collide@@V?$xalloc@Urq_result@collide@@@@@priv@stlp_std@@QAE@XZ
_TEXT	SEGMENT
??1?$_Vector_base@Urq_result@collide@@V?$xalloc@Urq_result@collide@@@@@priv@stlp_std@@QAE@XZ PROC ; stlp_std::priv::_Vector_base<collide::rq_result,xalloc<collide::rq_result> >::~_Vector_base<collide::rq_result,xalloc<collide::rq_result> >, COMDAT
; _this$ = eax

; 85   :     if (_M_start != _STLP_DEFAULT_CONSTRUCTED(pointer))

	mov	eax, DWORD PTR [eax]
	test	eax, eax
	je	SHORT $LN6@Vector_bas@14

; 86   :       _M_end_of_storage.deallocate(_M_start, _M_end_of_storage._M_data - _M_start);

	mov	ecx, DWORD PTR __imp_?Memory@@3VxrMemory@@A
	push	eax
	call	DWORD PTR __imp_?mem_free@xrMemory@@QAEXPAX@Z
$LN6@Vector_bas@14:

; 87   :   }

	ret	0
??1?$_Vector_base@Urq_result@collide@@V?$xalloc@Urq_result@collide@@@@@priv@stlp_std@@QAE@XZ ENDP ; stlp_std::priv::_Vector_base<collide::rq_result,xalloc<collide::rq_result> >::~_Vector_base<collide::rq_result,xalloc<collide::rq_result> >
; Function compile flags: /Ogtpy
_TEXT	ENDS
;	COMDAT ?capacity@?$_Impl_vector@Urq_result@collide@@V?$xalloc@Urq_result@collide@@@@@priv@stlp_std@@QBEIXZ
_TEXT	SEGMENT
?capacity@?$_Impl_vector@Urq_result@collide@@V?$xalloc@Urq_result@collide@@@@@priv@stlp_std@@QBEIXZ PROC ; stlp_std::priv::_Impl_vector<collide::rq_result,xalloc<collide::rq_result> >::capacity, COMDAT
; _this$ = eax

; 187  :   size_type capacity() const    { return size_type(this->_M_end_of_storage._M_data - this->_M_start); }

	mov	ecx, DWORD PTR [eax+8]
	sub	ecx, DWORD PTR [eax]
	mov	eax, 715827883				; 2aaaaaabH
	imul	ecx
	sar	edx, 1
	mov	eax, edx
	shr	eax, 31					; 0000001fH
	add	eax, edx
	ret	0
?capacity@?$_Impl_vector@Urq_result@collide@@V?$xalloc@Urq_result@collide@@@@@priv@stlp_std@@QBEIXZ ENDP ; stlp_std::priv::_Impl_vector<collide::rq_result,xalloc<collide::rq_result> >::capacity
; Function compile flags: /Ogtpy
_TEXT	ENDS
;	COMDAT ?end@?$_Impl_vector@Urq_result@collide@@V?$xalloc@Urq_result@collide@@@@@priv@stlp_std@@QAEPAUrq_result@collide@@XZ
_TEXT	SEGMENT
?end@?$_Impl_vector@Urq_result@collide@@V?$xalloc@Urq_result@collide@@@@@priv@stlp_std@@QAEPAUrq_result@collide@@XZ PROC ; stlp_std::priv::_Impl_vector<collide::rq_result,xalloc<collide::rq_result> >::end, COMDAT
; _this$ = eax

; 172  :   iterator end()               { return this->_M_finish; }

	mov	eax, DWORD PTR [eax+4]
	ret	0
?end@?$_Impl_vector@Urq_result@collide@@V?$xalloc@Urq_result@collide@@@@@priv@stlp_std@@QAEPAUrq_result@collide@@XZ ENDP ; stlp_std::priv::_Impl_vector<collide::rq_result,xalloc<collide::rq_result> >::end
; Function compile flags: /Ogtpy
_TEXT	ENDS
;	COMDAT ?begin@?$_Impl_vector@Urq_result@collide@@V?$xalloc@Urq_result@collide@@@@@priv@stlp_std@@QAEPAUrq_result@collide@@XZ
_TEXT	SEGMENT
?begin@?$_Impl_vector@Urq_result@collide@@V?$xalloc@Urq_result@collide@@@@@priv@stlp_std@@QAEPAUrq_result@collide@@XZ PROC ; stlp_std::priv::_Impl_vector<collide::rq_result,xalloc<collide::rq_result> >::begin, COMDAT
; _this$ = eax

; 170  :   iterator begin()             { return this->_M_start; }

	mov	eax, DWORD PTR [eax]
	ret	0
?begin@?$_Impl_vector@Urq_result@collide@@V?$xalloc@Urq_result@collide@@@@@priv@stlp_std@@QAEPAUrq_result@collide@@XZ ENDP ; stlp_std::priv::_Impl_vector<collide::rq_result,xalloc<collide::rq_result> >::begin
; Function compile flags: /Ogtpy
; File d:\clearsky\sources\engine\xrcore\_stl_extensions.h
_TEXT	ENDS
;	COMDAT ??0?$xalloc@VCEnvModifier@@@@QAE@XZ
_TEXT	SEGMENT
??0?$xalloc@VCEnvModifier@@@@QAE@XZ PROC		; xalloc<CEnvModifier>::xalloc<CEnvModifier>, COMDAT
; _this$ = eax

; 77   : 													xalloc			()										{	}

	ret	0
??0?$xalloc@VCEnvModifier@@@@QAE@XZ ENDP		; xalloc<CEnvModifier>::xalloc<CEnvModifier>
; Function compile flags: /Ogtpy
_TEXT	ENDS
;	COMDAT ??0?$xalloc@PAVCEnvAmbient@@@@QAE@XZ
_TEXT	SEGMENT
??0?$xalloc@PAVCEnvAmbient@@@@QAE@XZ PROC		; xalloc<CEnvAmbient *>::xalloc<CEnvAmbient *>, COMDAT
; _this$ = eax

; 77   : 													xalloc			()										{	}

	ret	0
??0?$xalloc@PAVCEnvAmbient@@@@QAE@XZ ENDP		; xalloc<CEnvAmbient *>::xalloc<CEnvAmbient *>
; Function compile flags: /Ogtpy
; File d:\clearsky\sources\sdk\include\stlport\stl\pointers\_tools.h
_TEXT	ENDS
;	COMDAT ?to_storage_type_cref@?$_CastTraits@U?$_vector3@M@@U1@@priv@stlp_std@@SAABU?$_vector3@M@@ABU4@@Z
_TEXT	SEGMENT
?to_storage_type_cref@?$_CastTraits@U?$_vector3@M@@U1@@priv@stlp_std@@SAABU?$_vector3@M@@ABU4@@Z PROC ; stlp_std::priv::_CastTraits<_vector3<float>,_vector3<float> >::to_storage_type_cref, COMDAT
; ___ref$ = eax

; 254  :   { return __ref; }

	ret	0
?to_storage_type_cref@?$_CastTraits@U?$_vector3@M@@U1@@priv@stlp_std@@SAABU?$_vector3@M@@ABU4@@Z ENDP ; stlp_std::priv::_CastTraits<_vector3<float>,_vector3<float> >::to_storage_type_cref
; Function compile flags: /Ogtpy
_TEXT	ENDS
;	COMDAT ?to_value_type_ref@?$_CastTraits@U?$_vector3@M@@U1@@priv@stlp_std@@SAAAU?$_vector3@M@@AAU4@@Z
_TEXT	SEGMENT
?to_value_type_ref@?$_CastTraits@U?$_vector3@M@@U1@@priv@stlp_std@@SAAAU?$_vector3@M@@AAU4@@Z PROC ; stlp_std::priv::_CastTraits<_vector3<float>,_vector3<float> >::to_value_type_ref, COMDAT
; ___ref$ = eax

; 243  :   { return __ref; }

	ret	0
?to_value_type_ref@?$_CastTraits@U?$_vector3@M@@U1@@priv@stlp_std@@SAAAU?$_vector3@M@@AAU4@@Z ENDP ; stlp_std::priv::_CastTraits<_vector3<float>,_vector3<float> >::to_value_type_ref
; Function compile flags: /Ogtpy
; File d:\clearsky\sources\engine\xrcore\_stl_extensions.h
_TEXT	ENDS
;	COMDAT ??0?$xalloc@M@@QAE@XZ
_TEXT	SEGMENT
??0?$xalloc@M@@QAE@XZ PROC				; xalloc<float>::xalloc<float>, COMDAT
; _this$ = eax

; 77   : 													xalloc			()										{	}

	ret	0
??0?$xalloc@M@@QAE@XZ ENDP				; xalloc<float>::xalloc<float>
; Function compile flags: /Ogtpy
_TEXT	ENDS
;	COMDAT ??0?$xalloc@G@@QAE@XZ
_TEXT	SEGMENT
??0?$xalloc@G@@QAE@XZ PROC				; xalloc<unsigned short>::xalloc<unsigned short>, COMDAT
; _this$ = eax

; 77   : 													xalloc			()										{	}

	ret	0
??0?$xalloc@G@@QAE@XZ ENDP				; xalloc<unsigned short>::xalloc<unsigned short>
; Function compile flags: /Ogtpy
_TEXT	ENDS
;	COMDAT ??0?$xalloc@U?$_vector3@M@@@@QAE@XZ
_TEXT	SEGMENT
??0?$xalloc@U?$_vector3@M@@@@QAE@XZ PROC		; xalloc<_vector3<float> >::xalloc<_vector3<float> >, COMDAT
; _this$ = eax

; 77   : 													xalloc			()										{	}

	ret	0
??0?$xalloc@U?$_vector3@M@@@@QAE@XZ ENDP		; xalloc<_vector3<float> >::xalloc<_vector3<float> >
; Function compile flags: /Ogtpy
; File d:\clearsky\sources\sdk\include\stlport\stl\_tree.h
_TEXT	ENDS
;	COMDAT ??9?$_Rb_tree_iterator@U?$pair@$$CBVshared_str@@V?$xr_vector@PAVCEnvDescriptor@@V?$xalloc@PAVCEnvDescriptor@@@@@@@stlp_std@@U?$_MapTraitsT@U?$pair@$$CBVshared_str@@V?$xr_vector@PAVCEnvDescriptor@@V?$xalloc@PAVCEnvDescriptor@@@@@@@stlp_std@@@priv@2@@priv@stlp_std@@QBE_NU?$_Rb_tree_iterator@U?$pair@$$CBVshared_str@@V?$xr_vector@PAVCEnvDescriptor@@V?$xalloc@PAVCEnvDescriptor@@@@@@@stlp_std@@U?$_ConstMapTraitsT@U?$pair@$$CBVshared_str@@V?$xr_vector@PAVCEnvDescriptor@@V?$xalloc@PAVCEnvDescriptor@@@@@@@stlp_std@@@priv@2@@12@@Z
_TEXT	SEGMENT
___rhs$ = 8						; size = 4
??9?$_Rb_tree_iterator@U?$pair@$$CBVshared_str@@V?$xr_vector@PAVCEnvDescriptor@@V?$xalloc@PAVCEnvDescriptor@@@@@@@stlp_std@@U?$_MapTraitsT@U?$pair@$$CBVshared_str@@V?$xr_vector@PAVCEnvDescriptor@@V?$xalloc@PAVCEnvDescriptor@@@@@@@stlp_std@@@priv@2@@priv@stlp_std@@QBE_NU?$_Rb_tree_iterator@U?$pair@$$CBVshared_str@@V?$xr_vector@PAVCEnvDescriptor@@V?$xalloc@PAVCEnvDescriptor@@@@@@@stlp_std@@U?$_ConstMapTraitsT@U?$pair@$$CBVshared_str@@V?$xr_vector@PAVCEnvDescriptor@@V?$xalloc@PAVCEnvDescriptor@@@@@@@stlp_std@@@priv@2@@12@@Z PROC ; stlp_std::priv::_Rb_tree_iterator<stlp_std::pair<shared_str const ,xr_vector<CEnvDescriptor *,xalloc<CEnvDescriptor *> > >,stlp_std::priv::_MapTraitsT<stlp_std::pair<shared_str const ,xr_vector<CEnvDescriptor *,xalloc<CEnvDescriptor *> > > > >::operator!=, COMDAT
; _this$ = ecx

; 200  :     return _M_node != __rhs._M_node;

	mov	edx, DWORD PTR [ecx]
	xor	eax, eax
	cmp	edx, DWORD PTR ___rhs$[esp-4]
	setne	al

; 201  :   }

	ret	4
??9?$_Rb_tree_iterator@U?$pair@$$CBVshared_str@@V?$xr_vector@PAVCEnvDescriptor@@V?$xalloc@PAVCEnvDescriptor@@@@@@@stlp_std@@U?$_MapTraitsT@U?$pair@$$CBVshared_str@@V?$xr_vector@PAVCEnvDescriptor@@V?$xalloc@PAVCEnvDescriptor@@@@@@@stlp_std@@@priv@2@@priv@stlp_std@@QBE_NU?$_Rb_tree_iterator@U?$pair@$$CBVshared_str@@V?$xr_vector@PAVCEnvDescriptor@@V?$xalloc@PAVCEnvDescriptor@@@@@@@stlp_std@@U?$_ConstMapTraitsT@U?$pair@$$CBVshared_str@@V?$xr_vector@PAVCEnvDescriptor@@V?$xalloc@PAVCEnvDescriptor@@@@@@@stlp_std@@@priv@2@@12@@Z ENDP ; stlp_std::priv::_Rb_tree_iterator<stlp_std::pair<shared_str const ,xr_vector<CEnvDescriptor *,xalloc<CEnvDescriptor *> > >,stlp_std::priv::_MapTraitsT<stlp_std::pair<shared_str const ,xr_vector<CEnvDescriptor *,xalloc<CEnvDescriptor *> > > > >::operator!=
; Function compile flags: /Ogtpy
_TEXT	ENDS
;	COMDAT ??8?$_Rb_tree_iterator@U?$pair@$$CBVshared_str@@V?$xr_vector@PAVCEnvDescriptor@@V?$xalloc@PAVCEnvDescriptor@@@@@@@stlp_std@@U?$_MapTraitsT@U?$pair@$$CBVshared_str@@V?$xr_vector@PAVCEnvDescriptor@@V?$xalloc@PAVCEnvDescriptor@@@@@@@stlp_std@@@priv@2@@priv@stlp_std@@QBE_NU?$_Rb_tree_iterator@U?$pair@$$CBVshared_str@@V?$xr_vector@PAVCEnvDescriptor@@V?$xalloc@PAVCEnvDescriptor@@@@@@@stlp_std@@U?$_ConstMapTraitsT@U?$pair@$$CBVshared_str@@V?$xr_vector@PAVCEnvDescriptor@@V?$xalloc@PAVCEnvDescriptor@@@@@@@stlp_std@@@priv@2@@12@@Z
_TEXT	SEGMENT
___rhs$ = 8						; size = 4
??8?$_Rb_tree_iterator@U?$pair@$$CBVshared_str@@V?$xr_vector@PAVCEnvDescriptor@@V?$xalloc@PAVCEnvDescriptor@@@@@@@stlp_std@@U?$_MapTraitsT@U?$pair@$$CBVshared_str@@V?$xr_vector@PAVCEnvDescriptor@@V?$xalloc@PAVCEnvDescriptor@@@@@@@stlp_std@@@priv@2@@priv@stlp_std@@QBE_NU?$_Rb_tree_iterator@U?$pair@$$CBVshared_str@@V?$xr_vector@PAVCEnvDescriptor@@V?$xalloc@PAVCEnvDescriptor@@@@@@@stlp_std@@U?$_ConstMapTraitsT@U?$pair@$$CBVshared_str@@V?$xr_vector@PAVCEnvDescriptor@@V?$xalloc@PAVCEnvDescriptor@@@@@@@stlp_std@@@priv@2@@12@@Z PROC ; stlp_std::priv::_Rb_tree_iterator<stlp_std::pair<shared_str const ,xr_vector<CEnvDescriptor *,xalloc<CEnvDescriptor *> > >,stlp_std::priv::_MapTraitsT<stlp_std::pair<shared_str const ,xr_vector<CEnvDescriptor *,xalloc<CEnvDescriptor *> > > > >::operator==, COMDAT
; _this$ = ecx

; 197  :     return _M_node == __rhs._M_node;

	mov	edx, DWORD PTR [ecx]
	xor	eax, eax
	cmp	edx, DWORD PTR ___rhs$[esp-4]
	sete	al

; 198  :   }

	ret	4
??8?$_Rb_tree_iterator@U?$pair@$$CBVshared_str@@V?$xr_vector@PAVCEnvDescriptor@@V?$xalloc@PAVCEnvDescriptor@@@@@@@stlp_std@@U?$_MapTraitsT@U?$pair@$$CBVshared_str@@V?$xr_vector@PAVCEnvDescriptor@@V?$xalloc@PAVCEnvDescriptor@@@@@@@stlp_std@@@priv@2@@priv@stlp_std@@QBE_NU?$_Rb_tree_iterator@U?$pair@$$CBVshared_str@@V?$xr_vector@PAVCEnvDescriptor@@V?$xalloc@PAVCEnvDescriptor@@@@@@@stlp_std@@U?$_ConstMapTraitsT@U?$pair@$$CBVshared_str@@V?$xr_vector@PAVCEnvDescriptor@@V?$xalloc@PAVCEnvDescriptor@@@@@@@stlp_std@@@priv@2@@12@@Z ENDP ; stlp_std::priv::_Rb_tree_iterator<stlp_std::pair<shared_str const ,xr_vector<CEnvDescriptor *,xalloc<CEnvDescriptor *> > >,stlp_std::priv::_MapTraitsT<stlp_std::pair<shared_str const ,xr_vector<CEnvDescriptor *,xalloc<CEnvDescriptor *> > > > >::operator==
; Function compile flags: /Ogtpy
_TEXT	ENDS
;	COMDAT ??C?$_Rb_tree_iterator@U?$pair@$$CBVshared_str@@V?$xr_vector@PAVCEnvDescriptor@@V?$xalloc@PAVCEnvDescriptor@@@@@@@stlp_std@@U?$_MapTraitsT@U?$pair@$$CBVshared_str@@V?$xr_vector@PAVCEnvDescriptor@@V?$xalloc@PAVCEnvDescriptor@@@@@@@stlp_std@@@priv@2@@priv@stlp_std@@QBEPAU?$pair@$$CBVshared_str@@V?$xr_vector@PAVCEnvDescriptor@@V?$xalloc@PAVCEnvDescriptor@@@@@@@2@XZ
_TEXT	SEGMENT
??C?$_Rb_tree_iterator@U?$pair@$$CBVshared_str@@V?$xr_vector@PAVCEnvDescriptor@@V?$xalloc@PAVCEnvDescriptor@@@@@@@stlp_std@@U?$_MapTraitsT@U?$pair@$$CBVshared_str@@V?$xr_vector@PAVCEnvDescriptor@@V?$xalloc@PAVCEnvDescriptor@@@@@@@stlp_std@@@priv@2@@priv@stlp_std@@QBEPAU?$pair@$$CBVshared_str@@V?$xr_vector@PAVCEnvDescriptor@@V?$xalloc@PAVCEnvDescriptor@@@@@@@2@XZ PROC ; stlp_std::priv::_Rb_tree_iterator<stlp_std::pair<shared_str const ,xr_vector<CEnvDescriptor *,xalloc<CEnvDescriptor *> > >,stlp_std::priv::_MapTraitsT<stlp_std::pair<shared_str const ,xr_vector<CEnvDescriptor *,xalloc<CEnvDescriptor *> > > > >::operator->, COMDAT
; _this$ = eax

; 174  :   _STLP_DEFINE_ARROW_OPERATOR

	mov	eax, DWORD PTR [eax]
	add	eax, 16					; 00000010H
	ret	0
??C?$_Rb_tree_iterator@U?$pair@$$CBVshared_str@@V?$xr_vector@PAVCEnvDescriptor@@V?$xalloc@PAVCEnvDescriptor@@@@@@@stlp_std@@U?$_MapTraitsT@U?$pair@$$CBVshared_str@@V?$xr_vector@PAVCEnvDescriptor@@V?$xalloc@PAVCEnvDescriptor@@@@@@@stlp_std@@@priv@2@@priv@stlp_std@@QBEPAU?$pair@$$CBVshared_str@@V?$xr_vector@PAVCEnvDescriptor@@V?$xalloc@PAVCEnvDescriptor@@@@@@@2@XZ ENDP ; stlp_std::priv::_Rb_tree_iterator<stlp_std::pair<shared_str const ,xr_vector<CEnvDescriptor *,xalloc<CEnvDescriptor *> > >,stlp_std::priv::_MapTraitsT<stlp_std::pair<shared_str const ,xr_vector<CEnvDescriptor *,xalloc<CEnvDescriptor *> > > > >::operator->
; Function compile flags: /Ogtpy
; File d:\clearsky\sources\engine\xrcore\_flags.h
_TEXT	ENDS
;	COMDAT ?zero@?$_flags@G@@QAEAAU1@XZ
_TEXT	SEGMENT
?zero@?$_flags@G@@QAEAAU1@XZ PROC			; _flags<unsigned short>::zero, COMDAT
; _this$ = eax

; 15   :     IC	SelfRef	zero	()											{ flags=T(0);	return *this;	}

	mov	WORD PTR [eax], 0
	ret	0
?zero@?$_flags@G@@QAEAAU1@XZ ENDP			; _flags<unsigned short>::zero
; Function compile flags: /Ogtpy
; File d:\clearsky\sources\engine\include\xrrender\factoryptr.h
_TEXT	ENDS
;	COMDAT ??C?$FactoryPtr@VIEnvironmentRender@@@@QBEPAVIEnvironmentRender@@XZ
_TEXT	SEGMENT
??C?$FactoryPtr@VIEnvironmentRender@@@@QBEPAVIEnvironmentRender@@XZ PROC ; FactoryPtr<IEnvironmentRender>::operator->, COMDAT
; _this$ = eax

; 40   : 	T* operator->() const {return m_pObject;}

	mov	eax, DWORD PTR [eax]
	ret	0
??C?$FactoryPtr@VIEnvironmentRender@@@@QBEPAVIEnvironmentRender@@XZ ENDP ; FactoryPtr<IEnvironmentRender>::operator->
; Function compile flags: /Ogtpy
_TEXT	ENDS
;	COMDAT ??4?$FactoryPtr@VIRainRender@@@@QAEAAV0@ABV0@@Z
_TEXT	SEGMENT
??4?$FactoryPtr@VIRainRender@@@@QAEAAV0@ABV0@@Z PROC	; FactoryPtr<IRainRender>::operator=, COMDAT
; _this$ = esi
; __in$ = edx

; 35   : 		m_pObject->Copy(*_in.m_pObject);

	mov	ecx, DWORD PTR [esi]
	mov	eax, DWORD PTR [ecx]
	mov	edx, DWORD PTR [edx]
	mov	eax, DWORD PTR [eax+4]
	push	edx
	call	eax

; 36   : 		return *this;

	mov	eax, esi

; 37   : 	}

	ret	0
??4?$FactoryPtr@VIRainRender@@@@QAEAAV0@ABV0@@Z ENDP	; FactoryPtr<IRainRender>::operator=
; Function compile flags: /Ogtpy
_TEXT	ENDS
;	COMDAT ??0?$FactoryPtr@VIRainRender@@@@QAE@ABV0@@Z
_TEXT	SEGMENT
__in$ = 8						; size = 4
??0?$FactoryPtr@VIRainRender@@@@QAE@ABV0@@Z PROC	; FactoryPtr<IRainRender>::FactoryPtr<IRainRender>, COMDAT
; _this$ = esi

; 28   : 	{
; 29   : 		CreateObject();

	mov	eax, DWORD PTR __imp_?RenderFactory@@3PAVIRenderFactory@@A
	mov	ecx, DWORD PTR [eax]
	mov	edx, DWORD PTR [ecx]
	mov	eax, DWORD PTR [edx+88]
	call	eax

; 30   : 		m_pObject->Copy(*_in.m_pObject);

	mov	ecx, DWORD PTR __in$[esp-4]
	mov	DWORD PTR [esi], eax
	mov	ecx, DWORD PTR [ecx]
	mov	edx, DWORD PTR [eax]
	mov	edx, DWORD PTR [edx+4]
	push	ecx
	mov	ecx, eax
	call	edx

; 31   : 	}

	mov	eax, esi
	ret	4
??0?$FactoryPtr@VIRainRender@@@@QAE@ABV0@@Z ENDP	; FactoryPtr<IRainRender>::FactoryPtr<IRainRender>
; Function compile flags: /Ogtpy
_TEXT	ENDS
;	COMDAT ??1?$FactoryPtr@VIRainRender@@@@QAE@XZ
_TEXT	SEGMENT
??1?$FactoryPtr@VIRainRender@@@@QAE@XZ PROC		; FactoryPtr<IRainRender>::~FactoryPtr<IRainRender>, COMDAT
; _this$ = esi

; 25   : 	~FactoryPtr() { DestroyObject();}

	mov	eax, DWORD PTR __imp_?RenderFactory@@3PAVIRenderFactory@@A
	mov	ecx, DWORD PTR [eax]
	mov	edx, DWORD PTR [ecx]
	mov	eax, DWORD PTR [esi]
	mov	edx, DWORD PTR [edx+92]
	push	eax
	call	edx
	mov	DWORD PTR [esi], 0
	ret	0
??1?$FactoryPtr@VIRainRender@@@@QAE@XZ ENDP		; FactoryPtr<IRainRender>::~FactoryPtr<IRainRender>
; Function compile flags: /Ogtpy
_TEXT	ENDS
;	COMDAT ??4?$FactoryPtr@VILensFlareRender@@@@QAEAAV0@ABV0@@Z
_TEXT	SEGMENT
??4?$FactoryPtr@VILensFlareRender@@@@QAEAAV0@ABV0@@Z PROC ; FactoryPtr<ILensFlareRender>::operator=, COMDAT
; _this$ = esi
; __in$ = edx

; 35   : 		m_pObject->Copy(*_in.m_pObject);

	mov	ecx, DWORD PTR [esi]
	mov	eax, DWORD PTR [ecx]
	mov	edx, DWORD PTR [edx]
	mov	eax, DWORD PTR [eax+4]
	push	edx
	call	eax

; 36   : 		return *this;

	mov	eax, esi

; 37   : 	}

	ret	0
??4?$FactoryPtr@VILensFlareRender@@@@QAEAAV0@ABV0@@Z ENDP ; FactoryPtr<ILensFlareRender>::operator=
; Function compile flags: /Ogtpy
_TEXT	ENDS
;	COMDAT ??0?$FactoryPtr@VILensFlareRender@@@@QAE@ABV0@@Z
_TEXT	SEGMENT
__in$ = 8						; size = 4
??0?$FactoryPtr@VILensFlareRender@@@@QAE@ABV0@@Z PROC	; FactoryPtr<ILensFlareRender>::FactoryPtr<ILensFlareRender>, COMDAT
; _this$ = esi

; 28   : 	{
; 29   : 		CreateObject();

	mov	eax, DWORD PTR __imp_?RenderFactory@@3PAVIRenderFactory@@A
	mov	ecx, DWORD PTR [eax]
	mov	edx, DWORD PTR [ecx]
	mov	eax, DWORD PTR [edx+96]
	call	eax

; 30   : 		m_pObject->Copy(*_in.m_pObject);

	mov	ecx, DWORD PTR __in$[esp-4]
	mov	DWORD PTR [esi], eax
	mov	ecx, DWORD PTR [ecx]
	mov	edx, DWORD PTR [eax]
	mov	edx, DWORD PTR [edx+4]
	push	ecx
	mov	ecx, eax
	call	edx

; 31   : 	}

	mov	eax, esi
	ret	4
??0?$FactoryPtr@VILensFlareRender@@@@QAE@ABV0@@Z ENDP	; FactoryPtr<ILensFlareRender>::FactoryPtr<ILensFlareRender>
; Function compile flags: /Ogtpy
_TEXT	ENDS
;	COMDAT ??1?$FactoryPtr@VILensFlareRender@@@@QAE@XZ
_TEXT	SEGMENT
??1?$FactoryPtr@VILensFlareRender@@@@QAE@XZ PROC	; FactoryPtr<ILensFlareRender>::~FactoryPtr<ILensFlareRender>, COMDAT
; _this$ = esi

; 25   : 	~FactoryPtr() { DestroyObject();}

	mov	eax, DWORD PTR __imp_?RenderFactory@@3PAVIRenderFactory@@A
	mov	ecx, DWORD PTR [eax]
	mov	edx, DWORD PTR [ecx]
	mov	eax, DWORD PTR [esi]
	mov	edx, DWORD PTR [edx+100]
	push	eax
	call	edx
	mov	DWORD PTR [esi], 0
	ret	0
??1?$FactoryPtr@VILensFlareRender@@@@QAE@XZ ENDP	; FactoryPtr<ILensFlareRender>::~FactoryPtr<ILensFlareRender>
; Function compile flags: /Ogtpy
_TEXT	ENDS
;	COMDAT ??4?$FactoryPtr@VIThunderboltRender@@@@QAEAAV0@ABV0@@Z
_TEXT	SEGMENT
??4?$FactoryPtr@VIThunderboltRender@@@@QAEAAV0@ABV0@@Z PROC ; FactoryPtr<IThunderboltRender>::operator=, COMDAT
; _this$ = esi
; __in$ = edx

; 35   : 		m_pObject->Copy(*_in.m_pObject);

	mov	ecx, DWORD PTR [esi]
	mov	eax, DWORD PTR [ecx]
	mov	edx, DWORD PTR [edx]
	mov	eax, DWORD PTR [eax+4]
	push	edx
	call	eax

; 36   : 		return *this;

	mov	eax, esi

; 37   : 	}

	ret	0
??4?$FactoryPtr@VIThunderboltRender@@@@QAEAAV0@ABV0@@Z ENDP ; FactoryPtr<IThunderboltRender>::operator=
; Function compile flags: /Ogtpy
_TEXT	ENDS
;	COMDAT ??0?$FactoryPtr@VIThunderboltRender@@@@QAE@ABV0@@Z
_TEXT	SEGMENT
__in$ = 8						; size = 4
??0?$FactoryPtr@VIThunderboltRender@@@@QAE@ABV0@@Z PROC	; FactoryPtr<IThunderboltRender>::FactoryPtr<IThunderboltRender>, COMDAT
; _this$ = esi

; 28   : 	{
; 29   : 		CreateObject();

	mov	eax, DWORD PTR __imp_?RenderFactory@@3PAVIRenderFactory@@A
	mov	ecx, DWORD PTR [eax]
	mov	edx, DWORD PTR [ecx]
	mov	eax, DWORD PTR [edx+104]
	call	eax

; 30   : 		m_pObject->Copy(*_in.m_pObject);

	mov	ecx, DWORD PTR __in$[esp-4]
	mov	DWORD PTR [esi], eax
	mov	ecx, DWORD PTR [ecx]
	mov	edx, DWORD PTR [eax]
	mov	edx, DWORD PTR [edx+4]
	push	ecx
	mov	ecx, eax
	call	edx

; 31   : 	}

	mov	eax, esi
	ret	4
??0?$FactoryPtr@VIThunderboltRender@@@@QAE@ABV0@@Z ENDP	; FactoryPtr<IThunderboltRender>::FactoryPtr<IThunderboltRender>
; Function compile flags: /Ogtpy
_TEXT	ENDS
;	COMDAT ??1?$FactoryPtr@VIThunderboltRender@@@@QAE@XZ
_TEXT	SEGMENT
??1?$FactoryPtr@VIThunderboltRender@@@@QAE@XZ PROC	; FactoryPtr<IThunderboltRender>::~FactoryPtr<IThunderboltRender>, COMDAT
; _this$ = esi

; 25   : 	~FactoryPtr() { DestroyObject();}

	mov	eax, DWORD PTR __imp_?RenderFactory@@3PAVIRenderFactory@@A
	mov	ecx, DWORD PTR [eax]
	mov	edx, DWORD PTR [ecx]
	mov	eax, DWORD PTR [esi]
	mov	edx, DWORD PTR [edx+108]
	push	eax
	call	edx
	mov	DWORD PTR [esi], 0
	ret	0
??1?$FactoryPtr@VIThunderboltRender@@@@QAE@XZ ENDP	; FactoryPtr<IThunderboltRender>::~FactoryPtr<IThunderboltRender>
; Function compile flags: /Ogtpy
_TEXT	ENDS
;	COMDAT ??4?$FactoryPtr@VIFlareRender@@@@QAEAAV0@ABV0@@Z
_TEXT	SEGMENT
??4?$FactoryPtr@VIFlareRender@@@@QAEAAV0@ABV0@@Z PROC	; FactoryPtr<IFlareRender>::operator=, COMDAT
; _this$ = esi
; __in$ = edx

; 35   : 		m_pObject->Copy(*_in.m_pObject);

	mov	ecx, DWORD PTR [esi]
	mov	eax, DWORD PTR [ecx]
	mov	edx, DWORD PTR [edx]
	mov	eax, DWORD PTR [eax+4]
	push	edx
	call	eax

; 36   : 		return *this;

	mov	eax, esi

; 37   : 	}

	ret	0
??4?$FactoryPtr@VIFlareRender@@@@QAEAAV0@ABV0@@Z ENDP	; FactoryPtr<IFlareRender>::operator=
; Function compile flags: /Ogtpy
_TEXT	ENDS
;	COMDAT ??0?$FactoryPtr@VIFlareRender@@@@QAE@ABV0@@Z
_TEXT	SEGMENT
__in$ = 8						; size = 4
??0?$FactoryPtr@VIFlareRender@@@@QAE@ABV0@@Z PROC	; FactoryPtr<IFlareRender>::FactoryPtr<IFlareRender>, COMDAT
; _this$ = esi

; 28   : 	{
; 29   : 		CreateObject();

	mov	eax, DWORD PTR __imp_?RenderFactory@@3PAVIRenderFactory@@A
	mov	ecx, DWORD PTR [eax]
	mov	edx, DWORD PTR [ecx]
	mov	eax, DWORD PTR [edx+120]
	call	eax

; 30   : 		m_pObject->Copy(*_in.m_pObject);

	mov	ecx, DWORD PTR __in$[esp-4]
	mov	DWORD PTR [esi], eax
	mov	ecx, DWORD PTR [ecx]
	mov	edx, DWORD PTR [eax]
	mov	edx, DWORD PTR [edx+4]
	push	ecx
	mov	ecx, eax
	call	edx

; 31   : 	}

	mov	eax, esi
	ret	4
??0?$FactoryPtr@VIFlareRender@@@@QAE@ABV0@@Z ENDP	; FactoryPtr<IFlareRender>::FactoryPtr<IFlareRender>
; Function compile flags: /Ogtpy
_TEXT	ENDS
;	COMDAT ??1?$FactoryPtr@VIFlareRender@@@@QAE@XZ
_TEXT	SEGMENT
??1?$FactoryPtr@VIFlareRender@@@@QAE@XZ PROC		; FactoryPtr<IFlareRender>::~FactoryPtr<IFlareRender>, COMDAT
; _this$ = esi

; 25   : 	~FactoryPtr() { DestroyObject();}

	mov	eax, DWORD PTR __imp_?RenderFactory@@3PAVIRenderFactory@@A
	mov	ecx, DWORD PTR [eax]
	mov	edx, DWORD PTR [ecx]
	mov	eax, DWORD PTR [esi]
	mov	edx, DWORD PTR [edx+124]
	push	eax
	call	edx
	mov	DWORD PTR [esi], 0
	ret	0
??1?$FactoryPtr@VIFlareRender@@@@QAE@XZ ENDP		; FactoryPtr<IFlareRender>::~FactoryPtr<IFlareRender>
; Function compile flags: /Ogtpy
_TEXT	ENDS
;	COMDAT ??0?$FactoryPtr@VIFlareRender@@@@QAE@XZ
_TEXT	SEGMENT
??0?$FactoryPtr@VIFlareRender@@@@QAE@XZ PROC		; FactoryPtr<IFlareRender>::FactoryPtr<IFlareRender>, COMDAT
; _this$ = esi

; 24   : 	FactoryPtr() { CreateObject();}

	mov	eax, DWORD PTR __imp_?RenderFactory@@3PAVIRenderFactory@@A
	mov	ecx, DWORD PTR [eax]
	mov	edx, DWORD PTR [ecx]
	mov	eax, DWORD PTR [edx+120]
	call	eax
	mov	DWORD PTR [esi], eax
	mov	eax, esi
	ret	0
??0?$FactoryPtr@VIFlareRender@@@@QAE@XZ ENDP		; FactoryPtr<IFlareRender>::FactoryPtr<IFlareRender>
; Function compile flags: /Ogtpy
; File d:\clearsky\sources\engine\xrcore\_flags.h
_TEXT	ENDS
;	COMDAT ?zero@?$_flags@I@@QAEAAU1@XZ
_TEXT	SEGMENT
?zero@?$_flags@I@@QAEAAU1@XZ PROC			; _flags<unsigned int>::zero, COMDAT
; _this$ = eax

; 15   :     IC	SelfRef	zero	()											{ flags=T(0);	return *this;	}

	mov	DWORD PTR [eax], 0
	ret	0
?zero@?$_flags@I@@QAEAAU1@XZ ENDP			; _flags<unsigned int>::zero
; Function compile flags: /Ogtpy
; File d:\clearsky\sources\engine\xrengine\environment.cpp
_TEXT	ENDS
;	COMDAT ?lb_env_pred@@YA_NPBVCEnvDescriptor@@M@Z
_TEXT	SEGMENT
_x$ = 8							; size = 4
_val$ = 12						; size = 4
?lb_env_pred@@YA_NPBVCEnvDescriptor@@M@Z PROC		; lb_env_pred, COMDAT

; 388  : {	return x->exec_time < val;	}

	mov	eax, DWORD PTR _x$[esp-4]
	movss	xmm0, DWORD PTR _val$[esp-4]
	comiss	xmm0, DWORD PTR [eax]
	jbe	SHORT $LN3@lb_env_pre
	mov	eax, 1
	ret	0
$LN3@lb_env_pre:
	xor	eax, eax
	ret	0
?lb_env_pred@@YA_NPBVCEnvDescriptor@@M@Z ENDP		; lb_env_pred
_TEXT	ENDS
PUBLIC	__real@47a8c000
PUBLIC	?NormalizeTime@CEnvironment@@AAEMM@Z		; CEnvironment::NormalizeTime
;	COMDAT __real@47a8c000
CONST	SEGMENT
__real@47a8c000 DD 047a8c000r			; 86400
; Function compile flags: /Ogtpy
CONST	ENDS
;	COMDAT ?NormalizeTime@CEnvironment@@AAEMM@Z
_TEXT	SEGMENT
_tm$ = 8						; size = 4
?NormalizeTime@CEnvironment@@AAEMM@Z PROC		; CEnvironment::NormalizeTime, COMDAT
; _this$ = ecx

; 271  : 	if (tm<0.f)				return tm+DAY_LENGTH;

	xorps	xmm1, xmm1
	fld	DWORD PTR _tm$[esp-4]
	movss	xmm0, DWORD PTR _tm$[esp-4]
	comiss	xmm1, xmm0
	jbe	SHORT $LN4@NormalizeT
	fadd	DWORD PTR __real@47a8c000

; 273  : 	else					return tm;
; 274  : }

	ret	4
$LN4@NormalizeT:

; 272  : 	else if (tm>DAY_LENGTH)	return tm-DAY_LENGTH;

	comiss	xmm0, DWORD PTR __real@47a8c000
	jbe	SHORT $LN1@NormalizeT
	fsub	DWORD PTR __real@47a8c000
$LN1@NormalizeT:

; 273  : 	else					return tm;
; 274  : }

	ret	4
?NormalizeTime@CEnvironment@@AAEMM@Z ENDP		; CEnvironment::NormalizeTime
_TEXT	ENDS
PUBLIC	?ChangeGameTime@CEnvironment@@QAEXM@Z		; CEnvironment::ChangeGameTime
; Function compile flags: /Ogtpy
;	COMDAT ?ChangeGameTime@CEnvironment@@QAEXM@Z
_TEXT	SEGMENT
_game_time$ = 8						; size = 4
?ChangeGameTime@CEnvironment@@QAEXM@Z PROC		; CEnvironment::ChangeGameTime, COMDAT
; _this$ = ecx

; 252  : 	fGameTime				= NormalizeTime(fGameTime + game_time);

	movss	xmm0, DWORD PTR _game_time$[esp-4]
	addss	xmm0, DWORD PTR [ecx+28]
	xorps	xmm1, xmm1
	comiss	xmm1, xmm0
	jbe	SHORT $LN6@ChangeGame
	addss	xmm0, DWORD PTR __real@47a8c000
	movss	DWORD PTR [ecx+28], xmm0

; 253  : };

	ret	4

; 252  : 	fGameTime				= NormalizeTime(fGameTime + game_time);

$LN6@ChangeGame:
	movss	xmm1, DWORD PTR __real@47a8c000
	comiss	xmm0, xmm1
	jbe	SHORT $LN4@ChangeGame
	subss	xmm0, xmm1
$LN4@ChangeGame:
	movss	DWORD PTR [ecx+28], xmm0

; 253  : };

	ret	4
?ChangeGameTime@CEnvironment@@QAEXM@Z ENDP		; CEnvironment::ChangeGameTime
_TEXT	ENDS
PUBLIC	?TimeDiff@CEnvironment@@AAEMMM@Z		; CEnvironment::TimeDiff
; Function compile flags: /Ogtpy
;	COMDAT ?TimeDiff@CEnvironment@@AAEMMM@Z
_TEXT	SEGMENT
_prev$ = 8						; size = 4
_cur$ = 12						; size = 4
?TimeDiff@CEnvironment@@AAEMMM@Z PROC			; CEnvironment::TimeDiff, COMDAT
; _this$ = ecx

; 232  : 	if (prev>cur)	return	(DAY_LENGTH-prev)+cur;

	movss	xmm0, DWORD PTR _prev$[esp-4]
	comiss	xmm0, DWORD PTR _cur$[esp-4]
	jbe	SHORT $LN2@TimeDiff
	fld	DWORD PTR __real@47a8c000
	fsub	DWORD PTR _prev$[esp-4]
	fadd	DWORD PTR _cur$[esp-4]

; 234  : }

	ret	8
$LN2@TimeDiff:

; 233  : 	else			return	cur-prev;

	fld	DWORD PTR _cur$[esp-4]
	fsub	DWORD PTR _prev$[esp-4]

; 234  : }

	ret	8
?TimeDiff@CEnvironment@@AAEMMM@Z ENDP			; CEnvironment::TimeDiff
_TEXT	ENDS
PUBLIC	?SetAmplitude@CPerlinNoiseCustom@@QAEXM@Z	; CPerlinNoiseCustom::SetAmplitude
; Function compile flags: /Ogtpy
; File d:\clearsky\sources\engine\xrengine\perlin.h
;	COMDAT ?SetAmplitude@CPerlinNoiseCustom@@QAEXM@Z
_TEXT	SEGMENT
_amp$ = 8						; size = 4
?SetAmplitude@CPerlinNoiseCustom@@QAEXM@Z PROC		; CPerlinNoiseCustom::SetAmplitude, COMDAT
; _this$ = ecx

; 29   : 	IC void	SetAmplitude		(float amp)	{mAmplitude	= amp;}

	movss	xmm0, DWORD PTR _amp$[esp-4]
	movss	DWORD PTR [ecx+2072], xmm0
	ret	4
?SetAmplitude@CPerlinNoiseCustom@@QAEXM@Z ENDP		; CPerlinNoiseCustom::SetAmplitude
_TEXT	ENDS
PUBLIC	?SetFrequency@CPerlinNoiseCustom@@QAEXM@Z	; CPerlinNoiseCustom::SetFrequency
; Function compile flags: /Ogtpy
;	COMDAT ?SetFrequency@CPerlinNoiseCustom@@QAEXM@Z
_TEXT	SEGMENT
_freq$ = 8						; size = 4
?SetFrequency@CPerlinNoiseCustom@@QAEXM@Z PROC		; CPerlinNoiseCustom::SetFrequency, COMDAT
; _this$ = ecx

; 28   : 	IC void	SetFrequency		(float freq){mFrequency	= freq;}

	movss	xmm0, DWORD PTR _freq$[esp-4]
	movss	DWORD PTR [ecx+2068], xmm0
	ret	4
?SetFrequency@CPerlinNoiseCustom@@QAEXM@Z ENDP		; CPerlinNoiseCustom::SetFrequency
_TEXT	ENDS
PUBLIC	?SetParams@CPerlinNoiseCustom@@QAEXHMM@Z	; CPerlinNoiseCustom::SetParams
; Function compile flags: /Ogtpy
;	COMDAT ?SetParams@CPerlinNoiseCustom@@QAEXHMM@Z
_TEXT	SEGMENT
_oct$ = 8						; size = 4
_freq$ = 12						; size = 4
_amp$ = 16						; size = 4
?SetParams@CPerlinNoiseCustom@@QAEXHMM@Z PROC		; CPerlinNoiseCustom::SetParams, COMDAT
; _this$ = ecx

; 23   : 		mOctaves				= oct;
; 24   : 		mFrequency				= freq;

	movss	xmm0, DWORD PTR _freq$[esp-4]
	mov	eax, DWORD PTR _oct$[esp-4]
	movss	DWORD PTR [ecx+2068], xmm0

; 25   : 		mAmplitude				= amp;

	movss	xmm0, DWORD PTR _amp$[esp-4]
	mov	DWORD PTR [ecx+2064], eax
	movss	DWORD PTR [ecx+2072], xmm0

; 26   : 	}

	ret	12					; 0000000cH
?SetParams@CPerlinNoiseCustom@@QAEXHMM@Z ENDP		; CPerlinNoiseCustom::SetParams
_TEXT	ENDS
PUBLIC	?Invalidate@CLensFlare@@QAEXXZ			; CLensFlare::Invalidate
; Function compile flags: /Ogtpy
; File d:\clearsky\sources\engine\xrengine\xr_efflensflare.h
;	COMDAT ?Invalidate@CLensFlare@@QAEXXZ
_TEXT	SEGMENT
?Invalidate@CLensFlare@@QAEXXZ PROC			; CLensFlare::Invalidate, COMDAT
; _this$ = ecx

; 123  : 	void				Invalidate		(){m_State=lfsNone;}

	mov	DWORD PTR [ecx+492], 0
	ret	0
?Invalidate@CLensFlare@@QAEXXZ ENDP			; CLensFlare::Invalidate
; Function compile flags: /Ogtpy
; File d:\clearsky\sources\engine\xrcore\xrstring.h
;	COMDAT ?xr_strcmp@@YAHABVshared_str@@0@Z
_TEXT	SEGMENT
?xr_strcmp@@YAHABVshared_str@@0@Z PROC			; xr_strcmp, COMDAT
; _a$ = eax
; _b$ = ecx

; 119  : 	if (a.equal(b))		return 0;

	mov	edx, DWORD PTR [eax]
	mov	eax, DWORD PTR [ecx]
	cmp	edx, eax
	je	SHORT $LN19@xr_strcmp@3

; 120  : 	else				return xr_strcmp(*a,*b);

	test	eax, eax
	je	SHORT $LN9@xr_strcmp@3
	lea	ecx, DWORD PTR [eax+16]
	jmp	SHORT $LN10@xr_strcmp@3
$LN9@xr_strcmp@3:
	xor	ecx, ecx
$LN10@xr_strcmp@3:
	test	edx, edx
	je	SHORT $LN13@xr_strcmp@3
	lea	eax, DWORD PTR [edx+16]
	jmp	SHORT $LL14@xr_strcmp@3
$LN13@xr_strcmp@3:
	xor	eax, eax
	npad	2
$LL14@xr_strcmp@3:
	mov	dl, BYTE PTR [eax]
	cmp	dl, BYTE PTR [ecx]
	jne	SHORT $LN18@xr_strcmp@3
	test	dl, dl
	je	SHORT $LN19@xr_strcmp@3
	mov	dl, BYTE PTR [eax+1]
	cmp	dl, BYTE PTR [ecx+1]
	jne	SHORT $LN18@xr_strcmp@3
	add	eax, 2
	add	ecx, 2
	test	dl, dl
	jne	SHORT $LL14@xr_strcmp@3
$LN19@xr_strcmp@3:
	xor	eax, eax

; 121  : }

	ret	0
$LN18@xr_strcmp@3:

; 120  : 	else				return xr_strcmp(*a,*b);

	sbb	eax, eax
	sbb	eax, -1

; 121  : }

	ret	0
?xr_strcmp@@YAHABVshared_str@@0@Z ENDP			; xr_strcmp
; Function compile flags: /Ogtpy
; File d:\clearsky\sources\sdk\include\stlport\stl\pointers\_vector.h
_TEXT	ENDS
;	COMDAT ?size@?$vector@U?$_vector3@M@@V?$xalloc@U?$_vector3@M@@@@@stlp_std@@QBEIXZ
_TEXT	SEGMENT
?size@?$vector@U?$_vector3@M@@V?$xalloc@U?$_vector3@M@@@@@stlp_std@@QBEIXZ PROC ; stlp_std::vector<_vector3<float>,xalloc<_vector3<float> > >::size, COMDAT
; _this$ = eax

; 89   :   size_type size() const        { return _M_impl.size(); }

	mov	ecx, DWORD PTR [eax+4]
	sub	ecx, DWORD PTR [eax]
	mov	eax, 715827883				; 2aaaaaabH
	imul	ecx
	sar	edx, 1
	mov	eax, edx
	shr	eax, 31					; 0000001fH
	add	eax, edx
	ret	0
?size@?$vector@U?$_vector3@M@@V?$xalloc@U?$_vector3@M@@@@@stlp_std@@QBEIXZ ENDP ; stlp_std::vector<_vector3<float>,xalloc<_vector3<float> > >::size
; Function compile flags: /Ogtpy
; File d:\clearsky\sources\engine\xrcore\_stl_extensions.h
_TEXT	ENDS
;	COMDAT ?size@?$xr_vector@U?$_vector3@M@@V?$xalloc@U?$_vector3@M@@@@@@QBEIXZ
_TEXT	SEGMENT
?size@?$xr_vector@U?$_vector3@M@@V?$xalloc@U?$_vector3@M@@@@@@QBEIXZ PROC ; xr_vector<_vector3<float>,xalloc<_vector3<float> > >::size, COMDAT
; _this$ = eax

; 126  : 	u32		size				() const							{ return (u32)inherited::size();} 

	mov	ecx, DWORD PTR [eax+4]
	sub	ecx, DWORD PTR [eax]
	mov	eax, 715827883				; 2aaaaaabH
	imul	ecx
	sar	edx, 1
	mov	eax, edx
	shr	eax, 31					; 0000001fH
	add	eax, edx
	ret	0
?size@?$xr_vector@U?$_vector3@M@@V?$xalloc@U?$_vector3@M@@@@@@QBEIXZ ENDP ; xr_vector<_vector3<float>,xalloc<_vector3<float> > >::size
; Function compile flags: /Ogtpy
; File d:\clearsky\sources\engine\xrcore\vector.h
_TEXT	ENDS
;	COMDAT ?fis_zero@@YAHMM@Z
_TEXT	SEGMENT
_val$ = 8						; size = 4
_cmp$ = 12						; size = 4
?fis_zero@@YAHMM@Z PROC					; fis_zero, COMDAT

; 82   : IC BOOL  fis_zero		( float		val, float	cmp=EPS_S )					{ return _abs(val)<cmp;	}

	push	ecx
	fld	DWORD PTR _val$[esp]
	push	ecx
	fstp	DWORD PTR [esp]
	call	_fabsf
	fld	DWORD PTR _cmp$[esp+4]
	add	esp, 4
	fcomip	ST(1)
	fstp	ST(0)
	jbe	SHORT $LN3@fis_zero
	mov	eax, 1
	pop	ecx
	ret	0
$LN3@fis_zero:
	xor	eax, eax
	pop	ecx
	ret	0
?fis_zero@@YAHMM@Z ENDP					; fis_zero
; Function compile flags: /Ogtpy
; File d:\clearsky\sources\sdk\include\stlport\stl\_algobase.h
_TEXT	ENDS
;	COMDAT ??$__copy_ptrs@PAU?$_vector3@M@@PAU1@@priv@stlp_std@@YAPAU?$_vector3@M@@PAU2@00ABU__true_type@1@@Z
_TEXT	SEGMENT
??$__copy_ptrs@PAU?$_vector3@M@@PAU1@@priv@stlp_std@@YAPAU?$_vector3@M@@PAU2@00ABU__true_type@1@@Z PROC ; stlp_std::priv::__copy_ptrs<_vector3<float> *,_vector3<float> *>, COMDAT
; ___first$ = edx
; ___last$ = ecx
; ___result$ = eax

; 255  :   // we know they all pointers, so this cast is OK
; 256  :   //  return (_OutputIter)__copy_trivial(&(*__first), &(*__last), &(*__result));
; 257  :   return (_OutputIter)__copy_trivial(__first, __last, __result);

	sub	ecx, edx
	push	esi
	mov	esi, ecx
	je	SHORT $LN6@copy_ptrs@19
	push	esi
	push	edx
	push	eax
	call	DWORD PTR __imp__memmove
	add	esp, 12					; 0000000cH
	add	eax, esi
$LN6@copy_ptrs@19:
	pop	esi

; 258  : }

	ret	0
??$__copy_ptrs@PAU?$_vector3@M@@PAU1@@priv@stlp_std@@YAPAU?$_vector3@M@@PAU2@00ABU__true_type@1@@Z ENDP ; stlp_std::priv::__copy_ptrs<_vector3<float> *,_vector3<float> *>
; Function compile flags: /Ogtpy
_TEXT	ENDS
;	COMDAT ??$__copy_backward_ptrs@PAPAVCEnvDescriptor@@PAPAV1@@priv@stlp_std@@YAPAPAVCEnvDescriptor@@PAPAV2@00ABU__true_type@1@@Z
_TEXT	SEGMENT
??$__copy_backward_ptrs@PAPAVCEnvDescriptor@@PAPAV1@@priv@stlp_std@@YAPAPAVCEnvDescriptor@@PAPAV2@00ABU__true_type@1@@Z PROC ; stlp_std::priv::__copy_backward_ptrs<CEnvDescriptor * *,CEnvDescriptor * *>, COMDAT
; ___first$ = edx
; ___last$ = ecx
; ___result$ = eax

; 294  :   return (_OutputIter)__copy_trivial_backward(__first, __last, __result);

	sub	ecx, edx
	test	ecx, ecx
	jle	SHORT $LN6@copy_backw@26
	push	ecx
	push	edx
	sub	eax, ecx
	push	eax
	call	DWORD PTR __imp__memmove
	add	esp, 12					; 0000000cH
$LN6@copy_backw@26:

; 295  : }

	ret	0
??$__copy_backward_ptrs@PAPAVCEnvDescriptor@@PAPAV1@@priv@stlp_std@@YAPAPAVCEnvDescriptor@@PAPAV2@00ABU__true_type@1@@Z ENDP ; stlp_std::priv::__copy_backward_ptrs<CEnvDescriptor * *,CEnvDescriptor * *>
; Function compile flags: /Ogtpy
; File d:\clearsky\sources\sdk\include\stlport\stl\_heap.c
_TEXT	ENDS
;	COMDAT ??$__pop_heap_aux@PAPAVCEnvDescriptor@@PAV1@P6A_NPBV1@0@Z@stlp_std@@YAXPAPAVCEnvDescriptor@@00P6A_NPBV1@1@Z@Z
_TEXT	SEGMENT
___comp$ = 8						; size = 4
??$__pop_heap_aux@PAPAVCEnvDescriptor@@PAV1@P6A_NPBV1@0@Z@stlp_std@@YAXPAPAVCEnvDescriptor@@00P6A_NPBV1@1@Z@Z PROC ; stlp_std::__pop_heap_aux<CEnvDescriptor * *,CEnvDescriptor *,bool (__cdecl*)(CEnvDescriptor const *,CEnvDescriptor const *)>, COMDAT
; ___first$ = ecx
; ___last$ = eax

; 174  :   __pop_heap(__first, __last - 1, __last - 1, _Tp(*(__last - 1)), __comp,
; 175  :              _STLP_DISTANCE_TYPE(__first, _RandomAccessIterator));

	mov	edx, DWORD PTR [eax-4]
	push	esi
	mov	esi, DWORD PTR [ecx]
	mov	DWORD PTR [eax-4], esi
	mov	esi, DWORD PTR ___comp$[esp]
	sub	eax, ecx
	sub	eax, 4
	push	esi
	sar	eax, 2
	push	edx
	push	eax
	xor	eax, eax
	call	??$__adjust_heap@PAPAVCEnvDescriptor@@HPAV1@P6A_NPBV1@0@Z@stlp_std@@YAXPAPAVCEnvDescriptor@@HHPAV1@P6A_NPBV1@2@Z@Z ; stlp_std::__adjust_heap<CEnvDescriptor * *,int,CEnvDescriptor *,bool (__cdecl*)(CEnvDescriptor const *,CEnvDescriptor const *)>
	add	esp, 12					; 0000000cH
	pop	esi

; 176  : }

	ret	0
??$__pop_heap_aux@PAPAVCEnvDescriptor@@PAV1@P6A_NPBV1@0@Z@stlp_std@@YAXPAPAVCEnvDescriptor@@00P6A_NPBV1@1@Z@Z ENDP ; stlp_std::__pop_heap_aux<CEnvDescriptor * *,CEnvDescriptor *,bool (__cdecl*)(CEnvDescriptor const *,CEnvDescriptor const *)>
; Function compile flags: /Ogtpy
; File d:\clearsky\sources\sdk\include\stlport\stl\_algobase.h
_TEXT	ENDS
;	COMDAT ??$__copy_backward_aux@PAPAVCEnvDescriptor@@PAPAV1@@priv@stlp_std@@YAPAPAVCEnvDescriptor@@PAPAV2@00ABU__true_type@1@@Z
_TEXT	SEGMENT
??$__copy_backward_aux@PAPAVCEnvDescriptor@@PAPAV1@@priv@stlp_std@@YAPAPAVCEnvDescriptor@@PAPAV2@00ABU__true_type@1@@Z PROC ; stlp_std::priv::__copy_backward_aux<CEnvDescriptor * *,CEnvDescriptor * *>, COMDAT
; ___first$ = edx
; ___last$ = ecx
; ___result$ = eax

; 304  :   return __copy_backward_ptrs(__first, __last, __result,
; 305  :                               _UseTrivialCopy(_STLP_VALUE_TYPE(__first, _InputIter),
; 306  :                                               _STLP_VALUE_TYPE(__result, _OutputIter))._Answer());

	sub	ecx, edx
	test	ecx, ecx
	jle	SHORT $LN12@copy_backw@27
	push	ecx
	push	edx
	sub	eax, ecx
	push	eax
	call	DWORD PTR __imp__memmove
	add	esp, 12					; 0000000cH
$LN12@copy_backw@27:

; 307  : }

	ret	0
??$__copy_backward_aux@PAPAVCEnvDescriptor@@PAPAV1@@priv@stlp_std@@YAPAPAVCEnvDescriptor@@PAPAV2@00ABU__true_type@1@@Z ENDP ; stlp_std::priv::__copy_backward_aux<CEnvDescriptor * *,CEnvDescriptor * *>
; Function compile flags: /Ogtpy
; File d:\clearsky\sources\sdk\include\stlport\stl\_heap.c
_TEXT	ENDS
;	COMDAT ??$pop_heap@PAPAVCEnvDescriptor@@P6A_NPBV1@0@Z@stlp_std@@YAXPAPAVCEnvDescriptor@@0P6A_NPBV1@1@Z@Z
_TEXT	SEGMENT
___comp$ = 8						; size = 4
??$pop_heap@PAPAVCEnvDescriptor@@P6A_NPBV1@0@Z@stlp_std@@YAXPAPAVCEnvDescriptor@@0P6A_NPBV1@1@Z@Z PROC ; stlp_std::pop_heap<CEnvDescriptor * *,bool (__cdecl*)(CEnvDescriptor const *,CEnvDescriptor const *)>, COMDAT
; ___first$ = ecx
; ___last$ = eax

; 184  :     __pop_heap_aux(__first, __last, _STLP_VALUE_TYPE(__first, _RandomAccessIterator), __comp);

	mov	edx, DWORD PTR [eax-4]
	push	esi
	mov	esi, DWORD PTR [ecx]
	mov	DWORD PTR [eax-4], esi
	mov	esi, DWORD PTR ___comp$[esp]
	sub	eax, ecx
	sub	eax, 4
	push	esi
	sar	eax, 2
	push	edx
	push	eax
	xor	eax, eax
	call	??$__adjust_heap@PAPAVCEnvDescriptor@@HPAV1@P6A_NPBV1@0@Z@stlp_std@@YAXPAPAVCEnvDescriptor@@HHPAV1@P6A_NPBV1@2@Z@Z ; stlp_std::__adjust_heap<CEnvDescriptor * *,int,CEnvDescriptor *,bool (__cdecl*)(CEnvDescriptor const *,CEnvDescriptor const *)>
	add	esp, 12					; 0000000cH
	pop	esi

; 185  : }

	ret	0
??$pop_heap@PAPAVCEnvDescriptor@@P6A_NPBV1@0@Z@stlp_std@@YAXPAPAVCEnvDescriptor@@0P6A_NPBV1@1@Z@Z ENDP ; stlp_std::pop_heap<CEnvDescriptor * *,bool (__cdecl*)(CEnvDescriptor const *,CEnvDescriptor const *)>
; Function compile flags: /Ogtpy
; File d:\clearsky\sources\sdk\include\stlport\stl\_algobase.h
_TEXT	ENDS
;	COMDAT ??$copy_backward@PAPAVCEnvDescriptor@@PAPAV1@@stlp_std@@YAPAPAVCEnvDescriptor@@PAPAV1@00@Z
_TEXT	SEGMENT
??$copy_backward@PAPAVCEnvDescriptor@@PAPAV1@@stlp_std@@YAPAPAVCEnvDescriptor@@PAPAV1@00@Z PROC ; stlp_std::copy_backward<CEnvDescriptor * *,CEnvDescriptor * *>, COMDAT
; ___first$ = edx
; ___last$ = ecx
; ___result$ = eax

; 313  :   _STLP_DEBUG_CHECK(_STLP_PRIV __check_range(__first, __last))
; 314  :   return _STLP_PRIV __copy_backward_aux(__first, __last, __result, _BothPtrType< _InputIter, _OutputIter>::_Answer() );

	sub	ecx, edx
	test	ecx, ecx
	jle	SHORT $LN16@copy_backw@28
	push	ecx
	push	edx
	sub	eax, ecx
	push	eax
	call	DWORD PTR __imp__memmove
	add	esp, 12					; 0000000cH
$LN16@copy_backw@28:

; 315  : }

	ret	0
??$copy_backward@PAPAVCEnvDescriptor@@PAPAV1@@stlp_std@@YAPAPAVCEnvDescriptor@@PAPAV1@00@Z ENDP ; stlp_std::copy_backward<CEnvDescriptor * *,CEnvDescriptor * *>
; Function compile flags: /Ogtpy
; File d:\clearsky\sources\sdk\include\stlport\stl\_heap.h
_TEXT	ENDS
;	COMDAT ??$sort_heap@PAPAVCEnvDescriptor@@P6A_NPBV1@0@Z@stlp_std@@YAXPAPAVCEnvDescriptor@@0P6A_NPBV1@1@Z@Z
_TEXT	SEGMENT
??$sort_heap@PAPAVCEnvDescriptor@@P6A_NPBV1@0@Z@stlp_std@@YAXPAPAVCEnvDescriptor@@0P6A_NPBV1@1@Z@Z PROC ; stlp_std::sort_heap<CEnvDescriptor * *,bool (__cdecl*)(CEnvDescriptor const *,CEnvDescriptor const *)>, COMDAT
; ___first$ = esi
; ___last$ = eax
; ___comp$ = ebx

; 111  :   while (__last - __first > 1)

	sub	eax, esi
	mov	ecx, eax
	and	ecx, -4					; fffffffcH
	cmp	ecx, 4
	jle	SHORT $LN1@sort_heap@3
	push	edi
	npad	3
$LL2@sort_heap@3:

; 112  :     pop_heap(__first, __last--, __comp);

	mov	ecx, DWORD PTR [esi+eax-4]
	mov	edx, DWORD PTR [esi]
	lea	edi, DWORD PTR [eax-4]
	mov	DWORD PTR [esi+eax-4], edx
	push	ebx
	push	ecx
	mov	eax, edi
	sar	eax, 2
	push	eax
	xor	eax, eax
	mov	ecx, esi
	call	??$__adjust_heap@PAPAVCEnvDescriptor@@HPAV1@P6A_NPBV1@0@Z@stlp_std@@YAXPAPAVCEnvDescriptor@@HHPAV1@P6A_NPBV1@2@Z@Z ; stlp_std::__adjust_heap<CEnvDescriptor * *,int,CEnvDescriptor *,bool (__cdecl*)(CEnvDescriptor const *,CEnvDescriptor const *)>
	mov	eax, edi
	mov	ecx, edi
	and	ecx, -4					; fffffffcH
	add	esp, 12					; 0000000cH
	cmp	ecx, 4
	jg	SHORT $LL2@sort_heap@3
	pop	edi
$LN1@sort_heap@3:

; 113  : }

	ret	0
??$sort_heap@PAPAVCEnvDescriptor@@P6A_NPBV1@0@Z@stlp_std@@YAXPAPAVCEnvDescriptor@@0P6A_NPBV1@1@Z@Z ENDP ; stlp_std::sort_heap<CEnvDescriptor * *,bool (__cdecl*)(CEnvDescriptor const *,CEnvDescriptor const *)>
; Function compile flags: /Ogtpy
; File d:\clearsky\sources\sdk\include\stlport\stl\_construct.h
_TEXT	ENDS
;	COMDAT ??$_Param_Construct@MM@stlp_std@@YAXPAMABM@Z
_TEXT	SEGMENT
??$_Param_Construct@MM@stlp_std@@YAXPAMABM@Z PROC	; stlp_std::_Param_Construct<float,float>, COMDAT
; ___p$ = eax
; ___val$ = ecx

; 118  : #if defined (_STLP_DEBUG_UNINITIALIZED)
; 119  :   memset((char*)__p, _STLP_SHRED_BYTE, sizeof(_T1));
; 120  : #endif
; 121  :   _STLP_PLACEMENT_NEW (__p) _T1(__val);

	test	eax, eax
	je	SHORT $LN3@Param_Cons@8
	fld	DWORD PTR [ecx]
	fstp	DWORD PTR [eax]
$LN3@Param_Cons@8:

; 122  : }

	ret	0
??$_Param_Construct@MM@stlp_std@@YAXPAMABM@Z ENDP	; stlp_std::_Param_Construct<float,float>
; Function compile flags: /Ogtpy
_TEXT	ENDS
;	COMDAT ??$_Param_Construct@GG@stlp_std@@YAXPAGABG@Z
_TEXT	SEGMENT
??$_Param_Construct@GG@stlp_std@@YAXPAGABG@Z PROC	; stlp_std::_Param_Construct<unsigned short,unsigned short>, COMDAT
; ___p$ = eax
; ___val$ = ecx

; 118  : #if defined (_STLP_DEBUG_UNINITIALIZED)
; 119  :   memset((char*)__p, _STLP_SHRED_BYTE, sizeof(_T1));
; 120  : #endif
; 121  :   _STLP_PLACEMENT_NEW (__p) _T1(__val);

	test	eax, eax
	je	SHORT $LN3@Param_Cons@9
	mov	dx, WORD PTR [ecx]
	mov	WORD PTR [eax], dx
$LN3@Param_Cons@9:

; 122  : }

	ret	0
??$_Param_Construct@GG@stlp_std@@YAXPAGABG@Z ENDP	; stlp_std::_Param_Construct<unsigned short,unsigned short>
; Function compile flags: /Ogtpy
_TEXT	ENDS
;	COMDAT ??$_Param_Construct@U?$_vector3@M@@U1@@stlp_std@@YAXPAU?$_vector3@M@@ABU1@@Z
_TEXT	SEGMENT
??$_Param_Construct@U?$_vector3@M@@U1@@stlp_std@@YAXPAU?$_vector3@M@@ABU1@@Z PROC ; stlp_std::_Param_Construct<_vector3<float>,_vector3<float> >, COMDAT
; ___p$ = eax
; ___val$ = ecx

; 118  : #if defined (_STLP_DEBUG_UNINITIALIZED)
; 119  :   memset((char*)__p, _STLP_SHRED_BYTE, sizeof(_T1));
; 120  : #endif
; 121  :   _STLP_PLACEMENT_NEW (__p) _T1(__val);

	test	eax, eax
	je	SHORT $LN3@Param_Cons@10
	mov	edx, DWORD PTR [ecx]
	mov	DWORD PTR [eax], edx
	mov	edx, DWORD PTR [ecx+4]
	mov	DWORD PTR [eax+4], edx
	mov	ecx, DWORD PTR [ecx+8]
	mov	DWORD PTR [eax+8], ecx
$LN3@Param_Cons@10:

; 122  : }

	ret	0
??$_Param_Construct@U?$_vector3@M@@U1@@stlp_std@@YAXPAU?$_vector3@M@@ABU1@@Z ENDP ; stlp_std::_Param_Construct<_vector3<float>,_vector3<float> >
; Function compile flags: /Ogtpy
; File d:\clearsky\sources\sdk\include\stlport\stl\_algo.c
_TEXT	ENDS
;	COMDAT ??$__linear_insert@PAPAVCEnvDescriptor@@PAV1@P6A_NPBV1@0@Z@priv@stlp_std@@YAXPAPAVCEnvDescriptor@@0PAV2@P6A_NPBV2@2@Z@Z
_TEXT	SEGMENT
___comp$ = 8						; size = 4
??$__linear_insert@PAPAVCEnvDescriptor@@PAV1@P6A_NPBV1@0@Z@priv@stlp_std@@YAXPAPAVCEnvDescriptor@@0PAV2@P6A_NPBV2@2@Z@Z PROC ; stlp_std::priv::__linear_insert<CEnvDescriptor * *,CEnvDescriptor *,bool (__cdecl*)(CEnvDescriptor const *,CEnvDescriptor const *)>, COMDAT
; ___first$ = edi
; ___last$ = ecx
; ___val$ = eax

; 910  :                             _RandomAccessIter __last, _Tp __val, _Compare __comp) {

	push	ebx
	push	ebp
	mov	ebp, DWORD PTR ___comp$[esp+4]
	mov	ebx, eax

; 911  :   //*TY 12/26/1998 - added __val as a paramter
; 912  :   //  _Tp __val = *__last;        //*TY 12/26/1998 - __val supplied by caller
; 913  :   if (__comp(__val, *__first)) {

	mov	eax, DWORD PTR [edi]
	push	esi
	push	eax
	push	ebx
	mov	esi, ecx
	call	ebp
	add	esp, 8
	test	al, al

; 914  :     _STLP_VERBOSE_ASSERT(!__comp(*__first, __val), _StlMsg_INVALID_STRICT_WEAK_PREDICATE)
; 915  :     copy_backward(__first, __last, __last + 1);

	mov	eax, esi
	je	SHORT $LN2@linear_ins@5
	sub	eax, edi
	test	eax, eax
	jle	SHORT $LN19@linear_ins@5
	push	eax
	sub	esi, eax
	push	edi
	add	esi, 4
	push	esi
	call	DWORD PTR __imp__memmove
	add	esp, 12					; 0000000cH
$LN19@linear_ins@5:
	pop	esi
	pop	ebp

; 916  :     *__first = __val;

	mov	DWORD PTR [edi], ebx
	pop	ebx

; 920  : }

	ret	0
$LN2@linear_ins@5:

; 917  :   }
; 918  :   else
; 919  :     __unguarded_linear_insert(__last, __val, __comp);

	push	ebp
	call	??$__unguarded_linear_insert@PAPAVCEnvDescriptor@@PAV1@P6A_NPBV1@0@Z@priv@stlp_std@@YAXPAPAVCEnvDescriptor@@PAV2@P6A_NPBV2@2@Z@Z ; stlp_std::priv::__unguarded_linear_insert<CEnvDescriptor * *,CEnvDescriptor *,bool (__cdecl*)(CEnvDescriptor const *,CEnvDescriptor const *)>
	add	esp, 4
	pop	esi
	pop	ebp
	pop	ebx

; 920  : }

	ret	0
??$__linear_insert@PAPAVCEnvDescriptor@@PAV1@P6A_NPBV1@0@Z@priv@stlp_std@@YAXPAPAVCEnvDescriptor@@0PAV2@P6A_NPBV2@2@Z@Z ENDP ; stlp_std::priv::__linear_insert<CEnvDescriptor * *,CEnvDescriptor *,bool (__cdecl*)(CEnvDescriptor const *,CEnvDescriptor const *)>
; Function compile flags: /Ogtpy
_TEXT	ENDS
;	COMDAT ??$__partial_sort@PAPAVCEnvDescriptor@@PAV1@P6A_NPBV1@0@Z@priv@stlp_std@@YAXPAPAVCEnvDescriptor@@000P6A_NPBV2@1@Z@Z
_TEXT	SEGMENT
___middle$ = 8						; size = 4
___last$ = 12						; size = 4
??$__partial_sort@PAPAVCEnvDescriptor@@PAV1@P6A_NPBV1@0@Z@priv@stlp_std@@YAXPAPAVCEnvDescriptor@@000P6A_NPBV2@1@Z@Z PROC ; stlp_std::priv::__partial_sort<CEnvDescriptor * *,CEnvDescriptor *,bool (__cdecl*)(CEnvDescriptor const *,CEnvDescriptor const *)>, COMDAT
; ___first$ = eax
; ___comp$ = ebx

; 1209 :                     _RandomAccessIter __last, _Tp*, _Compare __comp) {

	push	ebp
	mov	ebp, DWORD PTR ___middle$[esp]
	push	esi
	push	edi
	mov	edi, eax

; 1210 :   make_heap(__first, __middle, __comp);

	push	ebx
	mov	eax, ebp
	call	??$make_heap@PAPAVCEnvDescriptor@@P6A_NPBV1@0@Z@stlp_std@@YAXPAPAVCEnvDescriptor@@0P6A_NPBV1@1@Z@Z ; stlp_std::make_heap<CEnvDescriptor * *,bool (__cdecl*)(CEnvDescriptor const *,CEnvDescriptor const *)>
	add	esp, 4

; 1211 :   for (_RandomAccessIter __i = __middle; __i < __last; ++__i) {

	cmp	ebp, DWORD PTR ___last$[esp+8]
	mov	esi, ebp
	jae	SHORT $LN2@partial_so@3
	npad	4
$LL4@partial_so@3:

; 1212 :     if (__comp(*__i, *__first)) {

	mov	eax, DWORD PTR [edi]
	mov	ecx, DWORD PTR [esi]
	push	eax
	push	ecx
	call	ebx
	add	esp, 8
	test	al, al
	je	SHORT $LN3@partial_so@3

; 1213 :       _STLP_VERBOSE_ASSERT(!__comp(*__first, *__i), _StlMsg_INVALID_STRICT_WEAK_PREDICATE)
; 1214 :       __pop_heap(__first, __middle, __i, _Tp(*__i), __comp,
; 1215 :                  _STLP_DISTANCE_TYPE(__first, _RandomAccessIter));

	mov	eax, DWORD PTR [esi]
	mov	edx, DWORD PTR [edi]
	push	ebx
	push	eax
	mov	eax, ebp
	sub	eax, edi
	sar	eax, 2
	push	eax
	xor	eax, eax
	mov	ecx, edi
	mov	DWORD PTR [esi], edx
	call	??$__adjust_heap@PAPAVCEnvDescriptor@@HPAV1@P6A_NPBV1@0@Z@stlp_std@@YAXPAPAVCEnvDescriptor@@HHPAV1@P6A_NPBV1@2@Z@Z ; stlp_std::__adjust_heap<CEnvDescriptor * *,int,CEnvDescriptor *,bool (__cdecl*)(CEnvDescriptor const *,CEnvDescriptor const *)>
	add	esp, 12					; 0000000cH
$LN3@partial_so@3:
	add	esi, 4
	cmp	esi, DWORD PTR ___last$[esp+8]
	jb	SHORT $LL4@partial_so@3
$LN2@partial_so@3:

; 1216 :     }
; 1217 :   }
; 1218 :   sort_heap(__first, __middle, __comp);

	sub	ebp, edi
	mov	ecx, ebp
	and	ecx, -4					; fffffffcH
	cmp	ecx, 4
	jle	SHORT $LN9@partial_so@3
	mov	eax, ebp
$LL10@partial_so@3:
	mov	ecx, DWORD PTR [edi+eax-4]
	mov	edx, DWORD PTR [edi]
	lea	esi, DWORD PTR [eax-4]
	mov	DWORD PTR [edi+eax-4], edx
	push	ebx
	push	ecx
	mov	eax, esi
	sar	eax, 2
	push	eax
	xor	eax, eax
	mov	ecx, edi
	call	??$__adjust_heap@PAPAVCEnvDescriptor@@HPAV1@P6A_NPBV1@0@Z@stlp_std@@YAXPAPAVCEnvDescriptor@@HHPAV1@P6A_NPBV1@2@Z@Z ; stlp_std::__adjust_heap<CEnvDescriptor * *,int,CEnvDescriptor *,bool (__cdecl*)(CEnvDescriptor const *,CEnvDescriptor const *)>
	mov	eax, esi
	mov	ecx, esi
	and	ecx, -4					; fffffffcH
	add	esp, 12					; 0000000cH
	cmp	ecx, 4
	jg	SHORT $LL10@partial_so@3
$LN9@partial_so@3:
	pop	edi
	pop	esi
	pop	ebp

; 1219 : }

	ret	0
??$__partial_sort@PAPAVCEnvDescriptor@@PAV1@P6A_NPBV1@0@Z@priv@stlp_std@@YAXPAPAVCEnvDescriptor@@000P6A_NPBV2@1@Z@Z ENDP ; stlp_std::priv::__partial_sort<CEnvDescriptor * *,CEnvDescriptor *,bool (__cdecl*)(CEnvDescriptor const *,CEnvDescriptor const *)>
; Function compile flags: /Ogtpy
; File d:\clearsky\sources\sdk\include\stlport\stl\_uninitialized.h
_TEXT	ENDS
;	COMDAT ??$__ufill@PAMMH@priv@stlp_std@@YAXPAM0ABMABUrandom_access_iterator_tag@1@PAH@Z
_TEXT	SEGMENT
??$__ufill@PAMMH@priv@stlp_std@@YAXPAM0ABMABUrandom_access_iterator_tag@1@PAH@Z PROC ; stlp_std::priv::__ufill<float *,float,int>, COMDAT
; ___first$ = eax
; ___last$ = ecx
; ___x$ = edi

; 247  :   _ForwardIter __cur = __first;
; 248  :   _STLP_TRY {
; 249  :     for (_Distance __n = __last - __first; __n > 0; --__n, ++__cur)

	sub	ecx, eax
	sar	ecx, 2
	cmp	ecx, 4
	mov	edx, ecx
	jl	SHORT $LC15@ufill@6
	push	esi
	lea	esi, DWORD PTR [edx-4]
	shr	esi, 2
	add	esi, 1
	mov	ecx, esi
	neg	ecx
	lea	edx, DWORD PTR [edx+ecx*4]
	npad	3
$LL24@ufill@6:

; 250  :       _Param_Construct(&*__cur, __x);

	test	eax, eax
	je	SHORT $LN16@ufill@6
	fld	DWORD PTR [edi]
	fstp	DWORD PTR [eax]
$LN16@ufill@6:
	lea	ecx, DWORD PTR [eax+4]
	test	ecx, ecx
	je	SHORT $LN18@ufill@6
	fld	DWORD PTR [edi]
	fstp	DWORD PTR [ecx]
$LN18@ufill@6:
	cmp	eax, -8					; fffffff8H
	je	SHORT $LN20@ufill@6
	fld	DWORD PTR [edi]
	fstp	DWORD PTR [eax+8]
$LN20@ufill@6:
	lea	ecx, DWORD PTR [eax+12]
	test	ecx, ecx
	je	SHORT $LN22@ufill@6
	fld	DWORD PTR [edi]
	fstp	DWORD PTR [ecx]
$LN22@ufill@6:
	add	eax, 16					; 00000010H
	sub	esi, 1
	jne	SHORT $LL24@ufill@6
	pop	esi
$LC15@ufill@6:

; 247  :   _ForwardIter __cur = __first;
; 248  :   _STLP_TRY {
; 249  :     for (_Distance __n = __last - __first; __n > 0; --__n, ++__cur)

	test	edx, edx
	jle	SHORT $LN14@ufill@6
$LC3@ufill@6:

; 250  :       _Param_Construct(&*__cur, __x);

	test	eax, eax
	je	SHORT $LN2@ufill@6
	fld	DWORD PTR [edi]
	fstp	DWORD PTR [eax]
$LN2@ufill@6:
	sub	edx, 1
	add	eax, 4
	test	edx, edx
	jg	SHORT $LC3@ufill@6
$LN14@ufill@6:

; 251  :   }
; 252  :   _STLP_UNWIND(_STLP_STD::_Destroy_Range(__first, __cur))
; 253  : }

	ret	0
??$__ufill@PAMMH@priv@stlp_std@@YAXPAM0ABMABUrandom_access_iterator_tag@1@PAH@Z ENDP ; stlp_std::priv::__ufill<float *,float,int>
; Function compile flags: /Ogtpy
_TEXT	ENDS
;	COMDAT ??$__ufill@PAGGH@priv@stlp_std@@YAXPAG0ABGABUrandom_access_iterator_tag@1@PAH@Z
_TEXT	SEGMENT
??$__ufill@PAGGH@priv@stlp_std@@YAXPAG0ABGABUrandom_access_iterator_tag@1@PAH@Z PROC ; stlp_std::priv::__ufill<unsigned short *,unsigned short,int>, COMDAT
; ___first$ = ecx
; ___last$ = eax
; ___x$ = edx

; 247  :   _ForwardIter __cur = __first;
; 248  :   _STLP_TRY {
; 249  :     for (_Distance __n = __last - __first; __n > 0; --__n, ++__cur)

	sub	eax, ecx
	sar	eax, 1
	test	eax, eax
	jle	SHORT $LN1@ufill@7
	push	esi
	npad	7
$LL3@ufill@7:

; 250  :       _Param_Construct(&*__cur, __x);

	test	ecx, ecx
	je	SHORT $LN2@ufill@7
	mov	si, WORD PTR [edx]
	mov	WORD PTR [ecx], si
$LN2@ufill@7:
	sub	eax, 1
	add	ecx, 2
	test	eax, eax
	jg	SHORT $LL3@ufill@7
	pop	esi
$LN1@ufill@7:

; 251  :   }
; 252  :   _STLP_UNWIND(_STLP_STD::_Destroy_Range(__first, __cur))
; 253  : }

	ret	0
??$__ufill@PAGGH@priv@stlp_std@@YAXPAG0ABGABUrandom_access_iterator_tag@1@PAH@Z ENDP ; stlp_std::priv::__ufill<unsigned short *,unsigned short,int>
; Function compile flags: /Ogtpy
_TEXT	ENDS
;	COMDAT ??$__ufill@PAU?$_vector3@M@@U1@H@priv@stlp_std@@YAXPAU?$_vector3@M@@0ABU2@ABUrandom_access_iterator_tag@1@PAH@Z
_TEXT	SEGMENT
??$__ufill@PAU?$_vector3@M@@U1@H@priv@stlp_std@@YAXPAU?$_vector3@M@@0ABU2@ABUrandom_access_iterator_tag@1@PAH@Z PROC ; stlp_std::priv::__ufill<_vector3<float> *,_vector3<float>,int>, COMDAT
; ___first$ = ecx
; ___last$ = eax
; ___x$ = esi

; 247  :   _ForwardIter __cur = __first;
; 248  :   _STLP_TRY {
; 249  :     for (_Distance __n = __last - __first; __n > 0; --__n, ++__cur)

	sub	eax, ecx
	mov	edx, eax
	mov	eax, 715827883				; 2aaaaaabH
	imul	edx
	sar	edx, 1
	mov	eax, edx
	shr	eax, 31					; 0000001fH
	add	eax, edx
	test	eax, eax
	jle	SHORT $LN1@ufill@8
$LL3@ufill@8:

; 250  :       _Param_Construct(&*__cur, __x);

	test	ecx, ecx
	je	SHORT $LN2@ufill@8
	mov	edx, DWORD PTR [esi]
	mov	DWORD PTR [ecx], edx
	mov	edx, DWORD PTR [esi+4]
	mov	DWORD PTR [ecx+4], edx
	mov	edx, DWORD PTR [esi+8]
	mov	DWORD PTR [ecx+8], edx
$LN2@ufill@8:
	sub	eax, 1
	add	ecx, 12					; 0000000cH
	test	eax, eax
	jg	SHORT $LL3@ufill@8
$LN1@ufill@8:

; 251  :   }
; 252  :   _STLP_UNWIND(_STLP_STD::_Destroy_Range(__first, __cur))
; 253  : }

	ret	0
??$__ufill@PAU?$_vector3@M@@U1@H@priv@stlp_std@@YAXPAU?$_vector3@M@@0ABU2@ABUrandom_access_iterator_tag@1@PAH@Z ENDP ; stlp_std::priv::__ufill<_vector3<float> *,_vector3<float>,int>
; Function compile flags: /Ogtpy
; File d:\clearsky\sources\sdk\include\stlport\stl\_tree.h
_TEXT	ENDS
;	COMDAT ?_S_key@?$_Rb_tree@Vshared_str@@Ustr_pred@CEnvironment@@U?$pair@$$CBVshared_str@@V?$xr_vector@PAVCEnvDescriptor@@V?$xalloc@PAVCEnvDescriptor@@@@@@@stlp_std@@U?$_Select1st@U?$pair@$$CBVshared_str@@V?$xr_vector@PAVCEnvDescriptor@@V?$xalloc@PAVCEnvDescriptor@@@@@@@stlp_std@@@priv@5@U?$_MapTraitsT@U?$pair@$$CBVshared_str@@V?$xr_vector@PAVCEnvDescriptor@@V?$xalloc@PAVCEnvDescriptor@@@@@@@stlp_std@@@75@V?$xalloc@U?$pair@Vshared_str@@V?$xr_vector@PAVCEnvDescriptor@@V?$xalloc@PAVCEnvDescriptor@@@@@@@stlp_std@@@@@priv@stlp_std@@KAABVshared_str@@PAU_Rb_tree_node_base@23@@Z
_TEXT	SEGMENT
?_S_key@?$_Rb_tree@Vshared_str@@Ustr_pred@CEnvironment@@U?$pair@$$CBVshared_str@@V?$xr_vector@PAVCEnvDescriptor@@V?$xalloc@PAVCEnvDescriptor@@@@@@@stlp_std@@U?$_Select1st@U?$pair@$$CBVshared_str@@V?$xr_vector@PAVCEnvDescriptor@@V?$xalloc@PAVCEnvDescriptor@@@@@@@stlp_std@@@priv@5@U?$_MapTraitsT@U?$pair@$$CBVshared_str@@V?$xr_vector@PAVCEnvDescriptor@@V?$xalloc@PAVCEnvDescriptor@@@@@@@stlp_std@@@75@V?$xalloc@U?$pair@Vshared_str@@V?$xr_vector@PAVCEnvDescriptor@@V?$xalloc@PAVCEnvDescriptor@@@@@@@stlp_std@@@@@priv@stlp_std@@KAABVshared_str@@PAU_Rb_tree_node_base@23@@Z PROC ; stlp_std::priv::_Rb_tree<shared_str,CEnvironment::str_pred,stlp_std::pair<shared_str const ,xr_vector<CEnvDescriptor *,xalloc<CEnvDescriptor *> > >,stlp_std::priv::_Select1st<stlp_std::pair<shared_str const ,xr_vector<CEnvDescriptor *,xalloc<CEnvDescriptor *> > > >,stlp_std::priv::_MapTraitsT<stlp_std::pair<shared_str const ,xr_vector<CEnvDescriptor *,xalloc<CEnvDescriptor *> > > >,xalloc<stlp_std::pair<shared_str,xr_vector<CEnvDescriptor *,xalloc<CEnvDescriptor *> > > > >::_S_key, COMDAT
; ___x$ = eax

; 354  :   { return _KeyOfValue()(_S_value(__x));}

	push	eax
	call	?_S_value@?$_Rb_tree@Vshared_str@@Ustr_pred@CEnvironment@@U?$pair@$$CBVshared_str@@V?$xr_vector@PAVCEnvDescriptor@@V?$xalloc@PAVCEnvDescriptor@@@@@@@stlp_std@@U?$_Select1st@U?$pair@$$CBVshared_str@@V?$xr_vector@PAVCEnvDescriptor@@V?$xalloc@PAVCEnvDescriptor@@@@@@@stlp_std@@@priv@5@U?$_MapTraitsT@U?$pair@$$CBVshared_str@@V?$xr_vector@PAVCEnvDescriptor@@V?$xalloc@PAVCEnvDescriptor@@@@@@@stlp_std@@@75@V?$xalloc@U?$pair@Vshared_str@@V?$xr_vector@PAVCEnvDescriptor@@V?$xalloc@PAVCEnvDescriptor@@@@@@@stlp_std@@@@@priv@stlp_std@@KAAAU?$pair@$$CBVshared_str@@V?$xr_vector@PAVCEnvDescriptor@@V?$xalloc@PAVCEnvDescriptor@@@@@@@3@PAU_Rb_tree_node_base@23@@Z ; stlp_std::priv::_Rb_tree<shared_str,CEnvironment::str_pred,stlp_std::pair<shared_str const ,xr_vector<CEnvDescriptor *,xalloc<CEnvDescriptor *> > >,stlp_std::priv::_Select1st<stlp_std::pair<shared_str const ,xr_vector<CEnvDescriptor *,xalloc<CEnvDescriptor *> > > >,stlp_std::priv::_MapTraitsT<stlp_std::pair<shared_str const ,xr_vector<CEnvDescriptor *,xalloc<CEnvDescriptor *> > > >,xalloc<stlp_std::pair<shared_str,xr_vector<CEnvDescriptor *,xalloc<CEnvDescriptor *> > > > >::_S_value
	add	esp, 4
	ret	0
?_S_key@?$_Rb_tree@Vshared_str@@Ustr_pred@CEnvironment@@U?$pair@$$CBVshared_str@@V?$xr_vector@PAVCEnvDescriptor@@V?$xalloc@PAVCEnvDescriptor@@@@@@@stlp_std@@U?$_Select1st@U?$pair@$$CBVshared_str@@V?$xr_vector@PAVCEnvDescriptor@@V?$xalloc@PAVCEnvDescriptor@@@@@@@stlp_std@@@priv@5@U?$_MapTraitsT@U?$pair@$$CBVshared_str@@V?$xr_vector@PAVCEnvDescriptor@@V?$xalloc@PAVCEnvDescriptor@@@@@@@stlp_std@@@75@V?$xalloc@U?$pair@Vshared_str@@V?$xr_vector@PAVCEnvDescriptor@@V?$xalloc@PAVCEnvDescriptor@@@@@@@stlp_std@@@@@priv@stlp_std@@KAABVshared_str@@PAU_Rb_tree_node_base@23@@Z ENDP ; stlp_std::priv::_Rb_tree<shared_str,CEnvironment::str_pred,stlp_std::pair<shared_str const ,xr_vector<CEnvDescriptor *,xalloc<CEnvDescriptor *> > >,stlp_std::priv::_Select1st<stlp_std::pair<shared_str const ,xr_vector<CEnvDescriptor *,xalloc<CEnvDescriptor *> > > >,stlp_std::priv::_MapTraitsT<stlp_std::pair<shared_str const ,xr_vector<CEnvDescriptor *,xalloc<CEnvDescriptor *> > > >,xalloc<stlp_std::pair<shared_str,xr_vector<CEnvDescriptor *,xalloc<CEnvDescriptor *> > > > >::_S_key
; Function compile flags: /Ogtpy
; File d:\clearsky\sources\sdk\include\stlport\stl\_algo.c
_TEXT	ENDS
;	COMDAT ??$__insertion_sort@PAPAVCEnvDescriptor@@PAV1@P6A_NPBV1@0@Z@priv@stlp_std@@YAXPAPAVCEnvDescriptor@@00P6A_NPBV2@1@Z@Z
_TEXT	SEGMENT
tv210 = -4						; size = 4
___first$ = 8						; size = 4
___last$ = 12						; size = 4
___comp$ = 16						; size = 4
??$__insertion_sort@PAPAVCEnvDescriptor@@PAV1@P6A_NPBV1@0@Z@priv@stlp_std@@YAXPAPAVCEnvDescriptor@@00P6A_NPBV2@1@Z@Z PROC ; stlp_std::priv::__insertion_sort<CEnvDescriptor * *,CEnvDescriptor *,bool (__cdecl*)(CEnvDescriptor const *,CEnvDescriptor const *)>, COMDAT

; 925  :                       _Tp *, _Compare __comp) {

	push	ecx
	push	ebp
	push	edi

; 926  :   if (__first == __last) return;
; 927  :   for (_RandomAccessIter __i = __first + 1; __i != __last; ++__i)

	mov	edi, DWORD PTR ___first$[esp+8]
	lea	ebp, DWORD PTR [edi+4]
	cmp	ebp, DWORD PTR ___last$[esp+8]
	je	$LN1@insertion_@5
	push	ebx
	push	esi
	mov	esi, ebp
	sub	esi, edi
	mov	DWORD PTR tv210[esp+20], esi
	npad	2
$LL3@insertion_@5:

; 928  :     __linear_insert<_RandomAccessIter, _Tp, _Compare>(__first, __i, *__i, __comp);  //*TY 12/26/1998 - supply *__i as __val

	mov	eax, DWORD PTR [edi]
	mov	ebx, DWORD PTR [ebp]
	push	eax
	push	ebx
	call	DWORD PTR ___comp$[esp+24]
	add	esp, 8
	test	al, al
	je	SHORT $LN12@insertion_@5
	test	esi, esi
	jle	SHORT $LN39@insertion_@5
	mov	ecx, ebp
	push	esi
	sub	ecx, esi
	add	ecx, 4
	push	edi
	push	ecx
	call	DWORD PTR __imp__memmove
	add	esp, 12					; 0000000cH
$LN39@insertion_@5:
	mov	DWORD PTR [edi], ebx
	jmp	SHORT $LN2@insertion_@5
$LN12@insertion_@5:
	mov	edx, DWORD PTR ___first$[esp+16]
	mov	eax, DWORD PTR [edx+esi-4]
	lea	esi, DWORD PTR [edx+esi-4]
	push	eax
	push	ebx
	mov	edi, ebp
	call	DWORD PTR ___comp$[esp+24]
	add	esp, 8
	test	al, al
	je	SHORT $LN31@insertion_@5
$LL32@insertion_@5:
	mov	ecx, DWORD PTR [esi]
	mov	DWORD PTR [edi], ecx
	mov	edx, DWORD PTR [esi-4]
	mov	edi, esi
	sub	esi, 4
	push	edx
	push	ebx
	call	DWORD PTR ___comp$[esp+24]
	add	esp, 8
	test	al, al
	jne	SHORT $LL32@insertion_@5
$LN31@insertion_@5:
	mov	esi, DWORD PTR tv210[esp+20]
	mov	DWORD PTR [edi], ebx
	mov	edi, DWORD PTR ___first$[esp+16]
$LN2@insertion_@5:
	add	ebp, 4
	add	esi, 4
	cmp	ebp, DWORD PTR ___last$[esp+16]
	mov	DWORD PTR tv210[esp+20], esi
	jne	SHORT $LL3@insertion_@5
	pop	esi
	pop	ebx
$LN1@insertion_@5:
	pop	edi
	pop	ebp

; 929  : }

	pop	ecx
	ret	0
??$__insertion_sort@PAPAVCEnvDescriptor@@PAV1@P6A_NPBV1@0@Z@priv@stlp_std@@YAXPAPAVCEnvDescriptor@@00P6A_NPBV2@1@Z@Z ENDP ; stlp_std::priv::__insertion_sort<CEnvDescriptor * *,CEnvDescriptor *,bool (__cdecl*)(CEnvDescriptor const *,CEnvDescriptor const *)>
; Function compile flags: /Ogtpy
_TEXT	ENDS
;	COMDAT ??$partial_sort@PAPAVCEnvDescriptor@@P6A_NPBV1@0@Z@stlp_std@@YAXPAPAVCEnvDescriptor@@00P6A_NPBV1@1@Z@Z
_TEXT	SEGMENT
___first$ = 8						; size = 4
??$partial_sort@PAPAVCEnvDescriptor@@P6A_NPBV1@0@Z@stlp_std@@YAXPAPAVCEnvDescriptor@@00P6A_NPBV1@1@Z@Z PROC ; stlp_std::partial_sort<CEnvDescriptor * *,bool (__cdecl*)(CEnvDescriptor const *,CEnvDescriptor const *)>, COMDAT
; ___middle$ = ecx
; ___last$ = eax
; ___comp$ = ebx

; 1235 :   _STLP_DEBUG_CHECK(_STLP_PRIV __check_range(__first, __middle))
; 1236 :   _STLP_DEBUG_CHECK(_STLP_PRIV __check_range(__middle, __last))
; 1237 :   _STLP_PRIV __partial_sort(__first, __middle, __last, _STLP_VALUE_TYPE(__first, _RandomAccessIter), __comp);

	push	eax
	mov	eax, DWORD PTR ___first$[esp]
	push	ecx
	call	??$__partial_sort@PAPAVCEnvDescriptor@@PAV1@P6A_NPBV1@0@Z@priv@stlp_std@@YAXPAPAVCEnvDescriptor@@000P6A_NPBV2@1@Z@Z ; stlp_std::priv::__partial_sort<CEnvDescriptor * *,CEnvDescriptor *,bool (__cdecl*)(CEnvDescriptor const *,CEnvDescriptor const *)>
	add	esp, 8

; 1238 : }

	ret	0
??$partial_sort@PAPAVCEnvDescriptor@@P6A_NPBV1@0@Z@stlp_std@@YAXPAPAVCEnvDescriptor@@00P6A_NPBV1@1@Z@Z ENDP ; stlp_std::partial_sort<CEnvDescriptor * *,bool (__cdecl*)(CEnvDescriptor const *,CEnvDescriptor const *)>
; Function compile flags: /Ogtpy
; File d:\clearsky\sources\sdk\include\stlport\stl\_uninitialized.h
_TEXT	ENDS
;	COMDAT ??$__uninitialized_fill_n@PAMIM@priv@stlp_std@@YAPAMPAMIABM@Z
_TEXT	SEGMENT
??$__uninitialized_fill_n@PAMIM@priv@stlp_std@@YAPAMPAMIABM@Z PROC ; stlp_std::priv::__uninitialized_fill_n<float *,unsigned int,float>, COMDAT
; ___first$ = eax
; ___n$ = ecx
; ___x$ = edi

; 313  : inline _ForwardIter __uninitialized_fill_n(_ForwardIter __first, _Size __n, const _Tp& __x) {

	push	esi

; 314  :   _ForwardIter __last = __first + __n;

	lea	esi, DWORD PTR [eax+ecx*4]

; 315  :   __ufill(__first, __last, __x, random_access_iterator_tag(), (ptrdiff_t*)0);

	mov	ecx, esi
	call	??$__ufill@PAMMH@priv@stlp_std@@YAXPAM0ABMABUrandom_access_iterator_tag@1@PAH@Z ; stlp_std::priv::__ufill<float *,float,int>

; 316  :   return __last;

	mov	eax, esi
	pop	esi

; 317  : }

	ret	0
??$__uninitialized_fill_n@PAMIM@priv@stlp_std@@YAPAMPAMIABM@Z ENDP ; stlp_std::priv::__uninitialized_fill_n<float *,unsigned int,float>
; Function compile flags: /Ogtpy
; File d:\clearsky\sources\sdk\include\stlport\stl\_algobase.h
_TEXT	ENDS
;	COMDAT ??$__copy_backward_ptrs@PAMPAM@priv@stlp_std@@YAPAMPAM00ABU__true_type@1@@Z
_TEXT	SEGMENT
??$__copy_backward_ptrs@PAMPAM@priv@stlp_std@@YAPAMPAM00ABU__true_type@1@@Z PROC ; stlp_std::priv::__copy_backward_ptrs<float *,float *>, COMDAT
; ___first$ = edx
; ___last$ = ecx
; ___result$ = eax

; 294  :   return (_OutputIter)__copy_trivial_backward(__first, __last, __result);

	sub	ecx, edx
	test	ecx, ecx
	jle	SHORT $LN6@copy_backw@29
	push	ecx
	push	edx
	sub	eax, ecx
	push	eax
	call	DWORD PTR __imp__memmove
	add	esp, 12					; 0000000cH
$LN6@copy_backw@29:

; 295  : }

	ret	0
??$__copy_backward_ptrs@PAMPAM@priv@stlp_std@@YAPAMPAM00ABU__true_type@1@@Z ENDP ; stlp_std::priv::__copy_backward_ptrs<float *,float *>
; Function compile flags: /Ogtpy
; File d:\clearsky\sources\sdk\include\stlport\stl\_uninitialized.h
_TEXT	ENDS
;	COMDAT ??$__ucopy_ptrs@PAMPAM@priv@stlp_std@@YAPAMPAM00ABU__true_type@1@@Z
_TEXT	SEGMENT
??$__ucopy_ptrs@PAMPAM@priv@stlp_std@@YAPAMPAM00ABU__true_type@1@@Z PROC ; stlp_std::priv::__ucopy_ptrs<float *,float *>, COMDAT
; ___first$ = ecx
; ___last$ = edx
; ___result$ = eax

; 117  :                                 const __true_type& /*TrivialUCopy*/) {

	push	esi
	mov	esi, edx

; 118  :   // we know they all pointers, so this cast is OK
; 119  :   //  return (_OutputIter)__copy_trivial(&(*__first), &(*__last), &(*__result));
; 120  :   return (_OutputIter)__ucopy_trivial(__first, __last, __result);

	cmp	esi, ecx
	je	SHORT $LN6@ucopy_ptrs@11
	sub	esi, ecx
	push	esi
	push	ecx
	push	eax
	call	_memcpy
	add	esp, 12					; 0000000cH
	add	eax, esi
$LN6@ucopy_ptrs@11:
	pop	esi

; 121  : }

	ret	0
??$__ucopy_ptrs@PAMPAM@priv@stlp_std@@YAPAMPAM00ABU__true_type@1@@Z ENDP ; stlp_std::priv::__ucopy_ptrs<float *,float *>
; Function compile flags: /Ogtpy
_TEXT	ENDS
;	COMDAT ??$__uninitialized_fill_n@PAGIG@priv@stlp_std@@YAPAGPAGIABG@Z
_TEXT	SEGMENT
??$__uninitialized_fill_n@PAGIG@priv@stlp_std@@YAPAGPAGIABG@Z PROC ; stlp_std::priv::__uninitialized_fill_n<unsigned short *,unsigned int,unsigned short>, COMDAT
; ___first$ = edx
; ___n$ = eax
; ___x$ = esi

; 314  :   _ForwardIter __last = __first + __n;

	lea	eax, DWORD PTR [edx+eax*2]

; 315  :   __ufill(__first, __last, __x, random_access_iterator_tag(), (ptrdiff_t*)0);

	mov	ecx, eax
	sub	ecx, edx
	sar	ecx, 1
	test	ecx, ecx
	jle	SHORT $LN3@uninitiali@5
	push	edi
	npad	2
$LL5@uninitiali@5:
	test	edx, edx
	je	SHORT $LN4@uninitiali@5
	mov	di, WORD PTR [esi]
	mov	WORD PTR [edx], di
$LN4@uninitiali@5:
	sub	ecx, 1
	add	edx, 2
	test	ecx, ecx
	jg	SHORT $LL5@uninitiali@5
	pop	edi
$LN3@uninitiali@5:

; 316  :   return __last;
; 317  : }

	ret	0
??$__uninitialized_fill_n@PAGIG@priv@stlp_std@@YAPAGPAGIABG@Z ENDP ; stlp_std::priv::__uninitialized_fill_n<unsigned short *,unsigned int,unsigned short>
; Function compile flags: /Ogtpy
; File d:\clearsky\sources\sdk\include\stlport\stl\_algobase.h
_TEXT	ENDS
;	COMDAT ??$__copy_backward_ptrs@PAGPAG@priv@stlp_std@@YAPAGPAG00ABU__true_type@1@@Z
_TEXT	SEGMENT
??$__copy_backward_ptrs@PAGPAG@priv@stlp_std@@YAPAGPAG00ABU__true_type@1@@Z PROC ; stlp_std::priv::__copy_backward_ptrs<unsigned short *,unsigned short *>, COMDAT
; ___first$ = edx
; ___last$ = ecx
; ___result$ = eax

; 294  :   return (_OutputIter)__copy_trivial_backward(__first, __last, __result);

	sub	ecx, edx
	test	ecx, ecx
	jle	SHORT $LN6@copy_backw@30
	push	ecx
	push	edx
	sub	eax, ecx
	push	eax
	call	DWORD PTR __imp__memmove
	add	esp, 12					; 0000000cH
$LN6@copy_backw@30:

; 295  : }

	ret	0
??$__copy_backward_ptrs@PAGPAG@priv@stlp_std@@YAPAGPAG00ABU__true_type@1@@Z ENDP ; stlp_std::priv::__copy_backward_ptrs<unsigned short *,unsigned short *>
; Function compile flags: /Ogtpy
; File d:\clearsky\sources\sdk\include\stlport\stl\_uninitialized.h
_TEXT	ENDS
;	COMDAT ??$__ucopy_ptrs@PAGPAG@priv@stlp_std@@YAPAGPAG00ABU__true_type@1@@Z
_TEXT	SEGMENT
??$__ucopy_ptrs@PAGPAG@priv@stlp_std@@YAPAGPAG00ABU__true_type@1@@Z PROC ; stlp_std::priv::__ucopy_ptrs<unsigned short *,unsigned short *>, COMDAT
; ___first$ = ecx
; ___last$ = edx
; ___result$ = eax

; 117  :                                 const __true_type& /*TrivialUCopy*/) {

	push	esi
	mov	esi, edx

; 118  :   // we know they all pointers, so this cast is OK
; 119  :   //  return (_OutputIter)__copy_trivial(&(*__first), &(*__last), &(*__result));
; 120  :   return (_OutputIter)__ucopy_trivial(__first, __last, __result);

	cmp	esi, ecx
	je	SHORT $LN6@ucopy_ptrs@12
	sub	esi, ecx
	push	esi
	push	ecx
	push	eax
	call	_memcpy
	add	esp, 12					; 0000000cH
	add	eax, esi
$LN6@ucopy_ptrs@12:
	pop	esi

; 121  : }

	ret	0
??$__ucopy_ptrs@PAGPAG@priv@stlp_std@@YAPAGPAG00ABU__true_type@1@@Z ENDP ; stlp_std::priv::__ucopy_ptrs<unsigned short *,unsigned short *>
; Function compile flags: /Ogtpy
_TEXT	ENDS
;	COMDAT ??$__uninitialized_fill_n@PAU?$_vector3@M@@IU1@@priv@stlp_std@@YAPAU?$_vector3@M@@PAU2@IABU2@@Z
_TEXT	SEGMENT
??$__uninitialized_fill_n@PAU?$_vector3@M@@IU1@@priv@stlp_std@@YAPAU?$_vector3@M@@PAU2@IABU2@@Z PROC ; stlp_std::priv::__uninitialized_fill_n<_vector3<float> *,unsigned int,_vector3<float> >, COMDAT
; ___first$ = ecx
; ___n$ = eax
; ___x$ = ebx

; 314  :   _ForwardIter __last = __first + __n;

	lea	eax, DWORD PTR [eax+eax*2]
	push	esi
	mov	esi, ecx
	push	edi
	lea	edi, DWORD PTR [esi+eax*4]

; 315  :   __ufill(__first, __last, __x, random_access_iterator_tag(), (ptrdiff_t*)0);

	mov	ecx, edi
	sub	ecx, esi
	mov	eax, 715827883				; 2aaaaaabH
	imul	ecx
	sar	edx, 1
	mov	eax, edx
	shr	eax, 31					; 0000001fH
	add	eax, edx
	test	eax, eax
	jle	SHORT $LN16@uninitiali@6
$LL5@uninitiali@6:
	test	esi, esi
	je	SHORT $LN4@uninitiali@6
	mov	ecx, DWORD PTR [ebx]
	mov	DWORD PTR [esi], ecx
	mov	edx, DWORD PTR [ebx+4]
	mov	DWORD PTR [esi+4], edx
	mov	ecx, DWORD PTR [ebx+8]
	mov	DWORD PTR [esi+8], ecx
$LN4@uninitiali@6:
	sub	eax, 1
	add	esi, 12					; 0000000cH
	test	eax, eax
	jg	SHORT $LL5@uninitiali@6
$LN16@uninitiali@6:

; 316  :   return __last;

	mov	eax, edi
	pop	edi
	pop	esi

; 317  : }

	ret	0
??$__uninitialized_fill_n@PAU?$_vector3@M@@IU1@@priv@stlp_std@@YAPAU?$_vector3@M@@PAU2@IABU2@@Z ENDP ; stlp_std::priv::__uninitialized_fill_n<_vector3<float> *,unsigned int,_vector3<float> >
; Function compile flags: /Ogtpy
; File d:\clearsky\sources\sdk\include\stlport\stl\_algobase.h
_TEXT	ENDS
;	COMDAT ??$__copy_backward_ptrs@PAU?$_vector3@M@@PAU1@@priv@stlp_std@@YAPAU?$_vector3@M@@PAU2@00ABU__true_type@1@@Z
_TEXT	SEGMENT
??$__copy_backward_ptrs@PAU?$_vector3@M@@PAU1@@priv@stlp_std@@YAPAU?$_vector3@M@@PAU2@00ABU__true_type@1@@Z PROC ; stlp_std::priv::__copy_backward_ptrs<_vector3<float> *,_vector3<float> *>, COMDAT
; ___first$ = edx
; ___last$ = ecx
; ___result$ = eax

; 294  :   return (_OutputIter)__copy_trivial_backward(__first, __last, __result);

	sub	ecx, edx
	test	ecx, ecx
	jle	SHORT $LN6@copy_backw@31
	push	ecx
	push	edx
	sub	eax, ecx
	push	eax
	call	DWORD PTR __imp__memmove
	add	esp, 12					; 0000000cH
$LN6@copy_backw@31:

; 295  : }

	ret	0
??$__copy_backward_ptrs@PAU?$_vector3@M@@PAU1@@priv@stlp_std@@YAPAU?$_vector3@M@@PAU2@00ABU__true_type@1@@Z ENDP ; stlp_std::priv::__copy_backward_ptrs<_vector3<float> *,_vector3<float> *>
; Function compile flags: /Ogtpy
; File d:\clearsky\sources\sdk\include\stlport\stl\_uninitialized.h
_TEXT	ENDS
;	COMDAT ??$__ucopy_ptrs@PAU?$_vector3@M@@PAU1@@priv@stlp_std@@YAPAU?$_vector3@M@@PAU2@00ABU__true_type@1@@Z
_TEXT	SEGMENT
??$__ucopy_ptrs@PAU?$_vector3@M@@PAU1@@priv@stlp_std@@YAPAU?$_vector3@M@@PAU2@00ABU__true_type@1@@Z PROC ; stlp_std::priv::__ucopy_ptrs<_vector3<float> *,_vector3<float> *>, COMDAT
; ___first$ = ecx
; ___last$ = edx
; ___result$ = eax

; 117  :                                 const __true_type& /*TrivialUCopy*/) {

	push	esi
	mov	esi, edx

; 118  :   // we know they all pointers, so this cast is OK
; 119  :   //  return (_OutputIter)__copy_trivial(&(*__first), &(*__last), &(*__result));
; 120  :   return (_OutputIter)__ucopy_trivial(__first, __last, __result);

	cmp	esi, ecx
	je	SHORT $LN6@ucopy_ptrs@13
	sub	esi, ecx
	push	esi
	push	ecx
	push	eax
	call	_memcpy
	add	esp, 12					; 0000000cH
	add	eax, esi
$LN6@ucopy_ptrs@13:
	pop	esi

; 121  : }

	ret	0
??$__ucopy_ptrs@PAU?$_vector3@M@@PAU1@@priv@stlp_std@@YAPAU?$_vector3@M@@PAU2@00ABU__true_type@1@@Z ENDP ; stlp_std::priv::__ucopy_ptrs<_vector3<float> *,_vector3<float> *>
; Function compile flags: /Ogtpy
; File d:\clearsky\sources\sdk\include\stlport\stl\_construct.h
_TEXT	ENDS
;	COMDAT ??$__destroy_range@V?$reverse_iterator@PAUParticle@CEffect_Rain@@@stlp_std@@UParticle@CEffect_Rain@@@stlp_std@@YAXV?$reverse_iterator@PAUParticle@CEffect_Rain@@@0@0PAUParticle@CEffect_Rain@@@Z
_TEXT	SEGMENT
___first$ = 8						; size = 4
___last$ = 12						; size = 4
??$__destroy_range@V?$reverse_iterator@PAUParticle@CEffect_Rain@@@stlp_std@@UParticle@CEffect_Rain@@@stlp_std@@YAXV?$reverse_iterator@PAUParticle@CEffect_Rain@@@0@0PAUParticle@CEffect_Rain@@@Z PROC ; stlp_std::__destroy_range<stlp_std::reverse_iterator<CEffect_Rain::Particle *>,CEffect_Rain::Particle>, COMDAT

; 175  :   typedef typename __type_traits<_Tp>::has_trivial_destructor _Trivial_destructor;
; 176  :   __destroy_range_aux(__first, __last, __ptr, _Trivial_destructor());
; 177  : }

	ret	0
??$__destroy_range@V?$reverse_iterator@PAUParticle@CEffect_Rain@@@stlp_std@@UParticle@CEffect_Rain@@@stlp_std@@YAXV?$reverse_iterator@PAUParticle@CEffect_Rain@@@0@0PAUParticle@CEffect_Rain@@@Z ENDP ; stlp_std::__destroy_range<stlp_std::reverse_iterator<CEffect_Rain::Particle *>,CEffect_Rain::Particle>
; Function compile flags: /Ogtpy
_TEXT	ENDS
;	COMDAT ??$__destroy_range@V?$reverse_iterator@PAUItem@CEffect_Rain@@@stlp_std@@UItem@CEffect_Rain@@@stlp_std@@YAXV?$reverse_iterator@PAUItem@CEffect_Rain@@@0@0PAUItem@CEffect_Rain@@@Z
_TEXT	SEGMENT
___first$ = 8						; size = 4
___last$ = 12						; size = 4
??$__destroy_range@V?$reverse_iterator@PAUItem@CEffect_Rain@@@stlp_std@@UItem@CEffect_Rain@@@stlp_std@@YAXV?$reverse_iterator@PAUItem@CEffect_Rain@@@0@0PAUItem@CEffect_Rain@@@Z PROC ; stlp_std::__destroy_range<stlp_std::reverse_iterator<CEffect_Rain::Item *>,CEffect_Rain::Item>, COMDAT

; 175  :   typedef typename __type_traits<_Tp>::has_trivial_destructor _Trivial_destructor;
; 176  :   __destroy_range_aux(__first, __last, __ptr, _Trivial_destructor());
; 177  : }

	ret	0
??$__destroy_range@V?$reverse_iterator@PAUItem@CEffect_Rain@@@stlp_std@@UItem@CEffect_Rain@@@stlp_std@@YAXV?$reverse_iterator@PAUItem@CEffect_Rain@@@0@0PAUItem@CEffect_Rain@@@Z ENDP ; stlp_std::__destroy_range<stlp_std::reverse_iterator<CEffect_Rain::Item *>,CEffect_Rain::Item>
; Function compile flags: /Ogtpy
_TEXT	ENDS
;	COMDAT ??$__destroy_range@V?$reverse_iterator@PAUrq_result@collide@@@stlp_std@@Urq_result@collide@@@stlp_std@@YAXV?$reverse_iterator@PAUrq_result@collide@@@0@0PAUrq_result@collide@@@Z
_TEXT	SEGMENT
___first$ = 8						; size = 4
___last$ = 12						; size = 4
??$__destroy_range@V?$reverse_iterator@PAUrq_result@collide@@@stlp_std@@Urq_result@collide@@@stlp_std@@YAXV?$reverse_iterator@PAUrq_result@collide@@@0@0PAUrq_result@collide@@@Z PROC ; stlp_std::__destroy_range<stlp_std::reverse_iterator<collide::rq_result *>,collide::rq_result>, COMDAT

; 175  :   typedef typename __type_traits<_Tp>::has_trivial_destructor _Trivial_destructor;
; 176  :   __destroy_range_aux(__first, __last, __ptr, _Trivial_destructor());
; 177  : }

	ret	0
??$__destroy_range@V?$reverse_iterator@PAUrq_result@collide@@@stlp_std@@Urq_result@collide@@@stlp_std@@YAXV?$reverse_iterator@PAUrq_result@collide@@@0@0PAUrq_result@collide@@@Z ENDP ; stlp_std::__destroy_range<stlp_std::reverse_iterator<collide::rq_result *>,collide::rq_result>
; Function compile flags: /Ogtpy
; File d:\clearsky\sources\sdk\include\stlport\stl\_algo.c
_TEXT	ENDS
;	COMDAT ??$__final_insertion_sort@PAPAVCEnvDescriptor@@P6A_NPBV1@0@Z@priv@stlp_std@@YAXPAPAVCEnvDescriptor@@0P6A_NPBV2@1@Z@Z
_TEXT	SEGMENT
??$__final_insertion_sort@PAPAVCEnvDescriptor@@P6A_NPBV1@0@Z@priv@stlp_std@@YAXPAPAVCEnvDescriptor@@0P6A_NPBV2@1@Z@Z PROC ; stlp_std::priv::__final_insertion_sort<CEnvDescriptor * *,bool (__cdecl*)(CEnvDescriptor const *,CEnvDescriptor const *)>, COMDAT
; ___first$ = eax
; ___last$ = edi
; ___comp$ = ebx

; 949  :   if (__last - __first > __stl_threshold) {

	mov	ecx, edi
	sub	ecx, eax
	and	ecx, -4					; fffffffcH
	cmp	ecx, 64					; 00000040H
	jle	SHORT $LN2@final_inse@5
	push	esi

; 950  :     __insertion_sort(__first, __first + __stl_threshold, _STLP_VALUE_TYPE(__first,_RandomAccessIter), __comp);

	lea	esi, DWORD PTR [eax+64]
	cmp	eax, esi
	je	SHORT $LN9@final_inse@5
	push	ebx
	push	esi
	push	eax
	call	??$__insertion_sort@PAPAVCEnvDescriptor@@PAV1@P6A_NPBV1@0@Z@priv@stlp_std@@YAXPAPAVCEnvDescriptor@@00P6A_NPBV2@1@Z@Z ; stlp_std::priv::__insertion_sort<CEnvDescriptor * *,CEnvDescriptor *,bool (__cdecl*)(CEnvDescriptor const *,CEnvDescriptor const *)>
	add	esp, 12					; 0000000cH
$LN9@final_inse@5:

; 951  :     __unguarded_insertion_sort(__first + __stl_threshold, __last, __comp);

	push	ebx
	push	edi
	push	esi
	call	??$__unguarded_insertion_sort_aux@PAPAVCEnvDescriptor@@PAV1@P6A_NPBV1@0@Z@priv@stlp_std@@YAXPAPAVCEnvDescriptor@@00P6A_NPBV2@1@Z@Z ; stlp_std::priv::__unguarded_insertion_sort_aux<CEnvDescriptor * *,CEnvDescriptor *,bool (__cdecl*)(CEnvDescriptor const *,CEnvDescriptor const *)>
	add	esp, 12					; 0000000cH
	pop	esi

; 955  : }

	ret	0
$LN2@final_inse@5:

; 952  :   }
; 953  :   else
; 954  :     __insertion_sort(__first, __last, _STLP_VALUE_TYPE(__first,_RandomAccessIter), __comp);

	cmp	eax, edi
	je	SHORT $LN21@final_inse@5
	push	ebx
	push	edi
	push	eax
	call	??$__insertion_sort@PAPAVCEnvDescriptor@@PAV1@P6A_NPBV1@0@Z@priv@stlp_std@@YAXPAPAVCEnvDescriptor@@00P6A_NPBV2@1@Z@Z ; stlp_std::priv::__insertion_sort<CEnvDescriptor * *,CEnvDescriptor *,bool (__cdecl*)(CEnvDescriptor const *,CEnvDescriptor const *)>
	add	esp, 12					; 0000000cH
$LN21@final_inse@5:

; 955  : }

	ret	0
??$__final_insertion_sort@PAPAVCEnvDescriptor@@P6A_NPBV1@0@Z@priv@stlp_std@@YAXPAPAVCEnvDescriptor@@0P6A_NPBV2@1@Z@Z ENDP ; stlp_std::priv::__final_insertion_sort<CEnvDescriptor * *,bool (__cdecl*)(CEnvDescriptor const *,CEnvDescriptor const *)>
; Function compile flags: /Ogtpy
_TEXT	ENDS
;	COMDAT ??$__introsort_loop@PAPAVCEnvDescriptor@@PAV1@HP6A_NPBV1@0@Z@priv@stlp_std@@YAXPAPAVCEnvDescriptor@@00HP6A_NPBV2@1@Z@Z
_TEXT	SEGMENT
___first$ = 8						; size = 4
$T253476 = 12						; size = 4
___last$ = 12						; size = 4
___formal$ = 16						; size = 4
___depth_limit$ = 20					; size = 4
___comp$ = 24						; size = 4
??$__introsort_loop@PAPAVCEnvDescriptor@@PAV1@HP6A_NPBV1@0@Z@priv@stlp_std@@YAXPAPAVCEnvDescriptor@@00HP6A_NPBV2@1@Z@Z PROC ; stlp_std::priv::__introsort_loop<CEnvDescriptor * *,CEnvDescriptor *,int,bool (__cdecl*)(CEnvDescriptor const *,CEnvDescriptor const *)>, COMDAT

; 960  :                       _Size __depth_limit, _Compare __comp) {

	push	ebp

; 961  :   while (__last - __first > __stl_threshold) {

	mov	ebp, DWORD PTR ___last$[esp]
	push	edi
	mov	edi, DWORD PTR ___first$[esp+4]
	mov	eax, ebp
	sub	eax, edi
	and	eax, -4					; fffffffcH
	cmp	eax, 64					; 00000040H
	jle	$LN2@introsort_@3
	push	ebx
	mov	ebx, DWORD PTR ___comp$[esp+8]
	push	esi
$LL3@introsort_@3:

; 962  :     if (__depth_limit == 0) {

	cmp	DWORD PTR ___depth_limit$[esp+12], 0
	je	$LN21@introsort_@3

; 964  :       return;
; 965  :     }
; 966  :     --__depth_limit;

	sub	DWORD PTR ___depth_limit$[esp+12], 1

; 967  :     _RandomAccessIter __cut =
; 968  :       __unguarded_partition(__first, __last,
; 969  :                             _Tp(__median(*__first,
; 970  :                                          *(__first + (__last - __first)/2),
; 971  :                                          *(__last - 1), __comp)),
; 972  :        __comp);

	mov	eax, ebp
	sub	eax, edi
	sar	eax, 2
	cdq
	sub	eax, edx
	mov	edx, DWORD PTR [edi]
	sar	eax, 1
	mov	ecx, DWORD PTR [edi+eax*4]
	lea	eax, DWORD PTR [edi+eax*4]
	push	ecx
	push	edx
	lea	esi, DWORD PTR [ebp-4]
	mov	DWORD PTR $T253476[esp+20], eax
	call	ebx
	add	esp, 8
	test	al, al
	je	SHORT $LN17@introsort_@3
	mov	eax, DWORD PTR [esi]
	mov	ecx, DWORD PTR $T253476[esp+12]
	mov	edx, DWORD PTR [ecx]
	push	eax
	push	edx
	call	ebx
	add	esp, 8
	test	al, al
	jne	SHORT $LN9@introsort_@3
	mov	eax, DWORD PTR [esi]
	mov	ecx, DWORD PTR [edi]
	push	eax
	push	ecx
	call	ebx
	add	esp, 8
	test	al, al
	jne	SHORT $LN8@introsort_@3
	mov	esi, edi
	jmp	SHORT $LN8@introsort_@3
$LN17@introsort_@3:
	mov	edx, DWORD PTR [esi]
	mov	eax, DWORD PTR [edi]
	push	edx
	push	eax
	call	ebx
	add	esp, 8
	test	al, al
	je	SHORT $LN11@introsort_@3
	mov	esi, edi
	jmp	SHORT $LN8@introsort_@3
$LN11@introsort_@3:
	mov	ecx, DWORD PTR [esi]
	mov	edx, DWORD PTR $T253476[esp+12]
	mov	eax, DWORD PTR [edx]
	push	ecx
	push	eax
	call	ebx
	add	esp, 8
	test	al, al
	jne	SHORT $LN8@introsort_@3
$LN9@introsort_@3:
	mov	esi, DWORD PTR $T253476[esp+12]
$LN8@introsort_@3:
	mov	ecx, DWORD PTR [esi]
	push	ecx
	mov	eax, ebp
	mov	ecx, edi
	call	??$__unguarded_partition@PAPAVCEnvDescriptor@@PAV1@P6A_NPBV1@0@Z@priv@stlp_std@@YAPAPAVCEnvDescriptor@@PAPAV2@0PAV2@P6A_NPBV2@2@Z@Z ; stlp_std::priv::__unguarded_partition<CEnvDescriptor * *,CEnvDescriptor *,bool (__cdecl*)(CEnvDescriptor const *,CEnvDescriptor const *)>

; 973  :     __introsort_loop(__cut, __last, (_Tp*) 0, __depth_limit, __comp);

	mov	edx, DWORD PTR ___depth_limit$[esp+16]
	push	ebx
	push	edx
	push	0
	mov	esi, eax
	push	ebp
	push	esi
	call	??$__introsort_loop@PAPAVCEnvDescriptor@@PAV1@HP6A_NPBV1@0@Z@priv@stlp_std@@YAXPAPAVCEnvDescriptor@@00HP6A_NPBV2@1@Z@Z ; stlp_std::priv::__introsort_loop<CEnvDescriptor * *,CEnvDescriptor *,int,bool (__cdecl*)(CEnvDescriptor const *,CEnvDescriptor const *)>

; 974  :     __last = __cut;

	mov	ebp, esi
	sub	esi, edi
	and	esi, -4					; fffffffcH
	add	esp, 24					; 00000018H
	cmp	esi, 64					; 00000040H
	jg	$LL3@introsort_@3
	pop	esi
	pop	ebx
	pop	edi
	pop	ebp

; 975  :   }
; 976  : }

	ret	0
$LN21@introsort_@3:

; 963  :       partial_sort(__first, __last, __last, __comp);

	push	ebp
	push	ebp
	mov	eax, edi
	call	??$__partial_sort@PAPAVCEnvDescriptor@@PAV1@P6A_NPBV1@0@Z@priv@stlp_std@@YAXPAPAVCEnvDescriptor@@000P6A_NPBV2@1@Z@Z ; stlp_std::priv::__partial_sort<CEnvDescriptor * *,CEnvDescriptor *,bool (__cdecl*)(CEnvDescriptor const *,CEnvDescriptor const *)>
	add	esp, 8
	pop	esi
	pop	ebx
$LN2@introsort_@3:
	pop	edi
	pop	ebp

; 975  :   }
; 976  : }

	ret	0
??$__introsort_loop@PAPAVCEnvDescriptor@@PAV1@HP6A_NPBV1@0@Z@priv@stlp_std@@YAXPAPAVCEnvDescriptor@@00HP6A_NPBV2@1@Z@Z ENDP ; stlp_std::priv::__introsort_loop<CEnvDescriptor * *,CEnvDescriptor *,int,bool (__cdecl*)(CEnvDescriptor const *,CEnvDescriptor const *)>
; Function compile flags: /Ogtpy
; File d:\clearsky\sources\sdk\include\stlport\stl\_vector.c
_TEXT	ENDS
;	COMDAT ?_M_fill_insert_aux@?$_Impl_vector@MV?$xalloc@M@@@priv@stlp_std@@AAEXPAMIABMABU__false_type@3@@Z
_TEXT	SEGMENT
___x_copy$139754 = -4					; size = 4
_this$ = -4						; size = 4
tv269 = 8						; size = 4
___last$253543 = 8					; size = 4
___pos$ = 8						; size = 4
___n$ = 12						; size = 4
$T253487 = 16						; size = 1
___x$ = 16						; size = 4
___formal$ = 20						; size = 4
?_M_fill_insert_aux@?$_Impl_vector@MV?$xalloc@M@@@priv@stlp_std@@AAEXPAMIABMABU__false_type@3@@Z PROC ; stlp_std::priv::_Impl_vector<float,xalloc<float> >::_M_fill_insert_aux, COMDAT
; _this$ = ecx

; 143  :                                               const _Tp& __x, const __false_type& /*_Movable*/) {

	push	ecx

; 144  :   //Here self referencing needs to be checked even for non movable types.
; 145  :   if (_M_is_inside(__x)) {

	mov	edx, DWORD PTR ___x$[esp]
	push	edi
	mov	edi, ecx
	cmp	edx, DWORD PTR [edi]
	mov	DWORD PTR _this$[esp+8], edi
	jb	SHORT $LN3@M_fill_ins@6
	cmp	edx, DWORD PTR [edi+4]
	jae	SHORT $LN3@M_fill_ins@6

; 146  :     _Tp __x_copy = __x;

	movss	xmm0, DWORD PTR [edx]

; 147  :     _M_fill_insert_aux(__pos, __n, __x_copy, __false_type());

	mov	edx, DWORD PTR ___n$[esp+4]
	lea	eax, DWORD PTR $T253487[esp+4]
	push	eax
	mov	eax, DWORD PTR ___pos$[esp+8]
	lea	ecx, DWORD PTR ___x_copy$139754[esp+12]
	push	ecx
	push	edx
	push	eax
	mov	ecx, edi
	movss	DWORD PTR ___x_copy$139754[esp+24], xmm0
	mov	BYTE PTR $T253487[esp+20], 0
	call	?_M_fill_insert_aux@?$_Impl_vector@MV?$xalloc@M@@@priv@stlp_std@@AAEXPAMIABMABU__false_type@3@@Z ; stlp_std::priv::_Impl_vector<float,xalloc<float> >::_M_fill_insert_aux
	pop	edi

; 162  :   }
; 163  : }

	pop	ecx
	ret	16					; 00000010H
$LN3@M_fill_ins@6:

; 148  :     return;
; 149  :   }
; 150  :   const size_type __elems_after = this->_M_finish - __pos;
; 151  :   pointer __old_finish = this->_M_finish;
; 152  :   if (__elems_after > __n) {

	mov	eax, DWORD PTR ___n$[esp+4]
	push	ebx
	mov	ebx, DWORD PTR ___pos$[esp+8]
	push	ebp
	push	esi
	mov	esi, DWORD PTR [edi+4]
	mov	ebp, esi
	sub	ebp, ebx
	sar	ebp, 2
	cmp	ebp, eax
	jbe	SHORT $LN2@M_fill_ins@6

; 153  :     _STLP_PRIV __ucopy_ptrs(this->_M_finish - __n, this->_M_finish, this->_M_finish, _TrivialUCopy());

	lea	ecx, DWORD PTR [eax*4]
	mov	ebp, esi
	sub	ebp, ecx
	cmp	esi, ebp
	mov	DWORD PTR tv269[esp+16], ecx
	je	SHORT $LN15@M_fill_ins@6
	mov	ecx, esi
	sub	ecx, ebp
	push	ecx
	push	ebp
	push	esi
	call	_memcpy
	mov	ecx, DWORD PTR tv269[esp+28]
	mov	edx, DWORD PTR ___x$[esp+28]
	add	esp, 12					; 0000000cH
$LN15@M_fill_ins@6:

; 154  :     this->_M_finish += __n;

	add	DWORD PTR [edi+4], ecx

; 155  :     _STLP_PRIV __copy_backward_ptrs(__pos, __old_finish - __n, __old_finish, _TrivialCopy());

	sub	ebp, ebx
	test	ebp, ebp
	jle	SHORT $LN20@M_fill_ins@6
	push	ebp
	push	ebx
	sub	esi, ebp
	push	esi
	call	DWORD PTR __imp__memmove
	mov	ecx, DWORD PTR tv269[esp+28]
	mov	edx, DWORD PTR ___x$[esp+28]
	add	esp, 12					; 0000000cH
$LN20@M_fill_ins@6:

; 156  :     _STLP_STD::fill(__pos, __pos + __n, __x);

	add	ecx, ebx
	cmp	ebx, ecx
	mov	eax, ebx
	je	SHORT $LN45@M_fill_ins@6
	npad	2
$LL24@M_fill_ins@6:
	fld	DWORD PTR [edx]
	add	eax, 4
	cmp	eax, ecx
	fstp	DWORD PTR [eax-4]
	jne	SHORT $LL24@M_fill_ins@6
	pop	esi
	pop	ebp
	pop	ebx
	pop	edi

; 162  :   }
; 163  : }

	pop	ecx
	ret	16					; 00000010H
$LN2@M_fill_ins@6:

; 157  :   } else {
; 158  :     this->_M_finish = _STLP_PRIV __uninitialized_fill_n(this->_M_finish, __n - __elems_after, __x);

	sub	eax, ebp
	lea	eax, DWORD PTR [esi+eax*4]
	mov	DWORD PTR ___last$253543[esp+16], eax
	mov	ecx, eax
	mov	edi, edx
	mov	eax, esi
	call	??$__ufill@PAMMH@priv@stlp_std@@YAXPAM0ABMABUrandom_access_iterator_tag@1@PAH@Z ; stlp_std::priv::__ufill<float *,float,int>

; 159  :     _STLP_PRIV __ucopy_ptrs(__pos, __old_finish, this->_M_finish, _TrivialUCopy());

	cmp	esi, ebx
	mov	eax, DWORD PTR ___last$253543[esp+16]
	mov	edi, DWORD PTR _this$[esp+20]
	mov	DWORD PTR [edi+4], eax
	je	SHORT $LN34@M_fill_ins@6
	mov	edx, esi
	sub	edx, ebx
	push	edx
	push	ebx
	push	eax
	call	_memcpy
	add	esp, 12					; 0000000cH
$LN34@M_fill_ins@6:

; 160  :     this->_M_finish += __elems_after;

	lea	eax, DWORD PTR [ebp*4]
	add	DWORD PTR [edi+4], eax

; 161  :     _STLP_STD::fill(__pos, __old_finish, __x);

	cmp	ebx, esi
	je	SHORT $LN45@M_fill_ins@6
$LL37@M_fill_ins@6:
	mov	ecx, DWORD PTR ___x$[esp+16]
	fld	DWORD PTR [ecx]
	add	ebx, 4
	cmp	ebx, esi
	fstp	DWORD PTR [ebx-4]
	jne	SHORT $LL37@M_fill_ins@6
$LN45@M_fill_ins@6:
	pop	esi
	pop	ebp
	pop	ebx
	pop	edi

; 162  :   }
; 163  : }

	pop	ecx
	ret	16					; 00000010H
?_M_fill_insert_aux@?$_Impl_vector@MV?$xalloc@M@@@priv@stlp_std@@AAEXPAMIABMABU__false_type@3@@Z ENDP ; stlp_std::priv::_Impl_vector<float,xalloc<float> >::_M_fill_insert_aux
; Function compile flags: /Ogtpy
; File d:\clearsky\sources\sdk\include\stlport\stl\_algobase.h
_TEXT	ENDS
;	COMDAT ??$__copy_ptrs@PBUParticle@CEffect_Rain@@PAU12@@priv@stlp_std@@YAPAUParticle@CEffect_Rain@@PBU23@0PAU23@ABU__true_type@1@@Z
_TEXT	SEGMENT
??$__copy_ptrs@PBUParticle@CEffect_Rain@@PAU12@@priv@stlp_std@@YAPAUParticle@CEffect_Rain@@PBU23@0PAU23@ABU__true_type@1@@Z PROC ; stlp_std::priv::__copy_ptrs<CEffect_Rain::Particle const *,CEffect_Rain::Particle *>, COMDAT
; ___first$ = edx
; ___last$ = ecx
; ___result$ = eax

; 255  :   // we know they all pointers, so this cast is OK
; 256  :   //  return (_OutputIter)__copy_trivial(&(*__first), &(*__last), &(*__result));
; 257  :   return (_OutputIter)__copy_trivial(__first, __last, __result);

	sub	ecx, edx
	push	esi
	mov	esi, ecx
	je	SHORT $LN6@copy_ptrs@20
	push	esi
	push	edx
	push	eax
	call	DWORD PTR __imp__memmove
	add	esp, 12					; 0000000cH
	add	eax, esi
$LN6@copy_ptrs@20:
	pop	esi

; 258  : }

	ret	0
??$__copy_ptrs@PBUParticle@CEffect_Rain@@PAU12@@priv@stlp_std@@YAPAUParticle@CEffect_Rain@@PBU23@0PAU23@ABU__true_type@1@@Z ENDP ; stlp_std::priv::__copy_ptrs<CEffect_Rain::Particle const *,CEffect_Rain::Particle *>
; Function compile flags: /Ogtpy
_TEXT	ENDS
;	COMDAT ??$__copy_ptrs@PBUItem@CEffect_Rain@@PAU12@@priv@stlp_std@@YAPAUItem@CEffect_Rain@@PBU23@0PAU23@ABU__true_type@1@@Z
_TEXT	SEGMENT
??$__copy_ptrs@PBUItem@CEffect_Rain@@PAU12@@priv@stlp_std@@YAPAUItem@CEffect_Rain@@PBU23@0PAU23@ABU__true_type@1@@Z PROC ; stlp_std::priv::__copy_ptrs<CEffect_Rain::Item const *,CEffect_Rain::Item *>, COMDAT
; ___first$ = edx
; ___last$ = ecx
; ___result$ = eax

; 255  :   // we know they all pointers, so this cast is OK
; 256  :   //  return (_OutputIter)__copy_trivial(&(*__first), &(*__last), &(*__result));
; 257  :   return (_OutputIter)__copy_trivial(__first, __last, __result);

	sub	ecx, edx
	push	esi
	mov	esi, ecx
	je	SHORT $LN6@copy_ptrs@21
	push	esi
	push	edx
	push	eax
	call	DWORD PTR __imp__memmove
	add	esp, 12					; 0000000cH
	add	eax, esi
$LN6@copy_ptrs@21:
	pop	esi

; 258  : }

	ret	0
??$__copy_ptrs@PBUItem@CEffect_Rain@@PAU12@@priv@stlp_std@@YAPAUItem@CEffect_Rain@@PBU23@0PAU23@ABU__true_type@1@@Z ENDP ; stlp_std::priv::__copy_ptrs<CEffect_Rain::Item const *,CEffect_Rain::Item *>
; Function compile flags: /Ogtpy
_TEXT	ENDS
;	COMDAT ??$__copy_ptrs@PBUrq_result@collide@@PAU12@@priv@stlp_std@@YAPAUrq_result@collide@@PBU23@0PAU23@ABU__true_type@1@@Z
_TEXT	SEGMENT
??$__copy_ptrs@PBUrq_result@collide@@PAU12@@priv@stlp_std@@YAPAUrq_result@collide@@PBU23@0PAU23@ABU__true_type@1@@Z PROC ; stlp_std::priv::__copy_ptrs<collide::rq_result const *,collide::rq_result *>, COMDAT
; ___first$ = edx
; ___last$ = ecx
; ___result$ = eax

; 255  :   // we know they all pointers, so this cast is OK
; 256  :   //  return (_OutputIter)__copy_trivial(&(*__first), &(*__last), &(*__result));
; 257  :   return (_OutputIter)__copy_trivial(__first, __last, __result);

	sub	ecx, edx
	push	esi
	mov	esi, ecx
	je	SHORT $LN6@copy_ptrs@22
	push	esi
	push	edx
	push	eax
	call	DWORD PTR __imp__memmove
	add	esp, 12					; 0000000cH
	add	eax, esi
$LN6@copy_ptrs@22:
	pop	esi

; 258  : }

	ret	0
??$__copy_ptrs@PBUrq_result@collide@@PAU12@@priv@stlp_std@@YAPAUrq_result@collide@@PBU23@0PAU23@ABU__true_type@1@@Z ENDP ; stlp_std::priv::__copy_ptrs<collide::rq_result const *,collide::rq_result *>
; Function compile flags: /Ogtpy
; File d:\clearsky\sources\sdk\include\stlport\stl\_vector.c
_TEXT	ENDS
;	COMDAT ?_M_fill_insert_aux@?$_Impl_vector@GV?$xalloc@G@@@priv@stlp_std@@AAEXPAGIABGABU__false_type@3@@Z
_TEXT	SEGMENT
___x_copy$139466 = -4					; size = 2
tv333 = 8						; size = 4
___last$253695 = 8					; size = 4
___pos$ = 8						; size = 4
___n$ = 12						; size = 4
$T253612 = 16						; size = 1
___x$ = 16						; size = 4
___formal$ = 20						; size = 4
?_M_fill_insert_aux@?$_Impl_vector@GV?$xalloc@G@@@priv@stlp_std@@AAEXPAGIABGABU__false_type@3@@Z PROC ; stlp_std::priv::_Impl_vector<unsigned short,xalloc<unsigned short> >::_M_fill_insert_aux, COMDAT
; _this$ = ecx

; 143  :                                               const _Tp& __x, const __false_type& /*_Movable*/) {

	push	ecx

; 144  :   //Here self referencing needs to be checked even for non movable types.
; 145  :   if (_M_is_inside(__x)) {

	mov	edx, DWORD PTR ___x$[esp]
	push	ebp
	mov	ebp, ecx
	cmp	edx, DWORD PTR [ebp]
	jb	SHORT $LN3@M_fill_ins@7
	cmp	edx, DWORD PTR [ebp+4]
	jae	SHORT $LN3@M_fill_ins@7

; 146  :     _Tp __x_copy = __x;

	movzx	eax, WORD PTR [edx]

; 147  :     _M_fill_insert_aux(__pos, __n, __x_copy, __false_type());

	lea	ecx, DWORD PTR $T253612[esp+4]
	push	ecx
	mov	ecx, DWORD PTR ___pos$[esp+8]
	lea	edx, DWORD PTR ___x_copy$139466[esp+12]
	mov	DWORD PTR ___x_copy$139466[esp+12], eax
	mov	eax, DWORD PTR ___n$[esp+8]
	push	edx
	push	eax
	push	ecx
	mov	ecx, ebp
	mov	BYTE PTR $T253612[esp+20], 0
	call	?_M_fill_insert_aux@?$_Impl_vector@GV?$xalloc@G@@@priv@stlp_std@@AAEXPAGIABGABU__false_type@3@@Z ; stlp_std::priv::_Impl_vector<unsigned short,xalloc<unsigned short> >::_M_fill_insert_aux
	pop	ebp

; 162  :   }
; 163  : }

	pop	ecx
	ret	16					; 00000010H
$LN3@M_fill_ins@7:

; 148  :     return;
; 149  :   }
; 150  :   const size_type __elems_after = this->_M_finish - __pos;
; 151  :   pointer __old_finish = this->_M_finish;
; 152  :   if (__elems_after > __n) {

	mov	eax, DWORD PTR ___n$[esp+4]
	push	ebx
	mov	ebx, DWORD PTR ___pos$[esp+8]
	push	esi
	mov	esi, DWORD PTR [ebp+4]
	push	edi
	mov	edi, esi
	sub	edi, ebx
	sar	edi, 1
	cmp	edi, eax
	jbe	SHORT $LN2@M_fill_ins@7

; 153  :     _STLP_PRIV __ucopy_ptrs(this->_M_finish - __n, this->_M_finish, this->_M_finish, _TrivialUCopy());

	lea	ecx, DWORD PTR [eax+eax]
	mov	edi, esi
	sub	edi, ecx
	cmp	esi, edi
	mov	DWORD PTR tv333[esp+16], ecx
	je	SHORT $LN15@M_fill_ins@7
	mov	edx, esi
	sub	edx, edi
	push	edx
	push	edi
	push	esi
	call	_memcpy
	mov	ecx, DWORD PTR tv333[esp+28]
	mov	edx, DWORD PTR ___x$[esp+28]
	add	esp, 12					; 0000000cH
$LN15@M_fill_ins@7:

; 154  :     this->_M_finish += __n;

	add	DWORD PTR [ebp+4], ecx

; 155  :     _STLP_PRIV __copy_backward_ptrs(__pos, __old_finish - __n, __old_finish, _TrivialCopy());

	sub	edi, ebx
	test	edi, edi
	jle	SHORT $LN20@M_fill_ins@7
	push	edi
	push	ebx
	sub	esi, edi
	push	esi
	call	DWORD PTR __imp__memmove
	mov	ecx, DWORD PTR tv333[esp+28]
	mov	edx, DWORD PTR ___x$[esp+28]
	add	esp, 12					; 0000000cH
$LN20@M_fill_ins@7:

; 156  :     _STLP_STD::fill(__pos, __pos + __n, __x);

	add	ecx, ebx
	cmp	ebx, ecx
	mov	eax, ebx
	je	SHORT $LN58@M_fill_ins@7
$LL24@M_fill_ins@7:
	mov	si, WORD PTR [edx]
	mov	WORD PTR [eax], si
	add	eax, 2
	cmp	eax, ecx
	jne	SHORT $LL24@M_fill_ins@7
	pop	edi
	pop	esi
	pop	ebx
	pop	ebp

; 162  :   }
; 163  : }

	pop	ecx
	ret	16					; 00000010H
$LN2@M_fill_ins@7:

; 157  :   } else {
; 158  :     this->_M_finish = _STLP_PRIV __uninitialized_fill_n(this->_M_finish, __n - __elems_after, __x);

	sub	eax, edi
	lea	edx, DWORD PTR [esi+eax*2]
	mov	eax, edx
	sub	eax, esi
	sar	eax, 1
	test	eax, eax
	mov	DWORD PTR ___last$253695[esp+16], edx
	mov	ecx, esi
	jle	SHORT $LN29@M_fill_ins@7
	npad	3
$LL31@M_fill_ins@7:
	test	ecx, ecx
	je	SHORT $LN30@M_fill_ins@7
	mov	edx, DWORD PTR ___x$[esp+16]
	mov	dx, WORD PTR [edx]
	mov	WORD PTR [ecx], dx
	mov	edx, DWORD PTR ___last$253695[esp+16]
$LN30@M_fill_ins@7:
	sub	eax, 1
	add	ecx, 2
	test	eax, eax
	jg	SHORT $LL31@M_fill_ins@7
$LN29@M_fill_ins@7:

; 159  :     _STLP_PRIV __ucopy_ptrs(__pos, __old_finish, this->_M_finish, _TrivialUCopy());

	cmp	esi, ebx
	mov	DWORD PTR [ebp+4], edx
	je	SHORT $LN45@M_fill_ins@7
	mov	eax, esi
	sub	eax, ebx
	push	eax
	push	ebx
	push	edx
	call	_memcpy
	add	esp, 12					; 0000000cH
$LN45@M_fill_ins@7:

; 160  :     this->_M_finish += __elems_after;

	lea	ecx, DWORD PTR [edi+edi]
	add	DWORD PTR [ebp+4], ecx

; 161  :     _STLP_STD::fill(__pos, __old_finish, __x);

	cmp	ebx, esi
	mov	eax, ebx
	je	SHORT $LN58@M_fill_ins@7
	npad	2
$LL48@M_fill_ins@7:
	mov	edx, DWORD PTR ___x$[esp+16]
	mov	cx, WORD PTR [edx]
	mov	WORD PTR [eax], cx
	add	eax, 2
	cmp	eax, esi
	jne	SHORT $LL48@M_fill_ins@7
$LN58@M_fill_ins@7:
	pop	edi
	pop	esi
	pop	ebx
	pop	ebp

; 162  :   }
; 163  : }

	pop	ecx
	ret	16					; 00000010H
?_M_fill_insert_aux@?$_Impl_vector@GV?$xalloc@G@@@priv@stlp_std@@AAEXPAGIABGABU__false_type@3@@Z ENDP ; stlp_std::priv::_Impl_vector<unsigned short,xalloc<unsigned short> >::_M_fill_insert_aux
; Function compile flags: /Ogtpy
_TEXT	ENDS
;	COMDAT ?_M_fill_insert_aux@?$_Impl_vector@U?$_vector3@M@@V?$xalloc@U?$_vector3@M@@@@@priv@stlp_std@@AAEXPAU?$_vector3@M@@IABU4@ABU__false_type@3@@Z
_TEXT	SEGMENT
_this$ = -16						; size = 4
___x_copy$139359 = -12					; size = 12
tv268 = 8						; size = 4
___pos$ = 8						; size = 4
___n$ = 12						; size = 4
$T253749 = 16						; size = 1
___x$ = 16						; size = 4
___formal$ = 20						; size = 4
?_M_fill_insert_aux@?$_Impl_vector@U?$_vector3@M@@V?$xalloc@U?$_vector3@M@@@@@priv@stlp_std@@AAEXPAU?$_vector3@M@@IABU4@ABU__false_type@3@@Z PROC ; stlp_std::priv::_Impl_vector<_vector3<float>,xalloc<_vector3<float> > >::_M_fill_insert_aux, COMDAT
; _this$ = ecx

; 143  :                                               const _Tp& __x, const __false_type& /*_Movable*/) {

	sub	esp, 16					; 00000010H
	push	ebx

; 144  :   //Here self referencing needs to be checked even for non movable types.
; 145  :   if (_M_is_inside(__x)) {

	mov	ebx, DWORD PTR ___x$[esp+16]
	cmp	ebx, DWORD PTR [ecx]
	mov	DWORD PTR _this$[esp+20], ecx
	jb	SHORT $LN3@M_fill_ins@8
	cmp	ebx, DWORD PTR [ecx+4]
	jae	SHORT $LN3@M_fill_ins@8

; 146  :     _Tp __x_copy = __x;

	mov	eax, DWORD PTR [ebx]
	mov	edx, DWORD PTR [ebx+4]
	mov	DWORD PTR ___x_copy$139359[esp+20], eax
	mov	eax, DWORD PTR [ebx+8]
	mov	DWORD PTR ___x_copy$139359[esp+24], edx
	mov	DWORD PTR ___x_copy$139359[esp+28], eax

; 147  :     _M_fill_insert_aux(__pos, __n, __x_copy, __false_type());

	lea	edx, DWORD PTR $T253749[esp+16]
	push	edx
	mov	edx, DWORD PTR ___n$[esp+20]
	lea	eax, DWORD PTR ___x_copy$139359[esp+24]
	push	eax
	mov	eax, DWORD PTR ___pos$[esp+24]
	push	edx
	push	eax
	mov	BYTE PTR $T253749[esp+32], 0
	call	?_M_fill_insert_aux@?$_Impl_vector@U?$_vector3@M@@V?$xalloc@U?$_vector3@M@@@@@priv@stlp_std@@AAEXPAU?$_vector3@M@@IABU4@ABU__false_type@3@@Z ; stlp_std::priv::_Impl_vector<_vector3<float>,xalloc<_vector3<float> > >::_M_fill_insert_aux
	pop	ebx

; 162  :   }
; 163  : }

	add	esp, 16					; 00000010H
	ret	16					; 00000010H
$LN3@M_fill_ins@8:
	push	ebp

; 148  :     return;
; 149  :   }
; 150  :   const size_type __elems_after = this->_M_finish - __pos;

	mov	ebp, DWORD PTR ___pos$[esp+20]
	push	esi
	mov	esi, DWORD PTR [ecx+4]
	mov	edx, esi
	sub	edx, ebp
	mov	eax, 715827883				; 2aaaaaabH
	imul	edx

; 151  :   pointer __old_finish = this->_M_finish;
; 152  :   if (__elems_after > __n) {

	mov	eax, DWORD PTR ___n$[esp+24]
	sar	edx, 1
	push	edi
	mov	edi, edx
	shr	edi, 31					; 0000001fH
	add	edi, edx
	cmp	edi, eax
	jbe	SHORT $LN2@M_fill_ins@8

; 153  :     _STLP_PRIV __ucopy_ptrs(this->_M_finish - __n, this->_M_finish, this->_M_finish, _TrivialUCopy());

	lea	edx, DWORD PTR [eax+eax*2]
	add	edx, edx
	add	edx, edx
	mov	edi, esi
	sub	edi, edx
	cmp	esi, edi
	mov	DWORD PTR tv268[esp+28], edx
	je	SHORT $LN15@M_fill_ins@8
	mov	ecx, esi
	sub	ecx, edi
	push	ecx
	push	edi
	push	esi
	call	_memcpy
	mov	ecx, DWORD PTR _this$[esp+44]
	mov	edx, DWORD PTR tv268[esp+40]
	add	esp, 12					; 0000000cH
$LN15@M_fill_ins@8:

; 154  :     this->_M_finish += __n;

	add	DWORD PTR [ecx+4], edx

; 155  :     _STLP_PRIV __copy_backward_ptrs(__pos, __old_finish - __n, __old_finish, _TrivialCopy());

	sub	edi, ebp
	test	edi, edi
	jle	SHORT $LN20@M_fill_ins@8
	push	edi
	push	ebp
	sub	esi, edi
	push	esi
	call	DWORD PTR __imp__memmove
	mov	edx, DWORD PTR tv268[esp+40]
	add	esp, 12					; 0000000cH
$LN20@M_fill_ins@8:

; 156  :     _STLP_STD::fill(__pos, __pos + __n, __x);

	lea	ecx, DWORD PTR [edx+ebp]
	cmp	ebp, ecx
	mov	eax, ebp
	je	SHORT $LN43@M_fill_ins@8
$LL24@M_fill_ins@8:
	mov	edx, DWORD PTR [ebx]
	mov	DWORD PTR [eax], edx
	mov	edx, DWORD PTR [ebx+4]
	mov	DWORD PTR [eax+4], edx
	mov	edx, DWORD PTR [ebx+8]
	mov	DWORD PTR [eax+8], edx
	add	eax, 12					; 0000000cH
	cmp	eax, ecx
	jne	SHORT $LL24@M_fill_ins@8
	pop	edi
	pop	esi
	pop	ebp
	pop	ebx

; 162  :   }
; 163  : }

	add	esp, 16					; 00000010H
	ret	16					; 00000010H
$LN2@M_fill_ins@8:

; 157  :   } else {
; 158  :     this->_M_finish = _STLP_PRIV __uninitialized_fill_n(this->_M_finish, __n - __elems_after, __x);

	sub	eax, edi
	mov	ecx, esi
	call	??$__uninitialized_fill_n@PAU?$_vector3@M@@IU1@@priv@stlp_std@@YAPAU?$_vector3@M@@PAU2@IABU2@@Z ; stlp_std::priv::__uninitialized_fill_n<_vector3<float> *,unsigned int,_vector3<float> >

; 159  :     _STLP_PRIV __ucopy_ptrs(__pos, __old_finish, this->_M_finish, _TrivialUCopy());

	cmp	esi, ebp
	mov	ecx, DWORD PTR _this$[esp+32]
	mov	DWORD PTR [ecx+4], eax
	je	SHORT $LN32@M_fill_ins@8
	mov	ecx, esi
	sub	ecx, ebp
	push	ecx
	push	ebp
	push	eax
	call	_memcpy
	mov	ecx, DWORD PTR _this$[esp+44]
	add	esp, 12					; 0000000cH
$LN32@M_fill_ins@8:

; 160  :     this->_M_finish += __elems_after;

	lea	edx, DWORD PTR [edi+edi*2]
	add	edx, edx
	add	edx, edx
	add	DWORD PTR [ecx+4], edx

; 161  :     _STLP_STD::fill(__pos, __old_finish, __x);

	cmp	ebp, esi
	je	SHORT $LN43@M_fill_ins@8
$LL35@M_fill_ins@8:
	mov	eax, DWORD PTR [ebx]
	mov	DWORD PTR [ebp], eax
	mov	ecx, DWORD PTR [ebx+4]
	mov	DWORD PTR [ebp+4], ecx
	mov	edx, DWORD PTR [ebx+8]
	mov	DWORD PTR [ebp+8], edx
	add	ebp, 12					; 0000000cH
	cmp	ebp, esi
	jne	SHORT $LL35@M_fill_ins@8
$LN43@M_fill_ins@8:
	pop	edi
	pop	esi
	pop	ebp
	pop	ebx

; 162  :   }
; 163  : }

	add	esp, 16					; 00000010H
	ret	16					; 00000010H
?_M_fill_insert_aux@?$_Impl_vector@U?$_vector3@M@@V?$xalloc@U?$_vector3@M@@@@@priv@stlp_std@@AAEXPAU?$_vector3@M@@IABU4@ABU__false_type@3@@Z ENDP ; stlp_std::priv::_Impl_vector<_vector3<float>,xalloc<_vector3<float> > >::_M_fill_insert_aux
; Function compile flags: /Ogtpy
; File d:\clearsky\sources\sdk\include\stlport\stl\_algobase.h
_TEXT	ENDS
;	COMDAT ??$__copy_ptrs@PAMPAM@priv@stlp_std@@YAPAMPAM00ABU__true_type@1@@Z
_TEXT	SEGMENT
??$__copy_ptrs@PAMPAM@priv@stlp_std@@YAPAMPAM00ABU__true_type@1@@Z PROC ; stlp_std::priv::__copy_ptrs<float *,float *>, COMDAT
; ___first$ = edx
; ___last$ = ecx
; ___result$ = eax

; 255  :   // we know they all pointers, so this cast is OK
; 256  :   //  return (_OutputIter)__copy_trivial(&(*__first), &(*__last), &(*__result));
; 257  :   return (_OutputIter)__copy_trivial(__first, __last, __result);

	sub	ecx, edx
	push	esi
	mov	esi, ecx
	je	SHORT $LN6@copy_ptrs@23
	push	esi
	push	edx
	push	eax
	call	DWORD PTR __imp__memmove
	add	esp, 12					; 0000000cH
	add	eax, esi
$LN6@copy_ptrs@23:
	pop	esi

; 258  : }

	ret	0
??$__copy_ptrs@PAMPAM@priv@stlp_std@@YAPAMPAM00ABU__true_type@1@@Z ENDP ; stlp_std::priv::__copy_ptrs<float *,float *>
; Function compile flags: /Ogtpy
_TEXT	ENDS
;	COMDAT ??$__copy_ptrs@PAGPAG@priv@stlp_std@@YAPAGPAG00ABU__true_type@1@@Z
_TEXT	SEGMENT
??$__copy_ptrs@PAGPAG@priv@stlp_std@@YAPAGPAG00ABU__true_type@1@@Z PROC ; stlp_std::priv::__copy_ptrs<unsigned short *,unsigned short *>, COMDAT
; ___first$ = edx
; ___last$ = ecx
; ___result$ = eax

; 255  :   // we know they all pointers, so this cast is OK
; 256  :   //  return (_OutputIter)__copy_trivial(&(*__first), &(*__last), &(*__result));
; 257  :   return (_OutputIter)__copy_trivial(__first, __last, __result);

	sub	ecx, edx
	push	esi
	mov	esi, ecx
	je	SHORT $LN6@copy_ptrs@24
	push	esi
	push	edx
	push	eax
	call	DWORD PTR __imp__memmove
	add	esp, 12					; 0000000cH
	add	eax, esi
$LN6@copy_ptrs@24:
	pop	esi

; 258  : }

	ret	0
??$__copy_ptrs@PAGPAG@priv@stlp_std@@YAPAGPAG00ABU__true_type@1@@Z ENDP ; stlp_std::priv::__copy_ptrs<unsigned short *,unsigned short *>
; Function compile flags: /Ogtpy
; File d:\clearsky\sources\sdk\include\stlport\stl\_uninitialized.h
_TEXT	ENDS
;	COMDAT ??$__ucopy_ptrs@PBUParticle@CEffect_Rain@@PAU12@@priv@stlp_std@@YAPAUParticle@CEffect_Rain@@PBU23@0PAU23@ABU__true_type@1@@Z
_TEXT	SEGMENT
??$__ucopy_ptrs@PBUParticle@CEffect_Rain@@PAU12@@priv@stlp_std@@YAPAUParticle@CEffect_Rain@@PBU23@0PAU23@ABU__true_type@1@@Z PROC ; stlp_std::priv::__ucopy_ptrs<CEffect_Rain::Particle const *,CEffect_Rain::Particle *>, COMDAT
; ___first$ = ecx
; ___last$ = edx
; ___result$ = eax

; 117  :                                 const __true_type& /*TrivialUCopy*/) {

	push	esi
	mov	esi, edx

; 118  :   // we know they all pointers, so this cast is OK
; 119  :   //  return (_OutputIter)__copy_trivial(&(*__first), &(*__last), &(*__result));
; 120  :   return (_OutputIter)__ucopy_trivial(__first, __last, __result);

	cmp	esi, ecx
	je	SHORT $LN6@ucopy_ptrs@14
	sub	esi, ecx
	push	esi
	push	ecx
	push	eax
	call	_memcpy
	add	esp, 12					; 0000000cH
	add	eax, esi
$LN6@ucopy_ptrs@14:
	pop	esi

; 121  : }

	ret	0
??$__ucopy_ptrs@PBUParticle@CEffect_Rain@@PAU12@@priv@stlp_std@@YAPAUParticle@CEffect_Rain@@PBU23@0PAU23@ABU__true_type@1@@Z ENDP ; stlp_std::priv::__ucopy_ptrs<CEffect_Rain::Particle const *,CEffect_Rain::Particle *>
; Function compile flags: /Ogtpy
_TEXT	ENDS
;	COMDAT ??$__ucopy_ptrs@PBUItem@CEffect_Rain@@PAU12@@priv@stlp_std@@YAPAUItem@CEffect_Rain@@PBU23@0PAU23@ABU__true_type@1@@Z
_TEXT	SEGMENT
??$__ucopy_ptrs@PBUItem@CEffect_Rain@@PAU12@@priv@stlp_std@@YAPAUItem@CEffect_Rain@@PBU23@0PAU23@ABU__true_type@1@@Z PROC ; stlp_std::priv::__ucopy_ptrs<CEffect_Rain::Item const *,CEffect_Rain::Item *>, COMDAT
; ___first$ = ecx
; ___last$ = edx
; ___result$ = eax

; 117  :                                 const __true_type& /*TrivialUCopy*/) {

	push	esi
	mov	esi, edx

; 118  :   // we know they all pointers, so this cast is OK
; 119  :   //  return (_OutputIter)__copy_trivial(&(*__first), &(*__last), &(*__result));
; 120  :   return (_OutputIter)__ucopy_trivial(__first, __last, __result);

	cmp	esi, ecx
	je	SHORT $LN6@ucopy_ptrs@15
	sub	esi, ecx
	push	esi
	push	ecx
	push	eax
	call	_memcpy
	add	esp, 12					; 0000000cH
	add	eax, esi
$LN6@ucopy_ptrs@15:
	pop	esi

; 121  : }

	ret	0
??$__ucopy_ptrs@PBUItem@CEffect_Rain@@PAU12@@priv@stlp_std@@YAPAUItem@CEffect_Rain@@PBU23@0PAU23@ABU__true_type@1@@Z ENDP ; stlp_std::priv::__ucopy_ptrs<CEffect_Rain::Item const *,CEffect_Rain::Item *>
; Function compile flags: /Ogtpy
_TEXT	ENDS
;	COMDAT ??$__ucopy_ptrs@PBUrq_result@collide@@PAU12@@priv@stlp_std@@YAPAUrq_result@collide@@PBU23@0PAU23@ABU__true_type@1@@Z
_TEXT	SEGMENT
??$__ucopy_ptrs@PBUrq_result@collide@@PAU12@@priv@stlp_std@@YAPAUrq_result@collide@@PBU23@0PAU23@ABU__true_type@1@@Z PROC ; stlp_std::priv::__ucopy_ptrs<collide::rq_result const *,collide::rq_result *>, COMDAT
; ___first$ = ecx
; ___last$ = edx
; ___result$ = eax

; 117  :                                 const __true_type& /*TrivialUCopy*/) {

	push	esi
	mov	esi, edx

; 118  :   // we know they all pointers, so this cast is OK
; 119  :   //  return (_OutputIter)__copy_trivial(&(*__first), &(*__last), &(*__result));
; 120  :   return (_OutputIter)__ucopy_trivial(__first, __last, __result);

	cmp	esi, ecx
	je	SHORT $LN6@ucopy_ptrs@16
	sub	esi, ecx
	push	esi
	push	ecx
	push	eax
	call	_memcpy
	add	esp, 12					; 0000000cH
	add	eax, esi
$LN6@ucopy_ptrs@16:
	pop	esi

; 121  : }

	ret	0
??$__ucopy_ptrs@PBUrq_result@collide@@PAU12@@priv@stlp_std@@YAPAUrq_result@collide@@PBU23@0PAU23@ABU__true_type@1@@Z ENDP ; stlp_std::priv::__ucopy_ptrs<collide::rq_result const *,collide::rq_result *>
; Function compile flags: /Ogtpy
; File d:\clearsky\sources\sdk\include\stlport\stl\_construct.h
_TEXT	ENDS
;	COMDAT ??$_Destroy_Range@V?$reverse_iterator@PAUParticle@CEffect_Rain@@@stlp_std@@@stlp_std@@YAXV?$reverse_iterator@PAUParticle@CEffect_Rain@@@0@0@Z
_TEXT	SEGMENT
___first$ = 8						; size = 4
___last$ = 12						; size = 4
??$_Destroy_Range@V?$reverse_iterator@PAUParticle@CEffect_Rain@@@stlp_std@@@stlp_std@@YAXV?$reverse_iterator@PAUParticle@CEffect_Rain@@@0@0@Z PROC ; stlp_std::_Destroy_Range<stlp_std::reverse_iterator<CEffect_Rain::Particle *> >, COMDAT

; 181  :   __destroy_range(__first, __last, _STLP_VALUE_TYPE(__first, _ForwardIterator));
; 182  : }

	ret	0
??$_Destroy_Range@V?$reverse_iterator@PAUParticle@CEffect_Rain@@@stlp_std@@@stlp_std@@YAXV?$reverse_iterator@PAUParticle@CEffect_Rain@@@0@0@Z ENDP ; stlp_std::_Destroy_Range<stlp_std::reverse_iterator<CEffect_Rain::Particle *> >
; Function compile flags: /Ogtpy
_TEXT	ENDS
;	COMDAT ??$_Destroy_Range@V?$reverse_iterator@PAUItem@CEffect_Rain@@@stlp_std@@@stlp_std@@YAXV?$reverse_iterator@PAUItem@CEffect_Rain@@@0@0@Z
_TEXT	SEGMENT
___first$ = 8						; size = 4
___last$ = 12						; size = 4
??$_Destroy_Range@V?$reverse_iterator@PAUItem@CEffect_Rain@@@stlp_std@@@stlp_std@@YAXV?$reverse_iterator@PAUItem@CEffect_Rain@@@0@0@Z PROC ; stlp_std::_Destroy_Range<stlp_std::reverse_iterator<CEffect_Rain::Item *> >, COMDAT

; 181  :   __destroy_range(__first, __last, _STLP_VALUE_TYPE(__first, _ForwardIterator));
; 182  : }

	ret	0
??$_Destroy_Range@V?$reverse_iterator@PAUItem@CEffect_Rain@@@stlp_std@@@stlp_std@@YAXV?$reverse_iterator@PAUItem@CEffect_Rain@@@0@0@Z ENDP ; stlp_std::_Destroy_Range<stlp_std::reverse_iterator<CEffect_Rain::Item *> >
; Function compile flags: /Ogtpy
_TEXT	ENDS
;	COMDAT ??$_Destroy_Range@V?$reverse_iterator@PAUrq_result@collide@@@stlp_std@@@stlp_std@@YAXV?$reverse_iterator@PAUrq_result@collide@@@0@0@Z
_TEXT	SEGMENT
___first$ = 8						; size = 4
___last$ = 12						; size = 4
??$_Destroy_Range@V?$reverse_iterator@PAUrq_result@collide@@@stlp_std@@@stlp_std@@YAXV?$reverse_iterator@PAUrq_result@collide@@@0@0@Z PROC ; stlp_std::_Destroy_Range<stlp_std::reverse_iterator<collide::rq_result *> >, COMDAT

; 181  :   __destroy_range(__first, __last, _STLP_VALUE_TYPE(__first, _ForwardIterator));
; 182  : }

	ret	0
??$_Destroy_Range@V?$reverse_iterator@PAUrq_result@collide@@@stlp_std@@@stlp_std@@YAXV?$reverse_iterator@PAUrq_result@collide@@@0@0@Z ENDP ; stlp_std::_Destroy_Range<stlp_std::reverse_iterator<collide::rq_result *> >
; Function compile flags: /Ogtpy
; File d:\clearsky\sources\sdk\include\stlport\stl\_algo.c
_TEXT	ENDS
;	COMDAT ??$sort@PAPAVCEnvDescriptor@@P6A_NPBV1@0@Z@stlp_std@@YAXPAPAVCEnvDescriptor@@0P6A_NPBV1@1@Z@Z
_TEXT	SEGMENT
___comp$ = 8						; size = 4
??$sort@PAPAVCEnvDescriptor@@P6A_NPBV1@0@Z@stlp_std@@YAXPAPAVCEnvDescriptor@@0P6A_NPBV1@1@Z@Z PROC ; stlp_std::sort<CEnvDescriptor * *,bool (__cdecl*)(CEnvDescriptor const *,CEnvDescriptor const *)>, COMDAT
; ___first$ = edi
; ___last$ = ebx

; 995  :   _STLP_DEBUG_CHECK(_STLP_PRIV __check_range(__first, __last))
; 996  :   if (__first != __last) {

	cmp	edi, ebx
	push	ebp
	mov	ebp, DWORD PTR ___comp$[esp]
	je	SHORT $LN29@sort@3
	push	esi

; 997  :     _STLP_PRIV __introsort_loop(__first, __last,
; 998  :                                 _STLP_VALUE_TYPE(__first, _RandomAccessIter),
; 999  :                                 _STLP_PRIV __lg(__last - __first) * 2, __comp);

	mov	esi, ebx
	sub	esi, edi
	sar	esi, 2
	mov	eax, esi
	xor	ecx, ecx
	cmp	eax, 1
	je	SHORT $LN4@sort@3
	npad	6
$LL6@sort@3:
	sar	eax, 1
	add	ecx, 1
	cmp	eax, 1
	jne	SHORT $LL6@sort@3
$LN4@sort@3:
	push	ebp
	lea	eax, DWORD PTR [ecx+ecx]
	push	eax
	push	0
	push	ebx
	push	edi
	call	??$__introsort_loop@PAPAVCEnvDescriptor@@PAV1@HP6A_NPBV1@0@Z@priv@stlp_std@@YAXPAPAVCEnvDescriptor@@00HP6A_NPBV2@1@Z@Z ; stlp_std::priv::__introsort_loop<CEnvDescriptor * *,CEnvDescriptor *,int,bool (__cdecl*)(CEnvDescriptor const *,CEnvDescriptor const *)>
	add	esp, 20					; 00000014H

; 1000 :     _STLP_PRIV __final_insertion_sort(__first, __last, __comp);

	cmp	esi, 16					; 00000010H
	jle	SHORT $LN10@sort@3
	lea	esi, DWORD PTR [edi+64]
	cmp	edi, esi
	je	SHORT $LN17@sort@3
	push	ebp
	push	esi
	push	edi
	call	??$__insertion_sort@PAPAVCEnvDescriptor@@PAV1@P6A_NPBV1@0@Z@priv@stlp_std@@YAXPAPAVCEnvDescriptor@@00P6A_NPBV2@1@Z@Z ; stlp_std::priv::__insertion_sort<CEnvDescriptor * *,CEnvDescriptor *,bool (__cdecl*)(CEnvDescriptor const *,CEnvDescriptor const *)>
	add	esp, 12					; 0000000cH
$LN17@sort@3:
	push	ebp
	push	ebx
	push	esi
	call	??$__unguarded_insertion_sort_aux@PAPAVCEnvDescriptor@@PAV1@P6A_NPBV1@0@Z@priv@stlp_std@@YAXPAPAVCEnvDescriptor@@00P6A_NPBV2@1@Z@Z ; stlp_std::priv::__unguarded_insertion_sort_aux<CEnvDescriptor * *,CEnvDescriptor *,bool (__cdecl*)(CEnvDescriptor const *,CEnvDescriptor const *)>
	add	esp, 12					; 0000000cH
	pop	esi
	pop	ebp

; 1001 :   }
; 1002 : }

	ret	0

; 1000 :     _STLP_PRIV __final_insertion_sort(__first, __last, __comp);

$LN10@sort@3:
	push	ebp
	push	ebx
	push	edi
	call	??$__insertion_sort@PAPAVCEnvDescriptor@@PAV1@P6A_NPBV1@0@Z@priv@stlp_std@@YAXPAPAVCEnvDescriptor@@00P6A_NPBV2@1@Z@Z ; stlp_std::priv::__insertion_sort<CEnvDescriptor * *,CEnvDescriptor *,bool (__cdecl*)(CEnvDescriptor const *,CEnvDescriptor const *)>
	add	esp, 12					; 0000000cH
	pop	esi
$LN29@sort@3:
	pop	ebp

; 1001 :   }
; 1002 : }

	ret	0
??$sort@PAPAVCEnvDescriptor@@P6A_NPBV1@0@Z@stlp_std@@YAXPAPAVCEnvDescriptor@@0P6A_NPBV1@1@Z@Z ENDP ; stlp_std::sort<CEnvDescriptor * *,bool (__cdecl*)(CEnvDescriptor const *,CEnvDescriptor const *)>
; Function compile flags: /Ogtpy
; File d:\clearsky\sources\sdk\include\stlport\stl\_alloc.h
_TEXT	ENDS
;	COMDAT ??0?$_STLP_alloc_proxy@PAUParticle@CEffect_Rain@@U12@V?$xalloc@UParticle@CEffect_Rain@@@@@priv@stlp_std@@QAE@ABV?$xalloc@UParticle@CEffect_Rain@@@@PAUParticle@CEffect_Rain@@@Z
_TEXT	SEGMENT
??0?$_STLP_alloc_proxy@PAUParticle@CEffect_Rain@@U12@V?$xalloc@UParticle@CEffect_Rain@@@@@priv@stlp_std@@QAE@ABV?$xalloc@UParticle@CEffect_Rain@@@@PAUParticle@CEffect_Rain@@@Z PROC ; stlp_std::priv::_STLP_alloc_proxy<CEffect_Rain::Particle *,CEffect_Rain::Particle,xalloc<CEffect_Rain::Particle> >::_STLP_alloc_proxy<CEffect_Rain::Particle *,CEffect_Rain::Particle,xalloc<CEffect_Rain::Particle> >, COMDAT
; _this$ = eax

; 571  :     _MaybeReboundAlloc(__a), _M_data(__p) {}

	mov	DWORD PTR [eax], 0
	ret	0
??0?$_STLP_alloc_proxy@PAUParticle@CEffect_Rain@@U12@V?$xalloc@UParticle@CEffect_Rain@@@@@priv@stlp_std@@QAE@ABV?$xalloc@UParticle@CEffect_Rain@@@@PAUParticle@CEffect_Rain@@@Z ENDP ; stlp_std::priv::_STLP_alloc_proxy<CEffect_Rain::Particle *,CEffect_Rain::Particle,xalloc<CEffect_Rain::Particle> >::_STLP_alloc_proxy<CEffect_Rain::Particle *,CEffect_Rain::Particle,xalloc<CEffect_Rain::Particle> >
; Function compile flags: /Ogtpy
_TEXT	ENDS
;	COMDAT ??0?$_STLP_alloc_proxy@PAUItem@CEffect_Rain@@U12@V?$xalloc@UItem@CEffect_Rain@@@@@priv@stlp_std@@QAE@ABV?$xalloc@UItem@CEffect_Rain@@@@PAUItem@CEffect_Rain@@@Z
_TEXT	SEGMENT
??0?$_STLP_alloc_proxy@PAUItem@CEffect_Rain@@U12@V?$xalloc@UItem@CEffect_Rain@@@@@priv@stlp_std@@QAE@ABV?$xalloc@UItem@CEffect_Rain@@@@PAUItem@CEffect_Rain@@@Z PROC ; stlp_std::priv::_STLP_alloc_proxy<CEffect_Rain::Item *,CEffect_Rain::Item,xalloc<CEffect_Rain::Item> >::_STLP_alloc_proxy<CEffect_Rain::Item *,CEffect_Rain::Item,xalloc<CEffect_Rain::Item> >, COMDAT
; _this$ = eax

; 571  :     _MaybeReboundAlloc(__a), _M_data(__p) {}

	mov	DWORD PTR [eax], 0
	ret	0
??0?$_STLP_alloc_proxy@PAUItem@CEffect_Rain@@U12@V?$xalloc@UItem@CEffect_Rain@@@@@priv@stlp_std@@QAE@ABV?$xalloc@UItem@CEffect_Rain@@@@PAUItem@CEffect_Rain@@@Z ENDP ; stlp_std::priv::_STLP_alloc_proxy<CEffect_Rain::Item *,CEffect_Rain::Item,xalloc<CEffect_Rain::Item> >::_STLP_alloc_proxy<CEffect_Rain::Item *,CEffect_Rain::Item,xalloc<CEffect_Rain::Item> >
; Function compile flags: /Ogtpy
_TEXT	ENDS
;	COMDAT ??0?$_STLP_alloc_proxy@PAUSFlare@CLensFlareDescriptor@@U12@V?$xalloc@USFlare@CLensFlareDescriptor@@@@@priv@stlp_std@@QAE@ABV?$xalloc@USFlare@CLensFlareDescriptor@@@@PAUSFlare@CLensFlareDescriptor@@@Z
_TEXT	SEGMENT
??0?$_STLP_alloc_proxy@PAUSFlare@CLensFlareDescriptor@@U12@V?$xalloc@USFlare@CLensFlareDescriptor@@@@@priv@stlp_std@@QAE@ABV?$xalloc@USFlare@CLensFlareDescriptor@@@@PAUSFlare@CLensFlareDescriptor@@@Z PROC ; stlp_std::priv::_STLP_alloc_proxy<CLensFlareDescriptor::SFlare *,CLensFlareDescriptor::SFlare,xalloc<CLensFlareDescriptor::SFlare> >::_STLP_alloc_proxy<CLensFlareDescriptor::SFlare *,CLensFlareDescriptor::SFlare,xalloc<CLensFlareDescriptor::SFlare> >, COMDAT
; _this$ = eax

; 571  :     _MaybeReboundAlloc(__a), _M_data(__p) {}

	mov	DWORD PTR [eax], 0
	ret	0
??0?$_STLP_alloc_proxy@PAUSFlare@CLensFlareDescriptor@@U12@V?$xalloc@USFlare@CLensFlareDescriptor@@@@@priv@stlp_std@@QAE@ABV?$xalloc@USFlare@CLensFlareDescriptor@@@@PAUSFlare@CLensFlareDescriptor@@@Z ENDP ; stlp_std::priv::_STLP_alloc_proxy<CLensFlareDescriptor::SFlare *,CLensFlareDescriptor::SFlare,xalloc<CLensFlareDescriptor::SFlare> >::_STLP_alloc_proxy<CLensFlareDescriptor::SFlare *,CLensFlareDescriptor::SFlare,xalloc<CLensFlareDescriptor::SFlare> >
; Function compile flags: /Ogtpy
; File d:\clearsky\sources\sdk\include\stlport\stl\_vector.h
_TEXT	ENDS
;	COMDAT ??0?$_Vector_base@USFlare@CLensFlareDescriptor@@V?$xalloc@USFlare@CLensFlareDescriptor@@@@@priv@stlp_std@@QAE@ABV?$xalloc@USFlare@CLensFlareDescriptor@@@@@Z
_TEXT	SEGMENT
??0?$_Vector_base@USFlare@CLensFlareDescriptor@@V?$xalloc@USFlare@CLensFlareDescriptor@@@@@priv@stlp_std@@QAE@ABV?$xalloc@USFlare@CLensFlareDescriptor@@@@@Z PROC ; stlp_std::priv::_Vector_base<CLensFlareDescriptor::SFlare,xalloc<CLensFlareDescriptor::SFlare> >::_Vector_base<CLensFlareDescriptor::SFlare,xalloc<CLensFlareDescriptor::SFlare> >, COMDAT
; _this$ = eax

; 67   :     : _M_start(0), _M_finish(0), _M_end_of_storage(__a, 0) {}

	xor	ecx, ecx
	mov	DWORD PTR [eax], ecx
	mov	DWORD PTR [eax+4], ecx
	mov	DWORD PTR [eax+8], ecx
	ret	0
??0?$_Vector_base@USFlare@CLensFlareDescriptor@@V?$xalloc@USFlare@CLensFlareDescriptor@@@@@priv@stlp_std@@QAE@ABV?$xalloc@USFlare@CLensFlareDescriptor@@@@@Z ENDP ; stlp_std::priv::_Vector_base<CLensFlareDescriptor::SFlare,xalloc<CLensFlareDescriptor::SFlare> >::_Vector_base<CLensFlareDescriptor::SFlare,xalloc<CLensFlareDescriptor::SFlare> >
; Function compile flags: /Ogtpy
; File d:\clearsky\sources\sdk\include\stlport\stl\_alloc.h
_TEXT	ENDS
;	COMDAT ??0?$_STLP_alloc_proxy@PAUrq_result@collide@@U12@V?$xalloc@Urq_result@collide@@@@@priv@stlp_std@@QAE@ABV?$xalloc@Urq_result@collide@@@@PAUrq_result@collide@@@Z
_TEXT	SEGMENT
??0?$_STLP_alloc_proxy@PAUrq_result@collide@@U12@V?$xalloc@Urq_result@collide@@@@@priv@stlp_std@@QAE@ABV?$xalloc@Urq_result@collide@@@@PAUrq_result@collide@@@Z PROC ; stlp_std::priv::_STLP_alloc_proxy<collide::rq_result *,collide::rq_result,xalloc<collide::rq_result> >::_STLP_alloc_proxy<collide::rq_result *,collide::rq_result,xalloc<collide::rq_result> >, COMDAT
; _this$ = eax

; 571  :     _MaybeReboundAlloc(__a), _M_data(__p) {}

	mov	DWORD PTR [eax], 0
	ret	0
??0?$_STLP_alloc_proxy@PAUrq_result@collide@@U12@V?$xalloc@Urq_result@collide@@@@@priv@stlp_std@@QAE@ABV?$xalloc@Urq_result@collide@@@@PAUrq_result@collide@@@Z ENDP ; stlp_std::priv::_STLP_alloc_proxy<collide::rq_result *,collide::rq_result,xalloc<collide::rq_result> >::_STLP_alloc_proxy<collide::rq_result *,collide::rq_result,xalloc<collide::rq_result> >
; Function compile flags: /Ogtpy
; File d:\clearsky\sources\sdk\include\stlport\stl\_vector.h
_TEXT	ENDS
;	COMDAT ?_M_erase@?$_Impl_vector@MV?$xalloc@M@@@priv@stlp_std@@AAEPAMPAM0ABU__false_type@3@@Z
_TEXT	SEGMENT
_this$ = 8						; size = 4
?_M_erase@?$_Impl_vector@MV?$xalloc@M@@@priv@stlp_std@@AAEPAMPAM0ABU__false_type@3@@Z PROC ; stlp_std::priv::_Impl_vector<float,xalloc<float> >::_M_erase, COMDAT
; ___first$ = ebx
; ___last$ = eax

; 578  :   iterator _M_erase(iterator __first, iterator __last, const __false_type& /*_Movable*/) {

	push	ebp
	mov	ebp, DWORD PTR _this$[esp]
	push	esi
	push	edi

; 579  :     pointer __i = _STLP_PRIV __copy_ptrs(__last, this->_M_finish, __first, _TrivialCopy());

	mov	edi, DWORD PTR [ebp+4]
	sub	edi, eax
	je	SHORT $LN7@M_erase@16
	push	edi
	push	eax
	push	ebx
	call	DWORD PTR __imp__memmove
	mov	esi, eax
	add	esp, 12					; 0000000cH
	add	esi, edi
	jmp	SHORT $LN8@M_erase@16
$LN7@M_erase@16:
	mov	esi, ebx
$LN8@M_erase@16:

; 580  :     _STLP_STD::_Destroy_Range(__i, this->_M_finish);

	mov	eax, DWORD PTR [ebp+4]
	push	eax
	push	esi
	call	??$_Destroy_Range@PAM@stlp_std@@YAXPAM0@Z ; stlp_std::_Destroy_Range<float *>
	add	esp, 8
	pop	edi

; 581  :     this->_M_finish = __i;

	mov	DWORD PTR [ebp+4], esi
	pop	esi

; 582  :     return __first;

	mov	eax, ebx
	pop	ebp

; 583  :   }

	ret	4
?_M_erase@?$_Impl_vector@MV?$xalloc@M@@@priv@stlp_std@@AAEPAMPAM0ABU__false_type@3@@Z ENDP ; stlp_std::priv::_Impl_vector<float,xalloc<float> >::_M_erase
; Function compile flags: /Ogtpy
_TEXT	ENDS
;	COMDAT ?_M_erase@?$_Impl_vector@GV?$xalloc@G@@@priv@stlp_std@@AAEPAGPAG0ABU__false_type@3@@Z
_TEXT	SEGMENT
_this$ = 8						; size = 4
?_M_erase@?$_Impl_vector@GV?$xalloc@G@@@priv@stlp_std@@AAEPAGPAG0ABU__false_type@3@@Z PROC ; stlp_std::priv::_Impl_vector<unsigned short,xalloc<unsigned short> >::_M_erase, COMDAT
; ___first$ = ebx
; ___last$ = eax

; 578  :   iterator _M_erase(iterator __first, iterator __last, const __false_type& /*_Movable*/) {

	push	ebp
	mov	ebp, DWORD PTR _this$[esp]
	push	esi
	push	edi

; 579  :     pointer __i = _STLP_PRIV __copy_ptrs(__last, this->_M_finish, __first, _TrivialCopy());

	mov	edi, DWORD PTR [ebp+4]
	sub	edi, eax
	je	SHORT $LN7@M_erase@17
	push	edi
	push	eax
	push	ebx
	call	DWORD PTR __imp__memmove
	mov	esi, eax
	add	esp, 12					; 0000000cH
	add	esi, edi
	jmp	SHORT $LN8@M_erase@17
$LN7@M_erase@17:
	mov	esi, ebx
$LN8@M_erase@17:

; 580  :     _STLP_STD::_Destroy_Range(__i, this->_M_finish);

	mov	eax, DWORD PTR [ebp+4]
	push	eax
	push	esi
	call	??$_Destroy_Range@PAG@stlp_std@@YAXPAG0@Z ; stlp_std::_Destroy_Range<unsigned short *>
	add	esp, 8
	pop	edi

; 581  :     this->_M_finish = __i;

	mov	DWORD PTR [ebp+4], esi
	pop	esi

; 582  :     return __first;

	mov	eax, ebx
	pop	ebp

; 583  :   }

	ret	4
?_M_erase@?$_Impl_vector@GV?$xalloc@G@@@priv@stlp_std@@AAEPAGPAG0ABU__false_type@3@@Z ENDP ; stlp_std::priv::_Impl_vector<unsigned short,xalloc<unsigned short> >::_M_erase
; Function compile flags: /Ogtpy
; File d:\clearsky\sources\sdk\include\stlport\stl\_tree.h
_TEXT	ENDS
;	COMDAT ??0?$_Rb_tree_iterator@U?$pair@$$CBVshared_str@@V?$xr_vector@PAVCEnvDescriptor@@V?$xalloc@PAVCEnvDescriptor@@@@@@@stlp_std@@U?$_MapTraitsT@U?$pair@$$CBVshared_str@@V?$xr_vector@PAVCEnvDescriptor@@V?$xalloc@PAVCEnvDescriptor@@@@@@@stlp_std@@@priv@2@@priv@stlp_std@@QAE@PAU_Rb_tree_node_base@12@@Z
_TEXT	SEGMENT
??0?$_Rb_tree_iterator@U?$pair@$$CBVshared_str@@V?$xr_vector@PAVCEnvDescriptor@@V?$xalloc@PAVCEnvDescriptor@@@@@@@stlp_std@@U?$_MapTraitsT@U?$pair@$$CBVshared_str@@V?$xr_vector@PAVCEnvDescriptor@@V?$xalloc@PAVCEnvDescriptor@@@@@@@stlp_std@@@priv@2@@priv@stlp_std@@QAE@PAU_Rb_tree_node_base@12@@Z PROC ; stlp_std::priv::_Rb_tree_iterator<stlp_std::pair<shared_str const ,xr_vector<CEnvDescriptor *,xalloc<CEnvDescriptor *> > >,stlp_std::priv::_MapTraitsT<stlp_std::pair<shared_str const ,xr_vector<CEnvDescriptor *,xalloc<CEnvDescriptor *> > > > >::_Rb_tree_iterator<stlp_std::pair<shared_str const ,xr_vector<CEnvDescriptor *,xalloc<CEnvDescriptor *> > >,stlp_std::priv::_MapTraitsT<stlp_std::pair<shared_str const ,xr_vector<CEnvDescriptor *,xalloc<CEnvDescriptor *> > > > >, COMDAT
; _this$ = eax
; ___x$ = ecx

; 166  :   _Rb_tree_iterator(_Base_ptr __x) : _Rb_tree_base_iterator(__x) {}

	mov	DWORD PTR [eax], ecx
	ret	0
??0?$_Rb_tree_iterator@U?$pair@$$CBVshared_str@@V?$xr_vector@PAVCEnvDescriptor@@V?$xalloc@PAVCEnvDescriptor@@@@@@@stlp_std@@U?$_MapTraitsT@U?$pair@$$CBVshared_str@@V?$xr_vector@PAVCEnvDescriptor@@V?$xalloc@PAVCEnvDescriptor@@@@@@@stlp_std@@@priv@2@@priv@stlp_std@@QAE@PAU_Rb_tree_node_base@12@@Z ENDP ; stlp_std::priv::_Rb_tree_iterator<stlp_std::pair<shared_str const ,xr_vector<CEnvDescriptor *,xalloc<CEnvDescriptor *> > >,stlp_std::priv::_MapTraitsT<stlp_std::pair<shared_str const ,xr_vector<CEnvDescriptor *,xalloc<CEnvDescriptor *> > > > >::_Rb_tree_iterator<stlp_std::pair<shared_str const ,xr_vector<CEnvDescriptor *,xalloc<CEnvDescriptor *> > >,stlp_std::priv::_MapTraitsT<stlp_std::pair<shared_str const ,xr_vector<CEnvDescriptor *,xalloc<CEnvDescriptor *> > > > >
; Function compile flags: /Ogtpy
; File d:\clearsky\sources\sdk\include\stlport\stl\_vector.h
_TEXT	ENDS
;	COMDAT ??0?$_Vector_base@UParticle@CEffect_Rain@@V?$xalloc@UParticle@CEffect_Rain@@@@@priv@stlp_std@@QAE@IABV?$xalloc@UParticle@CEffect_Rain@@@@@Z
_TEXT	SEGMENT
??0?$_Vector_base@UParticle@CEffect_Rain@@V?$xalloc@UParticle@CEffect_Rain@@@@@priv@stlp_std@@QAE@IABV?$xalloc@UParticle@CEffect_Rain@@@@@Z PROC ; stlp_std::priv::_Vector_base<CEffect_Rain::Particle,xalloc<CEffect_Rain::Particle> >::_Vector_base<CEffect_Rain::Particle,xalloc<CEffect_Rain::Particle> >, COMDAT
; _this$ = esi
; ___n$ = ecx

; 70   :     : _M_start(0), _M_finish(0), _M_end_of_storage(__a, 0) {

	push	edi

; 71   :     _M_start = _M_end_of_storage.allocate(__n, __n);

	mov	edi, ecx
	imul	edi, 92					; 0000005cH
	xor	eax, eax
	mov	DWORD PTR [esi], eax
	mov	DWORD PTR [esi+4], eax
	mov	DWORD PTR [esi+8], eax
	mov	ecx, DWORD PTR __imp_?Memory@@3VxrMemory@@A
	push	edi
	call	DWORD PTR __imp_?mem_alloc@xrMemory@@QAEPAXI@Z

; 72   :     _M_finish = _M_start;
; 73   :     _M_end_of_storage._M_data = _M_start + __n;

	add	edi, eax
	mov	DWORD PTR [esi], eax
	mov	DWORD PTR [esi+4], eax
	mov	DWORD PTR [esi+8], edi

; 74   :     _STLP_MPWFIX_TRY _STLP_MPWFIX_CATCH
; 75   :   }

	mov	eax, esi
	pop	edi
	ret	0
??0?$_Vector_base@UParticle@CEffect_Rain@@V?$xalloc@UParticle@CEffect_Rain@@@@@priv@stlp_std@@QAE@IABV?$xalloc@UParticle@CEffect_Rain@@@@@Z ENDP ; stlp_std::priv::_Vector_base<CEffect_Rain::Particle,xalloc<CEffect_Rain::Particle> >::_Vector_base<CEffect_Rain::Particle,xalloc<CEffect_Rain::Particle> >
; Function compile flags: /Ogtpy
_TEXT	ENDS
;	COMDAT ??0?$_Vector_base@UItem@CEffect_Rain@@V?$xalloc@UItem@CEffect_Rain@@@@@priv@stlp_std@@QAE@IABV?$xalloc@UItem@CEffect_Rain@@@@@Z
_TEXT	SEGMENT
??0?$_Vector_base@UItem@CEffect_Rain@@V?$xalloc@UItem@CEffect_Rain@@@@@priv@stlp_std@@QAE@IABV?$xalloc@UItem@CEffect_Rain@@@@@Z PROC ; stlp_std::priv::_Vector_base<CEffect_Rain::Item,xalloc<CEffect_Rain::Item> >::_Vector_base<CEffect_Rain::Item,xalloc<CEffect_Rain::Item> >, COMDAT
; _this$ = esi
; ___n$ = ecx

; 70   :     : _M_start(0), _M_finish(0), _M_end_of_storage(__a, 0) {

	push	edi

; 71   :     _M_start = _M_end_of_storage.allocate(__n, __n);

	mov	edi, ecx
	imul	edi, 52					; 00000034H
	xor	eax, eax
	mov	DWORD PTR [esi], eax
	mov	DWORD PTR [esi+4], eax
	mov	DWORD PTR [esi+8], eax
	mov	ecx, DWORD PTR __imp_?Memory@@3VxrMemory@@A
	push	edi
	call	DWORD PTR __imp_?mem_alloc@xrMemory@@QAEPAXI@Z

; 72   :     _M_finish = _M_start;
; 73   :     _M_end_of_storage._M_data = _M_start + __n;

	add	edi, eax
	mov	DWORD PTR [esi], eax
	mov	DWORD PTR [esi+4], eax
	mov	DWORD PTR [esi+8], edi

; 74   :     _STLP_MPWFIX_TRY _STLP_MPWFIX_CATCH
; 75   :   }

	mov	eax, esi
	pop	edi
	ret	0
??0?$_Vector_base@UItem@CEffect_Rain@@V?$xalloc@UItem@CEffect_Rain@@@@@priv@stlp_std@@QAE@IABV?$xalloc@UItem@CEffect_Rain@@@@@Z ENDP ; stlp_std::priv::_Vector_base<CEffect_Rain::Item,xalloc<CEffect_Rain::Item> >::_Vector_base<CEffect_Rain::Item,xalloc<CEffect_Rain::Item> >
; Function compile flags: /Ogtpy
_TEXT	ENDS
;	COMDAT ??0?$_Vector_base@USFlare@CLensFlareDescriptor@@V?$xalloc@USFlare@CLensFlareDescriptor@@@@@priv@stlp_std@@QAE@IABV?$xalloc@USFlare@CLensFlareDescriptor@@@@@Z
_TEXT	SEGMENT
??0?$_Vector_base@USFlare@CLensFlareDescriptor@@V?$xalloc@USFlare@CLensFlareDescriptor@@@@@priv@stlp_std@@QAE@IABV?$xalloc@USFlare@CLensFlareDescriptor@@@@@Z PROC ; stlp_std::priv::_Vector_base<CLensFlareDescriptor::SFlare,xalloc<CLensFlareDescriptor::SFlare> >::_Vector_base<CLensFlareDescriptor::SFlare,xalloc<CLensFlareDescriptor::SFlare> >, COMDAT
; _this$ = esi
; ___n$ = eax

; 70   :     : _M_start(0), _M_finish(0), _M_end_of_storage(__a, 0) {

	push	edi

; 71   :     _M_start = _M_end_of_storage.allocate(__n, __n);

	lea	edi, DWORD PTR [eax+eax*2]
	xor	ecx, ecx
	add	edi, edi
	mov	DWORD PTR [esi], ecx
	mov	DWORD PTR [esi+4], ecx
	add	edi, edi
	mov	DWORD PTR [esi+8], ecx
	mov	ecx, DWORD PTR __imp_?Memory@@3VxrMemory@@A
	add	edi, edi
	push	edi
	call	DWORD PTR __imp_?mem_alloc@xrMemory@@QAEPAXI@Z

; 72   :     _M_finish = _M_start;
; 73   :     _M_end_of_storage._M_data = _M_start + __n;

	add	edi, eax
	mov	DWORD PTR [esi], eax
	mov	DWORD PTR [esi+4], eax
	mov	DWORD PTR [esi+8], edi

; 74   :     _STLP_MPWFIX_TRY _STLP_MPWFIX_CATCH
; 75   :   }

	mov	eax, esi
	pop	edi
	ret	0
??0?$_Vector_base@USFlare@CLensFlareDescriptor@@V?$xalloc@USFlare@CLensFlareDescriptor@@@@@priv@stlp_std@@QAE@IABV?$xalloc@USFlare@CLensFlareDescriptor@@@@@Z ENDP ; stlp_std::priv::_Vector_base<CLensFlareDescriptor::SFlare,xalloc<CLensFlareDescriptor::SFlare> >::_Vector_base<CLensFlareDescriptor::SFlare,xalloc<CLensFlareDescriptor::SFlare> >
; Function compile flags: /Ogtpy
_TEXT	ENDS
;	COMDAT ??0?$_Impl_vector@USFlare@CLensFlareDescriptor@@V?$xalloc@USFlare@CLensFlareDescriptor@@@@@priv@stlp_std@@QAE@ABV?$xalloc@USFlare@CLensFlareDescriptor@@@@@Z
_TEXT	SEGMENT
??0?$_Impl_vector@USFlare@CLensFlareDescriptor@@V?$xalloc@USFlare@CLensFlareDescriptor@@@@@priv@stlp_std@@QAE@ABV?$xalloc@USFlare@CLensFlareDescriptor@@@@@Z PROC ; stlp_std::priv::_Impl_vector<CLensFlareDescriptor::SFlare,xalloc<CLensFlareDescriptor::SFlare> >::_Impl_vector<CLensFlareDescriptor::SFlare,xalloc<CLensFlareDescriptor::SFlare> >, COMDAT
; _this$ = eax

; 208  :     : _STLP_PRIV _Vector_base<_Tp, _Alloc>(__a) {}

	xor	ecx, ecx
	mov	DWORD PTR [eax], ecx
	mov	DWORD PTR [eax+4], ecx
	mov	DWORD PTR [eax+8], ecx
	ret	0
??0?$_Impl_vector@USFlare@CLensFlareDescriptor@@V?$xalloc@USFlare@CLensFlareDescriptor@@@@@priv@stlp_std@@QAE@ABV?$xalloc@USFlare@CLensFlareDescriptor@@@@@Z ENDP ; stlp_std::priv::_Impl_vector<CLensFlareDescriptor::SFlare,xalloc<CLensFlareDescriptor::SFlare> >::_Impl_vector<CLensFlareDescriptor::SFlare,xalloc<CLensFlareDescriptor::SFlare> >
; Function compile flags: /Ogtpy
_TEXT	ENDS
;	COMDAT ??0?$_Vector_base@Urq_result@collide@@V?$xalloc@Urq_result@collide@@@@@priv@stlp_std@@QAE@IABV?$xalloc@Urq_result@collide@@@@@Z
_TEXT	SEGMENT
??0?$_Vector_base@Urq_result@collide@@V?$xalloc@Urq_result@collide@@@@@priv@stlp_std@@QAE@IABV?$xalloc@Urq_result@collide@@@@@Z PROC ; stlp_std::priv::_Vector_base<collide::rq_result,xalloc<collide::rq_result> >::_Vector_base<collide::rq_result,xalloc<collide::rq_result> >, COMDAT
; _this$ = esi
; ___n$ = eax

; 70   :     : _M_start(0), _M_finish(0), _M_end_of_storage(__a, 0) {

	push	edi
	xor	ecx, ecx

; 71   :     _M_start = _M_end_of_storage.allocate(__n, __n);

	lea	edi, DWORD PTR [eax+eax*2]
	mov	DWORD PTR [esi], ecx
	mov	DWORD PTR [esi+4], ecx
	add	edi, edi
	mov	DWORD PTR [esi+8], ecx
	mov	ecx, DWORD PTR __imp_?Memory@@3VxrMemory@@A
	add	edi, edi
	push	edi
	call	DWORD PTR __imp_?mem_alloc@xrMemory@@QAEPAXI@Z

; 72   :     _M_finish = _M_start;
; 73   :     _M_end_of_storage._M_data = _M_start + __n;

	add	edi, eax
	mov	DWORD PTR [esi], eax
	mov	DWORD PTR [esi+4], eax
	mov	DWORD PTR [esi+8], edi

; 74   :     _STLP_MPWFIX_TRY _STLP_MPWFIX_CATCH
; 75   :   }

	mov	eax, esi
	pop	edi
	ret	0
??0?$_Vector_base@Urq_result@collide@@V?$xalloc@Urq_result@collide@@@@@priv@stlp_std@@QAE@IABV?$xalloc@Urq_result@collide@@@@@Z ENDP ; stlp_std::priv::_Vector_base<collide::rq_result,xalloc<collide::rq_result> >::_Vector_base<collide::rq_result,xalloc<collide::rq_result> >
; Function compile flags: /Ogtpy
_TEXT	ENDS
;	COMDAT ?erase@?$_Impl_vector@MV?$xalloc@M@@@priv@stlp_std@@QAEPAMPAM0@Z
_TEXT	SEGMENT
_this$ = 8						; size = 4
?erase@?$_Impl_vector@MV?$xalloc@M@@@priv@stlp_std@@QAEPAMPAM0@Z PROC ; stlp_std::priv::_Impl_vector<float,xalloc<float> >::erase, COMDAT
; ___first$ = ebx
; ___last$ = eax

; 590  :     if (__first == __last)

	cmp	ebx, eax
	push	ebp
	mov	ebp, DWORD PTR _this$[esp]

; 591  :       return __first;

	je	SHORT $LN18@erase@19
	push	esi
	push	edi

; 592  :     return _M_erase(__first, __last, _Movable());

	mov	edi, DWORD PTR [ebp+4]
	sub	edi, eax
	je	SHORT $LN10@erase@19
	push	edi
	push	eax
	push	ebx
	call	DWORD PTR __imp__memmove
	mov	esi, eax
	add	esp, 12					; 0000000cH
	add	esi, edi
	jmp	SHORT $LN11@erase@19
$LN10@erase@19:
	mov	esi, ebx
$LN11@erase@19:
	mov	eax, DWORD PTR [ebp+4]
	push	eax
	push	esi
	call	??$_Destroy_Range@PAM@stlp_std@@YAXPAM0@Z ; stlp_std::_Destroy_Range<float *>
	add	esp, 8
	pop	edi
	mov	DWORD PTR [ebp+4], esi
	pop	esi
$LN18@erase@19:
	mov	eax, ebx
	pop	ebp

; 593  :   }

	ret	4
?erase@?$_Impl_vector@MV?$xalloc@M@@@priv@stlp_std@@QAEPAMPAM0@Z ENDP ; stlp_std::priv::_Impl_vector<float,xalloc<float> >::erase
; Function compile flags: /Ogtpy
_TEXT	ENDS
;	COMDAT ?erase@?$_Impl_vector@GV?$xalloc@G@@@priv@stlp_std@@QAEPAGPAG0@Z
_TEXT	SEGMENT
_this$ = 8						; size = 4
?erase@?$_Impl_vector@GV?$xalloc@G@@@priv@stlp_std@@QAEPAGPAG0@Z PROC ; stlp_std::priv::_Impl_vector<unsigned short,xalloc<unsigned short> >::erase, COMDAT
; ___first$ = ebx
; ___last$ = eax

; 590  :     if (__first == __last)

	cmp	ebx, eax
	push	ebp
	mov	ebp, DWORD PTR _this$[esp]

; 591  :       return __first;

	je	SHORT $LN18@erase@20
	push	esi
	push	edi

; 592  :     return _M_erase(__first, __last, _Movable());

	mov	edi, DWORD PTR [ebp+4]
	sub	edi, eax
	je	SHORT $LN10@erase@20
	push	edi
	push	eax
	push	ebx
	call	DWORD PTR __imp__memmove
	mov	esi, eax
	add	esp, 12					; 0000000cH
	add	esi, edi
	jmp	SHORT $LN11@erase@20
$LN10@erase@20:
	mov	esi, ebx
$LN11@erase@20:
	mov	eax, DWORD PTR [ebp+4]
	push	eax
	push	esi
	call	??$_Destroy_Range@PAG@stlp_std@@YAXPAG0@Z ; stlp_std::_Destroy_Range<unsigned short *>
	add	esp, 8
	pop	edi
	mov	DWORD PTR [ebp+4], esi
	pop	esi
$LN18@erase@20:
	mov	eax, ebx
	pop	ebp

; 593  :   }

	ret	4
?erase@?$_Impl_vector@GV?$xalloc@G@@@priv@stlp_std@@QAEPAGPAG0@Z ENDP ; stlp_std::priv::_Impl_vector<unsigned short,xalloc<unsigned short> >::erase
; Function compile flags: /Ogtpy
_TEXT	ENDS
;	COMDAT ??A?$_Impl_vector@PAXV?$xalloc@PAX@@@priv@stlp_std@@QAEAAPAXI@Z
_TEXT	SEGMENT
??A?$_Impl_vector@PAXV?$xalloc@PAX@@@priv@stlp_std@@QAEAAPAXI@Z PROC ; stlp_std::priv::_Impl_vector<void *,xalloc<void *> >::operator[], COMDAT
; _this$ = eax
; ___n$ = edx

; 190  :   reference operator[](size_type __n) { return *(begin() + __n); }

	mov	ecx, DWORD PTR [eax]
	lea	eax, DWORD PTR [ecx+edx*4]
	ret	0
??A?$_Impl_vector@PAXV?$xalloc@PAX@@@priv@stlp_std@@QAEAAPAXI@Z ENDP ; stlp_std::priv::_Impl_vector<void *,xalloc<void *> >::operator[]
; Function compile flags: /Ogtpy
; File d:\clearsky\sources\sdk\include\stlport\stl\pointers\_tools.h
_TEXT	ENDS
;	COMDAT ?to_value_type_ptr@?$_CastTraits@PAXPAUSThunderboltCollection@@@priv@stlp_std@@SAPAPAUSThunderboltCollection@@PAPAX@Z
_TEXT	SEGMENT
?to_value_type_ptr@?$_CastTraits@PAXPAUSThunderboltCollection@@@priv@stlp_std@@SAPAPAUSThunderboltCollection@@PAPAX@Z PROC ; stlp_std::priv::_CastTraits<void *,SThunderboltCollection *>::to_value_type_ptr, COMDAT
; ___ptr$ = eax

; 207  :   { return __REINTERPRET_CAST(value_type *, cv_traits::cv_ptr(__ptr)); }

	push	eax
	call	?cv_ptr@?$_VoidCastTraitsAux@PAXPAX@priv@stlp_std@@SAPAPAXPAPAX@Z ; stlp_std::priv::_VoidCastTraitsAux<void *,void *>::cv_ptr
	add	esp, 4
	ret	0
?to_value_type_ptr@?$_CastTraits@PAXPAUSThunderboltCollection@@@priv@stlp_std@@SAPAPAUSThunderboltCollection@@PAPAX@Z ENDP ; stlp_std::priv::_CastTraits<void *,SThunderboltCollection *>::to_value_type_ptr
; Function compile flags: /Ogtpy
_TEXT	ENDS
;	COMDAT ?to_storage_type_cref@?$_CastTraits@PAXPAVCLensFlareDescriptor@@@priv@stlp_std@@SAABQAXABQAVCLensFlareDescriptor@@@Z
_TEXT	SEGMENT
?to_storage_type_cref@?$_CastTraits@PAXPAVCLensFlareDescriptor@@@priv@stlp_std@@SAABQAXABQAVCLensFlareDescriptor@@@Z PROC ; stlp_std::priv::_CastTraits<void *,CLensFlareDescriptor *>::to_storage_type_cref, COMDAT
; ___ref$ = eax

; 224  :   { return cv_traits::uncv_cref(__REINTERPRET_CAST(void_cv_type const&, __ref)); }

	ret	0
?to_storage_type_cref@?$_CastTraits@PAXPAVCLensFlareDescriptor@@@priv@stlp_std@@SAABQAXABQAVCLensFlareDescriptor@@@Z ENDP ; stlp_std::priv::_CastTraits<void *,CLensFlareDescriptor *>::to_storage_type_cref
; Function compile flags: /Ogtpy
_TEXT	ENDS
;	COMDAT ?to_value_type_ptr@?$_CastTraits@PAXPAVCLensFlareDescriptor@@@priv@stlp_std@@SAPAPAVCLensFlareDescriptor@@PAPAX@Z
_TEXT	SEGMENT
?to_value_type_ptr@?$_CastTraits@PAXPAVCLensFlareDescriptor@@@priv@stlp_std@@SAPAPAVCLensFlareDescriptor@@PAPAX@Z PROC ; stlp_std::priv::_CastTraits<void *,CLensFlareDescriptor *>::to_value_type_ptr, COMDAT
; ___ptr$ = eax

; 207  :   { return __REINTERPRET_CAST(value_type *, cv_traits::cv_ptr(__ptr)); }

	push	eax
	call	?cv_ptr@?$_VoidCastTraitsAux@PAXPAX@priv@stlp_std@@SAPAPAXPAPAX@Z ; stlp_std::priv::_VoidCastTraitsAux<void *,void *>::cv_ptr
	add	esp, 4
	ret	0
?to_value_type_ptr@?$_CastTraits@PAXPAVCLensFlareDescriptor@@@priv@stlp_std@@SAPAPAVCLensFlareDescriptor@@PAPAX@Z ENDP ; stlp_std::priv::_CastTraits<void *,CLensFlareDescriptor *>::to_value_type_ptr
; Function compile flags: /Ogtpy
_TEXT	ENDS
;	COMDAT ?to_value_type_ref@?$_CastTraits@PAXPAVCEnvDescriptor@@@priv@stlp_std@@SAAAPAVCEnvDescriptor@@AAPAX@Z
_TEXT	SEGMENT
?to_value_type_ref@?$_CastTraits@PAXPAVCEnvDescriptor@@@priv@stlp_std@@SAAAPAVCEnvDescriptor@@AAPAX@Z PROC ; stlp_std::priv::_CastTraits<void *,CEnvDescriptor *>::to_value_type_ref, COMDAT
; ___ref$ = eax

; 213  :   { return __REINTERPRET_CAST(value_type &, cv_traits::cv_ref(__ref)); }

	ret	0
?to_value_type_ref@?$_CastTraits@PAXPAVCEnvDescriptor@@@priv@stlp_std@@SAAAPAVCEnvDescriptor@@AAPAX@Z ENDP ; stlp_std::priv::_CastTraits<void *,CEnvDescriptor *>::to_value_type_ref
; Function compile flags: /Ogtpy
_TEXT	ENDS
;	COMDAT ?to_value_type_ptr@?$_CastTraits@PAXPAVCEnvDescriptor@@@priv@stlp_std@@SAPAPAVCEnvDescriptor@@PAPAX@Z
_TEXT	SEGMENT
?to_value_type_ptr@?$_CastTraits@PAXPAVCEnvDescriptor@@@priv@stlp_std@@SAPAPAVCEnvDescriptor@@PAPAX@Z PROC ; stlp_std::priv::_CastTraits<void *,CEnvDescriptor *>::to_value_type_ptr, COMDAT
; ___ptr$ = eax

; 207  :   { return __REINTERPRET_CAST(value_type *, cv_traits::cv_ptr(__ptr)); }

	push	eax
	call	?cv_ptr@?$_VoidCastTraitsAux@PAXPAX@priv@stlp_std@@SAPAPAXPAPAX@Z ; stlp_std::priv::_VoidCastTraitsAux<void *,void *>::cv_ptr
	add	esp, 4
	ret	0
?to_value_type_ptr@?$_CastTraits@PAXPAVCEnvDescriptor@@@priv@stlp_std@@SAPAPAVCEnvDescriptor@@PAPAX@Z ENDP ; stlp_std::priv::_CastTraits<void *,CEnvDescriptor *>::to_value_type_ptr
; Function compile flags: /Ogtpy
; File d:\clearsky\sources\sdk\include\stlport\stl\_vector.h
_TEXT	ENDS
;	COMDAT ??0?$_Impl_vector@UParticle@CEffect_Rain@@V?$xalloc@UParticle@CEffect_Rain@@@@@priv@stlp_std@@QAE@ABV012@@Z
_TEXT	SEGMENT
??0?$_Impl_vector@UParticle@CEffect_Rain@@V?$xalloc@UParticle@CEffect_Rain@@@@@priv@stlp_std@@QAE@ABV012@@Z PROC ; stlp_std::priv::_Impl_vector<CEffect_Rain::Particle,xalloc<CEffect_Rain::Particle> >::_Impl_vector<CEffect_Rain::Particle,xalloc<CEffect_Rain::Particle> >, COMDAT
; _this$ = esi
; ___x$ = eax

; 236  :   { this->_M_finish = _STLP_PRIV __ucopy_ptrs(__x.begin(), __x.end(), this->_M_start, _TrivialUCopy()); }

	push	ebx
	mov	ebx, eax
	mov	ecx, DWORD PTR [ebx+4]
	sub	ecx, DWORD PTR [ebx]
	mov	eax, -1307163959			; b21642c9H
	imul	ecx
	add	edx, ecx
	sar	edx, 6
	mov	eax, edx
	shr	eax, 31					; 0000001fH
	push	edi
	add	eax, edx
	mov	edi, eax
	imul	edi, 92					; 0000005cH
	xor	ecx, ecx
	mov	DWORD PTR [esi], ecx
	mov	DWORD PTR [esi+4], ecx
	mov	DWORD PTR [esi+8], ecx
	mov	ecx, DWORD PTR __imp_?Memory@@3VxrMemory@@A
	push	edi
	call	DWORD PTR __imp_?mem_alloc@xrMemory@@QAEPAXI@Z
	add	edi, eax
	mov	DWORD PTR [esi], eax
	mov	DWORD PTR [esi+4], eax
	mov	DWORD PTR [esi+8], edi
	mov	ecx, DWORD PTR [ebx+4]
	mov	ebx, DWORD PTR [ebx]
	cmp	ecx, ebx
	je	SHORT $LN35@Impl_vecto@10
	mov	edi, ecx
	sub	edi, ebx
	push	edi
	push	ebx
	push	eax
	call	_memcpy
	add	esp, 12					; 0000000cH
	add	eax, edi
$LN35@Impl_vecto@10:
	pop	edi
	mov	DWORD PTR [esi+4], eax
	mov	eax, esi
	pop	ebx
	ret	0
??0?$_Impl_vector@UParticle@CEffect_Rain@@V?$xalloc@UParticle@CEffect_Rain@@@@@priv@stlp_std@@QAE@ABV012@@Z ENDP ; stlp_std::priv::_Impl_vector<CEffect_Rain::Particle,xalloc<CEffect_Rain::Particle> >::_Impl_vector<CEffect_Rain::Particle,xalloc<CEffect_Rain::Particle> >
; Function compile flags: /Ogtpy
_TEXT	ENDS
;	COMDAT ??0?$_Impl_vector@UItem@CEffect_Rain@@V?$xalloc@UItem@CEffect_Rain@@@@@priv@stlp_std@@QAE@ABV012@@Z
_TEXT	SEGMENT
??0?$_Impl_vector@UItem@CEffect_Rain@@V?$xalloc@UItem@CEffect_Rain@@@@@priv@stlp_std@@QAE@ABV012@@Z PROC ; stlp_std::priv::_Impl_vector<CEffect_Rain::Item,xalloc<CEffect_Rain::Item> >::_Impl_vector<CEffect_Rain::Item,xalloc<CEffect_Rain::Item> >, COMDAT
; _this$ = esi
; ___x$ = eax

; 236  :   { this->_M_finish = _STLP_PRIV __ucopy_ptrs(__x.begin(), __x.end(), this->_M_start, _TrivialUCopy()); }

	push	ebx
	mov	ebx, eax
	mov	ecx, DWORD PTR [ebx+4]
	sub	ecx, DWORD PTR [ebx]
	mov	eax, 1321528399				; 4ec4ec4fH
	imul	ecx
	sar	edx, 4
	mov	eax, edx
	shr	eax, 31					; 0000001fH
	push	edi
	add	eax, edx
	mov	edi, eax
	imul	edi, 52					; 00000034H
	xor	ecx, ecx
	mov	DWORD PTR [esi], ecx
	mov	DWORD PTR [esi+4], ecx
	mov	DWORD PTR [esi+8], ecx
	mov	ecx, DWORD PTR __imp_?Memory@@3VxrMemory@@A
	push	edi
	call	DWORD PTR __imp_?mem_alloc@xrMemory@@QAEPAXI@Z
	add	edi, eax
	mov	DWORD PTR [esi], eax
	mov	DWORD PTR [esi+4], eax
	mov	DWORD PTR [esi+8], edi
	mov	ecx, DWORD PTR [ebx+4]
	mov	ebx, DWORD PTR [ebx]
	cmp	ecx, ebx
	je	SHORT $LN35@Impl_vecto@11
	mov	edi, ecx
	sub	edi, ebx
	push	edi
	push	ebx
	push	eax
	call	_memcpy
	add	esp, 12					; 0000000cH
	add	eax, edi
$LN35@Impl_vecto@11:
	pop	edi
	mov	DWORD PTR [esi+4], eax
	mov	eax, esi
	pop	ebx
	ret	0
??0?$_Impl_vector@UItem@CEffect_Rain@@V?$xalloc@UItem@CEffect_Rain@@@@@priv@stlp_std@@QAE@ABV012@@Z ENDP ; stlp_std::priv::_Impl_vector<CEffect_Rain::Item,xalloc<CEffect_Rain::Item> >::_Impl_vector<CEffect_Rain::Item,xalloc<CEffect_Rain::Item> >
; Function compile flags: /Ogtpy
_TEXT	ENDS
;	COMDAT ??0?$_Impl_vector@Urq_result@collide@@V?$xalloc@Urq_result@collide@@@@@priv@stlp_std@@QAE@ABV012@@Z
_TEXT	SEGMENT
??0?$_Impl_vector@Urq_result@collide@@V?$xalloc@Urq_result@collide@@@@@priv@stlp_std@@QAE@ABV012@@Z PROC ; stlp_std::priv::_Impl_vector<collide::rq_result,xalloc<collide::rq_result> >::_Impl_vector<collide::rq_result,xalloc<collide::rq_result> >, COMDAT
; _this$ = esi
; ___x$ = eax

; 236  :   { this->_M_finish = _STLP_PRIV __ucopy_ptrs(__x.begin(), __x.end(), this->_M_start, _TrivialUCopy()); }

	push	ebx
	mov	ebx, eax
	mov	ecx, DWORD PTR [ebx+4]
	sub	ecx, DWORD PTR [ebx]
	mov	eax, 715827883				; 2aaaaaabH
	imul	ecx
	sar	edx, 1
	mov	eax, edx
	push	edi
	shr	eax, 31					; 0000001fH
	add	eax, edx
	xor	ecx, ecx
	lea	edi, DWORD PTR [eax+eax*2]
	mov	DWORD PTR [esi], ecx
	mov	DWORD PTR [esi+4], ecx
	add	edi, edi
	mov	DWORD PTR [esi+8], ecx
	mov	ecx, DWORD PTR __imp_?Memory@@3VxrMemory@@A
	add	edi, edi
	push	edi
	call	DWORD PTR __imp_?mem_alloc@xrMemory@@QAEPAXI@Z
	add	edi, eax
	mov	DWORD PTR [esi], eax
	mov	DWORD PTR [esi+4], eax
	mov	DWORD PTR [esi+8], edi
	mov	ecx, DWORD PTR [ebx+4]
	mov	ebx, DWORD PTR [ebx]
	cmp	ecx, ebx
	je	SHORT $LN35@Impl_vecto@12
	mov	edi, ecx
	sub	edi, ebx
	push	edi
	push	ebx
	push	eax
	call	_memcpy
	add	esp, 12					; 0000000cH
	add	eax, edi
$LN35@Impl_vecto@12:
	pop	edi
	mov	DWORD PTR [esi+4], eax
	mov	eax, esi
	pop	ebx
	ret	0
??0?$_Impl_vector@Urq_result@collide@@V?$xalloc@Urq_result@collide@@@@@priv@stlp_std@@QAE@ABV012@@Z ENDP ; stlp_std::priv::_Impl_vector<collide::rq_result,xalloc<collide::rq_result> >::_Impl_vector<collide::rq_result,xalloc<collide::rq_result> >
; Function compile flags: /Ogtpy
_TEXT	ENDS
;	COMDAT ?rend@?$_Impl_vector@Urq_result@collide@@V?$xalloc@Urq_result@collide@@@@@priv@stlp_std@@QAE?AV?$reverse_iterator@PAUrq_result@collide@@@3@XZ
_TEXT	SEGMENT
?rend@?$_Impl_vector@Urq_result@collide@@V?$xalloc@Urq_result@collide@@@@@priv@stlp_std@@QAE?AV?$reverse_iterator@PAUrq_result@collide@@@3@XZ PROC ; stlp_std::priv::_Impl_vector<collide::rq_result,xalloc<collide::rq_result> >::rend, COMDAT
; _this$ = ecx
; ___$ReturnUdt$ = eax

; 177  :   reverse_iterator rend()                { return reverse_iterator(begin()); }

	mov	edx, DWORD PTR [ecx]
	mov	DWORD PTR [eax], edx
	ret	0
?rend@?$_Impl_vector@Urq_result@collide@@V?$xalloc@Urq_result@collide@@@@@priv@stlp_std@@QAE?AV?$reverse_iterator@PAUrq_result@collide@@@3@XZ ENDP ; stlp_std::priv::_Impl_vector<collide::rq_result,xalloc<collide::rq_result> >::rend
; Function compile flags: /Ogtpy
_TEXT	ENDS
;	COMDAT ?rbegin@?$_Impl_vector@Urq_result@collide@@V?$xalloc@Urq_result@collide@@@@@priv@stlp_std@@QAE?AV?$reverse_iterator@PAUrq_result@collide@@@3@XZ
_TEXT	SEGMENT
?rbegin@?$_Impl_vector@Urq_result@collide@@V?$xalloc@Urq_result@collide@@@@@priv@stlp_std@@QAE?AV?$reverse_iterator@PAUrq_result@collide@@@3@XZ PROC ; stlp_std::priv::_Impl_vector<collide::rq_result,xalloc<collide::rq_result> >::rbegin, COMDAT
; _this$ = ecx
; ___$ReturnUdt$ = eax

; 175  :   reverse_iterator rbegin()              { return reverse_iterator(end()); }

	mov	edx, DWORD PTR [ecx+4]
	mov	DWORD PTR [eax], edx
	ret	0
?rbegin@?$_Impl_vector@Urq_result@collide@@V?$xalloc@Urq_result@collide@@@@@priv@stlp_std@@QAE?AV?$reverse_iterator@PAUrq_result@collide@@@3@XZ ENDP ; stlp_std::priv::_Impl_vector<collide::rq_result,xalloc<collide::rq_result> >::rbegin
; Function compile flags: /Ogtpy
; File d:\clearsky\sources\sdk\include\stlport\stl\_tree.h
_TEXT	ENDS
;	COMDAT ?end@?$_Rb_tree@Vshared_str@@Ustr_pred@CEnvironment@@U?$pair@$$CBVshared_str@@V?$xr_vector@PAVCEnvDescriptor@@V?$xalloc@PAVCEnvDescriptor@@@@@@@stlp_std@@U?$_Select1st@U?$pair@$$CBVshared_str@@V?$xr_vector@PAVCEnvDescriptor@@V?$xalloc@PAVCEnvDescriptor@@@@@@@stlp_std@@@priv@5@U?$_MapTraitsT@U?$pair@$$CBVshared_str@@V?$xr_vector@PAVCEnvDescriptor@@V?$xalloc@PAVCEnvDescriptor@@@@@@@stlp_std@@@75@V?$xalloc@U?$pair@Vshared_str@@V?$xr_vector@PAVCEnvDescriptor@@V?$xalloc@PAVCEnvDescriptor@@@@@@@stlp_std@@@@@priv@stlp_std@@QAE?AU?$_Rb_tree_iterator@U?$pair@$$CBVshared_str@@V?$xr_vector@PAVCEnvDescriptor@@V?$xalloc@PAVCEnvDescriptor@@@@@@@stlp_std@@U?$_MapTraitsT@U?$pair@$$CBVshared_str@@V?$xr_vector@PAVCEnvDescriptor@@V?$xalloc@PAVCEnvDescriptor@@@@@@@stlp_std@@@priv@2@@23@XZ
_TEXT	SEGMENT
?end@?$_Rb_tree@Vshared_str@@Ustr_pred@CEnvironment@@U?$pair@$$CBVshared_str@@V?$xr_vector@PAVCEnvDescriptor@@V?$xalloc@PAVCEnvDescriptor@@@@@@@stlp_std@@U?$_Select1st@U?$pair@$$CBVshared_str@@V?$xr_vector@PAVCEnvDescriptor@@V?$xalloc@PAVCEnvDescriptor@@@@@@@stlp_std@@@priv@5@U?$_MapTraitsT@U?$pair@$$CBVshared_str@@V?$xr_vector@PAVCEnvDescriptor@@V?$xalloc@PAVCEnvDescriptor@@@@@@@stlp_std@@@75@V?$xalloc@U?$pair@Vshared_str@@V?$xr_vector@PAVCEnvDescriptor@@V?$xalloc@PAVCEnvDescriptor@@@@@@@stlp_std@@@@@priv@stlp_std@@QAE?AU?$_Rb_tree_iterator@U?$pair@$$CBVshared_str@@V?$xr_vector@PAVCEnvDescriptor@@V?$xalloc@PAVCEnvDescriptor@@@@@@@stlp_std@@U?$_MapTraitsT@U?$pair@$$CBVshared_str@@V?$xr_vector@PAVCEnvDescriptor@@V?$xalloc@PAVCEnvDescriptor@@@@@@@stlp_std@@@priv@2@@23@XZ PROC ; stlp_std::priv::_Rb_tree<shared_str,CEnvironment::str_pred,stlp_std::pair<shared_str const ,xr_vector<CEnvDescriptor *,xalloc<CEnvDescriptor *> > >,stlp_std::priv::_Select1st<stlp_std::pair<shared_str const ,xr_vector<CEnvDescriptor *,xalloc<CEnvDescriptor *> > > >,stlp_std::priv::_MapTraitsT<stlp_std::pair<shared_str const ,xr_vector<CEnvDescriptor *,xalloc<CEnvDescriptor *> > > >,xalloc<stlp_std::pair<shared_str,xr_vector<CEnvDescriptor *,xalloc<CEnvDescriptor *> > > > >::end, COMDAT
; _this$ = ecx
; ___$ReturnUdt$ = eax

; 418  :   iterator end() { return iterator(&this->_M_header._M_data); }

	mov	DWORD PTR [eax], ecx
	ret	0
?end@?$_Rb_tree@Vshared_str@@Ustr_pred@CEnvironment@@U?$pair@$$CBVshared_str@@V?$xr_vector@PAVCEnvDescriptor@@V?$xalloc@PAVCEnvDescriptor@@@@@@@stlp_std@@U?$_Select1st@U?$pair@$$CBVshared_str@@V?$xr_vector@PAVCEnvDescriptor@@V?$xalloc@PAVCEnvDescriptor@@@@@@@stlp_std@@@priv@5@U?$_MapTraitsT@U?$pair@$$CBVshared_str@@V?$xr_vector@PAVCEnvDescriptor@@V?$xalloc@PAVCEnvDescriptor@@@@@@@stlp_std@@@75@V?$xalloc@U?$pair@Vshared_str@@V?$xr_vector@PAVCEnvDescriptor@@V?$xalloc@PAVCEnvDescriptor@@@@@@@stlp_std@@@@@priv@stlp_std@@QAE?AU?$_Rb_tree_iterator@U?$pair@$$CBVshared_str@@V?$xr_vector@PAVCEnvDescriptor@@V?$xalloc@PAVCEnvDescriptor@@@@@@@stlp_std@@U?$_MapTraitsT@U?$pair@$$CBVshared_str@@V?$xr_vector@PAVCEnvDescriptor@@V?$xalloc@PAVCEnvDescriptor@@@@@@@stlp_std@@@priv@2@@23@XZ ENDP ; stlp_std::priv::_Rb_tree<shared_str,CEnvironment::str_pred,stlp_std::pair<shared_str const ,xr_vector<CEnvDescriptor *,xalloc<CEnvDescriptor *> > >,stlp_std::priv::_Select1st<stlp_std::pair<shared_str const ,xr_vector<CEnvDescriptor *,xalloc<CEnvDescriptor *> > > >,stlp_std::priv::_MapTraitsT<stlp_std::pair<shared_str const ,xr_vector<CEnvDescriptor *,xalloc<CEnvDescriptor *> > > >,xalloc<stlp_std::pair<shared_str,xr_vector<CEnvDescriptor *,xalloc<CEnvDescriptor *> > > > >::end
; Function compile flags: /Ogtpy
_TEXT	ENDS
;	COMDAT ??0?$_Rb_tree@Vshared_str@@Ustr_pred@CEnvironment@@U?$pair@$$CBVshared_str@@V?$xr_vector@PAVCEnvDescriptor@@V?$xalloc@PAVCEnvDescriptor@@@@@@@stlp_std@@U?$_Select1st@U?$pair@$$CBVshared_str@@V?$xr_vector@PAVCEnvDescriptor@@V?$xalloc@PAVCEnvDescriptor@@@@@@@stlp_std@@@priv@5@U?$_MapTraitsT@U?$pair@$$CBVshared_str@@V?$xr_vector@PAVCEnvDescriptor@@V?$xalloc@PAVCEnvDescriptor@@@@@@@stlp_std@@@75@V?$xalloc@U?$pair@Vshared_str@@V?$xr_vector@PAVCEnvDescriptor@@V?$xalloc@PAVCEnvDescriptor@@@@@@@stlp_std@@@@@priv@stlp_std@@QAE@ABUstr_pred@CEnvironment@@ABV?$xalloc@U?$pair@$$CBVshared_str@@V?$xr_vector@PAVCEnvDescriptor@@V?$xalloc@PAVCEnvDescriptor@@@@@@@stlp_std@@@@@Z
_TEXT	SEGMENT
??0?$_Rb_tree@Vshared_str@@Ustr_pred@CEnvironment@@U?$pair@$$CBVshared_str@@V?$xr_vector@PAVCEnvDescriptor@@V?$xalloc@PAVCEnvDescriptor@@@@@@@stlp_std@@U?$_Select1st@U?$pair@$$CBVshared_str@@V?$xr_vector@PAVCEnvDescriptor@@V?$xalloc@PAVCEnvDescriptor@@@@@@@stlp_std@@@priv@5@U?$_MapTraitsT@U?$pair@$$CBVshared_str@@V?$xr_vector@PAVCEnvDescriptor@@V?$xalloc@PAVCEnvDescriptor@@@@@@@stlp_std@@@75@V?$xalloc@U?$pair@Vshared_str@@V?$xr_vector@PAVCEnvDescriptor@@V?$xalloc@PAVCEnvDescriptor@@@@@@@stlp_std@@@@@priv@stlp_std@@QAE@ABUstr_pred@CEnvironment@@ABV?$xalloc@U?$pair@$$CBVshared_str@@V?$xr_vector@PAVCEnvDescriptor@@V?$xalloc@PAVCEnvDescriptor@@@@@@@stlp_std@@@@@Z PROC ; stlp_std::priv::_Rb_tree<shared_str,CEnvironment::str_pred,stlp_std::pair<shared_str const ,xr_vector<CEnvDescriptor *,xalloc<CEnvDescriptor *> > >,stlp_std::priv::_Select1st<stlp_std::pair<shared_str const ,xr_vector<CEnvDescriptor *,xalloc<CEnvDescriptor *> > > >,stlp_std::priv::_MapTraitsT<stlp_std::pair<shared_str const ,xr_vector<CEnvDescriptor *,xalloc<CEnvDescriptor *> > > >,xalloc<stlp_std::pair<shared_str,xr_vector<CEnvDescriptor *,xalloc<CEnvDescriptor *> > > > >::_Rb_tree<shared_str,CEnvironment::str_pred,stlp_std::pair<shared_str const ,xr_vector<CEnvDescriptor *,xalloc<CEnvDescriptor *> > >,stlp_std::priv::_Select1st<stlp_std::pair<shared_str const ,xr_vector<CEnvDescriptor *,xalloc<CEnvDescriptor *> > > >,stlp_std::priv::_MapTraitsT<stlp_std::pair<shared_str const ,xr_vector<CEnvDescriptor *,xalloc<CEnvDescriptor *> > > >,xalloc<stlp_std::pair<shared_str,xr_vector<CEnvDescriptor *,xalloc<CEnvDescriptor *> > > > >, COMDAT
; _this$ = esi
; ___a$ = eax

; 388  :     {}

	push	eax
	mov	ecx, esi
	call	??0?$_Rb_tree_base@U?$pair@$$CBVshared_str@@V?$xr_vector@PAVCEnvDescriptor@@V?$xalloc@PAVCEnvDescriptor@@@@@@@stlp_std@@V?$xalloc@U?$pair@Vshared_str@@V?$xr_vector@PAVCEnvDescriptor@@V?$xalloc@PAVCEnvDescriptor@@@@@@@stlp_std@@@@@priv@stlp_std@@IAE@ABV?$xalloc@U?$pair@$$CBVshared_str@@V?$xr_vector@PAVCEnvDescriptor@@V?$xalloc@PAVCEnvDescriptor@@@@@@@stlp_std@@@@@Z ; stlp_std::priv::_Rb_tree_base<stlp_std::pair<shared_str const ,xr_vector<CEnvDescriptor *,xalloc<CEnvDescriptor *> > >,xalloc<stlp_std::pair<shared_str,xr_vector<CEnvDescriptor *,xalloc<CEnvDescriptor *> > > > >::_Rb_tree_base<stlp_std::pair<shared_str const ,xr_vector<CEnvDescriptor *,xalloc<CEnvDescriptor *> > >,xalloc<stlp_std::pair<shared_str,xr_vector<CEnvDescriptor *,xalloc<CEnvDescriptor *> > > > >
	mov	DWORD PTR [esi+16], 0
	mov	eax, esi
	ret	0
??0?$_Rb_tree@Vshared_str@@Ustr_pred@CEnvironment@@U?$pair@$$CBVshared_str@@V?$xr_vector@PAVCEnvDescriptor@@V?$xalloc@PAVCEnvDescriptor@@@@@@@stlp_std@@U?$_Select1st@U?$pair@$$CBVshared_str@@V?$xr_vector@PAVCEnvDescriptor@@V?$xalloc@PAVCEnvDescriptor@@@@@@@stlp_std@@@priv@5@U?$_MapTraitsT@U?$pair@$$CBVshared_str@@V?$xr_vector@PAVCEnvDescriptor@@V?$xalloc@PAVCEnvDescriptor@@@@@@@stlp_std@@@75@V?$xalloc@U?$pair@Vshared_str@@V?$xr_vector@PAVCEnvDescriptor@@V?$xalloc@PAVCEnvDescriptor@@@@@@@stlp_std@@@@@priv@stlp_std@@QAE@ABUstr_pred@CEnvironment@@ABV?$xalloc@U?$pair@$$CBVshared_str@@V?$xr_vector@PAVCEnvDescriptor@@V?$xalloc@PAVCEnvDescriptor@@@@@@@stlp_std@@@@@Z ENDP ; stlp_std::priv::_Rb_tree<shared_str,CEnvironment::str_pred,stlp_std::pair<shared_str const ,xr_vector<CEnvDescriptor *,xalloc<CEnvDescriptor *> > >,stlp_std::priv::_Select1st<stlp_std::pair<shared_str const ,xr_vector<CEnvDescriptor *,xalloc<CEnvDescriptor *> > > >,stlp_std::priv::_MapTraitsT<stlp_std::pair<shared_str const ,xr_vector<CEnvDescriptor *,xalloc<CEnvDescriptor *> > > >,xalloc<stlp_std::pair<shared_str,xr_vector<CEnvDescriptor *,xalloc<CEnvDescriptor *> > > > >::_Rb_tree<shared_str,CEnvironment::str_pred,stlp_std::pair<shared_str const ,xr_vector<CEnvDescriptor *,xalloc<CEnvDescriptor *> > >,stlp_std::priv::_Select1st<stlp_std::pair<shared_str const ,xr_vector<CEnvDescriptor *,xalloc<CEnvDescriptor *> > > >,stlp_std::priv::_MapTraitsT<stlp_std::pair<shared_str const ,xr_vector<CEnvDescriptor *,xalloc<CEnvDescriptor *> > > >,xalloc<stlp_std::pair<shared_str,xr_vector<CEnvDescriptor *,xalloc<CEnvDescriptor *> > > > >
; Function compile flags: /Ogtpy
; File d:\clearsky\sources\sdk\include\stlport\stl\pointers\_vector.h
_TEXT	ENDS
;	COMDAT ?size@?$vector@PAVCEnvDescriptor@@V?$xalloc@PAVCEnvDescriptor@@@@@stlp_std@@QBEIXZ
_TEXT	SEGMENT
?size@?$vector@PAVCEnvDescriptor@@V?$xalloc@PAVCEnvDescriptor@@@@@stlp_std@@QBEIXZ PROC ; stlp_std::vector<CEnvDescriptor *,xalloc<CEnvDescriptor *> >::size, COMDAT
; _this$ = ecx

; 89   :   size_type size() const        { return _M_impl.size(); }

	mov	eax, DWORD PTR [ecx+4]
	sub	eax, DWORD PTR [ecx]
	sar	eax, 2
	ret	0
?size@?$vector@PAVCEnvDescriptor@@V?$xalloc@PAVCEnvDescriptor@@@@@stlp_std@@QBEIXZ ENDP ; stlp_std::vector<CEnvDescriptor *,xalloc<CEnvDescriptor *> >::size
; Function compile flags: /Ogtpy
; File d:\clearsky\sources\sdk\include\stlport\stl\_vector.h
_TEXT	ENDS
;	COMDAT ?front@?$_Impl_vector@GV?$xalloc@G@@@priv@stlp_std@@QAEAAGXZ
_TEXT	SEGMENT
?front@?$_Impl_vector@GV?$xalloc@G@@@priv@stlp_std@@QAEAAGXZ PROC ; stlp_std::priv::_Impl_vector<unsigned short,xalloc<unsigned short> >::front, COMDAT
; _this$ = ecx

; 193  :   reference front()             { return *begin(); }

	jmp	?begin@?$_Impl_vector@GV?$xalloc@G@@@priv@stlp_std@@QAEPAGXZ ; stlp_std::priv::_Impl_vector<unsigned short,xalloc<unsigned short> >::begin
?front@?$_Impl_vector@GV?$xalloc@G@@@priv@stlp_std@@QAEAAGXZ ENDP ; stlp_std::priv::_Impl_vector<unsigned short,xalloc<unsigned short> >::front
; Function compile flags: /Ogtpy
; File d:\clearsky\sources\sdk\include\stlport\stl\pointers\_vector.h
_TEXT	ENDS
;	COMDAT ?size@?$vector@GV?$xalloc@G@@@stlp_std@@QBEIXZ
_TEXT	SEGMENT
?size@?$vector@GV?$xalloc@G@@@stlp_std@@QBEIXZ PROC	; stlp_std::vector<unsigned short,xalloc<unsigned short> >::size, COMDAT
; _this$ = ecx

; 89   :   size_type size() const        { return _M_impl.size(); }

	jmp	?size@?$_Impl_vector@GV?$xalloc@G@@@priv@stlp_std@@QBEIXZ ; stlp_std::priv::_Impl_vector<unsigned short,xalloc<unsigned short> >::size
?size@?$vector@GV?$xalloc@G@@@stlp_std@@QBEIXZ ENDP	; stlp_std::vector<unsigned short,xalloc<unsigned short> >::size
; Function compile flags: /Ogtpy
; File d:\clearsky\sources\sdk\include\stlport\stl\_vector.h
_TEXT	ENDS
;	COMDAT ?front@?$_Impl_vector@U?$_vector3@M@@V?$xalloc@U?$_vector3@M@@@@@priv@stlp_std@@QAEAAU?$_vector3@M@@XZ
_TEXT	SEGMENT
?front@?$_Impl_vector@U?$_vector3@M@@V?$xalloc@U?$_vector3@M@@@@@priv@stlp_std@@QAEAAU?$_vector3@M@@XZ PROC ; stlp_std::priv::_Impl_vector<_vector3<float>,xalloc<_vector3<float> > >::front, COMDAT
; _this$ = eax

; 193  :   reference front()             { return *begin(); }

	mov	eax, DWORD PTR [eax]
	ret	0
?front@?$_Impl_vector@U?$_vector3@M@@V?$xalloc@U?$_vector3@M@@@@@priv@stlp_std@@QAEAAU?$_vector3@M@@XZ ENDP ; stlp_std::priv::_Impl_vector<_vector3<float>,xalloc<_vector3<float> > >::front
; Function compile flags: /Ogtpy
_TEXT	ENDS
;	COMDAT ?at@?$_Impl_vector@PAXV?$xalloc@PAX@@@priv@stlp_std@@QAEAAPAXI@Z
_TEXT	SEGMENT
?at@?$_Impl_vector@PAXV?$xalloc@PAX@@@priv@stlp_std@@QAEAAPAXI@Z PROC ; stlp_std::priv::_Impl_vector<void *,xalloc<void *> >::at, COMDAT
; _this$ = ecx
; ___n$ = edx

; 198  :   reference at(size_type __n) { _M_range_check(__n); return (*this)[__n]; }

	mov	eax, DWORD PTR [ecx]
	mov	ecx, DWORD PTR [ecx+4]
	sub	ecx, eax
	sar	ecx, 2
	cmp	edx, ecx
	jb	SHORT $LN3@at
	push	OFFSET ??_C@_06NBFPPGEG@vector?$AA@
	call	DWORD PTR __imp__puts
	add	esp, 4
	jmp	DWORD PTR __imp__abort
$LN3@at:
	lea	eax, DWORD PTR [eax+edx*4]
	ret	0
?at@?$_Impl_vector@PAXV?$xalloc@PAX@@@priv@stlp_std@@QAEAAPAXI@Z ENDP ; stlp_std::priv::_Impl_vector<void *,xalloc<void *> >::at
; Function compile flags: /Ogtpy
_TEXT	ENDS
;	COMDAT ?front@?$_Impl_vector@PAXV?$xalloc@PAX@@@priv@stlp_std@@QAEAAPAXXZ
_TEXT	SEGMENT
?front@?$_Impl_vector@PAXV?$xalloc@PAX@@@priv@stlp_std@@QAEAAPAXXZ PROC ; stlp_std::priv::_Impl_vector<void *,xalloc<void *> >::front, COMDAT
; _this$ = eax

; 193  :   reference front()             { return *begin(); }

	mov	eax, DWORD PTR [eax]
	ret	0
?front@?$_Impl_vector@PAXV?$xalloc@PAX@@@priv@stlp_std@@QAEAAPAXXZ ENDP ; stlp_std::priv::_Impl_vector<void *,xalloc<void *> >::front
; Function compile flags: /Ogtpy
; File d:\clearsky\sources\sdk\include\stlport\stl\_tree.h
_TEXT	ENDS
;	COMDAT ??0?$_Rb_tree_iterator@U?$pair@$$CBVshared_str@@V?$xr_vector@PAVCEnvDescriptor@@V?$xalloc@PAVCEnvDescriptor@@@@@@@stlp_std@@U?$_ConstMapTraitsT@U?$pair@$$CBVshared_str@@V?$xr_vector@PAVCEnvDescriptor@@V?$xalloc@PAVCEnvDescriptor@@@@@@@stlp_std@@@priv@2@@priv@stlp_std@@QAE@ABU?$_Rb_tree_iterator@U?$pair@$$CBVshared_str@@V?$xr_vector@PAVCEnvDescriptor@@V?$xalloc@PAVCEnvDescriptor@@@@@@@stlp_std@@U?$_MapTraitsT@U?$pair@$$CBVshared_str@@V?$xr_vector@PAVCEnvDescriptor@@V?$xalloc@PAVCEnvDescriptor@@@@@@@stlp_std@@@priv@2@@12@@Z
_TEXT	SEGMENT
??0?$_Rb_tree_iterator@U?$pair@$$CBVshared_str@@V?$xr_vector@PAVCEnvDescriptor@@V?$xalloc@PAVCEnvDescriptor@@@@@@@stlp_std@@U?$_ConstMapTraitsT@U?$pair@$$CBVshared_str@@V?$xr_vector@PAVCEnvDescriptor@@V?$xalloc@PAVCEnvDescriptor@@@@@@@stlp_std@@@priv@2@@priv@stlp_std@@QAE@ABU?$_Rb_tree_iterator@U?$pair@$$CBVshared_str@@V?$xr_vector@PAVCEnvDescriptor@@V?$xalloc@PAVCEnvDescriptor@@@@@@@stlp_std@@U?$_MapTraitsT@U?$pair@$$CBVshared_str@@V?$xr_vector@PAVCEnvDescriptor@@V?$xalloc@PAVCEnvDescriptor@@@@@@@stlp_std@@@priv@2@@12@@Z PROC ; stlp_std::priv::_Rb_tree_iterator<stlp_std::pair<shared_str const ,xr_vector<CEnvDescriptor *,xalloc<CEnvDescriptor *> > >,stlp_std::priv::_ConstMapTraitsT<stlp_std::pair<shared_str const ,xr_vector<CEnvDescriptor *,xalloc<CEnvDescriptor *> > > > >::_Rb_tree_iterator<stlp_std::pair<shared_str const ,xr_vector<CEnvDescriptor *,xalloc<CEnvDescriptor *> > >,stlp_std::priv::_ConstMapTraitsT<stlp_std::pair<shared_str const ,xr_vector<CEnvDescriptor *,xalloc<CEnvDescriptor *> > > > >, COMDAT
; _this$ = eax
; ___it$ = ecx

; 168  :   _Rb_tree_iterator(const iterator& __it) : _Rb_tree_base_iterator(__it._M_node) {}

	mov	edx, DWORD PTR [ecx]
	mov	DWORD PTR [eax], edx
	ret	0
??0?$_Rb_tree_iterator@U?$pair@$$CBVshared_str@@V?$xr_vector@PAVCEnvDescriptor@@V?$xalloc@PAVCEnvDescriptor@@@@@@@stlp_std@@U?$_ConstMapTraitsT@U?$pair@$$CBVshared_str@@V?$xr_vector@PAVCEnvDescriptor@@V?$xalloc@PAVCEnvDescriptor@@@@@@@stlp_std@@@priv@2@@priv@stlp_std@@QAE@ABU?$_Rb_tree_iterator@U?$pair@$$CBVshared_str@@V?$xr_vector@PAVCEnvDescriptor@@V?$xalloc@PAVCEnvDescriptor@@@@@@@stlp_std@@U?$_MapTraitsT@U?$pair@$$CBVshared_str@@V?$xr_vector@PAVCEnvDescriptor@@V?$xalloc@PAVCEnvDescriptor@@@@@@@stlp_std@@@priv@2@@12@@Z ENDP ; stlp_std::priv::_Rb_tree_iterator<stlp_std::pair<shared_str const ,xr_vector<CEnvDescriptor *,xalloc<CEnvDescriptor *> > >,stlp_std::priv::_ConstMapTraitsT<stlp_std::pair<shared_str const ,xr_vector<CEnvDescriptor *,xalloc<CEnvDescriptor *> > > > >::_Rb_tree_iterator<stlp_std::pair<shared_str const ,xr_vector<CEnvDescriptor *,xalloc<CEnvDescriptor *> > >,stlp_std::priv::_ConstMapTraitsT<stlp_std::pair<shared_str const ,xr_vector<CEnvDescriptor *,xalloc<CEnvDescriptor *> > > > >
; Function compile flags: /Ogtpy
; File d:\clearsky\sources\sdk\include\stlport\stl\pointers\_vector.h
_TEXT	ENDS
;	COMDAT ?end@?$vector@PAUSThunderboltCollection@@V?$xalloc@PAUSThunderboltCollection@@@@@stlp_std@@QAEPAPAUSThunderboltCollection@@XZ
_TEXT	SEGMENT
?end@?$vector@PAUSThunderboltCollection@@V?$xalloc@PAUSThunderboltCollection@@@@@stlp_std@@QAEPAPAUSThunderboltCollection@@XZ PROC ; stlp_std::vector<SThunderboltCollection *,xalloc<SThunderboltCollection *> >::end, COMDAT
; _this$ = eax

; 81   :   iterator end()               { return cast_traits::to_value_type_ptr(_M_impl.end()); }

	mov	eax, DWORD PTR [eax+4]
	push	eax
	call	?cv_ptr@?$_VoidCastTraitsAux@PAXPAX@priv@stlp_std@@SAPAPAXPAPAX@Z ; stlp_std::priv::_VoidCastTraitsAux<void *,void *>::cv_ptr
	add	esp, 4
	ret	0
?end@?$vector@PAUSThunderboltCollection@@V?$xalloc@PAUSThunderboltCollection@@@@@stlp_std@@QAEPAPAUSThunderboltCollection@@XZ ENDP ; stlp_std::vector<SThunderboltCollection *,xalloc<SThunderboltCollection *> >::end
; Function compile flags: /Ogtpy
_TEXT	ENDS
;	COMDAT ?begin@?$vector@PAUSThunderboltCollection@@V?$xalloc@PAUSThunderboltCollection@@@@@stlp_std@@QAEPAPAUSThunderboltCollection@@XZ
_TEXT	SEGMENT
?begin@?$vector@PAUSThunderboltCollection@@V?$xalloc@PAUSThunderboltCollection@@@@@stlp_std@@QAEPAPAUSThunderboltCollection@@XZ PROC ; stlp_std::vector<SThunderboltCollection *,xalloc<SThunderboltCollection *> >::begin, COMDAT
; _this$ = eax

; 79   :   iterator begin()             { return cast_traits::to_value_type_ptr(_M_impl.begin()); }

	mov	eax, DWORD PTR [eax]
	push	eax
	call	?cv_ptr@?$_VoidCastTraitsAux@PAXPAX@priv@stlp_std@@SAPAPAXPAPAX@Z ; stlp_std::priv::_VoidCastTraitsAux<void *,void *>::cv_ptr
	add	esp, 4
	ret	0
?begin@?$vector@PAUSThunderboltCollection@@V?$xalloc@PAUSThunderboltCollection@@@@@stlp_std@@QAEPAPAUSThunderboltCollection@@XZ ENDP ; stlp_std::vector<SThunderboltCollection *,xalloc<SThunderboltCollection *> >::begin
; Function compile flags: /Ogtpy
; File d:\clearsky\sources\sdk\include\stlport\stl\_vector.h
_TEXT	ENDS
;	COMDAT ??1?$_Impl_vector@UParticle@CEffect_Rain@@V?$xalloc@UParticle@CEffect_Rain@@@@@priv@stlp_std@@QAE@XZ
_TEXT	SEGMENT
??1?$_Impl_vector@UParticle@CEffect_Rain@@V?$xalloc@UParticle@CEffect_Rain@@@@@priv@stlp_std@@QAE@XZ PROC ; stlp_std::priv::_Impl_vector<CEffect_Rain::Particle,xalloc<CEffect_Rain::Particle> >::~_Impl_vector<CEffect_Rain::Particle,xalloc<CEffect_Rain::Particle> >, COMDAT
; _this$ = eax

; 286  :   ~vector() { _STLP_STD::_Destroy_Range(rbegin(), rend()); }

	mov	eax, DWORD PTR [eax]
	test	eax, eax
	je	SHORT $LN34@Impl_vecto@13
	mov	ecx, DWORD PTR __imp_?Memory@@3VxrMemory@@A
	push	eax
	call	DWORD PTR __imp_?mem_free@xrMemory@@QAEXPAX@Z
$LN34@Impl_vecto@13:
	ret	0
??1?$_Impl_vector@UParticle@CEffect_Rain@@V?$xalloc@UParticle@CEffect_Rain@@@@@priv@stlp_std@@QAE@XZ ENDP ; stlp_std::priv::_Impl_vector<CEffect_Rain::Particle,xalloc<CEffect_Rain::Particle> >::~_Impl_vector<CEffect_Rain::Particle,xalloc<CEffect_Rain::Particle> >
; Function compile flags: /Ogtpy
; File d:\clearsky\sources\sdk\include\stlport\stl\pointers\_vector.h
_TEXT	ENDS
;	COMDAT ??0?$vector@UParticle@CEffect_Rain@@V?$xalloc@UParticle@CEffect_Rain@@@@@stlp_std@@QAE@ABV01@@Z
_TEXT	SEGMENT
??0?$vector@UParticle@CEffect_Rain@@V?$xalloc@UParticle@CEffect_Rain@@@@@stlp_std@@QAE@ABV01@@Z PROC ; stlp_std::vector<CEffect_Rain::Particle,xalloc<CEffect_Rain::Particle> >::vector<CEffect_Rain::Particle,xalloc<CEffect_Rain::Particle> >, COMDAT
; _this$ = ecx
; ___x$ = eax

; 123  :   vector(const _Self& __x)

	push	esi
	mov	esi, ecx
	call	??0?$_Impl_vector@UParticle@CEffect_Rain@@V?$xalloc@UParticle@CEffect_Rain@@@@@priv@stlp_std@@QAE@ABV012@@Z ; stlp_std::priv::_Impl_vector<CEffect_Rain::Particle,xalloc<CEffect_Rain::Particle> >::_Impl_vector<CEffect_Rain::Particle,xalloc<CEffect_Rain::Particle> >
	mov	eax, esi
	pop	esi
	ret	0
??0?$vector@UParticle@CEffect_Rain@@V?$xalloc@UParticle@CEffect_Rain@@@@@stlp_std@@QAE@ABV01@@Z ENDP ; stlp_std::vector<CEffect_Rain::Particle,xalloc<CEffect_Rain::Particle> >::vector<CEffect_Rain::Particle,xalloc<CEffect_Rain::Particle> >
; Function compile flags: /Ogtpy
; File d:\clearsky\sources\sdk\include\stlport\stl\_vector.h
_TEXT	ENDS
;	COMDAT ??1?$_Impl_vector@UItem@CEffect_Rain@@V?$xalloc@UItem@CEffect_Rain@@@@@priv@stlp_std@@QAE@XZ
_TEXT	SEGMENT
??1?$_Impl_vector@UItem@CEffect_Rain@@V?$xalloc@UItem@CEffect_Rain@@@@@priv@stlp_std@@QAE@XZ PROC ; stlp_std::priv::_Impl_vector<CEffect_Rain::Item,xalloc<CEffect_Rain::Item> >::~_Impl_vector<CEffect_Rain::Item,xalloc<CEffect_Rain::Item> >, COMDAT
; _this$ = eax

; 286  :   ~vector() { _STLP_STD::_Destroy_Range(rbegin(), rend()); }

	mov	eax, DWORD PTR [eax]
	test	eax, eax
	je	SHORT $LN34@Impl_vecto@14
	mov	ecx, DWORD PTR __imp_?Memory@@3VxrMemory@@A
	push	eax
	call	DWORD PTR __imp_?mem_free@xrMemory@@QAEXPAX@Z
$LN34@Impl_vecto@14:
	ret	0
??1?$_Impl_vector@UItem@CEffect_Rain@@V?$xalloc@UItem@CEffect_Rain@@@@@priv@stlp_std@@QAE@XZ ENDP ; stlp_std::priv::_Impl_vector<CEffect_Rain::Item,xalloc<CEffect_Rain::Item> >::~_Impl_vector<CEffect_Rain::Item,xalloc<CEffect_Rain::Item> >
; Function compile flags: /Ogtpy
; File d:\clearsky\sources\sdk\include\stlport\stl\pointers\_vector.h
_TEXT	ENDS
;	COMDAT ??0?$vector@UItem@CEffect_Rain@@V?$xalloc@UItem@CEffect_Rain@@@@@stlp_std@@QAE@ABV01@@Z
_TEXT	SEGMENT
??0?$vector@UItem@CEffect_Rain@@V?$xalloc@UItem@CEffect_Rain@@@@@stlp_std@@QAE@ABV01@@Z PROC ; stlp_std::vector<CEffect_Rain::Item,xalloc<CEffect_Rain::Item> >::vector<CEffect_Rain::Item,xalloc<CEffect_Rain::Item> >, COMDAT
; _this$ = ecx
; ___x$ = eax

; 123  :   vector(const _Self& __x)

	push	esi
	mov	esi, ecx
	call	??0?$_Impl_vector@UItem@CEffect_Rain@@V?$xalloc@UItem@CEffect_Rain@@@@@priv@stlp_std@@QAE@ABV012@@Z ; stlp_std::priv::_Impl_vector<CEffect_Rain::Item,xalloc<CEffect_Rain::Item> >::_Impl_vector<CEffect_Rain::Item,xalloc<CEffect_Rain::Item> >
	mov	eax, esi
	pop	esi
	ret	0
??0?$vector@UItem@CEffect_Rain@@V?$xalloc@UItem@CEffect_Rain@@@@@stlp_std@@QAE@ABV01@@Z ENDP ; stlp_std::vector<CEffect_Rain::Item,xalloc<CEffect_Rain::Item> >::vector<CEffect_Rain::Item,xalloc<CEffect_Rain::Item> >
; Function compile flags: /Ogtpy
_TEXT	ENDS
;	COMDAT ?end@?$vector@PAVCLensFlareDescriptor@@V?$xalloc@PAVCLensFlareDescriptor@@@@@stlp_std@@QAEPAPAVCLensFlareDescriptor@@XZ
_TEXT	SEGMENT
?end@?$vector@PAVCLensFlareDescriptor@@V?$xalloc@PAVCLensFlareDescriptor@@@@@stlp_std@@QAEPAPAVCLensFlareDescriptor@@XZ PROC ; stlp_std::vector<CLensFlareDescriptor *,xalloc<CLensFlareDescriptor *> >::end, COMDAT
; _this$ = eax

; 81   :   iterator end()               { return cast_traits::to_value_type_ptr(_M_impl.end()); }

	mov	eax, DWORD PTR [eax+4]
	push	eax
	call	?cv_ptr@?$_VoidCastTraitsAux@PAXPAX@priv@stlp_std@@SAPAPAXPAPAX@Z ; stlp_std::priv::_VoidCastTraitsAux<void *,void *>::cv_ptr
	add	esp, 4
	ret	0
?end@?$vector@PAVCLensFlareDescriptor@@V?$xalloc@PAVCLensFlareDescriptor@@@@@stlp_std@@QAEPAPAVCLensFlareDescriptor@@XZ ENDP ; stlp_std::vector<CLensFlareDescriptor *,xalloc<CLensFlareDescriptor *> >::end
; Function compile flags: /Ogtpy
_TEXT	ENDS
;	COMDAT ?begin@?$vector@PAVCLensFlareDescriptor@@V?$xalloc@PAVCLensFlareDescriptor@@@@@stlp_std@@QAEPAPAVCLensFlareDescriptor@@XZ
_TEXT	SEGMENT
?begin@?$vector@PAVCLensFlareDescriptor@@V?$xalloc@PAVCLensFlareDescriptor@@@@@stlp_std@@QAEPAPAVCLensFlareDescriptor@@XZ PROC ; stlp_std::vector<CLensFlareDescriptor *,xalloc<CLensFlareDescriptor *> >::begin, COMDAT
; _this$ = eax

; 79   :   iterator begin()             { return cast_traits::to_value_type_ptr(_M_impl.begin()); }

	mov	eax, DWORD PTR [eax]
	push	eax
	call	?cv_ptr@?$_VoidCastTraitsAux@PAXPAX@priv@stlp_std@@SAPAPAXPAPAX@Z ; stlp_std::priv::_VoidCastTraitsAux<void *,void *>::cv_ptr
	add	esp, 4
	ret	0
?begin@?$vector@PAVCLensFlareDescriptor@@V?$xalloc@PAVCLensFlareDescriptor@@@@@stlp_std@@QAEPAPAVCLensFlareDescriptor@@XZ ENDP ; stlp_std::vector<CLensFlareDescriptor *,xalloc<CLensFlareDescriptor *> >::begin
; Function compile flags: /Ogtpy
; File d:\clearsky\sources\sdk\include\stlport\stl\_vector.h
_TEXT	ENDS
;	COMDAT ??1?$_Impl_vector@Urq_result@collide@@V?$xalloc@Urq_result@collide@@@@@priv@stlp_std@@QAE@XZ
_TEXT	SEGMENT
??1?$_Impl_vector@Urq_result@collide@@V?$xalloc@Urq_result@collide@@@@@priv@stlp_std@@QAE@XZ PROC ; stlp_std::priv::_Impl_vector<collide::rq_result,xalloc<collide::rq_result> >::~_Impl_vector<collide::rq_result,xalloc<collide::rq_result> >, COMDAT
; _this$ = eax

; 286  :   ~vector() { _STLP_STD::_Destroy_Range(rbegin(), rend()); }

	mov	eax, DWORD PTR [eax]
	test	eax, eax
	je	SHORT $LN34@Impl_vecto@15
	mov	ecx, DWORD PTR __imp_?Memory@@3VxrMemory@@A
	push	eax
	call	DWORD PTR __imp_?mem_free@xrMemory@@QAEXPAX@Z
$LN34@Impl_vecto@15:
	ret	0
??1?$_Impl_vector@Urq_result@collide@@V?$xalloc@Urq_result@collide@@@@@priv@stlp_std@@QAE@XZ ENDP ; stlp_std::priv::_Impl_vector<collide::rq_result,xalloc<collide::rq_result> >::~_Impl_vector<collide::rq_result,xalloc<collide::rq_result> >
; Function compile flags: /Ogtpy
; File d:\clearsky\sources\sdk\include\stlport\stl\pointers\_vector.h
_TEXT	ENDS
;	COMDAT ??0?$vector@Urq_result@collide@@V?$xalloc@Urq_result@collide@@@@@stlp_std@@QAE@ABV01@@Z
_TEXT	SEGMENT
??0?$vector@Urq_result@collide@@V?$xalloc@Urq_result@collide@@@@@stlp_std@@QAE@ABV01@@Z PROC ; stlp_std::vector<collide::rq_result,xalloc<collide::rq_result> >::vector<collide::rq_result,xalloc<collide::rq_result> >, COMDAT
; _this$ = ecx
; ___x$ = eax

; 123  :   vector(const _Self& __x)

	push	esi
	mov	esi, ecx
	call	??0?$_Impl_vector@Urq_result@collide@@V?$xalloc@Urq_result@collide@@@@@priv@stlp_std@@QAE@ABV012@@Z ; stlp_std::priv::_Impl_vector<collide::rq_result,xalloc<collide::rq_result> >::_Impl_vector<collide::rq_result,xalloc<collide::rq_result> >
	mov	eax, esi
	pop	esi
	ret	0
??0?$vector@Urq_result@collide@@V?$xalloc@Urq_result@collide@@@@@stlp_std@@QAE@ABV01@@Z ENDP ; stlp_std::vector<collide::rq_result,xalloc<collide::rq_result> >::vector<collide::rq_result,xalloc<collide::rq_result> >
; Function compile flags: /Ogtpy
_TEXT	ENDS
;	COMDAT ?end@?$vector@VCEnvModifier@@V?$xalloc@VCEnvModifier@@@@@stlp_std@@QAEPAVCEnvModifier@@XZ
_TEXT	SEGMENT
?end@?$vector@VCEnvModifier@@V?$xalloc@VCEnvModifier@@@@@stlp_std@@QAEPAVCEnvModifier@@XZ PROC ; stlp_std::vector<CEnvModifier,xalloc<CEnvModifier> >::end, COMDAT
; _this$ = ecx

; 81   :   iterator end()               { return cast_traits::to_value_type_ptr(_M_impl.end()); }

	jmp	?end@?$_Impl_vector@VCEnvModifier@@V?$xalloc@VCEnvModifier@@@@@priv@stlp_std@@QAEPAVCEnvModifier@@XZ ; stlp_std::priv::_Impl_vector<CEnvModifier,xalloc<CEnvModifier> >::end
?end@?$vector@VCEnvModifier@@V?$xalloc@VCEnvModifier@@@@@stlp_std@@QAEPAVCEnvModifier@@XZ ENDP ; stlp_std::vector<CEnvModifier,xalloc<CEnvModifier> >::end
; Function compile flags: /Ogtpy
_TEXT	ENDS
;	COMDAT ?begin@?$vector@VCEnvModifier@@V?$xalloc@VCEnvModifier@@@@@stlp_std@@QAEPAVCEnvModifier@@XZ
_TEXT	SEGMENT
?begin@?$vector@VCEnvModifier@@V?$xalloc@VCEnvModifier@@@@@stlp_std@@QAEPAVCEnvModifier@@XZ PROC ; stlp_std::vector<CEnvModifier,xalloc<CEnvModifier> >::begin, COMDAT
; _this$ = ecx

; 79   :   iterator begin()             { return cast_traits::to_value_type_ptr(_M_impl.begin()); }

	jmp	?begin@?$_Impl_vector@VCEnvModifier@@V?$xalloc@VCEnvModifier@@@@@priv@stlp_std@@QAEPAVCEnvModifier@@XZ ; stlp_std::priv::_Impl_vector<CEnvModifier,xalloc<CEnvModifier> >::begin
?begin@?$vector@VCEnvModifier@@V?$xalloc@VCEnvModifier@@@@@stlp_std@@QAEPAVCEnvModifier@@XZ ENDP ; stlp_std::vector<CEnvModifier,xalloc<CEnvModifier> >::begin
; Function compile flags: /Ogtpy
; File d:\clearsky\sources\sdk\include\stlport\stl\_map.h
_TEXT	ENDS
;	COMDAT ?end@?$map@Vshared_str@@V?$xr_vector@PAVCEnvDescriptor@@V?$xalloc@PAVCEnvDescriptor@@@@@@Ustr_pred@CEnvironment@@V?$xalloc@U?$pair@Vshared_str@@V?$xr_vector@PAVCEnvDescriptor@@V?$xalloc@PAVCEnvDescriptor@@@@@@@stlp_std@@@@@stlp_std@@QAE?AU?$_Rb_tree_iterator@U?$pair@$$CBVshared_str@@V?$xr_vector@PAVCEnvDescriptor@@V?$xalloc@PAVCEnvDescriptor@@@@@@@stlp_std@@U?$_MapTraitsT@U?$pair@$$CBVshared_str@@V?$xr_vector@PAVCEnvDescriptor@@V?$xalloc@PAVCEnvDescriptor@@@@@@@stlp_std@@@priv@2@@priv@2@XZ
_TEXT	SEGMENT
?end@?$map@Vshared_str@@V?$xr_vector@PAVCEnvDescriptor@@V?$xalloc@PAVCEnvDescriptor@@@@@@Ustr_pred@CEnvironment@@V?$xalloc@U?$pair@Vshared_str@@V?$xr_vector@PAVCEnvDescriptor@@V?$xalloc@PAVCEnvDescriptor@@@@@@@stlp_std@@@@@stlp_std@@QAE?AU?$_Rb_tree_iterator@U?$pair@$$CBVshared_str@@V?$xr_vector@PAVCEnvDescriptor@@V?$xalloc@PAVCEnvDescriptor@@@@@@@stlp_std@@U?$_MapTraitsT@U?$pair@$$CBVshared_str@@V?$xr_vector@PAVCEnvDescriptor@@V?$xalloc@PAVCEnvDescriptor@@@@@@@stlp_std@@@priv@2@@priv@2@XZ PROC ; stlp_std::map<shared_str,xr_vector<CEnvDescriptor *,xalloc<CEnvDescriptor *> >,CEnvironment::str_pred,xalloc<stlp_std::pair<shared_str,xr_vector<CEnvDescriptor *,xalloc<CEnvDescriptor *> > > > >::end, COMDAT
; _this$ = ecx
; ___$ReturnUdt$ = eax

; 163  :   iterator end() { return _M_t.end(); }

	mov	DWORD PTR [eax], ecx
	ret	0
?end@?$map@Vshared_str@@V?$xr_vector@PAVCEnvDescriptor@@V?$xalloc@PAVCEnvDescriptor@@@@@@Ustr_pred@CEnvironment@@V?$xalloc@U?$pair@Vshared_str@@V?$xr_vector@PAVCEnvDescriptor@@V?$xalloc@PAVCEnvDescriptor@@@@@@@stlp_std@@@@@stlp_std@@QAE?AU?$_Rb_tree_iterator@U?$pair@$$CBVshared_str@@V?$xr_vector@PAVCEnvDescriptor@@V?$xalloc@PAVCEnvDescriptor@@@@@@@stlp_std@@U?$_MapTraitsT@U?$pair@$$CBVshared_str@@V?$xr_vector@PAVCEnvDescriptor@@V?$xalloc@PAVCEnvDescriptor@@@@@@@stlp_std@@@priv@2@@priv@2@XZ ENDP ; stlp_std::map<shared_str,xr_vector<CEnvDescriptor *,xalloc<CEnvDescriptor *> >,CEnvironment::str_pred,xalloc<stlp_std::pair<shared_str,xr_vector<CEnvDescriptor *,xalloc<CEnvDescriptor *> > > > >::end
; Function compile flags: /Ogtpy
; File d:\clearsky\sources\sdk\include\stlport\stl\pointers\_vector.h
_TEXT	ENDS
;	COMDAT ?at@?$vector@PAVCEnvDescriptor@@V?$xalloc@PAVCEnvDescriptor@@@@@stlp_std@@QAEAAPAVCEnvDescriptor@@I@Z
_TEXT	SEGMENT
?at@?$vector@PAVCEnvDescriptor@@V?$xalloc@PAVCEnvDescriptor@@@@@stlp_std@@QAEAAPAVCEnvDescriptor@@I@Z PROC ; stlp_std::vector<CEnvDescriptor *,xalloc<CEnvDescriptor *> >::at, COMDAT
; _this$ = ecx
; ___n$ = edx

; 103  :   reference at(size_type __n) { return cast_traits::to_value_type_ref(_M_impl.at(__n)); }

	mov	eax, DWORD PTR [ecx]
	mov	ecx, DWORD PTR [ecx+4]
	sub	ecx, eax
	sar	ecx, 2
	cmp	edx, ecx
	jb	SHORT $LN5@at@2
	push	OFFSET ??_C@_06NBFPPGEG@vector?$AA@
	call	DWORD PTR __imp__puts
	add	esp, 4
	jmp	DWORD PTR __imp__abort
$LN5@at@2:
	lea	eax, DWORD PTR [eax+edx*4]
	ret	0
?at@?$vector@PAVCEnvDescriptor@@V?$xalloc@PAVCEnvDescriptor@@@@@stlp_std@@QAEAAPAVCEnvDescriptor@@I@Z ENDP ; stlp_std::vector<CEnvDescriptor *,xalloc<CEnvDescriptor *> >::at
; Function compile flags: /Ogtpy
_TEXT	ENDS
;	COMDAT ?front@?$vector@PAVCEnvDescriptor@@V?$xalloc@PAVCEnvDescriptor@@@@@stlp_std@@QAEAAPAVCEnvDescriptor@@XZ
_TEXT	SEGMENT
?front@?$vector@PAVCEnvDescriptor@@V?$xalloc@PAVCEnvDescriptor@@@@@stlp_std@@QAEAAPAVCEnvDescriptor@@XZ PROC ; stlp_std::vector<CEnvDescriptor *,xalloc<CEnvDescriptor *> >::front, COMDAT
; _this$ = eax

; 98   :   reference front()             { return cast_traits::to_value_type_ref(_M_impl.front()); }

	mov	eax, DWORD PTR [eax]
	ret	0
?front@?$vector@PAVCEnvDescriptor@@V?$xalloc@PAVCEnvDescriptor@@@@@stlp_std@@QAEAAPAVCEnvDescriptor@@XZ ENDP ; stlp_std::vector<CEnvDescriptor *,xalloc<CEnvDescriptor *> >::front
; Function compile flags: /Ogtpy
_TEXT	ENDS
;	COMDAT ?end@?$vector@PAVCEnvDescriptor@@V?$xalloc@PAVCEnvDescriptor@@@@@stlp_std@@QAEPAPAVCEnvDescriptor@@XZ
_TEXT	SEGMENT
?end@?$vector@PAVCEnvDescriptor@@V?$xalloc@PAVCEnvDescriptor@@@@@stlp_std@@QAEPAPAVCEnvDescriptor@@XZ PROC ; stlp_std::vector<CEnvDescriptor *,xalloc<CEnvDescriptor *> >::end, COMDAT
; _this$ = eax

; 81   :   iterator end()               { return cast_traits::to_value_type_ptr(_M_impl.end()); }

	mov	eax, DWORD PTR [eax+4]
	push	eax
	call	?cv_ptr@?$_VoidCastTraitsAux@PAXPAX@priv@stlp_std@@SAPAPAXPAPAX@Z ; stlp_std::priv::_VoidCastTraitsAux<void *,void *>::cv_ptr
	add	esp, 4
	ret	0
?end@?$vector@PAVCEnvDescriptor@@V?$xalloc@PAVCEnvDescriptor@@@@@stlp_std@@QAEPAPAVCEnvDescriptor@@XZ ENDP ; stlp_std::vector<CEnvDescriptor *,xalloc<CEnvDescriptor *> >::end
; Function compile flags: /Ogtpy
_TEXT	ENDS
;	COMDAT ?begin@?$vector@PAVCEnvDescriptor@@V?$xalloc@PAVCEnvDescriptor@@@@@stlp_std@@QAEPAPAVCEnvDescriptor@@XZ
_TEXT	SEGMENT
?begin@?$vector@PAVCEnvDescriptor@@V?$xalloc@PAVCEnvDescriptor@@@@@stlp_std@@QAEPAPAVCEnvDescriptor@@XZ PROC ; stlp_std::vector<CEnvDescriptor *,xalloc<CEnvDescriptor *> >::begin, COMDAT
; _this$ = eax

; 79   :   iterator begin()             { return cast_traits::to_value_type_ptr(_M_impl.begin()); }

	mov	eax, DWORD PTR [eax]
	push	eax
	call	?cv_ptr@?$_VoidCastTraitsAux@PAXPAX@priv@stlp_std@@SAPAPAXPAPAX@Z ; stlp_std::priv::_VoidCastTraitsAux<void *,void *>::cv_ptr
	add	esp, 4
	ret	0
?begin@?$vector@PAVCEnvDescriptor@@V?$xalloc@PAVCEnvDescriptor@@@@@stlp_std@@QAEPAPAVCEnvDescriptor@@XZ ENDP ; stlp_std::vector<CEnvDescriptor *,xalloc<CEnvDescriptor *> >::begin
; Function compile flags: /Ogtpy
; File d:\clearsky\sources\engine\xrcore\_stl_extensions.h
_TEXT	ENDS
;	COMDAT ?size@?$xr_vector@PAVCEnvDescriptor@@V?$xalloc@PAVCEnvDescriptor@@@@@@QBEIXZ
_TEXT	SEGMENT
?size@?$xr_vector@PAVCEnvDescriptor@@V?$xalloc@PAVCEnvDescriptor@@@@@@QBEIXZ PROC ; xr_vector<CEnvDescriptor *,xalloc<CEnvDescriptor *> >::size, COMDAT
; _this$ = ecx

; 126  : 	u32		size				() const							{ return (u32)inherited::size();} 

	mov	eax, DWORD PTR [ecx+4]
	sub	eax, DWORD PTR [ecx]
	sar	eax, 2
	ret	0
?size@?$xr_vector@PAVCEnvDescriptor@@V?$xalloc@PAVCEnvDescriptor@@@@@@QBEIXZ ENDP ; xr_vector<CEnvDescriptor *,xalloc<CEnvDescriptor *> >::size
; Function compile flags: /Ogtpy
; File d:\clearsky\sources\engine\include\xrrender\factoryptr.h
_TEXT	ENDS
;	COMDAT ??0?$FactoryPtr@VIEnvironmentRender@@@@QAE@XZ
_TEXT	SEGMENT
??0?$FactoryPtr@VIEnvironmentRender@@@@QAE@XZ PROC	; FactoryPtr<IEnvironmentRender>::FactoryPtr<IEnvironmentRender>, COMDAT
; _this$ = esi

; 24   : 	FactoryPtr() { CreateObject();}

	mov	eax, DWORD PTR __imp_?RenderFactory@@3PAVIRenderFactory@@A
	mov	ecx, DWORD PTR [eax]
	mov	edx, DWORD PTR [ecx]
	mov	eax, DWORD PTR [edx+64]
	call	eax
	mov	DWORD PTR [esi], eax
	mov	eax, esi
	ret	0
??0?$FactoryPtr@VIEnvironmentRender@@@@QAE@XZ ENDP	; FactoryPtr<IEnvironmentRender>::FactoryPtr<IEnvironmentRender>
; Function compile flags: /Ogtpy
; File d:\clearsky\sources\sdk\include\stlport\stl\pointers\_vector.h
_TEXT	ENDS
;	COMDAT ?front@?$vector@GV?$xalloc@G@@@stlp_std@@QAEAAGXZ
_TEXT	SEGMENT
?front@?$vector@GV?$xalloc@G@@@stlp_std@@QAEAAGXZ PROC	; stlp_std::vector<unsigned short,xalloc<unsigned short> >::front, COMDAT
; _this$ = ecx

; 98   :   reference front()             { return cast_traits::to_value_type_ref(_M_impl.front()); }

	jmp	?begin@?$_Impl_vector@GV?$xalloc@G@@@priv@stlp_std@@QAEPAGXZ ; stlp_std::priv::_Impl_vector<unsigned short,xalloc<unsigned short> >::begin
?front@?$vector@GV?$xalloc@G@@@stlp_std@@QAEAAGXZ ENDP	; stlp_std::vector<unsigned short,xalloc<unsigned short> >::front
; Function compile flags: /Ogtpy
; File d:\clearsky\sources\engine\xrcore\_stl_extensions.h
_TEXT	ENDS
;	COMDAT ?size@?$xr_vector@GV?$xalloc@G@@@@QBEIXZ
_TEXT	SEGMENT
?size@?$xr_vector@GV?$xalloc@G@@@@QBEIXZ PROC		; xr_vector<unsigned short,xalloc<unsigned short> >::size, COMDAT
; _this$ = ecx

; 126  : 	u32		size				() const							{ return (u32)inherited::size();} 

	jmp	?size@?$_Impl_vector@GV?$xalloc@G@@@priv@stlp_std@@QBEIXZ ; stlp_std::priv::_Impl_vector<unsigned short,xalloc<unsigned short> >::size
?size@?$xr_vector@GV?$xalloc@G@@@@QBEIXZ ENDP		; xr_vector<unsigned short,xalloc<unsigned short> >::size
; Function compile flags: /Ogtpy
; File d:\clearsky\sources\sdk\include\stlport\stl\pointers\_vector.h
_TEXT	ENDS
;	COMDAT ?front@?$vector@U?$_vector3@M@@V?$xalloc@U?$_vector3@M@@@@@stlp_std@@QAEAAU?$_vector3@M@@XZ
_TEXT	SEGMENT
?front@?$vector@U?$_vector3@M@@V?$xalloc@U?$_vector3@M@@@@@stlp_std@@QAEAAU?$_vector3@M@@XZ PROC ; stlp_std::vector<_vector3<float>,xalloc<_vector3<float> > >::front, COMDAT
; _this$ = eax

; 98   :   reference front()             { return cast_traits::to_value_type_ref(_M_impl.front()); }

	mov	eax, DWORD PTR [eax]
	ret	0
?front@?$vector@U?$_vector3@M@@V?$xalloc@U?$_vector3@M@@@@@stlp_std@@QAEAAU?$_vector3@M@@XZ ENDP ; stlp_std::vector<_vector3<float>,xalloc<_vector3<float> > >::front
; Function compile flags: /Ogtpy
; File d:\clearsky\sources\engine\xrcore\_vector3d.h
_TEXT	ENDS
;	COMDAT ?setHP@?$_vector3@M@@QAEAAU1@MM@Z
_TEXT	SEGMENT
__cp$ = -4						; size = 4
_h$ = 8							; size = 4
_p$ = 12						; size = 4
?setHP@?$_vector3@M@@QAEAAU1@MM@Z PROC			; _vector3<float>::setHP, COMDAT
; _this$ = esi

; 330  : 	{

	push	ecx

; 331  :         T _ch=_cos(h), _cp=_cos(p), _sh=_sin(h), _sp=_sin(p);

	fld	DWORD PTR _p$[esp]
	push	ecx
	fstp	DWORD PTR [esp]
	call	_cosf
	fstp	DWORD PTR __cp$[esp+8]
	fld	DWORD PTR _h$[esp+4]
	fstp	DWORD PTR [esp]
	call	_sinf

; 332  :         x = -_cp*_sh;

	fmul	DWORD PTR __cp$[esp+8]
	fchs
	fstp	DWORD PTR [esi]
	fld	DWORD PTR _p$[esp+4]
	fstp	DWORD PTR [esp]
	call	_sinf

; 333  :         y = _sp;

	fstp	DWORD PTR [esi+4]
	fld	DWORD PTR _h$[esp+4]
	fstp	DWORD PTR [esp]
	call	_cosf

; 334  :         z = _cp*_ch;

	fmul	DWORD PTR __cp$[esp+8]

; 335  : 		return *this;	

	mov	eax, esi
	fstp	DWORD PTR [esi+8]

; 336  :     }

	add	esp, 8
	ret	8
?setHP@?$_vector3@M@@QAEAAU1@MM@Z ENDP			; _vector3<float>::setHP
_TEXT	ENDS
PUBLIC	?thunderbolt_collection@CEnvironment@@QAEPAUSThunderboltCollection@@AAV?$xr_vector@PAUSThunderboltCollection@@V?$xalloc@PAUSThunderboltCollection@@@@@@ABVshared_str@@@Z ; CEnvironment::thunderbolt_collection
; Function compile flags: /Ogtpy
; File d:\clearsky\sources\engine\xrengine\environment.cpp
;	COMDAT ?thunderbolt_collection@CEnvironment@@QAEPAUSThunderboltCollection@@AAV?$xr_vector@PAUSThunderboltCollection@@V?$xalloc@PAUSThunderboltCollection@@@@@@ABVshared_str@@@Z
_TEXT	SEGMENT
_collection$ = 8					; size = 4
_id$ = 12						; size = 4
?thunderbolt_collection@CEnvironment@@QAEPAUSThunderboltCollection@@AAV?$xr_vector@PAUSThunderboltCollection@@V?$xalloc@PAUSThunderboltCollection@@@@@@ABVshared_str@@@Z PROC ; CEnvironment::thunderbolt_collection, COMDAT
; _this$ = ecx

; 624  : {

	push	esi
	push	edi

; 625  : 	typedef xr_vector<SThunderboltCollection*>	Container;
; 626  : 	Container::iterator		i = collection.begin();

	mov	edi, DWORD PTR _collection$[esp+4]
	mov	eax, DWORD PTR [edi]
	push	eax
	call	?cv_ptr@?$_VoidCastTraitsAux@PAXPAX@priv@stlp_std@@SAPAPAXPAPAX@Z ; stlp_std::priv::_VoidCastTraitsAux<void *,void *>::cv_ptr

; 627  : 	Container::iterator		e = collection.end();

	mov	edi, DWORD PTR [edi+4]
	push	edi
	mov	esi, eax
	call	?cv_ptr@?$_VoidCastTraitsAux@PAXPAX@priv@stlp_std@@SAPAPAXPAPAX@Z ; stlp_std::priv::_VoidCastTraitsAux<void *,void *>::cv_ptr

; 629  : 		if ((*i)->section == id)

	mov	ecx, DWORD PTR _id$[esp+12]
	mov	ecx, DWORD PTR [ecx]
	add	esp, 8
$LL4@thunderbol:
	mov	edx, DWORD PTR [esi]
	cmp	DWORD PTR [edx+12], ecx
	je	SHORT $LN30@thunderbol

; 628  : 	for ( ; i != e; ++i)

	add	esi, 4
	jmp	SHORT $LL4@thunderbol
$LN30@thunderbol:
	pop	edi

; 630  : 			return			(*i);

	mov	eax, edx
	pop	esi

; 631  : 
; 632  : 	NODEFAULT;
; 633  : #ifdef DEBUG
; 634  : 	return					(0);
; 635  : #endif // #ifdef DEBUG
; 636  : }

	ret	8
?thunderbolt_collection@CEnvironment@@QAEPAUSThunderboltCollection@@AAV?$xr_vector@PAUSThunderboltCollection@@V?$xalloc@PAUSThunderboltCollection@@@@@@ABVshared_str@@@Z ENDP ; CEnvironment::thunderbolt_collection
_TEXT	ENDS
PUBLIC	__real@3d567750
PUBLIC	__real@3f609bc8
PUBLIC	__real@c3340000
PUBLIC	__real@43b40000
PUBLIC	__real@41f33333
PUBLIC	__real@41700000
PUBLIC	__real@3991a2b4
PUBLIC	__real@4015ca58
PUBLIC	__real@3f565e68
PUBLIC	__real@3feb3f8e
PUBLIC	__real@3b8ccdd9
PUBLIC	__real@3ddb3205
PUBLIC	__real@3dadaa93
PUBLIC	__real@3e1e3c53
PUBLIC	__real@3d54db59
PUBLIC	__real@3ec63fbc
PUBLIC	__real@4080d053
PUBLIC	__real@3ecaf145
PUBLIC	__real@41b74e61
PUBLIC	__real@3f7c5201
PUBLIC	__real@43340000
PUBLIC	__real@37422e45
PUBLIC	?calculate_dynamic_sun_dir@CEnvironment@@AAEXXZ	; CEnvironment::calculate_dynamic_sun_dir
;	COMDAT __real@3d567750
; File d:\clearsky\sources\engine\xrcore\_vector3d.h
CONST	SEGMENT
__real@3d567750 DD 03d567750r			; 0.0523599
CONST	ENDS
;	COMDAT __real@3f609bc8
CONST	SEGMENT
__real@3f609bc8 DD 03f609bc8r			; 0.877377
CONST	ENDS
;	COMDAT __real@c3340000
CONST	SEGMENT
__real@c3340000 DD 0c3340000r			; -180
CONST	ENDS
;	COMDAT __real@43b40000
CONST	SEGMENT
__real@43b40000 DD 043b40000r			; 360
CONST	ENDS
;	COMDAT __real@41f33333
CONST	SEGMENT
__real@41f33333 DD 041f33333r			; 30.4
CONST	ENDS
;	COMDAT __real@41700000
CONST	SEGMENT
__real@41700000 DD 041700000r			; 15
CONST	ENDS
;	COMDAT __real@3991a2b4
CONST	SEGMENT
__real@3991a2b4 DD 03991a2b4r			; 0.000277778
CONST	ENDS
;	COMDAT __real@4015ca58
CONST	SEGMENT
__real@4015ca58 DD 04015ca58r			; 2.34048
CONST	ENDS
;	COMDAT __real@3f565e68
CONST	SEGMENT
__real@3f565e68 DD 03f565e68r			; 0.837378
CONST	ENDS
;	COMDAT __real@3feb3f8e
CONST	SEGMENT
__real@3feb3f8e DD 03feb3f8er			; 1.83788
CONST	ENDS
;	COMDAT __real@3b8ccdd9
CONST	SEGMENT
__real@3b8ccdd9 DD 03b8ccdd9r			; 0.004297
CONST	ENDS
;	COMDAT __real@3ddb3205
CONST	SEGMENT
__real@3ddb3205 DD 03ddb3205r			; 0.107029
CONST	ENDS
;	COMDAT __real@3dadaa93
CONST	SEGMENT
__real@3dadaa93 DD 03dadaa93r			; 0.084798
CONST	ENDS
;	COMDAT __real@3e1e3c53
CONST	SEGMENT
__real@3e1e3c53 DD 03e1e3c53r			; 0.154527
CONST	ENDS
;	COMDAT __real@3d54db59
CONST	SEGMENT
__real@3d54db59 DD 03d54db59r			; 0.051967
CONST	ENDS
;	COMDAT __real@3ec63fbc
CONST	SEGMENT
__real@3ec63fbc DD 03ec63fbcr			; 0.387205
CONST	ENDS
;	COMDAT __real@4080d053
CONST	SEGMENT
__real@4080d053 DD 04080d053r			; 4.02543
CONST	ENDS
;	COMDAT __real@3ecaf145
CONST	SEGMENT
__real@3ecaf145 DD 03ecaf145r			; 0.396372
CONST	ENDS
;	COMDAT __real@41b74e61
CONST	SEGMENT
__real@41b74e61 DD 041b74e61r			; 22.9133
CONST	ENDS
;	COMDAT __real@3f7c5201
CONST	SEGMENT
__real@3f7c5201 DD 03f7c5201r			; 0.985626
CONST	ENDS
;	COMDAT __real@43340000
CONST	SEGMENT
__real@43340000 DD 043340000r			; 180
CONST	ENDS
;	COMDAT __real@37422e45
CONST	SEGMENT
__real@37422e45 DD 037422e45r			; 1.15741e-005
; Function compile flags: /Ogtpy
; File d:\clearsky\sources\engine\xrengine\environment.cpp
CONST	ENDS
;	COMDAT ?calculate_dynamic_sun_dir@CEnvironment@@AAEXXZ
_TEXT	SEGMENT
tv494 = -40						; size = 4
_AZ$ = -40						; size = 4
_cosAZ$ = -40						; size = 4
_SEA$ = -36						; size = 4
_cosSZA$ = -36						; size = 4
_g$ = -36						; size = 4
tv490 = -32						; size = 4
_SHA$ = -32						; size = 4
tv746 = -28						; size = 4
tv507 = -28						; size = 4
tv498 = -28						; size = 4
_fSunBlend$ = -28					; size = 4
tv534 = -24						; size = 4
tv499 = -24						; size = 4
_sin_SZA_X_cos_Latitude$ = -24				; size = 4
tv752 = -20						; size = 4
tv503 = -20						; size = 4
tv591 = -16						; size = 4
tv589 = -16						; size = 4
tv543 = -16						; size = 4
__cp$255832 = -16					; size = 4
$T255591 = -16						; size = 8
tv593 = -8						; size = 4
tv482 = -8						; size = 4
_minAngle$ = -8						; size = 8
_SZA$ = -8						; size = 4
?calculate_dynamic_sun_dir@CEnvironment@@AAEXXZ PROC	; CEnvironment::calculate_dynamic_sun_dir, COMDAT
; _this$ = ecx

; 531  : {

	push	ebp
	mov	ebp, esp
	and	esp, -64				; ffffffc0H
	sub	esp, 48					; 00000030H
	push	ebx
	push	ebp
	push	esi
	push	edi
	mov	ebp, ecx

; 532  : 	float g = (360.0f/365.25f)*(180.0f + fGameTime/DAY_LENGTH);

	movss	xmm0, DWORD PTR [ebp+28]
	movss	DWORD PTR tv482[esp+64], xmm0
	mulss	xmm0, DWORD PTR __real@37422e45
	addss	xmm0, DWORD PTR __real@43340000
	mulss	xmm0, DWORD PTR __real@3f7c5201

; 533  : 
; 534  : 	g = deg2rad(g);

	mulss	xmm0, DWORD PTR __real@3c8efa35
	movss	DWORD PTR _g$[esp+64], xmm0

; 535  : 
; 536  : 	//	Declination
; 537  : 	float D = 0.396372f-22.91327f*_cos(g)+4.02543f*_sin(g)-0.387205f*_cos(2*g)+
; 538  : 		0.051967f*_sin(2*g)-0.154527f*_cos(3*g) + 0.084798f*_sin(3*g);

	fld	DWORD PTR _g$[esp+64]
	push	ecx
	fstp	DWORD PTR [esp]
	call	_cosf
	fstp	DWORD PTR tv490[esp+68]
	fld	DWORD PTR _g$[esp+68]
	fstp	DWORD PTR [esp]
	call	_sinf
	movss	xmm0, DWORD PTR _g$[esp+68]
	fstp	DWORD PTR tv494[esp+68]
	mulss	xmm0, DWORD PTR __real@40000000
	movss	DWORD PTR tv498[esp+68], xmm0
	fld	DWORD PTR tv498[esp+68]
	fstp	DWORD PTR [esp]
	call	_cosf
	fstp	DWORD PTR tv499[esp+68]
	fld	DWORD PTR tv498[esp+68]
	fstp	DWORD PTR [esp]
	call	_sinf
	fst	DWORD PTR tv503[esp+68]
	movss	xmm0, DWORD PTR _g$[esp+68]
	fld	DWORD PTR tv490[esp+68]
	mulss	xmm0, DWORD PTR _drop_angle
	fmul	DWORD PTR __real@41b74e61
	movss	DWORD PTR tv507[esp+68], xmm0
	fsubr	DWORD PTR __real@3ecaf145
	fld	DWORD PTR tv494[esp+68]
	fmul	DWORD PTR __real@4080d053
	faddp	ST(1), ST(0)
	fld	DWORD PTR tv499[esp+68]
	fmul	DWORD PTR __real@3ec63fbc
	fsubp	ST(1), ST(0)
	fxch	ST(1)
	fmul	DWORD PTR __real@3d54db59
	faddp	ST(1), ST(0)
	fstp	DWORD PTR tv589[esp+68]
	fld	DWORD PTR tv507[esp+68]
	fstp	DWORD PTR [esp]
	call	_cosf
	fmul	DWORD PTR __real@3e1e3c53
	fsubr	DWORD PTR tv589[esp+68]
	fstp	DWORD PTR tv591[esp+68]
	fld	DWORD PTR tv507[esp+68]
	fstp	DWORD PTR [esp]
	call	_sinf

; 539  : 
; 540  : 	//	Now calculate the time correction for solar angle:
; 541  : 	float TC = 0.004297f+0.107029f*_cos(g)-1.837877f*_sin(g)-0.837378f*_cos(2*g)-
; 542  : 		2.340475f*_sin(2*g);

	movss	xmm0, DWORD PTR tv490[esp+68]
	fmul	DWORD PTR __real@3dadaa93
	mulss	xmm0, DWORD PTR __real@3ddb3205
	addss	xmm0, DWORD PTR __real@3b8ccdd9
	movss	xmm1, DWORD PTR tv494[esp+68]
	fadd	DWORD PTR tv591[esp+68]
	mulss	xmm1, DWORD PTR __real@3feb3f8e
	subss	xmm0, xmm1
	movss	xmm1, DWORD PTR tv499[esp+68]
	mulss	xmm1, DWORD PTR __real@3f565e68
	subss	xmm0, xmm1
	movss	xmm1, DWORD PTR tv503[esp+68]
	mulss	xmm1, DWORD PTR __real@4015ca58
	subss	xmm0, xmm1

; 543  : 
; 544  : 	//	IN degrees
; 545  : 	float Longitude = -30.4f;
; 546  : 
; 547  : 	float SHA = (fGameTime/(DAY_LENGTH/24)-12)*15 + Longitude + TC;

	movss	xmm1, DWORD PTR tv482[esp+68]
	mulss	xmm1, DWORD PTR __real@3991a2b4
	subss	xmm1, DWORD PTR __real@41400000
	mulss	xmm1, DWORD PTR __real@41700000
	addss	xmm0, xmm1
	subss	xmm0, DWORD PTR __real@41f33333

; 548  : 
; 549  : 	//	Need this to correctly determine SHA sign
; 550  : 	if (SHA>180) SHA -= 360;

	movss	xmm1, DWORD PTR __real@43b40000
	add	esp, 4
	comiss	xmm0, DWORD PTR __real@43340000
	movss	DWORD PTR _SHA$[esp+64], xmm0
	jbe	SHORT $LN17@calculate_
	subss	xmm0, xmm1
	movss	DWORD PTR _SHA$[esp+64], xmm0
$LN17@calculate_:

; 551  : 	if (SHA<-180) SHA += 360;

	movss	xmm2, DWORD PTR __real@c3340000
	comiss	xmm2, xmm0
	jbe	SHORT $LN16@calculate_
	addss	xmm0, xmm1
	movss	DWORD PTR _SHA$[esp+64], xmm0
$LN16@calculate_:

; 552  : 
; 553  : 	//	IN degrees
; 554  : 	float const Latitude = 50.27f;
; 555  : 	float const LatitudeR = deg2rad(Latitude);
; 556  : 
; 557  : 	//	Now we can calculate the Sun Zenith Angle (SZA):
; 558  : 	float cosSZA = _sin(LatitudeR)
; 559  : 		* _sin(deg2rad(D)) + _cos(LatitudeR)*
; 560  : 		_cos(deg2rad(D)) * _cos(deg2rad(SHA));

	fmul	DWORD PTR __real@3c8efa35
	push	ecx
	fstp	DWORD PTR tv534[esp+68]
	fld	DWORD PTR __real@3f609bc8
	fstp	DWORD PTR [esp]
	call	_cosf
	fstp	DWORD PTR tv746[esp+68]
	fld	DWORD PTR tv534[esp+68]
	fstp	DWORD PTR [esp]
	call	_sinf
	fstp	DWORD PTR tv543[esp+68]
	fld	DWORD PTR __real@3f609bc8
	fstp	DWORD PTR [esp]
	call	_sinf
	movss	xmm0, DWORD PTR _SHA$[esp+68]
	fstp	DWORD PTR tv752[esp+68]
	mulss	xmm0, DWORD PTR __real@3c8efa35
	movss	DWORD PTR [esp], xmm0
	call	_cosf
	fstp	DWORD PTR tv593[esp+68]
	fld	DWORD PTR tv534[esp+68]
	fstp	DWORD PTR [esp]
	call	_cosf
	fmul	DWORD PTR tv593[esp+68]

; 561  : 
; 562  : 	clamp( cosSZA, -1.0f, 1.0f);

	movss	xmm0, DWORD PTR __real@3f800000
	add	esp, 4
	fmul	DWORD PTR tv746[esp+64]
	fld	DWORD PTR tv752[esp+64]
	fmul	DWORD PTR tv543[esp+64]
	faddp	ST(1), ST(0)
	fst	DWORD PTR _cosSZA$[esp+64]
	fld	DWORD PTR __real@bf800000
	fcomip	ST(1)
	fstp	ST(0)
	jbe	SHORT $LN102@calculate_
	movss	xmm0, DWORD PTR __real@bf800000
	jmp	SHORT $LN218@calculate_
$LN102@calculate_:
	movss	xmm1, DWORD PTR _cosSZA$[esp+64]
	comiss	xmm1, xmm0
	jbe	SHORT $LN100@calculate_
$LN218@calculate_:
	movss	DWORD PTR _cosSZA$[esp+64], xmm0
$LN100@calculate_:

; 563  : 
; 564  : 	float SZA = acosf(cosSZA);

	fld	DWORD PTR _cosSZA$[esp+64]
	call	__CIacos
	fst	DWORD PTR _SZA$[esp+64]

; 565  : 	float SEA = PI/2-SZA;

	fld	DWORD PTR _PI_DIV_2

; 566  : 
; 567  : 	//	To finish we will calculate the Azimuth Angle (AZ):
; 568  : 	float cosAZ = 0.f;

	xorps	xmm0, xmm0
	fsub	ST(0), ST(1)

; 569  : 	float const sin_SZA = _sin(SZA);

	push	ecx
	movss	DWORD PTR _cosAZ$[esp+68], xmm0
	fstp	DWORD PTR _SEA$[esp+68]
	fstp	DWORD PTR [esp]
	call	_sinf

; 570  : 	float const cos_Latitude = _cos(LatitudeR);
; 571  : 	float const sin_SZA_X_cos_Latitude = sin_SZA*cos_Latitude;

	fmul	DWORD PTR tv746[esp+68]
	fst	DWORD PTR _sin_SZA_X_cos_Latitude$[esp+68]

; 572  : 	if (!fis_zero(sin_SZA_X_cos_Latitude))

	fstp	DWORD PTR [esp]
	call	_fabsf
	fld	DWORD PTR _EPS_S
	add	esp, 4
	fcomip	ST(1)
	fstp	ST(0)
	ja	SHORT $LN139@calculate_

; 573  : 		cosAZ	= (_sin(deg2rad(D))-_sin(LatitudeR)*_cos(SZA))/sin_SZA_X_cos_Latitude;

	fld	DWORD PTR _SZA$[esp+64]
	push	ecx
	fstp	DWORD PTR [esp]
	call	_cosf
	fmul	DWORD PTR tv752[esp+68]
	add	esp, 4
	fsubr	DWORD PTR tv543[esp+64]
	fdiv	DWORD PTR _sin_SZA_X_cos_Latitude$[esp+64]
	fst	DWORD PTR _cosAZ$[esp+64]

; 574  : 
; 575  : 	clamp( cosAZ, -1.0f, 1.0f);

	fld	DWORD PTR __real@bf800000
	fcomip	ST(1)
	fstp	ST(0)
	jbe	SHORT $LN141@calculate_
	movss	xmm0, DWORD PTR __real@bf800000
	jmp	SHORT $LN219@calculate_
$LN141@calculate_:
	movss	xmm1, DWORD PTR _cosAZ$[esp+64]
	movss	xmm0, DWORD PTR __real@3f800000
	comiss	xmm1, xmm0
	jbe	SHORT $LN139@calculate_
$LN219@calculate_:
	movss	DWORD PTR _cosAZ$[esp+64], xmm0
$LN139@calculate_:

; 576  : 	float AZ = acosf(cosAZ);

	fld	DWORD PTR _cosAZ$[esp+64]
	call	__CIacos
	fstp	DWORD PTR _AZ$[esp+64]

; 577  : 
; 578  : 	const Fvector2 minAngle = Fvector2().set(deg2rad(1.0f), deg2rad(3.0f));

	fld	DWORD PTR __real@3d567750
	sub	esp, 8
	fstp	DWORD PTR [esp+4]
	xor	eax, eax
	fld	DWORD PTR __real@3c8efa35
	lea	ecx, DWORD PTR $T255591[esp+72]
	fstp	DWORD PTR [esp]
	mov	DWORD PTR $T255591[esp+72], eax
	mov	DWORD PTR $T255591[esp+76], eax
	call	?set@?$_vector2@M@@QAEAAU1@MM@Z		; _vector2<float>::set
	mov	ecx, DWORD PTR [eax]
	mov	edx, DWORD PTR [eax+4]

; 579  : 
; 580  : 	if (SEA<minAngle.x) SEA = minAngle.x;

	movss	xmm2, DWORD PTR _SEA$[esp+64]
	mov	DWORD PTR _minAngle$[esp+64], ecx
	movss	xmm1, DWORD PTR _minAngle$[esp+64]
	comiss	xmm1, xmm2
	mov	DWORD PTR _minAngle$[esp+68], edx
	jbe	SHORT $LN14@calculate_
	movaps	xmm2, xmm1
$LN14@calculate_:

; 581  : 
; 582  : 	float fSunBlend = (SEA-minAngle.x)/(minAngle.y-minAngle.x);

	movss	xmm3, DWORD PTR _minAngle$[esp+68]
	movaps	xmm0, xmm2
	subss	xmm0, xmm1
	subss	xmm3, xmm1

; 583  : 	clamp (  fSunBlend, 0.0f, 1.0f);

	xorps	xmm1, xmm1
	divss	xmm0, xmm3
	comiss	xmm1, xmm0
	movss	DWORD PTR _fSunBlend$[esp+64], xmm0
	jbe	SHORT $LN158@calculate_
	movss	DWORD PTR _fSunBlend$[esp+64], xmm1
	jmp	SHORT $LN156@calculate_
$LN158@calculate_:
	movss	xmm3, DWORD PTR __real@3f800000
	comiss	xmm0, xmm3
	jbe	SHORT $LN156@calculate_
	movss	DWORD PTR _fSunBlend$[esp+64], xmm3
$LN156@calculate_:

; 584  : 
; 585  : 	SEA = -SEA;
; 586  : 
; 587  : 	if (SHA<0)

	comiss	xmm1, DWORD PTR _SHA$[esp+64]
	movss	xmm0, DWORD PTR __real@80000000
	subss	xmm0, xmm2
	movss	DWORD PTR _SEA$[esp+64], xmm0
	jbe	SHORT $LN12@calculate_

; 588  : 		AZ = 2*PI-AZ;

	movss	xmm0, DWORD PTR _PI_MUL_2
	subss	xmm0, DWORD PTR _AZ$[esp+64]
	movss	DWORD PTR _AZ$[esp+64], xmm0
$LN12@calculate_:

; 589  : 
; 590  : 	R_ASSERT					( _valid(AZ) );

	cmp	BYTE PTR ?ignore_always@?O@??calculate_dynamic_sun_dir@CEnvironment@@AAEXXZ@4_NA, 0
	mov	ebx, DWORD PTR __imp_?fail@xrDebug@@QAEXPBD0H0AA_N@Z
	mov	edi, DWORD PTR __imp___fpclass
	jne	SHORT $LN11@calculate_
	fld	DWORD PTR _AZ$[esp+64]
	sub	esp, 8
	fstp	QWORD PTR [esp]
	call	edi
	add	esp, 8
	test	eax, 663				; 00000297H
	je	SHORT $LN11@calculate_
	mov	ecx, DWORD PTR __imp_?Debug@@3VxrDebug@@A
	push	OFFSET ?ignore_always@?O@??calculate_dynamic_sun_dir@CEnvironment@@AAEXXZ@4_NA
	push	OFFSET ??_C@_0CI@PFKCKBCO@CEnvironment?3?3calculate_dynamic_@
	push	590					; 0000024eH
	push	OFFSET ??_C@_0DE@KEBEOAOH@D?3?2CLEARSKY?2sources?2engine?2xrEng@
	push	OFFSET ??_C@_0L@DCAKJJFH@_valid?$CIAZ?$CJ?$AA@
	call	ebx
$LN11@calculate_:

; 591  : 	R_ASSERT					( _valid(SEA) );

	cmp	BYTE PTR ?ignore_always@?BC@??calculate_dynamic_sun_dir@CEnvironment@@AAEXXZ@4_NA, 0
	jne	SHORT $LN7@calculate_
	fld	DWORD PTR _SEA$[esp+64]
	sub	esp, 8
	fstp	QWORD PTR [esp]
	call	edi
	add	esp, 8
	test	eax, 663				; 00000297H
	je	SHORT $LN7@calculate_
	mov	ecx, DWORD PTR __imp_?Debug@@3VxrDebug@@A
	push	OFFSET ?ignore_always@?BC@??calculate_dynamic_sun_dir@CEnvironment@@AAEXXZ@4_NA
	push	OFFSET ??_C@_0CI@PFKCKBCO@CEnvironment?3?3calculate_dynamic_@
	push	591					; 0000024fH
	push	OFFSET ??_C@_0DE@KEBEOAOH@D?3?2CLEARSKY?2sources?2engine?2xrEng@
	push	OFFSET ??_C@_0M@OFOFEIJG@_valid?$CISEA?$CJ?$AA@
	call	ebx
$LN7@calculate_:

; 592  : 	CurrentEnv->sun_dir.setHP	(AZ,SEA);

	mov	esi, DWORD PTR [ebp+120]
	fld	DWORD PTR _SEA$[esp+64]
	push	ecx
	fstp	DWORD PTR [esp]
	add	esi, 152				; 00000098H
	call	_cosf
	fstp	DWORD PTR __cp$255832[esp+68]
	fld	DWORD PTR _AZ$[esp+68]
	fstp	DWORD PTR [esp]
	call	_sinf
	fmul	DWORD PTR __cp$255832[esp+68]
	fchs
	fstp	DWORD PTR [esi]
	fld	DWORD PTR _SEA$[esp+68]
	fstp	DWORD PTR [esp]
	call	_sinf
	fstp	DWORD PTR [esi+4]
	fld	DWORD PTR _AZ$[esp+68]
	fstp	DWORD PTR [esp]
	call	_cosf
	fmul	DWORD PTR __cp$255832[esp+68]
	add	esp, 4
	fstp	DWORD PTR [esi+8]

; 593  : 	R_ASSERT					( _valid(CurrentEnv->sun_dir) );

	cmp	BYTE PTR ?ignore_always@?BG@??calculate_dynamic_sun_dir@CEnvironment@@AAEXXZ@4_NA, 0
	jne	SHORT $LN3@calculate_
	mov	esi, DWORD PTR [ebp+120]
	fld	DWORD PTR [esi+152]
	add	esi, 152				; 00000098H
	sub	esp, 8
	fstp	QWORD PTR [esp]
	call	edi
	add	esp, 8
	test	eax, 663				; 00000297H
	jne	SHORT $LN187@calculate_
	fld	DWORD PTR [esi+4]
	sub	esp, 8
	fstp	QWORD PTR [esp]
	call	edi
	add	esp, 8
	test	eax, 663				; 00000297H
	jne	SHORT $LN187@calculate_
	fld	DWORD PTR [esi+8]
	sub	esp, 8
	fstp	QWORD PTR [esp]
	call	edi
	add	esp, 8
	test	eax, 663				; 00000297H
	je	SHORT $LN3@calculate_
$LN187@calculate_:
	mov	ecx, DWORD PTR __imp_?Debug@@3VxrDebug@@A
	push	OFFSET ?ignore_always@?BG@??calculate_dynamic_sun_dir@CEnvironment@@AAEXXZ@4_NA
	push	OFFSET ??_C@_0CI@PFKCKBCO@CEnvironment?3?3calculate_dynamic_@
	push	593					; 00000251H
	push	OFFSET ??_C@_0DE@KEBEOAOH@D?3?2CLEARSKY?2sources?2engine?2xrEng@
	push	OFFSET ??_C@_0BM@HLLHPBBI@_valid?$CICurrentEnv?9?$DOsun_dir?$CJ?$AA@
	call	ebx
$LN3@calculate_:

; 594  : 
; 595  : 	CurrentEnv->sun_color.mul	(fSunBlend);

	mov	eax, DWORD PTR [ebp+120]
	movss	xmm0, DWORD PTR _fSunBlend$[esp+64]
	movss	xmm1, DWORD PTR [eax+140]
	add	eax, 140				; 0000008cH
	mulss	xmm1, xmm0
	movss	DWORD PTR [eax], xmm1
	movss	xmm1, DWORD PTR [eax+4]
	mulss	xmm1, xmm0
	movss	DWORD PTR [eax+4], xmm1
	movss	xmm1, DWORD PTR [eax+8]

; 596  : }

	pop	edi
	mulss	xmm1, xmm0
	movss	DWORD PTR [eax+8], xmm1
	pop	esi
	pop	ebp
	pop	ebx
	mov	esp, ebp
	pop	ebp
	ret	0
?calculate_dynamic_sun_dir@CEnvironment@@AAEXXZ ENDP	; CEnvironment::calculate_dynamic_sun_dir
_TEXT	ENDS
PUBLIC	?SelectEnvs@CEnvironment@@AAEXPAV?$xr_vector@PAVCEnvDescriptor@@V?$xalloc@PAVCEnvDescriptor@@@@@@AAPAVCEnvDescriptor@@1M@Z ; CEnvironment::SelectEnvs
; Function compile flags: /Ogtpy
;	COMDAT ?SelectEnvs@CEnvironment@@AAEXPAV?$xr_vector@PAVCEnvDescriptor@@V?$xalloc@PAVCEnvDescriptor@@@@@@AAPAVCEnvDescriptor@@1M@Z
_TEXT	SEGMENT
_envs$ = 8						; size = 4
_e0$ = 12						; size = 4
_e1$ = 16						; size = 4
_gt$ = 20						; size = 4
?SelectEnvs@CEnvironment@@AAEXPAV?$xr_vector@PAVCEnvDescriptor@@V?$xalloc@PAVCEnvDescriptor@@@@@@AAPAVCEnvDescriptor@@1M@Z PROC ; CEnvironment::SelectEnvs, COMDAT
; _this$ = ecx

; 401  : {

	push	esi

; 402  : 	EnvIt env		= std::lower_bound(envs->begin(),envs->end(),gt,lb_env_pred);

	mov	esi, DWORD PTR _envs$[esp]
	mov	eax, DWORD PTR [esi+4]
	push	edi
	push	eax
	call	?cv_ptr@?$_VoidCastTraitsAux@PAXPAX@priv@stlp_std@@SAPAPAXPAPAX@Z ; stlp_std::priv::_VoidCastTraitsAux<void *,void *>::cv_ptr
	mov	edi, eax
	mov	eax, DWORD PTR [esi]
	push	eax
	call	?cv_ptr@?$_VoidCastTraitsAux@PAXPAX@priv@stlp_std@@SAPAPAXPAPAX@Z ; stlp_std::priv::_VoidCastTraitsAux<void *,void *>::cv_ptr
	mov	ecx, eax
	lea	eax, DWORD PTR _gt$[esp+12]
	push	eax
	mov	eax, edi
	call	??$lower_bound@PAPAVCEnvDescriptor@@MP6A_NPBV1@M@Z@stlp_std@@YAPAPAVCEnvDescriptor@@PAPAV1@0ABMP6A_NPBV1@M@Z@Z ; stlp_std::lower_bound<CEnvDescriptor * *,float,bool (__cdecl*)(CEnvDescriptor const *,float)>
	mov	edi, eax

; 403  : 	if (env==envs->end()){

	mov	eax, DWORD PTR [esi+4]
	push	eax
	call	?cv_ptr@?$_VoidCastTraitsAux@PAXPAX@priv@stlp_std@@SAPAPAXPAPAX@Z ; stlp_std::priv::_VoidCastTraitsAux<void *,void *>::cv_ptr
	add	esp, 16					; 00000010H
	cmp	edi, eax
	jne	SHORT $LN4@SelectEnvs

; 404  : 		e0			= *(envs->end()-1);

	mov	eax, DWORD PTR [esi+4]
	push	eax
	call	?cv_ptr@?$_VoidCastTraitsAux@PAXPAX@priv@stlp_std@@SAPAPAXPAPAX@Z ; stlp_std::priv::_VoidCastTraitsAux<void *,void *>::cv_ptr
	mov	ecx, DWORD PTR [eax-4]
	mov	edx, DWORD PTR _e0$[esp+8]
	mov	DWORD PTR [edx], ecx

; 405  : 		e1			= envs->front();

	mov	eax, DWORD PTR [esi]
	mov	ecx, DWORD PTR [eax]
	mov	edx, DWORD PTR _e1$[esp+8]
	add	esp, 4
	pop	edi

; 409  : 		else					e0 = *(env-1);

	mov	DWORD PTR [edx], ecx
	pop	esi

; 410  : 	}
; 411  : }

	ret	16					; 00000010H
$LN4@SelectEnvs:

; 406  : 	}else{
; 407  : 		e1			= *env;

	mov	eax, DWORD PTR [edi]
	mov	ecx, DWORD PTR _e1$[esp+4]
	mov	DWORD PTR [ecx], eax

; 408  : 		if (env==envs->begin())	e0 = *(envs->end()-1);

	mov	eax, DWORD PTR [esi]
	push	eax
	call	?cv_ptr@?$_VoidCastTraitsAux@PAXPAX@priv@stlp_std@@SAPAPAXPAPAX@Z ; stlp_std::priv::_VoidCastTraitsAux<void *,void *>::cv_ptr
	add	esp, 4
	cmp	edi, eax
	jne	SHORT $LN2@SelectEnvs
	mov	esi, DWORD PTR [esi+4]
	push	esi
	call	?cv_ptr@?$_VoidCastTraitsAux@PAXPAX@priv@stlp_std@@SAPAPAXPAPAX@Z ; stlp_std::priv::_VoidCastTraitsAux<void *,void *>::cv_ptr
	mov	edx, DWORD PTR [eax-4]
	mov	eax, DWORD PTR _e0$[esp+8]
	add	esp, 4
	pop	edi
	mov	DWORD PTR [eax], edx
	pop	esi

; 410  : 	}
; 411  : }

	ret	16					; 00000010H
$LN2@SelectEnvs:

; 409  : 		else					e0 = *(env-1);

	mov	ecx, DWORD PTR [edi-4]
	mov	edx, DWORD PTR _e0$[esp+4]
	pop	edi
	mov	DWORD PTR [edx], ecx
	pop	esi

; 410  : 	}
; 411  : }

	ret	16					; 00000010H
?SelectEnvs@CEnvironment@@AAEXPAV?$xr_vector@PAVCEnvDescriptor@@V?$xalloc@PAVCEnvDescriptor@@@@@@AAPAVCEnvDescriptor@@1M@Z ENDP ; CEnvironment::SelectEnvs
_TEXT	ENDS
PUBLIC	?SelectEnv@CEnvironment@@AAEXPAV?$xr_vector@PAVCEnvDescriptor@@V?$xalloc@PAVCEnvDescriptor@@@@@@AAPAVCEnvDescriptor@@M@Z ; CEnvironment::SelectEnv
; Function compile flags: /Ogtpy
;	COMDAT ?SelectEnv@CEnvironment@@AAEXPAV?$xr_vector@PAVCEnvDescriptor@@V?$xalloc@PAVCEnvDescriptor@@@@@@AAPAVCEnvDescriptor@@M@Z
_TEXT	SEGMENT
_envs$ = 8						; size = 4
_e$ = 12						; size = 4
_gt$ = 16						; size = 4
?SelectEnv@CEnvironment@@AAEXPAV?$xr_vector@PAVCEnvDescriptor@@V?$xalloc@PAVCEnvDescriptor@@@@@@AAPAVCEnvDescriptor@@M@Z PROC ; CEnvironment::SelectEnv, COMDAT
; _this$ = ecx

; 391  : {

	push	esi

; 392  : 	EnvIt env		= std::lower_bound(envs->begin(),envs->end(),gt,lb_env_pred);

	mov	esi, DWORD PTR _envs$[esp]
	mov	eax, DWORD PTR [esi+4]
	push	edi
	push	eax
	call	?cv_ptr@?$_VoidCastTraitsAux@PAXPAX@priv@stlp_std@@SAPAPAXPAPAX@Z ; stlp_std::priv::_VoidCastTraitsAux<void *,void *>::cv_ptr
	mov	edi, eax
	mov	eax, DWORD PTR [esi]
	push	eax
	call	?cv_ptr@?$_VoidCastTraitsAux@PAXPAX@priv@stlp_std@@SAPAPAXPAPAX@Z ; stlp_std::priv::_VoidCastTraitsAux<void *,void *>::cv_ptr
	mov	ecx, eax
	lea	eax, DWORD PTR _gt$[esp+12]
	push	eax
	mov	eax, edi
	call	??$lower_bound@PAPAVCEnvDescriptor@@MP6A_NPBV1@M@Z@stlp_std@@YAPAPAVCEnvDescriptor@@PAPAV1@0ABMP6A_NPBV1@M@Z@Z ; stlp_std::lower_bound<CEnvDescriptor * *,float,bool (__cdecl*)(CEnvDescriptor const *,float)>
	mov	edi, eax

; 393  : 	if (env==envs->end()){

	mov	eax, DWORD PTR [esi+4]
	push	eax
	call	?cv_ptr@?$_VoidCastTraitsAux@PAXPAX@priv@stlp_std@@SAPAPAXPAPAX@Z ; stlp_std::priv::_VoidCastTraitsAux<void *,void *>::cv_ptr
	add	esp, 16					; 00000010H
	cmp	edi, eax
	jne	SHORT $LN2@SelectEnv

; 394  : 		e			= envs->front();

	mov	ecx, DWORD PTR [esi]
	mov	edx, DWORD PTR [ecx]
	mov	eax, DWORD PTR _e$[esp+4]
	pop	edi
	mov	DWORD PTR [eax], edx
	pop	esi

; 397  : 	}
; 398  : }

	ret	12					; 0000000cH
$LN2@SelectEnv:

; 395  : 	}else{
; 396  : 		e			= *env;

	mov	ecx, DWORD PTR [edi]
	mov	edx, DWORD PTR _e$[esp+4]
	pop	edi
	mov	DWORD PTR [edx], ecx
	pop	esi

; 397  : 	}
; 398  : }

	ret	12					; 0000000cH
?SelectEnv@CEnvironment@@AAEXPAV?$xr_vector@PAVCEnvDescriptor@@V?$xalloc@PAVCEnvDescriptor@@@@@@AAPAVCEnvDescriptor@@M@Z ENDP ; CEnvironment::SelectEnv
_TEXT	ENDS
PUBLIC	?SetGameTime@CEnvironment@@QAEXMM@Z		; CEnvironment::SetGameTime
; Function compile flags: /Ogtpy
;	COMDAT ?SetGameTime@CEnvironment@@QAEXMM@Z
_TEXT	SEGMENT
$T256150 = -8						; size = 8
_a$256154 = 8						; size = 4
_game_time$ = 8						; size = 4
_time_factor$ = 12					; size = 4
?SetGameTime@CEnvironment@@QAEXMM@Z PROC		; CEnvironment::SetGameTime, COMDAT
; _this$ = ecx

; 256  : {

	sub	esp, 8
	push	edi
	mov	edi, ecx

; 257  : #ifndef _EDITOR
; 258  : 	if (m_paused) {

	cmp	BYTE PTR [edi+248], 0
	je	$LN2@SetGameTim

; 259  : 		g_pGameLevel->SetEnvironmentGameTimeFactor	(iFloor(fGameTime*1000.f), fTimeFactor);

	movss	xmm0, DWORD PTR [edi+28]
	mulss	xmm0, DWORD PTR _fuzzy_update_novis
	push	esi
	movss	DWORD PTR _a$256154[esp+12], xmm0
	mov	esi, DWORD PTR _a$256154[esp+12]
	mov	eax, esi
	sar	eax, 23					; 00000017H
	and	eax, 255				; 000000ffH
	mov	ecx, 158				; 0000009eH
	sub	ecx, eax
	mov	eax, esi
	or	eax, -8388608				; ff800000H
	shl	eax, 8
	shr	eax, cl
	sub	ecx, 96					; 00000060H
	mov	edx, 1
	shl	edx, cl
	sub	edx, 1
	sar	edx, 8
	and	edx, esi
	neg	edx
	sbb	edx, edx
	add	edx, 1
	sar	esi, 31					; 0000001fH
	and	edx, esi
	sub	eax, edx
	add	ecx, 64					; 00000040H
	sar	ecx, 31					; 0000001fH
	and	eax, ecx
	mov	ecx, DWORD PTR ?g_pGameLevel@@3PAVIGame_Level@@A ; g_pGameLevel
	xor	eax, esi
	cdq
	mov	DWORD PTR $T256150[esp+16], eax
	mov	DWORD PTR $T256150[esp+20], edx
	mov	edx, DWORD PTR [ecx]
	mov	edx, DWORD PTR [edx+60]
	add	edi, 244				; 000000f4H
	push	edi
	lea	eax, DWORD PTR $T256150[esp+20]
	push	eax
	call	edx
	pop	esi
	pop	edi

; 267  : }

	add	esp, 8
	ret	8
$LN2@SetGameTim:

; 260  : 		return;
; 261  : 	}
; 262  : #endif
; 263  : 	if (bWFX)

	cmp	BYTE PTR [edi+132], 0
	movss	xmm2, DWORD PTR _game_time$[esp+8]
	je	SHORT $LN1@SetGameTim

; 264  : 		wfx_time			-= TimeDiff(fGameTime,game_time);

	movss	xmm1, DWORD PTR [edi+28]
	comiss	xmm1, xmm2
	jbe	SHORT $LN8@SetGameTim
	movss	xmm0, DWORD PTR __real@47a8c000
	subss	xmm0, xmm1
	addss	xmm0, xmm2
	jmp	SHORT $LN7@SetGameTim
$LN8@SetGameTim:
	movaps	xmm0, xmm2
	subss	xmm0, xmm1
$LN7@SetGameTim:
	movss	xmm1, DWORD PTR [edi+136]
	subss	xmm1, xmm0
	movss	DWORD PTR [edi+136], xmm1
$LN1@SetGameTim:

; 265  : 	fGameTime				= game_time;  
; 266  : 	fTimeFactor				= time_factor;	

	movss	xmm0, DWORD PTR _time_factor$[esp+8]
	movss	DWORD PTR [edi+28], xmm2
	movss	DWORD PTR [edi+244], xmm0
	pop	edi

; 267  : }

	add	esp, 8
	ret	8
?SetGameTime@CEnvironment@@QAEXMM@Z ENDP		; CEnvironment::SetGameTime
_TEXT	ENDS
PUBLIC	?TimeWeight@CEnvironment@@AAEMMMM@Z		; CEnvironment::TimeWeight
; Function compile flags: /Ogtpy
;	COMDAT ?TimeWeight@CEnvironment@@AAEMMMM@Z
_TEXT	SEGMENT
_weight$ = -8						; size = 4
_length$ = -4						; size = 4
_val$ = 8						; size = 4
_min_t$ = 12						; size = 4
_max_t$ = 16						; size = 4
?TimeWeight@CEnvironment@@AAEMMMM@Z PROC		; CEnvironment::TimeWeight, COMDAT
; _this$ = ecx

; 237  : {

	sub	esp, 8

; 238  : 	float weight	= 0.f;
; 239  : 	float length	= TimeDiff(min_t,max_t);

	movss	xmm1, DWORD PTR _min_t$[esp+4]
	movss	xmm2, DWORD PTR _max_t$[esp+4]
	comiss	xmm1, xmm2
	xorps	xmm0, xmm0
	push	esi
	mov	esi, ecx
	movss	DWORD PTR _weight$[esp+12], xmm0
	jbe	SHORT $LN10@TimeWeight
	movss	xmm0, DWORD PTR __real@47a8c000
	subss	xmm0, xmm1
	addss	xmm0, xmm2
	movss	DWORD PTR _length$[esp+12], xmm0
	jmp	SHORT $LN9@TimeWeight
$LN10@TimeWeight:
	subss	xmm2, xmm1
	movss	DWORD PTR _length$[esp+12], xmm2
$LN9@TimeWeight:

; 240  : 	if (!fis_zero(length,EPS)){

	fld	DWORD PTR _length$[esp+12]
	push	ecx
	fstp	DWORD PTR [esp]
	call	_fabsf
	fld	DWORD PTR _EPS
	add	esp, 4
	fcomip	ST(1)
	fstp	ST(0)
	ja	$LN35@TimeWeight

; 241  : 		if (min_t>max_t){

	movss	xmm2, DWORD PTR _min_t$[esp+8]
	movss	xmm1, DWORD PTR _max_t$[esp+8]
	comiss	xmm2, xmm1

; 242  : 			if ((val>=min_t)||(val<=max_t))	weight = TimeDiff(min_t,val)/length;

	movss	xmm0, DWORD PTR _val$[esp+8]
	jbe	SHORT $LN5@TimeWeight
	comiss	xmm0, xmm2
	jae	SHORT $LN3@TimeWeight
	comiss	xmm1, xmm0
	jb	$LN35@TimeWeight
$LN3@TimeWeight:
	comiss	xmm2, xmm0
	jbe	SHORT $LN22@TimeWeight
	movss	xmm1, DWORD PTR __real@47a8c000
	subss	xmm1, xmm2
	addss	xmm1, xmm0
	movaps	xmm0, xmm1
	divss	xmm0, DWORD PTR _length$[esp+12]
	movss	DWORD PTR _weight$[esp+12], xmm0

; 243  : 		}else{

	jmp	SHORT $LN1@TimeWeight

; 242  : 			if ((val>=min_t)||(val<=max_t))	weight = TimeDiff(min_t,val)/length;

$LN22@TimeWeight:
	subss	xmm0, xmm2
	divss	xmm0, DWORD PTR _length$[esp+12]
	movss	DWORD PTR _weight$[esp+12], xmm0

; 243  : 		}else{

	jmp	SHORT $LN1@TimeWeight
$LN5@TimeWeight:

; 244  : 			if ((val>=min_t)&&(val<=max_t))	weight = TimeDiff(min_t,val)/length;

	comiss	xmm0, xmm2
	jb	SHORT $LN35@TimeWeight
	comiss	xmm1, xmm0
	jb	SHORT $LN35@TimeWeight
	fld	DWORD PTR _val$[esp+8]
	sub	esp, 8
	fstp	DWORD PTR [esp+4]
	mov	ecx, esi
	fld	DWORD PTR _min_t$[esp+16]
	fstp	DWORD PTR [esp]
	call	?TimeDiff@CEnvironment@@AAEMMM@Z	; CEnvironment::TimeDiff
	fdiv	DWORD PTR _length$[esp+12]
	fstp	DWORD PTR _weight$[esp+12]
	movss	xmm0, DWORD PTR _weight$[esp+12]
$LN1@TimeWeight:

; 245  : 		}
; 246  : 		clamp		(weight,0.f,1.f);

	xorps	xmm1, xmm1
	comiss	xmm1, xmm0
	ja	SHORT $LN36@TimeWeight
	movss	xmm1, DWORD PTR __real@3f800000
	comiss	xmm0, xmm1
	jbe	SHORT $LN35@TimeWeight
$LN36@TimeWeight:
	movss	DWORD PTR _weight$[esp+12], xmm1
$LN35@TimeWeight:

; 247  : 	}
; 248  : 	return			weight;

	fld	DWORD PTR _weight$[esp+12]
	pop	esi

; 249  : }

	add	esp, 8
	ret	12					; 0000000cH
?TimeWeight@CEnvironment@@AAEMMMM@Z ENDP		; CEnvironment::TimeWeight
_TEXT	ENDS
PUBLIC	?Invalidate@CEnvironment@@QAEXXZ		; CEnvironment::Invalidate
; Function compile flags: /Ogtpy
;	COMDAT ?Invalidate@CEnvironment@@QAEXXZ
_TEXT	SEGMENT
?Invalidate@CEnvironment@@QAEXXZ PROC			; CEnvironment::Invalidate, COMDAT
; _this$ = ecx

; 224  : 	bWFX					= false;

	xor	eax, eax
	mov	BYTE PTR [ecx+132], al

; 225  : 	Current[0]				= 0;

	mov	DWORD PTR [ecx+124], eax

; 226  : 	Current[1]				= 0;

	mov	DWORD PTR [ecx+128], eax

; 227  : 	if (eff_LensFlare)		eff_LensFlare->Invalidate();

	mov	ecx, DWORD PTR [ecx+236]
	cmp	ecx, eax
	je	SHORT $LN4@Invalidate
	mov	DWORD PTR [ecx+492], eax
$LN4@Invalidate:

; 228  : }

	ret	0
?Invalidate@CEnvironment@@QAEXXZ ENDP			; CEnvironment::Invalidate
; Function compile flags: /Ogtpy
_TEXT	ENDS
;	COMDAT ??1?$vector@UParticle@CEffect_Rain@@V?$xalloc@UParticle@CEffect_Rain@@@@@stlp_std@@QAE@XZ
_TEXT	SEGMENT
??1?$vector@UParticle@CEffect_Rain@@V?$xalloc@UParticle@CEffect_Rain@@@@@stlp_std@@QAE@XZ PROC ; stlp_std::vector<CEffect_Rain::Particle,xalloc<CEffect_Rain::Particle> >::~vector<CEffect_Rain::Particle,xalloc<CEffect_Rain::Particle> >, COMDAT
; _this$ = eax
	mov	eax, DWORD PTR [eax]
	test	eax, eax
	je	SHORT $LN36@vector@10
	mov	ecx, DWORD PTR __imp_?Memory@@3VxrMemory@@A
	push	eax
	call	DWORD PTR __imp_?mem_free@xrMemory@@QAEXPAX@Z
$LN36@vector@10:
	ret	0
??1?$vector@UParticle@CEffect_Rain@@V?$xalloc@UParticle@CEffect_Rain@@@@@stlp_std@@QAE@XZ ENDP ; stlp_std::vector<CEffect_Rain::Particle,xalloc<CEffect_Rain::Particle> >::~vector<CEffect_Rain::Particle,xalloc<CEffect_Rain::Particle> >
; Function compile flags: /Ogtpy
_TEXT	ENDS
;	COMDAT ??1?$vector@UItem@CEffect_Rain@@V?$xalloc@UItem@CEffect_Rain@@@@@stlp_std@@QAE@XZ
_TEXT	SEGMENT
??1?$vector@UItem@CEffect_Rain@@V?$xalloc@UItem@CEffect_Rain@@@@@stlp_std@@QAE@XZ PROC ; stlp_std::vector<CEffect_Rain::Item,xalloc<CEffect_Rain::Item> >::~vector<CEffect_Rain::Item,xalloc<CEffect_Rain::Item> >, COMDAT
; _this$ = eax
	mov	eax, DWORD PTR [eax]
	test	eax, eax
	je	SHORT $LN36@vector@11
	mov	ecx, DWORD PTR __imp_?Memory@@3VxrMemory@@A
	push	eax
	call	DWORD PTR __imp_?mem_free@xrMemory@@QAEXPAX@Z
$LN36@vector@11:
	ret	0
??1?$vector@UItem@CEffect_Rain@@V?$xalloc@UItem@CEffect_Rain@@@@@stlp_std@@QAE@XZ ENDP ; stlp_std::vector<CEffect_Rain::Item,xalloc<CEffect_Rain::Item> >::~vector<CEffect_Rain::Item,xalloc<CEffect_Rain::Item> >
; Function compile flags: /Ogtpy
_TEXT	ENDS
;	COMDAT ??1?$xr_vector@UParticle@CEffect_Rain@@V?$xalloc@UParticle@CEffect_Rain@@@@@@QAE@XZ
_TEXT	SEGMENT
??1?$xr_vector@UParticle@CEffect_Rain@@V?$xalloc@UParticle@CEffect_Rain@@@@@@QAE@XZ PROC ; xr_vector<CEffect_Rain::Particle,xalloc<CEffect_Rain::Particle> >::~xr_vector<CEffect_Rain::Particle,xalloc<CEffect_Rain::Particle> >, COMDAT
; _this$ = eax
	mov	eax, DWORD PTR [eax]
	test	eax, eax
	je	SHORT $LN38@xr_vector@7
	mov	ecx, DWORD PTR __imp_?Memory@@3VxrMemory@@A
	push	eax
	call	DWORD PTR __imp_?mem_free@xrMemory@@QAEXPAX@Z
$LN38@xr_vector@7:
	ret	0
??1?$xr_vector@UParticle@CEffect_Rain@@V?$xalloc@UParticle@CEffect_Rain@@@@@@QAE@XZ ENDP ; xr_vector<CEffect_Rain::Particle,xalloc<CEffect_Rain::Particle> >::~xr_vector<CEffect_Rain::Particle,xalloc<CEffect_Rain::Particle> >
; Function compile flags: /Ogtpy
_TEXT	ENDS
;	COMDAT ??0?$xr_vector@UParticle@CEffect_Rain@@V?$xalloc@UParticle@CEffect_Rain@@@@@@QAE@ABV0@@Z
_TEXT	SEGMENT
??0?$xr_vector@UParticle@CEffect_Rain@@V?$xalloc@UParticle@CEffect_Rain@@@@@@QAE@ABV0@@Z PROC ; xr_vector<CEffect_Rain::Particle,xalloc<CEffect_Rain::Particle> >::xr_vector<CEffect_Rain::Particle,xalloc<CEffect_Rain::Particle> >, COMDAT
; _this$ = ecx
; ___that$ = eax
	push	esi
	mov	esi, ecx
	call	??0?$_Impl_vector@UParticle@CEffect_Rain@@V?$xalloc@UParticle@CEffect_Rain@@@@@priv@stlp_std@@QAE@ABV012@@Z ; stlp_std::priv::_Impl_vector<CEffect_Rain::Particle,xalloc<CEffect_Rain::Particle> >::_Impl_vector<CEffect_Rain::Particle,xalloc<CEffect_Rain::Particle> >
	mov	eax, esi
	pop	esi
	ret	0
??0?$xr_vector@UParticle@CEffect_Rain@@V?$xalloc@UParticle@CEffect_Rain@@@@@@QAE@ABV0@@Z ENDP ; xr_vector<CEffect_Rain::Particle,xalloc<CEffect_Rain::Particle> >::xr_vector<CEffect_Rain::Particle,xalloc<CEffect_Rain::Particle> >
; Function compile flags: /Ogtpy
_TEXT	ENDS
;	COMDAT ??1?$xr_vector@UItem@CEffect_Rain@@V?$xalloc@UItem@CEffect_Rain@@@@@@QAE@XZ
_TEXT	SEGMENT
??1?$xr_vector@UItem@CEffect_Rain@@V?$xalloc@UItem@CEffect_Rain@@@@@@QAE@XZ PROC ; xr_vector<CEffect_Rain::Item,xalloc<CEffect_Rain::Item> >::~xr_vector<CEffect_Rain::Item,xalloc<CEffect_Rain::Item> >, COMDAT
; _this$ = eax
	mov	eax, DWORD PTR [eax]
	test	eax, eax
	je	SHORT $LN38@xr_vector@8
	mov	ecx, DWORD PTR __imp_?Memory@@3VxrMemory@@A
	push	eax
	call	DWORD PTR __imp_?mem_free@xrMemory@@QAEXPAX@Z
$LN38@xr_vector@8:
	ret	0
??1?$xr_vector@UItem@CEffect_Rain@@V?$xalloc@UItem@CEffect_Rain@@@@@@QAE@XZ ENDP ; xr_vector<CEffect_Rain::Item,xalloc<CEffect_Rain::Item> >::~xr_vector<CEffect_Rain::Item,xalloc<CEffect_Rain::Item> >
; Function compile flags: /Ogtpy
_TEXT	ENDS
;	COMDAT ??0?$xr_vector@UItem@CEffect_Rain@@V?$xalloc@UItem@CEffect_Rain@@@@@@QAE@ABV0@@Z
_TEXT	SEGMENT
??0?$xr_vector@UItem@CEffect_Rain@@V?$xalloc@UItem@CEffect_Rain@@@@@@QAE@ABV0@@Z PROC ; xr_vector<CEffect_Rain::Item,xalloc<CEffect_Rain::Item> >::xr_vector<CEffect_Rain::Item,xalloc<CEffect_Rain::Item> >, COMDAT
; _this$ = ecx
; ___that$ = eax
	push	esi
	mov	esi, ecx
	call	??0?$_Impl_vector@UItem@CEffect_Rain@@V?$xalloc@UItem@CEffect_Rain@@@@@priv@stlp_std@@QAE@ABV012@@Z ; stlp_std::priv::_Impl_vector<CEffect_Rain::Item,xalloc<CEffect_Rain::Item> >::_Impl_vector<CEffect_Rain::Item,xalloc<CEffect_Rain::Item> >
	mov	eax, esi
	pop	esi
	ret	0
??0?$xr_vector@UItem@CEffect_Rain@@V?$xalloc@UItem@CEffect_Rain@@@@@@QAE@ABV0@@Z ENDP ; xr_vector<CEffect_Rain::Item,xalloc<CEffect_Rain::Item> >::xr_vector<CEffect_Rain::Item,xalloc<CEffect_Rain::Item> >
; Function compile flags: /Ogtpy
_TEXT	ENDS
;	COMDAT ??1?$vector@Urq_result@collide@@V?$xalloc@Urq_result@collide@@@@@stlp_std@@QAE@XZ
_TEXT	SEGMENT
??1?$vector@Urq_result@collide@@V?$xalloc@Urq_result@collide@@@@@stlp_std@@QAE@XZ PROC ; stlp_std::vector<collide::rq_result,xalloc<collide::rq_result> >::~vector<collide::rq_result,xalloc<collide::rq_result> >, COMDAT
; _this$ = eax
	mov	eax, DWORD PTR [eax]
	test	eax, eax
	je	SHORT $LN36@vector@12
	mov	ecx, DWORD PTR __imp_?Memory@@3VxrMemory@@A
	push	eax
	call	DWORD PTR __imp_?mem_free@xrMemory@@QAEXPAX@Z
$LN36@vector@12:
	ret	0
??1?$vector@Urq_result@collide@@V?$xalloc@Urq_result@collide@@@@@stlp_std@@QAE@XZ ENDP ; stlp_std::vector<collide::rq_result,xalloc<collide::rq_result> >::~vector<collide::rq_result,xalloc<collide::rq_result> >
; Function compile flags: /Ogtpy
_TEXT	ENDS
;	COMDAT ??1?$xr_vector@Urq_result@collide@@V?$xalloc@Urq_result@collide@@@@@@QAE@XZ
_TEXT	SEGMENT
??1?$xr_vector@Urq_result@collide@@V?$xalloc@Urq_result@collide@@@@@@QAE@XZ PROC ; xr_vector<collide::rq_result,xalloc<collide::rq_result> >::~xr_vector<collide::rq_result,xalloc<collide::rq_result> >, COMDAT
; _this$ = eax
	mov	eax, DWORD PTR [eax]
	test	eax, eax
	je	SHORT $LN38@xr_vector@9
	mov	ecx, DWORD PTR __imp_?Memory@@3VxrMemory@@A
	push	eax
	call	DWORD PTR __imp_?mem_free@xrMemory@@QAEXPAX@Z
$LN38@xr_vector@9:
	ret	0
??1?$xr_vector@Urq_result@collide@@V?$xalloc@Urq_result@collide@@@@@@QAE@XZ ENDP ; xr_vector<collide::rq_result,xalloc<collide::rq_result> >::~xr_vector<collide::rq_result,xalloc<collide::rq_result> >
; Function compile flags: /Ogtpy
_TEXT	ENDS
;	COMDAT ??0?$xr_vector@Urq_result@collide@@V?$xalloc@Urq_result@collide@@@@@@QAE@ABV0@@Z
_TEXT	SEGMENT
??0?$xr_vector@Urq_result@collide@@V?$xalloc@Urq_result@collide@@@@@@QAE@ABV0@@Z PROC ; xr_vector<collide::rq_result,xalloc<collide::rq_result> >::xr_vector<collide::rq_result,xalloc<collide::rq_result> >, COMDAT
; _this$ = ecx
; ___that$ = eax
	push	esi
	mov	esi, ecx
	call	??0?$_Impl_vector@Urq_result@collide@@V?$xalloc@Urq_result@collide@@@@@priv@stlp_std@@QAE@ABV012@@Z ; stlp_std::priv::_Impl_vector<collide::rq_result,xalloc<collide::rq_result> >::_Impl_vector<collide::rq_result,xalloc<collide::rq_result> >
	mov	eax, esi
	pop	esi
	ret	0
??0?$xr_vector@Urq_result@collide@@V?$xalloc@Urq_result@collide@@@@@@QAE@ABV0@@Z ENDP ; xr_vector<collide::rq_result,xalloc<collide::rq_result> >::xr_vector<collide::rq_result,xalloc<collide::rq_result> >
; Function compile flags: /Ogtpy
_TEXT	ENDS
;	COMDAT ??1rq_results@collide@@QAE@XZ
_TEXT	SEGMENT
??1rq_results@collide@@QAE@XZ PROC			; collide::rq_results::~rq_results, COMDAT
; _this$ = eax
	mov	eax, DWORD PTR [eax]
	test	eax, eax
	je	SHORT $LN40@rq_results
	mov	ecx, DWORD PTR __imp_?Memory@@3VxrMemory@@A
	push	eax
	call	DWORD PTR __imp_?mem_free@xrMemory@@QAEXPAX@Z
$LN40@rq_results:
	ret	0
??1rq_results@collide@@QAE@XZ ENDP			; collide::rq_results::~rq_results
; Function compile flags: /Ogtpy
_TEXT	ENDS
;	COMDAT ??0rq_results@collide@@QAE@ABV01@@Z
_TEXT	SEGMENT
??0rq_results@collide@@QAE@ABV01@@Z PROC		; collide::rq_results::rq_results, COMDAT
; _this$ = ecx
; ___that$ = eax
	push	esi
	mov	esi, ecx
	call	??0?$_Impl_vector@Urq_result@collide@@V?$xalloc@Urq_result@collide@@@@@priv@stlp_std@@QAE@ABV012@@Z ; stlp_std::priv::_Impl_vector<collide::rq_result,xalloc<collide::rq_result> >::_Impl_vector<collide::rq_result,xalloc<collide::rq_result> >
	mov	eax, esi
	pop	esi
	ret	0
??0rq_results@collide@@QAE@ABV01@@Z ENDP		; collide::rq_results::rq_results
; Function compile flags: /Ogtpy
; File d:\clearsky\sources\engine\xrengine\environment.h
_TEXT	ENDS
;	COMDAT ??Rstr_pred@CEnvironment@@QBE_NABVshared_str@@0@Z
_TEXT	SEGMENT
??Rstr_pred@CEnvironment@@QBE_NABVshared_str@@0@Z PROC	; CEnvironment::str_pred::operator(), COMDAT
; _x$ = eax
; _y$ = ecx

; 215  : 		{	return xr_strcmp(x,y)<0;	}

	mov	edx, DWORD PTR [eax]
	mov	eax, DWORD PTR [ecx]
	cmp	edx, eax
	je	SHORT $LN21@operator@23
	test	eax, eax
	je	SHORT $LN11@operator@23
	lea	ecx, DWORD PTR [eax+16]
	jmp	SHORT $LN12@operator@23
$LN11@operator@23:
	xor	ecx, ecx
$LN12@operator@23:
	test	edx, edx
	je	SHORT $LN15@operator@23
	lea	eax, DWORD PTR [edx+16]
	jmp	SHORT $LL16@operator@23
$LN15@operator@23:
	xor	eax, eax
	npad	2
$LL16@operator@23:
	mov	dl, BYTE PTR [eax]
	cmp	dl, BYTE PTR [ecx]
	jne	SHORT $LN20@operator@23
	test	dl, dl
	je	SHORT $LN21@operator@23
	mov	dl, BYTE PTR [eax+1]
	cmp	dl, BYTE PTR [ecx+1]
	jne	SHORT $LN20@operator@23
	add	eax, 2
	add	ecx, 2
	test	dl, dl
	jne	SHORT $LL16@operator@23
$LN21@operator@23:
	xor	eax, eax
	xor	edx, edx
	test	eax, eax
	setl	dl
	mov	al, dl
	ret	0
$LN20@operator@23:
	sbb	eax, eax
	sbb	eax, -1
	xor	edx, edx
	test	eax, eax
	setl	dl
	mov	al, dl
	ret	0
??Rstr_pred@CEnvironment@@QBE_NABVshared_str@@0@Z ENDP	; CEnvironment::str_pred::operator()
; Function compile flags: /Ogtpy
; File d:\clearsky\sources\sdk\include\stlport\stl\_vector.h
;	COMDAT ?_M_erase@?$_Impl_vector@U?$_vector3@M@@V?$xalloc@U?$_vector3@M@@@@@priv@stlp_std@@AAEPAU?$_vector3@M@@PAU4@0ABU__false_type@3@@Z
_TEXT	SEGMENT
_this$ = 8						; size = 4
?_M_erase@?$_Impl_vector@U?$_vector3@M@@V?$xalloc@U?$_vector3@M@@@@@priv@stlp_std@@AAEPAU?$_vector3@M@@PAU4@0ABU__false_type@3@@Z PROC ; stlp_std::priv::_Impl_vector<_vector3<float>,xalloc<_vector3<float> > >::_M_erase, COMDAT
; ___first$ = ebx
; ___last$ = eax

; 578  :   iterator _M_erase(iterator __first, iterator __last, const __false_type& /*_Movable*/) {

	push	ebp
	mov	ebp, DWORD PTR _this$[esp]
	push	esi
	push	edi

; 579  :     pointer __i = _STLP_PRIV __copy_ptrs(__last, this->_M_finish, __first, _TrivialCopy());

	mov	edi, DWORD PTR [ebp+4]
	sub	edi, eax
	je	SHORT $LN7@M_erase@26
	push	edi
	push	eax
	push	ebx
	call	DWORD PTR __imp__memmove
	mov	esi, eax
	add	esp, 12					; 0000000cH
	add	esi, edi
	jmp	SHORT $LN8@M_erase@26
$LN7@M_erase@26:
	mov	esi, ebx
$LN8@M_erase@26:

; 580  :     _STLP_STD::_Destroy_Range(__i, this->_M_finish);

	mov	eax, DWORD PTR [ebp+4]
	push	0
	push	eax
	push	esi
	call	??$__destroy_range@PAU?$_vector3@M@@U1@@stlp_std@@YAXPAU?$_vector3@M@@00@Z ; stlp_std::__destroy_range<_vector3<float> *,_vector3<float> >
	add	esp, 12					; 0000000cH
	pop	edi

; 581  :     this->_M_finish = __i;

	mov	DWORD PTR [ebp+4], esi
	pop	esi

; 582  :     return __first;

	mov	eax, ebx
	pop	ebp

; 583  :   }

	ret	4
?_M_erase@?$_Impl_vector@U?$_vector3@M@@V?$xalloc@U?$_vector3@M@@@@@priv@stlp_std@@AAEPAU?$_vector3@M@@PAU4@0ABU__false_type@3@@Z ENDP ; stlp_std::priv::_Impl_vector<_vector3<float>,xalloc<_vector3<float> > >::_M_erase
; Function compile flags: /Ogtpy
_TEXT	ENDS
;	COMDAT ?erase@?$_Impl_vector@U?$_vector3@M@@V?$xalloc@U?$_vector3@M@@@@@priv@stlp_std@@QAEPAU?$_vector3@M@@PAU4@0@Z
_TEXT	SEGMENT
_this$ = 8						; size = 4
?erase@?$_Impl_vector@U?$_vector3@M@@V?$xalloc@U?$_vector3@M@@@@@priv@stlp_std@@QAEPAU?$_vector3@M@@PAU4@0@Z PROC ; stlp_std::priv::_Impl_vector<_vector3<float>,xalloc<_vector3<float> > >::erase, COMDAT
; ___first$ = ebx
; ___last$ = eax

; 590  :     if (__first == __last)

	cmp	ebx, eax
	push	ebp
	mov	ebp, DWORD PTR _this$[esp]

; 591  :       return __first;

	je	SHORT $LN18@erase@40
	push	esi
	push	edi

; 592  :     return _M_erase(__first, __last, _Movable());

	mov	edi, DWORD PTR [ebp+4]
	sub	edi, eax
	je	SHORT $LN10@erase@40
	push	edi
	push	eax
	push	ebx
	call	DWORD PTR __imp__memmove
	mov	esi, eax
	add	esp, 12					; 0000000cH
	add	esi, edi
	jmp	SHORT $LN11@erase@40
$LN10@erase@40:
	mov	esi, ebx
$LN11@erase@40:
	mov	eax, DWORD PTR [ebp+4]
	push	0
	push	eax
	push	esi
	call	??$__destroy_range@PAU?$_vector3@M@@U1@@stlp_std@@YAXPAU?$_vector3@M@@00@Z ; stlp_std::__destroy_range<_vector3<float> *,_vector3<float> >
	add	esp, 12					; 0000000cH
	pop	edi
	mov	DWORD PTR [ebp+4], esi
	pop	esi
$LN18@erase@40:
	mov	eax, ebx
	pop	ebp

; 593  :   }

	ret	4
?erase@?$_Impl_vector@U?$_vector3@M@@V?$xalloc@U?$_vector3@M@@@@@priv@stlp_std@@QAEPAU?$_vector3@M@@PAU4@0@Z ENDP ; stlp_std::priv::_Impl_vector<_vector3<float>,xalloc<_vector3<float> > >::erase
; Function compile flags: /Ogtpy
; File d:\clearsky\sources\sdk\include\stlport\stl\_uninitialized.h
_TEXT	ENDS
;	COMDAT ??$__ucopy_aux@PBUParticle@CEffect_Rain@@PAU12@@priv@stlp_std@@YAPAUParticle@CEffect_Rain@@PBU23@0PAU23@ABU__true_type@1@@Z
_TEXT	SEGMENT
??$__ucopy_aux@PBUParticle@CEffect_Rain@@PAU12@@priv@stlp_std@@YAPAUParticle@CEffect_Rain@@PBU23@0PAU23@ABU__true_type@1@@Z PROC ; stlp_std::priv::__ucopy_aux<CEffect_Rain::Particle const *,CEffect_Rain::Particle *>, COMDAT
; ___first$ = ecx
; ___last$ = edx
; ___result$ = eax

; 125  :                                const __true_type& /*BothPtrType*/) {

	push	esi
	mov	esi, edx

; 126  :   return __ucopy_ptrs(__first, __last, __result,
; 127  :                       _UseTrivialUCopy(_STLP_VALUE_TYPE(__first, _InputIter),
; 128  :                                        _STLP_VALUE_TYPE(__result, _OutputIter))._Answer());

	cmp	esi, ecx
	je	SHORT $LN12@ucopy_aux@10
	sub	esi, ecx
	push	esi
	push	ecx
	push	eax
	call	_memcpy
	add	esp, 12					; 0000000cH
	add	eax, esi
$LN12@ucopy_aux@10:
	pop	esi

; 129  : }

	ret	0
??$__ucopy_aux@PBUParticle@CEffect_Rain@@PAU12@@priv@stlp_std@@YAPAUParticle@CEffect_Rain@@PBU23@0PAU23@ABU__true_type@1@@Z ENDP ; stlp_std::priv::__ucopy_aux<CEffect_Rain::Particle const *,CEffect_Rain::Particle *>
; Function compile flags: /Ogtpy
_TEXT	ENDS
;	COMDAT ??$__ucopy_aux@PBUItem@CEffect_Rain@@PAU12@@priv@stlp_std@@YAPAUItem@CEffect_Rain@@PBU23@0PAU23@ABU__true_type@1@@Z
_TEXT	SEGMENT
??$__ucopy_aux@PBUItem@CEffect_Rain@@PAU12@@priv@stlp_std@@YAPAUItem@CEffect_Rain@@PBU23@0PAU23@ABU__true_type@1@@Z PROC ; stlp_std::priv::__ucopy_aux<CEffect_Rain::Item const *,CEffect_Rain::Item *>, COMDAT
; ___first$ = ecx
; ___last$ = edx
; ___result$ = eax

; 125  :                                const __true_type& /*BothPtrType*/) {

	push	esi
	mov	esi, edx

; 126  :   return __ucopy_ptrs(__first, __last, __result,
; 127  :                       _UseTrivialUCopy(_STLP_VALUE_TYPE(__first, _InputIter),
; 128  :                                        _STLP_VALUE_TYPE(__result, _OutputIter))._Answer());

	cmp	esi, ecx
	je	SHORT $LN12@ucopy_aux@11
	sub	esi, ecx
	push	esi
	push	ecx
	push	eax
	call	_memcpy
	add	esp, 12					; 0000000cH
	add	eax, esi
$LN12@ucopy_aux@11:
	pop	esi

; 129  : }

	ret	0
??$__ucopy_aux@PBUItem@CEffect_Rain@@PAU12@@priv@stlp_std@@YAPAUItem@CEffect_Rain@@PBU23@0PAU23@ABU__true_type@1@@Z ENDP ; stlp_std::priv::__ucopy_aux<CEffect_Rain::Item const *,CEffect_Rain::Item *>
; Function compile flags: /Ogtpy
_TEXT	ENDS
;	COMDAT ??$__ucopy_aux@PBUrq_result@collide@@PAU12@@priv@stlp_std@@YAPAUrq_result@collide@@PBU23@0PAU23@ABU__true_type@1@@Z
_TEXT	SEGMENT
??$__ucopy_aux@PBUrq_result@collide@@PAU12@@priv@stlp_std@@YAPAUrq_result@collide@@PBU23@0PAU23@ABU__true_type@1@@Z PROC ; stlp_std::priv::__ucopy_aux<collide::rq_result const *,collide::rq_result *>, COMDAT
; ___first$ = ecx
; ___last$ = edx
; ___result$ = eax

; 125  :                                const __true_type& /*BothPtrType*/) {

	push	esi
	mov	esi, edx

; 126  :   return __ucopy_ptrs(__first, __last, __result,
; 127  :                       _UseTrivialUCopy(_STLP_VALUE_TYPE(__first, _InputIter),
; 128  :                                        _STLP_VALUE_TYPE(__result, _OutputIter))._Answer());

	cmp	esi, ecx
	je	SHORT $LN12@ucopy_aux@12
	sub	esi, ecx
	push	esi
	push	ecx
	push	eax
	call	_memcpy
	add	esp, 12					; 0000000cH
	add	eax, esi
$LN12@ucopy_aux@12:
	pop	esi

; 129  : }

	ret	0
??$__ucopy_aux@PBUrq_result@collide@@PAU12@@priv@stlp_std@@YAPAUrq_result@collide@@PBU23@0PAU23@ABU__true_type@1@@Z ENDP ; stlp_std::priv::__ucopy_aux<collide::rq_result const *,collide::rq_result *>
; Function compile flags: /Ogtpy
; File d:\clearsky\sources\sdk\include\stlport\stl\_tree.h
_TEXT	ENDS
;	COMDAT ??$_M_find@Vshared_str@@@?$_Rb_tree@Vshared_str@@Ustr_pred@CEnvironment@@U?$pair@$$CBVshared_str@@V?$xr_vector@PAVCEnvDescriptor@@V?$xalloc@PAVCEnvDescriptor@@@@@@@stlp_std@@U?$_Select1st@U?$pair@$$CBVshared_str@@V?$xr_vector@PAVCEnvDescriptor@@V?$xalloc@PAVCEnvDescriptor@@@@@@@stlp_std@@@priv@5@U?$_MapTraitsT@U?$pair@$$CBVshared_str@@V?$xr_vector@PAVCEnvDescriptor@@V?$xalloc@PAVCEnvDescriptor@@@@@@@stlp_std@@@75@V?$xalloc@U?$pair@Vshared_str@@V?$xr_vector@PAVCEnvDescriptor@@V?$xalloc@PAVCEnvDescriptor@@@@@@@stlp_std@@@@@priv@stlp_std@@ABEPAU_Rb_tree_node_base@12@ABVshared_str@@@Z
_TEXT	SEGMENT
_this$ = 8						; size = 4
??$_M_find@Vshared_str@@@?$_Rb_tree@Vshared_str@@Ustr_pred@CEnvironment@@U?$pair@$$CBVshared_str@@V?$xr_vector@PAVCEnvDescriptor@@V?$xalloc@PAVCEnvDescriptor@@@@@@@stlp_std@@U?$_Select1st@U?$pair@$$CBVshared_str@@V?$xr_vector@PAVCEnvDescriptor@@V?$xalloc@PAVCEnvDescriptor@@@@@@@stlp_std@@@priv@5@U?$_MapTraitsT@U?$pair@$$CBVshared_str@@V?$xr_vector@PAVCEnvDescriptor@@V?$xalloc@PAVCEnvDescriptor@@@@@@@stlp_std@@@75@V?$xalloc@U?$pair@Vshared_str@@V?$xr_vector@PAVCEnvDescriptor@@V?$xalloc@PAVCEnvDescriptor@@@@@@@stlp_std@@@@@priv@stlp_std@@ABEPAU_Rb_tree_node_base@12@ABVshared_str@@@Z PROC ; stlp_std::priv::_Rb_tree<shared_str,CEnvironment::str_pred,stlp_std::pair<shared_str const ,xr_vector<CEnvDescriptor *,xalloc<CEnvDescriptor *> > >,stlp_std::priv::_Select1st<stlp_std::pair<shared_str const ,xr_vector<CEnvDescriptor *,xalloc<CEnvDescriptor *> > > >,stlp_std::priv::_MapTraitsT<stlp_std::pair<shared_str const ,xr_vector<CEnvDescriptor *,xalloc<CEnvDescriptor *> > > >,xalloc<stlp_std::pair<shared_str,xr_vector<CEnvDescriptor *,xalloc<CEnvDescriptor *> > > > >::_M_find<shared_str>, COMDAT
; ___k$ = ebx

; 543  :   _Base_ptr _M_find(const _KT& __k) const {

	push	ebp
	mov	ebp, DWORD PTR _this$[esp]
	push	esi
	push	edi

; 544  :     _Base_ptr __y = __CONST_CAST(_Base_ptr, &this->_M_header._M_data);      // Last node which is not less than __k.
; 545  :     _Base_ptr __x = _M_root();      // Current node.

	mov	ecx, ebp
	mov	edi, ebp
	call	?_M_root@?$_Rb_tree@Vshared_str@@Ustr_pred@CEnvironment@@U?$pair@$$CBVshared_str@@V?$xr_vector@PAVCEnvDescriptor@@V?$xalloc@PAVCEnvDescriptor@@@@@@@stlp_std@@U?$_Select1st@U?$pair@$$CBVshared_str@@V?$xr_vector@PAVCEnvDescriptor@@V?$xalloc@PAVCEnvDescriptor@@@@@@@stlp_std@@@priv@5@U?$_MapTraitsT@U?$pair@$$CBVshared_str@@V?$xr_vector@PAVCEnvDescriptor@@V?$xalloc@PAVCEnvDescriptor@@@@@@@stlp_std@@@75@V?$xalloc@U?$pair@Vshared_str@@V?$xr_vector@PAVCEnvDescriptor@@V?$xalloc@PAVCEnvDescriptor@@@@@@@stlp_std@@@@@priv@stlp_std@@IBEPAU_Rb_tree_node_base@23@XZ ; stlp_std::priv::_Rb_tree<shared_str,CEnvironment::str_pred,stlp_std::pair<shared_str const ,xr_vector<CEnvDescriptor *,xalloc<CEnvDescriptor *> > >,stlp_std::priv::_Select1st<stlp_std::pair<shared_str const ,xr_vector<CEnvDescriptor *,xalloc<CEnvDescriptor *> > > >,stlp_std::priv::_MapTraitsT<stlp_std::pair<shared_str const ,xr_vector<CEnvDescriptor *,xalloc<CEnvDescriptor *> > > >,xalloc<stlp_std::pair<shared_str,xr_vector<CEnvDescriptor *,xalloc<CEnvDescriptor *> > > > >::_M_root
	mov	esi, eax

; 546  : 
; 547  :     while (__x != 0)

	test	esi, esi
	je	$LN53@M_find@5
	npad	6
$LL6@M_find@5:

; 548  :       if (!_M_key_compare(_S_key(__x), __k))

	push	esi
	call	?_S_value@?$_Rb_tree@Vshared_str@@Ustr_pred@CEnvironment@@U?$pair@$$CBVshared_str@@V?$xr_vector@PAVCEnvDescriptor@@V?$xalloc@PAVCEnvDescriptor@@@@@@@stlp_std@@U?$_Select1st@U?$pair@$$CBVshared_str@@V?$xr_vector@PAVCEnvDescriptor@@V?$xalloc@PAVCEnvDescriptor@@@@@@@stlp_std@@@priv@5@U?$_MapTraitsT@U?$pair@$$CBVshared_str@@V?$xr_vector@PAVCEnvDescriptor@@V?$xalloc@PAVCEnvDescriptor@@@@@@@stlp_std@@@75@V?$xalloc@U?$pair@Vshared_str@@V?$xr_vector@PAVCEnvDescriptor@@V?$xalloc@PAVCEnvDescriptor@@@@@@@stlp_std@@@@@priv@stlp_std@@KAAAU?$pair@$$CBVshared_str@@V?$xr_vector@PAVCEnvDescriptor@@V?$xalloc@PAVCEnvDescriptor@@@@@@@3@PAU_Rb_tree_node_base@23@@Z ; stlp_std::priv::_Rb_tree<shared_str,CEnvironment::str_pred,stlp_std::pair<shared_str const ,xr_vector<CEnvDescriptor *,xalloc<CEnvDescriptor *> > >,stlp_std::priv::_Select1st<stlp_std::pair<shared_str const ,xr_vector<CEnvDescriptor *,xalloc<CEnvDescriptor *> > > >,stlp_std::priv::_MapTraitsT<stlp_std::pair<shared_str const ,xr_vector<CEnvDescriptor *,xalloc<CEnvDescriptor *> > > >,xalloc<stlp_std::pair<shared_str,xr_vector<CEnvDescriptor *,xalloc<CEnvDescriptor *> > > > >::_S_value
	mov	edx, DWORD PTR [eax]
	mov	eax, DWORD PTR [ebx]
	add	esp, 4
	cmp	edx, eax
	je	SHORT $LN46@M_find@5
	test	eax, eax
	je	SHORT $LN27@M_find@5
	lea	ecx, DWORD PTR [eax+16]
	jmp	SHORT $LN28@M_find@5
$LN27@M_find@5:
	xor	ecx, ecx
$LN28@M_find@5:
	test	edx, edx
	je	SHORT $LN31@M_find@5
	lea	eax, DWORD PTR [edx+16]
	jmp	SHORT $LL32@M_find@5
$LN31@M_find@5:
	xor	eax, eax
$LL32@M_find@5:
	mov	dl, BYTE PTR [eax]
	cmp	dl, BYTE PTR [ecx]
	jne	SHORT $LN48@M_find@5
	test	dl, dl
	je	SHORT $LN49@M_find@5
	mov	dl, BYTE PTR [eax+1]
	cmp	dl, BYTE PTR [ecx+1]
	jne	SHORT $LN48@M_find@5
	add	eax, 2
	add	ecx, 2
	test	dl, dl
	jne	SHORT $LL32@M_find@5
$LN49@M_find@5:
	xor	eax, eax
	jmp	SHORT $LN50@M_find@5
$LN48@M_find@5:
	sbb	eax, eax
	sbb	eax, -1
$LN50@M_find@5:
	test	eax, eax
	jl	SHORT $LN4@M_find@5
$LN46@M_find@5:

; 549  :         __y = __x, __x = _S_left(__x);

	push	esi
	mov	edi, esi
	call	?_S_left@?$_Rb_tree@Vshared_str@@Ustr_pred@CEnvironment@@U?$pair@$$CBVshared_str@@V?$xr_vector@PAVCEnvDescriptor@@V?$xalloc@PAVCEnvDescriptor@@@@@@@stlp_std@@U?$_Select1st@U?$pair@$$CBVshared_str@@V?$xr_vector@PAVCEnvDescriptor@@V?$xalloc@PAVCEnvDescriptor@@@@@@@stlp_std@@@priv@5@U?$_MapTraitsT@U?$pair@$$CBVshared_str@@V?$xr_vector@PAVCEnvDescriptor@@V?$xalloc@PAVCEnvDescriptor@@@@@@@stlp_std@@@75@V?$xalloc@U?$pair@Vshared_str@@V?$xr_vector@PAVCEnvDescriptor@@V?$xalloc@PAVCEnvDescriptor@@@@@@@stlp_std@@@@@priv@stlp_std@@KAAAPAU_Rb_tree_node_base@23@PAU423@@Z ; stlp_std::priv::_Rb_tree<shared_str,CEnvironment::str_pred,stlp_std::pair<shared_str const ,xr_vector<CEnvDescriptor *,xalloc<CEnvDescriptor *> > >,stlp_std::priv::_Select1st<stlp_std::pair<shared_str const ,xr_vector<CEnvDescriptor *,xalloc<CEnvDescriptor *> > > >,stlp_std::priv::_MapTraitsT<stlp_std::pair<shared_str const ,xr_vector<CEnvDescriptor *,xalloc<CEnvDescriptor *> > > >,xalloc<stlp_std::pair<shared_str,xr_vector<CEnvDescriptor *,xalloc<CEnvDescriptor *> > > > >::_S_left

; 550  :       else

	jmp	SHORT $LN54@M_find@5
$LN4@M_find@5:

; 551  :         __x = _S_right(__x);

	push	esi
	call	?_S_right@?$_Rb_tree@Vshared_str@@Ustr_pred@CEnvironment@@U?$pair@$$CBVshared_str@@V?$xr_vector@PAVCEnvDescriptor@@V?$xalloc@PAVCEnvDescriptor@@@@@@@stlp_std@@U?$_Select1st@U?$pair@$$CBVshared_str@@V?$xr_vector@PAVCEnvDescriptor@@V?$xalloc@PAVCEnvDescriptor@@@@@@@stlp_std@@@priv@5@U?$_MapTraitsT@U?$pair@$$CBVshared_str@@V?$xr_vector@PAVCEnvDescriptor@@V?$xalloc@PAVCEnvDescriptor@@@@@@@stlp_std@@@75@V?$xalloc@U?$pair@Vshared_str@@V?$xr_vector@PAVCEnvDescriptor@@V?$xalloc@PAVCEnvDescriptor@@@@@@@stlp_std@@@@@priv@stlp_std@@KAAAPAU_Rb_tree_node_base@23@PAU423@@Z ; stlp_std::priv::_Rb_tree<shared_str,CEnvironment::str_pred,stlp_std::pair<shared_str const ,xr_vector<CEnvDescriptor *,xalloc<CEnvDescriptor *> > >,stlp_std::priv::_Select1st<stlp_std::pair<shared_str const ,xr_vector<CEnvDescriptor *,xalloc<CEnvDescriptor *> > > >,stlp_std::priv::_MapTraitsT<stlp_std::pair<shared_str const ,xr_vector<CEnvDescriptor *,xalloc<CEnvDescriptor *> > > >,xalloc<stlp_std::pair<shared_str,xr_vector<CEnvDescriptor *,xalloc<CEnvDescriptor *> > > > >::_S_right
$LN54@M_find@5:
	mov	esi, DWORD PTR [eax]
	add	esp, 4
	test	esi, esi
	jne	SHORT $LL6@M_find@5

; 552  : 
; 553  :     if (__y != &this->_M_header._M_data) {

	cmp	edi, ebp
	je	SHORT $LN53@M_find@5

; 554  :       if (_M_key_compare(__k, _S_key(__y))) {

	push	edi
	call	?_S_value@?$_Rb_tree@Vshared_str@@Ustr_pred@CEnvironment@@U?$pair@$$CBVshared_str@@V?$xr_vector@PAVCEnvDescriptor@@V?$xalloc@PAVCEnvDescriptor@@@@@@@stlp_std@@U?$_Select1st@U?$pair@$$CBVshared_str@@V?$xr_vector@PAVCEnvDescriptor@@V?$xalloc@PAVCEnvDescriptor@@@@@@@stlp_std@@@priv@5@U?$_MapTraitsT@U?$pair@$$CBVshared_str@@V?$xr_vector@PAVCEnvDescriptor@@V?$xalloc@PAVCEnvDescriptor@@@@@@@stlp_std@@@75@V?$xalloc@U?$pair@Vshared_str@@V?$xr_vector@PAVCEnvDescriptor@@V?$xalloc@PAVCEnvDescriptor@@@@@@@stlp_std@@@@@priv@stlp_std@@KAAAU?$pair@$$CBVshared_str@@V?$xr_vector@PAVCEnvDescriptor@@V?$xalloc@PAVCEnvDescriptor@@@@@@@3@PAU_Rb_tree_node_base@23@@Z ; stlp_std::priv::_Rb_tree<shared_str,CEnvironment::str_pred,stlp_std::pair<shared_str const ,xr_vector<CEnvDescriptor *,xalloc<CEnvDescriptor *> > >,stlp_std::priv::_Select1st<stlp_std::pair<shared_str const ,xr_vector<CEnvDescriptor *,xalloc<CEnvDescriptor *> > > >,stlp_std::priv::_MapTraitsT<stlp_std::pair<shared_str const ,xr_vector<CEnvDescriptor *,xalloc<CEnvDescriptor *> > > >,xalloc<stlp_std::pair<shared_str,xr_vector<CEnvDescriptor *,xalloc<CEnvDescriptor *> > > > >::_S_value
	mov	ecx, eax
	add	esp, 4
	mov	eax, ebx
	call	??Rstr_pred@CEnvironment@@QBE_NABVshared_str@@0@Z ; CEnvironment::str_pred::operator()
	test	al, al

; 555  :         __y = __CONST_CAST(_Base_ptr, &this->_M_header._M_data);
; 556  :       }
; 557  :     }
; 558  :     return __y;

	mov	eax, ebp
	jne	SHORT $LN1@M_find@5
$LN53@M_find@5:
	mov	eax, edi
$LN1@M_find@5:
	pop	edi
	pop	esi
	pop	ebp

; 559  :   }

	ret	4
??$_M_find@Vshared_str@@@?$_Rb_tree@Vshared_str@@Ustr_pred@CEnvironment@@U?$pair@$$CBVshared_str@@V?$xr_vector@PAVCEnvDescriptor@@V?$xalloc@PAVCEnvDescriptor@@@@@@@stlp_std@@U?$_Select1st@U?$pair@$$CBVshared_str@@V?$xr_vector@PAVCEnvDescriptor@@V?$xalloc@PAVCEnvDescriptor@@@@@@@stlp_std@@@priv@5@U?$_MapTraitsT@U?$pair@$$CBVshared_str@@V?$xr_vector@PAVCEnvDescriptor@@V?$xalloc@PAVCEnvDescriptor@@@@@@@stlp_std@@@75@V?$xalloc@U?$pair@Vshared_str@@V?$xr_vector@PAVCEnvDescriptor@@V?$xalloc@PAVCEnvDescriptor@@@@@@@stlp_std@@@@@priv@stlp_std@@ABEPAU_Rb_tree_node_base@12@ABVshared_str@@@Z ENDP ; stlp_std::priv::_Rb_tree<shared_str,CEnvironment::str_pred,stlp_std::pair<shared_str const ,xr_vector<CEnvDescriptor *,xalloc<CEnvDescriptor *> > >,stlp_std::priv::_Select1st<stlp_std::pair<shared_str const ,xr_vector<CEnvDescriptor *,xalloc<CEnvDescriptor *> > > >,stlp_std::priv::_MapTraitsT<stlp_std::pair<shared_str const ,xr_vector<CEnvDescriptor *,xalloc<CEnvDescriptor *> > > >,xalloc<stlp_std::pair<shared_str,xr_vector<CEnvDescriptor *,xalloc<CEnvDescriptor *> > > > >::_M_find<shared_str>
; Function compile flags: /Ogtpy
; File d:\clearsky\sources\sdk\include\stlport\stl\_uninitialized.h
_TEXT	ENDS
;	COMDAT ??$uninitialized_copy@PBUParticle@CEffect_Rain@@PAU12@@stlp_std@@YAPAUParticle@CEffect_Rain@@PBU12@0PAU12@@Z
_TEXT	SEGMENT
??$uninitialized_copy@PBUParticle@CEffect_Rain@@PAU12@@stlp_std@@YAPAUParticle@CEffect_Rain@@PBU12@0PAU12@@Z PROC ; stlp_std::uninitialized_copy<CEffect_Rain::Particle const *,CEffect_Rain::Particle *>, COMDAT
; ___first$ = ecx
; ___last$ = edx
; ___result$ = eax

; 144  : { return _STLP_PRIV __ucopy_aux(__first, __last, __result, _BothPtrType< _InputIter, _ForwardIter>::_Answer()); }

	push	esi
	mov	esi, edx
	cmp	esi, ecx
	je	SHORT $LN16@uninitiali@19
	sub	esi, ecx
	push	esi
	push	ecx
	push	eax
	call	_memcpy
	add	esp, 12					; 0000000cH
	add	eax, esi
$LN16@uninitiali@19:
	pop	esi
	ret	0
??$uninitialized_copy@PBUParticle@CEffect_Rain@@PAU12@@stlp_std@@YAPAUParticle@CEffect_Rain@@PBU12@0PAU12@@Z ENDP ; stlp_std::uninitialized_copy<CEffect_Rain::Particle const *,CEffect_Rain::Particle *>
; Function compile flags: /Ogtpy
_TEXT	ENDS
;	COMDAT ??$uninitialized_copy@PBUItem@CEffect_Rain@@PAU12@@stlp_std@@YAPAUItem@CEffect_Rain@@PBU12@0PAU12@@Z
_TEXT	SEGMENT
??$uninitialized_copy@PBUItem@CEffect_Rain@@PAU12@@stlp_std@@YAPAUItem@CEffect_Rain@@PBU12@0PAU12@@Z PROC ; stlp_std::uninitialized_copy<CEffect_Rain::Item const *,CEffect_Rain::Item *>, COMDAT
; ___first$ = ecx
; ___last$ = edx
; ___result$ = eax

; 144  : { return _STLP_PRIV __ucopy_aux(__first, __last, __result, _BothPtrType< _InputIter, _ForwardIter>::_Answer()); }

	push	esi
	mov	esi, edx
	cmp	esi, ecx
	je	SHORT $LN16@uninitiali@20
	sub	esi, ecx
	push	esi
	push	ecx
	push	eax
	call	_memcpy
	add	esp, 12					; 0000000cH
	add	eax, esi
$LN16@uninitiali@20:
	pop	esi
	ret	0
??$uninitialized_copy@PBUItem@CEffect_Rain@@PAU12@@stlp_std@@YAPAUItem@CEffect_Rain@@PBU12@0PAU12@@Z ENDP ; stlp_std::uninitialized_copy<CEffect_Rain::Item const *,CEffect_Rain::Item *>
; Function compile flags: /Ogtpy
_TEXT	ENDS
;	COMDAT ??$uninitialized_copy@PBUrq_result@collide@@PAU12@@stlp_std@@YAPAUrq_result@collide@@PBU12@0PAU12@@Z
_TEXT	SEGMENT
??$uninitialized_copy@PBUrq_result@collide@@PAU12@@stlp_std@@YAPAUrq_result@collide@@PBU12@0PAU12@@Z PROC ; stlp_std::uninitialized_copy<collide::rq_result const *,collide::rq_result *>, COMDAT
; ___first$ = ecx
; ___last$ = edx
; ___result$ = eax

; 144  : { return _STLP_PRIV __ucopy_aux(__first, __last, __result, _BothPtrType< _InputIter, _ForwardIter>::_Answer()); }

	push	esi
	mov	esi, edx
	cmp	esi, ecx
	je	SHORT $LN16@uninitiali@21
	sub	esi, ecx
	push	esi
	push	ecx
	push	eax
	call	_memcpy
	add	esp, 12					; 0000000cH
	add	eax, esi
$LN16@uninitiali@21:
	pop	esi
	ret	0
??$uninitialized_copy@PBUrq_result@collide@@PAU12@@stlp_std@@YAPAUrq_result@collide@@PBU12@0PAU12@@Z ENDP ; stlp_std::uninitialized_copy<collide::rq_result const *,collide::rq_result *>
; Function compile flags: /Ogtpy
; File d:\clearsky\sources\sdk\include\stlport\stl\_tree.h
_TEXT	ENDS
;	COMDAT ??$find@Vshared_str@@@?$_Rb_tree@Vshared_str@@Ustr_pred@CEnvironment@@U?$pair@$$CBVshared_str@@V?$xr_vector@PAVCEnvDescriptor@@V?$xalloc@PAVCEnvDescriptor@@@@@@@stlp_std@@U?$_Select1st@U?$pair@$$CBVshared_str@@V?$xr_vector@PAVCEnvDescriptor@@V?$xalloc@PAVCEnvDescriptor@@@@@@@stlp_std@@@priv@5@U?$_MapTraitsT@U?$pair@$$CBVshared_str@@V?$xr_vector@PAVCEnvDescriptor@@V?$xalloc@PAVCEnvDescriptor@@@@@@@stlp_std@@@75@V?$xalloc@U?$pair@Vshared_str@@V?$xr_vector@PAVCEnvDescriptor@@V?$xalloc@PAVCEnvDescriptor@@@@@@@stlp_std@@@@@priv@stlp_std@@QAE?AU?$_Rb_tree_iterator@U?$pair@$$CBVshared_str@@V?$xr_vector@PAVCEnvDescriptor@@V?$xalloc@PAVCEnvDescriptor@@@@@@@stlp_std@@U?$_MapTraitsT@U?$pair@$$CBVshared_str@@V?$xr_vector@PAVCEnvDescriptor@@V?$xalloc@PAVCEnvDescriptor@@@@@@@stlp_std@@@priv@2@@12@ABVshared_str@@@Z
_TEXT	SEGMENT
??$find@Vshared_str@@@?$_Rb_tree@Vshared_str@@Ustr_pred@CEnvironment@@U?$pair@$$CBVshared_str@@V?$xr_vector@PAVCEnvDescriptor@@V?$xalloc@PAVCEnvDescriptor@@@@@@@stlp_std@@U?$_Select1st@U?$pair@$$CBVshared_str@@V?$xr_vector@PAVCEnvDescriptor@@V?$xalloc@PAVCEnvDescriptor@@@@@@@stlp_std@@@priv@5@U?$_MapTraitsT@U?$pair@$$CBVshared_str@@V?$xr_vector@PAVCEnvDescriptor@@V?$xalloc@PAVCEnvDescriptor@@@@@@@stlp_std@@@75@V?$xalloc@U?$pair@Vshared_str@@V?$xr_vector@PAVCEnvDescriptor@@V?$xalloc@PAVCEnvDescriptor@@@@@@@stlp_std@@@@@priv@stlp_std@@QAE?AU?$_Rb_tree_iterator@U?$pair@$$CBVshared_str@@V?$xr_vector@PAVCEnvDescriptor@@V?$xalloc@PAVCEnvDescriptor@@@@@@@stlp_std@@U?$_MapTraitsT@U?$pair@$$CBVshared_str@@V?$xr_vector@PAVCEnvDescriptor@@V?$xalloc@PAVCEnvDescriptor@@@@@@@stlp_std@@@priv@2@@12@ABVshared_str@@@Z PROC ; stlp_std::priv::_Rb_tree<shared_str,CEnvironment::str_pred,stlp_std::pair<shared_str const ,xr_vector<CEnvDescriptor *,xalloc<CEnvDescriptor *> > >,stlp_std::priv::_Select1st<stlp_std::pair<shared_str const ,xr_vector<CEnvDescriptor *,xalloc<CEnvDescriptor *> > > >,stlp_std::priv::_MapTraitsT<stlp_std::pair<shared_str const ,xr_vector<CEnvDescriptor *,xalloc<CEnvDescriptor *> > > >,xalloc<stlp_std::pair<shared_str,xr_vector<CEnvDescriptor *,xalloc<CEnvDescriptor *> > > > >::find<shared_str>, COMDAT
; _this$ = eax
; ___$ReturnUdt$ = esi
; ___k$ = ebx

; 538  :   iterator find(const _KT& __k) { return iterator(_M_find(__k)); }

	push	eax
	call	??$_M_find@Vshared_str@@@?$_Rb_tree@Vshared_str@@Ustr_pred@CEnvironment@@U?$pair@$$CBVshared_str@@V?$xr_vector@PAVCEnvDescriptor@@V?$xalloc@PAVCEnvDescriptor@@@@@@@stlp_std@@U?$_Select1st@U?$pair@$$CBVshared_str@@V?$xr_vector@PAVCEnvDescriptor@@V?$xalloc@PAVCEnvDescriptor@@@@@@@stlp_std@@@priv@5@U?$_MapTraitsT@U?$pair@$$CBVshared_str@@V?$xr_vector@PAVCEnvDescriptor@@V?$xalloc@PAVCEnvDescriptor@@@@@@@stlp_std@@@75@V?$xalloc@U?$pair@Vshared_str@@V?$xr_vector@PAVCEnvDescriptor@@V?$xalloc@PAVCEnvDescriptor@@@@@@@stlp_std@@@@@priv@stlp_std@@ABEPAU_Rb_tree_node_base@12@ABVshared_str@@@Z ; stlp_std::priv::_Rb_tree<shared_str,CEnvironment::str_pred,stlp_std::pair<shared_str const ,xr_vector<CEnvDescriptor *,xalloc<CEnvDescriptor *> > >,stlp_std::priv::_Select1st<stlp_std::pair<shared_str const ,xr_vector<CEnvDescriptor *,xalloc<CEnvDescriptor *> > > >,stlp_std::priv::_MapTraitsT<stlp_std::pair<shared_str const ,xr_vector<CEnvDescriptor *,xalloc<CEnvDescriptor *> > > >,xalloc<stlp_std::pair<shared_str,xr_vector<CEnvDescriptor *,xalloc<CEnvDescriptor *> > > > >::_M_find<shared_str>
	mov	DWORD PTR [esi], eax
	mov	eax, esi
	ret	0
??$find@Vshared_str@@@?$_Rb_tree@Vshared_str@@Ustr_pred@CEnvironment@@U?$pair@$$CBVshared_str@@V?$xr_vector@PAVCEnvDescriptor@@V?$xalloc@PAVCEnvDescriptor@@@@@@@stlp_std@@U?$_Select1st@U?$pair@$$CBVshared_str@@V?$xr_vector@PAVCEnvDescriptor@@V?$xalloc@PAVCEnvDescriptor@@@@@@@stlp_std@@@priv@5@U?$_MapTraitsT@U?$pair@$$CBVshared_str@@V?$xr_vector@PAVCEnvDescriptor@@V?$xalloc@PAVCEnvDescriptor@@@@@@@stlp_std@@@75@V?$xalloc@U?$pair@Vshared_str@@V?$xr_vector@PAVCEnvDescriptor@@V?$xalloc@PAVCEnvDescriptor@@@@@@@stlp_std@@@@@priv@stlp_std@@QAE?AU?$_Rb_tree_iterator@U?$pair@$$CBVshared_str@@V?$xr_vector@PAVCEnvDescriptor@@V?$xalloc@PAVCEnvDescriptor@@@@@@@stlp_std@@U?$_MapTraitsT@U?$pair@$$CBVshared_str@@V?$xr_vector@PAVCEnvDescriptor@@V?$xalloc@PAVCEnvDescriptor@@@@@@@stlp_std@@@priv@2@@12@ABVshared_str@@@Z ENDP ; stlp_std::priv::_Rb_tree<shared_str,CEnvironment::str_pred,stlp_std::pair<shared_str const ,xr_vector<CEnvDescriptor *,xalloc<CEnvDescriptor *> > >,stlp_std::priv::_Select1st<stlp_std::pair<shared_str const ,xr_vector<CEnvDescriptor *,xalloc<CEnvDescriptor *> > > >,stlp_std::priv::_MapTraitsT<stlp_std::pair<shared_str const ,xr_vector<CEnvDescriptor *,xalloc<CEnvDescriptor *> > > >,xalloc<stlp_std::pair<shared_str,xr_vector<CEnvDescriptor *,xalloc<CEnvDescriptor *> > > > >::find<shared_str>
; Function compile flags: /Ogtpy
; File d:\clearsky\sources\sdk\include\stlport\stl\_vector.h
_TEXT	ENDS
;	COMDAT ??$_M_allocate_and_copy@PBUParticle@CEffect_Rain@@@?$_Impl_vector@UParticle@CEffect_Rain@@V?$xalloc@UParticle@CEffect_Rain@@@@@priv@stlp_std@@AAEPAUParticle@CEffect_Rain@@AAIPBU34@1@Z
_TEXT	SEGMENT
??$_M_allocate_and_copy@PBUParticle@CEffect_Rain@@@?$_Impl_vector@UParticle@CEffect_Rain@@V?$xalloc@UParticle@CEffect_Rain@@@@@priv@stlp_std@@AAEPAUParticle@CEffect_Rain@@AAIPBU34@1@Z PROC ; stlp_std::priv::_Impl_vector<CEffect_Rain::Particle,xalloc<CEffect_Rain::Particle> >::_M_allocate_and_copy<CEffect_Rain::Particle const *>, COMDAT
; ___n$ = eax
; ___first$ = ebx
; ___last$ = ecx

; 634  :                                _ForwardIterator __first, _ForwardIterator __last)
; 635  : #else /* _STLP_MEMBER_TEMPLATES */
; 636  :   pointer _M_allocate_and_copy(size_type& __n,
; 637  :                                const_pointer __first, const_pointer __last)
; 638  : #endif /* _STLP_MEMBER_TEMPLATES */
; 639  :   {
; 640  :     pointer __result = this->_M_end_of_storage.allocate(__n, __n);

	mov	eax, DWORD PTR [eax]
	imul	eax, 92					; 0000005cH
	push	esi
	push	edi
	mov	esi, ecx
	mov	ecx, DWORD PTR __imp_?Memory@@3VxrMemory@@A
	push	eax
	call	DWORD PTR __imp_?mem_alloc@xrMemory@@QAEPAXI@Z

; 641  :     _STLP_TRY {
; 642  :       uninitialized_copy(__first, __last, __result);

	cmp	esi, ebx
	mov	edi, eax
	je	SHORT $LN28@M_allocate@10
	sub	esi, ebx
	push	esi
	push	ebx
	push	edi
	call	_memcpy
	add	esp, 12					; 0000000cH

; 643  :       return __result;

	mov	eax, edi
$LN28@M_allocate@10:
	pop	edi
	pop	esi

; 644  :     }
; 645  :     _STLP_UNWIND(this->_M_end_of_storage.deallocate(__result, __n))
; 646  :     _STLP_RET_AFTER_THROW(__result)
; 647  :   }

	ret	0
??$_M_allocate_and_copy@PBUParticle@CEffect_Rain@@@?$_Impl_vector@UParticle@CEffect_Rain@@V?$xalloc@UParticle@CEffect_Rain@@@@@priv@stlp_std@@AAEPAUParticle@CEffect_Rain@@AAIPBU34@1@Z ENDP ; stlp_std::priv::_Impl_vector<CEffect_Rain::Particle,xalloc<CEffect_Rain::Particle> >::_M_allocate_and_copy<CEffect_Rain::Particle const *>
; Function compile flags: /Ogtpy
_TEXT	ENDS
;	COMDAT ??$_M_allocate_and_copy@PBUItem@CEffect_Rain@@@?$_Impl_vector@UItem@CEffect_Rain@@V?$xalloc@UItem@CEffect_Rain@@@@@priv@stlp_std@@AAEPAUItem@CEffect_Rain@@AAIPBU34@1@Z
_TEXT	SEGMENT
??$_M_allocate_and_copy@PBUItem@CEffect_Rain@@@?$_Impl_vector@UItem@CEffect_Rain@@V?$xalloc@UItem@CEffect_Rain@@@@@priv@stlp_std@@AAEPAUItem@CEffect_Rain@@AAIPBU34@1@Z PROC ; stlp_std::priv::_Impl_vector<CEffect_Rain::Item,xalloc<CEffect_Rain::Item> >::_M_allocate_and_copy<CEffect_Rain::Item const *>, COMDAT
; ___n$ = eax
; ___first$ = ebx
; ___last$ = ecx

; 634  :                                _ForwardIterator __first, _ForwardIterator __last)
; 635  : #else /* _STLP_MEMBER_TEMPLATES */
; 636  :   pointer _M_allocate_and_copy(size_type& __n,
; 637  :                                const_pointer __first, const_pointer __last)
; 638  : #endif /* _STLP_MEMBER_TEMPLATES */
; 639  :   {
; 640  :     pointer __result = this->_M_end_of_storage.allocate(__n, __n);

	mov	eax, DWORD PTR [eax]
	imul	eax, 52					; 00000034H
	push	esi
	push	edi
	mov	esi, ecx
	mov	ecx, DWORD PTR __imp_?Memory@@3VxrMemory@@A
	push	eax
	call	DWORD PTR __imp_?mem_alloc@xrMemory@@QAEPAXI@Z

; 641  :     _STLP_TRY {
; 642  :       uninitialized_copy(__first, __last, __result);

	cmp	esi, ebx
	mov	edi, eax
	je	SHORT $LN28@M_allocate@11
	sub	esi, ebx
	push	esi
	push	ebx
	push	edi
	call	_memcpy
	add	esp, 12					; 0000000cH

; 643  :       return __result;

	mov	eax, edi
$LN28@M_allocate@11:
	pop	edi
	pop	esi

; 644  :     }
; 645  :     _STLP_UNWIND(this->_M_end_of_storage.deallocate(__result, __n))
; 646  :     _STLP_RET_AFTER_THROW(__result)
; 647  :   }

	ret	0
??$_M_allocate_and_copy@PBUItem@CEffect_Rain@@@?$_Impl_vector@UItem@CEffect_Rain@@V?$xalloc@UItem@CEffect_Rain@@@@@priv@stlp_std@@AAEPAUItem@CEffect_Rain@@AAIPBU34@1@Z ENDP ; stlp_std::priv::_Impl_vector<CEffect_Rain::Item,xalloc<CEffect_Rain::Item> >::_M_allocate_and_copy<CEffect_Rain::Item const *>
; Function compile flags: /Ogtpy
_TEXT	ENDS
;	COMDAT ??$_M_allocate_and_copy@PBUrq_result@collide@@@?$_Impl_vector@Urq_result@collide@@V?$xalloc@Urq_result@collide@@@@@priv@stlp_std@@AAEPAUrq_result@collide@@AAIPBU34@1@Z
_TEXT	SEGMENT
??$_M_allocate_and_copy@PBUrq_result@collide@@@?$_Impl_vector@Urq_result@collide@@V?$xalloc@Urq_result@collide@@@@@priv@stlp_std@@AAEPAUrq_result@collide@@AAIPBU34@1@Z PROC ; stlp_std::priv::_Impl_vector<collide::rq_result,xalloc<collide::rq_result> >::_M_allocate_and_copy<collide::rq_result const *>, COMDAT
; ___n$ = eax
; ___first$ = ebx
; ___last$ = ecx

; 634  :                                _ForwardIterator __first, _ForwardIterator __last)
; 635  : #else /* _STLP_MEMBER_TEMPLATES */
; 636  :   pointer _M_allocate_and_copy(size_type& __n,
; 637  :                                const_pointer __first, const_pointer __last)
; 638  : #endif /* _STLP_MEMBER_TEMPLATES */
; 639  :   {
; 640  :     pointer __result = this->_M_end_of_storage.allocate(__n, __n);

	mov	eax, DWORD PTR [eax]
	push	esi
	mov	esi, ecx
	lea	ecx, DWORD PTR [eax+eax*2]
	add	ecx, ecx
	add	ecx, ecx
	push	edi
	push	ecx
	mov	ecx, DWORD PTR __imp_?Memory@@3VxrMemory@@A
	call	DWORD PTR __imp_?mem_alloc@xrMemory@@QAEPAXI@Z

; 641  :     _STLP_TRY {
; 642  :       uninitialized_copy(__first, __last, __result);

	cmp	esi, ebx
	mov	edi, eax
	je	SHORT $LN28@M_allocate@12
	sub	esi, ebx
	push	esi
	push	ebx
	push	edi
	call	_memcpy
	add	esp, 12					; 0000000cH

; 643  :       return __result;

	mov	eax, edi
$LN28@M_allocate@12:
	pop	edi
	pop	esi

; 644  :     }
; 645  :     _STLP_UNWIND(this->_M_end_of_storage.deallocate(__result, __n))
; 646  :     _STLP_RET_AFTER_THROW(__result)
; 647  :   }

	ret	0
??$_M_allocate_and_copy@PBUrq_result@collide@@@?$_Impl_vector@Urq_result@collide@@V?$xalloc@Urq_result@collide@@@@@priv@stlp_std@@AAEPAUrq_result@collide@@AAIPBU34@1@Z ENDP ; stlp_std::priv::_Impl_vector<collide::rq_result,xalloc<collide::rq_result> >::_M_allocate_and_copy<collide::rq_result const *>
; Function compile flags: /Ogtpy
_TEXT	ENDS
;	COMDAT ?_M_clear@?$_Impl_vector@UParticle@CEffect_Rain@@V?$xalloc@UParticle@CEffect_Rain@@@@@priv@stlp_std@@AAEXXZ
_TEXT	SEGMENT
?_M_clear@?$_Impl_vector@UParticle@CEffect_Rain@@V?$xalloc@UParticle@CEffect_Rain@@@@@priv@stlp_std@@AAEXXZ PROC ; stlp_std::priv::_Impl_vector<CEffect_Rain::Particle,xalloc<CEffect_Rain::Particle> >::_M_clear, COMDAT
; _this$ = eax

; 616  :     _STLP_STD::_Destroy_Range(rbegin(), rend());
; 617  :     this->_M_end_of_storage.deallocate(this->_M_start, this->_M_end_of_storage._M_data - this->_M_start);

	mov	eax, DWORD PTR [eax]
	test	eax, eax
	je	SHORT $LN31@M_clear@8
	mov	ecx, DWORD PTR __imp_?Memory@@3VxrMemory@@A
	push	eax
	call	DWORD PTR __imp_?mem_free@xrMemory@@QAEXPAX@Z
$LN31@M_clear@8:

; 618  :   }

	ret	0
?_M_clear@?$_Impl_vector@UParticle@CEffect_Rain@@V?$xalloc@UParticle@CEffect_Rain@@@@@priv@stlp_std@@AAEXXZ ENDP ; stlp_std::priv::_Impl_vector<CEffect_Rain::Particle,xalloc<CEffect_Rain::Particle> >::_M_clear
; Function compile flags: /Ogtpy
_TEXT	ENDS
;	COMDAT ?_M_clear@?$_Impl_vector@UItem@CEffect_Rain@@V?$xalloc@UItem@CEffect_Rain@@@@@priv@stlp_std@@AAEXXZ
_TEXT	SEGMENT
?_M_clear@?$_Impl_vector@UItem@CEffect_Rain@@V?$xalloc@UItem@CEffect_Rain@@@@@priv@stlp_std@@AAEXXZ PROC ; stlp_std::priv::_Impl_vector<CEffect_Rain::Item,xalloc<CEffect_Rain::Item> >::_M_clear, COMDAT
; _this$ = eax

; 616  :     _STLP_STD::_Destroy_Range(rbegin(), rend());
; 617  :     this->_M_end_of_storage.deallocate(this->_M_start, this->_M_end_of_storage._M_data - this->_M_start);

	mov	eax, DWORD PTR [eax]
	test	eax, eax
	je	SHORT $LN31@M_clear@9
	mov	ecx, DWORD PTR __imp_?Memory@@3VxrMemory@@A
	push	eax
	call	DWORD PTR __imp_?mem_free@xrMemory@@QAEXPAX@Z
$LN31@M_clear@9:

; 618  :   }

	ret	0
?_M_clear@?$_Impl_vector@UItem@CEffect_Rain@@V?$xalloc@UItem@CEffect_Rain@@@@@priv@stlp_std@@AAEXXZ ENDP ; stlp_std::priv::_Impl_vector<CEffect_Rain::Item,xalloc<CEffect_Rain::Item> >::_M_clear
; Function compile flags: /Ogtpy
_TEXT	ENDS
;	COMDAT ?_M_clear@?$_Impl_vector@Urq_result@collide@@V?$xalloc@Urq_result@collide@@@@@priv@stlp_std@@AAEXXZ
_TEXT	SEGMENT
?_M_clear@?$_Impl_vector@Urq_result@collide@@V?$xalloc@Urq_result@collide@@@@@priv@stlp_std@@AAEXXZ PROC ; stlp_std::priv::_Impl_vector<collide::rq_result,xalloc<collide::rq_result> >::_M_clear, COMDAT
; _this$ = eax

; 616  :     _STLP_STD::_Destroy_Range(rbegin(), rend());
; 617  :     this->_M_end_of_storage.deallocate(this->_M_start, this->_M_end_of_storage._M_data - this->_M_start);

	mov	eax, DWORD PTR [eax]
	test	eax, eax
	je	SHORT $LN31@M_clear@10
	mov	ecx, DWORD PTR __imp_?Memory@@3VxrMemory@@A
	push	eax
	call	DWORD PTR __imp_?mem_free@xrMemory@@QAEXPAX@Z
$LN31@M_clear@10:

; 618  :   }

	ret	0
?_M_clear@?$_Impl_vector@Urq_result@collide@@V?$xalloc@Urq_result@collide@@@@@priv@stlp_std@@AAEXXZ ENDP ; stlp_std::priv::_Impl_vector<collide::rq_result,xalloc<collide::rq_result> >::_M_clear
; Function compile flags: /Ogtpy
; File d:\clearsky\sources\sdk\include\stlport\stl\_map.h
_TEXT	ENDS
;	COMDAT ??$find@Vshared_str@@@?$map@Vshared_str@@V?$xr_vector@PAVCEnvDescriptor@@V?$xalloc@PAVCEnvDescriptor@@@@@@Ustr_pred@CEnvironment@@V?$xalloc@U?$pair@Vshared_str@@V?$xr_vector@PAVCEnvDescriptor@@V?$xalloc@PAVCEnvDescriptor@@@@@@@stlp_std@@@@@stlp_std@@QAE?AU?$_Rb_tree_iterator@U?$pair@$$CBVshared_str@@V?$xr_vector@PAVCEnvDescriptor@@V?$xalloc@PAVCEnvDescriptor@@@@@@@stlp_std@@U?$_MapTraitsT@U?$pair@$$CBVshared_str@@V?$xr_vector@PAVCEnvDescriptor@@V?$xalloc@PAVCEnvDescriptor@@@@@@@stlp_std@@@priv@2@@priv@1@ABVshared_str@@@Z
_TEXT	SEGMENT
??$find@Vshared_str@@@?$map@Vshared_str@@V?$xr_vector@PAVCEnvDescriptor@@V?$xalloc@PAVCEnvDescriptor@@@@@@Ustr_pred@CEnvironment@@V?$xalloc@U?$pair@Vshared_str@@V?$xr_vector@PAVCEnvDescriptor@@V?$xalloc@PAVCEnvDescriptor@@@@@@@stlp_std@@@@@stlp_std@@QAE?AU?$_Rb_tree_iterator@U?$pair@$$CBVshared_str@@V?$xr_vector@PAVCEnvDescriptor@@V?$xalloc@PAVCEnvDescriptor@@@@@@@stlp_std@@U?$_MapTraitsT@U?$pair@$$CBVshared_str@@V?$xr_vector@PAVCEnvDescriptor@@V?$xalloc@PAVCEnvDescriptor@@@@@@@stlp_std@@@priv@2@@priv@1@ABVshared_str@@@Z PROC ; stlp_std::map<shared_str,xr_vector<CEnvDescriptor *,xalloc<CEnvDescriptor *> >,CEnvironment::str_pred,xalloc<stlp_std::pair<shared_str,xr_vector<CEnvDescriptor *,xalloc<CEnvDescriptor *> > > > >::find<shared_str>, COMDAT
; _this$ = eax
; ___$ReturnUdt$ = esi
; ___x$ = ebx

; 205  :   iterator find(const _KT& __x) { return _M_t.find(__x); }

	push	eax
	call	??$_M_find@Vshared_str@@@?$_Rb_tree@Vshared_str@@Ustr_pred@CEnvironment@@U?$pair@$$CBVshared_str@@V?$xr_vector@PAVCEnvDescriptor@@V?$xalloc@PAVCEnvDescriptor@@@@@@@stlp_std@@U?$_Select1st@U?$pair@$$CBVshared_str@@V?$xr_vector@PAVCEnvDescriptor@@V?$xalloc@PAVCEnvDescriptor@@@@@@@stlp_std@@@priv@5@U?$_MapTraitsT@U?$pair@$$CBVshared_str@@V?$xr_vector@PAVCEnvDescriptor@@V?$xalloc@PAVCEnvDescriptor@@@@@@@stlp_std@@@75@V?$xalloc@U?$pair@Vshared_str@@V?$xr_vector@PAVCEnvDescriptor@@V?$xalloc@PAVCEnvDescriptor@@@@@@@stlp_std@@@@@priv@stlp_std@@ABEPAU_Rb_tree_node_base@12@ABVshared_str@@@Z ; stlp_std::priv::_Rb_tree<shared_str,CEnvironment::str_pred,stlp_std::pair<shared_str const ,xr_vector<CEnvDescriptor *,xalloc<CEnvDescriptor *> > >,stlp_std::priv::_Select1st<stlp_std::pair<shared_str const ,xr_vector<CEnvDescriptor *,xalloc<CEnvDescriptor *> > > >,stlp_std::priv::_MapTraitsT<stlp_std::pair<shared_str const ,xr_vector<CEnvDescriptor *,xalloc<CEnvDescriptor *> > > >,xalloc<stlp_std::pair<shared_str,xr_vector<CEnvDescriptor *,xalloc<CEnvDescriptor *> > > > >::_M_find<shared_str>
	mov	DWORD PTR [esi], eax
	mov	eax, esi
	ret	0
??$find@Vshared_str@@@?$map@Vshared_str@@V?$xr_vector@PAVCEnvDescriptor@@V?$xalloc@PAVCEnvDescriptor@@@@@@Ustr_pred@CEnvironment@@V?$xalloc@U?$pair@Vshared_str@@V?$xr_vector@PAVCEnvDescriptor@@V?$xalloc@PAVCEnvDescriptor@@@@@@@stlp_std@@@@@stlp_std@@QAE?AU?$_Rb_tree_iterator@U?$pair@$$CBVshared_str@@V?$xr_vector@PAVCEnvDescriptor@@V?$xalloc@PAVCEnvDescriptor@@@@@@@stlp_std@@U?$_MapTraitsT@U?$pair@$$CBVshared_str@@V?$xr_vector@PAVCEnvDescriptor@@V?$xalloc@PAVCEnvDescriptor@@@@@@@stlp_std@@@priv@2@@priv@1@ABVshared_str@@@Z ENDP ; stlp_std::map<shared_str,xr_vector<CEnvDescriptor *,xalloc<CEnvDescriptor *> >,CEnvironment::str_pred,xalloc<stlp_std::pair<shared_str,xr_vector<CEnvDescriptor *,xalloc<CEnvDescriptor *> > > > >::find<shared_str>
; Function compile flags: /Ogtpy
; File d:\clearsky\sources\engine\xrcore\xrmemory_subst_msvc.h
_TEXT	ENDS
;	COMDAT ??$xr_new@VCInifile@@PBDHHH@@YAPAVCInifile@@ABQBDABH11@Z
_TEXT	SEGMENT
_p1$ = 8						; size = 4
_p2$ = 12						; size = 4
_p3$ = 16						; size = 4
_p4$ = 20						; size = 4
??$xr_new@VCInifile@@PBDHHH@@YAPAVCInifile@@ABQBDABH11@Z PROC ; xr_new<CInifile,char const *,int,int,int>, COMDAT

; 91   : IC	T*		xr_new		(const P1& p1, const P2& p2, const P3& p3, const P4& p4) {

	push	ebp
	mov	ebp, esp
	and	esp, -8					; fffffff8H
	push	ecx

; 92   : 	T* ptr	= (T*)Memory.mem_alloc(sizeof(T));

	mov	ecx, DWORD PTR __imp_?Memory@@3VxrMemory@@A
	push	esi
	push	540					; 0000021cH
	call	DWORD PTR __imp_?mem_alloc@xrMemory@@QAEPAXI@Z

; 93   : 	return new (ptr) T(p1,p2,p3,p4);

	mov	esi, eax
	test	esi, esi
	je	SHORT $LN3@xr_new@10
	sub	esp, 8
	mov	ecx, esp
	call	??0?$FastDelegate@$$A6A_NPBD@Z@fastdelegate@@QAE@XZ ; fastdelegate::FastDelegate<bool __cdecl(char const *)>::FastDelegate<bool __cdecl(char const *)>
	mov	eax, DWORD PTR _p4$[ebp]
	mov	ecx, DWORD PTR [eax]
	mov	edx, DWORD PTR _p3$[ebp]
	mov	eax, DWORD PTR [edx]
	push	0
	push	ecx
	mov	ecx, DWORD PTR _p2$[ebp]
	mov	edx, DWORD PTR [ecx]
	push	eax
	mov	eax, DWORD PTR _p1$[ebp]
	mov	ecx, DWORD PTR [eax]
	push	edx
	push	ecx
	mov	ecx, esi
	call	DWORD PTR __imp_??0CInifile@@QAE@PBDHHHIV?$FastDelegate@$$A6A_NPBD@Z@fastdelegate@@@Z

; 94   : }

	pop	esi
	mov	esp, ebp
	pop	ebp
	ret	0
$LN3@xr_new@10:

; 93   : 	return new (ptr) T(p1,p2,p3,p4);

	xor	eax, eax

; 94   : }

	pop	esi
	mov	esp, ebp
	pop	ebp
	ret	0
??$xr_new@VCInifile@@PBDHHH@@YAPAVCInifile@@ABQBDABH11@Z ENDP ; xr_new<CInifile,char const *,int,int,int>
; Function compile flags: /Ogtpy
; File d:\clearsky\sources\sdk\include\stlport\stl\_vector.c
_TEXT	ENDS
;	COMDAT ??4?$_Impl_vector@UParticle@CEffect_Rain@@V?$xalloc@UParticle@CEffect_Rain@@@@@priv@stlp_std@@QAEAAV012@ABV012@@Z
_TEXT	SEGMENT
tv420 = -4						; size = 4
___result$314937 = 8					; size = 4
___x$ = 8						; size = 4
??4?$_Impl_vector@UParticle@CEffect_Rain@@V?$xalloc@UParticle@CEffect_Rain@@@@@priv@stlp_std@@QAEAAV012@ABV012@@Z PROC ; stlp_std::priv::_Impl_vector<CEffect_Rain::Particle,xalloc<CEffect_Rain::Particle> >::operator=, COMDAT
; _this$ = edi

; 177  : vector<_Tp, _Alloc>& vector<_Tp, _Alloc>::operator = (const vector<_Tp, _Alloc>& __x) {

	push	ecx

; 178  :   if (&__x != this) {

	mov	eax, DWORD PTR ___x$[esp]
	cmp	eax, edi
	push	ebx
	push	ebp
	push	esi
	je	$LN97@operator@51

; 179  :     const size_type __xlen = __x.size();

	mov	ebp, DWORD PTR [eax+4]
	mov	ebx, DWORD PTR [eax]
	mov	ecx, ebp
	sub	ecx, ebx
	mov	eax, -1307163959			; b21642c9H
	imul	ecx

; 180  :     if (__xlen > capacity()) {

	mov	eax, DWORD PTR [edi]
	add	edx, ecx
	mov	ecx, DWORD PTR [edi+8]
	sar	edx, 6
	sub	ecx, eax
	mov	esi, edx
	shr	esi, 31					; 0000001fH
	add	esi, edx
	mov	eax, -1307163959			; b21642c9H
	imul	ecx
	add	edx, ecx
	sar	edx, 6
	mov	eax, edx
	shr	eax, 31					; 0000001fH
	add	eax, edx
	cmp	esi, eax
	jbe	SHORT $LN4@operator@51

; 181  :       size_type __len = __xlen;
; 182  :       pointer __tmp = _M_allocate_and_copy(__len, __CONST_CAST(const_pointer, __x._M_start) + 0,
; 183  :                                                   __CONST_CAST(const_pointer, __x._M_finish) + 0);

	mov	ecx, DWORD PTR __imp_?Memory@@3VxrMemory@@A
	mov	eax, esi
	imul	eax, 92					; 0000005cH
	push	eax
	mov	DWORD PTR tv420[esp+20], eax
	call	DWORD PTR __imp_?mem_alloc@xrMemory@@QAEPAXI@Z
	cmp	ebp, ebx
	mov	DWORD PTR ___result$314937[esp+12], eax
	je	SHORT $LN39@operator@51
	sub	ebp, ebx
	push	ebp
	push	ebx
	push	eax
	call	_memcpy
	mov	eax, DWORD PTR ___result$314937[esp+24]
	add	esp, 12					; 0000000cH
$LN39@operator@51:

; 184  :       _M_clear();

	mov	ecx, DWORD PTR [edi]
	test	ecx, ecx
	je	SHORT $LN70@operator@51
	push	ecx
	mov	ecx, DWORD PTR __imp_?Memory@@3VxrMemory@@A
	call	DWORD PTR __imp_?mem_free@xrMemory@@QAEXPAX@Z
	mov	eax, DWORD PTR ___result$314937[esp+12]
$LN70@operator@51:

; 185  :       this->_M_start = __tmp;
; 186  :       this->_M_end_of_storage._M_data = this->_M_start + __len;

	mov	ecx, DWORD PTR tv420[esp+16]

; 196  :     }
; 197  :     this->_M_finish = this->_M_start + __xlen;

	imul	esi, 92					; 0000005cH
	add	ecx, eax
	add	esi, eax
	mov	DWORD PTR [edi], eax
	mov	DWORD PTR [edi+8], ecx
	mov	DWORD PTR [edi+4], esi

; 198  :   }
; 199  :   return *this;

	mov	eax, edi

; 200  : }

	pop	esi
	pop	ebp
	pop	ebx
	pop	ecx
	ret	4
$LN4@operator@51:

; 187  :     } else if (size() >= __xlen) {

	mov	ecx, DWORD PTR [edi+4]
	sub	ecx, DWORD PTR [edi]
	mov	eax, -1307163959			; b21642c9H
	imul	ecx
	add	edx, ecx
	sar	edx, 6
	mov	eax, edx
	shr	eax, 31					; 0000001fH
	add	eax, edx
	cmp	eax, esi
	jb	SHORT $LN2@operator@51

; 188  :       pointer __i = _STLP_PRIV __copy_ptrs(__CONST_CAST(const_pointer, __x._M_start) + 0,
; 189  :                                            __CONST_CAST(const_pointer, __x._M_finish) + 0, this->_M_start, _TrivialCopy());

	sub	ebp, ebx
	je	SHORT $LN96@operator@51
	mov	eax, DWORD PTR [edi]
	push	ebp
	push	ebx
	push	eax
	call	DWORD PTR __imp__memmove

; 196  :     }
; 197  :     this->_M_finish = this->_M_start + __xlen;

	imul	esi, 92					; 0000005cH
	add	esp, 12					; 0000000cH
	add	esi, DWORD PTR [edi]

; 198  :   }
; 199  :   return *this;

	mov	eax, edi
	mov	DWORD PTR [edi+4], esi

; 200  : }

	pop	esi
	pop	ebp
	pop	ebx
	pop	ecx
	ret	4
$LN2@operator@51:

; 190  :       _STLP_STD::_Destroy_Range(__i, this->_M_finish);
; 191  :     } else {
; 192  :       _STLP_PRIV __copy_ptrs(__CONST_CAST(const_pointer, __x._M_start),
; 193  :                              __CONST_CAST(const_pointer, __x._M_start) + size(), this->_M_start, _TrivialCopy());

	imul	eax, 92					; 0000005cH
	sub	eax, ebx
	add	eax, ebx
	je	SHORT $LN87@operator@51
	push	eax
	mov	eax, DWORD PTR [edi]
	push	ebx
	push	eax
	call	DWORD PTR __imp__memmove
	add	esp, 12					; 0000000cH
$LN87@operator@51:

; 194  :       _STLP_PRIV __ucopy_ptrs(__CONST_CAST(const_pointer, __x._M_start) + size(),
; 195  :                               __CONST_CAST(const_pointer, __x._M_finish) + 0, this->_M_finish, _TrivialUCopy());

	mov	ebp, DWORD PTR [edi+4]
	mov	edx, DWORD PTR ___x$[esp+12]
	mov	ebx, DWORD PTR [edx+4]
	mov	ecx, ebp
	sub	ecx, DWORD PTR [edi]
	mov	eax, -1307163959			; b21642c9H
	imul	ecx
	add	edx, ecx
	mov	ecx, DWORD PTR ___x$[esp+12]
	sar	edx, 6
	mov	eax, edx
	shr	eax, 31					; 0000001fH
	add	eax, edx
	imul	eax, 92					; 0000005cH
	add	eax, DWORD PTR [ecx]
	cmp	ebx, eax
	je	SHORT $LN96@operator@51
	sub	ebx, eax
	push	ebx
	push	eax
	push	ebp
	call	_memcpy
	add	esp, 12					; 0000000cH
$LN96@operator@51:

; 196  :     }
; 197  :     this->_M_finish = this->_M_start + __xlen;

	imul	esi, 92					; 0000005cH
	add	esi, DWORD PTR [edi]
	mov	DWORD PTR [edi+4], esi
$LN97@operator@51:

; 200  : }

	pop	esi
	pop	ebp
	mov	eax, edi
	pop	ebx
	pop	ecx
	ret	4
??4?$_Impl_vector@UParticle@CEffect_Rain@@V?$xalloc@UParticle@CEffect_Rain@@@@@priv@stlp_std@@QAEAAV012@ABV012@@Z ENDP ; stlp_std::priv::_Impl_vector<CEffect_Rain::Particle,xalloc<CEffect_Rain::Particle> >::operator=
; Function compile flags: /Ogtpy
_TEXT	ENDS
;	COMDAT ??4?$_Impl_vector@UItem@CEffect_Rain@@V?$xalloc@UItem@CEffect_Rain@@@@@priv@stlp_std@@QAEAAV012@ABV012@@Z
_TEXT	SEGMENT
tv420 = -4						; size = 4
___result$315311 = 8					; size = 4
___x$ = 8						; size = 4
??4?$_Impl_vector@UItem@CEffect_Rain@@V?$xalloc@UItem@CEffect_Rain@@@@@priv@stlp_std@@QAEAAV012@ABV012@@Z PROC ; stlp_std::priv::_Impl_vector<CEffect_Rain::Item,xalloc<CEffect_Rain::Item> >::operator=, COMDAT
; _this$ = edi

; 177  : vector<_Tp, _Alloc>& vector<_Tp, _Alloc>::operator = (const vector<_Tp, _Alloc>& __x) {

	push	ecx

; 178  :   if (&__x != this) {

	mov	eax, DWORD PTR ___x$[esp]
	cmp	eax, edi
	push	ebx
	push	ebp
	push	esi
	je	$LN97@operator@52

; 179  :     const size_type __xlen = __x.size();

	mov	ebp, DWORD PTR [eax+4]
	mov	ebx, DWORD PTR [eax]
	mov	ecx, ebp
	sub	ecx, ebx
	mov	eax, 1321528399				; 4ec4ec4fH
	imul	ecx

; 180  :     if (__xlen > capacity()) {

	mov	eax, DWORD PTR [edi]
	mov	ecx, DWORD PTR [edi+8]
	sar	edx, 4
	sub	ecx, eax
	mov	esi, edx
	shr	esi, 31					; 0000001fH
	add	esi, edx
	mov	eax, 1321528399				; 4ec4ec4fH
	imul	ecx
	sar	edx, 4
	mov	eax, edx
	shr	eax, 31					; 0000001fH
	add	eax, edx
	cmp	esi, eax
	jbe	SHORT $LN4@operator@52

; 181  :       size_type __len = __xlen;
; 182  :       pointer __tmp = _M_allocate_and_copy(__len, __CONST_CAST(const_pointer, __x._M_start) + 0,
; 183  :                                                   __CONST_CAST(const_pointer, __x._M_finish) + 0);

	mov	ecx, DWORD PTR __imp_?Memory@@3VxrMemory@@A
	mov	eax, esi
	imul	eax, 52					; 00000034H
	push	eax
	mov	DWORD PTR tv420[esp+20], eax
	call	DWORD PTR __imp_?mem_alloc@xrMemory@@QAEPAXI@Z
	cmp	ebp, ebx
	mov	DWORD PTR ___result$315311[esp+12], eax
	je	SHORT $LN39@operator@52
	sub	ebp, ebx
	push	ebp
	push	ebx
	push	eax
	call	_memcpy
	mov	eax, DWORD PTR ___result$315311[esp+24]
	add	esp, 12					; 0000000cH
$LN39@operator@52:

; 184  :       _M_clear();

	mov	ecx, DWORD PTR [edi]
	test	ecx, ecx
	je	SHORT $LN70@operator@52
	push	ecx
	mov	ecx, DWORD PTR __imp_?Memory@@3VxrMemory@@A
	call	DWORD PTR __imp_?mem_free@xrMemory@@QAEXPAX@Z
	mov	eax, DWORD PTR ___result$315311[esp+12]
$LN70@operator@52:

; 185  :       this->_M_start = __tmp;
; 186  :       this->_M_end_of_storage._M_data = this->_M_start + __len;

	mov	ecx, DWORD PTR tv420[esp+16]

; 196  :     }
; 197  :     this->_M_finish = this->_M_start + __xlen;

	imul	esi, 52					; 00000034H
	add	ecx, eax
	add	esi, eax
	mov	DWORD PTR [edi], eax
	mov	DWORD PTR [edi+8], ecx
	mov	DWORD PTR [edi+4], esi

; 198  :   }
; 199  :   return *this;

	mov	eax, edi

; 200  : }

	pop	esi
	pop	ebp
	pop	ebx
	pop	ecx
	ret	4
$LN4@operator@52:

; 187  :     } else if (size() >= __xlen) {

	mov	edx, DWORD PTR [edi+4]
	mov	ecx, DWORD PTR [edi]
	sub	edx, ecx
	mov	eax, 1321528399				; 4ec4ec4fH
	imul	edx
	sar	edx, 4
	mov	eax, edx
	shr	eax, 31					; 0000001fH
	add	eax, edx
	cmp	eax, esi
	jb	SHORT $LN2@operator@52

; 188  :       pointer __i = _STLP_PRIV __copy_ptrs(__CONST_CAST(const_pointer, __x._M_start) + 0,
; 189  :                                            __CONST_CAST(const_pointer, __x._M_finish) + 0, this->_M_start, _TrivialCopy());

	sub	ebp, ebx
	je	SHORT $LN96@operator@52
	push	ebp
	push	ebx
	push	ecx
	call	DWORD PTR __imp__memmove

; 196  :     }
; 197  :     this->_M_finish = this->_M_start + __xlen;

	imul	esi, 52					; 00000034H
	add	esp, 12					; 0000000cH
	add	esi, DWORD PTR [edi]

; 198  :   }
; 199  :   return *this;

	mov	eax, edi
	mov	DWORD PTR [edi+4], esi

; 200  : }

	pop	esi
	pop	ebp
	pop	ebx
	pop	ecx
	ret	4
$LN2@operator@52:

; 190  :       _STLP_STD::_Destroy_Range(__i, this->_M_finish);
; 191  :     } else {
; 192  :       _STLP_PRIV __copy_ptrs(__CONST_CAST(const_pointer, __x._M_start),
; 193  :                              __CONST_CAST(const_pointer, __x._M_start) + size(), this->_M_start, _TrivialCopy());

	imul	eax, 52					; 00000034H
	sub	eax, ebx
	add	eax, ebx
	je	SHORT $LN87@operator@52
	push	eax
	push	ebx
	push	ecx
	call	DWORD PTR __imp__memmove
	add	esp, 12					; 0000000cH
$LN87@operator@52:

; 194  :       _STLP_PRIV __ucopy_ptrs(__CONST_CAST(const_pointer, __x._M_start) + size(),
; 195  :                               __CONST_CAST(const_pointer, __x._M_finish) + 0, this->_M_finish, _TrivialUCopy());

	mov	ebp, DWORD PTR [edi+4]
	mov	edx, DWORD PTR ___x$[esp+12]
	mov	ebx, DWORD PTR [edx+4]
	mov	ecx, ebp
	sub	ecx, DWORD PTR [edi]
	mov	eax, 1321528399				; 4ec4ec4fH
	imul	ecx
	mov	ecx, DWORD PTR ___x$[esp+12]
	sar	edx, 4
	mov	eax, edx
	shr	eax, 31					; 0000001fH
	add	eax, edx
	imul	eax, 52					; 00000034H
	add	eax, DWORD PTR [ecx]
	cmp	ebx, eax
	je	SHORT $LN96@operator@52
	sub	ebx, eax
	push	ebx
	push	eax
	push	ebp
	call	_memcpy
	add	esp, 12					; 0000000cH
$LN96@operator@52:

; 196  :     }
; 197  :     this->_M_finish = this->_M_start + __xlen;

	imul	esi, 52					; 00000034H
	add	esi, DWORD PTR [edi]
	mov	DWORD PTR [edi+4], esi
$LN97@operator@52:

; 200  : }

	pop	esi
	pop	ebp
	mov	eax, edi
	pop	ebx
	pop	ecx
	ret	4
??4?$_Impl_vector@UItem@CEffect_Rain@@V?$xalloc@UItem@CEffect_Rain@@@@@priv@stlp_std@@QAEAAV012@ABV012@@Z ENDP ; stlp_std::priv::_Impl_vector<CEffect_Rain::Item,xalloc<CEffect_Rain::Item> >::operator=
; Function compile flags: /Ogtpy
_TEXT	ENDS
;	COMDAT ??4?$_Impl_vector@Urq_result@collide@@V?$xalloc@Urq_result@collide@@@@@priv@stlp_std@@QAEAAV012@ABV012@@Z
_TEXT	SEGMENT
tv420 = -4						; size = 4
___result$315704 = 8					; size = 4
___x$ = 8						; size = 4
??4?$_Impl_vector@Urq_result@collide@@V?$xalloc@Urq_result@collide@@@@@priv@stlp_std@@QAEAAV012@ABV012@@Z PROC ; stlp_std::priv::_Impl_vector<collide::rq_result,xalloc<collide::rq_result> >::operator=, COMDAT
; _this$ = edi

; 177  : vector<_Tp, _Alloc>& vector<_Tp, _Alloc>::operator = (const vector<_Tp, _Alloc>& __x) {

	push	ecx

; 178  :   if (&__x != this) {

	mov	eax, DWORD PTR ___x$[esp]
	cmp	eax, edi
	push	ebx
	push	ebp
	push	esi
	je	$LN97@operator@53

; 179  :     const size_type __xlen = __x.size();

	mov	ebp, DWORD PTR [eax+4]
	mov	ebx, DWORD PTR [eax]
	mov	ecx, ebp
	sub	ecx, ebx
	mov	eax, 715827883				; 2aaaaaabH
	imul	ecx

; 180  :     if (__xlen > capacity()) {

	mov	eax, DWORD PTR [edi]
	mov	ecx, DWORD PTR [edi+8]
	sar	edx, 1
	sub	ecx, eax
	mov	esi, edx
	shr	esi, 31					; 0000001fH
	add	esi, edx
	mov	eax, 715827883				; 2aaaaaabH
	imul	ecx
	sar	edx, 1
	mov	eax, edx
	shr	eax, 31					; 0000001fH
	add	eax, edx
	cmp	esi, eax
	jbe	SHORT $LN4@operator@53

; 181  :       size_type __len = __xlen;
; 182  :       pointer __tmp = _M_allocate_and_copy(__len, __CONST_CAST(const_pointer, __x._M_start) + 0,
; 183  :                                                   __CONST_CAST(const_pointer, __x._M_finish) + 0);

	mov	ecx, DWORD PTR __imp_?Memory@@3VxrMemory@@A
	lea	eax, DWORD PTR [esi+esi*2]
	add	eax, eax
	add	eax, eax
	push	eax
	mov	DWORD PTR tv420[esp+20], eax
	call	DWORD PTR __imp_?mem_alloc@xrMemory@@QAEPAXI@Z
	cmp	ebp, ebx
	mov	DWORD PTR ___result$315704[esp+12], eax
	je	SHORT $LN39@operator@53
	sub	ebp, ebx
	push	ebp
	push	ebx
	push	eax
	call	_memcpy
	mov	eax, DWORD PTR ___result$315704[esp+24]
	add	esp, 12					; 0000000cH
$LN39@operator@53:

; 184  :       _M_clear();

	mov	ecx, DWORD PTR [edi]
	test	ecx, ecx
	je	SHORT $LN70@operator@53
	push	ecx
	mov	ecx, DWORD PTR __imp_?Memory@@3VxrMemory@@A
	call	DWORD PTR __imp_?mem_free@xrMemory@@QAEXPAX@Z
	mov	eax, DWORD PTR ___result$315704[esp+12]
$LN70@operator@53:

; 185  :       this->_M_start = __tmp;
; 186  :       this->_M_end_of_storage._M_data = this->_M_start + __len;

	mov	ecx, DWORD PTR tv420[esp+16]
	add	ecx, eax
	mov	DWORD PTR [edi], eax
	mov	DWORD PTR [edi+8], ecx

; 196  :     }
; 197  :     this->_M_finish = this->_M_start + __xlen;

	mov	ecx, DWORD PTR [edi]
	lea	eax, DWORD PTR [esi+esi*2]
	lea	edx, DWORD PTR [ecx+eax*4]
	mov	DWORD PTR [edi+4], edx

; 198  :   }
; 199  :   return *this;

	mov	eax, edi

; 200  : }

	pop	esi
	pop	ebp
	pop	ebx
	pop	ecx
	ret	4
$LN4@operator@53:

; 187  :     } else if (size() >= __xlen) {

	mov	edx, DWORD PTR [edi+4]
	mov	ecx, DWORD PTR [edi]
	sub	edx, ecx
	mov	eax, 715827883				; 2aaaaaabH
	imul	edx
	sar	edx, 1
	mov	eax, edx
	shr	eax, 31					; 0000001fH
	add	eax, edx
	cmp	eax, esi
	jb	SHORT $LN2@operator@53

; 188  :       pointer __i = _STLP_PRIV __copy_ptrs(__CONST_CAST(const_pointer, __x._M_start) + 0,
; 189  :                                            __CONST_CAST(const_pointer, __x._M_finish) + 0, this->_M_start, _TrivialCopy());

	sub	ebp, ebx
	je	SHORT $LN96@operator@53
	push	ebp
	push	ebx
	push	ecx
	call	DWORD PTR __imp__memmove

; 190  :       _STLP_STD::_Destroy_Range(__i, this->_M_finish);
; 191  :     } else {

	jmp	SHORT $LN98@operator@53
$LN2@operator@53:

; 192  :       _STLP_PRIV __copy_ptrs(__CONST_CAST(const_pointer, __x._M_start),
; 193  :                              __CONST_CAST(const_pointer, __x._M_start) + size(), this->_M_start, _TrivialCopy());

	lea	eax, DWORD PTR [eax+eax*2]
	add	eax, eax
	add	eax, eax
	sub	eax, ebx
	add	eax, ebx
	je	SHORT $LN87@operator@53
	push	eax
	push	ebx
	push	ecx
	call	DWORD PTR __imp__memmove
	add	esp, 12					; 0000000cH
$LN87@operator@53:

; 194  :       _STLP_PRIV __ucopy_ptrs(__CONST_CAST(const_pointer, __x._M_start) + size(),
; 195  :                               __CONST_CAST(const_pointer, __x._M_finish) + 0, this->_M_finish, _TrivialUCopy());

	mov	ebp, DWORD PTR [edi+4]
	mov	edx, DWORD PTR ___x$[esp+12]
	mov	ebx, DWORD PTR [edx+4]
	mov	ecx, ebp
	sub	ecx, DWORD PTR [edi]
	mov	eax, 715827883				; 2aaaaaabH
	imul	ecx
	mov	ecx, DWORD PTR ___x$[esp+12]
	sar	edx, 1
	mov	eax, edx
	shr	eax, 31					; 0000001fH
	add	eax, edx
	mov	edx, DWORD PTR [ecx]
	lea	eax, DWORD PTR [eax+eax*2]
	lea	eax, DWORD PTR [edx+eax*4]
	cmp	ebx, eax
	je	SHORT $LN96@operator@53
	sub	ebx, eax
	push	ebx
	push	eax
	push	ebp
	call	_memcpy
$LN98@operator@53:
	add	esp, 12					; 0000000cH
$LN96@operator@53:

; 196  :     }
; 197  :     this->_M_finish = this->_M_start + __xlen;

	mov	ecx, DWORD PTR [edi]
	lea	eax, DWORD PTR [esi+esi*2]
	lea	edx, DWORD PTR [ecx+eax*4]
	mov	DWORD PTR [edi+4], edx
$LN97@operator@53:

; 200  : }

	pop	esi
	pop	ebp
	mov	eax, edi
	pop	ebx
	pop	ecx
	ret	4
??4?$_Impl_vector@Urq_result@collide@@V?$xalloc@Urq_result@collide@@@@@priv@stlp_std@@QAEAAV012@ABV012@@Z ENDP ; stlp_std::priv::_Impl_vector<collide::rq_result,xalloc<collide::rq_result> >::operator=
; Function compile flags: /Ogtpy
; File d:\clearsky\sources\sdk\include\stlport\stl\_vector.h
_TEXT	ENDS
;	COMDAT ??0?$_Vector_base@VCEnvModifier@@V?$xalloc@VCEnvModifier@@@@@priv@stlp_std@@QAE@ABV?$xalloc@VCEnvModifier@@@@@Z
_TEXT	SEGMENT
??0?$_Vector_base@VCEnvModifier@@V?$xalloc@VCEnvModifier@@@@@priv@stlp_std@@QAE@ABV?$xalloc@VCEnvModifier@@@@@Z PROC ; stlp_std::priv::_Vector_base<CEnvModifier,xalloc<CEnvModifier> >::_Vector_base<CEnvModifier,xalloc<CEnvModifier> >, COMDAT
; _this$ = esi
; ___a$ = eax

; 67   :     : _M_start(0), _M_finish(0), _M_end_of_storage(__a, 0) {}

	push	0
	push	eax
	lea	ecx, DWORD PTR [esi+8]
	mov	DWORD PTR [esi], 0
	mov	DWORD PTR [esi+4], 0
	call	??0?$_STLP_alloc_proxy@PAVCEnvModifier@@V1@V?$xalloc@VCEnvModifier@@@@@priv@stlp_std@@QAE@ABV?$xalloc@VCEnvModifier@@@@PAVCEnvModifier@@@Z ; stlp_std::priv::_STLP_alloc_proxy<CEnvModifier *,CEnvModifier,xalloc<CEnvModifier> >::_STLP_alloc_proxy<CEnvModifier *,CEnvModifier,xalloc<CEnvModifier> >
	mov	eax, esi
	ret	0
??0?$_Vector_base@VCEnvModifier@@V?$xalloc@VCEnvModifier@@@@@priv@stlp_std@@QAE@ABV?$xalloc@VCEnvModifier@@@@@Z ENDP ; stlp_std::priv::_Vector_base<CEnvModifier,xalloc<CEnvModifier> >::_Vector_base<CEnvModifier,xalloc<CEnvModifier> >
; Function compile flags: /Ogtpy
_TEXT	ENDS
;	COMDAT ??0?$_Vector_base@MV?$xalloc@M@@@priv@stlp_std@@QAE@ABV?$xalloc@M@@@Z
_TEXT	SEGMENT
??0?$_Vector_base@MV?$xalloc@M@@@priv@stlp_std@@QAE@ABV?$xalloc@M@@@Z PROC ; stlp_std::priv::_Vector_base<float,xalloc<float> >::_Vector_base<float,xalloc<float> >, COMDAT
; _this$ = esi
; ___a$ = eax

; 67   :     : _M_start(0), _M_finish(0), _M_end_of_storage(__a, 0) {}

	push	0
	push	eax
	lea	ecx, DWORD PTR [esi+8]
	mov	DWORD PTR [esi], 0
	mov	DWORD PTR [esi+4], 0
	call	??0?$_STLP_alloc_proxy@PAMMV?$xalloc@M@@@priv@stlp_std@@QAE@ABV?$xalloc@M@@PAM@Z ; stlp_std::priv::_STLP_alloc_proxy<float *,float,xalloc<float> >::_STLP_alloc_proxy<float *,float,xalloc<float> >
	mov	eax, esi
	ret	0
??0?$_Vector_base@MV?$xalloc@M@@@priv@stlp_std@@QAE@ABV?$xalloc@M@@@Z ENDP ; stlp_std::priv::_Vector_base<float,xalloc<float> >::_Vector_base<float,xalloc<float> >
; Function compile flags: /Ogtpy
_TEXT	ENDS
;	COMDAT ??0?$_Vector_base@GV?$xalloc@G@@@priv@stlp_std@@QAE@ABV?$xalloc@G@@@Z
_TEXT	SEGMENT
??0?$_Vector_base@GV?$xalloc@G@@@priv@stlp_std@@QAE@ABV?$xalloc@G@@@Z PROC ; stlp_std::priv::_Vector_base<unsigned short,xalloc<unsigned short> >::_Vector_base<unsigned short,xalloc<unsigned short> >, COMDAT
; _this$ = esi
; ___a$ = eax

; 67   :     : _M_start(0), _M_finish(0), _M_end_of_storage(__a, 0) {}

	push	0
	push	eax
	lea	ecx, DWORD PTR [esi+8]
	mov	DWORD PTR [esi], 0
	mov	DWORD PTR [esi+4], 0
	call	??0?$_STLP_alloc_proxy@PAGGV?$xalloc@G@@@priv@stlp_std@@QAE@ABV?$xalloc@G@@PAG@Z ; stlp_std::priv::_STLP_alloc_proxy<unsigned short *,unsigned short,xalloc<unsigned short> >::_STLP_alloc_proxy<unsigned short *,unsigned short,xalloc<unsigned short> >
	mov	eax, esi
	ret	0
??0?$_Vector_base@GV?$xalloc@G@@@priv@stlp_std@@QAE@ABV?$xalloc@G@@@Z ENDP ; stlp_std::priv::_Vector_base<unsigned short,xalloc<unsigned short> >::_Vector_base<unsigned short,xalloc<unsigned short> >
; Function compile flags: /Ogtpy
_TEXT	ENDS
;	COMDAT ??0?$_Vector_base@U?$_vector3@M@@V?$xalloc@U?$_vector3@M@@@@@priv@stlp_std@@QAE@ABV?$xalloc@U?$_vector3@M@@@@@Z
_TEXT	SEGMENT
??0?$_Vector_base@U?$_vector3@M@@V?$xalloc@U?$_vector3@M@@@@@priv@stlp_std@@QAE@ABV?$xalloc@U?$_vector3@M@@@@@Z PROC ; stlp_std::priv::_Vector_base<_vector3<float>,xalloc<_vector3<float> > >::_Vector_base<_vector3<float>,xalloc<_vector3<float> > >, COMDAT
; _this$ = esi
; ___a$ = eax

; 67   :     : _M_start(0), _M_finish(0), _M_end_of_storage(__a, 0) {}

	push	0
	push	eax
	lea	ecx, DWORD PTR [esi+8]
	mov	DWORD PTR [esi], 0
	mov	DWORD PTR [esi+4], 0
	call	??0?$_STLP_alloc_proxy@PAU?$_vector3@M@@U1@V?$xalloc@U?$_vector3@M@@@@@priv@stlp_std@@QAE@ABV?$xalloc@U?$_vector3@M@@@@PAU?$_vector3@M@@@Z ; stlp_std::priv::_STLP_alloc_proxy<_vector3<float> *,_vector3<float>,xalloc<_vector3<float> > >::_STLP_alloc_proxy<_vector3<float> *,_vector3<float>,xalloc<_vector3<float> > >
	mov	eax, esi
	ret	0
??0?$_Vector_base@U?$_vector3@M@@V?$xalloc@U?$_vector3@M@@@@@priv@stlp_std@@QAE@ABV?$xalloc@U?$_vector3@M@@@@@Z ENDP ; stlp_std::priv::_Vector_base<_vector3<float>,xalloc<_vector3<float> > >::_Vector_base<_vector3<float>,xalloc<_vector3<float> > >
; Function compile flags: /Ogtpy
_TEXT	ENDS
;	COMDAT ??0?$_Impl_vector@VCEnvModifier@@V?$xalloc@VCEnvModifier@@@@@priv@stlp_std@@QAE@ABV?$xalloc@VCEnvModifier@@@@@Z
_TEXT	SEGMENT
??0?$_Impl_vector@VCEnvModifier@@V?$xalloc@VCEnvModifier@@@@@priv@stlp_std@@QAE@ABV?$xalloc@VCEnvModifier@@@@@Z PROC ; stlp_std::priv::_Impl_vector<CEnvModifier,xalloc<CEnvModifier> >::_Impl_vector<CEnvModifier,xalloc<CEnvModifier> >, COMDAT
; _this$ = esi
; ___a$ = eax

; 208  :     : _STLP_PRIV _Vector_base<_Tp, _Alloc>(__a) {}

	push	0
	push	eax
	lea	ecx, DWORD PTR [esi+8]
	mov	DWORD PTR [esi], 0
	mov	DWORD PTR [esi+4], 0
	call	??0?$_STLP_alloc_proxy@PAVCEnvModifier@@V1@V?$xalloc@VCEnvModifier@@@@@priv@stlp_std@@QAE@ABV?$xalloc@VCEnvModifier@@@@PAVCEnvModifier@@@Z ; stlp_std::priv::_STLP_alloc_proxy<CEnvModifier *,CEnvModifier,xalloc<CEnvModifier> >::_STLP_alloc_proxy<CEnvModifier *,CEnvModifier,xalloc<CEnvModifier> >
	mov	eax, esi
	ret	0
??0?$_Impl_vector@VCEnvModifier@@V?$xalloc@VCEnvModifier@@@@@priv@stlp_std@@QAE@ABV?$xalloc@VCEnvModifier@@@@@Z ENDP ; stlp_std::priv::_Impl_vector<CEnvModifier,xalloc<CEnvModifier> >::_Impl_vector<CEnvModifier,xalloc<CEnvModifier> >
; Function compile flags: /Ogtpy
_TEXT	ENDS
;	COMDAT ??0?$_Impl_vector@MV?$xalloc@M@@@priv@stlp_std@@QAE@ABV?$xalloc@M@@@Z
_TEXT	SEGMENT
??0?$_Impl_vector@MV?$xalloc@M@@@priv@stlp_std@@QAE@ABV?$xalloc@M@@@Z PROC ; stlp_std::priv::_Impl_vector<float,xalloc<float> >::_Impl_vector<float,xalloc<float> >, COMDAT
; _this$ = esi
; ___a$ = eax

; 208  :     : _STLP_PRIV _Vector_base<_Tp, _Alloc>(__a) {}

	push	0
	push	eax
	lea	ecx, DWORD PTR [esi+8]
	mov	DWORD PTR [esi], 0
	mov	DWORD PTR [esi+4], 0
	call	??0?$_STLP_alloc_proxy@PAMMV?$xalloc@M@@@priv@stlp_std@@QAE@ABV?$xalloc@M@@PAM@Z ; stlp_std::priv::_STLP_alloc_proxy<float *,float,xalloc<float> >::_STLP_alloc_proxy<float *,float,xalloc<float> >
	mov	eax, esi
	ret	0
??0?$_Impl_vector@MV?$xalloc@M@@@priv@stlp_std@@QAE@ABV?$xalloc@M@@@Z ENDP ; stlp_std::priv::_Impl_vector<float,xalloc<float> >::_Impl_vector<float,xalloc<float> >
; Function compile flags: /Ogtpy
_TEXT	ENDS
;	COMDAT ??0?$_Impl_vector@GV?$xalloc@G@@@priv@stlp_std@@QAE@ABV?$xalloc@G@@@Z
_TEXT	SEGMENT
??0?$_Impl_vector@GV?$xalloc@G@@@priv@stlp_std@@QAE@ABV?$xalloc@G@@@Z PROC ; stlp_std::priv::_Impl_vector<unsigned short,xalloc<unsigned short> >::_Impl_vector<unsigned short,xalloc<unsigned short> >, COMDAT
; _this$ = esi
; ___a$ = eax

; 208  :     : _STLP_PRIV _Vector_base<_Tp, _Alloc>(__a) {}

	push	0
	push	eax
	lea	ecx, DWORD PTR [esi+8]
	mov	DWORD PTR [esi], 0
	mov	DWORD PTR [esi+4], 0
	call	??0?$_STLP_alloc_proxy@PAGGV?$xalloc@G@@@priv@stlp_std@@QAE@ABV?$xalloc@G@@PAG@Z ; stlp_std::priv::_STLP_alloc_proxy<unsigned short *,unsigned short,xalloc<unsigned short> >::_STLP_alloc_proxy<unsigned short *,unsigned short,xalloc<unsigned short> >
	mov	eax, esi
	ret	0
??0?$_Impl_vector@GV?$xalloc@G@@@priv@stlp_std@@QAE@ABV?$xalloc@G@@@Z ENDP ; stlp_std::priv::_Impl_vector<unsigned short,xalloc<unsigned short> >::_Impl_vector<unsigned short,xalloc<unsigned short> >
; Function compile flags: /Ogtpy
_TEXT	ENDS
;	COMDAT ??0?$_Impl_vector@U?$_vector3@M@@V?$xalloc@U?$_vector3@M@@@@@priv@stlp_std@@QAE@ABV?$xalloc@U?$_vector3@M@@@@@Z
_TEXT	SEGMENT
??0?$_Impl_vector@U?$_vector3@M@@V?$xalloc@U?$_vector3@M@@@@@priv@stlp_std@@QAE@ABV?$xalloc@U?$_vector3@M@@@@@Z PROC ; stlp_std::priv::_Impl_vector<_vector3<float>,xalloc<_vector3<float> > >::_Impl_vector<_vector3<float>,xalloc<_vector3<float> > >, COMDAT
; _this$ = esi
; ___a$ = eax

; 208  :     : _STLP_PRIV _Vector_base<_Tp, _Alloc>(__a) {}

	push	0
	push	eax
	lea	ecx, DWORD PTR [esi+8]
	mov	DWORD PTR [esi], 0
	mov	DWORD PTR [esi+4], 0
	call	??0?$_STLP_alloc_proxy@PAU?$_vector3@M@@U1@V?$xalloc@U?$_vector3@M@@@@@priv@stlp_std@@QAE@ABV?$xalloc@U?$_vector3@M@@@@PAU?$_vector3@M@@@Z ; stlp_std::priv::_STLP_alloc_proxy<_vector3<float> *,_vector3<float>,xalloc<_vector3<float> > >::_STLP_alloc_proxy<_vector3<float> *,_vector3<float>,xalloc<_vector3<float> > >
	mov	eax, esi
	ret	0
??0?$_Impl_vector@U?$_vector3@M@@V?$xalloc@U?$_vector3@M@@@@@priv@stlp_std@@QAE@ABV?$xalloc@U?$_vector3@M@@@@@Z ENDP ; stlp_std::priv::_Impl_vector<_vector3<float>,xalloc<_vector3<float> > >::_Impl_vector<_vector3<float>,xalloc<_vector3<float> > >
; Function compile flags: /Ogtpy
; File d:\clearsky\sources\sdk\include\stlport\stl\pointers\_vector.h
_TEXT	ENDS
;	COMDAT ??0?$vector@VCEnvModifier@@V?$xalloc@VCEnvModifier@@@@@stlp_std@@QAE@ABV?$xalloc@VCEnvModifier@@@@@Z
_TEXT	SEGMENT
??0?$vector@VCEnvModifier@@V?$xalloc@VCEnvModifier@@@@@stlp_std@@QAE@ABV?$xalloc@VCEnvModifier@@@@@Z PROC ; stlp_std::vector<CEnvModifier,xalloc<CEnvModifier> >::vector<CEnvModifier,xalloc<CEnvModifier> >, COMDAT
; _this$ = esi
; ___a$ = eax

; 106  :   explicit vector(const allocator_type& __a = allocator_type())

	push	0
	push	eax
	lea	ecx, DWORD PTR [esi+8]
	mov	DWORD PTR [esi], 0
	mov	DWORD PTR [esi+4], 0
	call	??0?$_STLP_alloc_proxy@PAVCEnvModifier@@V1@V?$xalloc@VCEnvModifier@@@@@priv@stlp_std@@QAE@ABV?$xalloc@VCEnvModifier@@@@PAVCEnvModifier@@@Z ; stlp_std::priv::_STLP_alloc_proxy<CEnvModifier *,CEnvModifier,xalloc<CEnvModifier> >::_STLP_alloc_proxy<CEnvModifier *,CEnvModifier,xalloc<CEnvModifier> >
	mov	eax, esi
	ret	0
??0?$vector@VCEnvModifier@@V?$xalloc@VCEnvModifier@@@@@stlp_std@@QAE@ABV?$xalloc@VCEnvModifier@@@@@Z ENDP ; stlp_std::vector<CEnvModifier,xalloc<CEnvModifier> >::vector<CEnvModifier,xalloc<CEnvModifier> >
; Function compile flags: /Ogtpy
_TEXT	ENDS
;	COMDAT ??0?$vector@PAVCEnvAmbient@@V?$xalloc@PAVCEnvAmbient@@@@@stlp_std@@QAE@ABV?$xalloc@PAVCEnvAmbient@@@@@Z
_TEXT	SEGMENT
??0?$vector@PAVCEnvAmbient@@V?$xalloc@PAVCEnvAmbient@@@@@stlp_std@@QAE@ABV?$xalloc@PAVCEnvAmbient@@@@@Z PROC ; stlp_std::vector<CEnvAmbient *,xalloc<CEnvAmbient *> >::vector<CEnvAmbient *,xalloc<CEnvAmbient *> >, COMDAT
; _this$ = eax

; 106  :   explicit vector(const allocator_type& __a = allocator_type())

	xor	ecx, ecx
	mov	DWORD PTR [eax], ecx
	mov	DWORD PTR [eax+4], ecx
	mov	DWORD PTR [eax+8], ecx
	ret	0
??0?$vector@PAVCEnvAmbient@@V?$xalloc@PAVCEnvAmbient@@@@@stlp_std@@QAE@ABV?$xalloc@PAVCEnvAmbient@@@@@Z ENDP ; stlp_std::vector<CEnvAmbient *,xalloc<CEnvAmbient *> >::vector<CEnvAmbient *,xalloc<CEnvAmbient *> >
; Function compile flags: /Ogtpy
_TEXT	ENDS
;	COMDAT ??0?$vector@MV?$xalloc@M@@@stlp_std@@QAE@ABV?$xalloc@M@@@Z
_TEXT	SEGMENT
??0?$vector@MV?$xalloc@M@@@stlp_std@@QAE@ABV?$xalloc@M@@@Z PROC ; stlp_std::vector<float,xalloc<float> >::vector<float,xalloc<float> >, COMDAT
; _this$ = esi
; ___a$ = eax

; 106  :   explicit vector(const allocator_type& __a = allocator_type())

	push	0
	push	eax
	lea	ecx, DWORD PTR [esi+8]
	mov	DWORD PTR [esi], 0
	mov	DWORD PTR [esi+4], 0
	call	??0?$_STLP_alloc_proxy@PAMMV?$xalloc@M@@@priv@stlp_std@@QAE@ABV?$xalloc@M@@PAM@Z ; stlp_std::priv::_STLP_alloc_proxy<float *,float,xalloc<float> >::_STLP_alloc_proxy<float *,float,xalloc<float> >
	mov	eax, esi
	ret	0
??0?$vector@MV?$xalloc@M@@@stlp_std@@QAE@ABV?$xalloc@M@@@Z ENDP ; stlp_std::vector<float,xalloc<float> >::vector<float,xalloc<float> >
; Function compile flags: /Ogtpy
_TEXT	ENDS
;	COMDAT ??0?$vector@GV?$xalloc@G@@@stlp_std@@QAE@ABV?$xalloc@G@@@Z
_TEXT	SEGMENT
??0?$vector@GV?$xalloc@G@@@stlp_std@@QAE@ABV?$xalloc@G@@@Z PROC ; stlp_std::vector<unsigned short,xalloc<unsigned short> >::vector<unsigned short,xalloc<unsigned short> >, COMDAT
; _this$ = esi
; ___a$ = eax

; 106  :   explicit vector(const allocator_type& __a = allocator_type())

	push	0
	push	eax
	lea	ecx, DWORD PTR [esi+8]
	mov	DWORD PTR [esi], 0
	mov	DWORD PTR [esi+4], 0
	call	??0?$_STLP_alloc_proxy@PAGGV?$xalloc@G@@@priv@stlp_std@@QAE@ABV?$xalloc@G@@PAG@Z ; stlp_std::priv::_STLP_alloc_proxy<unsigned short *,unsigned short,xalloc<unsigned short> >::_STLP_alloc_proxy<unsigned short *,unsigned short,xalloc<unsigned short> >
	mov	eax, esi
	ret	0
??0?$vector@GV?$xalloc@G@@@stlp_std@@QAE@ABV?$xalloc@G@@@Z ENDP ; stlp_std::vector<unsigned short,xalloc<unsigned short> >::vector<unsigned short,xalloc<unsigned short> >
; Function compile flags: /Ogtpy
_TEXT	ENDS
;	COMDAT ??0?$vector@U?$_vector3@M@@V?$xalloc@U?$_vector3@M@@@@@stlp_std@@QAE@ABV?$xalloc@U?$_vector3@M@@@@@Z
_TEXT	SEGMENT
??0?$vector@U?$_vector3@M@@V?$xalloc@U?$_vector3@M@@@@@stlp_std@@QAE@ABV?$xalloc@U?$_vector3@M@@@@@Z PROC ; stlp_std::vector<_vector3<float>,xalloc<_vector3<float> > >::vector<_vector3<float>,xalloc<_vector3<float> > >, COMDAT
; _this$ = esi
; ___a$ = eax

; 106  :   explicit vector(const allocator_type& __a = allocator_type())

	push	0
	push	eax
	lea	ecx, DWORD PTR [esi+8]
	mov	DWORD PTR [esi], 0
	mov	DWORD PTR [esi+4], 0
	call	??0?$_STLP_alloc_proxy@PAU?$_vector3@M@@U1@V?$xalloc@U?$_vector3@M@@@@@priv@stlp_std@@QAE@ABV?$xalloc@U?$_vector3@M@@@@PAU?$_vector3@M@@@Z ; stlp_std::priv::_STLP_alloc_proxy<_vector3<float> *,_vector3<float>,xalloc<_vector3<float> > >::_STLP_alloc_proxy<_vector3<float> *,_vector3<float>,xalloc<_vector3<float> > >
	mov	eax, esi
	ret	0
??0?$vector@U?$_vector3@M@@V?$xalloc@U?$_vector3@M@@@@@stlp_std@@QAE@ABV?$xalloc@U?$_vector3@M@@@@@Z ENDP ; stlp_std::vector<_vector3<float>,xalloc<_vector3<float> > >::vector<_vector3<float>,xalloc<_vector3<float> > >
; Function compile flags: /Ogtpy
_TEXT	ENDS
;	COMDAT ??4?$vector@UParticle@CEffect_Rain@@V?$xalloc@UParticle@CEffect_Rain@@@@@stlp_std@@QAEAAV01@ABV01@@Z
_TEXT	SEGMENT
??4?$vector@UParticle@CEffect_Rain@@V?$xalloc@UParticle@CEffect_Rain@@@@@stlp_std@@QAEAAV01@ABV01@@Z PROC ; stlp_std::vector<CEffect_Rain::Particle,xalloc<CEffect_Rain::Particle> >::operator=, COMDAT
; _this$ = ecx
; ___x$ = eax

; 149  :   _Self& operator=(const _Self& __x) { _M_impl = __x._M_impl; return *this; }

	push	edi
	mov	edi, ecx
	push	eax
	call	??4?$_Impl_vector@UParticle@CEffect_Rain@@V?$xalloc@UParticle@CEffect_Rain@@@@@priv@stlp_std@@QAEAAV012@ABV012@@Z ; stlp_std::priv::_Impl_vector<CEffect_Rain::Particle,xalloc<CEffect_Rain::Particle> >::operator=
	mov	eax, edi
	pop	edi
	ret	0
??4?$vector@UParticle@CEffect_Rain@@V?$xalloc@UParticle@CEffect_Rain@@@@@stlp_std@@QAEAAV01@ABV01@@Z ENDP ; stlp_std::vector<CEffect_Rain::Particle,xalloc<CEffect_Rain::Particle> >::operator=
; Function compile flags: /Ogtpy
_TEXT	ENDS
;	COMDAT ??4?$vector@UItem@CEffect_Rain@@V?$xalloc@UItem@CEffect_Rain@@@@@stlp_std@@QAEAAV01@ABV01@@Z
_TEXT	SEGMENT
??4?$vector@UItem@CEffect_Rain@@V?$xalloc@UItem@CEffect_Rain@@@@@stlp_std@@QAEAAV01@ABV01@@Z PROC ; stlp_std::vector<CEffect_Rain::Item,xalloc<CEffect_Rain::Item> >::operator=, COMDAT
; _this$ = ecx
; ___x$ = eax

; 149  :   _Self& operator=(const _Self& __x) { _M_impl = __x._M_impl; return *this; }

	push	edi
	mov	edi, ecx
	push	eax
	call	??4?$_Impl_vector@UItem@CEffect_Rain@@V?$xalloc@UItem@CEffect_Rain@@@@@priv@stlp_std@@QAEAAV012@ABV012@@Z ; stlp_std::priv::_Impl_vector<CEffect_Rain::Item,xalloc<CEffect_Rain::Item> >::operator=
	mov	eax, edi
	pop	edi
	ret	0
??4?$vector@UItem@CEffect_Rain@@V?$xalloc@UItem@CEffect_Rain@@@@@stlp_std@@QAEAAV01@ABV01@@Z ENDP ; stlp_std::vector<CEffect_Rain::Item,xalloc<CEffect_Rain::Item> >::operator=
; Function compile flags: /Ogtpy
_TEXT	ENDS
;	COMDAT ??4?$vector@Urq_result@collide@@V?$xalloc@Urq_result@collide@@@@@stlp_std@@QAEAAV01@ABV01@@Z
_TEXT	SEGMENT
??4?$vector@Urq_result@collide@@V?$xalloc@Urq_result@collide@@@@@stlp_std@@QAEAAV01@ABV01@@Z PROC ; stlp_std::vector<collide::rq_result,xalloc<collide::rq_result> >::operator=, COMDAT
; _this$ = ecx
; ___x$ = eax

; 149  :   _Self& operator=(const _Self& __x) { _M_impl = __x._M_impl; return *this; }

	push	edi
	mov	edi, ecx
	push	eax
	call	??4?$_Impl_vector@Urq_result@collide@@V?$xalloc@Urq_result@collide@@@@@priv@stlp_std@@QAEAAV012@ABV012@@Z ; stlp_std::priv::_Impl_vector<collide::rq_result,xalloc<collide::rq_result> >::operator=
	mov	eax, edi
	pop	edi
	ret	0
??4?$vector@Urq_result@collide@@V?$xalloc@Urq_result@collide@@@@@stlp_std@@QAEAAV01@ABV01@@Z ENDP ; stlp_std::vector<collide::rq_result,xalloc<collide::rq_result> >::operator=
; Function compile flags: /Ogtpy
; File d:\clearsky\sources\engine\xrcore\_stl_extensions.h
_TEXT	ENDS
;	COMDAT ??0?$xr_vector@VCEnvModifier@@V?$xalloc@VCEnvModifier@@@@@@QAE@XZ
_TEXT	SEGMENT
$T316083 = -1						; size = 1
??0?$xr_vector@VCEnvModifier@@V?$xalloc@VCEnvModifier@@@@@@QAE@XZ PROC ; xr_vector<CEnvModifier,xalloc<CEnvModifier> >::xr_vector<CEnvModifier,xalloc<CEnvModifier> >, COMDAT
; _this$ = esi

; 123  : 			xr_vector			()									: inherited	()					{}

	push	ecx
	push	0
	lea	eax, DWORD PTR $T316083[esp+8]
	push	eax
	lea	ecx, DWORD PTR [esi+8]
	mov	DWORD PTR [esi], 0
	mov	DWORD PTR [esi+4], 0
	call	??0?$_STLP_alloc_proxy@PAVCEnvModifier@@V1@V?$xalloc@VCEnvModifier@@@@@priv@stlp_std@@QAE@ABV?$xalloc@VCEnvModifier@@@@PAVCEnvModifier@@@Z ; stlp_std::priv::_STLP_alloc_proxy<CEnvModifier *,CEnvModifier,xalloc<CEnvModifier> >::_STLP_alloc_proxy<CEnvModifier *,CEnvModifier,xalloc<CEnvModifier> >
	mov	eax, esi
	pop	ecx
	ret	0
??0?$xr_vector@VCEnvModifier@@V?$xalloc@VCEnvModifier@@@@@@QAE@XZ ENDP ; xr_vector<CEnvModifier,xalloc<CEnvModifier> >::xr_vector<CEnvModifier,xalloc<CEnvModifier> >
; Function compile flags: /Ogtpy
_TEXT	ENDS
;	COMDAT ??0?$xr_vector@MV?$xalloc@M@@@@QAE@XZ
_TEXT	SEGMENT
$T316107 = -1						; size = 1
??0?$xr_vector@MV?$xalloc@M@@@@QAE@XZ PROC		; xr_vector<float,xalloc<float> >::xr_vector<float,xalloc<float> >, COMDAT
; _this$ = esi

; 123  : 			xr_vector			()									: inherited	()					{}

	push	ecx
	push	0
	lea	eax, DWORD PTR $T316107[esp+8]
	push	eax
	lea	ecx, DWORD PTR [esi+8]
	mov	DWORD PTR [esi], 0
	mov	DWORD PTR [esi+4], 0
	call	??0?$_STLP_alloc_proxy@PAMMV?$xalloc@M@@@priv@stlp_std@@QAE@ABV?$xalloc@M@@PAM@Z ; stlp_std::priv::_STLP_alloc_proxy<float *,float,xalloc<float> >::_STLP_alloc_proxy<float *,float,xalloc<float> >
	mov	eax, esi
	pop	ecx
	ret	0
??0?$xr_vector@MV?$xalloc@M@@@@QAE@XZ ENDP		; xr_vector<float,xalloc<float> >::xr_vector<float,xalloc<float> >
; Function compile flags: /Ogtpy
_TEXT	ENDS
;	COMDAT ??0?$xr_vector@GV?$xalloc@G@@@@QAE@XZ
_TEXT	SEGMENT
$T316131 = -1						; size = 1
??0?$xr_vector@GV?$xalloc@G@@@@QAE@XZ PROC		; xr_vector<unsigned short,xalloc<unsigned short> >::xr_vector<unsigned short,xalloc<unsigned short> >, COMDAT
; _this$ = esi

; 123  : 			xr_vector			()									: inherited	()					{}

	push	ecx
	push	0
	lea	eax, DWORD PTR $T316131[esp+8]
	push	eax
	lea	ecx, DWORD PTR [esi+8]
	mov	DWORD PTR [esi], 0
	mov	DWORD PTR [esi+4], 0
	call	??0?$_STLP_alloc_proxy@PAGGV?$xalloc@G@@@priv@stlp_std@@QAE@ABV?$xalloc@G@@PAG@Z ; stlp_std::priv::_STLP_alloc_proxy<unsigned short *,unsigned short,xalloc<unsigned short> >::_STLP_alloc_proxy<unsigned short *,unsigned short,xalloc<unsigned short> >
	mov	eax, esi
	pop	ecx
	ret	0
??0?$xr_vector@GV?$xalloc@G@@@@QAE@XZ ENDP		; xr_vector<unsigned short,xalloc<unsigned short> >::xr_vector<unsigned short,xalloc<unsigned short> >
; Function compile flags: /Ogtpy
_TEXT	ENDS
;	COMDAT ??0?$xr_vector@U?$_vector3@M@@V?$xalloc@U?$_vector3@M@@@@@@QAE@XZ
_TEXT	SEGMENT
$T316155 = -1						; size = 1
??0?$xr_vector@U?$_vector3@M@@V?$xalloc@U?$_vector3@M@@@@@@QAE@XZ PROC ; xr_vector<_vector3<float>,xalloc<_vector3<float> > >::xr_vector<_vector3<float>,xalloc<_vector3<float> > >, COMDAT
; _this$ = esi

; 123  : 			xr_vector			()									: inherited	()					{}

	push	ecx
	push	0
	lea	eax, DWORD PTR $T316155[esp+8]
	push	eax
	lea	ecx, DWORD PTR [esi+8]
	mov	DWORD PTR [esi], 0
	mov	DWORD PTR [esi+4], 0
	call	??0?$_STLP_alloc_proxy@PAU?$_vector3@M@@U1@V?$xalloc@U?$_vector3@M@@@@@priv@stlp_std@@QAE@ABV?$xalloc@U?$_vector3@M@@@@PAU?$_vector3@M@@@Z ; stlp_std::priv::_STLP_alloc_proxy<_vector3<float> *,_vector3<float>,xalloc<_vector3<float> > >::_STLP_alloc_proxy<_vector3<float> *,_vector3<float>,xalloc<_vector3<float> > >
	mov	eax, esi
	pop	ecx
	ret	0
??0?$xr_vector@U?$_vector3@M@@V?$xalloc@U?$_vector3@M@@@@@@QAE@XZ ENDP ; xr_vector<_vector3<float>,xalloc<_vector3<float> > >::xr_vector<_vector3<float>,xalloc<_vector3<float> > >
_TEXT	ENDS
PUBLIC	?SelectEnvs@CEnvironment@@QAEXM@Z		; CEnvironment::SelectEnvs
; Function compile flags: /Ogtpy
; File d:\clearsky\sources\engine\xrengine\environment.cpp
;	COMDAT ?SelectEnvs@CEnvironment@@QAEXM@Z
_TEXT	SEGMENT
_gt$ = 8						; size = 4
?SelectEnvs@CEnvironment@@QAEXM@Z PROC			; CEnvironment::SelectEnvs, COMDAT
; _this$ = ecx

; 414  : {

	push	esi

; 415  : 	VERIFY				(CurrentWeather);
; 416  :     if ((Current[0]==Current[1])&&(Current[0]==0)){

	mov	esi, DWORD PTR [ecx+128]
	lea	eax, DWORD PTR [ecx+128]
	lea	edx, DWORD PTR [ecx+124]
	push	edi
	mov	edi, DWORD PTR [edx]
	cmp	edi, esi
	jne	SHORT $LN8@SelectEnvs@2
	test	edi, edi
	jne	SHORT $LN8@SelectEnvs@2

; 417  : 		VERIFY			(!bWFX);
; 418  : 		// first or forced start
; 419  : 		SelectEnvs		(CurrentWeather,Current[0],Current[1],gt);

	fld	DWORD PTR _gt$[esp+4]
	push	ecx
	fstp	DWORD PTR [esp]
	push	eax
	mov	eax, DWORD PTR [ecx+148]
	push	edx
	push	eax
	call	?SelectEnvs@CEnvironment@@AAEXPAV?$xr_vector@PAVCEnvDescriptor@@V?$xalloc@PAVCEnvDescriptor@@@@@@AAPAVCEnvDescriptor@@1M@Z ; CEnvironment::SelectEnvs
	pop	edi
	pop	esi

; 431  : #ifdef WEATHER_LOGGING
; 432  : 			Msg			("Weather: '%s' Desc: '%s' Time: %3.2f/%3.2f",CurrentWeatherName.c_str(),Current[1]->m_identifier.c_str(),Current[1]->exec_time,fGameTime);
; 433  : #endif
; 434  : 		}
; 435  :     }
; 436  : }

	ret	4
$LN8@SelectEnvs@2:

; 420  :     }else{
; 421  : 		bool bSelect	= false;
; 422  : 		if (Current[0]->exec_time>Current[1]->exec_time){

	movss	xmm1, DWORD PTR [edi]
	movss	xmm0, DWORD PTR [esi]
	comiss	xmm1, xmm0
	jbe	SHORT $LN3@SelectEnvs@2

; 423  : 			// terminator
; 424  : 			bSelect		= (gt>Current[1]->exec_time)&&(gt<Current[0]->exec_time);

	movss	xmm2, DWORD PTR _gt$[esp+4]
	comiss	xmm2, xmm0
	jbe	SHORT $LN1@SelectEnvs@2
	comiss	xmm1, xmm2
	ja	SHORT $LN18@SelectEnvs@2
	pop	edi
	pop	esi

; 431  : #ifdef WEATHER_LOGGING
; 432  : 			Msg			("Weather: '%s' Desc: '%s' Time: %3.2f/%3.2f",CurrentWeatherName.c_str(),Current[1]->m_identifier.c_str(),Current[1]->exec_time,fGameTime);
; 433  : #endif
; 434  : 		}
; 435  :     }
; 436  : }

	ret	4
$LN3@SelectEnvs@2:

; 425  : 		}else{
; 426  : 			bSelect		= (gt>Current[1]->exec_time);

	movss	xmm1, DWORD PTR _gt$[esp+4]
	comiss	xmm1, xmm0

; 427  : 		}
; 428  : 		if (bSelect){

	jbe	SHORT $LN1@SelectEnvs@2
$LN18@SelectEnvs@2:

; 429  : 			Current[0]	= Current[1];
; 430  : 			SelectEnv	(CurrentWeather,Current[1],gt);

	fld	DWORD PTR _gt$[esp+4]
	push	ecx
	fstp	DWORD PTR [esp]
	mov	DWORD PTR [edx], esi
	mov	edx, DWORD PTR [ecx+148]
	push	eax
	push	edx
	call	?SelectEnv@CEnvironment@@AAEXPAV?$xr_vector@PAVCEnvDescriptor@@V?$xalloc@PAVCEnvDescriptor@@@@@@AAPAVCEnvDescriptor@@M@Z ; CEnvironment::SelectEnv
$LN1@SelectEnvs@2:
	pop	edi
	pop	esi

; 431  : #ifdef WEATHER_LOGGING
; 432  : 			Msg			("Weather: '%s' Desc: '%s' Time: %3.2f/%3.2f",CurrentWeatherName.c_str(),Current[1]->m_identifier.c_str(),Current[1]->exec_time,fGameTime);
; 433  : #endif
; 434  : 		}
; 435  :     }
; 436  : }

	ret	4
?SelectEnvs@CEnvironment@@QAEXM@Z ENDP			; CEnvironment::SelectEnvs
_TEXT	ENDS
PUBLIC	??0CPerlinNoiseCustom@@QAE@ABV0@@Z		; CPerlinNoiseCustom::CPerlinNoiseCustom
; Function compile flags: /Ogtpy
;	COMDAT ??0CPerlinNoiseCustom@@QAE@ABV0@@Z
_TEXT	SEGMENT
___that$ = 8						; size = 4
??0CPerlinNoiseCustom@@QAE@ABV0@@Z PROC			; CPerlinNoiseCustom::CPerlinNoiseCustom, COMDAT
; _this$ = ecx
	mov	eax, DWORD PTR ___that$[esp-4]
	push	ebx
	mov	ebx, ecx
	mov	ecx, DWORD PTR [eax]
	mov	DWORD PTR [ebx], ecx
	mov	dl, BYTE PTR [eax+4]
	push	esi
	push	edi
	mov	BYTE PTR [ebx+4], dl
	lea	esi, DWORD PTR [eax+8]
	lea	edi, DWORD PTR [ebx+8]
	mov	ecx, 514				; 00000202H
	rep movsd
	mov	ecx, DWORD PTR [eax+2064]
	mov	DWORD PTR [ebx+2064], ecx
	add	eax, 2076				; 0000081cH
	fld	DWORD PTR [eax-8]
	push	eax
	fstp	DWORD PTR [ebx+2068]
	lea	ecx, DWORD PTR [ebx+2076]
	fld	DWORD PTR [eax-4]
	fstp	DWORD PTR [ebx+2072]
	call	??0?$vector@MV?$xalloc@M@@@stlp_std@@QAE@ABV01@@Z ; stlp_std::vector<float,xalloc<float> >::vector<float,xalloc<float> >
	pop	edi
	pop	esi
	mov	eax, ebx
	pop	ebx
	ret	4
??0CPerlinNoiseCustom@@QAE@ABV0@@Z ENDP			; CPerlinNoiseCustom::CPerlinNoiseCustom
_TEXT	ENDS
PUBLIC	??1CPerlinNoiseCustom@@QAE@XZ			; CPerlinNoiseCustom::~CPerlinNoiseCustom
; Function compile flags: /Ogtpy
;	COMDAT ??1CPerlinNoiseCustom@@QAE@XZ
_TEXT	SEGMENT
??1CPerlinNoiseCustom@@QAE@XZ PROC			; CPerlinNoiseCustom::~CPerlinNoiseCustom, COMDAT
; _this$ = ecx
	add	ecx, 2076				; 0000081cH
	jmp	??1?$_Impl_vector@MV?$xalloc@M@@@priv@stlp_std@@QAE@XZ ; stlp_std::priv::_Impl_vector<float,xalloc<float> >::~_Impl_vector<float,xalloc<float> >
??1CPerlinNoiseCustom@@QAE@XZ ENDP			; CPerlinNoiseCustom::~CPerlinNoiseCustom
_TEXT	ENDS
PUBLIC	??0CPerlinNoiseCustom@@QAE@H@Z			; CPerlinNoiseCustom::CPerlinNoiseCustom
; Function compile flags: /Ogtpy
; File d:\clearsky\sources\engine\xrengine\perlin.h
;	COMDAT ??0CPerlinNoiseCustom@@QAE@H@Z
_TEXT	SEGMENT
$T316231 = 8						; size = 1
_seed$ = 8						; size = 4
??0CPerlinNoiseCustom@@QAE@H@Z PROC			; CPerlinNoiseCustom::CPerlinNoiseCustom, COMDAT
; _this$ = ecx

; 20   : 								mOctaves(2),mFrequency(1),mAmplitude(1),mSeed(seed),mReady(false){}

	mov	eax, DWORD PTR _seed$[esp-4]
	movss	xmm0, DWORD PTR __real@3f800000
	push	esi
	mov	esi, ecx
	mov	DWORD PTR [esi], eax
	xor	eax, eax
	push	eax
	lea	ecx, DWORD PTR $T316231[esp+4]
	mov	BYTE PTR [esi+4], al
	mov	DWORD PTR [esi+2064], 2
	movss	DWORD PTR [esi+2068], xmm0
	movss	DWORD PTR [esi+2072], xmm0
	push	ecx
	lea	ecx, DWORD PTR [esi+2084]
	mov	DWORD PTR [esi+2076], eax
	mov	DWORD PTR [esi+2080], eax
	call	??0?$_STLP_alloc_proxy@PAMMV?$xalloc@M@@@priv@stlp_std@@QAE@ABV?$xalloc@M@@PAM@Z ; stlp_std::priv::_STLP_alloc_proxy<float *,float,xalloc<float> >::_STLP_alloc_proxy<float *,float,xalloc<float> >
	mov	eax, esi
	pop	esi
	ret	4
??0CPerlinNoiseCustom@@QAE@H@Z ENDP			; CPerlinNoiseCustom::CPerlinNoiseCustom
; Function compile flags: /Ogtpy
_TEXT	ENDS
;	COMDAT ??1?$vector@PAUSThunderboltCollection@@V?$xalloc@PAUSThunderboltCollection@@@@@stlp_std@@QAE@XZ
_TEXT	SEGMENT
??1?$vector@PAUSThunderboltCollection@@V?$xalloc@PAUSThunderboltCollection@@@@@stlp_std@@QAE@XZ PROC ; stlp_std::vector<SThunderboltCollection *,xalloc<SThunderboltCollection *> >::~vector<SThunderboltCollection *,xalloc<SThunderboltCollection *> >, COMDAT
; _this$ = eax
	mov	eax, DWORD PTR [eax]
	test	eax, eax
	je	SHORT $LN36@vector@36
	mov	ecx, DWORD PTR __imp_?Memory@@3VxrMemory@@A
	push	eax
	call	DWORD PTR __imp_?mem_free@xrMemory@@QAEXPAX@Z
$LN36@vector@36:
	ret	0
??1?$vector@PAUSThunderboltCollection@@V?$xalloc@PAUSThunderboltCollection@@@@@stlp_std@@QAE@XZ ENDP ; stlp_std::vector<SThunderboltCollection *,xalloc<SThunderboltCollection *> >::~vector<SThunderboltCollection *,xalloc<SThunderboltCollection *> >
; Function compile flags: /Ogtpy
_TEXT	ENDS
;	COMDAT ??1?$xr_vector@PAUSThunderboltCollection@@V?$xalloc@PAUSThunderboltCollection@@@@@@QAE@XZ
_TEXT	SEGMENT
??1?$xr_vector@PAUSThunderboltCollection@@V?$xalloc@PAUSThunderboltCollection@@@@@@QAE@XZ PROC ; xr_vector<SThunderboltCollection *,xalloc<SThunderboltCollection *> >::~xr_vector<SThunderboltCollection *,xalloc<SThunderboltCollection *> >, COMDAT
; _this$ = eax
	mov	eax, DWORD PTR [eax]
	test	eax, eax
	je	SHORT $LN38@xr_vector@27
	mov	ecx, DWORD PTR __imp_?Memory@@3VxrMemory@@A
	push	eax
	call	DWORD PTR __imp_?mem_free@xrMemory@@QAEXPAX@Z
$LN38@xr_vector@27:
	ret	0
??1?$xr_vector@PAUSThunderboltCollection@@V?$xalloc@PAUSThunderboltCollection@@@@@@QAE@XZ ENDP ; xr_vector<SThunderboltCollection *,xalloc<SThunderboltCollection *> >::~xr_vector<SThunderboltCollection *,xalloc<SThunderboltCollection *> >
; Function compile flags: /Ogtpy
_TEXT	ENDS
;	COMDAT ??4?$xr_vector@UParticle@CEffect_Rain@@V?$xalloc@UParticle@CEffect_Rain@@@@@@QAEAAV0@ABV0@@Z
_TEXT	SEGMENT
??4?$xr_vector@UParticle@CEffect_Rain@@V?$xalloc@UParticle@CEffect_Rain@@@@@@QAEAAV0@ABV0@@Z PROC ; xr_vector<CEffect_Rain::Particle,xalloc<CEffect_Rain::Particle> >::operator=, COMDAT
; _this$ = ecx
; ___that$ = eax
	push	edi
	mov	edi, ecx
	push	eax
	call	??4?$_Impl_vector@UParticle@CEffect_Rain@@V?$xalloc@UParticle@CEffect_Rain@@@@@priv@stlp_std@@QAEAAV012@ABV012@@Z ; stlp_std::priv::_Impl_vector<CEffect_Rain::Particle,xalloc<CEffect_Rain::Particle> >::operator=
	mov	eax, edi
	pop	edi
	ret	0
??4?$xr_vector@UParticle@CEffect_Rain@@V?$xalloc@UParticle@CEffect_Rain@@@@@@QAEAAV0@ABV0@@Z ENDP ; xr_vector<CEffect_Rain::Particle,xalloc<CEffect_Rain::Particle> >::operator=
; Function compile flags: /Ogtpy
_TEXT	ENDS
;	COMDAT ??4?$xr_vector@UItem@CEffect_Rain@@V?$xalloc@UItem@CEffect_Rain@@@@@@QAEAAV0@ABV0@@Z
_TEXT	SEGMENT
??4?$xr_vector@UItem@CEffect_Rain@@V?$xalloc@UItem@CEffect_Rain@@@@@@QAEAAV0@ABV0@@Z PROC ; xr_vector<CEffect_Rain::Item,xalloc<CEffect_Rain::Item> >::operator=, COMDAT
; _this$ = ecx
; ___that$ = eax
	push	edi
	mov	edi, ecx
	push	eax
	call	??4?$_Impl_vector@UItem@CEffect_Rain@@V?$xalloc@UItem@CEffect_Rain@@@@@priv@stlp_std@@QAEAAV012@ABV012@@Z ; stlp_std::priv::_Impl_vector<CEffect_Rain::Item,xalloc<CEffect_Rain::Item> >::operator=
	mov	eax, edi
	pop	edi
	ret	0
??4?$xr_vector@UItem@CEffect_Rain@@V?$xalloc@UItem@CEffect_Rain@@@@@@QAEAAV0@ABV0@@Z ENDP ; xr_vector<CEffect_Rain::Item,xalloc<CEffect_Rain::Item> >::operator=
_TEXT	ENDS
PUBLIC	??4CEffect_Rain@@QAEAAV0@ABV0@@Z		; CEffect_Rain::operator=
; Function compile flags: /Ogtpy
;	COMDAT ??4CEffect_Rain@@QAEAAV0@ABV0@@Z
_TEXT	SEGMENT
___that$ = 8						; size = 4
??4CEffect_Rain@@QAEAAV0@ABV0@@Z PROC			; CEffect_Rain::operator=, COMDAT
; _this$ = ecx
	push	ebx
	mov	ebx, DWORD PTR ___that$[esp]
	mov	edx, DWORD PTR [ebx]
	push	esi
	mov	esi, ecx
	mov	ecx, DWORD PTR [esi]
	mov	eax, DWORD PTR [ecx]
	mov	eax, DWORD PTR [eax+4]
	push	edi
	push	edx
	call	eax
	lea	ecx, DWORD PTR [ebx+4]
	push	ecx
	lea	edi, DWORD PTR [esi+4]
	call	??4?$_Impl_vector@UItem@CEffect_Rain@@V?$xalloc@UItem@CEffect_Rain@@@@@priv@stlp_std@@QAEAAV012@ABV012@@Z ; stlp_std::priv::_Impl_vector<CEffect_Rain::Item,xalloc<CEffect_Rain::Item> >::operator=
	mov	edx, DWORD PTR [ebx+16]
	lea	eax, DWORD PTR [ebx+20]
	push	eax
	lea	edi, DWORD PTR [esi+20]
	mov	DWORD PTR [esi+16], edx
	call	??4?$_Impl_vector@UParticle@CEffect_Rain@@V?$xalloc@UParticle@CEffect_Rain@@@@@priv@stlp_std@@QAEAAV012@ABV012@@Z ; stlp_std::priv::_Impl_vector<CEffect_Rain::Particle,xalloc<CEffect_Rain::Particle> >::operator=
	mov	ecx, DWORD PTR [ebx+32]
	mov	DWORD PTR [esi+32], ecx
	mov	edx, DWORD PTR [ebx+36]
	add	ebx, 40					; 00000028H
	push	ebx
	lea	ecx, DWORD PTR [esi+40]
	mov	DWORD PTR [esi+36], edx
	call	??4ref_sound@@QAEAAU0@ABU0@@Z
	pop	edi
	mov	eax, esi
	pop	esi
	pop	ebx
	ret	4
??4CEffect_Rain@@QAEAAV0@ABV0@@Z ENDP			; CEffect_Rain::operator=
; Function compile flags: /Ogtpy
_TEXT	ENDS
;	COMDAT ??4?$xr_vector@Urq_result@collide@@V?$xalloc@Urq_result@collide@@@@@@QAEAAV0@ABV0@@Z
_TEXT	SEGMENT
??4?$xr_vector@Urq_result@collide@@V?$xalloc@Urq_result@collide@@@@@@QAEAAV0@ABV0@@Z PROC ; xr_vector<collide::rq_result,xalloc<collide::rq_result> >::operator=, COMDAT
; _this$ = ecx
; ___that$ = eax
	push	edi
	mov	edi, ecx
	push	eax
	call	??4?$_Impl_vector@Urq_result@collide@@V?$xalloc@Urq_result@collide@@@@@priv@stlp_std@@QAEAAV012@ABV012@@Z ; stlp_std::priv::_Impl_vector<collide::rq_result,xalloc<collide::rq_result> >::operator=
	mov	eax, edi
	pop	edi
	ret	0
??4?$xr_vector@Urq_result@collide@@V?$xalloc@Urq_result@collide@@@@@@QAEAAV0@ABV0@@Z ENDP ; xr_vector<collide::rq_result,xalloc<collide::rq_result> >::operator=
; Function compile flags: /Ogtpy
_TEXT	ENDS
;	COMDAT ??1?$vector@PAVCLensFlareDescriptor@@V?$xalloc@PAVCLensFlareDescriptor@@@@@stlp_std@@QAE@XZ
_TEXT	SEGMENT
??1?$vector@PAVCLensFlareDescriptor@@V?$xalloc@PAVCLensFlareDescriptor@@@@@stlp_std@@QAE@XZ PROC ; stlp_std::vector<CLensFlareDescriptor *,xalloc<CLensFlareDescriptor *> >::~vector<CLensFlareDescriptor *,xalloc<CLensFlareDescriptor *> >, COMDAT
; _this$ = eax
	mov	eax, DWORD PTR [eax]
	test	eax, eax
	je	SHORT $LN36@vector@37
	mov	ecx, DWORD PTR __imp_?Memory@@3VxrMemory@@A
	push	eax
	call	DWORD PTR __imp_?mem_free@xrMemory@@QAEXPAX@Z
$LN36@vector@37:
	ret	0
??1?$vector@PAVCLensFlareDescriptor@@V?$xalloc@PAVCLensFlareDescriptor@@@@@stlp_std@@QAE@XZ ENDP ; stlp_std::vector<CLensFlareDescriptor *,xalloc<CLensFlareDescriptor *> >::~vector<CLensFlareDescriptor *,xalloc<CLensFlareDescriptor *> >
; Function compile flags: /Ogtpy
_TEXT	ENDS
;	COMDAT ??4rq_results@collide@@QAEAAV01@ABV01@@Z
_TEXT	SEGMENT
??4rq_results@collide@@QAEAAV01@ABV01@@Z PROC		; collide::rq_results::operator=, COMDAT
; _this$ = ecx
; ___that$ = eax
	push	edi
	mov	edi, ecx
	push	eax
	call	??4?$_Impl_vector@Urq_result@collide@@V?$xalloc@Urq_result@collide@@@@@priv@stlp_std@@QAEAAV012@ABV012@@Z ; stlp_std::priv::_Impl_vector<collide::rq_result,xalloc<collide::rq_result> >::operator=
	mov	eax, edi
	pop	edi
	ret	0
??4rq_results@collide@@QAEAAV01@ABV01@@Z ENDP		; collide::rq_results::operator=
; Function compile flags: /Ogtpy
_TEXT	ENDS
;	COMDAT ??1?$xr_vector@PAVCLensFlareDescriptor@@V?$xalloc@PAVCLensFlareDescriptor@@@@@@QAE@XZ
_TEXT	SEGMENT
??1?$xr_vector@PAVCLensFlareDescriptor@@V?$xalloc@PAVCLensFlareDescriptor@@@@@@QAE@XZ PROC ; xr_vector<CLensFlareDescriptor *,xalloc<CLensFlareDescriptor *> >::~xr_vector<CLensFlareDescriptor *,xalloc<CLensFlareDescriptor *> >, COMDAT
; _this$ = eax
	mov	eax, DWORD PTR [eax]
	test	eax, eax
	je	SHORT $LN38@xr_vector@28
	mov	ecx, DWORD PTR __imp_?Memory@@3VxrMemory@@A
	push	eax
	call	DWORD PTR __imp_?mem_free@xrMemory@@QAEXPAX@Z
$LN38@xr_vector@28:
	ret	0
??1?$xr_vector@PAVCLensFlareDescriptor@@V?$xalloc@PAVCLensFlareDescriptor@@@@@@QAE@XZ ENDP ; xr_vector<CLensFlareDescriptor *,xalloc<CLensFlareDescriptor *> >::~xr_vector<CLensFlareDescriptor *,xalloc<CLensFlareDescriptor *> >
; Function compile flags: /Ogtpy
_TEXT	ENDS
;	COMDAT ??1SFlare@CLensFlareDescriptor@@QAE@XZ
_TEXT	SEGMENT
??1SFlare@CLensFlareDescriptor@@QAE@XZ PROC		; CLensFlareDescriptor::SFlare::~SFlare, COMDAT
; _this$ = esi
	mov	eax, DWORD PTR __imp_?RenderFactory@@3PAVIRenderFactory@@A
	mov	ecx, DWORD PTR [eax]
	mov	edx, DWORD PTR [ecx]
	mov	eax, DWORD PTR [esi+20]
	mov	edx, DWORD PTR [edx+124]
	push	eax
	call	edx
	xor	ecx, ecx
	mov	DWORD PTR [esi+20], ecx
	mov	eax, DWORD PTR [esi+16]
	cmp	eax, ecx
	je	SHORT $LN9@SFlare@2
	add	DWORD PTR [eax], -1
	mov	eax, DWORD PTR [esi+16]
	cmp	DWORD PTR [eax], ecx
	jne	SHORT $LN9@SFlare@2
	mov	DWORD PTR [esi+16], ecx
$LN9@SFlare@2:
	mov	eax, DWORD PTR [esi+12]
	cmp	eax, ecx
	je	SHORT $LN15@SFlare@2
	add	DWORD PTR [eax], -1
	mov	edx, DWORD PTR [esi+12]
	cmp	DWORD PTR [edx], ecx
	jne	SHORT $LN15@SFlare@2
	mov	DWORD PTR [esi+12], ecx
$LN15@SFlare@2:
	ret	0
??1SFlare@CLensFlareDescriptor@@QAE@XZ ENDP		; CLensFlareDescriptor::SFlare::~SFlare
; Function compile flags: /Ogtpy
_TEXT	ENDS
;	COMDAT ??1SSource@CLensFlareDescriptor@@QAE@XZ
_TEXT	SEGMENT
??1SSource@CLensFlareDescriptor@@QAE@XZ PROC		; CLensFlareDescriptor::SSource::~SSource, COMDAT
; _this$ = esi
	mov	eax, DWORD PTR __imp_?RenderFactory@@3PAVIRenderFactory@@A
	mov	ecx, DWORD PTR [eax]
	mov	edx, DWORD PTR [ecx]
	mov	eax, DWORD PTR [esi+20]
	mov	edx, DWORD PTR [edx+124]
	push	eax
	call	edx
	xor	ecx, ecx
	mov	DWORD PTR [esi+20], ecx
	mov	eax, DWORD PTR [esi+16]
	cmp	eax, ecx
	je	SHORT $LN11@SSource
	add	DWORD PTR [eax], -1
	mov	eax, DWORD PTR [esi+16]
	cmp	DWORD PTR [eax], ecx
	jne	SHORT $LN11@SSource
	mov	DWORD PTR [esi+16], ecx
$LN11@SSource:
	mov	eax, DWORD PTR [esi+12]
	cmp	eax, ecx
	je	SHORT $LN17@SSource
	add	DWORD PTR [eax], -1
	mov	edx, DWORD PTR [esi+12]
	cmp	DWORD PTR [edx], ecx
	jne	SHORT $LN17@SSource
	mov	DWORD PTR [esi+12], ecx
$LN17@SSource:
	ret	0
??1SSource@CLensFlareDescriptor@@QAE@XZ ENDP		; CLensFlareDescriptor::SSource::~SSource
; Function compile flags: /Ogtpy
; File d:\clearsky\sources\engine\xrengine\xr_efflensflare.h
_TEXT	ENDS
;	COMDAT ??0SFlare@CLensFlareDescriptor@@QAE@XZ
_TEXT	SEGMENT
??0SFlare@CLensFlareDescriptor@@QAE@XZ PROC		; CLensFlareDescriptor::SFlare::SFlare, COMDAT
; _this$ = esi

; 24   :     	SFlare()		{ fOpacity = fRadius = fPosition = 0; }

	xor	eax, eax
	mov	DWORD PTR [esi+12], eax
	mov	DWORD PTR [esi+16], eax
	mov	eax, DWORD PTR __imp_?RenderFactory@@3PAVIRenderFactory@@A
	mov	ecx, DWORD PTR [eax]
	mov	edx, DWORD PTR [ecx]
	mov	eax, DWORD PTR [edx+120]
	call	eax
	xorps	xmm0, xmm0
	mov	DWORD PTR [esi+20], eax
	movss	DWORD PTR [esi+8], xmm0
	movss	DWORD PTR [esi+4], xmm0
	movss	DWORD PTR [esi], xmm0
	mov	eax, esi
	ret	0
??0SFlare@CLensFlareDescriptor@@QAE@XZ ENDP		; CLensFlareDescriptor::SFlare::SFlare
; Function compile flags: /Ogtpy
;	COMDAT ??_GSFlare@CLensFlareDescriptor@@QAEPAXI@Z
_TEXT	SEGMENT
??_GSFlare@CLensFlareDescriptor@@QAEPAXI@Z PROC		; CLensFlareDescriptor::SFlare::`scalar deleting destructor', COMDAT
; _this$ = esi
	mov	eax, DWORD PTR __imp_?RenderFactory@@3PAVIRenderFactory@@A
	mov	ecx, DWORD PTR [eax]
	mov	edx, DWORD PTR [ecx]
	mov	eax, DWORD PTR [esi+20]
	mov	edx, DWORD PTR [edx+124]
	push	eax
	call	edx
	xor	ecx, ecx
	mov	DWORD PTR [esi+20], ecx
	mov	eax, DWORD PTR [esi+16]
	cmp	eax, ecx
	je	SHORT $LN12@scalar@47
	add	DWORD PTR [eax], -1
	mov	eax, DWORD PTR [esi+16]
	cmp	DWORD PTR [eax], ecx
	jne	SHORT $LN12@scalar@47
	mov	DWORD PTR [esi+16], ecx
$LN12@scalar@47:
	mov	eax, DWORD PTR [esi+12]
	cmp	eax, ecx
	je	SHORT $LN28@scalar@47
	add	DWORD PTR [eax], -1
	mov	edx, DWORD PTR [esi+12]
	cmp	DWORD PTR [edx], ecx
	mov	eax, esi
	jne	SHORT $LN18@scalar@47
	mov	DWORD PTR [esi+12], ecx
	ret	0
$LN28@scalar@47:
	mov	eax, esi
$LN18@scalar@47:
	ret	0
??_GSFlare@CLensFlareDescriptor@@QAEPAXI@Z ENDP		; CLensFlareDescriptor::SFlare::`scalar deleting destructor'
; Function compile flags: /Ogtpy
; File d:\clearsky\sources\sdk\include\stlport\stl\_construct.h
_TEXT	ENDS
;	COMDAT ??$__destroy_aux@USFlare@CLensFlareDescriptor@@@stlp_std@@YAXPAUSFlare@CLensFlareDescriptor@@ABU__false_type@0@@Z
_TEXT	SEGMENT
??$__destroy_aux@USFlare@CLensFlareDescriptor@@@stlp_std@@YAXPAUSFlare@CLensFlareDescriptor@@ABU__false_type@0@@Z PROC ; stlp_std::__destroy_aux<CLensFlareDescriptor::SFlare>, COMDAT
; ___pointer$ = esi

; 53   : { __pointer->~_Tp(); }

	mov	eax, DWORD PTR __imp_?RenderFactory@@3PAVIRenderFactory@@A
	mov	ecx, DWORD PTR [eax]
	mov	edx, DWORD PTR [ecx]
	mov	eax, DWORD PTR [esi+20]
	mov	edx, DWORD PTR [edx+124]
	push	eax
	call	edx
	xor	ecx, ecx
	mov	DWORD PTR [esi+20], ecx
	mov	eax, DWORD PTR [esi+16]
	cmp	eax, ecx
	je	SHORT $LN14@destroy_au@10
	add	DWORD PTR [eax], -1
	mov	eax, DWORD PTR [esi+16]
	cmp	DWORD PTR [eax], ecx
	jne	SHORT $LN14@destroy_au@10
	mov	DWORD PTR [esi+16], ecx
$LN14@destroy_au@10:
	mov	eax, DWORD PTR [esi+12]
	cmp	eax, ecx
	je	SHORT $LN20@destroy_au@10
	add	DWORD PTR [eax], -1
	mov	edx, DWORD PTR [esi+12]
	cmp	DWORD PTR [edx], ecx
	jne	SHORT $LN20@destroy_au@10
	mov	DWORD PTR [esi+12], ecx
$LN20@destroy_au@10:
	ret	0
??$__destroy_aux@USFlare@CLensFlareDescriptor@@@stlp_std@@YAXPAUSFlare@CLensFlareDescriptor@@ABU__false_type@0@@Z ENDP ; stlp_std::__destroy_aux<CLensFlareDescriptor::SFlare>
; Function compile flags: /Ogtpy
_TEXT	ENDS
;	COMDAT ??$__destroy_range_aux@PAUSFlare@CLensFlareDescriptor@@U12@@stlp_std@@YAXPAUSFlare@CLensFlareDescriptor@@00ABU__false_type@0@@Z
_TEXT	SEGMENT
??$__destroy_range_aux@PAUSFlare@CLensFlareDescriptor@@U12@@stlp_std@@YAXPAUSFlare@CLensFlareDescriptor@@00ABU__false_type@0@@Z PROC ; stlp_std::__destroy_range_aux<CLensFlareDescriptor::SFlare *,CLensFlareDescriptor::SFlare>, COMDAT
; ___first$ = eax
; ___last$ = ebx

; 151  : __destroy_range_aux(_ForwardIterator __first, _ForwardIterator __last, _Tp*, const __false_type& /*_Trivial_destructor*/) {

	push	esi
	mov	esi, eax

; 152  :   for ( ; __first != __last; ++__first) {

	cmp	esi, ebx
	je	SHORT $LN1@destroy_ra@28
	push	edi
	xor	edi, edi
	npad	6
$LL3@destroy_ra@28:

; 153  :     __destroy_aux(&(*__first), __false_type());

	mov	eax, DWORD PTR __imp_?RenderFactory@@3PAVIRenderFactory@@A
	mov	ecx, DWORD PTR [eax]
	mov	edx, DWORD PTR [ecx]
	mov	eax, DWORD PTR [esi+20]
	mov	edx, DWORD PTR [edx+124]
	push	eax
	call	edx
	mov	DWORD PTR [esi+20], edi
	mov	eax, DWORD PTR [esi+16]
	cmp	eax, edi
	je	SHORT $LN19@destroy_ra@28
	add	DWORD PTR [eax], -1
	mov	eax, DWORD PTR [esi+16]
	cmp	DWORD PTR [eax], edi
	jne	SHORT $LN19@destroy_ra@28
	mov	DWORD PTR [esi+16], edi
$LN19@destroy_ra@28:
	mov	eax, DWORD PTR [esi+12]
	cmp	eax, edi
	je	SHORT $LN25@destroy_ra@28
	add	DWORD PTR [eax], -1
	mov	ecx, DWORD PTR [esi+12]
	cmp	DWORD PTR [ecx], edi
	jne	SHORT $LN25@destroy_ra@28
	mov	DWORD PTR [esi+12], edi
$LN25@destroy_ra@28:
	add	esi, 24					; 00000018H
	cmp	esi, ebx
	jne	SHORT $LL3@destroy_ra@28
	pop	edi
$LN1@destroy_ra@28:
	pop	esi

; 154  : #if defined (_STLP_DEBUG_UNINITIALIZED)
; 155  :     memset((char*)&(*__first), _STLP_SHRED_BYTE, sizeof(_Tp));
; 156  : #endif
; 157  :   }
; 158  : }

	ret	0
??$__destroy_range_aux@PAUSFlare@CLensFlareDescriptor@@U12@@stlp_std@@YAXPAUSFlare@CLensFlareDescriptor@@00ABU__false_type@0@@Z ENDP ; stlp_std::__destroy_range_aux<CLensFlareDescriptor::SFlare *,CLensFlareDescriptor::SFlare>
; Function compile flags: /Ogtpy
_TEXT	ENDS
;	COMDAT ??$__destroy_range_aux@V?$reverse_iterator@PAUSFlare@CLensFlareDescriptor@@@stlp_std@@USFlare@CLensFlareDescriptor@@@stlp_std@@YAXV?$reverse_iterator@PAUSFlare@CLensFlareDescriptor@@@0@0PAUSFlare@CLensFlareDescriptor@@ABU__false_type@0@@Z
_TEXT	SEGMENT
___first$ = 8						; size = 4
___last$ = 12						; size = 4
??$__destroy_range_aux@V?$reverse_iterator@PAUSFlare@CLensFlareDescriptor@@@stlp_std@@USFlare@CLensFlareDescriptor@@@stlp_std@@YAXV?$reverse_iterator@PAUSFlare@CLensFlareDescriptor@@@0@0PAUSFlare@CLensFlareDescriptor@@ABU__false_type@0@@Z PROC ; stlp_std::__destroy_range_aux<stlp_std::reverse_iterator<CLensFlareDescriptor::SFlare *>,CLensFlareDescriptor::SFlare>, COMDAT

; 151  : __destroy_range_aux(_ForwardIterator __first, _ForwardIterator __last, _Tp*, const __false_type& /*_Trivial_destructor*/) {

	push	ebx

; 152  :   for ( ; __first != __last; ++__first) {

	mov	ebx, DWORD PTR ___first$[esp]
	push	ebp
	mov	ebp, DWORD PTR ___last$[esp+4]
	cmp	ebx, ebp
	je	SHORT $LN1@destroy_ra@29
	push	esi
	push	edi
	lea	esi, DWORD PTR [ebx-8]
	xor	edi, edi
$LL6@destroy_ra@29:

; 153  :     __destroy_aux(&(*__first), __false_type());

	mov	eax, DWORD PTR __imp_?RenderFactory@@3PAVIRenderFactory@@A
	mov	ecx, DWORD PTR [eax]
	mov	edx, DWORD PTR [ecx]
	mov	eax, DWORD PTR [esi+4]
	mov	edx, DWORD PTR [edx+124]
	push	eax
	call	edx
	mov	DWORD PTR [esi+4], edi
	mov	eax, DWORD PTR [esi]
	cmp	eax, edi
	je	SHORT $LN48@destroy_ra@29
	add	DWORD PTR [eax], -1
	mov	eax, DWORD PTR [esi]
	cmp	DWORD PTR [eax], edi
	jne	SHORT $LN48@destroy_ra@29
	mov	DWORD PTR [esi], edi
$LN48@destroy_ra@29:
	mov	eax, DWORD PTR [esi-4]
	cmp	eax, edi
	je	SHORT $LN37@destroy_ra@29
	add	DWORD PTR [eax], -1
	mov	ecx, DWORD PTR [esi-4]
	cmp	DWORD PTR [ecx], edi
	jne	SHORT $LN37@destroy_ra@29
	mov	DWORD PTR [esi-4], edi
$LN37@destroy_ra@29:
	sub	ebx, 24					; 00000018H
	sub	esi, 24					; 00000018H
	cmp	ebx, ebp
	jne	SHORT $LL6@destroy_ra@29
	pop	edi
	pop	esi
$LN1@destroy_ra@29:
	pop	ebp
	pop	ebx

; 154  : #if defined (_STLP_DEBUG_UNINITIALIZED)
; 155  :     memset((char*)&(*__first), _STLP_SHRED_BYTE, sizeof(_Tp));
; 156  : #endif
; 157  :   }
; 158  : }

	ret	0
??$__destroy_range_aux@V?$reverse_iterator@PAUSFlare@CLensFlareDescriptor@@@stlp_std@@USFlare@CLensFlareDescriptor@@@stlp_std@@YAXV?$reverse_iterator@PAUSFlare@CLensFlareDescriptor@@@0@0PAUSFlare@CLensFlareDescriptor@@ABU__false_type@0@@Z ENDP ; stlp_std::__destroy_range_aux<stlp_std::reverse_iterator<CLensFlareDescriptor::SFlare *>,CLensFlareDescriptor::SFlare>
; Function compile flags: /Ogtpy
_TEXT	ENDS
;	COMDAT ??$__destroy_range@PAUSFlare@CLensFlareDescriptor@@U12@@stlp_std@@YAXPAUSFlare@CLensFlareDescriptor@@00@Z
_TEXT	SEGMENT
??$__destroy_range@PAUSFlare@CLensFlareDescriptor@@U12@@stlp_std@@YAXPAUSFlare@CLensFlareDescriptor@@00@Z PROC ; stlp_std::__destroy_range<CLensFlareDescriptor::SFlare *,CLensFlareDescriptor::SFlare>, COMDAT
; ___first$ = eax
; ___last$ = ebx

; 175  :   typedef typename __type_traits<_Tp>::has_trivial_destructor _Trivial_destructor;
; 176  :   __destroy_range_aux(__first, __last, __ptr, _Trivial_destructor());

	jmp	??$__destroy_range_aux@PAUSFlare@CLensFlareDescriptor@@U12@@stlp_std@@YAXPAUSFlare@CLensFlareDescriptor@@00ABU__false_type@0@@Z ; stlp_std::__destroy_range_aux<CLensFlareDescriptor::SFlare *,CLensFlareDescriptor::SFlare>
??$__destroy_range@PAUSFlare@CLensFlareDescriptor@@U12@@stlp_std@@YAXPAUSFlare@CLensFlareDescriptor@@00@Z ENDP ; stlp_std::__destroy_range<CLensFlareDescriptor::SFlare *,CLensFlareDescriptor::SFlare>
; Function compile flags: /Ogtpy
_TEXT	ENDS
;	COMDAT ??$__destroy_range@V?$reverse_iterator@PAUSFlare@CLensFlareDescriptor@@@stlp_std@@USFlare@CLensFlareDescriptor@@@stlp_std@@YAXV?$reverse_iterator@PAUSFlare@CLensFlareDescriptor@@@0@0PAUSFlare@CLensFlareDescriptor@@@Z
_TEXT	SEGMENT
___first$ = 8						; size = 4
___last$ = 12						; size = 4
??$__destroy_range@V?$reverse_iterator@PAUSFlare@CLensFlareDescriptor@@@stlp_std@@USFlare@CLensFlareDescriptor@@@stlp_std@@YAXV?$reverse_iterator@PAUSFlare@CLensFlareDescriptor@@@0@0PAUSFlare@CLensFlareDescriptor@@@Z PROC ; stlp_std::__destroy_range<stlp_std::reverse_iterator<CLensFlareDescriptor::SFlare *>,CLensFlareDescriptor::SFlare>, COMDAT

; 175  :   typedef typename __type_traits<_Tp>::has_trivial_destructor _Trivial_destructor;
; 176  :   __destroy_range_aux(__first, __last, __ptr, _Trivial_destructor());

	mov	edx, DWORD PTR ___first$[esp-4]
	push	ecx
	mov	ecx, DWORD PTR ___last$[esp]
	mov	eax, esp
	mov	DWORD PTR [eax], ecx
	push	ecx
	mov	eax, esp
	mov	DWORD PTR [eax], edx
	call	??$__destroy_range_aux@V?$reverse_iterator@PAUSFlare@CLensFlareDescriptor@@@stlp_std@@USFlare@CLensFlareDescriptor@@@stlp_std@@YAXV?$reverse_iterator@PAUSFlare@CLensFlareDescriptor@@@0@0PAUSFlare@CLensFlareDescriptor@@ABU__false_type@0@@Z ; stlp_std::__destroy_range_aux<stlp_std::reverse_iterator<CLensFlareDescriptor::SFlare *>,CLensFlareDescriptor::SFlare>
	add	esp, 8

; 177  : }

	ret	0
??$__destroy_range@V?$reverse_iterator@PAUSFlare@CLensFlareDescriptor@@@stlp_std@@USFlare@CLensFlareDescriptor@@@stlp_std@@YAXV?$reverse_iterator@PAUSFlare@CLensFlareDescriptor@@@0@0PAUSFlare@CLensFlareDescriptor@@@Z ENDP ; stlp_std::__destroy_range<stlp_std::reverse_iterator<CLensFlareDescriptor::SFlare *>,CLensFlareDescriptor::SFlare>
; Function compile flags: /Ogtpy
; File d:\clearsky\sources\sdk\include\stlport\stl\_vector.c
_TEXT	ENDS
;	COMDAT ?_M_insert_overflow@?$_Impl_vector@MV?$xalloc@M@@@priv@stlp_std@@AAEXPAMABMABU__true_type@3@I_N@Z
_TEXT	SEGMENT
___old_size$ = -12					; size = 4
___len$ = -8						; size = 4
tv163 = -4						; size = 4
___pos$ = 8						; size = 4
___fill_len$ = 12					; size = 4
___atend$ = 16						; size = 1
?_M_insert_overflow@?$_Impl_vector@MV?$xalloc@M@@@priv@stlp_std@@AAEXPAMABMABU__true_type@3@I_N@Z PROC ; stlp_std::priv::_Impl_vector<float,xalloc<float> >::_M_insert_overflow, COMDAT
; _this$ = edi
; ___x$ = eax

; 109  :                                              size_type __fill_len, bool __atend ) {

	sub	esp, 12					; 0000000cH
	push	ebx
	push	ebp
	push	esi

; 110  :   const size_type __old_size = size();

	mov	ecx, edi
	mov	ebx, eax
	call	?size@?$_Impl_vector@MV?$xalloc@M@@@priv@stlp_std@@QBEIXZ ; stlp_std::priv::_Impl_vector<float,xalloc<float> >::size
	mov	DWORD PTR ___old_size$[esp+24], eax

; 111  :   size_type __len = __old_size + (max)(__old_size, __fill_len);

	lea	eax, DWORD PTR ___fill_len$[esp+20]
	push	eax
	lea	ecx, DWORD PTR ___old_size$[esp+28]
	push	ecx
	call	??$max@I@stlp_std@@YAABIABI0@Z		; stlp_std::max<unsigned int>
	mov	eax, DWORD PTR [eax]
	add	eax, DWORD PTR ___old_size$[esp+32]
	add	esp, 8

; 112  : 
; 113  :   pointer __new_start = this->_M_end_of_storage.allocate(__len, __len);

	lea	edx, DWORD PTR ___len$[esp+24]
	push	edx
	lea	ecx, DWORD PTR [edi+8]
	push	eax
	mov	DWORD PTR ___len$[esp+32], eax
	mov	DWORD PTR tv163[esp+32], ecx
	call	?allocate@?$_STLP_alloc_proxy@PAMMV?$xalloc@M@@@priv@stlp_std@@QAEPAMIAAI@Z ; stlp_std::priv::_STLP_alloc_proxy<float *,float,xalloc<float> >::allocate

; 114  :   pointer __new_finish = __STATIC_CAST(pointer, _STLP_PRIV __copy_trivial(this->_M_start, __pos, __new_start));

	mov	esi, DWORD PTR ___pos$[esp+20]
	mov	ebp, eax
	mov	eax, DWORD PTR [edi]
	sub	esi, eax
	je	SHORT $LN22@M_insert_o@18
	push	esi
	push	eax
	push	ebp
	call	DWORD PTR __imp__memmove
	add	esp, 12					; 0000000cH
	add	eax, esi
	jmp	SHORT $LN23@M_insert_o@18
$LN22@M_insert_o@18:
	mov	eax, ebp
$LN23@M_insert_o@18:

; 115  :   // handle insertion
; 116  :   __new_finish = _STLP_PRIV __fill_n(__new_finish, __fill_len, __x);

	mov	ecx, DWORD PTR ___fill_len$[esp+20]
	test	ecx, ecx
	jbe	SHORT $LN24@M_insert_o@18
$LL26@M_insert_o@18:
	fld	DWORD PTR [ebx]
	sub	ecx, 1
	fstp	DWORD PTR [eax]
	add	eax, 4
	test	ecx, ecx
	ja	SHORT $LL26@M_insert_o@18
$LN24@M_insert_o@18:

; 117  :   if (!__atend)

	cmp	BYTE PTR ___atend$[esp+20], 0
	mov	esi, eax
	jne	SHORT $LN37@M_insert_o@18

; 118  :     __new_finish = __STATIC_CAST(pointer, _STLP_PRIV __copy_trivial(__pos, this->_M_finish, __new_finish)); // copy remainder

	mov	ebx, DWORD PTR [edi+4]
	mov	ecx, DWORD PTR ___pos$[esp+20]
	sub	ebx, ecx
	je	SHORT $LN37@M_insert_o@18
	push	ebx
	push	ecx
	push	eax
	call	DWORD PTR __imp__memmove
	mov	esi, eax
	add	esp, 12					; 0000000cH
	add	esi, ebx
$LN37@M_insert_o@18:

; 119  :   _M_clear();

	mov	ecx, edi
	call	?_M_clear@?$_Impl_vector@MV?$xalloc@M@@@priv@stlp_std@@AAEXXZ ; stlp_std::priv::_Impl_vector<float,xalloc<float> >::_M_clear

; 120  :   _M_set(__new_start, __new_finish, __new_start + __len);

	mov	eax, DWORD PTR ___len$[esp+24]
	mov	edx, DWORD PTR tv163[esp+24]
	mov	DWORD PTR [edi+4], esi
	pop	esi
	lea	ecx, DWORD PTR [ebp+eax*4]
	mov	DWORD PTR [edi], ebp
	pop	ebp
	mov	DWORD PTR [edx], ecx
	pop	ebx

; 121  : }

	add	esp, 12					; 0000000cH
	ret	12					; 0000000cH
?_M_insert_overflow@?$_Impl_vector@MV?$xalloc@M@@@priv@stlp_std@@AAEXPAMABMABU__true_type@3@I_N@Z ENDP ; stlp_std::priv::_Impl_vector<float,xalloc<float> >::_M_insert_overflow
; Function compile flags: /Ogtpy
; File d:\clearsky\sources\sdk\include\stlport\stl\_construct.h
_TEXT	ENDS
;	COMDAT ??$_Destroy_Range@PAUSFlare@CLensFlareDescriptor@@@stlp_std@@YAXPAUSFlare@CLensFlareDescriptor@@0@Z
_TEXT	SEGMENT
??$_Destroy_Range@PAUSFlare@CLensFlareDescriptor@@@stlp_std@@YAXPAUSFlare@CLensFlareDescriptor@@0@Z PROC ; stlp_std::_Destroy_Range<CLensFlareDescriptor::SFlare *>, COMDAT
; ___first$ = eax
; ___last$ = ebx

; 181  :   __destroy_range(__first, __last, _STLP_VALUE_TYPE(__first, _ForwardIterator));

	jmp	??$__destroy_range_aux@PAUSFlare@CLensFlareDescriptor@@U12@@stlp_std@@YAXPAUSFlare@CLensFlareDescriptor@@00ABU__false_type@0@@Z ; stlp_std::__destroy_range_aux<CLensFlareDescriptor::SFlare *,CLensFlareDescriptor::SFlare>
??$_Destroy_Range@PAUSFlare@CLensFlareDescriptor@@@stlp_std@@YAXPAUSFlare@CLensFlareDescriptor@@0@Z ENDP ; stlp_std::_Destroy_Range<CLensFlareDescriptor::SFlare *>
; Function compile flags: /Ogtpy
; File d:\clearsky\sources\sdk\include\stlport\stl\_vector.c
_TEXT	ENDS
;	COMDAT ?_M_insert_overflow@?$_Impl_vector@GV?$xalloc@G@@@priv@stlp_std@@AAEXPAGABGABU__true_type@3@I_N@Z
_TEXT	SEGMENT
___old_size$ = -12					; size = 4
___len$ = -8						; size = 4
tv163 = -4						; size = 4
___pos$ = 8						; size = 4
___fill_len$ = 12					; size = 4
___atend$ = 16						; size = 1
?_M_insert_overflow@?$_Impl_vector@GV?$xalloc@G@@@priv@stlp_std@@AAEXPAGABGABU__true_type@3@I_N@Z PROC ; stlp_std::priv::_Impl_vector<unsigned short,xalloc<unsigned short> >::_M_insert_overflow, COMDAT
; _this$ = edi
; ___x$ = eax

; 109  :                                              size_type __fill_len, bool __atend ) {

	sub	esp, 12					; 0000000cH
	push	ebx
	push	ebp
	push	esi

; 110  :   const size_type __old_size = size();

	mov	ecx, edi
	mov	ebx, eax
	call	?size@?$_Impl_vector@GV?$xalloc@G@@@priv@stlp_std@@QBEIXZ ; stlp_std::priv::_Impl_vector<unsigned short,xalloc<unsigned short> >::size
	mov	DWORD PTR ___old_size$[esp+24], eax

; 111  :   size_type __len = __old_size + (max)(__old_size, __fill_len);

	lea	eax, DWORD PTR ___fill_len$[esp+20]
	push	eax
	lea	ecx, DWORD PTR ___old_size$[esp+28]
	push	ecx
	call	??$max@I@stlp_std@@YAABIABI0@Z		; stlp_std::max<unsigned int>
	mov	eax, DWORD PTR [eax]
	add	eax, DWORD PTR ___old_size$[esp+32]
	add	esp, 8

; 112  : 
; 113  :   pointer __new_start = this->_M_end_of_storage.allocate(__len, __len);

	lea	edx, DWORD PTR ___len$[esp+24]
	push	edx
	lea	ecx, DWORD PTR [edi+8]
	push	eax
	mov	DWORD PTR ___len$[esp+32], eax
	mov	DWORD PTR tv163[esp+32], ecx
	call	?allocate@?$_STLP_alloc_proxy@PAGGV?$xalloc@G@@@priv@stlp_std@@QAEPAGIAAI@Z ; stlp_std::priv::_STLP_alloc_proxy<unsigned short *,unsigned short,xalloc<unsigned short> >::allocate

; 114  :   pointer __new_finish = __STATIC_CAST(pointer, _STLP_PRIV __copy_trivial(this->_M_start, __pos, __new_start));

	mov	esi, DWORD PTR ___pos$[esp+20]
	mov	ebp, eax
	mov	eax, DWORD PTR [edi]
	sub	esi, eax
	je	SHORT $LN22@M_insert_o@19
	push	esi
	push	eax
	push	ebp
	call	DWORD PTR __imp__memmove
	add	esp, 12					; 0000000cH
	add	eax, esi
	jmp	SHORT $LN23@M_insert_o@19
$LN22@M_insert_o@19:
	mov	eax, ebp
$LN23@M_insert_o@19:

; 115  :   // handle insertion
; 116  :   __new_finish = _STLP_PRIV __fill_n(__new_finish, __fill_len, __x);

	mov	ecx, DWORD PTR ___fill_len$[esp+20]
	test	ecx, ecx
	jbe	SHORT $LN24@M_insert_o@19
$LL26@M_insert_o@19:
	mov	dx, WORD PTR [ebx]
	mov	WORD PTR [eax], dx
	sub	ecx, 1
	add	eax, 2
	test	ecx, ecx
	ja	SHORT $LL26@M_insert_o@19
$LN24@M_insert_o@19:

; 117  :   if (!__atend)

	cmp	BYTE PTR ___atend$[esp+20], 0
	mov	esi, eax
	jne	SHORT $LN37@M_insert_o@19

; 118  :     __new_finish = __STATIC_CAST(pointer, _STLP_PRIV __copy_trivial(__pos, this->_M_finish, __new_finish)); // copy remainder

	mov	ebx, DWORD PTR [edi+4]
	mov	ecx, DWORD PTR ___pos$[esp+20]
	sub	ebx, ecx
	je	SHORT $LN37@M_insert_o@19
	push	ebx
	push	ecx
	push	eax
	call	DWORD PTR __imp__memmove
	mov	esi, eax
	add	esp, 12					; 0000000cH
	add	esi, ebx
$LN37@M_insert_o@19:

; 119  :   _M_clear();

	mov	ecx, edi
	call	?_M_clear@?$_Impl_vector@GV?$xalloc@G@@@priv@stlp_std@@AAEXXZ ; stlp_std::priv::_Impl_vector<unsigned short,xalloc<unsigned short> >::_M_clear

; 120  :   _M_set(__new_start, __new_finish, __new_start + __len);

	mov	eax, DWORD PTR ___len$[esp+24]
	mov	edx, DWORD PTR tv163[esp+24]
	mov	DWORD PTR [edi+4], esi
	pop	esi
	lea	ecx, DWORD PTR [ebp+eax*2]
	mov	DWORD PTR [edi], ebp
	pop	ebp
	mov	DWORD PTR [edx], ecx
	pop	ebx

; 121  : }

	add	esp, 12					; 0000000cH
	ret	12					; 0000000cH
?_M_insert_overflow@?$_Impl_vector@GV?$xalloc@G@@@priv@stlp_std@@AAEXPAGABGABU__true_type@3@I_N@Z ENDP ; stlp_std::priv::_Impl_vector<unsigned short,xalloc<unsigned short> >::_M_insert_overflow
; Function compile flags: /Ogtpy
_TEXT	ENDS
;	COMDAT ?_M_insert_overflow@?$_Impl_vector@U?$_vector3@M@@V?$xalloc@U?$_vector3@M@@@@@priv@stlp_std@@AAEXPAU?$_vector3@M@@ABU4@ABU__true_type@3@I_N@Z
_TEXT	SEGMENT
___old_size$ = -12					; size = 4
___len$ = -8						; size = 4
tv202 = -4						; size = 4
___pos$ = 8						; size = 4
___fill_len$ = 12					; size = 4
?_M_insert_overflow@?$_Impl_vector@U?$_vector3@M@@V?$xalloc@U?$_vector3@M@@@@@priv@stlp_std@@AAEXPAU?$_vector3@M@@ABU4@ABU__true_type@3@I_N@Z PROC ; stlp_std::priv::_Impl_vector<_vector3<float>,xalloc<_vector3<float> > >::_M_insert_overflow, COMDAT
; _this$ = esi
; ___x$ = eax

; 109  :                                              size_type __fill_len, bool __atend ) {

	sub	esp, 12					; 0000000cH

; 110  :   const size_type __old_size = size();

	mov	ecx, DWORD PTR [esi+4]
	sub	ecx, DWORD PTR [esi]
	push	ebx
	mov	ebx, eax
	mov	eax, 715827883				; 2aaaaaabH
	imul	ecx
	sar	edx, 1
	mov	eax, edx
	push	ebp
	shr	eax, 31					; 0000001fH
	push	edi
	add	eax, edx

; 111  :   size_type __len = __old_size + (max)(__old_size, __fill_len);

	lea	ecx, DWORD PTR ___fill_len$[esp+20]
	push	ecx
	lea	edx, DWORD PTR ___old_size$[esp+28]
	push	edx
	mov	DWORD PTR ___old_size$[esp+32], eax
	call	??$max@I@stlp_std@@YAABIABI0@Z		; stlp_std::max<unsigned int>
	mov	eax, DWORD PTR [eax]
	add	eax, DWORD PTR ___old_size$[esp+32]
	add	esp, 8

; 112  : 
; 113  :   pointer __new_start = this->_M_end_of_storage.allocate(__len, __len);

	lea	edx, DWORD PTR ___len$[esp+24]
	push	edx
	lea	ecx, DWORD PTR [esi+8]
	push	eax
	mov	DWORD PTR ___len$[esp+32], eax
	mov	DWORD PTR tv202[esp+32], ecx
	call	?allocate@?$_STLP_alloc_proxy@PAU?$_vector3@M@@U1@V?$xalloc@U?$_vector3@M@@@@@priv@stlp_std@@QAEPAU?$_vector3@M@@IAAI@Z ; stlp_std::priv::_STLP_alloc_proxy<_vector3<float> *,_vector3<float>,xalloc<_vector3<float> > >::allocate

; 114  :   pointer __new_finish = __STATIC_CAST(pointer, _STLP_PRIV __copy_trivial(this->_M_start, __pos, __new_start));

	mov	edx, DWORD PTR ___pos$[esp+20]
	mov	ebp, eax
	mov	eax, DWORD PTR [esi]
	mov	edi, edx
	sub	edi, eax
	je	SHORT $LN22@M_insert_o@20
	push	edi
	push	eax
	push	ebp
	call	DWORD PTR __imp__memmove
	mov	edx, DWORD PTR ___pos$[esp+32]
	add	esp, 12					; 0000000cH
	add	eax, edi
	jmp	SHORT $LN23@M_insert_o@20
$LN22@M_insert_o@20:
	mov	eax, ebp
$LN23@M_insert_o@20:

; 115  :   // handle insertion
; 116  :   __new_finish = _STLP_PRIV __fill_n(__new_finish, __fill_len, __x);

	mov	ecx, DWORD PTR ___fill_len$[esp+20]
	test	ecx, ecx
	jbe	SHORT $LN24@M_insert_o@20
	npad	5
$LL26@M_insert_o@20:
	mov	edi, DWORD PTR [ebx]
	mov	DWORD PTR [eax], edi
	mov	edi, DWORD PTR [ebx+4]
	mov	DWORD PTR [eax+4], edi
	mov	edi, DWORD PTR [ebx+8]
	mov	DWORD PTR [eax+8], edi
	sub	ecx, 1
	add	eax, 12					; 0000000cH
	test	ecx, ecx
	ja	SHORT $LL26@M_insert_o@20
$LN24@M_insert_o@20:

; 117  :   if (!__atend)
; 118  :     __new_finish = __STATIC_CAST(pointer, _STLP_PRIV __copy_trivial(__pos, this->_M_finish, __new_finish)); // copy remainder

	mov	ebx, DWORD PTR [esi+4]
	sub	ebx, edx
	mov	edi, eax
	je	SHORT $LN31@M_insert_o@20
	push	ebx
	push	edx
	push	eax
	call	DWORD PTR __imp__memmove
	mov	edi, eax
	add	esp, 12					; 0000000cH
	add	edi, ebx
$LN31@M_insert_o@20:

; 119  :   _M_clear();

	mov	ecx, esi
	call	?_M_clear@?$_Impl_vector@U?$_vector3@M@@V?$xalloc@U?$_vector3@M@@@@@priv@stlp_std@@AAEXXZ ; stlp_std::priv::_Impl_vector<_vector3<float>,xalloc<_vector3<float> > >::_M_clear

; 120  :   _M_set(__new_start, __new_finish, __new_start + __len);

	mov	eax, DWORD PTR ___len$[esp+24]
	mov	edx, DWORD PTR tv202[esp+24]
	mov	DWORD PTR [esi+4], edi
	lea	eax, DWORD PTR [eax+eax*2]
	pop	edi
	lea	ecx, DWORD PTR [ebp+eax*4]
	mov	DWORD PTR [esi], ebp
	pop	ebp
	mov	DWORD PTR [edx], ecx
	pop	ebx

; 121  : }

	add	esp, 12					; 0000000cH
	ret	8
?_M_insert_overflow@?$_Impl_vector@U?$_vector3@M@@V?$xalloc@U?$_vector3@M@@@@@priv@stlp_std@@AAEXPAU?$_vector3@M@@ABU4@ABU__true_type@3@I_N@Z ENDP ; stlp_std::priv::_Impl_vector<_vector3<float>,xalloc<_vector3<float> > >::_M_insert_overflow
; Function compile flags: /Ogtpy
; File d:\clearsky\sources\sdk\include\stlport\stl\_construct.h
_TEXT	ENDS
;	COMDAT ??$_Destroy_Range@V?$reverse_iterator@PAUSFlare@CLensFlareDescriptor@@@stlp_std@@@stlp_std@@YAXV?$reverse_iterator@PAUSFlare@CLensFlareDescriptor@@@0@0@Z
_TEXT	SEGMENT
___first$ = 8						; size = 4
___last$ = 12						; size = 4
??$_Destroy_Range@V?$reverse_iterator@PAUSFlare@CLensFlareDescriptor@@@stlp_std@@@stlp_std@@YAXV?$reverse_iterator@PAUSFlare@CLensFlareDescriptor@@@0@0@Z PROC ; stlp_std::_Destroy_Range<stlp_std::reverse_iterator<CLensFlareDescriptor::SFlare *> >, COMDAT

; 181  :   __destroy_range(__first, __last, _STLP_VALUE_TYPE(__first, _ForwardIterator));

	mov	edx, DWORD PTR ___first$[esp-4]
	push	ecx
	mov	ecx, DWORD PTR ___last$[esp]
	mov	eax, esp
	mov	DWORD PTR [eax], ecx
	push	ecx
	mov	eax, esp
	mov	DWORD PTR [eax], edx
	call	??$__destroy_range_aux@V?$reverse_iterator@PAUSFlare@CLensFlareDescriptor@@@stlp_std@@USFlare@CLensFlareDescriptor@@@stlp_std@@YAXV?$reverse_iterator@PAUSFlare@CLensFlareDescriptor@@@0@0PAUSFlare@CLensFlareDescriptor@@ABU__false_type@0@@Z ; stlp_std::__destroy_range_aux<stlp_std::reverse_iterator<CLensFlareDescriptor::SFlare *>,CLensFlareDescriptor::SFlare>
	add	esp, 8

; 182  : }

	ret	0
??$_Destroy_Range@V?$reverse_iterator@PAUSFlare@CLensFlareDescriptor@@@stlp_std@@@stlp_std@@YAXV?$reverse_iterator@PAUSFlare@CLensFlareDescriptor@@@0@0@Z ENDP ; stlp_std::_Destroy_Range<stlp_std::reverse_iterator<CLensFlareDescriptor::SFlare *> >
; Function compile flags: /Ogtpy
; File d:\clearsky\sources\engine\xrcore\xrmemory_subst_msvc.h
_TEXT	ENDS
;	COMDAT ??$xr_new@USThunderboltCollection@@@@YAPAUSThunderboltCollection@@XZ
_TEXT	SEGMENT
??$xr_new@USThunderboltCollection@@@@YAPAUSThunderboltCollection@@XZ PROC ; xr_new<SThunderboltCollection>, COMDAT

; 68   : 	T* ptr	= (T*)Memory.mem_alloc(sizeof(T));

	mov	ecx, DWORD PTR __imp_?Memory@@3VxrMemory@@A
	push	16					; 00000010H
	call	DWORD PTR __imp_?mem_alloc@xrMemory@@QAEPAXI@Z

; 69   : 	return new (ptr) T();

	xor	ecx, ecx
	cmp	eax, ecx
	je	SHORT $LN3@xr_new@22
	mov	DWORD PTR [eax], ecx
	mov	DWORD PTR [eax+4], ecx
	mov	DWORD PTR [eax+8], ecx
	mov	DWORD PTR [eax+12], ecx

; 70   : }

	ret	0
$LN3@xr_new@22:

; 69   : 	return new (ptr) T();

	xor	eax, eax

; 70   : }

	ret	0
??$xr_new@USThunderboltCollection@@@@YAPAUSThunderboltCollection@@XZ ENDP ; xr_new<SThunderboltCollection>
; Function compile flags: /Ogtpy
_TEXT	ENDS
;	COMDAT ??$xr_new@USThunderboltDesc@@@@YAPAUSThunderboltDesc@@XZ
_TEXT	SEGMENT
??$xr_new@USThunderboltDesc@@@@YAPAUSThunderboltDesc@@XZ PROC ; xr_new<SThunderboltDesc>, COMDAT

; 68   : 	T* ptr	= (T*)Memory.mem_alloc(sizeof(T));

	mov	ecx, DWORD PTR __imp_?Memory@@3VxrMemory@@A
	push	esi
	push	edi
	push	24					; 00000018H
	call	DWORD PTR __imp_?mem_alloc@xrMemory@@QAEPAXI@Z

; 69   : 	return new (ptr) T();

	mov	esi, eax
	xor	edi, edi
	cmp	esi, edi
	je	SHORT $LN3@xr_new@23
	mov	eax, DWORD PTR __imp_?RenderFactory@@3PAVIRenderFactory@@A
	mov	ecx, DWORD PTR [eax]
	mov	edx, DWORD PTR [ecx]
	mov	eax, DWORD PTR [edx+112]
	call	eax
	mov	DWORD PTR [esi], eax
	mov	DWORD PTR [esi+4], edi
	mov	DWORD PTR [esi+8], edi
	mov	DWORD PTR [esi+12], edi
	mov	DWORD PTR [esi+16], edi
	pop	edi
	mov	eax, esi
	pop	esi

; 70   : }

	ret	0
$LN3@xr_new@23:
	pop	edi

; 69   : 	return new (ptr) T();

	xor	eax, eax
	pop	esi

; 70   : }

	ret	0
??$xr_new@USThunderboltDesc@@@@YAPAUSThunderboltDesc@@XZ ENDP ; xr_new<SThunderboltDesc>
; Function compile flags: /Ogtpy
; File d:\clearsky\sources\sdk\include\stlport\stl\_vector.c
_TEXT	ENDS
;	COMDAT ?_M_fill_insert@?$_Impl_vector@MV?$xalloc@M@@@priv@stlp_std@@AAEXPAMIABM@Z
_TEXT	SEGMENT
$T389687 = -1						; size = 1
?_M_fill_insert@?$_Impl_vector@MV?$xalloc@M@@@priv@stlp_std@@AAEXPAMIABM@Z PROC ; stlp_std::priv::_Impl_vector<float,xalloc<float> >::_M_fill_insert, COMDAT
; _this$ = ecx
; ___pos$ = esi
; ___n$ = edx
; ___x$ = eax

; 167  :                                          size_type __n, const _Tp& __x) {

	push	ecx

; 168  :   if (__n != 0) {

	test	edx, edx
	je	SHORT $LN1@M_fill_ins@18
	push	edi

; 169  :     if (size_type(this->_M_end_of_storage._M_data - this->_M_finish) >= __n) {

	mov	edi, DWORD PTR [ecx+8]
	sub	edi, DWORD PTR [ecx+4]
	sar	edi, 2
	cmp	edi, edx
	jb	SHORT $LN2@M_fill_ins@18

; 170  :       _M_fill_insert_aux(__pos, __n, __x, _Movable());

	lea	edi, DWORD PTR $T389687[esp+8]
	push	edi
	push	eax
	push	edx
	push	esi
	call	?_M_fill_insert_aux@?$_Impl_vector@MV?$xalloc@M@@@priv@stlp_std@@AAEXPAMIABMABU__false_type@3@@Z ; stlp_std::priv::_Impl_vector<float,xalloc<float> >::_M_fill_insert_aux
	pop	edi

; 173  :   }
; 174  : }

	pop	ecx
	ret	0
$LN2@M_fill_ins@18:

; 171  :     } else
; 172  :       _M_insert_overflow(__pos, __x, _TrivialCopy(), __n);

	push	0
	push	edx
	push	esi
	mov	edi, ecx
	call	?_M_insert_overflow@?$_Impl_vector@MV?$xalloc@M@@@priv@stlp_std@@AAEXPAMABMABU__true_type@3@I_N@Z ; stlp_std::priv::_Impl_vector<float,xalloc<float> >::_M_insert_overflow
	pop	edi
$LN1@M_fill_ins@18:

; 173  :   }
; 174  : }

	pop	ecx
	ret	0
?_M_fill_insert@?$_Impl_vector@MV?$xalloc@M@@@priv@stlp_std@@AAEXPAMIABM@Z ENDP ; stlp_std::priv::_Impl_vector<float,xalloc<float> >::_M_fill_insert
; Function compile flags: /Ogtpy
_TEXT	ENDS
;	COMDAT ?_M_fill_insert@?$_Impl_vector@GV?$xalloc@G@@@priv@stlp_std@@AAEXPAGIABG@Z
_TEXT	SEGMENT
$T389693 = -1						; size = 1
?_M_fill_insert@?$_Impl_vector@GV?$xalloc@G@@@priv@stlp_std@@AAEXPAGIABG@Z PROC ; stlp_std::priv::_Impl_vector<unsigned short,xalloc<unsigned short> >::_M_fill_insert, COMDAT
; _this$ = ecx
; ___pos$ = esi
; ___n$ = edx
; ___x$ = eax

; 167  :                                          size_type __n, const _Tp& __x) {

	push	ecx

; 168  :   if (__n != 0) {

	test	edx, edx
	je	SHORT $LN1@M_fill_ins@19
	push	edi

; 169  :     if (size_type(this->_M_end_of_storage._M_data - this->_M_finish) >= __n) {

	mov	edi, DWORD PTR [ecx+8]
	sub	edi, DWORD PTR [ecx+4]
	sar	edi, 1
	cmp	edi, edx
	jb	SHORT $LN2@M_fill_ins@19

; 170  :       _M_fill_insert_aux(__pos, __n, __x, _Movable());

	lea	edi, DWORD PTR $T389693[esp+8]
	push	edi
	push	eax
	push	edx
	push	esi
	call	?_M_fill_insert_aux@?$_Impl_vector@GV?$xalloc@G@@@priv@stlp_std@@AAEXPAGIABGABU__false_type@3@@Z ; stlp_std::priv::_Impl_vector<unsigned short,xalloc<unsigned short> >::_M_fill_insert_aux
	pop	edi

; 173  :   }
; 174  : }

	pop	ecx
	ret	0
$LN2@M_fill_ins@19:

; 171  :     } else
; 172  :       _M_insert_overflow(__pos, __x, _TrivialCopy(), __n);

	push	0
	push	edx
	push	esi
	mov	edi, ecx
	call	?_M_insert_overflow@?$_Impl_vector@GV?$xalloc@G@@@priv@stlp_std@@AAEXPAGABGABU__true_type@3@I_N@Z ; stlp_std::priv::_Impl_vector<unsigned short,xalloc<unsigned short> >::_M_insert_overflow
	pop	edi
$LN1@M_fill_ins@19:

; 173  :   }
; 174  : }

	pop	ecx
	ret	0
?_M_fill_insert@?$_Impl_vector@GV?$xalloc@G@@@priv@stlp_std@@AAEXPAGIABG@Z ENDP ; stlp_std::priv::_Impl_vector<unsigned short,xalloc<unsigned short> >::_M_fill_insert
; Function compile flags: /Ogtpy
_TEXT	ENDS
;	COMDAT ?_M_fill_insert@?$_Impl_vector@U?$_vector3@M@@V?$xalloc@U?$_vector3@M@@@@@priv@stlp_std@@AAEXPAU?$_vector3@M@@IABU4@@Z
_TEXT	SEGMENT
$T389699 = -1						; size = 1
?_M_fill_insert@?$_Impl_vector@U?$_vector3@M@@V?$xalloc@U?$_vector3@M@@@@@priv@stlp_std@@AAEXPAU?$_vector3@M@@IABU4@@Z PROC ; stlp_std::priv::_Impl_vector<_vector3<float>,xalloc<_vector3<float> > >::_M_fill_insert, COMDAT
; _this$ = ecx
; ___pos$ = ebx
; ___n$ = edi
; ___x$ = eax

; 167  :                                          size_type __n, const _Tp& __x) {

	push	ecx

; 168  :   if (__n != 0) {

	test	edi, edi
	push	esi
	mov	esi, eax
	je	SHORT $LN1@M_fill_ins@20

; 169  :     if (size_type(this->_M_end_of_storage._M_data - this->_M_finish) >= __n) {

	mov	edx, DWORD PTR [ecx+8]
	sub	edx, DWORD PTR [ecx+4]
	mov	eax, 715827883				; 2aaaaaabH
	imul	edx
	sar	edx, 1
	mov	eax, edx
	shr	eax, 31					; 0000001fH
	add	eax, edx
	cmp	eax, edi
	jb	SHORT $LN2@M_fill_ins@20

; 170  :       _M_fill_insert_aux(__pos, __n, __x, _Movable());

	lea	edx, DWORD PTR $T389699[esp+8]
	push	edx
	push	esi
	push	edi
	push	ebx
	call	?_M_fill_insert_aux@?$_Impl_vector@U?$_vector3@M@@V?$xalloc@U?$_vector3@M@@@@@priv@stlp_std@@AAEXPAU?$_vector3@M@@IABU4@ABU__false_type@3@@Z ; stlp_std::priv::_Impl_vector<_vector3<float>,xalloc<_vector3<float> > >::_M_fill_insert_aux
	pop	esi

; 173  :   }
; 174  : }

	pop	ecx
	ret	0
$LN2@M_fill_ins@20:

; 171  :     } else
; 172  :       _M_insert_overflow(__pos, __x, _TrivialCopy(), __n);

	push	edi
	mov	eax, esi
	push	ebx
	mov	esi, ecx
	call	?_M_insert_overflow@?$_Impl_vector@U?$_vector3@M@@V?$xalloc@U?$_vector3@M@@@@@priv@stlp_std@@AAEXPAU?$_vector3@M@@ABU4@ABU__true_type@3@I_N@Z ; stlp_std::priv::_Impl_vector<_vector3<float>,xalloc<_vector3<float> > >::_M_insert_overflow
$LN1@M_fill_ins@20:
	pop	esi

; 173  :   }
; 174  : }

	pop	ecx
	ret	0
?_M_fill_insert@?$_Impl_vector@U?$_vector3@M@@V?$xalloc@U?$_vector3@M@@@@@priv@stlp_std@@AAEXPAU?$_vector3@M@@IABU4@@Z ENDP ; stlp_std::priv::_Impl_vector<_vector3<float>,xalloc<_vector3<float> > >::_M_fill_insert
; Function compile flags: /Ogtpy
; File d:\clearsky\sources\sdk\include\stlport\stl\_vector.h
_TEXT	ENDS
;	COMDAT ?insert@?$_Impl_vector@MV?$xalloc@M@@@priv@stlp_std@@QAEXPAMIABM@Z
_TEXT	SEGMENT
$T389712 = -1						; size = 1
?insert@?$_Impl_vector@MV?$xalloc@M@@@priv@stlp_std@@QAEXPAMIABM@Z PROC ; stlp_std::priv::_Impl_vector<float,xalloc<float> >::insert, COMDAT
; _this$ = ecx
; ___pos$ = esi
; ___n$ = edx
; ___x$ = eax

; 529  :   { _M_fill_insert(__pos, __n, __x); }

	push	ecx
	test	edx, edx
	je	SHORT $LN3@insert@9
	push	edi
	mov	edi, DWORD PTR [ecx+8]
	sub	edi, DWORD PTR [ecx+4]
	sar	edi, 2
	cmp	edi, edx
	jb	SHORT $LN4@insert@9
	lea	edi, DWORD PTR $T389712[esp+8]
	push	edi
	push	eax
	push	edx
	push	esi
	call	?_M_fill_insert_aux@?$_Impl_vector@MV?$xalloc@M@@@priv@stlp_std@@AAEXPAMIABMABU__false_type@3@@Z ; stlp_std::priv::_Impl_vector<float,xalloc<float> >::_M_fill_insert_aux
	pop	edi
	pop	ecx
	ret	0
$LN4@insert@9:
	push	0
	push	edx
	push	esi
	mov	edi, ecx
	call	?_M_insert_overflow@?$_Impl_vector@MV?$xalloc@M@@@priv@stlp_std@@AAEXPAMABMABU__true_type@3@I_N@Z ; stlp_std::priv::_Impl_vector<float,xalloc<float> >::_M_insert_overflow
	pop	edi
$LN3@insert@9:
	pop	ecx
	ret	0
?insert@?$_Impl_vector@MV?$xalloc@M@@@priv@stlp_std@@QAEXPAMIABM@Z ENDP ; stlp_std::priv::_Impl_vector<float,xalloc<float> >::insert
; Function compile flags: /Ogtpy
_TEXT	ENDS
;	COMDAT ?insert@?$_Impl_vector@GV?$xalloc@G@@@priv@stlp_std@@QAEXPAGIABG@Z
_TEXT	SEGMENT
$T389722 = -1						; size = 1
?insert@?$_Impl_vector@GV?$xalloc@G@@@priv@stlp_std@@QAEXPAGIABG@Z PROC ; stlp_std::priv::_Impl_vector<unsigned short,xalloc<unsigned short> >::insert, COMDAT
; _this$ = ecx
; ___pos$ = esi
; ___n$ = edx
; ___x$ = eax

; 529  :   { _M_fill_insert(__pos, __n, __x); }

	push	ecx
	test	edx, edx
	je	SHORT $LN3@insert@10
	push	edi
	mov	edi, DWORD PTR [ecx+8]
	sub	edi, DWORD PTR [ecx+4]
	sar	edi, 1
	cmp	edi, edx
	jb	SHORT $LN4@insert@10
	lea	edi, DWORD PTR $T389722[esp+8]
	push	edi
	push	eax
	push	edx
	push	esi
	call	?_M_fill_insert_aux@?$_Impl_vector@GV?$xalloc@G@@@priv@stlp_std@@AAEXPAGIABGABU__false_type@3@@Z ; stlp_std::priv::_Impl_vector<unsigned short,xalloc<unsigned short> >::_M_fill_insert_aux
	pop	edi
	pop	ecx
	ret	0
$LN4@insert@10:
	push	0
	push	edx
	push	esi
	mov	edi, ecx
	call	?_M_insert_overflow@?$_Impl_vector@GV?$xalloc@G@@@priv@stlp_std@@AAEXPAGABGABU__true_type@3@I_N@Z ; stlp_std::priv::_Impl_vector<unsigned short,xalloc<unsigned short> >::_M_insert_overflow
	pop	edi
$LN3@insert@10:
	pop	ecx
	ret	0
?insert@?$_Impl_vector@GV?$xalloc@G@@@priv@stlp_std@@QAEXPAGIABG@Z ENDP ; stlp_std::priv::_Impl_vector<unsigned short,xalloc<unsigned short> >::insert
; Function compile flags: /Ogtpy
_TEXT	ENDS
;	COMDAT ?insert@?$_Impl_vector@U?$_vector3@M@@V?$xalloc@U?$_vector3@M@@@@@priv@stlp_std@@QAEXPAU?$_vector3@M@@IABU4@@Z
_TEXT	SEGMENT
$T389736 = -1						; size = 1
?insert@?$_Impl_vector@U?$_vector3@M@@V?$xalloc@U?$_vector3@M@@@@@priv@stlp_std@@QAEXPAU?$_vector3@M@@IABU4@@Z PROC ; stlp_std::priv::_Impl_vector<_vector3<float>,xalloc<_vector3<float> > >::insert, COMDAT
; _this$ = ecx
; ___pos$ = ebx
; ___n$ = edi
; ___x$ = eax

; 529  :   { _M_fill_insert(__pos, __n, __x); }

	push	ecx
	test	edi, edi
	push	esi
	mov	esi, eax
	je	SHORT $LN3@insert@11
	mov	edx, DWORD PTR [ecx+8]
	sub	edx, DWORD PTR [ecx+4]
	mov	eax, 715827883				; 2aaaaaabH
	imul	edx
	sar	edx, 1
	mov	eax, edx
	shr	eax, 31					; 0000001fH
	add	eax, edx
	cmp	eax, edi
	jb	SHORT $LN4@insert@11
	lea	edx, DWORD PTR $T389736[esp+8]
	push	edx
	push	esi
	push	edi
	push	ebx
	call	?_M_fill_insert_aux@?$_Impl_vector@U?$_vector3@M@@V?$xalloc@U?$_vector3@M@@@@@priv@stlp_std@@AAEXPAU?$_vector3@M@@IABU4@ABU__false_type@3@@Z ; stlp_std::priv::_Impl_vector<_vector3<float>,xalloc<_vector3<float> > >::_M_fill_insert_aux
	pop	esi
	pop	ecx
	ret	0
$LN4@insert@11:
	push	edi
	mov	eax, esi
	push	ebx
	mov	esi, ecx
	call	?_M_insert_overflow@?$_Impl_vector@U?$_vector3@M@@V?$xalloc@U?$_vector3@M@@@@@priv@stlp_std@@AAEXPAU?$_vector3@M@@ABU4@ABU__true_type@3@I_N@Z ; stlp_std::priv::_Impl_vector<_vector3<float>,xalloc<_vector3<float> > >::_M_insert_overflow
$LN3@insert@11:
	pop	esi
	pop	ecx
	ret	0
?insert@?$_Impl_vector@U?$_vector3@M@@V?$xalloc@U?$_vector3@M@@@@@priv@stlp_std@@QAEXPAU?$_vector3@M@@IABU4@@Z ENDP ; stlp_std::priv::_Impl_vector<_vector3<float>,xalloc<_vector3<float> > >::insert
; Function compile flags: /Ogtpy
_TEXT	ENDS
;	COMDAT ?resize@?$_Impl_vector@MV?$xalloc@M@@@priv@stlp_std@@QAEXIABM@Z
_TEXT	SEGMENT
$T389820 = -1						; size = 1
?resize@?$_Impl_vector@MV?$xalloc@M@@@priv@stlp_std@@QAEXIABM@Z PROC ; stlp_std::priv::_Impl_vector<float,xalloc<float> >::resize, COMDAT
; _this$ = edx
; ___new_size$ = ecx
; ___x$ = eax

; 596  :   void resize(size_type __new_size, const _Tp& __x = _STLP_DEFAULT_CONSTRUCTED(_Tp)) {

	push	ecx
	push	ebx
	push	esi
	push	edi
	mov	edi, edx
	mov	esi, ecx

; 597  : #else
; 598  :   void resize(size_type __new_size, const _Tp& __x) {
; 599  : #endif /*_STLP_DONT_SUP_DFLT_PARAM*/
; 600  :     if (__new_size < size())

	mov	ecx, edi
	mov	ebx, eax
	call	?size@?$_Impl_vector@MV?$xalloc@M@@@priv@stlp_std@@QBEIXZ ; stlp_std::priv::_Impl_vector<float,xalloc<float> >::size
	cmp	esi, eax

; 601  :       erase(begin() + __new_size, end());

	mov	ecx, edi
	jae	SHORT $LN2@resize@7
	push	ebp
	call	?end@?$_Impl_vector@MV?$xalloc@M@@@priv@stlp_std@@QAEPAMXZ ; stlp_std::priv::_Impl_vector<float,xalloc<float> >::end
	mov	ecx, edi
	mov	ebp, eax
	call	?begin@?$_Impl_vector@MV?$xalloc@M@@@priv@stlp_std@@QAEPAMXZ ; stlp_std::priv::_Impl_vector<float,xalloc<float> >::begin
	lea	esi, DWORD PTR [eax+esi*4]
	cmp	esi, ebp
	je	SHORT $LN39@resize@7
	mov	ebx, DWORD PTR [edi+4]
	sub	ebx, ebp
	je	SHORT $LN20@resize@7
	push	ebx
	push	ebp
	push	esi
	call	DWORD PTR __imp__memmove
	mov	esi, eax
	add	esp, 12					; 0000000cH
	add	esi, ebx
$LN20@resize@7:
	mov	eax, DWORD PTR [edi+4]
	push	eax
	push	esi
	call	??$_Destroy_Range@PAM@stlp_std@@YAXPAM0@Z ; stlp_std::_Destroy_Range<float *>
	add	esp, 8
	mov	DWORD PTR [edi+4], esi
$LN39@resize@7:
	pop	ebp

; 602  :     else
; 603  :       insert(end(), __new_size - size(), __x);

$LN34@resize@7:
	pop	edi
	pop	esi
	pop	ebx

; 604  :   }

	pop	ecx
	ret	0
$LN2@resize@7:

; 602  :     else
; 603  :       insert(end(), __new_size - size(), __x);

	call	?size@?$_Impl_vector@MV?$xalloc@M@@@priv@stlp_std@@QBEIXZ ; stlp_std::priv::_Impl_vector<float,xalloc<float> >::size
	mov	ecx, edi
	sub	esi, eax
	call	?end@?$_Impl_vector@MV?$xalloc@M@@@priv@stlp_std@@QAEPAMXZ ; stlp_std::priv::_Impl_vector<float,xalloc<float> >::end
	test	esi, esi
	je	SHORT $LN34@resize@7
	mov	ecx, DWORD PTR [edi+8]
	sub	ecx, DWORD PTR [edi+4]
	sar	ecx, 2
	cmp	ecx, esi
	jb	SHORT $LN35@resize@7
	lea	edx, DWORD PTR $T389820[esp+16]
	push	edx
	push	ebx
	push	esi
	push	eax
	mov	ecx, edi
	call	?_M_fill_insert_aux@?$_Impl_vector@MV?$xalloc@M@@@priv@stlp_std@@AAEXPAMIABMABU__false_type@3@@Z ; stlp_std::priv::_Impl_vector<float,xalloc<float> >::_M_fill_insert_aux
	pop	edi
	pop	esi
	pop	ebx

; 604  :   }

	pop	ecx
	ret	0

; 602  :     else
; 603  :       insert(end(), __new_size - size(), __x);

$LN35@resize@7:
	push	0
	push	esi
	push	eax
	mov	eax, ebx
	call	?_M_insert_overflow@?$_Impl_vector@MV?$xalloc@M@@@priv@stlp_std@@AAEXPAMABMABU__true_type@3@I_N@Z ; stlp_std::priv::_Impl_vector<float,xalloc<float> >::_M_insert_overflow
	pop	edi
	pop	esi
	pop	ebx

; 604  :   }

	pop	ecx
	ret	0
?resize@?$_Impl_vector@MV?$xalloc@M@@@priv@stlp_std@@QAEXIABM@Z ENDP ; stlp_std::priv::_Impl_vector<float,xalloc<float> >::resize
; Function compile flags: /Ogtpy
_TEXT	ENDS
;	COMDAT ?resize@?$_Impl_vector@GV?$xalloc@G@@@priv@stlp_std@@QAEXIABG@Z
_TEXT	SEGMENT
$T389900 = -1						; size = 1
?resize@?$_Impl_vector@GV?$xalloc@G@@@priv@stlp_std@@QAEXIABG@Z PROC ; stlp_std::priv::_Impl_vector<unsigned short,xalloc<unsigned short> >::resize, COMDAT
; _this$ = edx
; ___new_size$ = ecx
; ___x$ = eax

; 596  :   void resize(size_type __new_size, const _Tp& __x = _STLP_DEFAULT_CONSTRUCTED(_Tp)) {

	push	ecx
	push	ebx
	push	esi
	push	edi
	mov	edi, edx
	mov	esi, ecx

; 597  : #else
; 598  :   void resize(size_type __new_size, const _Tp& __x) {
; 599  : #endif /*_STLP_DONT_SUP_DFLT_PARAM*/
; 600  :     if (__new_size < size())

	mov	ecx, edi
	mov	ebx, eax
	call	?size@?$_Impl_vector@GV?$xalloc@G@@@priv@stlp_std@@QBEIXZ ; stlp_std::priv::_Impl_vector<unsigned short,xalloc<unsigned short> >::size
	cmp	esi, eax

; 601  :       erase(begin() + __new_size, end());

	mov	ecx, edi
	jae	SHORT $LN2@resize@8
	push	ebp
	call	?end@?$_Impl_vector@GV?$xalloc@G@@@priv@stlp_std@@QAEPAGXZ ; stlp_std::priv::_Impl_vector<unsigned short,xalloc<unsigned short> >::end
	mov	ecx, edi
	mov	ebp, eax
	call	?begin@?$_Impl_vector@GV?$xalloc@G@@@priv@stlp_std@@QAEPAGXZ ; stlp_std::priv::_Impl_vector<unsigned short,xalloc<unsigned short> >::begin
	lea	esi, DWORD PTR [eax+esi*2]
	cmp	esi, ebp
	je	SHORT $LN39@resize@8
	mov	ebx, DWORD PTR [edi+4]
	sub	ebx, ebp
	je	SHORT $LN20@resize@8
	push	ebx
	push	ebp
	push	esi
	call	DWORD PTR __imp__memmove
	mov	esi, eax
	add	esp, 12					; 0000000cH
	add	esi, ebx
$LN20@resize@8:
	mov	eax, DWORD PTR [edi+4]
	push	eax
	push	esi
	call	??$_Destroy_Range@PAG@stlp_std@@YAXPAG0@Z ; stlp_std::_Destroy_Range<unsigned short *>
	add	esp, 8
	mov	DWORD PTR [edi+4], esi
$LN39@resize@8:
	pop	ebp

; 602  :     else
; 603  :       insert(end(), __new_size - size(), __x);

$LN34@resize@8:
	pop	edi
	pop	esi
	pop	ebx

; 604  :   }

	pop	ecx
	ret	0
$LN2@resize@8:

; 602  :     else
; 603  :       insert(end(), __new_size - size(), __x);

	call	?size@?$_Impl_vector@GV?$xalloc@G@@@priv@stlp_std@@QBEIXZ ; stlp_std::priv::_Impl_vector<unsigned short,xalloc<unsigned short> >::size
	mov	ecx, edi
	sub	esi, eax
	call	?end@?$_Impl_vector@GV?$xalloc@G@@@priv@stlp_std@@QAEPAGXZ ; stlp_std::priv::_Impl_vector<unsigned short,xalloc<unsigned short> >::end
	test	esi, esi
	je	SHORT $LN34@resize@8
	mov	ecx, DWORD PTR [edi+8]
	sub	ecx, DWORD PTR [edi+4]
	sar	ecx, 1
	cmp	ecx, esi
	jb	SHORT $LN35@resize@8
	lea	edx, DWORD PTR $T389900[esp+16]
	push	edx
	push	ebx
	push	esi
	push	eax
	mov	ecx, edi
	call	?_M_fill_insert_aux@?$_Impl_vector@GV?$xalloc@G@@@priv@stlp_std@@AAEXPAGIABGABU__false_type@3@@Z ; stlp_std::priv::_Impl_vector<unsigned short,xalloc<unsigned short> >::_M_fill_insert_aux
	pop	edi
	pop	esi
	pop	ebx

; 604  :   }

	pop	ecx
	ret	0

; 602  :     else
; 603  :       insert(end(), __new_size - size(), __x);

$LN35@resize@8:
	push	0
	push	esi
	push	eax
	mov	eax, ebx
	call	?_M_insert_overflow@?$_Impl_vector@GV?$xalloc@G@@@priv@stlp_std@@AAEXPAGABGABU__true_type@3@I_N@Z ; stlp_std::priv::_Impl_vector<unsigned short,xalloc<unsigned short> >::_M_insert_overflow
	pop	edi
	pop	esi
	pop	ebx

; 604  :   }

	pop	ecx
	ret	0
?resize@?$_Impl_vector@GV?$xalloc@G@@@priv@stlp_std@@QAEXIABG@Z ENDP ; stlp_std::priv::_Impl_vector<unsigned short,xalloc<unsigned short> >::resize
; Function compile flags: /Ogtpy
_TEXT	ENDS
;	COMDAT ?resize@?$_Impl_vector@U?$_vector3@M@@V?$xalloc@U?$_vector3@M@@@@@priv@stlp_std@@QAEXIABU?$_vector3@M@@@Z
_TEXT	SEGMENT
$T390004 = 8						; size = 1
___x$ = 8						; size = 4
?resize@?$_Impl_vector@U?$_vector3@M@@V?$xalloc@U?$_vector3@M@@@@@priv@stlp_std@@QAEXIABU?$_vector3@M@@@Z PROC ; stlp_std::priv::_Impl_vector<_vector3<float>,xalloc<_vector3<float> > >::resize, COMDAT
; _this$ = ecx
; ___new_size$ = eax

; 596  :   void resize(size_type __new_size, const _Tp& __x = _STLP_DEFAULT_CONSTRUCTED(_Tp)) {

	push	ebx
	push	ebp
	mov	ebp, DWORD PTR ___x$[esp+4]
	push	esi
	mov	esi, ecx

; 597  : #else
; 598  :   void resize(size_type __new_size, const _Tp& __x) {
; 599  : #endif /*_STLP_DONT_SUP_DFLT_PARAM*/
; 600  :     if (__new_size < size())

	mov	ecx, DWORD PTR [esi+4]
	mov	ebx, DWORD PTR [esi]
	push	edi
	mov	edi, eax
	mov	edx, ecx
	sub	edx, ebx
	mov	eax, 715827883				; 2aaaaaabH
	imul	edx
	sar	edx, 1
	mov	eax, edx
	shr	eax, 31					; 0000001fH
	add	eax, edx
	cmp	edi, eax
	jae	SHORT $LN2@resize@9

; 601  :       erase(begin() + __new_size, end());

	lea	eax, DWORD PTR [edi+edi*2]
	lea	edi, DWORD PTR [ebx+eax*4]
	cmp	edi, ecx
	je	SHORT $LN34@resize@9
	mov	ebx, ecx
	sub	ebx, ecx
	je	SHORT $LN20@resize@9
	push	ebx
	push	ecx
	push	edi
	call	DWORD PTR __imp__memmove
	mov	edi, eax
	add	esp, 12					; 0000000cH
	add	edi, ebx
$LN20@resize@9:
	mov	ecx, DWORD PTR [esi+4]
	push	0
	push	ecx
	push	edi
	call	??$__destroy_range@PAU?$_vector3@M@@U1@@stlp_std@@YAXPAU?$_vector3@M@@00@Z ; stlp_std::__destroy_range<_vector3<float> *,_vector3<float> >
	add	esp, 12					; 0000000cH
	mov	DWORD PTR [esi+4], edi
	pop	edi
	pop	esi
	pop	ebp
	pop	ebx

; 604  :   }

	ret	4
$LN2@resize@9:

; 602  :     else
; 603  :       insert(end(), __new_size - size(), __x);

	sub	edi, eax
	je	SHORT $LN34@resize@9
	mov	edx, DWORD PTR [esi+8]
	sub	edx, ecx
	mov	eax, 715827883				; 2aaaaaabH
	imul	edx
	sar	edx, 1
	mov	eax, edx
	shr	eax, 31					; 0000001fH
	add	eax, edx
	cmp	eax, edi
	jb	SHORT $LN35@resize@9
	lea	edx, DWORD PTR $T390004[esp+12]
	push	edx
	push	ebp
	push	edi
	push	ecx
	mov	ecx, esi
	call	?_M_fill_insert_aux@?$_Impl_vector@U?$_vector3@M@@V?$xalloc@U?$_vector3@M@@@@@priv@stlp_std@@AAEXPAU?$_vector3@M@@IABU4@ABU__false_type@3@@Z ; stlp_std::priv::_Impl_vector<_vector3<float>,xalloc<_vector3<float> > >::_M_fill_insert_aux
	pop	edi
	pop	esi
	pop	ebp
	pop	ebx

; 604  :   }

	ret	4

; 602  :     else
; 603  :       insert(end(), __new_size - size(), __x);

$LN35@resize@9:
	push	edi
	push	ecx
	mov	eax, ebp
	call	?_M_insert_overflow@?$_Impl_vector@U?$_vector3@M@@V?$xalloc@U?$_vector3@M@@@@@priv@stlp_std@@AAEXPAU?$_vector3@M@@ABU4@ABU__true_type@3@I_N@Z ; stlp_std::priv::_Impl_vector<_vector3<float>,xalloc<_vector3<float> > >::_M_insert_overflow
$LN34@resize@9:
	pop	edi
	pop	esi
	pop	ebp
	pop	ebx

; 604  :   }

	ret	4
?resize@?$_Impl_vector@U?$_vector3@M@@V?$xalloc@U?$_vector3@M@@@@@priv@stlp_std@@QAEXIABU?$_vector3@M@@@Z ENDP ; stlp_std::priv::_Impl_vector<_vector3<float>,xalloc<_vector3<float> > >::resize
; Function compile flags: /Ogtpy
; File d:\clearsky\sources\sdk\include\stlport\stl\pointers\_vector.h
_TEXT	ENDS
;	COMDAT ??4?$vector@PAUSThunderboltCollection@@V?$xalloc@PAUSThunderboltCollection@@@@@stlp_std@@QAEAAV01@ABV01@@Z
_TEXT	SEGMENT
??4?$vector@PAUSThunderboltCollection@@V?$xalloc@PAUSThunderboltCollection@@@@@stlp_std@@QAEAAV01@ABV01@@Z PROC ; stlp_std::vector<SThunderboltCollection *,xalloc<SThunderboltCollection *> >::operator=, COMDAT
; _this$ = ecx
; ___x$ = eax

; 149  :   _Self& operator=(const _Self& __x) { _M_impl = __x._M_impl; return *this; }

	push	ebx
	mov	ebx, ecx
	push	eax
	call	??4?$_Impl_vector@PAXV?$xalloc@PAX@@@priv@stlp_std@@QAEAAV012@ABV012@@Z ; stlp_std::priv::_Impl_vector<void *,xalloc<void *> >::operator=
	mov	eax, ebx
	pop	ebx
	ret	0
??4?$vector@PAUSThunderboltCollection@@V?$xalloc@PAUSThunderboltCollection@@@@@stlp_std@@QAEAAV01@ABV01@@Z ENDP ; stlp_std::vector<SThunderboltCollection *,xalloc<SThunderboltCollection *> >::operator=
; Function compile flags: /Ogtpy
_TEXT	ENDS
;	COMDAT ??0?$vector@PAUSThunderboltCollection@@V?$xalloc@PAUSThunderboltCollection@@@@@stlp_std@@QAE@ABV01@@Z
_TEXT	SEGMENT
??0?$vector@PAUSThunderboltCollection@@V?$xalloc@PAUSThunderboltCollection@@@@@stlp_std@@QAE@ABV01@@Z PROC ; stlp_std::vector<SThunderboltCollection *,xalloc<SThunderboltCollection *> >::vector<SThunderboltCollection *,xalloc<SThunderboltCollection *> >, COMDAT
; _this$ = esi
; ___x$ = eax

; 123  :   vector(const _Self& __x)

	push	eax
	mov	ecx, esi
	call	??0?$_Impl_vector@PAXV?$xalloc@PAX@@@priv@stlp_std@@QAE@ABV012@@Z ; stlp_std::priv::_Impl_vector<void *,xalloc<void *> >::_Impl_vector<void *,xalloc<void *> >
	mov	eax, esi
	ret	0
??0?$vector@PAUSThunderboltCollection@@V?$xalloc@PAUSThunderboltCollection@@@@@stlp_std@@QAE@ABV01@@Z ENDP ; stlp_std::vector<SThunderboltCollection *,xalloc<SThunderboltCollection *> >::vector<SThunderboltCollection *,xalloc<SThunderboltCollection *> >
; Function compile flags: /Ogtpy
_TEXT	ENDS
;	COMDAT ??4?$vector@PAVCLensFlareDescriptor@@V?$xalloc@PAVCLensFlareDescriptor@@@@@stlp_std@@QAEAAV01@ABV01@@Z
_TEXT	SEGMENT
??4?$vector@PAVCLensFlareDescriptor@@V?$xalloc@PAVCLensFlareDescriptor@@@@@stlp_std@@QAEAAV01@ABV01@@Z PROC ; stlp_std::vector<CLensFlareDescriptor *,xalloc<CLensFlareDescriptor *> >::operator=, COMDAT
; _this$ = ecx
; ___x$ = eax

; 149  :   _Self& operator=(const _Self& __x) { _M_impl = __x._M_impl; return *this; }

	push	ebx
	mov	ebx, ecx
	push	eax
	call	??4?$_Impl_vector@PAXV?$xalloc@PAX@@@priv@stlp_std@@QAEAAV012@ABV012@@Z ; stlp_std::priv::_Impl_vector<void *,xalloc<void *> >::operator=
	mov	eax, ebx
	pop	ebx
	ret	0
??4?$vector@PAVCLensFlareDescriptor@@V?$xalloc@PAVCLensFlareDescriptor@@@@@stlp_std@@QAEAAV01@ABV01@@Z ENDP ; stlp_std::vector<CLensFlareDescriptor *,xalloc<CLensFlareDescriptor *> >::operator=
; Function compile flags: /Ogtpy
_TEXT	ENDS
;	COMDAT ??0?$vector@PAVCLensFlareDescriptor@@V?$xalloc@PAVCLensFlareDescriptor@@@@@stlp_std@@QAE@ABV01@@Z
_TEXT	SEGMENT
??0?$vector@PAVCLensFlareDescriptor@@V?$xalloc@PAVCLensFlareDescriptor@@@@@stlp_std@@QAE@ABV01@@Z PROC ; stlp_std::vector<CLensFlareDescriptor *,xalloc<CLensFlareDescriptor *> >::vector<CLensFlareDescriptor *,xalloc<CLensFlareDescriptor *> >, COMDAT
; _this$ = esi
; ___x$ = eax

; 123  :   vector(const _Self& __x)

	push	eax
	mov	ecx, esi
	call	??0?$_Impl_vector@PAXV?$xalloc@PAX@@@priv@stlp_std@@QAE@ABV012@@Z ; stlp_std::priv::_Impl_vector<void *,xalloc<void *> >::_Impl_vector<void *,xalloc<void *> >
	mov	eax, esi
	ret	0
??0?$vector@PAVCLensFlareDescriptor@@V?$xalloc@PAVCLensFlareDescriptor@@@@@stlp_std@@QAE@ABV01@@Z ENDP ; stlp_std::vector<CLensFlareDescriptor *,xalloc<CLensFlareDescriptor *> >::vector<CLensFlareDescriptor *,xalloc<CLensFlareDescriptor *> >
; Function compile flags: /Ogtpy
; File d:\clearsky\sources\sdk\include\stlport\stl\_vector.h
_TEXT	ENDS
;	COMDAT ??1?$_Impl_vector@USFlare@CLensFlareDescriptor@@V?$xalloc@USFlare@CLensFlareDescriptor@@@@@priv@stlp_std@@QAE@XZ
_TEXT	SEGMENT
??1?$_Impl_vector@USFlare@CLensFlareDescriptor@@V?$xalloc@USFlare@CLensFlareDescriptor@@@@@priv@stlp_std@@QAE@XZ PROC ; stlp_std::priv::_Impl_vector<CLensFlareDescriptor::SFlare,xalloc<CLensFlareDescriptor::SFlare> >::~_Impl_vector<CLensFlareDescriptor::SFlare,xalloc<CLensFlareDescriptor::SFlare> >, COMDAT
; _this$ = eax

; 286  :   ~vector() { _STLP_STD::_Destroy_Range(rbegin(), rend()); }

	push	esi
	mov	esi, eax
	mov	ecx, DWORD PTR [esi+4]
	mov	eax, DWORD PTR [esi]
	push	ecx
	mov	edx, esp
	mov	DWORD PTR [edx], eax
	push	ecx
	mov	eax, esp
	mov	DWORD PTR [eax], ecx
	call	??$__destroy_range_aux@V?$reverse_iterator@PAUSFlare@CLensFlareDescriptor@@@stlp_std@@USFlare@CLensFlareDescriptor@@@stlp_std@@YAXV?$reverse_iterator@PAUSFlare@CLensFlareDescriptor@@@0@0PAUSFlare@CLensFlareDescriptor@@ABU__false_type@0@@Z ; stlp_std::__destroy_range_aux<stlp_std::reverse_iterator<CLensFlareDescriptor::SFlare *>,CLensFlareDescriptor::SFlare>
	mov	esi, DWORD PTR [esi]
	add	esp, 8
	test	esi, esi
	je	SHORT $LN32@Impl_vecto@46
	mov	ecx, DWORD PTR __imp_?Memory@@3VxrMemory@@A
	push	esi
	call	DWORD PTR __imp_?mem_free@xrMemory@@QAEXPAX@Z
$LN32@Impl_vecto@46:
	pop	esi
	ret	0
??1?$_Impl_vector@USFlare@CLensFlareDescriptor@@V?$xalloc@USFlare@CLensFlareDescriptor@@@@@priv@stlp_std@@QAE@XZ ENDP ; stlp_std::priv::_Impl_vector<CLensFlareDescriptor::SFlare,xalloc<CLensFlareDescriptor::SFlare> >::~_Impl_vector<CLensFlareDescriptor::SFlare,xalloc<CLensFlareDescriptor::SFlare> >
; Function compile flags: /Ogtpy
; File d:\clearsky\sources\engine\xrcore\_stl_extensions.h
_TEXT	ENDS
;	COMDAT ??0?$xr_vector@PAVCEnvAmbient@@V?$xalloc@PAVCEnvAmbient@@@@@@QAE@XZ
_TEXT	SEGMENT
??0?$xr_vector@PAVCEnvAmbient@@V?$xalloc@PAVCEnvAmbient@@@@@@QAE@XZ PROC ; xr_vector<CEnvAmbient *,xalloc<CEnvAmbient *> >::xr_vector<CEnvAmbient *,xalloc<CEnvAmbient *> >, COMDAT
; _this$ = eax

; 123  : 			xr_vector			()									: inherited	()					{}

	xor	ecx, ecx
	mov	DWORD PTR [eax], ecx
	mov	DWORD PTR [eax+4], ecx
	mov	DWORD PTR [eax+8], ecx
	ret	0
??0?$xr_vector@PAVCEnvAmbient@@V?$xalloc@PAVCEnvAmbient@@@@@@QAE@XZ ENDP ; xr_vector<CEnvAmbient *,xalloc<CEnvAmbient *> >::xr_vector<CEnvAmbient *,xalloc<CEnvAmbient *> >
; Function compile flags: /Ogtpy
; File d:\clearsky\sources\sdk\include\stlport\stl\pointers\_vector.h
_TEXT	ENDS
;	COMDAT ?resize@?$vector@MV?$xalloc@M@@@stlp_std@@QAEXIABM@Z
_TEXT	SEGMENT
?resize@?$vector@MV?$xalloc@M@@@stlp_std@@QAEXIABM@Z PROC ; stlp_std::vector<float,xalloc<float> >::resize, COMDAT
; _this$ = edx
; ___new_size$ = ecx
; ___x$ = eax

; 217  :   { _M_impl.resize(__new_size, cast_traits::to_storage_type_cref(__x)); }

	jmp	?resize@?$_Impl_vector@MV?$xalloc@M@@@priv@stlp_std@@QAEXIABM@Z ; stlp_std::priv::_Impl_vector<float,xalloc<float> >::resize
?resize@?$vector@MV?$xalloc@M@@@stlp_std@@QAEXIABM@Z ENDP ; stlp_std::vector<float,xalloc<float> >::resize
; Function compile flags: /Ogtpy
_TEXT	ENDS
;	COMDAT ?resize@?$vector@GV?$xalloc@G@@@stlp_std@@QAEXIABG@Z
_TEXT	SEGMENT
?resize@?$vector@GV?$xalloc@G@@@stlp_std@@QAEXIABG@Z PROC ; stlp_std::vector<unsigned short,xalloc<unsigned short> >::resize, COMDAT
; _this$ = edx
; ___new_size$ = ecx
; ___x$ = eax

; 217  :   { _M_impl.resize(__new_size, cast_traits::to_storage_type_cref(__x)); }

	jmp	?resize@?$_Impl_vector@GV?$xalloc@G@@@priv@stlp_std@@QAEXIABG@Z ; stlp_std::priv::_Impl_vector<unsigned short,xalloc<unsigned short> >::resize
?resize@?$vector@GV?$xalloc@G@@@stlp_std@@QAEXIABG@Z ENDP ; stlp_std::vector<unsigned short,xalloc<unsigned short> >::resize
; Function compile flags: /Ogtpy
_TEXT	ENDS
;	COMDAT ?resize@?$vector@U?$_vector3@M@@V?$xalloc@U?$_vector3@M@@@@@stlp_std@@QAEXIABU?$_vector3@M@@@Z
_TEXT	SEGMENT
___new_size$ = 8					; size = 4
?resize@?$vector@U?$_vector3@M@@V?$xalloc@U?$_vector3@M@@@@@stlp_std@@QAEXIABU?$_vector3@M@@@Z PROC ; stlp_std::vector<_vector3<float>,xalloc<_vector3<float> > >::resize, COMDAT
; _this$ = ecx
; ___x$ = eax

; 217  :   { _M_impl.resize(__new_size, cast_traits::to_storage_type_cref(__x)); }

	push	eax
	mov	eax, DWORD PTR ___new_size$[esp]
	call	?resize@?$_Impl_vector@U?$_vector3@M@@V?$xalloc@U?$_vector3@M@@@@@priv@stlp_std@@QAEXIABU?$_vector3@M@@@Z ; stlp_std::priv::_Impl_vector<_vector3<float>,xalloc<_vector3<float> > >::resize
	ret	4
?resize@?$vector@U?$_vector3@M@@V?$xalloc@U?$_vector3@M@@@@@stlp_std@@QAEXIABU?$_vector3@M@@@Z ENDP ; stlp_std::vector<_vector3<float>,xalloc<_vector3<float> > >::resize
_TEXT	ENDS
PUBLIC	?SetWeather@CEnvironment@@QAEXVshared_str@@_N@Z	; CEnvironment::SetWeather
; Function compile flags: /Ogtpy
; File d:\clearsky\sources\engine\xrengine\environment.cpp
;	COMDAT ?SetWeather@CEnvironment@@QAEXVshared_str@@_N@Z
_TEXT	SEGMENT
_name$ = 8						; size = 4
_forced$ = 12						; size = 1
?SetWeather@CEnvironment@@QAEXVshared_str@@_N@Z PROC	; CEnvironment::SetWeather, COMDAT
; _this$ = ecx

; 277  : {

	push	ebx
	push	ebp

; 278  : //.	static BOOL bAlready = FALSE;
; 279  : //.	if(bAlready)	return;
; 280  : 	if (name.size())	{

	mov	ebp, DWORD PTR _name$[esp+4]
	test	ebp, ebp
	push	esi
	push	edi
	mov	esi, ecx
	je	$LN10@SetWeather
	cmp	DWORD PTR [ebp+4], 0
	je	$LN10@SetWeather

; 281  : //.		bAlready = TRUE;
; 282  :         EnvsMapIt it		= WeatherCycles.find(name);

	lea	edi, DWORD PTR [esi+160]
	push	edi
	lea	ebx, DWORD PTR _name$[esp+16]
	call	??$_M_find@Vshared_str@@@?$_Rb_tree@Vshared_str@@Ustr_pred@CEnvironment@@U?$pair@$$CBVshared_str@@V?$xr_vector@PAVCEnvDescriptor@@V?$xalloc@PAVCEnvDescriptor@@@@@@@stlp_std@@U?$_Select1st@U?$pair@$$CBVshared_str@@V?$xr_vector@PAVCEnvDescriptor@@V?$xalloc@PAVCEnvDescriptor@@@@@@@stlp_std@@@priv@5@U?$_MapTraitsT@U?$pair@$$CBVshared_str@@V?$xr_vector@PAVCEnvDescriptor@@V?$xalloc@PAVCEnvDescriptor@@@@@@@stlp_std@@@75@V?$xalloc@U?$pair@Vshared_str@@V?$xr_vector@PAVCEnvDescriptor@@V?$xalloc@PAVCEnvDescriptor@@@@@@@stlp_std@@@@@priv@stlp_std@@ABEPAU_Rb_tree_node_base@12@ABVshared_str@@@Z ; stlp_std::priv::_Rb_tree<shared_str,CEnvironment::str_pred,stlp_std::pair<shared_str const ,xr_vector<CEnvDescriptor *,xalloc<CEnvDescriptor *> > >,stlp_std::priv::_Select1st<stlp_std::pair<shared_str const ,xr_vector<CEnvDescriptor *,xalloc<CEnvDescriptor *> > > >,stlp_std::priv::_MapTraitsT<stlp_std::pair<shared_str const ,xr_vector<CEnvDescriptor *,xalloc<CEnvDescriptor *> > > >,xalloc<stlp_std::pair<shared_str,xr_vector<CEnvDescriptor *,xalloc<CEnvDescriptor *> > > > >::_M_find<shared_str>
	mov	ebx, eax

; 283  : 		if (it == WeatherCycles.end())

	cmp	ebx, edi
	jne	SHORT $LN8@SetWeather

; 284  : 		{
; 285  : 			Msg("! Invalid weather name: %s", name.c_str());

	lea	eax, DWORD PTR [ebp+16]
	push	eax
	push	OFFSET ??_C@_0BL@JLFBJDAD@?$CB?5Invalid?5weather?5name?3?5?$CFs?$AA@
	call	DWORD PTR __imp_?Msg@@YAXPBDZZ
	add	esp, 8

; 302  : #endif
; 303  :     }
; 304  : }

	add	DWORD PTR [ebp], -1
	pop	edi
	pop	esi
	pop	ebp
	pop	ebx
	ret	8
$LN8@SetWeather:

; 286  : 			return;
; 287  : 		}
; 288  :         R_ASSERT3			(it!=WeatherCycles.end(),"Invalid weather name.",*name);

	cmp	BYTE PTR ?ignore_always@?9??SetWeather@CEnvironment@@QAEXVshared_str@@_N@Z@4_NA, 0
	jne	SHORT $LN7@SetWeather
	cmp	ebx, edi
	jne	SHORT $LN7@SetWeather
	push	OFFSET ?ignore_always@?9??SetWeather@CEnvironment@@QAEXVshared_str@@_N@Z@4_NA
	push	OFFSET ??_C@_0BJ@NEEPJKH@CEnvironment?3?3SetWeather?$AA@
	push	288					; 00000120H
	push	OFFSET ??_C@_0DE@KEBEOAOH@D?3?2CLEARSKY?2sources?2engine?2xrEng@
	lea	ecx, DWORD PTR [ebp+16]
	push	ecx
	mov	ecx, DWORD PTR __imp_?Debug@@3VxrDebug@@A
	push	OFFSET ??_C@_0BG@HGMLELDB@Invalid?5weather?5name?4?$AA@
	push	OFFSET ??_C@_0BI@NMGDFLEF@it?$CB?$DNWeatherCycles?4end?$CI?$CJ?$AA@
	call	DWORD PTR __imp_?fail@xrDebug@@QAEXPBD000H0AA_N@Z
$LN7@SetWeather:

; 289  : 		CurrentCycleName	= it->first;

	mov	ecx, DWORD PTR [ebx+16]
	xor	edi, edi
	cmp	ecx, edi
	je	SHORT $LN73@SetWeather
	add	DWORD PTR [ecx], 1
$LN73@SetWeather:
	mov	eax, DWORD PTR [esi+156]
	cmp	eax, edi
	je	SHORT $LN76@SetWeather
	add	DWORD PTR [eax], -1
	mov	edx, DWORD PTR [esi+156]
	cmp	DWORD PTR [edx], edi
	jne	SHORT $LN76@SetWeather
	mov	DWORD PTR [esi+156], edi
$LN76@SetWeather:

; 290  : 		if (forced)			{Invalidate();			}

	mov	dl, BYTE PTR _forced$[esp+12]
	test	dl, dl
	mov	DWORD PTR [esi+156], ecx
	je	SHORT $LN83@SetWeather
	mov	eax, DWORD PTR [esi+236]
	cmp	eax, edi
	mov	BYTE PTR [esi+132], 0
	mov	DWORD PTR [esi+124], edi
	mov	DWORD PTR [esi+128], edi
	je	SHORT $LN83@SetWeather
	mov	DWORD PTR [eax+492], edi
$LN83@SetWeather:

; 291  : 		if (!bWFX){

	cmp	BYTE PTR [esi+132], 0
	jne	SHORT $LN110@SetWeather

; 292  : 			CurrentWeather		= &it->second;

	lea	eax, DWORD PTR [ebx+20]
	mov	DWORD PTR [esi+148], eax

; 293  : 			CurrentWeatherName	= it->first;

	mov	ecx, DWORD PTR [ebx+16]
	cmp	ecx, edi
	je	SHORT $LN95@SetWeather
	add	DWORD PTR [ecx], 1
$LN95@SetWeather:
	mov	eax, DWORD PTR [esi+152]
	cmp	eax, edi
	je	SHORT $LN109@SetWeather
	add	DWORD PTR [eax], -1
	mov	eax, DWORD PTR [esi+152]
	cmp	DWORD PTR [eax], edi
	jne	SHORT $LN109@SetWeather
	mov	DWORD PTR [esi+152], edi
$LN109@SetWeather:
	mov	DWORD PTR [esi+152], ecx
$LN110@SetWeather:

; 294  : 		}
; 295  : 		if (forced)			{SelectEnvs(fGameTime);	}

	test	dl, dl
	je	SHORT $LN108@SetWeather
	fld	DWORD PTR [esi+28]
	push	ecx
	mov	ecx, esi
	fstp	DWORD PTR [esp]
	call	?SelectEnvs@CEnvironment@@QAEXM@Z	; CEnvironment::SelectEnvs

; 296  : #ifdef WEATHER_LOGGING
; 297  : 		Msg					("Starting Cycle: %s [%s]",*name,forced?"forced":"deferred");
; 298  : #endif
; 299  :     }else{

	jmp	SHORT $LN108@SetWeather
$LN10@SetWeather:

; 300  : #ifndef _EDITOR
; 301  : 		FATAL				("! Empty weather name");

	mov	ecx, DWORD PTR __imp_?Debug@@3VxrDebug@@A
	push	OFFSET ??_C@_0BF@POCGPELE@?$CB?5Empty?5weather?5name?$AA@
	push	OFFSET ??_C@_0BJ@NEEPJKH@CEnvironment?3?3SetWeather?$AA@
	push	301					; 0000012dH
	push	OFFSET ??_C@_0DE@KEBEOAOH@D?3?2CLEARSKY?2sources?2engine?2xrEng@
	push	ecx
	call	DWORD PTR __imp_?fatal@xrDebug@@QAAXPBDH00ZZ
	add	esp, 20					; 00000014H
$LN108@SetWeather:

; 302  : #endif
; 303  :     }
; 304  : }

	test	ebp, ebp
	je	SHORT $LN104@SetWeather
	add	DWORD PTR [ebp], -1
$LN104@SetWeather:
	pop	edi
	pop	esi
	pop	ebp
	pop	ebx
	ret	8
?SetWeather@CEnvironment@@QAEXVshared_str@@_N@Z ENDP	; CEnvironment::SetWeather
_TEXT	ENDS
PUBLIC	??0CPerlinNoise3D@@QAE@ABV0@@Z			; CPerlinNoise3D::CPerlinNoise3D
; Function compile flags: /Ogtpy
;	COMDAT ??0CPerlinNoise3D@@QAE@ABV0@@Z
_TEXT	SEGMENT
___that$ = 8						; size = 4
??0CPerlinNoise3D@@QAE@ABV0@@Z PROC			; CPerlinNoise3D::CPerlinNoise3D, COMDAT
; _this$ = ecx
	push	esi
	push	edi
	mov	edi, DWORD PTR ___that$[esp+4]
	push	edi
	mov	esi, ecx
	call	??0CPerlinNoiseCustom@@QAE@ABV0@@Z
	push	6168					; 00001818H
	add	edi, 2088				; 00000828H
	lea	eax, DWORD PTR [esi+2088]
	push	edi
	push	eax
	call	_memcpy
	add	esp, 12					; 0000000cH
	pop	edi
	mov	eax, esi
	pop	esi
	ret	4
??0CPerlinNoise3D@@QAE@ABV0@@Z ENDP			; CPerlinNoise3D::CPerlinNoise3D
_TEXT	ENDS
PUBLIC	??1CPerlinNoise3D@@QAE@XZ			; CPerlinNoise3D::~CPerlinNoise3D
; Function compile flags: /Ogtpy
;	COMDAT ??1CPerlinNoise3D@@QAE@XZ
_TEXT	SEGMENT
??1CPerlinNoise3D@@QAE@XZ PROC				; CPerlinNoise3D::~CPerlinNoise3D, COMDAT
; _this$ = ecx
	add	ecx, 2076				; 0000081cH
	jmp	??1?$_Impl_vector@MV?$xalloc@M@@@priv@stlp_std@@QAE@XZ ; stlp_std::priv::_Impl_vector<float,xalloc<float> >::~_Impl_vector<float,xalloc<float> >
??1CPerlinNoise3D@@QAE@XZ ENDP				; CPerlinNoise3D::~CPerlinNoise3D
_TEXT	ENDS
PUBLIC	??0CPerlinNoise3D@@QAE@H@Z			; CPerlinNoise3D::CPerlinNoise3D
; Function compile flags: /Ogtpy
; File d:\clearsky\sources\engine\xrengine\perlin.h
;	COMDAT ??0CPerlinNoise3D@@QAE@H@Z
_TEXT	SEGMENT
$T390509 = 8						; size = 1
_seed$ = 8						; size = 4
??0CPerlinNoise3D@@QAE@H@Z PROC				; CPerlinNoise3D::CPerlinNoise3D, COMDAT
; _this$ = ecx

; 70   : 			CPerlinNoise3D		(int seed):CPerlinNoiseCustom(seed){}

	mov	eax, DWORD PTR _seed$[esp-4]
	movss	xmm0, DWORD PTR __real@3f800000
	push	esi
	mov	esi, ecx
	mov	DWORD PTR [esi], eax
	xor	eax, eax
	push	eax
	lea	ecx, DWORD PTR $T390509[esp+4]
	mov	BYTE PTR [esi+4], al
	mov	DWORD PTR [esi+2064], 2
	movss	DWORD PTR [esi+2068], xmm0
	movss	DWORD PTR [esi+2072], xmm0
	push	ecx
	lea	ecx, DWORD PTR [esi+2084]
	mov	DWORD PTR [esi+2076], eax
	mov	DWORD PTR [esi+2080], eax
	call	??0?$_STLP_alloc_proxy@PAMMV?$xalloc@M@@@priv@stlp_std@@QAE@ABV?$xalloc@M@@PAM@Z ; stlp_std::priv::_STLP_alloc_proxy<float *,float,xalloc<float> >::_STLP_alloc_proxy<float *,float,xalloc<float> >
	mov	eax, esi
	pop	esi
	ret	4
??0CPerlinNoise3D@@QAE@H@Z ENDP				; CPerlinNoise3D::CPerlinNoise3D
_TEXT	ENDS
PUBLIC	??0CPerlinNoise2D@@QAE@ABV0@@Z			; CPerlinNoise2D::CPerlinNoise2D
; Function compile flags: /Ogtpy
;	COMDAT ??0CPerlinNoise2D@@QAE@ABV0@@Z
_TEXT	SEGMENT
___that$ = 8						; size = 4
??0CPerlinNoise2D@@QAE@ABV0@@Z PROC			; CPerlinNoise2D::CPerlinNoise2D, COMDAT
; _this$ = ecx
	push	esi
	push	edi
	mov	edi, DWORD PTR ___that$[esp+4]
	push	edi
	mov	esi, ecx
	call	??0CPerlinNoiseCustom@@QAE@ABV0@@Z
	push	4112					; 00001010H
	add	edi, 2088				; 00000828H
	lea	eax, DWORD PTR [esi+2088]
	push	edi
	push	eax
	call	_memcpy
	add	esp, 12					; 0000000cH
	pop	edi
	mov	eax, esi
	pop	esi
	ret	4
??0CPerlinNoise2D@@QAE@ABV0@@Z ENDP			; CPerlinNoise2D::CPerlinNoise2D
_TEXT	ENDS
PUBLIC	??1CPerlinNoise2D@@QAE@XZ			; CPerlinNoise2D::~CPerlinNoise2D
; Function compile flags: /Ogtpy
;	COMDAT ??1CPerlinNoise2D@@QAE@XZ
_TEXT	SEGMENT
??1CPerlinNoise2D@@QAE@XZ PROC				; CPerlinNoise2D::~CPerlinNoise2D, COMDAT
; _this$ = ecx
	add	ecx, 2076				; 0000081cH
	jmp	??1?$_Impl_vector@MV?$xalloc@M@@@priv@stlp_std@@QAE@XZ ; stlp_std::priv::_Impl_vector<float,xalloc<float> >::~_Impl_vector<float,xalloc<float> >
??1CPerlinNoise2D@@QAE@XZ ENDP				; CPerlinNoise2D::~CPerlinNoise2D
_TEXT	ENDS
PUBLIC	??0CPerlinNoise2D@@QAE@H@Z			; CPerlinNoise2D::CPerlinNoise2D
; Function compile flags: /Ogtpy
;	COMDAT ??0CPerlinNoise2D@@QAE@H@Z
_TEXT	SEGMENT
$T390582 = 8						; size = 1
_seed$ = 8						; size = 4
??0CPerlinNoise2D@@QAE@H@Z PROC				; CPerlinNoise2D::CPerlinNoise2D, COMDAT
; _this$ = ecx

; 56   : 			CPerlinNoise2D		(int seed):CPerlinNoiseCustom(seed){}

	mov	eax, DWORD PTR _seed$[esp-4]
	movss	xmm0, DWORD PTR __real@3f800000
	push	esi
	mov	esi, ecx
	mov	DWORD PTR [esi], eax
	xor	eax, eax
	push	eax
	lea	ecx, DWORD PTR $T390582[esp+4]
	mov	BYTE PTR [esi+4], al
	mov	DWORD PTR [esi+2064], 2
	movss	DWORD PTR [esi+2068], xmm0
	movss	DWORD PTR [esi+2072], xmm0
	push	ecx
	lea	ecx, DWORD PTR [esi+2084]
	mov	DWORD PTR [esi+2076], eax
	mov	DWORD PTR [esi+2080], eax
	call	??0?$_STLP_alloc_proxy@PAMMV?$xalloc@M@@@priv@stlp_std@@QAE@ABV?$xalloc@M@@PAM@Z ; stlp_std::priv::_STLP_alloc_proxy<float *,float,xalloc<float> >::_STLP_alloc_proxy<float *,float,xalloc<float> >
	mov	eax, esi
	pop	esi
	ret	4
??0CPerlinNoise2D@@QAE@H@Z ENDP				; CPerlinNoise2D::CPerlinNoise2D
_TEXT	ENDS
PUBLIC	??0CPerlinNoise1D@@QAE@ABV0@@Z			; CPerlinNoise1D::CPerlinNoise1D
; Function compile flags: /Ogtpy
;	COMDAT ??0CPerlinNoise1D@@QAE@ABV0@@Z
_TEXT	SEGMENT
___that$ = 8						; size = 4
??0CPerlinNoise1D@@QAE@ABV0@@Z PROC			; CPerlinNoise1D::CPerlinNoise1D, COMDAT
; _this$ = ecx
	push	ebx
	push	ebp
	mov	ebp, DWORD PTR ___that$[esp+4]
	push	esi
	push	edi
	push	ebp
	mov	ebx, ecx
	call	??0CPerlinNoiseCustom@@QAE@ABV0@@Z
	lea	esi, DWORD PTR [ebp+2088]
	lea	edi, DWORD PTR [ebx+2088]
	mov	ecx, 514				; 00000202H
	rep movsd
	fld	DWORD PTR [ebp+4144]
	fstp	DWORD PTR [ebx+4144]
	pop	edi
	pop	esi
	pop	ebp
	mov	eax, ebx
	pop	ebx
	ret	4
??0CPerlinNoise1D@@QAE@ABV0@@Z ENDP			; CPerlinNoise1D::CPerlinNoise1D
_TEXT	ENDS
PUBLIC	??1CPerlinNoise1D@@QAE@XZ			; CPerlinNoise1D::~CPerlinNoise1D
; Function compile flags: /Ogtpy
;	COMDAT ??1CPerlinNoise1D@@QAE@XZ
_TEXT	SEGMENT
??1CPerlinNoise1D@@QAE@XZ PROC				; CPerlinNoise1D::~CPerlinNoise1D, COMDAT
; _this$ = ecx
	add	ecx, 2076				; 0000081cH
	jmp	??1?$_Impl_vector@MV?$xalloc@M@@@priv@stlp_std@@QAE@XZ ; stlp_std::priv::_Impl_vector<float,xalloc<float> >::~_Impl_vector<float,xalloc<float> >
??1CPerlinNoise1D@@QAE@XZ ENDP				; CPerlinNoise1D::~CPerlinNoise1D
_TEXT	ENDS
PUBLIC	??0CPerlinNoise1D@@QAE@H@Z			; CPerlinNoise1D::CPerlinNoise1D
; Function compile flags: /Ogtpy
;	COMDAT ??0CPerlinNoise1D@@QAE@H@Z
_TEXT	SEGMENT
$T390655 = 8						; size = 1
_seed$ = 8						; size = 4
??0CPerlinNoise1D@@QAE@H@Z PROC				; CPerlinNoise1D::CPerlinNoise1D, COMDAT
; _this$ = ecx

; 41   : 			CPerlinNoise1D		(int seed):CPerlinNoiseCustom(seed){mPrevContiniousTime=0.0f;}

	mov	eax, DWORD PTR _seed$[esp-4]
	movss	xmm0, DWORD PTR __real@3f800000
	push	esi
	mov	esi, ecx
	mov	DWORD PTR [esi], eax
	xor	eax, eax
	push	eax
	lea	ecx, DWORD PTR $T390655[esp+4]
	mov	BYTE PTR [esi+4], al
	mov	DWORD PTR [esi+2064], 2
	movss	DWORD PTR [esi+2068], xmm0
	movss	DWORD PTR [esi+2072], xmm0
	push	ecx
	lea	ecx, DWORD PTR [esi+2084]
	mov	DWORD PTR [esi+2076], eax
	mov	DWORD PTR [esi+2080], eax
	call	??0?$_STLP_alloc_proxy@PAMMV?$xalloc@M@@@priv@stlp_std@@QAE@ABV?$xalloc@M@@PAM@Z ; stlp_std::priv::_STLP_alloc_proxy<float *,float,xalloc<float> >::_STLP_alloc_proxy<float *,float,xalloc<float> >
	xorps	xmm0, xmm0
	movss	DWORD PTR [esi+4144], xmm0
	mov	eax, esi
	pop	esi
	ret	4
??0CPerlinNoise1D@@QAE@H@Z ENDP				; CPerlinNoise1D::CPerlinNoise1D
_TEXT	ENDS
PUBLIC	??4CPerlinNoiseCustom@@QAEAAV0@ABV0@@Z		; CPerlinNoiseCustom::operator=
; Function compile flags: /Ogtpy
;	COMDAT ??4CPerlinNoiseCustom@@QAEAAV0@ABV0@@Z
_TEXT	SEGMENT
___that$ = 8						; size = 4
??4CPerlinNoiseCustom@@QAEAAV0@ABV0@@Z PROC		; CPerlinNoiseCustom::operator=, COMDAT
; _this$ = ecx
	mov	edx, DWORD PTR ___that$[esp-4]
	mov	eax, DWORD PTR [edx]
	push	ebx
	push	esi
	mov	esi, ecx
	mov	DWORD PTR [esi], eax
	mov	cl, BYTE PTR [edx+4]
	mov	BYTE PTR [esi+4], cl
	mov	ecx, edx
	push	edi
	lea	eax, DWORD PTR [esi+8]
	sub	ecx, esi
	mov	edi, 514				; 00000202H
	npad	1
$LL3@operator@89:
	mov	ebx, DWORD PTR [ecx+eax]
	mov	DWORD PTR [eax], ebx
	add	eax, 4
	sub	edi, 1
	jne	SHORT $LL3@operator@89
	mov	eax, DWORD PTR [edx+2064]
	mov	DWORD PTR [esi+2064], eax
	fld	DWORD PTR [edx+2068]
	fstp	DWORD PTR [esi+2068]
	add	edx, 2076				; 0000081cH
	fld	DWORD PTR [edx-4]
	push	edx
	lea	ecx, DWORD PTR [esi+2076]
	fstp	DWORD PTR [esi+2072]
	call	??4?$vector@MV?$xalloc@M@@@stlp_std@@QAEAAV01@ABV01@@Z ; stlp_std::vector<float,xalloc<float> >::operator=
	pop	edi
	mov	eax, esi
	pop	esi
	pop	ebx
	ret	4
??4CPerlinNoiseCustom@@QAEAAV0@ABV0@@Z ENDP		; CPerlinNoiseCustom::operator=
_TEXT	ENDS
PUBLIC	?SetOctaves@CPerlinNoiseCustom@@QAEXH@Z		; CPerlinNoiseCustom::SetOctaves
; Function compile flags: /Ogtpy
;	COMDAT ?SetOctaves@CPerlinNoiseCustom@@QAEXH@Z
_TEXT	SEGMENT
$T390678 = 8						; size = 4
_oct$ = 8						; size = 4
?SetOctaves@CPerlinNoiseCustom@@QAEXH@Z PROC		; CPerlinNoiseCustom::SetOctaves, COMDAT
; _this$ = ecx

; 27   : 	IC void	SetOctaves			(int oct)	{mOctaves	= oct; mTimes.resize(mOctaves);}

	xorps	xmm0, xmm0
	mov	eax, ecx
	mov	ecx, DWORD PTR _oct$[esp-4]
	mov	DWORD PTR [eax+2064], ecx
	lea	edx, DWORD PTR [eax+2076]
	lea	eax, DWORD PTR $T390678[esp-4]
	movss	DWORD PTR $T390678[esp-4], xmm0
	call	?resize@?$_Impl_vector@MV?$xalloc@M@@@priv@stlp_std@@QAEXIABM@Z ; stlp_std::priv::_Impl_vector<float,xalloc<float> >::resize
	ret	4
?SetOctaves@CPerlinNoiseCustom@@QAEXH@Z ENDP		; CPerlinNoiseCustom::SetOctaves
; Function compile flags: /Ogtpy
_TEXT	ENDS
;	COMDAT ??4?$xr_vector@PAUSThunderboltCollection@@V?$xalloc@PAUSThunderboltCollection@@@@@@QAEAAV0@ABV0@@Z
_TEXT	SEGMENT
??4?$xr_vector@PAUSThunderboltCollection@@V?$xalloc@PAUSThunderboltCollection@@@@@@QAEAAV0@ABV0@@Z PROC ; xr_vector<SThunderboltCollection *,xalloc<SThunderboltCollection *> >::operator=, COMDAT
; _this$ = ecx
; ___that$ = eax
	push	ebx
	mov	ebx, ecx
	push	eax
	call	??4?$_Impl_vector@PAXV?$xalloc@PAX@@@priv@stlp_std@@QAEAAV012@ABV012@@Z ; stlp_std::priv::_Impl_vector<void *,xalloc<void *> >::operator=
	mov	eax, ebx
	pop	ebx
	ret	0
??4?$xr_vector@PAUSThunderboltCollection@@V?$xalloc@PAUSThunderboltCollection@@@@@@QAEAAV0@ABV0@@Z ENDP ; xr_vector<SThunderboltCollection *,xalloc<SThunderboltCollection *> >::operator=
; Function compile flags: /Ogtpy
_TEXT	ENDS
;	COMDAT ??0?$xr_vector@PAUSThunderboltCollection@@V?$xalloc@PAUSThunderboltCollection@@@@@@QAE@ABV0@@Z
_TEXT	SEGMENT
??0?$xr_vector@PAUSThunderboltCollection@@V?$xalloc@PAUSThunderboltCollection@@@@@@QAE@ABV0@@Z PROC ; xr_vector<SThunderboltCollection *,xalloc<SThunderboltCollection *> >::xr_vector<SThunderboltCollection *,xalloc<SThunderboltCollection *> >, COMDAT
; _this$ = esi
; ___that$ = eax
	push	eax
	mov	ecx, esi
	call	??0?$_Impl_vector@PAXV?$xalloc@PAX@@@priv@stlp_std@@QAE@ABV012@@Z ; stlp_std::priv::_Impl_vector<void *,xalloc<void *> >::_Impl_vector<void *,xalloc<void *> >
	mov	eax, esi
	ret	0
??0?$xr_vector@PAUSThunderboltCollection@@V?$xalloc@PAUSThunderboltCollection@@@@@@QAE@ABV0@@Z ENDP ; xr_vector<SThunderboltCollection *,xalloc<SThunderboltCollection *> >::xr_vector<SThunderboltCollection *,xalloc<SThunderboltCollection *> >
_TEXT	ENDS
PUBLIC	??4CEffect_Thunderbolt@@QAEAAV0@ABV0@@Z		; CEffect_Thunderbolt::operator=
; Function compile flags: /Ogtpy
;	COMDAT ??4CEffect_Thunderbolt@@QAEAAV0@ABV0@@Z
_TEXT	SEGMENT
___that$ = 8						; size = 4
??4CEffect_Thunderbolt@@QAEAAV0@ABV0@@Z PROC		; CEffect_Thunderbolt::operator=, COMDAT
; _this$ = ecx
	push	ebx
	push	ebp
	mov	ebp, DWORD PTR ___that$[esp+4]
	push	esi
	push	edi
	mov	ebx, ecx
	push	ebp
	call	??4?$_Impl_vector@PAXV?$xalloc@PAX@@@priv@stlp_std@@QAEAAV012@ABV012@@Z ; stlp_std::priv::_Impl_vector<void *,xalloc<void *> >::operator=
	mov	eax, DWORD PTR [ebp+12]
	mov	DWORD PTR [ebx+12], eax
	lea	esi, DWORD PTR [ebp+16]
	lea	edi, DWORD PTR [ebx+16]
	mov	ecx, 16					; 00000010H
	rep movsd
	mov	ecx, DWORD PTR [ebp+80]
	mov	DWORD PTR [ebx+80], ecx
	mov	edx, DWORD PTR [ebp+84]
	mov	DWORD PTR [ebx+84], edx
	mov	eax, DWORD PTR [ebp+88]
	mov	DWORD PTR [ebx+88], eax
	mov	ecx, DWORD PTR [ebx+92]
	mov	edx, DWORD PTR [ecx]
	mov	eax, DWORD PTR [ebp+92]
	mov	edx, DWORD PTR [edx+4]
	push	eax
	call	edx
	mov	eax, DWORD PTR [ebp+96]
	mov	DWORD PTR [ebx+96], eax
	mov	ecx, DWORD PTR [ebp+100]
	mov	DWORD PTR [ebx+100], ecx
	mov	edx, DWORD PTR [ebp+104]
	mov	DWORD PTR [ebx+104], edx
	mov	eax, DWORD PTR [ebp+108]
	mov	DWORD PTR [ebx+108], eax
	fld	DWORD PTR [ebp+112]
	pop	edi
	fstp	DWORD PTR [ebx+112]
	pop	esi
	fld	DWORD PTR [ebp+116]
	mov	eax, ebx
	fstp	DWORD PTR [ebx+116]
	fld	DWORD PTR [ebp+120]
	fstp	DWORD PTR [ebx+120]
	fld	DWORD PTR [ebp+124]
	fstp	DWORD PTR [ebx+124]
	fld	DWORD PTR [ebp+128]
	fstp	DWORD PTR [ebx+128]
	mov	ecx, DWORD PTR [ebp+132]
	pop	ebp
	mov	DWORD PTR [ebx+132], ecx
	pop	ebx
	ret	4
??4CEffect_Thunderbolt@@QAEAAV0@ABV0@@Z ENDP		; CEffect_Thunderbolt::operator=
_TEXT	ENDS
PUBLIC	??0CEffect_Thunderbolt@@QAE@ABV0@@Z		; CEffect_Thunderbolt::CEffect_Thunderbolt
; Function compile flags: /Ogtpy
;	COMDAT ??0CEffect_Thunderbolt@@QAE@ABV0@@Z
_TEXT	SEGMENT
___that$ = 8						; size = 4
??0CEffect_Thunderbolt@@QAE@ABV0@@Z PROC		; CEffect_Thunderbolt::CEffect_Thunderbolt, COMDAT
; _this$ = ecx
	push	ebx
	push	ebp
	mov	ebp, DWORD PTR ___that$[esp+4]
	push	esi
	push	edi
	push	ebp
	mov	ebx, ecx
	call	??0?$_Impl_vector@PAXV?$xalloc@PAX@@@priv@stlp_std@@QAE@ABV012@@Z ; stlp_std::priv::_Impl_vector<void *,xalloc<void *> >::_Impl_vector<void *,xalloc<void *> >
	mov	eax, DWORD PTR [ebp+12]
	mov	DWORD PTR [ebx+12], eax
	lea	esi, DWORD PTR [ebp+16]
	lea	edi, DWORD PTR [ebx+16]
	mov	ecx, 16					; 00000010H
	rep movsd
	mov	ecx, DWORD PTR [ebp+80]
	mov	DWORD PTR [ebx+80], ecx
	mov	edx, DWORD PTR [ebp+84]
	mov	ecx, DWORD PTR __imp_?RenderFactory@@3PAVIRenderFactory@@A
	mov	DWORD PTR [ebx+84], edx
	mov	eax, DWORD PTR [ebp+88]
	mov	DWORD PTR [ebx+88], eax
	mov	ecx, DWORD PTR [ecx]
	mov	edx, DWORD PTR [ecx]
	mov	eax, DWORD PTR [edx+104]
	call	eax
	mov	DWORD PTR [ebx+92], eax
	mov	ecx, DWORD PTR [ebp+92]
	mov	edx, DWORD PTR [eax]
	mov	edx, DWORD PTR [edx+4]
	push	ecx
	mov	ecx, eax
	call	edx
	mov	eax, DWORD PTR [ebp+96]
	mov	DWORD PTR [ebx+96], eax
	mov	ecx, DWORD PTR [ebp+100]
	mov	DWORD PTR [ebx+100], ecx
	mov	edx, DWORD PTR [ebp+104]
	mov	DWORD PTR [ebx+104], edx
	mov	eax, DWORD PTR [ebp+108]
	mov	DWORD PTR [ebx+108], eax
	fld	DWORD PTR [ebp+112]
	fstp	DWORD PTR [ebx+112]
	pop	edi
	fld	DWORD PTR [ebp+116]
	pop	esi
	fstp	DWORD PTR [ebx+116]
	mov	eax, ebx
	fld	DWORD PTR [ebp+120]
	fstp	DWORD PTR [ebx+120]
	fld	DWORD PTR [ebp+124]
	fstp	DWORD PTR [ebx+124]
	fld	DWORD PTR [ebp+128]
	fstp	DWORD PTR [ebx+128]
	mov	ecx, DWORD PTR [ebp+132]
	pop	ebp
	mov	DWORD PTR [ebx+132], ecx
	pop	ebx
	ret	4
??0CEffect_Thunderbolt@@QAE@ABV0@@Z ENDP		; CEffect_Thunderbolt::CEffect_Thunderbolt
_TEXT	ENDS
PUBLIC	??0CEffect_Rain@@QAE@ABV0@@Z			; CEffect_Rain::CEffect_Rain
; Function compile flags: /Ogtpy
;	COMDAT ??0CEffect_Rain@@QAE@ABV0@@Z
_TEXT	SEGMENT
___that$ = 8						; size = 4
??0CEffect_Rain@@QAE@ABV0@@Z PROC			; CEffect_Rain::CEffect_Rain, COMDAT
; _this$ = ecx
	mov	eax, DWORD PTR __imp_?RenderFactory@@3PAVIRenderFactory@@A
	push	ebx
	push	esi
	push	edi
	mov	edi, ecx
	mov	ecx, DWORD PTR [eax]
	mov	edx, DWORD PTR [ecx]
	mov	eax, DWORD PTR [edx+88]
	call	eax
	mov	ebx, DWORD PTR ___that$[esp+8]
	mov	DWORD PTR [edi], eax
	mov	ecx, DWORD PTR [ebx]
	mov	edx, DWORD PTR [eax]
	mov	edx, DWORD PTR [edx+4]
	push	ecx
	mov	ecx, eax
	call	edx
	lea	eax, DWORD PTR [ebx+4]
	lea	esi, DWORD PTR [edi+4]
	call	??0?$_Impl_vector@UItem@CEffect_Rain@@V?$xalloc@UItem@CEffect_Rain@@@@@priv@stlp_std@@QAE@ABV012@@Z ; stlp_std::priv::_Impl_vector<CEffect_Rain::Item,xalloc<CEffect_Rain::Item> >::_Impl_vector<CEffect_Rain::Item,xalloc<CEffect_Rain::Item> >
	mov	eax, DWORD PTR [ebx+16]
	mov	DWORD PTR [edi+16], eax
	lea	eax, DWORD PTR [ebx+20]
	lea	esi, DWORD PTR [edi+20]
	call	??0?$_Impl_vector@UParticle@CEffect_Rain@@V?$xalloc@UParticle@CEffect_Rain@@@@@priv@stlp_std@@QAE@ABV012@@Z ; stlp_std::priv::_Impl_vector<CEffect_Rain::Particle,xalloc<CEffect_Rain::Particle> >::_Impl_vector<CEffect_Rain::Particle,xalloc<CEffect_Rain::Particle> >
	mov	ecx, DWORD PTR [ebx+32]
	mov	DWORD PTR [edi+32], ecx
	mov	edx, DWORD PTR [ebx+36]
	add	ebx, 40					; 00000028H
	push	ebx
	lea	ecx, DWORD PTR [edi+40]
	mov	DWORD PTR [edi+36], edx
	call	??0ref_sound@@QAE@ABU0@@Z
	mov	eax, edi
	pop	edi
	pop	esi
	pop	ebx
	ret	4
??0CEffect_Rain@@QAE@ABV0@@Z ENDP			; CEffect_Rain::CEffect_Rain
; Function compile flags: /Ogtpy
_TEXT	ENDS
;	COMDAT ??4?$xr_vector@PAVCLensFlareDescriptor@@V?$xalloc@PAVCLensFlareDescriptor@@@@@@QAEAAV0@ABV0@@Z
_TEXT	SEGMENT
??4?$xr_vector@PAVCLensFlareDescriptor@@V?$xalloc@PAVCLensFlareDescriptor@@@@@@QAEAAV0@ABV0@@Z PROC ; xr_vector<CLensFlareDescriptor *,xalloc<CLensFlareDescriptor *> >::operator=, COMDAT
; _this$ = ecx
; ___that$ = eax
	push	ebx
	mov	ebx, ecx
	push	eax
	call	??4?$_Impl_vector@PAXV?$xalloc@PAX@@@priv@stlp_std@@QAEAAV012@ABV012@@Z ; stlp_std::priv::_Impl_vector<void *,xalloc<void *> >::operator=
	mov	eax, ebx
	pop	ebx
	ret	0
??4?$xr_vector@PAVCLensFlareDescriptor@@V?$xalloc@PAVCLensFlareDescriptor@@@@@@QAEAAV0@ABV0@@Z ENDP ; xr_vector<CLensFlareDescriptor *,xalloc<CLensFlareDescriptor *> >::operator=
; Function compile flags: /Ogtpy
_TEXT	ENDS
;	COMDAT ??0?$xr_vector@PAVCLensFlareDescriptor@@V?$xalloc@PAVCLensFlareDescriptor@@@@@@QAE@ABV0@@Z
_TEXT	SEGMENT
??0?$xr_vector@PAVCLensFlareDescriptor@@V?$xalloc@PAVCLensFlareDescriptor@@@@@@QAE@ABV0@@Z PROC ; xr_vector<CLensFlareDescriptor *,xalloc<CLensFlareDescriptor *> >::xr_vector<CLensFlareDescriptor *,xalloc<CLensFlareDescriptor *> >, COMDAT
; _this$ = esi
; ___that$ = eax
	push	eax
	mov	ecx, esi
	call	??0?$_Impl_vector@PAXV?$xalloc@PAX@@@priv@stlp_std@@QAE@ABV012@@Z ; stlp_std::priv::_Impl_vector<void *,xalloc<void *> >::_Impl_vector<void *,xalloc<void *> >
	mov	eax, esi
	ret	0
??0?$xr_vector@PAVCLensFlareDescriptor@@V?$xalloc@PAVCLensFlareDescriptor@@@@@@QAE@ABV0@@Z ENDP ; xr_vector<CLensFlareDescriptor *,xalloc<CLensFlareDescriptor *> >::xr_vector<CLensFlareDescriptor *,xalloc<CLensFlareDescriptor *> >
_TEXT	ENDS
PUBLIC	??4CLensFlare@@QAEAAV0@ABV0@@Z			; CLensFlare::operator=
; Function compile flags: /Ogtpy
;	COMDAT ??4CLensFlare@@QAEAAV0@ABV0@@Z
_TEXT	SEGMENT
___that$ = 8						; size = 4
??4CLensFlare@@QAEAAV0@ABV0@@Z PROC			; CLensFlare::operator=, COMDAT
; _this$ = ecx
	push	ebx
	mov	ebx, DWORD PTR ___that$[esp]
	push	ebp
	push	esi
	push	edi
	mov	ebp, ecx
	lea	eax, DWORD PTR [ebx+4]
	push	eax
	lea	edi, DWORD PTR [ebp+4]
	call	??4?$_Impl_vector@Urq_result@collide@@V?$xalloc@Urq_result@collide@@@@@priv@stlp_std@@QAEAAV012@ABV012@@Z ; stlp_std::priv::_Impl_vector<collide::rq_result,xalloc<collide::rq_result> >::operator=
	lea	esi, DWORD PTR [ebx+16]
	lea	edi, DWORD PTR [ebp+16]
	mov	ecx, 17					; 00000011H
	rep movsd
	lea	esi, DWORD PTR [ebx+84]
	lea	edi, DWORD PTR [ebp+84]
	mov	ecx, 17					; 00000011H
	rep movsd
	lea	esi, DWORD PTR [ebx+152]
	lea	edi, DWORD PTR [ebp+152]
	mov	ecx, 17					; 00000011H
	rep movsd
	lea	esi, DWORD PTR [ebx+220]
	lea	edi, DWORD PTR [ebp+220]
	mov	ecx, 17					; 00000011H
	rep movsd
	lea	esi, DWORD PTR [ebx+288]
	lea	edi, DWORD PTR [ebp+288]
	mov	ecx, 17					; 00000011H
	rep movsd
	fld	DWORD PTR [ebx+356]
	fstp	DWORD PTR [ebp+356]
	mov	ecx, DWORD PTR [ebx+360]
	mov	DWORD PTR [ebp+360], ecx
	mov	edx, DWORD PTR [ebx+364]
	mov	DWORD PTR [ebp+364], edx
	mov	eax, DWORD PTR [ebx+368]
	mov	DWORD PTR [ebp+368], eax
	mov	ecx, DWORD PTR [ebx+372]
	mov	DWORD PTR [ebp+372], ecx
	mov	edx, DWORD PTR [ebx+376]
	mov	DWORD PTR [ebp+376], edx
	mov	eax, DWORD PTR [ebx+380]
	mov	DWORD PTR [ebp+380], eax
	mov	ecx, DWORD PTR [ebx+384]
	mov	DWORD PTR [ebp+384], ecx
	mov	edx, DWORD PTR [ebx+388]
	mov	DWORD PTR [ebp+388], edx
	mov	eax, DWORD PTR [ebx+392]
	mov	DWORD PTR [ebp+392], eax
	mov	ecx, DWORD PTR [ebx+396]
	mov	DWORD PTR [ebp+396], ecx
	mov	edx, DWORD PTR [ebx+400]
	mov	DWORD PTR [ebp+400], edx
	mov	eax, DWORD PTR [ebx+404]
	mov	DWORD PTR [ebp+404], eax
	mov	ecx, DWORD PTR [ebx+408]
	mov	DWORD PTR [ebp+408], ecx
	mov	edx, DWORD PTR [ebx+412]
	mov	DWORD PTR [ebp+412], edx
	mov	eax, DWORD PTR [ebx+416]
	mov	DWORD PTR [ebp+416], eax
	mov	ecx, DWORD PTR [ebx+420]
	mov	DWORD PTR [ebp+420], ecx
	mov	edx, DWORD PTR [ebx+424]
	mov	DWORD PTR [ebp+424], edx
	mov	eax, DWORD PTR [ebx+428]
	mov	DWORD PTR [ebp+428], eax
	mov	ecx, DWORD PTR [ebx+432]
	mov	DWORD PTR [ebp+432], ecx
	mov	edx, DWORD PTR [ebx+436]
	mov	DWORD PTR [ebp+436], edx
	mov	eax, DWORD PTR [ebx+440]
	mov	DWORD PTR [ebp+440], eax
	mov	ecx, DWORD PTR [ebx+444]
	mov	DWORD PTR [ebp+444], ecx
	mov	edx, DWORD PTR [ebx+448]
	mov	DWORD PTR [ebp+448], edx
	mov	eax, DWORD PTR [ebx+452]
	mov	DWORD PTR [ebp+452], eax
	mov	ecx, DWORD PTR [ebx+456]
	mov	DWORD PTR [ebp+456], ecx
	mov	edx, DWORD PTR [ebx+460]
	mov	DWORD PTR [ebp+460], edx
	mov	eax, DWORD PTR [ebx+464]
	mov	DWORD PTR [ebp+464], eax
	fld	DWORD PTR [ebx+468]
	fstp	DWORD PTR [ebp+468]
	mov	ecx, DWORD PTR [ebp+472]
	mov	edx, DWORD PTR [ecx]
	mov	eax, DWORD PTR [ebx+472]
	mov	edx, DWORD PTR [edx+4]
	push	eax
	call	edx
	add	ebx, 476				; 000001dcH
	push	ebx
	lea	ebx, DWORD PTR [ebp+476]
	call	??4?$_Impl_vector@PAXV?$xalloc@PAX@@@priv@stlp_std@@QAEAAV012@ABV012@@Z ; stlp_std::priv::_Impl_vector<void *,xalloc<void *> >::operator=
	mov	eax, DWORD PTR ___that$[esp+12]
	mov	ecx, DWORD PTR [eax+488]
	mov	DWORD PTR [ebp+488], ecx
	mov	edx, DWORD PTR [eax+492]
	pop	edi
	mov	DWORD PTR [ebp+492], edx
	fld	DWORD PTR [eax+496]
	pop	esi
	fstp	DWORD PTR [ebp+496]
	mov	eax, ebp
	pop	ebp
	pop	ebx
	ret	4
??4CLensFlare@@QAEAAV0@ABV0@@Z ENDP			; CLensFlare::operator=
_TEXT	ENDS
PUBLIC	??0CLensFlare@@QAE@ABV0@@Z			; CLensFlare::CLensFlare
; Function compile flags: /Ogtpy
;	COMDAT ??0CLensFlare@@QAE@ABV0@@Z
_TEXT	SEGMENT
___that$ = 8						; size = 4
??0CLensFlare@@QAE@ABV0@@Z PROC				; CLensFlare::CLensFlare, COMDAT
; _this$ = ecx
	push	ebx
	push	ebp
	mov	ebp, DWORD PTR ___that$[esp+4]
	push	esi
	mov	ebx, ecx
	push	edi
	lea	eax, DWORD PTR [ebp+4]
	lea	esi, DWORD PTR [ebx+4]
	mov	DWORD PTR [ebx], OFFSET ??_7CLensFlare@@6B@
	call	??0?$_Impl_vector@Urq_result@collide@@V?$xalloc@Urq_result@collide@@@@@priv@stlp_std@@QAE@ABV012@@Z ; stlp_std::priv::_Impl_vector<collide::rq_result,xalloc<collide::rq_result> >::_Impl_vector<collide::rq_result,xalloc<collide::rq_result> >
	lea	esi, DWORD PTR [ebp+16]
	lea	edi, DWORD PTR [ebx+16]
	mov	ecx, 85					; 00000055H
	rep movsd
	fld	DWORD PTR [ebp+356]
	fstp	DWORD PTR [ebx+356]
	mov	eax, DWORD PTR [ebp+360]
	mov	DWORD PTR [ebx+360], eax
	mov	ecx, DWORD PTR [ebp+364]
	mov	DWORD PTR [ebx+364], ecx
	mov	edx, DWORD PTR [ebp+368]
	mov	DWORD PTR [ebx+368], edx
	mov	eax, DWORD PTR [ebp+372]
	mov	DWORD PTR [ebx+372], eax
	mov	ecx, DWORD PTR [ebp+376]
	mov	DWORD PTR [ebx+376], ecx
	mov	edx, DWORD PTR [ebp+380]
	mov	DWORD PTR [ebx+380], edx
	mov	eax, DWORD PTR [ebp+384]
	mov	DWORD PTR [ebx+384], eax
	mov	ecx, DWORD PTR [ebp+388]
	mov	DWORD PTR [ebx+388], ecx
	mov	edx, DWORD PTR [ebp+392]
	mov	DWORD PTR [ebx+392], edx
	mov	eax, DWORD PTR [ebp+396]
	mov	DWORD PTR [ebx+396], eax
	mov	ecx, DWORD PTR [ebp+400]
	mov	DWORD PTR [ebx+400], ecx
	mov	edx, DWORD PTR [ebp+404]
	mov	DWORD PTR [ebx+404], edx
	mov	eax, DWORD PTR [ebp+408]
	mov	DWORD PTR [ebx+408], eax
	mov	ecx, DWORD PTR [ebp+412]
	mov	DWORD PTR [ebx+412], ecx
	mov	edx, DWORD PTR [ebp+416]
	mov	DWORD PTR [ebx+416], edx
	mov	eax, DWORD PTR [ebp+420]
	mov	DWORD PTR [ebx+420], eax
	mov	ecx, DWORD PTR [ebp+424]
	mov	DWORD PTR [ebx+424], ecx
	mov	edx, DWORD PTR [ebp+428]
	mov	DWORD PTR [ebx+428], edx
	mov	eax, DWORD PTR [ebp+432]
	mov	DWORD PTR [ebx+432], eax
	mov	ecx, DWORD PTR [ebp+436]
	mov	DWORD PTR [ebx+436], ecx
	mov	edx, DWORD PTR [ebp+440]
	mov	DWORD PTR [ebx+440], edx
	mov	eax, DWORD PTR [ebp+444]
	mov	DWORD PTR [ebx+444], eax
	mov	ecx, DWORD PTR [ebp+448]
	mov	DWORD PTR [ebx+448], ecx
	mov	edx, DWORD PTR [ebp+452]
	mov	DWORD PTR [ebx+452], edx
	mov	eax, DWORD PTR [ebp+456]
	mov	DWORD PTR [ebx+456], eax
	mov	ecx, DWORD PTR [ebp+460]
	mov	eax, DWORD PTR __imp_?RenderFactory@@3PAVIRenderFactory@@A
	mov	DWORD PTR [ebx+460], ecx
	mov	edx, DWORD PTR [ebp+464]
	mov	DWORD PTR [ebx+464], edx
	fld	DWORD PTR [ebp+468]
	fstp	DWORD PTR [ebx+468]
	mov	ecx, DWORD PTR [eax]
	mov	edx, DWORD PTR [ecx]
	mov	eax, DWORD PTR [edx+96]
	call	eax
	mov	DWORD PTR [ebx+472], eax
	mov	ecx, DWORD PTR [ebp+472]
	mov	edx, DWORD PTR [eax]
	push	ecx
	mov	edx, DWORD PTR [edx+4]
	mov	ecx, eax
	call	edx
	lea	eax, DWORD PTR [ebp+476]
	push	eax
	lea	ecx, DWORD PTR [ebx+476]
	call	??0?$_Impl_vector@PAXV?$xalloc@PAX@@@priv@stlp_std@@QAE@ABV012@@Z ; stlp_std::priv::_Impl_vector<void *,xalloc<void *> >::_Impl_vector<void *,xalloc<void *> >
	mov	ecx, DWORD PTR [ebp+488]
	mov	DWORD PTR [ebx+488], ecx
	mov	edx, DWORD PTR [ebp+492]
	pop	edi
	mov	DWORD PTR [ebx+492], edx
	fld	DWORD PTR [ebp+496]
	pop	esi
	fstp	DWORD PTR [ebx+496]
	pop	ebp
	mov	eax, ebx
	pop	ebx
	ret	4
??0CLensFlare@@QAE@ABV0@@Z ENDP				; CLensFlare::CLensFlare
; Function compile flags: /Ogtpy
_TEXT	ENDS
;	COMDAT ??1?$vector@USFlare@CLensFlareDescriptor@@V?$xalloc@USFlare@CLensFlareDescriptor@@@@@stlp_std@@QAE@XZ
_TEXT	SEGMENT
??1?$vector@USFlare@CLensFlareDescriptor@@V?$xalloc@USFlare@CLensFlareDescriptor@@@@@stlp_std@@QAE@XZ PROC ; stlp_std::vector<CLensFlareDescriptor::SFlare,xalloc<CLensFlareDescriptor::SFlare> >::~vector<CLensFlareDescriptor::SFlare,xalloc<CLensFlareDescriptor::SFlare> >, COMDAT
; _this$ = eax
	push	esi
	mov	esi, eax
	mov	ecx, DWORD PTR [esi+4]
	mov	eax, DWORD PTR [esi]
	push	ecx
	mov	edx, esp
	mov	DWORD PTR [edx], eax
	push	ecx
	mov	eax, esp
	mov	DWORD PTR [eax], ecx
	call	??$__destroy_range_aux@V?$reverse_iterator@PAUSFlare@CLensFlareDescriptor@@@stlp_std@@USFlare@CLensFlareDescriptor@@@stlp_std@@YAXV?$reverse_iterator@PAUSFlare@CLensFlareDescriptor@@@0@0PAUSFlare@CLensFlareDescriptor@@ABU__false_type@0@@Z ; stlp_std::__destroy_range_aux<stlp_std::reverse_iterator<CLensFlareDescriptor::SFlare *>,CLensFlareDescriptor::SFlare>
	mov	esi, DWORD PTR [esi]
	add	esp, 8
	test	esi, esi
	je	SHORT $LN34@vector@73
	mov	ecx, DWORD PTR __imp_?Memory@@3VxrMemory@@A
	push	esi
	call	DWORD PTR __imp_?mem_free@xrMemory@@QAEXPAX@Z
$LN34@vector@73:
	pop	esi
	ret	0
??1?$vector@USFlare@CLensFlareDescriptor@@V?$xalloc@USFlare@CLensFlareDescriptor@@@@@stlp_std@@QAE@XZ ENDP ; stlp_std::vector<CLensFlareDescriptor::SFlare,xalloc<CLensFlareDescriptor::SFlare> >::~vector<CLensFlareDescriptor::SFlare,xalloc<CLensFlareDescriptor::SFlare> >
; Function compile flags: /Ogtpy
_TEXT	ENDS
;	COMDAT ??4SFlare@CLensFlareDescriptor@@QAEAAU01@ABU01@@Z
_TEXT	SEGMENT
??4SFlare@CLensFlareDescriptor@@QAEAAU01@ABU01@@Z PROC	; CLensFlareDescriptor::SFlare::operator=, COMDAT
; _this$ = esi
; ___that$ = eax
	fld	DWORD PTR [eax]
	fstp	DWORD PTR [esi]
	fld	DWORD PTR [eax+4]
	fstp	DWORD PTR [esi+4]
	fld	DWORD PTR [eax+8]
	fstp	DWORD PTR [esi+8]
	mov	edx, DWORD PTR [eax+12]
	test	edx, edx
	je	SHORT $LN5@operator@90
	add	DWORD PTR [edx], 1
$LN5@operator@90:
	mov	ecx, DWORD PTR [esi+12]
	test	ecx, ecx
	je	SHORT $LN8@operator@90
	add	DWORD PTR [ecx], -1
	mov	ecx, DWORD PTR [esi+12]
	cmp	DWORD PTR [ecx], 0
	jne	SHORT $LN8@operator@90
	mov	DWORD PTR [esi+12], 0
$LN8@operator@90:
	mov	DWORD PTR [esi+12], edx
	mov	edx, DWORD PTR [eax+16]
	test	edx, edx
	je	SHORT $LN14@operator@90
	add	DWORD PTR [edx], 1
$LN14@operator@90:
	mov	ecx, DWORD PTR [esi+16]
	test	ecx, ecx
	je	SHORT $LN17@operator@90
	add	DWORD PTR [ecx], -1
	mov	ecx, DWORD PTR [esi+16]
	cmp	DWORD PTR [ecx], 0
	jne	SHORT $LN17@operator@90
	mov	DWORD PTR [esi+16], 0
$LN17@operator@90:
	mov	DWORD PTR [esi+16], edx
	mov	ecx, DWORD PTR [esi+20]
	mov	edx, DWORD PTR [ecx]
	mov	eax, DWORD PTR [eax+20]
	mov	edx, DWORD PTR [edx+4]
	push	eax
	call	edx
	mov	eax, esi
	ret	0
??4SFlare@CLensFlareDescriptor@@QAEAAU01@ABU01@@Z ENDP	; CLensFlareDescriptor::SFlare::operator=
; Function compile flags: /Ogtpy
_TEXT	ENDS
;	COMDAT ??4SSource@CLensFlareDescriptor@@QAEAAU01@ABU01@@Z
_TEXT	SEGMENT
??4SSource@CLensFlareDescriptor@@QAEAAU01@ABU01@@Z PROC	; CLensFlareDescriptor::SSource::operator=, COMDAT
; _this$ = eax
; ___that$ = edi
	push	esi
	mov	esi, eax
	mov	eax, edi
	call	??4SFlare@CLensFlareDescriptor@@QAEAAU01@ABU01@@Z
	mov	eax, DWORD PTR [edi+24]
	mov	DWORD PTR [esi+24], eax
	mov	eax, esi
	pop	esi
	ret	0
??4SSource@CLensFlareDescriptor@@QAEAAU01@ABU01@@Z ENDP	; CLensFlareDescriptor::SSource::operator=
; Function compile flags: /Ogtpy
_TEXT	ENDS
;	COMDAT ??0SFlare@CLensFlareDescriptor@@QAE@ABU01@@Z
_TEXT	SEGMENT
??0SFlare@CLensFlareDescriptor@@QAE@ABU01@@Z PROC	; CLensFlareDescriptor::SFlare::SFlare, COMDAT
; _this$ = esi
; ___that$ = edi
	fld	DWORD PTR [edi]
	xor	edx, edx
	fstp	DWORD PTR [esi]
	fld	DWORD PTR [edi+4]
	fstp	DWORD PTR [esi+4]
	fld	DWORD PTR [edi+8]
	fstp	DWORD PTR [esi+8]
	mov	DWORD PTR [esi+12], edx
	mov	ecx, DWORD PTR [edi+12]
	cmp	ecx, edx
	je	SHORT $LN5@SFlare@3
	add	DWORD PTR [ecx], 1
$LN5@SFlare@3:
	mov	eax, DWORD PTR [esi+12]
	cmp	eax, edx
	je	SHORT $LN8@SFlare@3
	add	DWORD PTR [eax], -1
	mov	eax, DWORD PTR [esi+12]
	cmp	DWORD PTR [eax], edx
	jne	SHORT $LN8@SFlare@3
	mov	DWORD PTR [esi+12], edx
$LN8@SFlare@3:
	mov	DWORD PTR [esi+12], ecx
	mov	DWORD PTR [esi+16], edx
	mov	eax, DWORD PTR [edi+16]
	cmp	eax, edx
	je	SHORT $LN14@SFlare@3
	add	DWORD PTR [eax], 1
$LN14@SFlare@3:
	mov	ecx, DWORD PTR [esi+16]
	cmp	ecx, edx
	je	SHORT $LN17@SFlare@3
	add	DWORD PTR [ecx], -1
	mov	ecx, DWORD PTR [esi+16]
	cmp	DWORD PTR [ecx], edx
	jne	SHORT $LN17@SFlare@3
	mov	DWORD PTR [esi+16], edx
$LN17@SFlare@3:
	mov	edx, DWORD PTR __imp_?RenderFactory@@3PAVIRenderFactory@@A
	mov	DWORD PTR [esi+16], eax
	mov	ecx, DWORD PTR [edx]
	mov	eax, DWORD PTR [ecx]
	mov	edx, DWORD PTR [eax+120]
	call	edx
	mov	DWORD PTR [esi+20], eax
	mov	ecx, DWORD PTR [edi+20]
	mov	edx, DWORD PTR [eax]
	mov	edx, DWORD PTR [edx+4]
	push	ecx
	mov	ecx, eax
	call	edx
	mov	eax, esi
	ret	0
??0SFlare@CLensFlareDescriptor@@QAE@ABU01@@Z ENDP	; CLensFlareDescriptor::SFlare::SFlare
; Function compile flags: /Ogtpy
_TEXT	ENDS
;	COMDAT ??0SSource@CLensFlareDescriptor@@QAE@ABU01@@Z
_TEXT	SEGMENT
??0SSource@CLensFlareDescriptor@@QAE@ABU01@@Z PROC	; CLensFlareDescriptor::SSource::SSource, COMDAT
; _this$ = ecx
; ___that$ = eax
	push	esi
	push	edi
	mov	edi, eax
	mov	esi, ecx
	call	??0SFlare@CLensFlareDescriptor@@QAE@ABU01@@Z
	mov	eax, DWORD PTR [edi+24]
	mov	DWORD PTR [esi+24], eax
	pop	edi
	mov	eax, esi
	pop	esi
	ret	0
??0SSource@CLensFlareDescriptor@@QAE@ABU01@@Z ENDP	; CLensFlareDescriptor::SSource::SSource
; Function compile flags: /Ogtpy
_TEXT	ENDS
;	COMDAT ??0SSource@CLensFlareDescriptor@@QAE@XZ
_TEXT	SEGMENT
??0SSource@CLensFlareDescriptor@@QAE@XZ PROC		; CLensFlareDescriptor::SSource::SSource, COMDAT
; _this$ = esi
	xor	eax, eax
	mov	DWORD PTR [esi+12], eax
	mov	DWORD PTR [esi+16], eax
	mov	eax, DWORD PTR __imp_?RenderFactory@@3PAVIRenderFactory@@A
	mov	ecx, DWORD PTR [eax]
	mov	edx, DWORD PTR [ecx]
	mov	eax, DWORD PTR [edx+120]
	call	eax
	xorps	xmm0, xmm0
	mov	DWORD PTR [esi+20], eax
	movss	DWORD PTR [esi+8], xmm0
	movss	DWORD PTR [esi+4], xmm0
	movss	DWORD PTR [esi], xmm0
	mov	eax, esi
	ret	0
??0SSource@CLensFlareDescriptor@@QAE@XZ ENDP		; CLensFlareDescriptor::SSource::SSource
; Function compile flags: /Ogtpy
_TEXT	ENDS
;	COMDAT ??1?$xr_vector@USFlare@CLensFlareDescriptor@@V?$xalloc@USFlare@CLensFlareDescriptor@@@@@@QAE@XZ
_TEXT	SEGMENT
??1?$xr_vector@USFlare@CLensFlareDescriptor@@V?$xalloc@USFlare@CLensFlareDescriptor@@@@@@QAE@XZ PROC ; xr_vector<CLensFlareDescriptor::SFlare,xalloc<CLensFlareDescriptor::SFlare> >::~xr_vector<CLensFlareDescriptor::SFlare,xalloc<CLensFlareDescriptor::SFlare> >, COMDAT
; _this$ = eax
	push	esi
	mov	esi, eax
	mov	ecx, DWORD PTR [esi+4]
	mov	eax, DWORD PTR [esi]
	push	ecx
	mov	edx, esp
	mov	DWORD PTR [edx], eax
	push	ecx
	mov	eax, esp
	mov	DWORD PTR [eax], ecx
	call	??$__destroy_range_aux@V?$reverse_iterator@PAUSFlare@CLensFlareDescriptor@@@stlp_std@@USFlare@CLensFlareDescriptor@@@stlp_std@@YAXV?$reverse_iterator@PAUSFlare@CLensFlareDescriptor@@@0@0PAUSFlare@CLensFlareDescriptor@@ABU__false_type@0@@Z ; stlp_std::__destroy_range_aux<stlp_std::reverse_iterator<CLensFlareDescriptor::SFlare *>,CLensFlareDescriptor::SFlare>
	mov	esi, DWORD PTR [esi]
	add	esp, 8
	test	esi, esi
	je	SHORT $LN36@xr_vector@43
	mov	ecx, DWORD PTR __imp_?Memory@@3VxrMemory@@A
	push	esi
	call	DWORD PTR __imp_?mem_free@xrMemory@@QAEXPAX@Z
$LN36@xr_vector@43:
	pop	esi
	ret	0
??1?$xr_vector@USFlare@CLensFlareDescriptor@@V?$xalloc@USFlare@CLensFlareDescriptor@@@@@@QAE@XZ ENDP ; xr_vector<CLensFlareDescriptor::SFlare,xalloc<CLensFlareDescriptor::SFlare> >::~xr_vector<CLensFlareDescriptor::SFlare,xalloc<CLensFlareDescriptor::SFlare> >
_TEXT	ENDS
PUBLIC	??1CLensFlareDescriptor@@QAE@XZ			; CLensFlareDescriptor::~CLensFlareDescriptor
; Function compile flags: /Ogtpy
;	COMDAT ??1CLensFlareDescriptor@@QAE@XZ
_TEXT	SEGMENT
??1CLensFlareDescriptor@@QAE@XZ PROC			; CLensFlareDescriptor::~CLensFlareDescriptor, COMDAT
; _this$ = ecx
	push	esi
	mov	esi, ecx
	mov	eax, DWORD PTR [esi+76]
	push	edi
	xor	edi, edi
	cmp	eax, edi
	je	SHORT $LN5@CLensFlare@2
	add	DWORD PTR [eax], -1
	mov	eax, DWORD PTR [esi+76]
	cmp	DWORD PTR [eax], edi
	jne	SHORT $LN5@CLensFlare@2
	mov	DWORD PTR [esi+76], edi
$LN5@CLensFlare@2:
	mov	ecx, DWORD PTR __imp_?RenderFactory@@3PAVIRenderFactory@@A
	mov	ecx, DWORD PTR [ecx]
	mov	edx, DWORD PTR [ecx]
	mov	eax, DWORD PTR [esi+64]
	mov	edx, DWORD PTR [edx+124]
	push	eax
	call	edx
	mov	DWORD PTR [esi+64], edi
	mov	eax, DWORD PTR [esi+60]
	cmp	eax, edi
	je	SHORT $LN17@CLensFlare@2
	add	DWORD PTR [eax], -1
	mov	eax, DWORD PTR [esi+60]
	cmp	DWORD PTR [eax], edi
	jne	SHORT $LN17@CLensFlare@2
	mov	DWORD PTR [esi+60], edi
$LN17@CLensFlare@2:
	mov	eax, DWORD PTR [esi+56]
	cmp	eax, edi
	je	SHORT $LN23@CLensFlare@2
	add	DWORD PTR [eax], -1
	mov	ecx, DWORD PTR [esi+56]
	cmp	DWORD PTR [ecx], edi
	jne	SHORT $LN23@CLensFlare@2
	mov	DWORD PTR [esi+56], edi
$LN23@CLensFlare@2:
	mov	edx, DWORD PTR __imp_?RenderFactory@@3PAVIRenderFactory@@A
	mov	ecx, DWORD PTR [edx]
	mov	eax, DWORD PTR [ecx]
	mov	edx, DWORD PTR [esi+36]
	mov	eax, DWORD PTR [eax+124]
	push	edx
	call	eax
	mov	DWORD PTR [esi+36], edi
	mov	eax, DWORD PTR [esi+32]
	cmp	eax, edi
	je	SHORT $LN37@CLensFlare@2
	add	DWORD PTR [eax], -1
	mov	ecx, DWORD PTR [esi+32]
	cmp	DWORD PTR [ecx], edi
	jne	SHORT $LN37@CLensFlare@2
	mov	DWORD PTR [esi+32], edi
$LN37@CLensFlare@2:
	mov	eax, DWORD PTR [esi+28]
	cmp	eax, edi
	je	SHORT $LN43@CLensFlare@2
	add	DWORD PTR [eax], -1
	mov	edx, DWORD PTR [esi+28]
	cmp	DWORD PTR [edx], edi
	jne	SHORT $LN43@CLensFlare@2
	mov	DWORD PTR [esi+28], edi
$LN43@CLensFlare@2:
	mov	ecx, DWORD PTR [esi+4]
	mov	eax, DWORD PTR [esi]
	push	ecx
	mov	edx, esp
	mov	DWORD PTR [edx], eax
	push	ecx
	mov	eax, esp
	mov	DWORD PTR [eax], ecx
	call	??$__destroy_range_aux@V?$reverse_iterator@PAUSFlare@CLensFlareDescriptor@@@stlp_std@@USFlare@CLensFlareDescriptor@@@stlp_std@@YAXV?$reverse_iterator@PAUSFlare@CLensFlareDescriptor@@@0@0PAUSFlare@CLensFlareDescriptor@@ABU__false_type@0@@Z ; stlp_std::__destroy_range_aux<stlp_std::reverse_iterator<CLensFlareDescriptor::SFlare *>,CLensFlareDescriptor::SFlare>
	mov	esi, DWORD PTR [esi]
	add	esp, 8
	cmp	esi, edi
	je	SHORT $LN82@CLensFlare@2
	mov	ecx, DWORD PTR __imp_?Memory@@3VxrMemory@@A
	push	esi
	call	DWORD PTR __imp_?mem_free@xrMemory@@QAEXPAX@Z
$LN82@CLensFlare@2:
	pop	edi
	pop	esi
	ret	0
??1CLensFlareDescriptor@@QAE@XZ ENDP			; CLensFlareDescriptor::~CLensFlareDescriptor
; Function compile flags: /Ogtpy
; File d:\clearsky\sources\sdk\include\stlport\stl\_construct.h
;	COMDAT ??$_Param_Construct@USFlare@CLensFlareDescriptor@@U12@@stlp_std@@YAXPAUSFlare@CLensFlareDescriptor@@ABU12@@Z
_TEXT	SEGMENT
??$_Param_Construct@USFlare@CLensFlareDescriptor@@U12@@stlp_std@@YAXPAUSFlare@CLensFlareDescriptor@@ABU12@@Z PROC ; stlp_std::_Param_Construct<CLensFlareDescriptor::SFlare,CLensFlareDescriptor::SFlare>, COMDAT
; ___p$ = eax
; ___val$ = edi

; 117  : inline void _Param_Construct(_T1* __p, const _T2& __val) {

	push	esi
	mov	esi, eax

; 118  : #if defined (_STLP_DEBUG_UNINITIALIZED)
; 119  :   memset((char*)__p, _STLP_SHRED_BYTE, sizeof(_T1));
; 120  : #endif
; 121  :   _STLP_PLACEMENT_NEW (__p) _T1(__val);

	test	esi, esi
	je	SHORT $LN3@Param_Cons@22
	call	??0SFlare@CLensFlareDescriptor@@QAE@ABU01@@Z
$LN3@Param_Cons@22:
	pop	esi

; 122  : }

	ret	0
??$_Param_Construct@USFlare@CLensFlareDescriptor@@U12@@stlp_std@@YAXPAUSFlare@CLensFlareDescriptor@@ABU12@@Z ENDP ; stlp_std::_Param_Construct<CLensFlareDescriptor::SFlare,CLensFlareDescriptor::SFlare>
; Function compile flags: /Ogtpy
; File d:\clearsky\sources\sdk\include\stlport\stl\_algobase.h
_TEXT	ENDS
;	COMDAT ??$__copy@PBUSFlare@CLensFlareDescriptor@@PAU12@H@priv@stlp_std@@YAPAUSFlare@CLensFlareDescriptor@@PBU23@0PAU23@ABUrandom_access_iterator_tag@1@PAH@Z
_TEXT	SEGMENT
??$__copy@PBUSFlare@CLensFlareDescriptor@@PAU12@H@priv@stlp_std@@YAPAUSFlare@CLensFlareDescriptor@@PBU23@0PAU23@ABUrandom_access_iterator_tag@1@PAH@Z PROC ; stlp_std::priv::__copy<CLensFlareDescriptor::SFlare const *,CLensFlareDescriptor::SFlare *,int>, COMDAT
; ___first$ = edx
; ___last$ = eax
; ___result$ = ecx

; 200  :        _OutputIter __result, const random_access_iterator_tag &, _Distance*) {

	push	ebx
	push	ebp
	push	esi
	push	edi
	mov	edi, edx

; 201  :   for (_Distance __n = __last - __first; __n > 0; --__n) {

	sub	eax, edi
	mov	esi, ecx
	mov	ecx, eax
	mov	eax, 715827883				; 2aaaaaabH
	imul	ecx
	sar	edx, 2
	mov	ebx, edx
	shr	ebx, 31					; 0000001fH
	add	ebx, edx
	xor	ebp, ebp
	cmp	ebx, ebp
	jle	SHORT $LN30@copy@27
$LL3@copy@27:

; 202  :     *__result = *__first;

	fld	DWORD PTR [edi]
	fstp	DWORD PTR [esi]
	fld	DWORD PTR [edi+4]
	fstp	DWORD PTR [esi+4]
	fld	DWORD PTR [edi+8]
	fstp	DWORD PTR [esi+8]
	mov	ecx, DWORD PTR [edi+12]
	cmp	ecx, ebp
	je	SHORT $LN31@copy@27
	add	DWORD PTR [ecx], 1
$LN31@copy@27:
	mov	eax, DWORD PTR [esi+12]
	cmp	eax, ebp
	je	SHORT $LN32@copy@27
	add	DWORD PTR [eax], -1
	mov	eax, DWORD PTR [esi+12]
	cmp	DWORD PTR [eax], ebp
	jne	SHORT $LN32@copy@27
	mov	DWORD PTR [esi+12], ebp
$LN32@copy@27:
	mov	DWORD PTR [esi+12], ecx
	mov	eax, DWORD PTR [edi+16]
	cmp	eax, ebp
	je	SHORT $LN19@copy@27
	add	DWORD PTR [eax], 1
$LN19@copy@27:
	mov	ecx, DWORD PTR [esi+16]
	cmp	ecx, ebp
	je	SHORT $LN22@copy@27
	add	DWORD PTR [ecx], -1
	mov	ecx, DWORD PTR [esi+16]
	cmp	DWORD PTR [ecx], ebp
	jne	SHORT $LN22@copy@27
	mov	DWORD PTR [esi+16], ebp
$LN22@copy@27:
	mov	DWORD PTR [esi+16], eax
	mov	ecx, DWORD PTR [esi+20]
	mov	edx, DWORD PTR [ecx]
	mov	eax, DWORD PTR [edi+20]
	mov	edx, DWORD PTR [edx+4]
	push	eax
	call	edx
	sub	ebx, 1

; 203  :     ++__first;

	add	edi, 24					; 00000018H

; 204  :     ++__result;

	add	esi, 24					; 00000018H
	cmp	ebx, ebp
	jg	SHORT $LL3@copy@27
$LN30@copy@27:
	pop	edi

; 205  :   }
; 206  :   return __result;

	mov	eax, esi
	pop	esi
	pop	ebp
	pop	ebx

; 207  : }

	ret	0
??$__copy@PBUSFlare@CLensFlareDescriptor@@PAU12@H@priv@stlp_std@@YAPAUSFlare@CLensFlareDescriptor@@PBU23@0PAU23@ABUrandom_access_iterator_tag@1@PAH@Z ENDP ; stlp_std::priv::__copy<CLensFlareDescriptor::SFlare const *,CLensFlareDescriptor::SFlare *,int>
; Function compile flags: /Ogtpy
; File d:\clearsky\sources\sdk\include\stlport\stl\_uninitialized.h
_TEXT	ENDS
;	COMDAT ??$__ucopy@PBUSFlare@CLensFlareDescriptor@@PAU12@H@priv@stlp_std@@YAPAUSFlare@CLensFlareDescriptor@@PBU23@0PAU23@ABUrandom_access_iterator_tag@1@PAH@Z
_TEXT	SEGMENT
??$__ucopy@PBUSFlare@CLensFlareDescriptor@@PAU12@H@priv@stlp_std@@YAPAUSFlare@CLensFlareDescriptor@@PBU23@0PAU23@ABUrandom_access_iterator_tag@1@PAH@Z PROC ; stlp_std::priv::__ucopy<CLensFlareDescriptor::SFlare const *,CLensFlareDescriptor::SFlare *,int>, COMDAT
; ___first$ = ecx
; ___last$ = eax
; ___result$ = edx

; 83   :                            _OutputIter __result, const random_access_iterator_tag &, _Distance*) {

	push	ebx
	push	esi
	push	edi
	mov	edi, ecx

; 84   :   _OutputIter __cur = __result;
; 85   :   _STLP_TRY {
; 86   :     for (_Distance __n = __last - __first; __n > 0; --__n) {

	sub	eax, edi
	mov	ecx, eax
	mov	esi, edx
	mov	eax, 715827883				; 2aaaaaabH
	imul	ecx
	sar	edx, 2
	mov	ebx, edx
	shr	ebx, 31					; 0000001fH
	add	ebx, edx
	test	ebx, ebx
	jle	SHORT $LN14@ucopy@22
$LL3@ucopy@22:

; 87   :       _Param_Construct(&*__cur, *__first);

	test	esi, esi
	je	SHORT $LN8@ucopy@22
	call	??0SFlare@CLensFlareDescriptor@@QAE@ABU01@@Z
$LN8@ucopy@22:
	sub	ebx, 1

; 88   :       ++__first;

	add	edi, 24					; 00000018H

; 89   :       ++__cur;

	add	esi, 24					; 00000018H
	test	ebx, ebx
	jg	SHORT $LL3@ucopy@22
$LN14@ucopy@22:
	pop	edi

; 90   :     }
; 91   :     return __cur;

	mov	eax, esi
	pop	esi
	pop	ebx

; 92   :   }
; 93   :   _STLP_UNWIND(_STLP_STD::_Destroy_Range(__result, __cur))
; 94   :   _STLP_RET_AFTER_THROW(__cur)
; 95   : }

	ret	0
??$__ucopy@PBUSFlare@CLensFlareDescriptor@@PAU12@H@priv@stlp_std@@YAPAUSFlare@CLensFlareDescriptor@@PBU23@0PAU23@ABUrandom_access_iterator_tag@1@PAH@Z ENDP ; stlp_std::priv::__ucopy<CLensFlareDescriptor::SFlare const *,CLensFlareDescriptor::SFlare *,int>
; Function compile flags: /Ogtpy
; File d:\clearsky\sources\sdk\include\stlport\stl\_algobase.h
_TEXT	ENDS
;	COMDAT ??$__copy_ptrs@PBUSFlare@CLensFlareDescriptor@@PAU12@@priv@stlp_std@@YAPAUSFlare@CLensFlareDescriptor@@PBU23@0PAU23@ABU__false_type@1@@Z
_TEXT	SEGMENT
??$__copy_ptrs@PBUSFlare@CLensFlareDescriptor@@PAU12@@priv@stlp_std@@YAPAUSFlare@CLensFlareDescriptor@@PBU23@0PAU23@ABU__false_type@1@@Z PROC ; stlp_std::priv::__copy_ptrs<CLensFlareDescriptor::SFlare const *,CLensFlareDescriptor::SFlare *>, COMDAT
; ___first$ = edx
; ___last$ = eax
; ___result$ = ecx

; 250  :   return __copy(__first, __last, __result, random_access_iterator_tag(), (ptrdiff_t*)0);

	jmp	??$__copy@PBUSFlare@CLensFlareDescriptor@@PAU12@H@priv@stlp_std@@YAPAUSFlare@CLensFlareDescriptor@@PBU23@0PAU23@ABUrandom_access_iterator_tag@1@PAH@Z ; stlp_std::priv::__copy<CLensFlareDescriptor::SFlare const *,CLensFlareDescriptor::SFlare *,int>
??$__copy_ptrs@PBUSFlare@CLensFlareDescriptor@@PAU12@@priv@stlp_std@@YAPAUSFlare@CLensFlareDescriptor@@PBU23@0PAU23@ABU__false_type@1@@Z ENDP ; stlp_std::priv::__copy_ptrs<CLensFlareDescriptor::SFlare const *,CLensFlareDescriptor::SFlare *>
; Function compile flags: /Ogtpy
_TEXT	ENDS
;	COMDAT ??_GCEnvDescriptorMixer@@QAEPAXI@Z
_TEXT	SEGMENT
??_GCEnvDescriptorMixer@@QAEPAXI@Z PROC			; CEnvDescriptorMixer::`scalar deleting destructor', COMDAT
; _this$ = esi
	lea	ecx, DWORD PTR [esi+188]
	call	??1?$FactoryPtr@VIEnvDescriptorMixerRender@@@@QAE@XZ ; FactoryPtr<IEnvDescriptorMixerRender>::~FactoryPtr<IEnvDescriptorMixerRender>
	mov	ecx, esi
	call	??1CEnvDescriptor@@QAE@XZ
	mov	eax, esi
	ret	0
??_GCEnvDescriptorMixer@@QAEPAXI@Z ENDP			; CEnvDescriptorMixer::`scalar deleting destructor'
; Function compile flags: /Ogtpy
_TEXT	ENDS
;	COMDAT ??_GCPerlinNoise1D@@QAEPAXI@Z
_TEXT	SEGMENT
??_GCPerlinNoise1D@@QAEPAXI@Z PROC			; CPerlinNoise1D::`scalar deleting destructor', COMDAT
; _this$ = esi
	lea	ecx, DWORD PTR [esi+2076]
	call	??1?$_Impl_vector@MV?$xalloc@M@@@priv@stlp_std@@QAE@XZ ; stlp_std::priv::_Impl_vector<float,xalloc<float> >::~_Impl_vector<float,xalloc<float> >
	mov	eax, esi
	ret	0
??_GCPerlinNoise1D@@QAEPAXI@Z ENDP			; CPerlinNoise1D::`scalar deleting destructor'
; Function compile flags: /Ogtpy
; File d:\clearsky\sources\engine\xrcore\xrmemory_subst_msvc.h
_TEXT	ENDS
;	COMDAT ??R?$xr_special_free@$0A@VCEnvDescriptorMixer@@@@QAEXAAPAVCEnvDescriptorMixer@@@Z
_TEXT	SEGMENT
??R?$xr_special_free@$0A@VCEnvDescriptorMixer@@@@QAEXAAPAVCEnvDescriptorMixer@@@Z PROC ; xr_special_free<0,CEnvDescriptorMixer>::operator(), COMDAT
; _ptr$ = edi

; 142  : 	{

	push	esi

; 143  : 		ptr->~T			();

	mov	esi, DWORD PTR [edi]
	lea	ecx, DWORD PTR [esi+188]
	call	??1?$FactoryPtr@VIEnvDescriptorMixerRender@@@@QAE@XZ ; FactoryPtr<IEnvDescriptorMixerRender>::~FactoryPtr<IEnvDescriptorMixerRender>
	mov	ecx, esi
	call	??1CEnvDescriptor@@QAE@XZ

; 144  : 		Memory.mem_free	(ptr);

	mov	eax, DWORD PTR [edi]
	mov	ecx, DWORD PTR __imp_?Memory@@3VxrMemory@@A
	push	eax
	call	DWORD PTR __imp_?mem_free@xrMemory@@QAEXPAX@Z
	pop	esi

; 145  : 	}

	ret	0
??R?$xr_special_free@$0A@VCEnvDescriptorMixer@@@@QAEXAAPAVCEnvDescriptorMixer@@@Z ENDP ; xr_special_free<0,CEnvDescriptorMixer>::operator()
; Function compile flags: /Ogtpy
_TEXT	ENDS
;	COMDAT ??R?$xr_special_free@$0A@VCPerlinNoise1D@@@@QAEXAAPAVCPerlinNoise1D@@@Z
_TEXT	SEGMENT
??R?$xr_special_free@$0A@VCPerlinNoise1D@@@@QAEXAAPAVCPerlinNoise1D@@@Z PROC ; xr_special_free<0,CPerlinNoise1D>::operator(), COMDAT
; _ptr$ = esi

; 143  : 		ptr->~T			();

	mov	ecx, DWORD PTR [esi]
	add	ecx, 2076				; 0000081cH
	call	??1?$_Impl_vector@MV?$xalloc@M@@@priv@stlp_std@@QAE@XZ ; stlp_std::priv::_Impl_vector<float,xalloc<float> >::~_Impl_vector<float,xalloc<float> >

; 144  : 		Memory.mem_free	(ptr);

	mov	eax, DWORD PTR [esi]
	mov	ecx, DWORD PTR __imp_?Memory@@3VxrMemory@@A
	push	eax
	call	DWORD PTR __imp_?mem_free@xrMemory@@QAEXPAX@Z

; 145  : 	}

	ret	0
??R?$xr_special_free@$0A@VCPerlinNoise1D@@@@QAEXAAPAVCPerlinNoise1D@@@Z ENDP ; xr_special_free<0,CPerlinNoise1D>::operator()
; Function compile flags: /Ogtpy
; File d:\clearsky\sources\sdk\include\stlport\stl\_vector.h
_TEXT	ENDS
;	COMDAT ?_M_clear@?$_Impl_vector@USFlare@CLensFlareDescriptor@@V?$xalloc@USFlare@CLensFlareDescriptor@@@@@priv@stlp_std@@AAEXXZ
_TEXT	SEGMENT
?_M_clear@?$_Impl_vector@USFlare@CLensFlareDescriptor@@V?$xalloc@USFlare@CLensFlareDescriptor@@@@@priv@stlp_std@@AAEXXZ PROC ; stlp_std::priv::_Impl_vector<CLensFlareDescriptor::SFlare,xalloc<CLensFlareDescriptor::SFlare> >::_M_clear, COMDAT
; _this$ = eax

; 615  :   void _M_clear() {

	push	esi
	mov	esi, eax

; 616  :     _STLP_STD::_Destroy_Range(rbegin(), rend());

	mov	ecx, DWORD PTR [esi+4]
	mov	eax, DWORD PTR [esi]
	push	ecx
	mov	edx, esp
	mov	DWORD PTR [edx], eax
	push	ecx
	mov	eax, esp
	mov	DWORD PTR [eax], ecx
	call	??$__destroy_range_aux@V?$reverse_iterator@PAUSFlare@CLensFlareDescriptor@@@stlp_std@@USFlare@CLensFlareDescriptor@@@stlp_std@@YAXV?$reverse_iterator@PAUSFlare@CLensFlareDescriptor@@@0@0PAUSFlare@CLensFlareDescriptor@@ABU__false_type@0@@Z ; stlp_std::__destroy_range_aux<stlp_std::reverse_iterator<CLensFlareDescriptor::SFlare *>,CLensFlareDescriptor::SFlare>

; 617  :     this->_M_end_of_storage.deallocate(this->_M_start, this->_M_end_of_storage._M_data - this->_M_start);

	mov	esi, DWORD PTR [esi]
	add	esp, 8
	test	esi, esi
	je	SHORT $LN29@M_clear@32
	mov	ecx, DWORD PTR __imp_?Memory@@3VxrMemory@@A
	push	esi
	call	DWORD PTR __imp_?mem_free@xrMemory@@QAEXPAX@Z
$LN29@M_clear@32:

; 618  :   }

	pop	esi
	ret	0
?_M_clear@?$_Impl_vector@USFlare@CLensFlareDescriptor@@V?$xalloc@USFlare@CLensFlareDescriptor@@@@@priv@stlp_std@@AAEXXZ ENDP ; stlp_std::priv::_Impl_vector<CLensFlareDescriptor::SFlare,xalloc<CLensFlareDescriptor::SFlare> >::_M_clear
; Function compile flags: /Ogtpy
; File d:\clearsky\sources\sdk\include\stlport\stl\_uninitialized.h
_TEXT	ENDS
;	COMDAT ??$__ucopy_ptrs@PBUSFlare@CLensFlareDescriptor@@PAU12@@priv@stlp_std@@YAPAUSFlare@CLensFlareDescriptor@@PBU23@0PAU23@ABU__false_type@1@@Z
_TEXT	SEGMENT
??$__ucopy_ptrs@PBUSFlare@CLensFlareDescriptor@@PAU12@@priv@stlp_std@@YAPAUSFlare@CLensFlareDescriptor@@PBU23@0PAU23@ABU__false_type@1@@Z PROC ; stlp_std::priv::__ucopy_ptrs<CLensFlareDescriptor::SFlare const *,CLensFlareDescriptor::SFlare *>, COMDAT
; ___first$ = ecx
; ___last$ = eax
; ___result$ = edx

; 113  : { return __ucopy(__first, __last, __result, random_access_iterator_tag(), (ptrdiff_t*)0); }

	jmp	??$__ucopy@PBUSFlare@CLensFlareDescriptor@@PAU12@H@priv@stlp_std@@YAPAUSFlare@CLensFlareDescriptor@@PBU23@0PAU23@ABUrandom_access_iterator_tag@1@PAH@Z ; stlp_std::priv::__ucopy<CLensFlareDescriptor::SFlare const *,CLensFlareDescriptor::SFlare *,int>
??$__ucopy_ptrs@PBUSFlare@CLensFlareDescriptor@@PAU12@@priv@stlp_std@@YAPAUSFlare@CLensFlareDescriptor@@PBU23@0PAU23@ABU__false_type@1@@Z ENDP ; stlp_std::priv::__ucopy_ptrs<CLensFlareDescriptor::SFlare const *,CLensFlareDescriptor::SFlare *>
; Function compile flags: /Ogtpy
; File d:\clearsky\sources\engine\xrcore\xrmemory_subst_msvc.h
_TEXT	ENDS
;	COMDAT ??$xr_delete@VCEnvDescriptorMixer@@@@YAXAAPAVCEnvDescriptorMixer@@@Z
_TEXT	SEGMENT
??$xr_delete@VCEnvDescriptorMixer@@@@YAXAAPAVCEnvDescriptorMixer@@@Z PROC ; xr_delete<CEnvDescriptorMixer>, COMDAT
; _ptr$ = edi

; 150  : {

	push	esi

; 151  : 	if (ptr) 

	mov	esi, DWORD PTR [edi]
	test	esi, esi
	je	SHORT $LN1@xr_delete@41

; 152  : 	{
; 153  : 		xr_special_free<is_polymorphic<T>::result,T>()(ptr);

	lea	ecx, DWORD PTR [esi+188]
	call	??1?$FactoryPtr@VIEnvDescriptorMixerRender@@@@QAE@XZ ; FactoryPtr<IEnvDescriptorMixerRender>::~FactoryPtr<IEnvDescriptorMixerRender>
	mov	ecx, esi
	call	??1CEnvDescriptor@@QAE@XZ
	mov	eax, DWORD PTR [edi]
	mov	ecx, DWORD PTR __imp_?Memory@@3VxrMemory@@A
	push	eax
	call	DWORD PTR __imp_?mem_free@xrMemory@@QAEXPAX@Z

; 154  : 		ptr = NULL;

	mov	DWORD PTR [edi], 0
$LN1@xr_delete@41:
	pop	esi

; 155  : 	}
; 156  : }

	ret	0
??$xr_delete@VCEnvDescriptorMixer@@@@YAXAAPAVCEnvDescriptorMixer@@@Z ENDP ; xr_delete<CEnvDescriptorMixer>
; Function compile flags: /Ogtpy
_TEXT	ENDS
;	COMDAT ??$xr_new@VCEnvDescriptorMixer@@$$BY08$$CBD@@YAPAVCEnvDescriptorMixer@@AAY08$$CBD@Z
_TEXT	SEGMENT
$T456386 = -4						; size = 4
$T456383 = -4						; size = 4
??$xr_new@VCEnvDescriptorMixer@@$$BY08$$CBD@@YAPAVCEnvDescriptorMixer@@AAY08$$CBD@Z PROC ; xr_new<CEnvDescriptorMixer,char const [9]>, COMDAT

; 73   : IC	T*		xr_new		(const P1& p1) {

	push	ecx
	push	ebx
	push	esi
	push	edi
	xor	ebx, ebx

; 74   : 	T* ptr	= (T*)Memory.mem_alloc(sizeof(T));

	mov	DWORD PTR $T456386[esp+16], ebx
	mov	ecx, DWORD PTR __imp_?Memory@@3VxrMemory@@A
	push	204					; 000000ccH
	call	DWORD PTR __imp_?mem_alloc@xrMemory@@QAEPAXI@Z

; 75   : 	return new (ptr) T(p1);

	mov	esi, eax
	test	esi, esi
	je	SHORT $LN3@xr_new@34
	mov	eax, DWORD PTR __imp_?g_pStringContainer@@3PAVstr_container@@A
	mov	ecx, DWORD PTR [eax]
	push	OFFSET ??_C@_08HPPJPGGP@00?300?300?$AA@
	call	DWORD PTR __imp_?dock@str_container@@QAEPAUstr_value@@PBD@Z
	test	eax, eax
	je	SHORT $LN31@xr_new@34
	add	DWORD PTR [eax], 1
$LN31@xr_new@34:
	lea	ecx, DWORD PTR $T456383[esp+16]
	mov	edi, eax
	push	ecx
	mov	ecx, esi
	mov	DWORD PTR $T456383[esp+20], edi
	mov	ebx, 1
	call	??0CEnvDescriptor@@QAE@ABVshared_str@@@Z ; CEnvDescriptor::CEnvDescriptor
	mov	edx, DWORD PTR __imp_?RenderFactory@@3PAVIRenderFactory@@A
	mov	ecx, DWORD PTR [edx]
	mov	eax, DWORD PTR [ecx]
	mov	edx, DWORD PTR [eax+72]
	call	edx
	mov	DWORD PTR [esi+188], eax
	mov	eax, esi
	jmp	SHORT $LN4@xr_new@34
$LN3@xr_new@34:
	mov	edi, DWORD PTR $T456383[esp+16]
	xor	eax, eax
$LN4@xr_new@34:
	test	bl, 1
	je	SHORT $LN25@xr_new@34
	test	edi, edi
	je	SHORT $LN25@xr_new@34
	add	DWORD PTR [edi], -1
$LN25@xr_new@34:
	pop	edi
	pop	esi
	pop	ebx

; 76   : }

	pop	ecx
	ret	0
??$xr_new@VCEnvDescriptorMixer@@$$BY08$$CBD@@YAPAVCEnvDescriptorMixer@@AAY08$$CBD@Z ENDP ; xr_new<CEnvDescriptorMixer,char const [9]>
; Function compile flags: /Ogtpy
_TEXT	ENDS
;	COMDAT ??$xr_delete@VCPerlinNoise1D@@@@YAXAAPAVCPerlinNoise1D@@@Z
_TEXT	SEGMENT
??$xr_delete@VCPerlinNoise1D@@@@YAXAAPAVCPerlinNoise1D@@@Z PROC ; xr_delete<CPerlinNoise1D>, COMDAT
; _ptr$ = esi

; 151  : 	if (ptr) 

	mov	eax, DWORD PTR [esi]
	test	eax, eax
	je	SHORT $LN1@xr_delete@42

; 152  : 	{
; 153  : 		xr_special_free<is_polymorphic<T>::result,T>()(ptr);

	lea	ecx, DWORD PTR [eax+2076]
	call	??1?$_Impl_vector@MV?$xalloc@M@@@priv@stlp_std@@QAE@XZ ; stlp_std::priv::_Impl_vector<float,xalloc<float> >::~_Impl_vector<float,xalloc<float> >
	mov	eax, DWORD PTR [esi]
	mov	ecx, DWORD PTR __imp_?Memory@@3VxrMemory@@A
	push	eax
	call	DWORD PTR __imp_?mem_free@xrMemory@@QAEXPAX@Z

; 154  : 		ptr = NULL;

	mov	DWORD PTR [esi], 0
$LN1@xr_delete@42:

; 155  : 	}
; 156  : }

	ret	0
??$xr_delete@VCPerlinNoise1D@@@@YAXAAPAVCPerlinNoise1D@@@Z ENDP ; xr_delete<CPerlinNoise1D>
; Function compile flags: /Ogtpy
_TEXT	ENDS
;	COMDAT ??$xr_new@VCPerlinNoise1D@@H@@YAPAVCPerlinNoise1D@@ABH@Z
_TEXT	SEGMENT
_p1$ = 8						; size = 4
??$xr_new@VCPerlinNoise1D@@H@@YAPAVCPerlinNoise1D@@ABH@Z PROC ; xr_new<CPerlinNoise1D,int>, COMDAT

; 74   : 	T* ptr	= (T*)Memory.mem_alloc(sizeof(T));

	mov	ecx, DWORD PTR __imp_?Memory@@3VxrMemory@@A
	push	4148					; 00001034H
	call	DWORD PTR __imp_?mem_alloc@xrMemory@@QAEPAXI@Z

; 75   : 	return new (ptr) T(p1);

	test	eax, eax
	je	SHORT $LN3@xr_new@35
	mov	ecx, DWORD PTR _p1$[esp-4]
	mov	edx, DWORD PTR [ecx]
	push	edx
	mov	ecx, eax
	call	??0CPerlinNoise1D@@QAE@H@Z		; CPerlinNoise1D::CPerlinNoise1D

; 76   : }

	ret	0
$LN3@xr_new@35:

; 75   : 	return new (ptr) T(p1);

	xor	eax, eax

; 76   : }

	ret	0
??$xr_new@VCPerlinNoise1D@@H@@YAPAVCPerlinNoise1D@@ABH@Z ENDP ; xr_new<CPerlinNoise1D,int>
; Function compile flags: /Ogtpy
; File d:\clearsky\sources\sdk\include\stlport\stl\_vector.h
_TEXT	ENDS
;	COMDAT ??0?$_Impl_vector@USFlare@CLensFlareDescriptor@@V?$xalloc@USFlare@CLensFlareDescriptor@@@@@priv@stlp_std@@QAE@ABV012@@Z
_TEXT	SEGMENT
??0?$_Impl_vector@USFlare@CLensFlareDescriptor@@V?$xalloc@USFlare@CLensFlareDescriptor@@@@@priv@stlp_std@@QAE@ABV012@@Z PROC ; stlp_std::priv::_Impl_vector<CLensFlareDescriptor::SFlare,xalloc<CLensFlareDescriptor::SFlare> >::_Impl_vector<CLensFlareDescriptor::SFlare,xalloc<CLensFlareDescriptor::SFlare> >, COMDAT
; _this$ = esi
; ___x$ = ebx

; 236  :   { this->_M_finish = _STLP_PRIV __ucopy_ptrs(__x.begin(), __x.end(), this->_M_start, _TrivialUCopy()); }

	mov	ecx, DWORD PTR [ebx+4]
	sub	ecx, DWORD PTR [ebx]
	mov	eax, 715827883				; 2aaaaaabH
	imul	ecx
	sar	edx, 2
	mov	eax, edx
	push	edi
	shr	eax, 31					; 0000001fH
	add	eax, edx
	lea	edi, DWORD PTR [eax+eax*2]
	xor	ecx, ecx
	add	edi, edi
	mov	DWORD PTR [esi], ecx
	mov	DWORD PTR [esi+4], ecx
	add	edi, edi
	mov	DWORD PTR [esi+8], ecx
	mov	ecx, DWORD PTR __imp_?Memory@@3VxrMemory@@A
	add	edi, edi
	push	edi
	call	DWORD PTR __imp_?mem_alloc@xrMemory@@QAEPAXI@Z
	mov	edx, eax
	add	edi, edx
	mov	DWORD PTR [esi], edx
	mov	DWORD PTR [esi+4], edx
	mov	DWORD PTR [esi+8], edi
	mov	eax, DWORD PTR [ebx+4]
	mov	ecx, DWORD PTR [ebx]
	call	??$__ucopy@PBUSFlare@CLensFlareDescriptor@@PAU12@H@priv@stlp_std@@YAPAUSFlare@CLensFlareDescriptor@@PBU23@0PAU23@ABUrandom_access_iterator_tag@1@PAH@Z ; stlp_std::priv::__ucopy<CLensFlareDescriptor::SFlare const *,CLensFlareDescriptor::SFlare *,int>
	mov	DWORD PTR [esi+4], eax
	mov	eax, esi
	pop	edi
	ret	0
??0?$_Impl_vector@USFlare@CLensFlareDescriptor@@V?$xalloc@USFlare@CLensFlareDescriptor@@@@@priv@stlp_std@@QAE@ABV012@@Z ENDP ; stlp_std::priv::_Impl_vector<CLensFlareDescriptor::SFlare,xalloc<CLensFlareDescriptor::SFlare> >::_Impl_vector<CLensFlareDescriptor::SFlare,xalloc<CLensFlareDescriptor::SFlare> >
; Function compile flags: /Ogtpy
; File d:\clearsky\sources\sdk\include\stlport\stl\pointers\_vector.h
_TEXT	ENDS
;	COMDAT ??0?$vector@USFlare@CLensFlareDescriptor@@V?$xalloc@USFlare@CLensFlareDescriptor@@@@@stlp_std@@QAE@ABV?$xalloc@USFlare@CLensFlareDescriptor@@@@@Z
_TEXT	SEGMENT
??0?$vector@USFlare@CLensFlareDescriptor@@V?$xalloc@USFlare@CLensFlareDescriptor@@@@@stlp_std@@QAE@ABV?$xalloc@USFlare@CLensFlareDescriptor@@@@@Z PROC ; stlp_std::vector<CLensFlareDescriptor::SFlare,xalloc<CLensFlareDescriptor::SFlare> >::vector<CLensFlareDescriptor::SFlare,xalloc<CLensFlareDescriptor::SFlare> >, COMDAT
; _this$ = eax

; 106  :   explicit vector(const allocator_type& __a = allocator_type())

	xor	ecx, ecx
	mov	DWORD PTR [eax], ecx
	mov	DWORD PTR [eax+4], ecx
	mov	DWORD PTR [eax+8], ecx
	ret	0
??0?$vector@USFlare@CLensFlareDescriptor@@V?$xalloc@USFlare@CLensFlareDescriptor@@@@@stlp_std@@QAE@ABV?$xalloc@USFlare@CLensFlareDescriptor@@@@@Z ENDP ; stlp_std::vector<CLensFlareDescriptor::SFlare,xalloc<CLensFlareDescriptor::SFlare> >::vector<CLensFlareDescriptor::SFlare,xalloc<CLensFlareDescriptor::SFlare> >
; Function compile flags: /Ogtpy
_TEXT	ENDS
;	COMDAT ?push_back@?$vector@PAVCLensFlareDescriptor@@V?$xalloc@PAVCLensFlareDescriptor@@@@@stlp_std@@QAEXABQAVCLensFlareDescriptor@@@Z
_TEXT	SEGMENT
?push_back@?$vector@PAVCLensFlareDescriptor@@V?$xalloc@PAVCLensFlareDescriptor@@@@@stlp_std@@QAEXABQAVCLensFlareDescriptor@@@Z PROC ; stlp_std::vector<CLensFlareDescriptor *,xalloc<CLensFlareDescriptor *> >::push_back, COMDAT
; _this$ = ecx
; ___x$ = eax

; 171  :   { _M_impl.push_back(cast_traits::to_storage_type_cref(__x)); }

	push	edi
	mov	edi, ecx
	mov	ecx, DWORD PTR [edi+4]
	cmp	ecx, DWORD PTR [edi+8]
	je	SHORT $LN8@push_back@56
	push	eax
	push	ecx
	call	??$_Copy_Construct@PAX@stlp_std@@YAXPAPAXABQAX@Z ; stlp_std::_Copy_Construct<void *>
	add	esp, 8
	add	DWORD PTR [edi+4], 4
	pop	edi
	ret	0
$LN8@push_back@56:
	push	1
	push	1
	push	ecx
	call	?_M_insert_overflow@?$_Impl_vector@PAXV?$xalloc@PAX@@@priv@stlp_std@@AAEXPAPAXABQAXABU__true_type@3@I_N@Z ; stlp_std::priv::_Impl_vector<void *,xalloc<void *> >::_M_insert_overflow
	pop	edi
	ret	0
?push_back@?$vector@PAVCLensFlareDescriptor@@V?$xalloc@PAVCLensFlareDescriptor@@@@@stlp_std@@QAEXABQAVCLensFlareDescriptor@@@Z ENDP ; stlp_std::vector<CLensFlareDescriptor *,xalloc<CLensFlareDescriptor *> >::push_back
; Function compile flags: /Ogtpy
_TEXT	ENDS
;	COMDAT ??0?$vector@USFlare@CLensFlareDescriptor@@V?$xalloc@USFlare@CLensFlareDescriptor@@@@@stlp_std@@QAE@ABV01@@Z
_TEXT	SEGMENT
??0?$vector@USFlare@CLensFlareDescriptor@@V?$xalloc@USFlare@CLensFlareDescriptor@@@@@stlp_std@@QAE@ABV01@@Z PROC ; stlp_std::vector<CLensFlareDescriptor::SFlare,xalloc<CLensFlareDescriptor::SFlare> >::vector<CLensFlareDescriptor::SFlare,xalloc<CLensFlareDescriptor::SFlare> >, COMDAT
; _this$ = eax
; ___x$ = ebx

; 123  :   vector(const _Self& __x)

	push	esi
	mov	esi, eax
	call	??0?$_Impl_vector@USFlare@CLensFlareDescriptor@@V?$xalloc@USFlare@CLensFlareDescriptor@@@@@priv@stlp_std@@QAE@ABV012@@Z ; stlp_std::priv::_Impl_vector<CLensFlareDescriptor::SFlare,xalloc<CLensFlareDescriptor::SFlare> >::_Impl_vector<CLensFlareDescriptor::SFlare,xalloc<CLensFlareDescriptor::SFlare> >
	mov	eax, esi
	pop	esi
	ret	0
??0?$vector@USFlare@CLensFlareDescriptor@@V?$xalloc@USFlare@CLensFlareDescriptor@@@@@stlp_std@@QAE@ABV01@@Z ENDP ; stlp_std::vector<CLensFlareDescriptor::SFlare,xalloc<CLensFlareDescriptor::SFlare> >::vector<CLensFlareDescriptor::SFlare,xalloc<CLensFlareDescriptor::SFlare> >
; Function compile flags: /Ogtpy
; File d:\clearsky\sources\engine\xrcore\_stl_extensions.h
_TEXT	ENDS
;	COMDAT ??0?$xr_vector@USFlare@CLensFlareDescriptor@@V?$xalloc@USFlare@CLensFlareDescriptor@@@@@@QAE@XZ
_TEXT	SEGMENT
??0?$xr_vector@USFlare@CLensFlareDescriptor@@V?$xalloc@USFlare@CLensFlareDescriptor@@@@@@QAE@XZ PROC ; xr_vector<CLensFlareDescriptor::SFlare,xalloc<CLensFlareDescriptor::SFlare> >::xr_vector<CLensFlareDescriptor::SFlare,xalloc<CLensFlareDescriptor::SFlare> >, COMDAT
; _this$ = eax

; 123  : 			xr_vector			()									: inherited	()					{}

	xor	ecx, ecx
	mov	DWORD PTR [eax], ecx
	mov	DWORD PTR [eax+4], ecx
	mov	DWORD PTR [eax+8], ecx
	ret	0
??0?$xr_vector@USFlare@CLensFlareDescriptor@@V?$xalloc@USFlare@CLensFlareDescriptor@@@@@@QAE@XZ ENDP ; xr_vector<CLensFlareDescriptor::SFlare,xalloc<CLensFlareDescriptor::SFlare> >::xr_vector<CLensFlareDescriptor::SFlare,xalloc<CLensFlareDescriptor::SFlare> >
; Function compile flags: /Ogtpy
; File d:\clearsky\sources\sdk\include\stlport\stl\_map.h
_TEXT	ENDS
;	COMDAT ??0?$map@Vshared_str@@V?$xr_vector@PAVCEnvDescriptor@@V?$xalloc@PAVCEnvDescriptor@@@@@@Ustr_pred@CEnvironment@@V?$xalloc@U?$pair@Vshared_str@@V?$xr_vector@PAVCEnvDescriptor@@V?$xalloc@PAVCEnvDescriptor@@@@@@@stlp_std@@@@@stlp_std@@QAE@XZ
_TEXT	SEGMENT
$T456730 = -1						; size = 1
??0?$map@Vshared_str@@V?$xr_vector@PAVCEnvDescriptor@@V?$xalloc@PAVCEnvDescriptor@@@@@@Ustr_pred@CEnvironment@@V?$xalloc@U?$pair@Vshared_str@@V?$xr_vector@PAVCEnvDescriptor@@V?$xalloc@PAVCEnvDescriptor@@@@@@@stlp_std@@@@@stlp_std@@QAE@XZ PROC ; stlp_std::map<shared_str,xr_vector<CEnvDescriptor *,xalloc<CEnvDescriptor *> >,CEnvironment::str_pred,xalloc<stlp_std::pair<shared_str,xr_vector<CEnvDescriptor *,xalloc<CEnvDescriptor *> > > > >::map<shared_str,xr_vector<CEnvDescriptor *,xalloc<CEnvDescriptor *> >,CEnvironment::str_pred,xalloc<stlp_std::pair<shared_str,xr_vector<CEnvDescriptor *,xalloc<CEnvDescriptor *> > > > >, COMDAT
; _this$ = esi

; 99   :   map() : _M_t(_Compare(), allocator_type()) {}

	push	ecx
	lea	eax, DWORD PTR $T456730[esp+4]
	push	eax
	mov	ecx, esi
	call	??0?$_Rb_tree_base@U?$pair@$$CBVshared_str@@V?$xr_vector@PAVCEnvDescriptor@@V?$xalloc@PAVCEnvDescriptor@@@@@@@stlp_std@@V?$xalloc@U?$pair@Vshared_str@@V?$xr_vector@PAVCEnvDescriptor@@V?$xalloc@PAVCEnvDescriptor@@@@@@@stlp_std@@@@@priv@stlp_std@@IAE@ABV?$xalloc@U?$pair@$$CBVshared_str@@V?$xr_vector@PAVCEnvDescriptor@@V?$xalloc@PAVCEnvDescriptor@@@@@@@stlp_std@@@@@Z ; stlp_std::priv::_Rb_tree_base<stlp_std::pair<shared_str const ,xr_vector<CEnvDescriptor *,xalloc<CEnvDescriptor *> > >,xalloc<stlp_std::pair<shared_str,xr_vector<CEnvDescriptor *,xalloc<CEnvDescriptor *> > > > >::_Rb_tree_base<stlp_std::pair<shared_str const ,xr_vector<CEnvDescriptor *,xalloc<CEnvDescriptor *> > >,xalloc<stlp_std::pair<shared_str,xr_vector<CEnvDescriptor *,xalloc<CEnvDescriptor *> > > > >
	mov	DWORD PTR [esi+16], 0
	mov	eax, esi
	pop	ecx
	ret	0
??0?$map@Vshared_str@@V?$xr_vector@PAVCEnvDescriptor@@V?$xalloc@PAVCEnvDescriptor@@@@@@Ustr_pred@CEnvironment@@V?$xalloc@U?$pair@Vshared_str@@V?$xr_vector@PAVCEnvDescriptor@@V?$xalloc@PAVCEnvDescriptor@@@@@@@stlp_std@@@@@stlp_std@@QAE@XZ ENDP ; stlp_std::map<shared_str,xr_vector<CEnvDescriptor *,xalloc<CEnvDescriptor *> >,CEnvironment::str_pred,xalloc<stlp_std::pair<shared_str,xr_vector<CEnvDescriptor *,xalloc<CEnvDescriptor *> > > > >::map<shared_str,xr_vector<CEnvDescriptor *,xalloc<CEnvDescriptor *> >,CEnvironment::str_pred,xalloc<stlp_std::pair<shared_str,xr_vector<CEnvDescriptor *,xalloc<CEnvDescriptor *> > > > >
_TEXT	ENDS
PUBLIC	?thunderbolt_description@CEnvironment@@QAEPAUSThunderboltDesc@@AAVCInifile@@ABVshared_str@@@Z ; CEnvironment::thunderbolt_description
; Function compile flags: /Ogtpy
; File d:\clearsky\sources\engine\xrengine\environment.cpp
;	COMDAT ?thunderbolt_description@CEnvironment@@QAEPAUSThunderboltDesc@@AAVCInifile@@ABVshared_str@@@Z
_TEXT	SEGMENT
_config$ = 8						; size = 4
_section$ = 12						; size = 4
?thunderbolt_description@CEnvironment@@QAEPAUSThunderboltDesc@@AAVCInifile@@ABVshared_str@@@Z PROC ; CEnvironment::thunderbolt_description, COMDAT
; _this$ = ecx

; 611  : 	SThunderboltDesc*		result = xr_new<SThunderboltDesc>();

	mov	ecx, DWORD PTR __imp_?Memory@@3VxrMemory@@A
	push	esi
	push	edi
	push	24					; 00000018H
	call	DWORD PTR __imp_?mem_alloc@xrMemory@@QAEPAXI@Z
	mov	esi, eax
	xor	edi, edi
	cmp	esi, edi
	je	SHORT $LN5@thunderbol@2
	mov	eax, DWORD PTR __imp_?RenderFactory@@3PAVIRenderFactory@@A
	mov	ecx, DWORD PTR [eax]
	mov	edx, DWORD PTR [ecx]
	mov	eax, DWORD PTR [edx+112]
	call	eax
	mov	DWORD PTR [esi], eax
	mov	DWORD PTR [esi+4], edi
	mov	DWORD PTR [esi+8], edi
	mov	DWORD PTR [esi+12], edi
	mov	DWORD PTR [esi+16], edi
	mov	edi, esi
$LN5@thunderbol@2:

; 612  : 	result->load			(config, section);

	mov	eax, DWORD PTR _section$[esp+4]
	mov	esi, DWORD PTR _config$[esp+4]
	mov	ecx, edi
	call	?load@SThunderboltDesc@@QAEXAAVCInifile@@ABVshared_str@@@Z ; SThunderboltDesc::load

; 613  : 	return					(result);

	mov	eax, edi
	pop	edi
	pop	esi

; 614  : }

	ret	8
?thunderbolt_description@CEnvironment@@QAEPAUSThunderboltDesc@@AAVCInifile@@ABVshared_str@@@Z ENDP ; CEnvironment::thunderbolt_description
_TEXT	ENDS
PUBLIC	?destroy_mixer@CEnvironment@@IAEXXZ		; CEnvironment::destroy_mixer
; Function compile flags: /Ogtpy
;	COMDAT ?destroy_mixer@CEnvironment@@IAEXXZ
_TEXT	SEGMENT
?destroy_mixer@CEnvironment@@IAEXXZ PROC		; CEnvironment::destroy_mixer, COMDAT
; _this$ = ecx

; 605  : {

	push	esi
	mov	esi, ecx
	push	edi

; 606  : 	xr_delete				(CurrentEnv);

	mov	edi, DWORD PTR [esi+120]
	test	edi, edi
	je	SHORT $LN3@destroy_mi
	lea	ecx, DWORD PTR [edi+188]
	call	??1?$FactoryPtr@VIEnvDescriptorMixerRender@@@@QAE@XZ ; FactoryPtr<IEnvDescriptorMixerRender>::~FactoryPtr<IEnvDescriptorMixerRender>
	mov	ecx, edi
	call	??1CEnvDescriptor@@QAE@XZ
	mov	eax, DWORD PTR [esi+120]
	mov	ecx, DWORD PTR __imp_?Memory@@3VxrMemory@@A
	push	eax
	call	DWORD PTR __imp_?mem_free@xrMemory@@QAEXPAX@Z
	mov	DWORD PTR [esi+120], 0
$LN3@destroy_mi:
	pop	edi
	pop	esi

; 607  : }

	ret	0
?destroy_mixer@CEnvironment@@IAEXXZ ENDP		; CEnvironment::destroy_mixer
_TEXT	ENDS
PUBLIC	?create_mixer@CEnvironment@@IAEXXZ		; CEnvironment::create_mixer
; Function compile flags: /Ogtpy
;	COMDAT ?create_mixer@CEnvironment@@IAEXXZ
_TEXT	SEGMENT
?create_mixer@CEnvironment@@IAEXXZ PROC			; CEnvironment::create_mixer, COMDAT
; _this$ = ecx

; 599  : {

	push	esi
	mov	esi, ecx

; 600  : 	VERIFY					(!CurrentEnv);
; 601  : 	CurrentEnv				= xr_new<CEnvDescriptorMixer>("00:00:00");

	call	??$xr_new@VCEnvDescriptorMixer@@$$BY08$$CBD@@YAPAVCEnvDescriptorMixer@@AAY08$$CBD@Z ; xr_new<CEnvDescriptorMixer,char const [9]>
	mov	DWORD PTR [esi+120], eax
	pop	esi

; 602  : }

	ret	0
?create_mixer@CEnvironment@@IAEXXZ ENDP			; CEnvironment::create_mixer
_TEXT	ENDS
PUBLIC	?StopWFX@CEnvironment@@QAEXXZ			; CEnvironment::StopWFX
; Function compile flags: /Ogtpy
;	COMDAT ?StopWFX@CEnvironment@@QAEXXZ
_TEXT	SEGMENT
?StopWFX@CEnvironment@@QAEXXZ PROC			; CEnvironment::StopWFX, COMDAT
; _this$ = ecx

; 376  : {

	push	esi

; 377  : 	VERIFY					(CurrentCycleName.size());
; 378  : 	bWFX					= false;
; 379  : 	SetWeather				(CurrentCycleName,false);

	push	0
	mov	esi, ecx
	push	ecx
	mov	eax, esp
	mov	BYTE PTR [esi+132], 0
	mov	DWORD PTR [eax], 0
	mov	edx, DWORD PTR [esi+156]
	test	edx, edx
	je	SHORT $LN8@StopWFX
	add	DWORD PTR [edx], 1
$LN8@StopWFX:
	mov	ecx, DWORD PTR [eax]
	test	ecx, ecx
	je	SHORT $LN11@StopWFX
	add	DWORD PTR [ecx], -1
	mov	ecx, DWORD PTR [eax]
	cmp	DWORD PTR [ecx], 0
	jne	SHORT $LN11@StopWFX
	mov	DWORD PTR [eax], 0
$LN11@StopWFX:
	mov	ecx, esi
	mov	DWORD PTR [eax], edx
	call	?SetWeather@CEnvironment@@QAEXVshared_str@@_N@Z ; CEnvironment::SetWeather

; 380  : 	Current[0]				= WFX_end_desc[0];

	mov	edx, DWORD PTR [esi+140]

; 381  : 	Current[1]				= WFX_end_desc[1];

	mov	eax, DWORD PTR [esi+144]
	mov	DWORD PTR [esi+124], edx
	mov	DWORD PTR [esi+128], eax

; 382  : #ifdef WEATHER_LOGGING
; 383  : 	Msg						("WFX - end. Weather: '%s' Desc: '%s'/'%s' GameTime: %3.2f",CurrentWeatherName.c_str(),Current[0]->m_identifier.c_str(),Current[1]->m_identifier.c_str(),fGameTime);
; 384  : #endif
; 385  : }

	pop	esi
	ret	0
?StopWFX@CEnvironment@@QAEXXZ ENDP			; CEnvironment::StopWFX
_TEXT	ENDS
PUBLIC	?SetWeatherFX@CEnvironment@@QAE_NVshared_str@@@Z ; CEnvironment::SetWeatherFX
; Function compile flags: /Ogtpy
;	COMDAT ?SetWeatherFX@CEnvironment@@QAE_NVshared_str@@@Z
_TEXT	SEGMENT
_current_length$130665 = -32				; size = 4
_start_tm$130664 = -28					; size = 4
_CE$130681 = -24					; size = 4
_rewind_tm$130663 = -20					; size = 4
_C1$130680 = -16					; size = 4
_tm1$457705 = -12					; size = 4
_tm1$457428 = -12					; size = 4
_tm0$457412 = -12					; size = 4
_tm0$457704 = -8					; size = 4
$T457590 = -8						; size = 4
$T457701 = -8						; size = 4
_tm0$457427 = -8					; size = 4
_tm1$457413 = -8					; size = 4
_C0$130679 = -4						; size = 4
_name$ = 8						; size = 4
?SetWeatherFX@CEnvironment@@QAE_NVshared_str@@@Z PROC	; CEnvironment::SetWeatherFX, COMDAT
; _this$ = ecx

; 307  : {

	sub	esp, 32					; 00000020H
	push	esi
	mov	esi, ecx

; 308  : 	if (bWFX)				return false;

	cmp	BYTE PTR [esi+132], 0
	je	SHORT $LN15@SetWeather@2
	mov	eax, DWORD PTR _name$[esp+32]
	test	eax, eax
	je	SHORT $LN22@SetWeather@2
	add	DWORD PTR [eax], -1
$LN22@SetWeather@2:
	xor	al, al
	pop	esi

; 361  : }

	add	esp, 32					; 00000020H
	ret	4
$LN15@SetWeather@2:
	push	ebx
	push	ebp
	push	edi

; 309  : 	if (name.size()){

	mov	edi, DWORD PTR _name$[esp+44]
	test	edi, edi
	je	$LN14@SetWeather@2
	cmp	DWORD PTR [edi+4], 0
	je	$LN14@SetWeather@2

; 310  : 		EnvsMapIt it		= WeatherFXs.find(name);

	lea	ebp, DWORD PTR [esi+184]
	push	ebp
	lea	ebx, DWORD PTR _name$[esp+48]
	call	??$_M_find@Vshared_str@@@?$_Rb_tree@Vshared_str@@Ustr_pred@CEnvironment@@U?$pair@$$CBVshared_str@@V?$xr_vector@PAVCEnvDescriptor@@V?$xalloc@PAVCEnvDescriptor@@@@@@@stlp_std@@U?$_Select1st@U?$pair@$$CBVshared_str@@V?$xr_vector@PAVCEnvDescriptor@@V?$xalloc@PAVCEnvDescriptor@@@@@@@stlp_std@@@priv@5@U?$_MapTraitsT@U?$pair@$$CBVshared_str@@V?$xr_vector@PAVCEnvDescriptor@@V?$xalloc@PAVCEnvDescriptor@@@@@@@stlp_std@@@75@V?$xalloc@U?$pair@Vshared_str@@V?$xr_vector@PAVCEnvDescriptor@@V?$xalloc@PAVCEnvDescriptor@@@@@@@stlp_std@@@@@priv@stlp_std@@ABEPAU_Rb_tree_node_base@12@ABVshared_str@@@Z ; stlp_std::priv::_Rb_tree<shared_str,CEnvironment::str_pred,stlp_std::pair<shared_str const ,xr_vector<CEnvDescriptor *,xalloc<CEnvDescriptor *> > >,stlp_std::priv::_Select1st<stlp_std::pair<shared_str const ,xr_vector<CEnvDescriptor *,xalloc<CEnvDescriptor *> > > >,stlp_std::priv::_MapTraitsT<stlp_std::pair<shared_str const ,xr_vector<CEnvDescriptor *,xalloc<CEnvDescriptor *> > > >,xalloc<stlp_std::pair<shared_str,xr_vector<CEnvDescriptor *,xalloc<CEnvDescriptor *> > > > >::_M_find<shared_str>

; 311  : 		R_ASSERT3			(it!=WeatherFXs.end(),"Invalid weather effect name.",*name);

	cmp	BYTE PTR ?ignore_always@?8??SetWeatherFX@CEnvironment@@QAE_NVshared_str@@@Z@4_NA, 0
	mov	edi, eax
	jne	SHORT $LN12@SetWeather@2
	cmp	edi, ebp
	jne	SHORT $LN12@SetWeather@2
	mov	eax, DWORD PTR _name$[esp+44]
	mov	ecx, DWORD PTR __imp_?Debug@@3VxrDebug@@A
	push	OFFSET ?ignore_always@?8??SetWeatherFX@CEnvironment@@QAE_NVshared_str@@@Z@4_NA
	push	OFFSET ??_C@_0BL@CDFCELPM@CEnvironment?3?3SetWeatherFX?$AA@
	push	311					; 00000137H
	push	OFFSET ??_C@_0DE@KEBEOAOH@D?3?2CLEARSKY?2sources?2engine?2xrEng@
	add	eax, 16					; 00000010H
	push	eax
	push	OFFSET ??_C@_0BN@NJOLPOOD@Invalid?5weather?5effect?5name?4?$AA@
	push	OFFSET ??_C@_0BF@KLDNMBFN@it?$CB?$DNWeatherFXs?4end?$CI?$CJ?$AA@
	call	DWORD PTR __imp_?fail@xrDebug@@QAEXPBD000H0AA_N@Z
$LN12@SetWeather@2:

; 312  : 		EnvVec* PrevWeather = CurrentWeather; VERIFY(PrevWeather);

	mov	ebp, DWORD PTR [esi+148]

; 313  : 		CurrentWeather		= &it->second;

	lea	ecx, DWORD PTR [edi+20]
	mov	DWORD PTR [esi+148], ecx

; 314  : 		CurrentWeatherName	= it->first;

	mov	edi, DWORD PTR [edi+16]
	test	edi, edi
	je	SHORT $LN66@SetWeather@2
	add	DWORD PTR [edi], 1
$LN66@SetWeather@2:
	mov	eax, DWORD PTR [esi+152]
	test	eax, eax
	je	SHORT $LN69@SetWeather@2
	add	DWORD PTR [eax], -1
	mov	edx, DWORD PTR [esi+152]
	cmp	DWORD PTR [edx], 0
	jne	SHORT $LN69@SetWeather@2
	mov	DWORD PTR [esi+152], 0
$LN69@SetWeather@2:
	mov	DWORD PTR [esi+152], edi

; 315  : 
; 316  : 		float rewind_tm		= WFX_TRANS_TIME*fTimeFactor;

	movss	xmm0, DWORD PTR [esi+244]
	mulss	xmm0, DWORD PTR __real@40a00000

; 317  : 		float start_tm		= fGameTime+rewind_tm;

	movss	xmm1, DWORD PTR [esi+28]

; 318  : 		float current_length;
; 319  : 		float current_weight;
; 320  : 		if (Current[0]->exec_time > Current[1]->exec_time){

	mov	eax, DWORD PTR [esi+124]
	mov	ecx, DWORD PTR [esi+128]
	movss	xmm2, DWORD PTR [eax]
	addss	xmm1, xmm0
	movss	DWORD PTR _rewind_tm$130663[esp+48], xmm0
	movss	xmm0, DWORD PTR [ecx]
	comiss	xmm2, xmm0
	movss	DWORD PTR _start_tm$130664[esp+48], xmm1
	jbe	SHORT $LN6@SetWeather@2

; 321  : 			float x			= fGameTime>Current[0]->exec_time?fGameTime-Current[0]->exec_time:(DAY_LENGTH-Current[0]->exec_time)+fGameTime;
; 322  : 			current_length	= (DAY_LENGTH-Current[0]->exec_time)+Current[1]->exec_time;

	movss	xmm1, DWORD PTR __real@47a8c000
	subss	xmm1, xmm2
	addss	xmm1, xmm0
	movss	DWORD PTR _current_length$130665[esp+48], xmm1

; 323  : 			current_weight	= x/current_length; 
; 324  : 		}else{

	jmp	SHORT $LN5@SetWeather@2
$LN6@SetWeather@2:

; 325  : 			current_length	= Current[1]->exec_time-Current[0]->exec_time;

	subss	xmm0, DWORD PTR [eax]
	movss	DWORD PTR _current_length$130665[esp+48], xmm0
$LN5@SetWeather@2:

; 326  : 			current_weight	= (fGameTime-Current[0]->exec_time)/current_length; 
; 327  : 		}
; 328  : 		clamp				(current_weight,0.f,1.f);
; 329  : 
; 330  : 		std::sort			(CurrentWeather->begin(),CurrentWeather->end(),sort_env_etl_pred);

	mov	edx, DWORD PTR [esi+148]
	mov	eax, DWORD PTR [edx+4]
	push	eax
	call	?cv_ptr@?$_VoidCastTraitsAux@PAXPAX@priv@stlp_std@@SAPAPAXPAPAX@Z ; stlp_std::priv::_VoidCastTraitsAux<void *,void *>::cv_ptr
	mov	ebx, eax
	mov	eax, DWORD PTR [esi+148]
	mov	eax, DWORD PTR [eax]
	add	esp, 4
	push	OFFSET ?sort_env_etl_pred@CEnvironment@@SA_NPBVCEnvDescriptor@@0@Z ; CEnvironment::sort_env_etl_pred
	push	eax
	call	?cv_ptr@?$_VoidCastTraitsAux@PAXPAX@priv@stlp_std@@SAPAPAXPAPAX@Z ; stlp_std::priv::_VoidCastTraitsAux<void *,void *>::cv_ptr
	add	esp, 4
	mov	edi, eax
	call	??$sort@PAPAVCEnvDescriptor@@P6A_NPBV1@0@Z@stlp_std@@YAXPAPAVCEnvDescriptor@@0P6A_NPBV1@1@Z@Z ; stlp_std::sort<CEnvDescriptor * *,bool (__cdecl*)(CEnvDescriptor const *,CEnvDescriptor const *)>

; 331  : 		CEnvDescriptor* C0	= CurrentWeather->at(0);

	mov	eax, DWORD PTR [esi+148]
	mov	ecx, DWORD PTR [eax]
	mov	edx, DWORD PTR [eax+4]
	sub	edx, ecx
	add	esp, 4
	sar	edx, 2
	jne	SHORT $LN98@SetWeather@2
	push	OFFSET ??_C@_06NBFPPGEG@vector?$AA@
	call	DWORD PTR __imp__puts
	add	esp, 4
	call	DWORD PTR __imp__abort
$LN403@SetWeather@2:
$LN98@SetWeather@2:

; 332  : 		CEnvDescriptor* C1	= CurrentWeather->at(1);

	mov	edx, DWORD PTR [eax+4]
	mov	edi, DWORD PTR [ecx]
	sub	edx, ecx
	sar	edx, 2
	cmp	edx, 1
	mov	DWORD PTR _C0$130679[esp+48], edi
	ja	SHORT $LN121@SetWeather@2
	push	OFFSET ??_C@_06NBFPPGEG@vector?$AA@
	call	DWORD PTR __imp__puts
	add	esp, 4
	call	DWORD PTR __imp__abort
$LN404@SetWeather@2:
$LN121@SetWeather@2:
	mov	ecx, DWORD PTR [ecx+4]

; 333  : 		CEnvDescriptor* CE	= CurrentWeather->at(CurrentWeather->size()-2);

	mov	edx, DWORD PTR [eax]
	mov	ebx, DWORD PTR [eax+4]
	mov	DWORD PTR _C1$130680[esp+48], ecx
	mov	ecx, DWORD PTR [eax+4]
	sub	ecx, DWORD PTR [eax]
	sub	ebx, edx
	sar	ecx, 2
	sub	ecx, 2
	sar	ebx, 2
	cmp	ecx, ebx
	jb	SHORT $LN149@SetWeather@2
	push	OFFSET ??_C@_06NBFPPGEG@vector?$AA@
	call	DWORD PTR __imp__puts
	add	esp, 4
	call	DWORD PTR __imp__abort
$LN405@SetWeather@2:
$LN149@SetWeather@2:
	mov	edx, DWORD PTR [edx+ecx*4]

; 334  : 		CEnvDescriptor* CT	= CurrentWeather->at(CurrentWeather->size()-1);

	mov	ecx, DWORD PTR [eax+4]
	sub	ecx, DWORD PTR [eax]
	mov	DWORD PTR _CE$130681[esp+48], edx
	mov	edx, DWORD PTR [eax]
	mov	eax, DWORD PTR [eax+4]
	sar	ecx, 2
	sub	eax, edx
	sub	ecx, 1
	sar	eax, 2
	cmp	ecx, eax
	jb	SHORT $LN177@SetWeather@2
	push	OFFSET ??_C@_06NBFPPGEG@vector?$AA@
	call	DWORD PTR __imp__puts
	add	esp, 4
	call	DWORD PTR __imp__abort
$LN406@SetWeather@2:
$LN177@SetWeather@2:
	mov	ebx, DWORD PTR [edx+ecx*4]

; 335  : 		C0->copy			(*Current[0]);	C0->exec_time = NormalizeTime(fGameTime-((rewind_tm/(Current[1]->exec_time-fGameTime))*current_length-rewind_tm));

	mov	ecx, DWORD PTR [esi+124]
	movss	xmm0, DWORD PTR [edi]
	movss	DWORD PTR _tm0$457412[esp+48], xmm0
	movss	xmm0, DWORD PTR [edi+4]
	push	ecx
	mov	ecx, edi
	movss	DWORD PTR _tm1$457413[esp+52], xmm0
	call	??4CEnvDescriptor@@QAEAAV0@ABV0@@Z
	movss	xmm0, DWORD PTR _tm0$457412[esp+48]
	movss	xmm1, DWORD PTR _rewind_tm$130663[esp+48]
	movss	DWORD PTR [edi], xmm0
	movss	xmm0, DWORD PTR _tm1$457413[esp+48]
	movss	DWORD PTR [edi+4], xmm0
	mov	edx, DWORD PTR [esi+128]
	movss	xmm0, DWORD PTR [esi+28]
	movss	xmm2, DWORD PTR [edx]
	subss	xmm2, xmm0
	movaps	xmm3, xmm1
	divss	xmm3, xmm2
	mulss	xmm3, DWORD PTR _current_length$130665[esp+48]
	subss	xmm3, xmm1
	xorps	xmm1, xmm1
	subss	xmm0, xmm3
	comiss	xmm1, xmm0
	jbe	SHORT $LN200@SetWeather@2
	addss	xmm0, DWORD PTR __real@47a8c000
	jmp	SHORT $LN198@SetWeather@2
$LN200@SetWeather@2:
	movss	xmm1, DWORD PTR __real@47a8c000
	comiss	xmm0, xmm1
	jbe	SHORT $LN198@SetWeather@2
	subss	xmm0, xmm1
$LN198@SetWeather@2:
	movss	DWORD PTR [edi], xmm0

; 336  : 		C1->copy			(*Current[1]);	C1->exec_time = NormalizeTime(start_tm);

	mov	edi, DWORD PTR _C1$130680[esp+48]
	movss	xmm0, DWORD PTR [edi]
	mov	eax, DWORD PTR [esi+128]
	movss	DWORD PTR _tm0$457427[esp+48], xmm0
	movss	xmm0, DWORD PTR [edi+4]
	push	eax
	mov	ecx, edi
	movss	DWORD PTR _tm1$457428[esp+52], xmm0
	call	??4CEnvDescriptor@@QAEAAV0@ABV0@@Z
	movss	xmm0, DWORD PTR _tm0$457427[esp+48]
	xorps	xmm1, xmm1
	movss	DWORD PTR [edi], xmm0
	movss	xmm0, DWORD PTR _tm1$457428[esp+48]
	movss	DWORD PTR [edi+4], xmm0
	movss	xmm0, DWORD PTR _start_tm$130664[esp+48]
	comiss	xmm1, xmm0
	jbe	SHORT $LN208@SetWeather@2
	addss	xmm0, DWORD PTR __real@47a8c000
	jmp	SHORT $LN206@SetWeather@2
$LN208@SetWeather@2:
	movss	xmm1, DWORD PTR __real@47a8c000
	comiss	xmm0, xmm1
	jbe	SHORT $LN206@SetWeather@2
	subss	xmm0, xmm1
$LN206@SetWeather@2:
	movss	DWORD PTR [edi], xmm0

; 337  : 		for (EnvIt t_it=CurrentWeather->begin()+2; t_it!=CurrentWeather->end()-1; t_it++)

	mov	ecx, DWORD PTR [esi+148]
	mov	eax, DWORD PTR [ecx]
	push	eax
	call	?cv_ptr@?$_VoidCastTraitsAux@PAXPAX@priv@stlp_std@@SAPAPAXPAPAX@Z ; stlp_std::priv::_VoidCastTraitsAux<void *,void *>::cv_ptr
	mov	edx, DWORD PTR [esi+148]
	mov	edi, eax
	mov	eax, DWORD PTR [edx+4]
	push	eax
	add	edi, 8
	call	?cv_ptr@?$_VoidCastTraitsAux@PAXPAX@priv@stlp_std@@SAPAPAXPAPAX@Z ; stlp_std::priv::_VoidCastTraitsAux<void *,void *>::cv_ptr
	sub	eax, 4
	add	esp, 8
	cmp	edi, eax
	je	SHORT $LN2@SetWeather@2
	npad	10
$LL398@SetWeather@2:

; 338  : 			(*t_it)->exec_time= NormalizeTime(start_tm+(*t_it)->exec_time_loaded);

	mov	eax, DWORD PTR [edi]
	movss	xmm0, DWORD PTR [eax+4]
	addss	xmm0, DWORD PTR _start_tm$130664[esp+48]
	xorps	xmm1, xmm1
	comiss	xmm1, xmm0
	jbe	SHORT $LN230@SetWeather@2
	addss	xmm0, DWORD PTR __real@47a8c000
	jmp	SHORT $LN228@SetWeather@2
$LN230@SetWeather@2:
	movss	xmm1, DWORD PTR __real@47a8c000
	comiss	xmm0, xmm1
	jbe	SHORT $LN228@SetWeather@2
	subss	xmm0, xmm1
$LN228@SetWeather@2:
	movss	DWORD PTR [eax], xmm0
	mov	eax, DWORD PTR [esi+148]
	mov	eax, DWORD PTR [eax+4]
	push	eax
	add	edi, 4
	call	?cv_ptr@?$_VoidCastTraitsAux@PAXPAX@priv@stlp_std@@SAPAPAXPAPAX@Z ; stlp_std::priv::_VoidCastTraitsAux<void *,void *>::cv_ptr
	sub	eax, 4
	add	esp, 4
	cmp	edi, eax
	jne	SHORT $LL398@SetWeather@2
$LN2@SetWeather@2:

; 339  : 		SelectEnv			(PrevWeather,WFX_end_desc[0],CE->exec_time);

	mov	ecx, DWORD PTR _CE$130681[esp+48]
	mov	eax, DWORD PTR [ebp+4]
	movss	xmm0, DWORD PTR [ecx]
	push	eax
	movss	DWORD PTR $T457590[esp+52], xmm0
	call	?cv_ptr@?$_VoidCastTraitsAux@PAXPAX@priv@stlp_std@@SAPAPAXPAPAX@Z ; stlp_std::priv::_VoidCastTraitsAux<void *,void *>::cv_ptr
	mov	edi, eax
	mov	eax, DWORD PTR [ebp]
	push	eax
	call	?cv_ptr@?$_VoidCastTraitsAux@PAXPAX@priv@stlp_std@@SAPAPAXPAPAX@Z ; stlp_std::priv::_VoidCastTraitsAux<void *,void *>::cv_ptr
	lea	edx, DWORD PTR $T457590[esp+56]
	mov	ecx, eax
	push	edx
	mov	eax, edi
	call	??$lower_bound@PAPAVCEnvDescriptor@@MP6A_NPBV1@M@Z@stlp_std@@YAPAPAVCEnvDescriptor@@PAPAV1@0ABMP6A_NPBV1@M@Z@Z ; stlp_std::lower_bound<CEnvDescriptor * *,float,bool (__cdecl*)(CEnvDescriptor const *,float)>
	mov	edi, eax
	mov	eax, DWORD PTR [ebp+4]
	push	eax
	call	?cv_ptr@?$_VoidCastTraitsAux@PAXPAX@priv@stlp_std@@SAPAPAXPAPAX@Z ; stlp_std::priv::_VoidCastTraitsAux<void *,void *>::cv_ptr
	add	esp, 16					; 00000010H
	cmp	edi, eax
	jne	SHORT $LN234@SetWeather@2
	mov	eax, DWORD PTR [ebp]
	mov	ecx, DWORD PTR [eax]
	mov	DWORD PTR [esi+140], ecx
	jmp	SHORT $LN233@SetWeather@2
$LN234@SetWeather@2:
	mov	edx, DWORD PTR [edi]
	mov	DWORD PTR [esi+140], edx
$LN233@SetWeather@2:

; 340  : 		SelectEnv			(PrevWeather,WFX_end_desc[1],WFX_end_desc[0]->exec_time+0.5f);

	mov	eax, DWORD PTR [esi+140]
	movss	xmm0, DWORD PTR [eax]
	mov	eax, DWORD PTR [ebp+4]
	addss	xmm0, DWORD PTR __real@3f000000
	push	eax
	movss	DWORD PTR $T457701[esp+52], xmm0
	call	?cv_ptr@?$_VoidCastTraitsAux@PAXPAX@priv@stlp_std@@SAPAPAXPAPAX@Z ; stlp_std::priv::_VoidCastTraitsAux<void *,void *>::cv_ptr
	mov	edi, eax
	mov	eax, DWORD PTR [ebp]
	push	eax
	call	?cv_ptr@?$_VoidCastTraitsAux@PAXPAX@priv@stlp_std@@SAPAPAXPAPAX@Z ; stlp_std::priv::_VoidCastTraitsAux<void *,void *>::cv_ptr
	lea	edx, DWORD PTR $T457701[esp+56]
	mov	ecx, eax
	push	edx
	mov	eax, edi
	call	??$lower_bound@PAPAVCEnvDescriptor@@MP6A_NPBV1@M@Z@stlp_std@@YAPAPAVCEnvDescriptor@@PAPAV1@0ABMP6A_NPBV1@M@Z@Z ; stlp_std::lower_bound<CEnvDescriptor * *,float,bool (__cdecl*)(CEnvDescriptor const *,float)>
	mov	edi, eax
	mov	eax, DWORD PTR [ebp+4]
	push	eax
	call	?cv_ptr@?$_VoidCastTraitsAux@PAXPAX@priv@stlp_std@@SAPAPAXPAPAX@Z ; stlp_std::priv::_VoidCastTraitsAux<void *,void *>::cv_ptr
	add	esp, 16					; 00000010H
	cmp	edi, eax
	jne	SHORT $LN272@SetWeather@2
	mov	eax, DWORD PTR [ebp]
	mov	ecx, DWORD PTR [eax]
	mov	DWORD PTR [esi+144], ecx
	jmp	SHORT $LN271@SetWeather@2
$LN272@SetWeather@2:
	mov	edx, DWORD PTR [edi]
	mov	DWORD PTR [esi+144], edx
$LN271@SetWeather@2:

; 341  : 		CT->copy			(*WFX_end_desc[0]);CT->exec_time = NormalizeTime(CE->exec_time+rewind_tm);

	movss	xmm0, DWORD PTR [ebx]
	mov	eax, DWORD PTR [esi+140]
	movss	DWORD PTR _tm0$457704[esp+48], xmm0
	movss	xmm0, DWORD PTR [ebx+4]
	push	eax
	mov	ecx, ebx
	movss	DWORD PTR _tm1$457705[esp+52], xmm0
	call	??4CEnvDescriptor@@QAEAAV0@ABV0@@Z
	movss	xmm0, DWORD PTR _tm0$457704[esp+48]
	mov	ecx, DWORD PTR _CE$130681[esp+48]
	xorps	xmm1, xmm1
	movss	DWORD PTR [ebx], xmm0
	movss	xmm0, DWORD PTR _tm1$457705[esp+48]
	movss	DWORD PTR [ebx+4], xmm0
	movss	xmm0, DWORD PTR [ecx]
	addss	xmm0, DWORD PTR _rewind_tm$130663[esp+48]
	comiss	xmm1, xmm0
	movss	xmm1, DWORD PTR __real@47a8c000
	jbe	SHORT $LN314@SetWeather@2
	addss	xmm0, xmm1
	jmp	SHORT $LN312@SetWeather@2
$LN314@SetWeather@2:
	comiss	xmm0, xmm1
	jbe	SHORT $LN312@SetWeather@2
	subss	xmm0, xmm1
$LN312@SetWeather@2:
	movss	DWORD PTR [ebx], xmm0

; 342  : 		wfx_time			= TimeDiff(fGameTime,CT->exec_time);

	movss	xmm2, DWORD PTR [esi+28]
	comiss	xmm2, xmm0
	jbe	SHORT $LN318@SetWeather@2
	subss	xmm1, xmm2
	addss	xmm1, xmm0
	movaps	xmm0, xmm1
	jmp	SHORT $LN317@SetWeather@2
$LN318@SetWeather@2:
	subss	xmm0, xmm2
$LN317@SetWeather@2:

; 343  : 		bWFX				= true;
; 344  : 
; 345  : 		// sort wfx envs
; 346  : 		std::sort			(CurrentWeather->begin(),CurrentWeather->end(),sort_env_pred);

	mov	edx, DWORD PTR [esi+148]
	movss	DWORD PTR [esi+136], xmm0
	mov	BYTE PTR [esi+132], 1
	mov	eax, DWORD PTR [edx+4]
	push	eax
	call	?cv_ptr@?$_VoidCastTraitsAux@PAXPAX@priv@stlp_std@@SAPAPAXPAPAX@Z ; stlp_std::priv::_VoidCastTraitsAux<void *,void *>::cv_ptr
	mov	ebp, eax
	mov	eax, DWORD PTR [esi+148]
	mov	eax, DWORD PTR [eax]
	push	eax
	call	?cv_ptr@?$_VoidCastTraitsAux@PAXPAX@priv@stlp_std@@SAPAPAXPAPAX@Z ; stlp_std::priv::_VoidCastTraitsAux<void *,void *>::cv_ptr
	mov	ebx, eax
	add	esp, 8
	cmp	ebx, ebp
	je	$LN378@SetWeather@2
	mov	edi, ebp
	sub	edi, ebx
	sar	edi, 2
	mov	eax, edi
	xor	ecx, ecx
	cmp	eax, 1
	je	SHORT $LN340@SetWeather@2
$LL342@SetWeather@2:
	sar	eax, 1
	add	ecx, 1
	cmp	eax, 1
	jne	SHORT $LL342@SetWeather@2
$LN340@SetWeather@2:
	push	OFFSET ?sort_env_pred@CEnvironment@@SA_NPBVCEnvDescriptor@@0@Z ; CEnvironment::sort_env_pred
	add	ecx, ecx
	push	ecx
	push	0
	push	ebp
	push	ebx
	call	??$__introsort_loop@PAPAVCEnvDescriptor@@PAV1@HP6A_NPBV1@0@Z@priv@stlp_std@@YAXPAPAVCEnvDescriptor@@00HP6A_NPBV2@1@Z@Z ; stlp_std::priv::__introsort_loop<CEnvDescriptor * *,CEnvDescriptor *,int,bool (__cdecl*)(CEnvDescriptor const *,CEnvDescriptor const *)>
	add	esp, 20					; 00000014H
	cmp	edi, 16					; 00000010H
	jle	SHORT $LN346@SetWeather@2
	lea	edi, DWORD PTR [ebx+64]
	cmp	ebx, edi
	je	SHORT $LN353@SetWeather@2
	push	OFFSET ?sort_env_pred@CEnvironment@@SA_NPBVCEnvDescriptor@@0@Z ; CEnvironment::sort_env_pred
	push	edi
	push	ebx
	call	??$__insertion_sort@PAPAVCEnvDescriptor@@PAV1@P6A_NPBV1@0@Z@priv@stlp_std@@YAXPAPAVCEnvDescriptor@@00P6A_NPBV2@1@Z@Z ; stlp_std::priv::__insertion_sort<CEnvDescriptor * *,CEnvDescriptor *,bool (__cdecl*)(CEnvDescriptor const *,CEnvDescriptor const *)>
	add	esp, 12					; 0000000cH
$LN353@SetWeather@2:
	mov	edx, edi
	cmp	edx, ebp
	je	SHORT $LN378@SetWeather@2
$LL363@SetWeather@2:
	mov	ebx, DWORD PTR [edx]
	movss	xmm0, DWORD PTR [ebx]
	mov	ecx, edx
	lea	eax, DWORD PTR [edx-4]
$LL367@SetWeather@2:
	mov	edi, DWORD PTR [eax]
	movss	xmm1, DWORD PTR [edi]
	comiss	xmm1, xmm0
	jbe	SHORT $LN372@SetWeather@2
	mov	DWORD PTR [ecx], edi
	mov	ecx, eax
	sub	eax, 4
	jmp	SHORT $LL367@SetWeather@2
$LN372@SetWeather@2:
	add	edx, 4
	cmp	edx, ebp
	mov	DWORD PTR [ecx], ebx
	jne	SHORT $LL363@SetWeather@2
	jmp	SHORT $LN378@SetWeather@2
$LN346@SetWeather@2:
	push	OFFSET ?sort_env_pred@CEnvironment@@SA_NPBVCEnvDescriptor@@0@Z ; CEnvironment::sort_env_pred
	push	ebp
	push	ebx
	call	??$__insertion_sort@PAPAVCEnvDescriptor@@PAV1@P6A_NPBV1@0@Z@priv@stlp_std@@YAXPAPAVCEnvDescriptor@@00P6A_NPBV2@1@Z@Z ; stlp_std::priv::__insertion_sort<CEnvDescriptor * *,CEnvDescriptor *,bool (__cdecl*)(CEnvDescriptor const *,CEnvDescriptor const *)>
	add	esp, 12					; 0000000cH
$LN378@SetWeather@2:

; 347  : 
; 348  : 		Current[0]			= C0;

	mov	edx, DWORD PTR _C0$130679[esp+48]

; 349  : 		Current[1]			= C1;

	mov	eax, DWORD PTR _C1$130680[esp+48]
	mov	edi, DWORD PTR _name$[esp+44]
	mov	DWORD PTR [esi+124], edx
	mov	DWORD PTR [esi+128], eax
	jmp	SHORT $LN1@SetWeather@2
$LN14@SetWeather@2:

; 350  : #ifdef WEATHER_LOGGING
; 351  : 		Msg					("Starting WFX: '%s' - %3.2f sec",*name,wfx_time);
; 352  : //		for (EnvIt l_it=CurrentWeather->begin(); l_it!=CurrentWeather->end(); l_it++)
; 353  : //			Msg				(". Env: '%s' Tm: %3.2f",*(*l_it)->m_identifier.c_str(),(*l_it)->exec_time);
; 354  : #endif
; 355  : 	}else{
; 356  : #ifndef _EDITOR
; 357  : 		FATAL				("! Empty weather effect name");

	mov	ecx, DWORD PTR __imp_?Debug@@3VxrDebug@@A
	push	OFFSET ??_C@_0BM@GOLKAJHL@?$CB?5Empty?5weather?5effect?5name?$AA@
	push	OFFSET ??_C@_0BL@CDFCELPM@CEnvironment?3?3SetWeatherFX?$AA@
	push	357					; 00000165H
	push	OFFSET ??_C@_0DE@KEBEOAOH@D?3?2CLEARSKY?2sources?2engine?2xrEng@
	push	ecx
	call	DWORD PTR __imp_?fatal@xrDebug@@QAAXPBDH00ZZ
	add	esp, 20					; 00000014H
$LN1@SetWeather@2:

; 358  : #endif
; 359  : 	}
; 360  : 	return true;

	test	edi, edi
	je	SHORT $LN386@SetWeather@2
	add	DWORD PTR [edi], -1
$LN386@SetWeather@2:
	pop	edi
	pop	ebp
	pop	ebx
	mov	al, 1
	pop	esi

; 361  : }

	add	esp, 32					; 00000020H
	ret	4
$LN402@SetWeather@2:
?SetWeatherFX@CEnvironment@@QAE_NVshared_str@@@Z ENDP	; CEnvironment::SetWeatherFX
_TEXT	ENDS
PUBLIC	??1CEnvironment@@QAE@XZ				; CEnvironment::~CEnvironment
; Function compile flags: /Ogtpy
;	COMDAT ??1CEnvironment@@QAE@XZ
_TEXT	SEGMENT
??1CEnvironment@@QAE@XZ PROC				; CEnvironment::~CEnvironment, COMDAT
; _this$ = ecx

; 191  : {

	push	ebx
	push	ebp

; 192  : 	xr_delete				(PerlinNoise1D);

	mov	ebp, DWORD PTR __imp_?mem_free@xrMemory@@QAEXPAX@Z
	push	esi
	mov	esi, ecx
	mov	eax, DWORD PTR [esi+24]
	xor	ebx, ebx
	cmp	eax, ebx
	push	edi
	je	SHORT $LN21@CEnvironme@2
	lea	ecx, DWORD PTR [eax+2076]
	call	??1?$_Impl_vector@MV?$xalloc@M@@@priv@stlp_std@@QAE@XZ ; stlp_std::priv::_Impl_vector<float,xalloc<float> >::~_Impl_vector<float,xalloc<float> >
	mov	eax, DWORD PTR [esi+24]
	mov	ecx, DWORD PTR __imp_?Memory@@3VxrMemory@@A
	push	eax
	call	ebp
	mov	DWORD PTR [esi+24], ebx
$LN21@CEnvironme@2:

; 193  : 	OnDeviceDestroy			();

	mov	ecx, esi
	call	?OnDeviceDestroy@CEnvironment@@QAEXXZ	; CEnvironment::OnDeviceDestroy

; 194  : 
; 195  : 	VERIFY					(m_ambients_config);
; 196  : 	CInifile::Destroy		(m_ambients_config);

	mov	ecx, DWORD PTR [esi+252]
	mov	edi, DWORD PTR __imp_?Destroy@CInifile@@SAXPAV1@@Z
	push	ecx
	call	edi

; 197  : 	m_ambients_config		= 0;
; 198  : 
; 199  : 	VERIFY					(m_sound_channels_config);
; 200  : 	CInifile::Destroy		(m_sound_channels_config);

	mov	edx, DWORD PTR [esi+256]
	push	edx
	mov	DWORD PTR [esi+252], ebx
	call	edi

; 201  : 	m_sound_channels_config	= 0;
; 202  : 
; 203  : 	VERIFY					(m_effects_config);
; 204  : 	CInifile::Destroy		(m_effects_config);

	mov	eax, DWORD PTR [esi+260]
	push	eax
	mov	DWORD PTR [esi+256], ebx
	call	edi

; 205  : 	m_effects_config		= 0;
; 206  : 
; 207  : 	VERIFY					(m_suns_config);
; 208  : 	CInifile::Destroy		(m_suns_config);

	mov	ecx, DWORD PTR [esi+264]
	push	ecx
	mov	DWORD PTR [esi+260], ebx
	call	edi

; 209  : 	m_suns_config			= 0;
; 210  : 
; 211  : 	VERIFY					(m_thunderbolt_collections_config);
; 212  : 	CInifile::Destroy		(m_thunderbolt_collections_config);

	mov	edx, DWORD PTR [esi+268]
	push	edx
	mov	DWORD PTR [esi+264], ebx
	call	edi

; 213  : 	m_thunderbolt_collections_config	= 0;
; 214  : 
; 215  : 	VERIFY					(m_thunderbolts_config);
; 216  : 	CInifile::Destroy		(m_thunderbolts_config);

	mov	eax, DWORD PTR [esi+272]
	push	eax
	mov	DWORD PTR [esi+268], ebx
	call	edi

; 217  : 	m_thunderbolts_config	= 0;

	mov	DWORD PTR [esi+272], ebx

; 218  : 
; 219  : 	destroy_mixer			();

	mov	edi, DWORD PTR [esi+120]
	add	esp, 24					; 00000018H
	cmp	edi, ebx
	je	SHORT $LN44@CEnvironme@2
	lea	ecx, DWORD PTR [edi+188]
	call	??1?$FactoryPtr@VIEnvDescriptorMixerRender@@@@QAE@XZ ; FactoryPtr<IEnvDescriptorMixerRender>::~FactoryPtr<IEnvDescriptorMixerRender>
	mov	ecx, edi
	call	??1CEnvDescriptor@@QAE@XZ
	mov	ecx, DWORD PTR [esi+120]
	push	ecx
	mov	ecx, DWORD PTR __imp_?Memory@@3VxrMemory@@A
	call	ebp
	mov	DWORD PTR [esi+120], ebx
$LN44@CEnvironme@2:

; 220  : }

	mov	eax, DWORD PTR [esi+220]
	cmp	eax, ebx
	je	SHORT $LN100@CEnvironme@2
	mov	ecx, DWORD PTR __imp_?Memory@@3VxrMemory@@A
	push	eax
	call	ebp
$LN100@CEnvironme@2:
	lea	ecx, DWORD PTR [esi+208]
	call	??1?$_Impl_vector@VCEnvModifier@@V?$xalloc@VCEnvModifier@@@@@priv@stlp_std@@QAE@XZ ; stlp_std::priv::_Impl_vector<CEnvModifier,xalloc<CEnvModifier> >::~_Impl_vector<CEnvModifier,xalloc<CEnvModifier> >
	lea	ecx, DWORD PTR [esi+184]
	call	??1?$_Rb_tree@Vshared_str@@Ustr_pred@CEnvironment@@U?$pair@$$CBVshared_str@@V?$xr_vector@PAVCEnvDescriptor@@V?$xalloc@PAVCEnvDescriptor@@@@@@@stlp_std@@U?$_Select1st@U?$pair@$$CBVshared_str@@V?$xr_vector@PAVCEnvDescriptor@@V?$xalloc@PAVCEnvDescriptor@@@@@@@stlp_std@@@priv@5@U?$_MapTraitsT@U?$pair@$$CBVshared_str@@V?$xr_vector@PAVCEnvDescriptor@@V?$xalloc@PAVCEnvDescriptor@@@@@@@stlp_std@@@75@V?$xalloc@U?$pair@Vshared_str@@V?$xr_vector@PAVCEnvDescriptor@@V?$xalloc@PAVCEnvDescriptor@@@@@@@stlp_std@@@@@priv@stlp_std@@QAE@XZ ; stlp_std::priv::_Rb_tree<shared_str,CEnvironment::str_pred,stlp_std::pair<shared_str const ,xr_vector<CEnvDescriptor *,xalloc<CEnvDescriptor *> > >,stlp_std::priv::_Select1st<stlp_std::pair<shared_str const ,xr_vector<CEnvDescriptor *,xalloc<CEnvDescriptor *> > > >,stlp_std::priv::_MapTraitsT<stlp_std::pair<shared_str const ,xr_vector<CEnvDescriptor *,xalloc<CEnvDescriptor *> > > >,xalloc<stlp_std::pair<shared_str,xr_vector<CEnvDescriptor *,xalloc<CEnvDescriptor *> > > > >::~_Rb_tree<shared_str,CEnvironment::str_pred,stlp_std::pair<shared_str const ,xr_vector<CEnvDescriptor *,xalloc<CEnvDescriptor *> > >,stlp_std::priv::_Select1st<stlp_std::pair<shared_str const ,xr_vector<CEnvDescriptor *,xalloc<CEnvDescriptor *> > > >,stlp_std::priv::_MapTraitsT<stlp_std::pair<shared_str const ,xr_vector<CEnvDescriptor *,xalloc<CEnvDescriptor *> > > >,xalloc<stlp_std::pair<shared_str,xr_vector<CEnvDescriptor *,xalloc<CEnvDescriptor *> > > > >
	lea	ecx, DWORD PTR [esi+160]
	call	??1?$_Rb_tree@Vshared_str@@Ustr_pred@CEnvironment@@U?$pair@$$CBVshared_str@@V?$xr_vector@PAVCEnvDescriptor@@V?$xalloc@PAVCEnvDescriptor@@@@@@@stlp_std@@U?$_Select1st@U?$pair@$$CBVshared_str@@V?$xr_vector@PAVCEnvDescriptor@@V?$xalloc@PAVCEnvDescriptor@@@@@@@stlp_std@@@priv@5@U?$_MapTraitsT@U?$pair@$$CBVshared_str@@V?$xr_vector@PAVCEnvDescriptor@@V?$xalloc@PAVCEnvDescriptor@@@@@@@stlp_std@@@75@V?$xalloc@U?$pair@Vshared_str@@V?$xr_vector@PAVCEnvDescriptor@@V?$xalloc@PAVCEnvDescriptor@@@@@@@stlp_std@@@@@priv@stlp_std@@QAE@XZ ; stlp_std::priv::_Rb_tree<shared_str,CEnvironment::str_pred,stlp_std::pair<shared_str const ,xr_vector<CEnvDescriptor *,xalloc<CEnvDescriptor *> > >,stlp_std::priv::_Select1st<stlp_std::pair<shared_str const ,xr_vector<CEnvDescriptor *,xalloc<CEnvDescriptor *> > > >,stlp_std::priv::_MapTraitsT<stlp_std::pair<shared_str const ,xr_vector<CEnvDescriptor *,xalloc<CEnvDescriptor *> > > >,xalloc<stlp_std::pair<shared_str,xr_vector<CEnvDescriptor *,xalloc<CEnvDescriptor *> > > > >::~_Rb_tree<shared_str,CEnvironment::str_pred,stlp_std::pair<shared_str const ,xr_vector<CEnvDescriptor *,xalloc<CEnvDescriptor *> > >,stlp_std::priv::_Select1st<stlp_std::pair<shared_str const ,xr_vector<CEnvDescriptor *,xalloc<CEnvDescriptor *> > > >,stlp_std::priv::_MapTraitsT<stlp_std::pair<shared_str const ,xr_vector<CEnvDescriptor *,xalloc<CEnvDescriptor *> > > >,xalloc<stlp_std::pair<shared_str,xr_vector<CEnvDescriptor *,xalloc<CEnvDescriptor *> > > > >
	mov	eax, DWORD PTR [esi+156]
	cmp	eax, ebx
	je	SHORT $LN143@CEnvironme@2
	add	DWORD PTR [eax], -1
	mov	edx, DWORD PTR [esi+156]
	cmp	DWORD PTR [edx], ebx
	jne	SHORT $LN143@CEnvironme@2
	mov	DWORD PTR [esi+156], ebx
$LN143@CEnvironme@2:
	mov	eax, DWORD PTR [esi+152]
	cmp	eax, ebx
	je	SHORT $LN149@CEnvironme@2
	add	DWORD PTR [eax], -1
	mov	eax, DWORD PTR [esi+152]
	cmp	DWORD PTR [eax], ebx
	jne	SHORT $LN149@CEnvironme@2
	mov	DWORD PTR [esi+152], ebx
$LN149@CEnvironme@2:
	lea	ecx, DWORD PTR [esi+32]
	call	??1?$FactoryPtr@VIEnvironmentRender@@@@QAE@XZ ; FactoryPtr<IEnvironmentRender>::~FactoryPtr<IEnvironmentRender>
	lea	ecx, DWORD PTR [esi+12]
	call	??1?$_Impl_vector@GV?$xalloc@G@@@priv@stlp_std@@QAE@XZ ; stlp_std::priv::_Impl_vector<unsigned short,xalloc<unsigned short> >::~_Impl_vector<unsigned short,xalloc<unsigned short> >
	mov	ecx, esi
	pop	edi
	pop	esi
	pop	ebp
	pop	ebx
	jmp	??1?$_Impl_vector@U?$_vector3@M@@V?$xalloc@U?$_vector3@M@@@@@priv@stlp_std@@QAE@XZ ; stlp_std::priv::_Impl_vector<_vector3<float>,xalloc<_vector3<float> > >::~_Impl_vector<_vector3<float>,xalloc<_vector3<float> > >
??1CEnvironment@@QAE@XZ ENDP				; CEnvironment::~CEnvironment
; Function compile flags: /Ogtpy
_TEXT	ENDS
;	COMDAT ??0?$xr_map@Vshared_str@@V?$xr_vector@PAVCEnvDescriptor@@V?$xalloc@PAVCEnvDescriptor@@@@@@Ustr_pred@CEnvironment@@V?$xalloc@U?$pair@Vshared_str@@V?$xr_vector@PAVCEnvDescriptor@@V?$xalloc@PAVCEnvDescriptor@@@@@@@stlp_std@@@@@@QAE@XZ
_TEXT	SEGMENT
$T458491 = -1						; size = 1
??0?$xr_map@Vshared_str@@V?$xr_vector@PAVCEnvDescriptor@@V?$xalloc@PAVCEnvDescriptor@@@@@@Ustr_pred@CEnvironment@@V?$xalloc@U?$pair@Vshared_str@@V?$xr_vector@PAVCEnvDescriptor@@V?$xalloc@PAVCEnvDescriptor@@@@@@@stlp_std@@@@@@QAE@XZ PROC ; xr_map<shared_str,xr_vector<CEnvDescriptor *,xalloc<CEnvDescriptor *> >,CEnvironment::str_pred,xalloc<stlp_std::pair<shared_str,xr_vector<CEnvDescriptor *,xalloc<CEnvDescriptor *> > > > >::xr_map<shared_str,xr_vector<CEnvDescriptor *,xalloc<CEnvDescriptor *> >,CEnvironment::str_pred,xalloc<stlp_std::pair<shared_str,xr_vector<CEnvDescriptor *,xalloc<CEnvDescriptor *> > > > >, COMDAT
; _this$ = esi
	push	ecx
	lea	eax, DWORD PTR $T458491[esp+4]
	push	eax
	mov	ecx, esi
	call	??0?$_Rb_tree_base@U?$pair@$$CBVshared_str@@V?$xr_vector@PAVCEnvDescriptor@@V?$xalloc@PAVCEnvDescriptor@@@@@@@stlp_std@@V?$xalloc@U?$pair@Vshared_str@@V?$xr_vector@PAVCEnvDescriptor@@V?$xalloc@PAVCEnvDescriptor@@@@@@@stlp_std@@@@@priv@stlp_std@@IAE@ABV?$xalloc@U?$pair@$$CBVshared_str@@V?$xr_vector@PAVCEnvDescriptor@@V?$xalloc@PAVCEnvDescriptor@@@@@@@stlp_std@@@@@Z ; stlp_std::priv::_Rb_tree_base<stlp_std::pair<shared_str const ,xr_vector<CEnvDescriptor *,xalloc<CEnvDescriptor *> > >,xalloc<stlp_std::pair<shared_str,xr_vector<CEnvDescriptor *,xalloc<CEnvDescriptor *> > > > >::_Rb_tree_base<stlp_std::pair<shared_str const ,xr_vector<CEnvDescriptor *,xalloc<CEnvDescriptor *> > >,xalloc<stlp_std::pair<shared_str,xr_vector<CEnvDescriptor *,xalloc<CEnvDescriptor *> > > > >
	mov	DWORD PTR [esi+16], 0
	mov	eax, esi
	pop	ecx
	ret	0
??0?$xr_map@Vshared_str@@V?$xr_vector@PAVCEnvDescriptor@@V?$xalloc@PAVCEnvDescriptor@@@@@@Ustr_pred@CEnvironment@@V?$xalloc@U?$pair@Vshared_str@@V?$xr_vector@PAVCEnvDescriptor@@V?$xalloc@PAVCEnvDescriptor@@@@@@@stlp_std@@@@@@QAE@XZ ENDP ; xr_map<shared_str,xr_vector<CEnvDescriptor *,xalloc<CEnvDescriptor *> >,CEnvironment::str_pred,xalloc<stlp_std::pair<shared_str,xr_vector<CEnvDescriptor *,xalloc<CEnvDescriptor *> > > > >::xr_map<shared_str,xr_vector<CEnvDescriptor *,xalloc<CEnvDescriptor *> >,CEnvironment::str_pred,xalloc<stlp_std::pair<shared_str,xr_vector<CEnvDescriptor *,xalloc<CEnvDescriptor *> > > > >
_TEXT	ENDS
PUBLIC	??4CPerlinNoise3D@@QAEAAV0@ABV0@@Z		; CPerlinNoise3D::operator=
; Function compile flags: /Ogtpy
;	COMDAT ??4CPerlinNoise3D@@QAEAAV0@ABV0@@Z
_TEXT	SEGMENT
___that$ = 8						; size = 4
??4CPerlinNoise3D@@QAEAAV0@ABV0@@Z PROC			; CPerlinNoise3D::operator=, COMDAT
; _this$ = ecx
	push	esi
	push	edi
	mov	edi, DWORD PTR ___that$[esp+4]
	push	edi
	mov	esi, ecx
	call	??4CPerlinNoiseCustom@@QAEAAV0@ABV0@@Z
	mov	edx, edi
	lea	ecx, DWORD PTR [edi+2096]
	lea	eax, DWORD PTR [esi+2088]
	sub	edx, esi
	mov	edi, 257				; 00000101H
$LL3@operator@112:
	fld	DWORD PTR [edx+eax]
	add	eax, 24					; 00000018H
	fstp	DWORD PTR [eax-24]
	add	ecx, 24					; 00000018H
	sub	edi, 1
	fld	DWORD PTR [ecx-28]
	fstp	DWORD PTR [eax-20]
	fld	DWORD PTR [ecx-24]
	fstp	DWORD PTR [eax-16]
	fld	DWORD PTR [ecx-20]
	fstp	DWORD PTR [eax-12]
	fld	DWORD PTR [ecx-16]
	fstp	DWORD PTR [eax-8]
	fld	DWORD PTR [ecx-12]
	fstp	DWORD PTR [eax-4]
	jne	SHORT $LL3@operator@112
	pop	edi
	mov	eax, esi
	pop	esi
	ret	4
??4CPerlinNoise3D@@QAEAAV0@ABV0@@Z ENDP			; CPerlinNoise3D::operator=
_TEXT	ENDS
PUBLIC	??4CPerlinNoise2D@@QAEAAV0@ABV0@@Z		; CPerlinNoise2D::operator=
; Function compile flags: /Ogtpy
;	COMDAT ??4CPerlinNoise2D@@QAEAAV0@ABV0@@Z
_TEXT	SEGMENT
___that$ = 8						; size = 4
??4CPerlinNoise2D@@QAEAAV0@ABV0@@Z PROC			; CPerlinNoise2D::operator=, COMDAT
; _this$ = ecx
	push	esi
	push	edi
	mov	edi, DWORD PTR ___that$[esp+4]
	push	edi
	mov	esi, ecx
	call	??4CPerlinNoiseCustom@@QAEAAV0@ABV0@@Z
	mov	edx, edi
	lea	ecx, DWORD PTR [edi+2096]
	lea	eax, DWORD PTR [esi+2088]
	sub	edx, esi
	mov	edi, 257				; 00000101H
$LL3@operator@113:
	fld	DWORD PTR [edx+eax]
	add	eax, 16					; 00000010H
	fstp	DWORD PTR [eax-16]
	add	ecx, 16					; 00000010H
	sub	edi, 1
	fld	DWORD PTR [ecx-20]
	fstp	DWORD PTR [eax-12]
	fld	DWORD PTR [ecx-16]
	fstp	DWORD PTR [eax-8]
	fld	DWORD PTR [ecx-12]
	fstp	DWORD PTR [eax-4]
	jne	SHORT $LL3@operator@113
	pop	edi
	mov	eax, esi
	pop	esi
	ret	4
??4CPerlinNoise2D@@QAEAAV0@ABV0@@Z ENDP			; CPerlinNoise2D::operator=
_TEXT	ENDS
PUBLIC	??4CPerlinNoise1D@@QAEAAV0@ABV0@@Z		; CPerlinNoise1D::operator=
; Function compile flags: /Ogtpy
;	COMDAT ??4CPerlinNoise1D@@QAEAAV0@ABV0@@Z
_TEXT	SEGMENT
___that$ = 8						; size = 4
??4CPerlinNoise1D@@QAEAAV0@ABV0@@Z PROC			; CPerlinNoise1D::operator=, COMDAT
; _this$ = ecx
	push	ebx
	mov	ebx, DWORD PTR ___that$[esp]
	push	esi
	push	edi
	push	ebx
	mov	esi, ecx
	call	??4CPerlinNoiseCustom@@QAEAAV0@ABV0@@Z
	mov	edx, ebx
	lea	ecx, DWORD PTR [ebx+2092]
	lea	eax, DWORD PTR [esi+2088]
	sub	edx, esi
	mov	edi, 257				; 00000101H
$LL3@operator@114:
	fld	DWORD PTR [edx+eax]
	add	eax, 8
	fstp	DWORD PTR [eax-8]
	add	ecx, 8
	sub	edi, 1
	fld	DWORD PTR [ecx-8]
	fstp	DWORD PTR [eax-4]
	jne	SHORT $LL3@operator@114
	fld	DWORD PTR [ebx+4144]
	pop	edi
	fstp	DWORD PTR [esi+4144]
	mov	eax, esi
	pop	esi
	pop	ebx
	ret	4
??4CPerlinNoise1D@@QAEAAV0@ABV0@@Z ENDP			; CPerlinNoise1D::operator=
; Function compile flags: /Ogtpy
_TEXT	ENDS
;	COMDAT ??_ECLensFlare@@UAEPAXI@Z
_TEXT	SEGMENT
tv322 = -4						; size = 4
___flags$ = 8						; size = 4
??_ECLensFlare@@UAEPAXI@Z PROC				; CLensFlare::`vector deleting destructor', COMDAT
; _this$ = ecx
	push	ecx
	test	BYTE PTR ___flags$[esp], 2
	push	ebx
	push	ebp
	push	esi
	push	edi
	mov	edi, ecx
	je	$LN3@vector@85
	mov	ebp, DWORD PTR [edi-4]
	lea	ebx, DWORD PTR [edi-4]
	mov	esi, ebp
	imul	esi, 500				; 000001f4H
	add	esi, edi
	sub	ebp, 1
	mov	DWORD PTR tv322[esp+20], ebx
	mov	edi, 0
	js	SHORT $LN6@vector@85
$LL7@vector@85:
	sub	esi, 500				; 000001f4H
	mov	ecx, esi
	mov	DWORD PTR [esi], OFFSET ??_7CLensFlare@@6B@
	call	?OnDeviceDestroy@CLensFlare@@QAEXXZ	; CLensFlare::OnDeviceDestroy
	lea	ebx, DWORD PTR [esi+476]
	call	??$delete_data@V?$xr_vector@PAVCLensFlareDescriptor@@V?$xalloc@PAVCLensFlareDescriptor@@@@@@@CHelper3@CDestroyer@@SAXAAV?$xr_vector@PAVCLensFlareDescriptor@@V?$xalloc@PAVCLensFlareDescriptor@@@@@@@Z ; CDestroyer::CHelper3::delete_data<xr_vector<CLensFlareDescriptor *,xalloc<CLensFlareDescriptor *> > >
	mov	ebx, DWORD PTR [ebx]
	cmp	ebx, edi
	je	SHORT $LN55@vector@85
	mov	ecx, DWORD PTR __imp_?Memory@@3VxrMemory@@A
	push	ebx
	call	DWORD PTR __imp_?mem_free@xrMemory@@QAEXPAX@Z
$LN55@vector@85:
	mov	eax, DWORD PTR __imp_?RenderFactory@@3PAVIRenderFactory@@A
	mov	ecx, DWORD PTR [eax]
	mov	edx, DWORD PTR [ecx]
	mov	eax, DWORD PTR [esi+472]
	mov	edx, DWORD PTR [edx+100]
	push	eax
	call	edx
	mov	DWORD PTR [esi+472], edi
	mov	eax, DWORD PTR [esi+4]
	cmp	eax, edi
	je	SHORT $LN101@vector@85
	mov	ecx, DWORD PTR __imp_?Memory@@3VxrMemory@@A
	push	eax
	call	DWORD PTR __imp_?mem_free@xrMemory@@QAEXPAX@Z
$LN101@vector@85:
	sub	ebp, 1
	jns	SHORT $LL7@vector@85
	mov	ebx, DWORD PTR tv322[esp+20]
$LN6@vector@85:
	test	BYTE PTR ___flags$[esp+16], 1
	je	SHORT $LN106@vector@85
	cmp	ebx, edi
	je	SHORT $LN106@vector@85
	mov	ecx, DWORD PTR __imp_?Memory@@3VxrMemory@@A
	push	ebx
	call	DWORD PTR __imp_?mem_free@xrMemory@@QAEXPAX@Z
$LN106@vector@85:
	mov	eax, ebx
	pop	edi
	pop	esi
	pop	ebp
	pop	ebx
	pop	ecx
	ret	4
$LN3@vector@85:
	call	??1CLensFlare@@UAE@XZ			; CLensFlare::~CLensFlare
	test	BYTE PTR ___flags$[esp+16], 1
	je	SHORT $LN111@vector@85
	test	edi, edi
	je	SHORT $LN111@vector@85
	mov	ecx, DWORD PTR __imp_?Memory@@3VxrMemory@@A
	push	edi
	call	DWORD PTR __imp_?mem_free@xrMemory@@QAEXPAX@Z
$LN111@vector@85:
	mov	eax, edi
	pop	edi
	pop	esi
	pop	ebp
	pop	ebx
	pop	ecx
	ret	4
??_ECLensFlare@@UAEPAXI@Z ENDP				; CLensFlare::`vector deleting destructor'
_TEXT	ENDS
PUBLIC	??_GCLensFlare@@UAEPAXI@Z			; CLensFlare::`scalar deleting destructor'
; Function compile flags: /Ogtpy
;	COMDAT ??_GCLensFlare@@UAEPAXI@Z
_TEXT	SEGMENT
___flags$ = 8						; size = 4
??_GCLensFlare@@UAEPAXI@Z PROC				; CLensFlare::`scalar deleting destructor', COMDAT
; _this$ = ecx
	push	esi
	mov	esi, ecx
	call	??1CLensFlare@@UAE@XZ			; CLensFlare::~CLensFlare
	test	BYTE PTR ___flags$[esp], 1
	je	SHORT $LN10@scalar@70
	test	esi, esi
	je	SHORT $LN10@scalar@70
	mov	ecx, DWORD PTR __imp_?Memory@@3VxrMemory@@A
	push	esi
	call	DWORD PTR __imp_?mem_free@xrMemory@@QAEXPAX@Z
$LN10@scalar@70:
	mov	eax, esi
	pop	esi
	ret	4
??_GCLensFlare@@UAEPAXI@Z ENDP				; CLensFlare::`scalar deleting destructor'
; Function compile flags: /Ogtpy
_TEXT	ENDS
;	COMDAT ??0?$xr_vector@USFlare@CLensFlareDescriptor@@V?$xalloc@USFlare@CLensFlareDescriptor@@@@@@QAE@ABV0@@Z
_TEXT	SEGMENT
??0?$xr_vector@USFlare@CLensFlareDescriptor@@V?$xalloc@USFlare@CLensFlareDescriptor@@@@@@QAE@ABV0@@Z PROC ; xr_vector<CLensFlareDescriptor::SFlare,xalloc<CLensFlareDescriptor::SFlare> >::xr_vector<CLensFlareDescriptor::SFlare,xalloc<CLensFlareDescriptor::SFlare> >, COMDAT
; _this$ = eax
; ___that$ = ebx
	push	esi
	mov	esi, eax
	call	??0?$_Impl_vector@USFlare@CLensFlareDescriptor@@V?$xalloc@USFlare@CLensFlareDescriptor@@@@@priv@stlp_std@@QAE@ABV012@@Z ; stlp_std::priv::_Impl_vector<CLensFlareDescriptor::SFlare,xalloc<CLensFlareDescriptor::SFlare> >::_Impl_vector<CLensFlareDescriptor::SFlare,xalloc<CLensFlareDescriptor::SFlare> >
	mov	eax, esi
	pop	esi
	ret	0
??0?$xr_vector@USFlare@CLensFlareDescriptor@@V?$xalloc@USFlare@CLensFlareDescriptor@@@@@@QAE@ABV0@@Z ENDP ; xr_vector<CLensFlareDescriptor::SFlare,xalloc<CLensFlareDescriptor::SFlare> >::xr_vector<CLensFlareDescriptor::SFlare,xalloc<CLensFlareDescriptor::SFlare> >
_TEXT	ENDS
PUBLIC	??0CLensFlareDescriptor@@QAE@ABV0@@Z		; CLensFlareDescriptor::CLensFlareDescriptor
; Function compile flags: /Ogtpy
;	COMDAT ??0CLensFlareDescriptor@@QAE@ABV0@@Z
_TEXT	SEGMENT
___that$ = 8						; size = 4
??0CLensFlareDescriptor@@QAE@ABV0@@Z PROC		; CLensFlareDescriptor::CLensFlareDescriptor, COMDAT
; _this$ = ecx
	push	ebx
	mov	ebx, DWORD PTR ___that$[esp]
	push	ebp
	push	esi
	mov	ebp, ecx
	push	edi
	mov	esi, ebp
	call	??0?$_Impl_vector@USFlare@CLensFlareDescriptor@@V?$xalloc@USFlare@CLensFlareDescriptor@@@@@priv@stlp_std@@QAE@ABV012@@Z ; stlp_std::priv::_Impl_vector<CLensFlareDescriptor::SFlare,xalloc<CLensFlareDescriptor::SFlare> >::_Impl_vector<CLensFlareDescriptor::SFlare,xalloc<CLensFlareDescriptor::SFlare> >
	mov	eax, DWORD PTR [ebx+12]
	lea	edi, DWORD PTR [ebx+16]
	lea	esi, DWORD PTR [ebp+16]
	mov	DWORD PTR [ebp+12], eax
	call	??0SFlare@CLensFlareDescriptor@@QAE@ABU01@@Z
	mov	ecx, DWORD PTR [edi+24]
	mov	DWORD PTR [esi+24], ecx
	lea	edi, DWORD PTR [ebx+44]
	lea	esi, DWORD PTR [ebp+44]
	call	??0SFlare@CLensFlareDescriptor@@QAE@ABU01@@Z
	fld	DWORD PTR [ebx+68]
	fstp	DWORD PTR [ebp+68]
	xor	ecx, ecx
	fld	DWORD PTR [ebx+72]
	fstp	DWORD PTR [ebp+72]
	mov	DWORD PTR [ebp+76], ecx
	mov	ebx, DWORD PTR [ebx+76]
	cmp	ebx, ecx
	je	SHORT $LN11@CLensFlare@4
	add	DWORD PTR [ebx], 1
$LN11@CLensFlare@4:
	mov	eax, DWORD PTR [ebp+76]
	cmp	eax, ecx
	je	SHORT $LN19@CLensFlare@4
	add	DWORD PTR [eax], -1
	mov	edx, DWORD PTR [ebp+76]
	cmp	DWORD PTR [edx], ecx
$LN19@CLensFlare@4:
	pop	edi
	pop	esi
	mov	DWORD PTR [ebp+76], ebx
	mov	eax, ebp
	pop	ebp
	pop	ebx
	ret	4
??0CLensFlareDescriptor@@QAE@ABV0@@Z ENDP		; CLensFlareDescriptor::CLensFlareDescriptor
_TEXT	ENDS
PUBLIC	??0CLensFlareDescriptor@@QAE@XZ			; CLensFlareDescriptor::CLensFlareDescriptor
; Function compile flags: /Ogtpy
; File d:\clearsky\sources\engine\xrengine\xr_efflensflare.h
;	COMDAT ??0CLensFlareDescriptor@@QAE@XZ
_TEXT	SEGMENT
??0CLensFlareDescriptor@@QAE@XZ PROC			; CLensFlareDescriptor::CLensFlareDescriptor, COMDAT
; _this$ = ecx

; 56   :     					CLensFlareDescriptor(){m_Flags.zero();section=0;m_StateBlendUpSpeed=m_StateBlendDnSpeed=0.1f;}

	mov	eax, DWORD PTR __imp_?RenderFactory@@3PAVIRenderFactory@@A
	push	esi
	mov	esi, ecx
	push	edi
	xor	edi, edi
	mov	DWORD PTR [esi], edi
	mov	DWORD PTR [esi+4], edi
	mov	DWORD PTR [esi+8], edi
	mov	DWORD PTR [esi+28], edi
	mov	DWORD PTR [esi+32], edi
	mov	ecx, DWORD PTR [eax]
	mov	edx, DWORD PTR [ecx]
	mov	eax, DWORD PTR [edx+120]
	call	eax
	mov	ecx, DWORD PTR __imp_?RenderFactory@@3PAVIRenderFactory@@A
	xorps	xmm0, xmm0
	mov	DWORD PTR [esi+36], eax
	mov	DWORD PTR [esi+56], edi
	mov	DWORD PTR [esi+60], edi
	mov	ecx, DWORD PTR [ecx]
	mov	edx, DWORD PTR [ecx]
	mov	eax, DWORD PTR [edx+120]
	movss	DWORD PTR [esi+24], xmm0
	movss	DWORD PTR [esi+20], xmm0
	movss	DWORD PTR [esi+16], xmm0
	call	eax
	xorps	xmm0, xmm0
	mov	ecx, DWORD PTR __imp_?g_pStringContainer@@3PAVstr_container@@A
	mov	DWORD PTR [esi+64], eax
	mov	DWORD PTR [esi+76], edi
	movss	DWORD PTR [esi+52], xmm0
	movss	DWORD PTR [esi+48], xmm0
	movss	DWORD PTR [esi+44], xmm0
	mov	DWORD PTR [esi+12], edi
	mov	ecx, DWORD PTR [ecx]
	push	edi
	call	DWORD PTR __imp_?dock@str_container@@QAEPAUstr_value@@PBD@Z
	cmp	eax, edi
	je	SHORT $LN45@CLensFlare@5
	add	DWORD PTR [eax], 1
$LN45@CLensFlare@5:
	mov	ecx, DWORD PTR [esi+76]
	cmp	ecx, edi
	je	SHORT $LN48@CLensFlare@5
	add	DWORD PTR [ecx], -1
	mov	edx, DWORD PTR [esi+76]
	cmp	DWORD PTR [edx], edi
	jne	SHORT $LN48@CLensFlare@5
	mov	DWORD PTR [esi+76], edi
$LN48@CLensFlare@5:
	movss	xmm0, DWORD PTR _psShedulerReaction
	mov	DWORD PTR [esi+76], eax
	pop	edi
	movss	DWORD PTR [esi+72], xmm0
	movss	DWORD PTR [esi+68], xmm0
	mov	eax, esi
	pop	esi
	ret	0
??0CLensFlareDescriptor@@QAE@XZ ENDP			; CLensFlareDescriptor::CLensFlareDescriptor
; Function compile flags: /Ogtpy
; File d:\clearsky\sources\sdk\include\stlport\stl\_uninitialized.h
;	COMDAT ??$__ucopy_aux@PBUSFlare@CLensFlareDescriptor@@PAU12@@priv@stlp_std@@YAPAUSFlare@CLensFlareDescriptor@@PBU23@0PAU23@ABU__true_type@1@@Z
_TEXT	SEGMENT
??$__ucopy_aux@PBUSFlare@CLensFlareDescriptor@@PAU12@@priv@stlp_std@@YAPAUSFlare@CLensFlareDescriptor@@PBU23@0PAU23@ABU__true_type@1@@Z PROC ; stlp_std::priv::__ucopy_aux<CLensFlareDescriptor::SFlare const *,CLensFlareDescriptor::SFlare *>, COMDAT
; ___first$ = ecx
; ___last$ = eax
; ___result$ = edx

; 126  :   return __ucopy_ptrs(__first, __last, __result,
; 127  :                       _UseTrivialUCopy(_STLP_VALUE_TYPE(__first, _InputIter),
; 128  :                                        _STLP_VALUE_TYPE(__result, _OutputIter))._Answer());

	jmp	??$__ucopy@PBUSFlare@CLensFlareDescriptor@@PAU12@H@priv@stlp_std@@YAPAUSFlare@CLensFlareDescriptor@@PBU23@0PAU23@ABUrandom_access_iterator_tag@1@PAH@Z ; stlp_std::priv::__ucopy<CLensFlareDescriptor::SFlare const *,CLensFlareDescriptor::SFlare *,int>
??$__ucopy_aux@PBUSFlare@CLensFlareDescriptor@@PAU12@@priv@stlp_std@@YAPAUSFlare@CLensFlareDescriptor@@PBU23@0PAU23@ABU__true_type@1@@Z ENDP ; stlp_std::priv::__ucopy_aux<CLensFlareDescriptor::SFlare const *,CLensFlareDescriptor::SFlare *>
; Function compile flags: /Ogtpy
_TEXT	ENDS
;	COMDAT ??$uninitialized_copy@PBUSFlare@CLensFlareDescriptor@@PAU12@@stlp_std@@YAPAUSFlare@CLensFlareDescriptor@@PBU12@0PAU12@@Z
_TEXT	SEGMENT
??$uninitialized_copy@PBUSFlare@CLensFlareDescriptor@@PAU12@@stlp_std@@YAPAUSFlare@CLensFlareDescriptor@@PBU12@0PAU12@@Z PROC ; stlp_std::uninitialized_copy<CLensFlareDescriptor::SFlare const *,CLensFlareDescriptor::SFlare *>, COMDAT
; ___first$ = ecx
; ___last$ = eax
; ___result$ = edx

; 144  : { return _STLP_PRIV __ucopy_aux(__first, __last, __result, _BothPtrType< _InputIter, _ForwardIter>::_Answer()); }

	jmp	??$__ucopy@PBUSFlare@CLensFlareDescriptor@@PAU12@H@priv@stlp_std@@YAPAUSFlare@CLensFlareDescriptor@@PBU23@0PAU23@ABUrandom_access_iterator_tag@1@PAH@Z ; stlp_std::priv::__ucopy<CLensFlareDescriptor::SFlare const *,CLensFlareDescriptor::SFlare *,int>
??$uninitialized_copy@PBUSFlare@CLensFlareDescriptor@@PAU12@@stlp_std@@YAPAUSFlare@CLensFlareDescriptor@@PBU12@0PAU12@@Z ENDP ; stlp_std::uninitialized_copy<CLensFlareDescriptor::SFlare const *,CLensFlareDescriptor::SFlare *>
; Function compile flags: /Ogtpy
; File d:\clearsky\sources\sdk\include\stlport\stl\_vector.h
_TEXT	ENDS
;	COMDAT ??$_M_allocate_and_copy@PBUSFlare@CLensFlareDescriptor@@@?$_Impl_vector@USFlare@CLensFlareDescriptor@@V?$xalloc@USFlare@CLensFlareDescriptor@@@@@priv@stlp_std@@AAEPAUSFlare@CLensFlareDescriptor@@AAIPBU34@1@Z
_TEXT	SEGMENT
___first$ = 8						; size = 4
___last$ = 12						; size = 4
??$_M_allocate_and_copy@PBUSFlare@CLensFlareDescriptor@@@?$_Impl_vector@USFlare@CLensFlareDescriptor@@V?$xalloc@USFlare@CLensFlareDescriptor@@@@@priv@stlp_std@@AAEPAUSFlare@CLensFlareDescriptor@@AAIPBU34@1@Z PROC ; stlp_std::priv::_Impl_vector<CLensFlareDescriptor::SFlare,xalloc<CLensFlareDescriptor::SFlare> >::_M_allocate_and_copy<CLensFlareDescriptor::SFlare const *>, COMDAT
; ___n$ = eax

; 634  :                                _ForwardIterator __first, _ForwardIterator __last)
; 635  : #else /* _STLP_MEMBER_TEMPLATES */
; 636  :   pointer _M_allocate_and_copy(size_type& __n,
; 637  :                                const_pointer __first, const_pointer __last)
; 638  : #endif /* _STLP_MEMBER_TEMPLATES */
; 639  :   {
; 640  :     pointer __result = this->_M_end_of_storage.allocate(__n, __n);

	mov	eax, DWORD PTR [eax]
	lea	ecx, DWORD PTR [eax+eax*2]
	add	ecx, ecx
	add	ecx, ecx
	add	ecx, ecx
	push	esi
	push	ecx
	mov	ecx, DWORD PTR __imp_?Memory@@3VxrMemory@@A
	call	DWORD PTR __imp_?mem_alloc@xrMemory@@QAEPAXI@Z

; 641  :     _STLP_TRY {
; 642  :       uninitialized_copy(__first, __last, __result);

	mov	ecx, DWORD PTR ___first$[esp]
	mov	esi, eax
	mov	eax, DWORD PTR ___last$[esp]
	mov	edx, esi
	call	??$__ucopy@PBUSFlare@CLensFlareDescriptor@@PAU12@H@priv@stlp_std@@YAPAUSFlare@CLensFlareDescriptor@@PBU23@0PAU23@ABUrandom_access_iterator_tag@1@PAH@Z ; stlp_std::priv::__ucopy<CLensFlareDescriptor::SFlare const *,CLensFlareDescriptor::SFlare *,int>

; 643  :       return __result;

	mov	eax, esi
	pop	esi

; 644  :     }
; 645  :     _STLP_UNWIND(this->_M_end_of_storage.deallocate(__result, __n))
; 646  :     _STLP_RET_AFTER_THROW(__result)
; 647  :   }

	ret	8
??$_M_allocate_and_copy@PBUSFlare@CLensFlareDescriptor@@@?$_Impl_vector@USFlare@CLensFlareDescriptor@@V?$xalloc@USFlare@CLensFlareDescriptor@@@@@priv@stlp_std@@AAEPAUSFlare@CLensFlareDescriptor@@AAIPBU34@1@Z ENDP ; stlp_std::priv::_Impl_vector<CLensFlareDescriptor::SFlare,xalloc<CLensFlareDescriptor::SFlare> >::_M_allocate_and_copy<CLensFlareDescriptor::SFlare const *>
; Function compile flags: /Ogtpy
; File d:\clearsky\sources\engine\xrcore\xrmemory_subst_msvc.h
_TEXT	ENDS
;	COMDAT ??$xr_new@VCLensFlareDescriptor@@@@YAPAVCLensFlareDescriptor@@XZ
_TEXT	SEGMENT
??$xr_new@VCLensFlareDescriptor@@@@YAPAVCLensFlareDescriptor@@XZ PROC ; xr_new<CLensFlareDescriptor>, COMDAT

; 68   : 	T* ptr	= (T*)Memory.mem_alloc(sizeof(T));

	mov	ecx, DWORD PTR __imp_?Memory@@3VxrMemory@@A
	push	80					; 00000050H
	call	DWORD PTR __imp_?mem_alloc@xrMemory@@QAEPAXI@Z

; 69   : 	return new (ptr) T();

	test	eax, eax
	je	SHORT $LN3@xr_new@41
	mov	ecx, eax
	jmp	??0CLensFlareDescriptor@@QAE@XZ		; CLensFlareDescriptor::CLensFlareDescriptor
$LN3@xr_new@41:
	xor	eax, eax

; 70   : }

	ret	0
??$xr_new@VCLensFlareDescriptor@@@@YAPAVCLensFlareDescriptor@@XZ ENDP ; xr_new<CLensFlareDescriptor>
; Function compile flags: /Ogtpy
; File d:\clearsky\sources\sdk\include\stlport\stl\_vector.c
_TEXT	ENDS
;	COMDAT ??4?$_Impl_vector@USFlare@CLensFlareDescriptor@@V?$xalloc@USFlare@CLensFlareDescriptor@@@@@priv@stlp_std@@QAEAAV012@ABV012@@Z
_TEXT	SEGMENT
___result$498590 = -4					; size = 4
tv323 = 8						; size = 4
___x$ = 8						; size = 4
??4?$_Impl_vector@USFlare@CLensFlareDescriptor@@V?$xalloc@USFlare@CLensFlareDescriptor@@@@@priv@stlp_std@@QAEAAV012@ABV012@@Z PROC ; stlp_std::priv::_Impl_vector<CLensFlareDescriptor::SFlare,xalloc<CLensFlareDescriptor::SFlare> >::operator=, COMDAT
; _this$ = esi

; 177  : vector<_Tp, _Alloc>& vector<_Tp, _Alloc>::operator = (const vector<_Tp, _Alloc>& __x) {

	push	ecx
	push	ebx
	push	ebp
	mov	ebp, DWORD PTR ___x$[esp+8]

; 178  :   if (&__x != this) {

	cmp	ebp, esi
	push	edi
	je	$LN83@operator@127

; 179  :     const size_type __xlen = __x.size();

	mov	ecx, DWORD PTR [ebp+4]
	mov	ebx, DWORD PTR [ebp]
	mov	DWORD PTR tv323[esp+12], ecx
	sub	ecx, ebx
	mov	eax, 715827883				; 2aaaaaabH
	imul	ecx

; 180  :     if (__xlen > capacity()) {

	mov	ecx, DWORD PTR [esi]
	sar	edx, 2
	mov	edi, edx
	shr	edi, 31					; 0000001fH
	add	edi, edx
	mov	edx, DWORD PTR [esi+8]
	sub	edx, ecx
	mov	eax, 715827883				; 2aaaaaabH
	imul	edx
	sar	edx, 2
	mov	eax, edx
	shr	eax, 31					; 0000001fH
	add	eax, edx
	cmp	edi, eax
	jbe	SHORT $LN4@operator@127

; 181  :       size_type __len = __xlen;
; 182  :       pointer __tmp = _M_allocate_and_copy(__len, __CONST_CAST(const_pointer, __x._M_start) + 0,
; 183  :                                                   __CONST_CAST(const_pointer, __x._M_finish) + 0);

	mov	ecx, DWORD PTR __imp_?Memory@@3VxrMemory@@A
	lea	ebp, DWORD PTR [edi+edi*2]
	add	ebp, ebp
	add	ebp, ebp
	add	ebp, ebp
	push	ebp
	call	DWORD PTR __imp_?mem_alloc@xrMemory@@QAEPAXI@Z
	mov	DWORD PTR ___result$498590[esp+16], eax
	mov	edx, eax
	mov	eax, DWORD PTR tv323[esp+12]
	mov	ecx, ebx
	call	??$__ucopy@PBUSFlare@CLensFlareDescriptor@@PAU12@H@priv@stlp_std@@YAPAUSFlare@CLensFlareDescriptor@@PBU23@0PAU23@ABUrandom_access_iterator_tag@1@PAH@Z ; stlp_std::priv::__ucopy<CLensFlareDescriptor::SFlare const *,CLensFlareDescriptor::SFlare *,int>

; 184  :       _M_clear();

	mov	ecx, DWORD PTR [esi+4]
	mov	eax, DWORD PTR [esi]
	push	ecx
	mov	edx, esp
	mov	DWORD PTR [edx], eax
	push	ecx
	mov	eax, esp
	mov	DWORD PTR [eax], ecx
	call	??$__destroy_range_aux@V?$reverse_iterator@PAUSFlare@CLensFlareDescriptor@@@stlp_std@@USFlare@CLensFlareDescriptor@@@stlp_std@@YAXV?$reverse_iterator@PAUSFlare@CLensFlareDescriptor@@@0@0PAUSFlare@CLensFlareDescriptor@@ABU__false_type@0@@Z ; stlp_std::__destroy_range_aux<stlp_std::reverse_iterator<CLensFlareDescriptor::SFlare *>,CLensFlareDescriptor::SFlare>
	mov	eax, DWORD PTR [esi]
	add	esp, 8
	test	eax, eax
	je	SHORT $LN64@operator@127
	mov	ecx, DWORD PTR __imp_?Memory@@3VxrMemory@@A
	push	eax
	call	DWORD PTR __imp_?mem_free@xrMemory@@QAEXPAX@Z
$LN64@operator@127:

; 185  :       this->_M_start = __tmp;

	mov	eax, DWORD PTR ___result$498590[esp+16]

; 196  :     }
; 197  :     this->_M_finish = this->_M_start + __xlen;

	lea	edx, DWORD PTR [edi+edi*2]
	add	ebp, eax
	lea	ecx, DWORD PTR [eax+edx*8]
	mov	DWORD PTR [esi], eax
	mov	DWORD PTR [esi+8], ebp
	mov	DWORD PTR [esi+4], ecx

; 198  :   }
; 199  :   return *this;

	mov	eax, esi

; 200  : }

	pop	edi
	pop	ebp
	pop	ebx
	pop	ecx
	ret	4
$LN4@operator@127:

; 186  :       this->_M_end_of_storage._M_data = this->_M_start + __len;
; 187  :     } else if (size() >= __xlen) {

	mov	edx, DWORD PTR [esi+4]
	sub	edx, ecx
	mov	eax, 715827883				; 2aaaaaabH
	imul	edx
	sar	edx, 2
	mov	eax, edx
	shr	eax, 31					; 0000001fH
	add	eax, edx
	cmp	eax, edi
	jb	SHORT $LN2@operator@127

; 188  :       pointer __i = _STLP_PRIV __copy_ptrs(__CONST_CAST(const_pointer, __x._M_start) + 0,
; 189  :                                            __CONST_CAST(const_pointer, __x._M_finish) + 0, this->_M_start, _TrivialCopy());

	mov	eax, DWORD PTR tv323[esp+12]
	mov	edx, ebx
	call	??$__copy@PBUSFlare@CLensFlareDescriptor@@PAU12@H@priv@stlp_std@@YAPAUSFlare@CLensFlareDescriptor@@PBU23@0PAU23@ABUrandom_access_iterator_tag@1@PAH@Z ; stlp_std::priv::__copy<CLensFlareDescriptor::SFlare const *,CLensFlareDescriptor::SFlare *,int>

; 190  :       _STLP_STD::_Destroy_Range(__i, this->_M_finish);

	mov	ebx, DWORD PTR [esi+4]
	call	??$__destroy_range_aux@PAUSFlare@CLensFlareDescriptor@@U12@@stlp_std@@YAXPAUSFlare@CLensFlareDescriptor@@00ABU__false_type@0@@Z ; stlp_std::__destroy_range_aux<CLensFlareDescriptor::SFlare *,CLensFlareDescriptor::SFlare>

; 196  :     }
; 197  :     this->_M_finish = this->_M_start + __xlen;

	mov	eax, DWORD PTR [esi]
	lea	edx, DWORD PTR [edi+edi*2]
	lea	ecx, DWORD PTR [eax+edx*8]
	mov	DWORD PTR [esi+4], ecx

; 198  :   }
; 199  :   return *this;

	mov	eax, esi

; 200  : }

	pop	edi
	pop	ebp
	pop	ebx
	pop	ecx
	ret	4
$LN2@operator@127:

; 191  :     } else {
; 192  :       _STLP_PRIV __copy_ptrs(__CONST_CAST(const_pointer, __x._M_start),
; 193  :                              __CONST_CAST(const_pointer, __x._M_start) + size(), this->_M_start, _TrivialCopy());

	lea	edx, DWORD PTR [eax+eax*2]
	lea	eax, DWORD PTR [ebx+edx*8]
	mov	edx, ebx
	call	??$__copy@PBUSFlare@CLensFlareDescriptor@@PAU12@H@priv@stlp_std@@YAPAUSFlare@CLensFlareDescriptor@@PBU23@0PAU23@ABUrandom_access_iterator_tag@1@PAH@Z ; stlp_std::priv::__copy<CLensFlareDescriptor::SFlare const *,CLensFlareDescriptor::SFlare *,int>

; 194  :       _STLP_PRIV __ucopy_ptrs(__CONST_CAST(const_pointer, __x._M_start) + size(),
; 195  :                               __CONST_CAST(const_pointer, __x._M_finish) + 0, this->_M_finish, _TrivialUCopy());

	mov	ebx, DWORD PTR [esi+4]
	mov	ecx, ebx
	sub	ecx, DWORD PTR [esi]
	mov	eax, 715827883				; 2aaaaaabH
	imul	ecx
	mov	ecx, DWORD PTR [ebp]
	sar	edx, 2
	mov	eax, edx
	shr	eax, 31					; 0000001fH
	add	eax, edx
	lea	eax, DWORD PTR [eax+eax*2]
	lea	ecx, DWORD PTR [ecx+eax*8]
	mov	eax, DWORD PTR [ebp+4]
	mov	edx, ebx
	call	??$__ucopy@PBUSFlare@CLensFlareDescriptor@@PAU12@H@priv@stlp_std@@YAPAUSFlare@CLensFlareDescriptor@@PBU23@0PAU23@ABUrandom_access_iterator_tag@1@PAH@Z ; stlp_std::priv::__ucopy<CLensFlareDescriptor::SFlare const *,CLensFlareDescriptor::SFlare *,int>

; 196  :     }
; 197  :     this->_M_finish = this->_M_start + __xlen;

	mov	eax, DWORD PTR [esi]
	lea	edx, DWORD PTR [edi+edi*2]
	lea	ecx, DWORD PTR [eax+edx*8]
	mov	DWORD PTR [esi+4], ecx
$LN83@operator@127:

; 200  : }

	pop	edi
	pop	ebp
	mov	eax, esi
	pop	ebx
	pop	ecx
	ret	4
??4?$_Impl_vector@USFlare@CLensFlareDescriptor@@V?$xalloc@USFlare@CLensFlareDescriptor@@@@@priv@stlp_std@@QAEAAV012@ABV012@@Z ENDP ; stlp_std::priv::_Impl_vector<CLensFlareDescriptor::SFlare,xalloc<CLensFlareDescriptor::SFlare> >::operator=
; Function compile flags: /Ogtpy
; File d:\clearsky\sources\sdk\include\stlport\stl\pointers\_vector.h
_TEXT	ENDS
;	COMDAT ??4?$vector@USFlare@CLensFlareDescriptor@@V?$xalloc@USFlare@CLensFlareDescriptor@@@@@stlp_std@@QAEAAV01@ABV01@@Z
_TEXT	SEGMENT
??4?$vector@USFlare@CLensFlareDescriptor@@V?$xalloc@USFlare@CLensFlareDescriptor@@@@@stlp_std@@QAEAAV01@ABV01@@Z PROC ; stlp_std::vector<CLensFlareDescriptor::SFlare,xalloc<CLensFlareDescriptor::SFlare> >::operator=, COMDAT
; _this$ = ecx
; ___x$ = eax

; 149  :   _Self& operator=(const _Self& __x) { _M_impl = __x._M_impl; return *this; }

	push	esi
	mov	esi, ecx
	push	eax
	call	??4?$_Impl_vector@USFlare@CLensFlareDescriptor@@V?$xalloc@USFlare@CLensFlareDescriptor@@@@@priv@stlp_std@@QAEAAV012@ABV012@@Z ; stlp_std::priv::_Impl_vector<CLensFlareDescriptor::SFlare,xalloc<CLensFlareDescriptor::SFlare> >::operator=
	mov	eax, esi
	pop	esi
	ret	0
??4?$vector@USFlare@CLensFlareDescriptor@@V?$xalloc@USFlare@CLensFlareDescriptor@@@@@stlp_std@@QAEAAV01@ABV01@@Z ENDP ; stlp_std::vector<CLensFlareDescriptor::SFlare,xalloc<CLensFlareDescriptor::SFlare> >::operator=
_TEXT	ENDS
PUBLIC	?thunderbolt_collection@CEnvironment@@QAEPAUSThunderboltCollection@@PAVCInifile@@0PBD@Z ; CEnvironment::thunderbolt_collection
; Function compile flags: /Ogtpy
; File d:\clearsky\sources\engine\xrengine\environment.cpp
;	COMDAT ?thunderbolt_collection@CEnvironment@@QAEPAUSThunderboltCollection@@PAVCInifile@@0PBD@Z
_TEXT	SEGMENT
_pIni$ = 8						; size = 4
_thunderbolts$ = 12					; size = 4
_section$ = 16						; size = 4
?thunderbolt_collection@CEnvironment@@QAEPAUSThunderboltCollection@@PAVCInifile@@0PBD@Z PROC ; CEnvironment::thunderbolt_collection, COMDAT
; _this$ = ecx

; 618  : 	SThunderboltCollection*	result = xr_new<SThunderboltCollection>();

	mov	ecx, DWORD PTR __imp_?Memory@@3VxrMemory@@A
	push	esi
	push	16					; 00000010H
	call	DWORD PTR __imp_?mem_alloc@xrMemory@@QAEPAXI@Z
	xor	esi, esi
	cmp	eax, esi
	je	SHORT $LN5@thunderbol@3
	mov	DWORD PTR [eax], esi
	mov	DWORD PTR [eax+4], esi
	mov	DWORD PTR [eax+8], esi
	mov	DWORD PTR [eax+12], esi
	mov	esi, eax
$LN5@thunderbol@3:

; 619  : 	result->load			(pIni, thunderbolts, section);

	mov	eax, DWORD PTR _section$[esp]
	mov	ecx, DWORD PTR _pIni$[esp]
	push	eax
	mov	eax, DWORD PTR _thunderbolts$[esp+4]
	push	ecx
	mov	ecx, esi
	call	?load@SThunderboltCollection@@QAEXPAVCInifile@@0PBD@Z ; SThunderboltCollection::load

; 620  : 	return					(result);

	mov	eax, esi
	pop	esi

; 621  : }

	ret	12					; 0000000cH
?thunderbolt_collection@CEnvironment@@QAEPAUSThunderboltCollection@@PAVCInifile@@0PBD@Z ENDP ; CEnvironment::thunderbolt_collection
_TEXT	ENDS
PUBLIC	?lerp@CEnvironment@@QAEXAAM@Z			; CEnvironment::lerp
; Function compile flags: /Ogtpy
;	COMDAT ?lerp@CEnvironment@@QAEXAAM@Z
_TEXT	SEGMENT
_mpower$ = -96						; size = 4
_view$ = -92						; size = 12
_EM$ = -80						; size = 80
_current_weight$ = 8					; size = 4
?lerp@CEnvironment@@QAEXAAM@Z PROC			; CEnvironment::lerp, COMDAT
; _this$ = ecx

; 448  : {

	push	ebp
	mov	ebp, esp
	and	esp, -8					; fffffff8H
	sub	esp, 100				; 00000064H
	push	ebx
	push	esi
	mov	esi, ecx

; 449  : 	if (bWFX&&(wfx_time<=0.f)) StopWFX();

	cmp	BYTE PTR [esi+132], 0
	push	edi
	je	SHORT $LN7@lerp@3
	xorps	xmm0, xmm0
	comiss	xmm0, DWORD PTR [esi+136]
	jb	SHORT $LN7@lerp@3
	call	?StopWFX@CEnvironment@@QAEXXZ		; CEnvironment::StopWFX
$LN7@lerp@3:

; 450  : 
; 451  : 	SelectEnvs				(fGameTime);

	fld	DWORD PTR [esi+28]
	push	ecx
	mov	ecx, esi
	fstp	DWORD PTR [esp]
	call	?SelectEnvs@CEnvironment@@QAEXM@Z	; CEnvironment::SelectEnvs

; 452  :     VERIFY					(Current[0]&&Current[1]);
; 453  : 
; 454  : 	current_weight			= TimeWeight(fGameTime,Current[0]->exec_time,Current[1]->exec_time);

	mov	eax, DWORD PTR [esi+128]
	fld	DWORD PTR [eax]
	mov	ecx, DWORD PTR [esi+124]
	sub	esp, 12					; 0000000cH
	fstp	DWORD PTR [esp+8]
	fld	DWORD PTR [ecx]
	mov	ecx, esi
	fstp	DWORD PTR [esp+4]
	fld	DWORD PTR [esi+28]
	fstp	DWORD PTR [esp]
	call	?TimeWeight@CEnvironment@@AAEMMMM@Z	; CEnvironment::TimeWeight

; 455  : 	// modifiers
; 456  : 	CEnvModifier			EM;
; 457  : 	EM.far_plane			= 0;

	xorps	xmm0, xmm0
	mov	edx, DWORD PTR _current_weight$[ebp]
	fstp	DWORD PTR [edx]

; 458  : 	EM.fog_color.set		( 0,0,0 );
; 459  : 	EM.fog_density			= 0;
; 460  : 	EM.ambient.set			( 0,0,0 );
; 461  : 	EM.sky_color.set		( 0,0,0 );
; 462  : 	EM.hemi_color.set		( 0,0,0 );
; 463  : 	EM.use_flags.zero		();
; 464  : 
; 465  : 	Fvector	view			= Device.vCameraPosition;

	mov	ecx, DWORD PTR ?Device@@3VCRenderDevice@@A+52
	mov	eax, DWORD PTR ?Device@@3VCRenderDevice@@A+48
	mov	edx, DWORD PTR ?Device@@3VCRenderDevice@@A+56
	mov	DWORD PTR _view$[esp+116], ecx

; 466  : 	float	mpower			= 0;
; 467  : 	for (xr_vector<CEnvModifier>::iterator mit=Modifiers.begin(); mit!=Modifiers.end(); mit++)

	lea	ebx, DWORD PTR [esi+208]
	mov	ecx, ebx
	movss	DWORD PTR _EM$[esp+132], xmm0
	movss	DWORD PTR _EM$[esp+136], xmm0
	movss	DWORD PTR _EM$[esp+140], xmm0
	movss	DWORD PTR _EM$[esp+144], xmm0
	movss	DWORD PTR _EM$[esp+148], xmm0
	movss	DWORD PTR _EM$[esp+152], xmm0
	movss	DWORD PTR _EM$[esp+156], xmm0
	movss	DWORD PTR _EM$[esp+160], xmm0
	movss	DWORD PTR _EM$[esp+164], xmm0
	movss	DWORD PTR _EM$[esp+168], xmm0
	movss	DWORD PTR _EM$[esp+172], xmm0
	movss	DWORD PTR _EM$[esp+176], xmm0
	movss	DWORD PTR _EM$[esp+180], xmm0
	movss	DWORD PTR _EM$[esp+184], xmm0
	mov	WORD PTR _EM$[esp+188], 0
	mov	DWORD PTR _view$[esp+112], eax
	mov	DWORD PTR _view$[esp+120], edx
	movss	DWORD PTR _mpower$[esp+112], xmm0
	call	?begin@?$_Impl_vector@VCEnvModifier@@V?$xalloc@VCEnvModifier@@@@@priv@stlp_std@@QAEPAVCEnvModifier@@XZ ; stlp_std::priv::_Impl_vector<CEnvModifier,xalloc<CEnvModifier> >::begin
	mov	ecx, ebx
	mov	edi, eax
	call	?end@?$_Impl_vector@VCEnvModifier@@V?$xalloc@VCEnvModifier@@@@@priv@stlp_std@@QAEPAVCEnvModifier@@XZ ; stlp_std::priv::_Impl_vector<CEnvModifier,xalloc<CEnvModifier> >::end
	cmp	edi, eax
	je	SHORT $LN1@lerp@3
	npad	5
$LL3@lerp@3:

; 468  : 		mpower				+= EM.sum(*mit,view);

	lea	eax, DWORD PTR _view$[esp+112]
	push	eax
	push	edi
	lea	ecx, DWORD PTR _EM$[esp+120]
	call	?sum@CEnvModifier@@QAEMAAV1@AAU?$_vector3@M@@@Z ; CEnvModifier::sum
	fadd	DWORD PTR _mpower$[esp+112]
	mov	ecx, ebx
	add	edi, 80					; 00000050H
	fstp	DWORD PTR _mpower$[esp+112]
	call	?end@?$_Impl_vector@VCEnvModifier@@V?$xalloc@VCEnvModifier@@@@@priv@stlp_std@@QAEPAVCEnvModifier@@XZ ; stlp_std::priv::_Impl_vector<CEnvModifier,xalloc<CEnvModifier> >::end
	cmp	edi, eax
	jne	SHORT $LL3@lerp@3
$LN1@lerp@3:

; 469  : 
; 470  : 	// final lerp
; 471  : 	CurrentEnv->lerp		(this,*Current[0],*Current[1],current_weight,EM,mpower);

	fld	DWORD PTR _mpower$[esp+112]
	mov	edx, DWORD PTR _current_weight$[ebp]
	mov	eax, DWORD PTR [esi+128]
	push	ecx
	fstp	DWORD PTR [esp]
	lea	ecx, DWORD PTR _EM$[esp+116]
	fld	DWORD PTR [edx]
	push	ecx
	push	ecx
	mov	ecx, DWORD PTR [esi+124]
	fstp	DWORD PTR [esp]
	push	eax
	push	ecx
	mov	ecx, DWORD PTR [esi+120]
	push	esi
	call	?lerp@CEnvDescriptorMixer@@QAEXPAVCEnvironment@@AAVCEnvDescriptor@@1MAAVCEnvModifier@@M@Z ; CEnvDescriptorMixer::lerp

; 472  : }

	pop	edi
	pop	esi
	pop	ebx
	mov	esp, ebp
	pop	ebp
	ret	4
?lerp@CEnvironment@@QAEXAAM@Z ENDP			; CEnvironment::lerp
_TEXT	ENDS
PUBLIC	?StartWeatherFXFromTime@CEnvironment@@QAE_NVshared_str@@M@Z ; CEnvironment::StartWeatherFXFromTime
; Function compile flags: /Ogtpy
;	COMDAT ?StartWeatherFXFromTime@CEnvironment@@QAE_NVshared_str@@M@Z
_TEXT	SEGMENT
_name$ = 8						; size = 4
_time$ = 12						; size = 4
?StartWeatherFXFromTime@CEnvironment@@QAE_NVshared_str@@M@Z PROC ; CEnvironment::StartWeatherFXFromTime, COMDAT
; _this$ = ecx

; 364  : {

	push	ebx

; 365  : 	if(!SetWeatherFX(name))				

	mov	ebx, DWORD PTR _name$[esp]
	test	ebx, ebx
	push	esi
	push	edi
	push	ecx
	mov	eax, esp
	mov	edi, ecx
	mov	DWORD PTR [eax], 0
	je	SHORT $LN9@StartWeath
	add	DWORD PTR [ebx], 1
$LN9@StartWeath:
	mov	ecx, DWORD PTR [eax]
	test	ecx, ecx
	je	SHORT $LN12@StartWeath
	add	DWORD PTR [ecx], -1
	mov	ecx, DWORD PTR [eax]
	cmp	DWORD PTR [ecx], 0
	jne	SHORT $LN12@StartWeath
	mov	DWORD PTR [eax], 0
$LN12@StartWeath:
	mov	ecx, edi
	mov	DWORD PTR [eax], ebx
	call	?SetWeatherFX@CEnvironment@@QAE_NVshared_str@@@Z ; CEnvironment::SetWeatherFX
	test	al, al
	jne	SHORT $LN4@StartWeath

; 366  : 		return false;

	test	ebx, ebx
	je	SHORT $LN18@StartWeath
	add	DWORD PTR [ebx], -1
$LN18@StartWeath:
	xor	al, al

; 373  : }

	pop	edi
	pop	esi
	pop	ebx
	ret	8
$LN4@StartWeath:

; 367  : 
; 368  : 	for (EnvIt it=CurrentWeather->begin(); it!=CurrentWeather->end(); it++)

	mov	edx, DWORD PTR [edi+148]
	mov	eax, DWORD PTR [edx]
	push	eax
	call	?cv_ptr@?$_VoidCastTraitsAux@PAXPAX@priv@stlp_std@@SAPAPAXPAPAX@Z ; stlp_std::priv::_VoidCastTraitsAux<void *,void *>::cv_ptr
	mov	esi, eax
	mov	eax, DWORD PTR [edi+148]
	mov	eax, DWORD PTR [eax+4]
	push	eax
	call	?cv_ptr@?$_VoidCastTraitsAux@PAXPAX@priv@stlp_std@@SAPAPAXPAPAX@Z ; stlp_std::priv::_VoidCastTraitsAux<void *,void *>::cv_ptr
	add	esp, 8
	cmp	esi, eax
	je	SHORT $LN1@StartWeath
$LL52@StartWeath:

; 369  : 		(*it)->exec_time = NormalizeTime((*it)->exec_time - wfx_time + time);

	mov	eax, DWORD PTR [esi]
	movss	xmm0, DWORD PTR [eax]
	subss	xmm0, DWORD PTR [edi+136]
	addss	xmm0, DWORD PTR _time$[esp+8]
	xorps	xmm2, xmm2
	comiss	xmm2, xmm0
	movss	xmm1, DWORD PTR __real@47a8c000
	jbe	SHORT $LN41@StartWeath
	addss	xmm0, xmm1
	jmp	SHORT $LN39@StartWeath
$LN41@StartWeath:
	comiss	xmm0, xmm1
	jbe	SHORT $LN39@StartWeath
	subss	xmm0, xmm1
$LN39@StartWeath:
	movss	DWORD PTR [eax], xmm0
	mov	ecx, DWORD PTR [edi+148]
	mov	eax, DWORD PTR [ecx+4]
	push	eax
	add	esi, 4
	call	?cv_ptr@?$_VoidCastTraitsAux@PAXPAX@priv@stlp_std@@SAPAPAXPAPAX@Z ; stlp_std::priv::_VoidCastTraitsAux<void *,void *>::cv_ptr
	add	esp, 4
	cmp	esi, eax
	jne	SHORT $LL52@StartWeath
$LN1@StartWeath:

; 370  : 
; 371  : 	wfx_time = time;
; 372  : 	return true;

	test	ebx, ebx
	movss	xmm0, DWORD PTR _time$[esp+8]
	movss	DWORD PTR [edi+136], xmm0
	je	SHORT $LN46@StartWeath
	add	DWORD PTR [ebx], -1
$LN46@StartWeath:

; 373  : }

	pop	edi
	pop	esi
	mov	al, 1
	pop	ebx
	ret	8
?StartWeatherFXFromTime@CEnvironment@@QAE_NVshared_str@@M@Z ENDP ; CEnvironment::StartWeatherFXFromTime
; Function compile flags: /Ogtpy
_TEXT	ENDS
;	COMDAT ??4?$xr_vector@USFlare@CLensFlareDescriptor@@V?$xalloc@USFlare@CLensFlareDescriptor@@@@@@QAEAAV0@ABV0@@Z
_TEXT	SEGMENT
??4?$xr_vector@USFlare@CLensFlareDescriptor@@V?$xalloc@USFlare@CLensFlareDescriptor@@@@@@QAEAAV0@ABV0@@Z PROC ; xr_vector<CLensFlareDescriptor::SFlare,xalloc<CLensFlareDescriptor::SFlare> >::operator=, COMDAT
; _this$ = ecx
; ___that$ = eax
	push	esi
	mov	esi, ecx
	push	eax
	call	??4?$_Impl_vector@USFlare@CLensFlareDescriptor@@V?$xalloc@USFlare@CLensFlareDescriptor@@@@@priv@stlp_std@@QAEAAV012@ABV012@@Z ; stlp_std::priv::_Impl_vector<CLensFlareDescriptor::SFlare,xalloc<CLensFlareDescriptor::SFlare> >::operator=
	mov	eax, esi
	pop	esi
	ret	0
??4?$xr_vector@USFlare@CLensFlareDescriptor@@V?$xalloc@USFlare@CLensFlareDescriptor@@@@@@QAEAAV0@ABV0@@Z ENDP ; xr_vector<CLensFlareDescriptor::SFlare,xalloc<CLensFlareDescriptor::SFlare> >::operator=
_TEXT	ENDS
PUBLIC	??4CLensFlareDescriptor@@QAEAAV0@ABV0@@Z	; CLensFlareDescriptor::operator=
; Function compile flags: /Ogtpy
;	COMDAT ??4CLensFlareDescriptor@@QAEAAV0@ABV0@@Z
_TEXT	SEGMENT
___that$ = 8						; size = 4
??4CLensFlareDescriptor@@QAEAAV0@ABV0@@Z PROC		; CLensFlareDescriptor::operator=, COMDAT
; _this$ = ecx
	push	ebx
	mov	ebx, DWORD PTR ___that$[esp]
	push	ebp
	push	esi
	push	edi
	mov	edi, ecx
	push	ebx
	mov	esi, edi
	call	??4?$_Impl_vector@USFlare@CLensFlareDescriptor@@V?$xalloc@USFlare@CLensFlareDescriptor@@@@@priv@stlp_std@@QAEAAV012@ABV012@@Z ; stlp_std::priv::_Impl_vector<CLensFlareDescriptor::SFlare,xalloc<CLensFlareDescriptor::SFlare> >::operator=
	mov	eax, DWORD PTR [ebx+12]
	mov	DWORD PTR [edi+12], eax
	lea	ebp, DWORD PTR [ebx+16]
	lea	esi, DWORD PTR [edi+16]
	mov	eax, ebp
	call	??4SFlare@CLensFlareDescriptor@@QAEAAU01@ABU01@@Z
	mov	ecx, DWORD PTR [ebp+24]
	mov	DWORD PTR [esi+24], ecx
	lea	eax, DWORD PTR [ebx+44]
	lea	esi, DWORD PTR [edi+44]
	call	??4SFlare@CLensFlareDescriptor@@QAEAAU01@ABU01@@Z
	fld	DWORD PTR [ebx+68]
	fstp	DWORD PTR [edi+68]
	fld	DWORD PTR [ebx+72]
	fstp	DWORD PTR [edi+72]
	mov	ebx, DWORD PTR [ebx+76]
	test	ebx, ebx
	je	SHORT $LN11@operator@128
	add	DWORD PTR [ebx], 1
$LN11@operator@128:
	mov	eax, DWORD PTR [edi+76]
	test	eax, eax
	je	SHORT $LN19@operator@128
	add	DWORD PTR [eax], -1
	mov	edx, DWORD PTR [edi+76]
	cmp	DWORD PTR [edx], 0
	mov	eax, edi
	jne	SHORT $LN20@operator@128
	mov	DWORD PTR [edi+76], 0
	mov	DWORD PTR [edi+76], ebx
	pop	edi
	pop	esi
	pop	ebp
	pop	ebx
	ret	4
$LN19@operator@128:
	mov	eax, edi
$LN20@operator@128:
	mov	DWORD PTR [edi+76], ebx
	pop	edi
	pop	esi
	pop	ebp
	pop	ebx
	ret	4
??4CLensFlareDescriptor@@QAEAAV0@ABV0@@Z ENDP		; CLensFlareDescriptor::operator=
PUBLIC	?add_flare@CEnvironment@@QAEPAVCLensFlareDescriptor@@AAV?$xr_vector@PAVCLensFlareDescriptor@@V?$xalloc@PAVCLensFlareDescriptor@@@@@@ABVshared_str@@@Z ; CEnvironment::add_flare
; Function compile flags: /Ogtpy
;	COMDAT ?add_flare@CEnvironment@@QAEPAVCLensFlareDescriptor@@AAV?$xr_vector@PAVCLensFlareDescriptor@@V?$xalloc@PAVCLensFlareDescriptor@@@@@@ABVshared_str@@@Z
_TEXT	SEGMENT
$T535847 = -4						; size = 4
_result$ = 8						; size = 4
_collection$ = 8					; size = 4
___old_size$535931 = 12					; size = 4
_id$ = 12						; size = 4
?add_flare@CEnvironment@@QAEPAVCLensFlareDescriptor@@AAV?$xr_vector@PAVCLensFlareDescriptor@@V?$xalloc@PAVCLensFlareDescriptor@@@@@@ABVshared_str@@@Z PROC ; CEnvironment::add_flare, COMDAT
; _this$ = ecx

; 639  : {

	push	ecx
	push	ebx
	push	ebp
	push	esi
	push	edi

; 640  : 	typedef xr_vector<CLensFlareDescriptor*>	Flares;
; 641  : 
; 642  : 	Flares::const_iterator	i = collection.begin();

	mov	edi, DWORD PTR _collection$[esp+16]
	mov	eax, DWORD PTR [edi]
	push	eax
	mov	ebp, ecx
	call	?cv_ptr@?$_VoidCastTraitsAux@PAXPAX@priv@stlp_std@@SAPAPAXPAPAX@Z ; stlp_std::priv::_VoidCastTraitsAux<void *,void *>::cv_ptr
	mov	esi, eax

; 643  : 	Flares::const_iterator	e = collection.end();

	mov	eax, DWORD PTR [edi+4]
	push	eax
	call	?cv_ptr@?$_VoidCastTraitsAux@PAXPAX@priv@stlp_std@@SAPAPAXPAPAX@Z ; stlp_std::priv::_VoidCastTraitsAux<void *,void *>::cv_ptr
	add	esp, 8

; 644  : 	for ( ; i != e; ++i) {

	cmp	esi, eax
	je	SHORT $LN2@add_flare
	mov	ecx, DWORD PTR _id$[esp+16]
	mov	ecx, DWORD PTR [ecx]
	npad	5
$LL4@add_flare:

; 645  : 		if ((*i)->section == id)

	mov	edx, DWORD PTR [esi]
	cmp	DWORD PTR [edx+76], ecx
	je	SHORT $LN124@add_flare
	add	esi, 4
	cmp	esi, eax
	jne	SHORT $LL4@add_flare
$LN2@add_flare:

; 647  : 	}
; 648  : 
; 649  : 	CLensFlareDescriptor*	result = xr_new<CLensFlareDescriptor>();

	mov	ecx, DWORD PTR __imp_?Memory@@3VxrMemory@@A
	mov	ebx, DWORD PTR __imp_?mem_alloc@xrMemory@@QAEPAXI@Z
	push	80					; 00000050H
	call	ebx
	test	eax, eax
	je	SHORT $LN31@add_flare
	mov	ecx, eax
	call	??0CLensFlareDescriptor@@QAE@XZ		; CLensFlareDescriptor::CLensFlareDescriptor
	jmp	SHORT $LN127@add_flare
$LN124@add_flare:

; 646  : 			return			(*i);

	mov	eax, edx

; 653  : }

	pop	edi
	pop	esi
	pop	ebp
	pop	ebx
	pop	ecx
	ret	8

; 647  : 	}
; 648  : 
; 649  : 	CLensFlareDescriptor*	result = xr_new<CLensFlareDescriptor>();

$LN31@add_flare:
	xor	eax, eax
$LN127@add_flare:

; 650  : 	result->load			(m_suns_config, id.c_str());

	mov	ecx, DWORD PTR _id$[esp+16]
	mov	edx, DWORD PTR [ecx]
	test	edx, edx
	mov	DWORD PTR _result$[esp+16], eax
	je	SHORT $LN37@add_flare
	add	edx, 16					; 00000010H
	jmp	SHORT $LN38@add_flare
$LN37@add_flare:
	xor	edx, edx
$LN38@add_flare:
	push	edx
	mov	edx, DWORD PTR [ebp+264]
	push	edx
	mov	ecx, eax
	call	?load@CLensFlareDescriptor@@QAEXPAVCInifile@@PBD@Z ; CLensFlareDescriptor::load

; 651  : 	collection.push_back	(result);	

	mov	esi, DWORD PTR [edi+4]
	cmp	esi, DWORD PTR [edi+8]
	je	SHORT $LN46@add_flare
	lea	eax, DWORD PTR _result$[esp+16]
	push	eax
	push	esi
	call	??$_Copy_Construct@PAX@stlp_std@@YAXPAPAXABQAX@Z ; stlp_std::_Copy_Construct<void *>

; 652  : 	return					(result);

	mov	eax, DWORD PTR _result$[esp+24]
	add	esp, 8
	add	DWORD PTR [edi+4], 4

; 653  : }

	pop	edi
	pop	esi
	pop	ebp
	pop	ebx
	pop	ecx
	ret	8

; 651  : 	collection.push_back	(result);	

$LN46@add_flare:
	mov	ecx, esi
	sub	ecx, DWORD PTR [edi]
	lea	edx, DWORD PTR $T535847[esp+20]
	push	edx
	lea	eax, DWORD PTR ___old_size$535931[esp+20]
	sar	ecx, 2
	push	eax
	mov	DWORD PTR $T535847[esp+28], 1
	mov	DWORD PTR ___old_size$535931[esp+24], ecx
	call	??$max@I@stlp_std@@YAABIABI0@Z		; stlp_std::max<unsigned int>
	mov	eax, DWORD PTR [eax]
	add	eax, DWORD PTR ___old_size$535931[esp+24]
	mov	ecx, DWORD PTR __imp_?Memory@@3VxrMemory@@A
	add	esp, 8
	lea	ebp, DWORD PTR [eax*4]
	push	ebp
	call	ebx
	mov	ebx, eax
	mov	eax, DWORD PTR [edi]
	sub	esi, eax
	je	SHORT $LN76@add_flare
	push	esi
	push	eax
	push	ebx
	call	DWORD PTR __imp__memmove
	add	esp, 12					; 0000000cH
	add	eax, esi
	jmp	SHORT $LN77@add_flare
$LN76@add_flare:
	mov	eax, ebx
$LN77@add_flare:
	mov	ecx, DWORD PTR $T535847[esp+20]
	test	ecx, ecx
	mov	esi, eax
	jbe	SHORT $LN78@add_flare
$LL80@add_flare:
	mov	edx, DWORD PTR _result$[esp+16]
	mov	DWORD PTR [esi], edx
	sub	ecx, 1
	add	esi, 4
	test	ecx, ecx
	ja	SHORT $LL80@add_flare
$LN78@add_flare:
	mov	eax, DWORD PTR [edi]
	test	eax, eax
	je	SHORT $LN117@add_flare
	mov	ecx, DWORD PTR __imp_?Memory@@3VxrMemory@@A
	push	eax
	call	DWORD PTR __imp_?mem_free@xrMemory@@QAEXPAX@Z
$LN117@add_flare:

; 652  : 	return					(result);

	mov	eax, DWORD PTR _result$[esp+16]
	add	ebp, ebx
	mov	DWORD PTR [edi], ebx
	mov	DWORD PTR [edi+4], esi
	mov	DWORD PTR [edi+8], ebp

; 653  : }

	pop	edi
	pop	esi
	pop	ebp
	pop	ebx
	pop	ecx
	ret	8
?add_flare@CEnvironment@@QAEPAVCLensFlareDescriptor@@AAV?$xr_vector@PAVCLensFlareDescriptor@@V?$xalloc@PAVCLensFlareDescriptor@@@@@@ABVshared_str@@@Z ENDP ; CEnvironment::add_flare
PUBLIC	?OnFrame@CEnvironment@@QAEXXZ			; CEnvironment::OnFrame
; Function compile flags: /Ogtpy
;	COMDAT ?OnFrame@CEnvironment@@QAEXXZ
_TEXT	SEGMENT
_current_weight$ = -8					; size = 4
$T546939 = -4						; size = 4
?OnFrame@CEnvironment@@QAEXXZ PROC			; CEnvironment::OnFrame, COMDAT
; _this$ = ecx

; 475  : {

	push	ebp
	mov	ebp, esp
	and	esp, -8					; fffffff8H
	sub	esp, 12					; 0000000cH

; 476  : #ifdef _EDITOR
; 477  : 	SetGameTime				(fGameTime+Device.fTimeDelta*fTimeFactor,fTimeFactor);
; 478  :     if (fsimilar(ed_to_time,DAY_LENGTH)&&fsimilar(ed_from_time,0.f)){
; 479  : 	    if (fGameTime>DAY_LENGTH)	fGameTime-=DAY_LENGTH;
; 480  :     }else{
; 481  : 	    if (fGameTime>ed_to_time){	
; 482  :         	fGameTime=fGameTime-ed_to_time+ed_from_time;
; 483  :             Current[0]=Current[1]=0;
; 484  :         }
; 485  :     	if (fGameTime<ed_from_time){	
; 486  :         	fGameTime=ed_from_time;
; 487  :             Current[0]=Current[1]=0;
; 488  :         }
; 489  :     }
; 490  : 	if (!psDeviceFlags.is(rsEnvironment))		return;
; 491  : #else
; 492  : 	if (!g_pGameLevel)		return;

	cmp	DWORD PTR ?g_pGameLevel@@3PAVIGame_Level@@A, 0 ; g_pGameLevel
	push	ebx
	push	esi
	push	edi
	mov	esi, ecx
	je	$LN63@OnFrame@11

; 493  : #endif
; 494  : 
; 495  : //	if (pInput->iGetAsyncKeyState(DIK_O))		SetWeatherFX("surge_day"); 
; 496  : 	float					current_weight;
; 497  : 	lerp					(current_weight);

	lea	eax, DWORD PTR _current_weight$[esp+24]
	push	eax
	call	?lerp@CEnvironment@@QAEXAAM@Z		; CEnvironment::lerp

; 498  : 
; 499  : 	//	Igor. Dynamic sun position. 
; 500  : 	if ( !::Render->is_sun_static())

	mov	ecx, DWORD PTR __imp_?Render@@3PAVIRender_interface@@A
	mov	ecx, DWORD PTR [ecx]
	mov	edx, DWORD PTR [ecx]
	mov	eax, DWORD PTR [edx+4]
	call	eax
	test	al, al
	jne	SHORT $LN1@OnFrame@11

; 501  : 		calculate_dynamic_sun_dir();

	mov	ecx, esi
	call	?calculate_dynamic_sun_dir@CEnvironment@@AAEXXZ ; CEnvironment::calculate_dynamic_sun_dir
$LN1@OnFrame@11:

; 502  : 
; 503  : #ifndef MASTER_GOLD
; 504  : 	if(CurrentEnv->sun_dir.y>0)
; 505  : 	{
; 506  : 		Log("CurrentEnv->sun_dir", CurrentEnv->sun_dir);
; 507  : //		Log("current_weight", current_weight);
; 508  : //		Log("mpower", mpower);
; 509  : 
; 510  : 		Log("Current[0]->sun_dir", Current[0]->sun_dir);
; 511  : 		Log("Current[1]->sun_dir", Current[1]->sun_dir);
; 512  : 
; 513  : 	}
; 514  : 	VERIFY2						(CurrentEnv->sun_dir.y<0,"Invalid sun direction settings in lerp");
; 515  : #endif // #ifndef MASTER_GOLD
; 516  : 
; 517  : 	PerlinNoise1D->SetFrequency		(wind_gust_factor*MAX_NOISE_FREQ);

	movss	xmm0, DWORD PTR [esi+44]
	mov	eax, DWORD PTR [esi+24]
	mulss	xmm0, DWORD PTR _MAX_NOISE_FREQ
	movss	DWORD PTR [eax+2068], xmm0

; 518  : 	wind_strength_factor			= clampr(PerlinNoise1D->GetContinious(Device.fTimeGlobal)+0.5f,0.f,1.f); 

	fld	DWORD PTR ?Device@@3VCRenderDevice@@A+32
	push	ecx
	mov	ecx, DWORD PTR [esi+24]
	fstp	DWORD PTR [esp]
	call	?GetContinious@CPerlinNoise1D@@QAEMM@Z	; CPerlinNoise1D::GetContinious
	fadd	DWORD PTR __real@3f000000
	fst	DWORD PTR $T546939[esp+24]
	fldz
	fcomip	ST(1)
	fstp	ST(0)
	jbe	SHORT $LN14@OnFrame@11
	xorps	xmm0, xmm0
	jmp	SHORT $LN12@OnFrame@11
$LN14@OnFrame@11:
	movss	xmm0, DWORD PTR $T546939[esp+24]
	movss	xmm1, DWORD PTR __real@3f800000
	comiss	xmm0, xmm1
	jbe	SHORT $LN12@OnFrame@11
	movaps	xmm0, xmm1
$LN12@OnFrame@11:
	movss	DWORD PTR [esi+40], xmm0

; 519  : 
; 520  :     shared_str l_id						=	(current_weight<0.5f)?Current[0]->lens_flare_id:Current[1]->lens_flare_id;

	movss	xmm0, DWORD PTR __real@3f000000
	comiss	xmm0, DWORD PTR _current_weight$[esp+24]
	jbe	SHORT $LN5@OnFrame@11
	mov	eax, DWORD PTR [esi+124]
	jmp	SHORT $LN67@OnFrame@11
$LN5@OnFrame@11:
	mov	eax, DWORD PTR [esi+128]
$LN67@OnFrame@11:
	mov	ebx, DWORD PTR [eax+172]
	add	eax, 172				; 000000acH
	test	ebx, ebx
	je	SHORT $LN22@OnFrame@11
	add	DWORD PTR [ebx], 1
$LN22@OnFrame@11:

; 521  : 	eff_LensFlare->OnFrame				(l_id);

	test	ebx, ebx
	push	ecx
	mov	eax, esp
	mov	DWORD PTR [eax], 0
	je	SHORT $LN28@OnFrame@11
	add	DWORD PTR [ebx], 1
$LN28@OnFrame@11:
	mov	ecx, DWORD PTR [eax]
	test	ecx, ecx
	je	SHORT $LN31@OnFrame@11
	add	DWORD PTR [ecx], -1
	mov	ecx, DWORD PTR [eax]
	cmp	DWORD PTR [ecx], 0
	jne	SHORT $LN31@OnFrame@11
	mov	DWORD PTR [eax], 0
$LN31@OnFrame@11:
	mov	DWORD PTR [eax], ebx
	mov	ecx, DWORD PTR [esi+236]
	call	?OnFrame@CLensFlare@@QAEXVshared_str@@@Z ; CLensFlare::OnFrame

; 522  : 	shared_str t_id						=	(current_weight<0.5f)?Current[0]->tb_id:Current[1]->tb_id;

	movss	xmm0, DWORD PTR __real@3f000000
	comiss	xmm0, DWORD PTR _current_weight$[esp+24]
	jbe	SHORT $LN7@OnFrame@11
	mov	eax, DWORD PTR [esi+124]
	jmp	SHORT $LN68@OnFrame@11
$LN7@OnFrame@11:
	mov	eax, DWORD PTR [esi+128]
$LN68@OnFrame@11:
	mov	edi, DWORD PTR [eax+176]
	add	eax, 176				; 000000b0H
	test	edi, edi
	je	SHORT $LN40@OnFrame@11
	add	DWORD PTR [edi], 1
$LN40@OnFrame@11:

; 523  :     eff_Thunderbolt->OnFrame			(t_id,CurrentEnv->bolt_period,CurrentEnv->bolt_duration);

	mov	eax, DWORD PTR [esi+120]
	fld	DWORD PTR [eax+100]
	sub	esp, 12					; 0000000cH
	test	edi, edi
	fstp	DWORD PTR [esp+8]
	fld	DWORD PTR [eax+96]
	mov	eax, esp
	fstp	DWORD PTR [esp+4]
	mov	DWORD PTR [eax], 0
	je	SHORT $LN46@OnFrame@11
	add	DWORD PTR [edi], 1
$LN46@OnFrame@11:
	mov	ecx, DWORD PTR [eax]
	test	ecx, ecx
	je	SHORT $LN49@OnFrame@11
	add	DWORD PTR [ecx], -1
	mov	edx, DWORD PTR [eax]
	cmp	DWORD PTR [edx], 0
	jne	SHORT $LN49@OnFrame@11
	mov	DWORD PTR [eax], 0
$LN49@OnFrame@11:
	mov	DWORD PTR [eax], edi
	mov	ecx, DWORD PTR [esi+240]
	call	?OnFrame@CEffect_Thunderbolt@@QAEXVshared_str@@MM@Z ; CEffect_Thunderbolt::OnFrame

; 524  : 	eff_Rain->OnFrame					();

	mov	ecx, DWORD PTR [esi+232]
	call	?OnFrame@CEffect_Rain@@QAEXXZ		; CEffect_Rain::OnFrame

; 525  : 
; 526  : 	// ******************** Environment params (setting)
; 527  : 	m_pRender->OnFrame(*this);

	mov	ecx, DWORD PTR [esi+32]
	mov	eax, DWORD PTR [ecx]
	mov	edx, DWORD PTR [eax+8]
	push	esi
	call	edx

; 528  : }

	test	edi, edi
	je	SHORT $LN57@OnFrame@11
	add	DWORD PTR [edi], -1
$LN57@OnFrame@11:
	test	ebx, ebx
	je	SHORT $LN63@OnFrame@11
	add	DWORD PTR [ebx], -1
$LN63@OnFrame@11:
	pop	edi
	pop	esi
	pop	ebx
	mov	esp, ebp
	pop	ebp
	ret	0
?OnFrame@CEnvironment@@QAEXXZ ENDP			; CEnvironment::OnFrame
PUBLIC	__real@3f2aaa3b
PUBLIC	??0CEnvironment@@QAE@XZ				; CEnvironment::CEnvironment
;	COMDAT __real@3f2aaa3b
; File d:\clearsky\sources\engine\xrcore\xrmemory_subst_msvc.h
CONST	SEGMENT
__real@3f2aaa3b DD 03f2aaa3br			; 0.66666
; Function compile flags: /Ogtpy
; File d:\clearsky\sources\engine\xrengine\environment.cpp
CONST	ENDS
;	COMDAT ??0CEnvironment@@QAE@XZ
_TEXT	SEGMENT
$T552101 = -545						; size = 1
$T552069 = -545						; size = 1
$T552040 = -545						; size = 1
$T551991 = -545						; size = 1
$T551957 = -545						; size = 1
$T551903 = -544						; size = 2
$T552516 = -544						; size = 4
$T552489 = -544						; size = 4
$T552462 = -544						; size = 4
$T552435 = -544						; size = 4
$T552408 = -544						; size = 4
$T552349 = -544						; size = 4
$T551908 = -544						; size = 4
$T552379 = -540						; size = 4
$T552574 = -540						; size = 4
$T551928 = -540						; size = 4
$T551924 = -540						; size = 4
$T551920 = -540						; size = 4
$T551916 = -540						; size = 4
$T551912 = -540						; size = 4
_config$ = -536						; size = 4
$T551902 = -532						; size = 12
_file_name$ = -520					; size = 520
??0CEnvironment@@QAE@XZ PROC				; CEnvironment::CEnvironment, COMDAT
; _this$ = ecx

; 49   : {

	push	ebp
	mov	ebp, esp
	and	esp, -8					; fffffff8H
	sub	esp, 552				; 00000228H
	push	ebx
	push	ebp
	push	esi
	push	edi
	xor	ebx, ebx
	mov	esi, ecx
	push	ebx
	lea	eax, DWORD PTR $T551957[esp+572]
	push	eax
	lea	ecx, DWORD PTR [esi+8]
	mov	DWORD PTR [esi], ebx
	mov	DWORD PTR [esi+4], ebx
	call	??0?$_STLP_alloc_proxy@PAU?$_vector3@M@@U1@V?$xalloc@U?$_vector3@M@@@@@priv@stlp_std@@QAE@ABV?$xalloc@U?$_vector3@M@@@@PAU?$_vector3@M@@@Z ; stlp_std::priv::_STLP_alloc_proxy<_vector3<float> *,_vector3<float>,xalloc<_vector3<float> > >::_STLP_alloc_proxy<_vector3<float> *,_vector3<float>,xalloc<_vector3<float> > >
	lea	edi, DWORD PTR [esi+12]
	push	ebx
	lea	ecx, DWORD PTR $T551991[esp+572]
	push	ecx
	lea	ecx, DWORD PTR [edi+8]
	mov	DWORD PTR [edi], ebx
	mov	DWORD PTR [edi+4], ebx
	call	??0?$_STLP_alloc_proxy@PAGGV?$xalloc@G@@@priv@stlp_std@@QAE@ABV?$xalloc@G@@PAG@Z ; stlp_std::priv::_STLP_alloc_proxy<unsigned short *,unsigned short,xalloc<unsigned short> >::_STLP_alloc_proxy<unsigned short *,unsigned short,xalloc<unsigned short> >
	mov	edx, DWORD PTR __imp_?RenderFactory@@3PAVIRenderFactory@@A
	mov	ecx, DWORD PTR [edx]
	mov	eax, DWORD PTR [ecx]
	mov	edx, DWORD PTR [eax+64]
	call	edx
	mov	DWORD PTR [esi+32], eax
	mov	DWORD PTR [esi+120], ebx
	lea	eax, DWORD PTR $T552040[esp+568]
	lea	ebp, DWORD PTR [esi+160]
	mov	DWORD PTR [esi+152], ebx
	push	eax
	mov	ecx, ebp
	mov	DWORD PTR [esi+156], ebx
	call	??0?$_Rb_tree_base@U?$pair@$$CBVshared_str@@V?$xr_vector@PAVCEnvDescriptor@@V?$xalloc@PAVCEnvDescriptor@@@@@@@stlp_std@@V?$xalloc@U?$pair@Vshared_str@@V?$xr_vector@PAVCEnvDescriptor@@V?$xalloc@PAVCEnvDescriptor@@@@@@@stlp_std@@@@@priv@stlp_std@@IAE@ABV?$xalloc@U?$pair@$$CBVshared_str@@V?$xr_vector@PAVCEnvDescriptor@@V?$xalloc@PAVCEnvDescriptor@@@@@@@stlp_std@@@@@Z ; stlp_std::priv::_Rb_tree_base<stlp_std::pair<shared_str const ,xr_vector<CEnvDescriptor *,xalloc<CEnvDescriptor *> > >,xalloc<stlp_std::pair<shared_str,xr_vector<CEnvDescriptor *,xalloc<CEnvDescriptor *> > > > >::_Rb_tree_base<stlp_std::pair<shared_str const ,xr_vector<CEnvDescriptor *,xalloc<CEnvDescriptor *> > >,xalloc<stlp_std::pair<shared_str,xr_vector<CEnvDescriptor *,xalloc<CEnvDescriptor *> > > > >
	mov	DWORD PTR [ebp+16], ebx
	lea	ecx, DWORD PTR $T552069[esp+568]
	lea	ebp, DWORD PTR [esi+184]
	push	ecx
	mov	ecx, ebp
	call	??0?$_Rb_tree_base@U?$pair@$$CBVshared_str@@V?$xr_vector@PAVCEnvDescriptor@@V?$xalloc@PAVCEnvDescriptor@@@@@@@stlp_std@@V?$xalloc@U?$pair@Vshared_str@@V?$xr_vector@PAVCEnvDescriptor@@V?$xalloc@PAVCEnvDescriptor@@@@@@@stlp_std@@@@@priv@stlp_std@@IAE@ABV?$xalloc@U?$pair@$$CBVshared_str@@V?$xr_vector@PAVCEnvDescriptor@@V?$xalloc@PAVCEnvDescriptor@@@@@@@stlp_std@@@@@Z ; stlp_std::priv::_Rb_tree_base<stlp_std::pair<shared_str const ,xr_vector<CEnvDescriptor *,xalloc<CEnvDescriptor *> > >,xalloc<stlp_std::pair<shared_str,xr_vector<CEnvDescriptor *,xalloc<CEnvDescriptor *> > > > >::_Rb_tree_base<stlp_std::pair<shared_str const ,xr_vector<CEnvDescriptor *,xalloc<CEnvDescriptor *> > >,xalloc<stlp_std::pair<shared_str,xr_vector<CEnvDescriptor *,xalloc<CEnvDescriptor *> > > > >
	push	ebx
	lea	edx, DWORD PTR $T552101[esp+572]
	mov	DWORD PTR [ebp+16], ebx
	push	edx
	lea	ecx, DWORD PTR [esi+216]
	mov	DWORD PTR [esi+208], ebx
	mov	DWORD PTR [esi+212], ebx
	call	??0?$_STLP_alloc_proxy@PAVCEnvModifier@@V1@V?$xalloc@VCEnvModifier@@@@@priv@stlp_std@@QAE@ABV?$xalloc@VCEnvModifier@@@@PAVCEnvModifier@@@Z ; stlp_std::priv::_STLP_alloc_proxy<CEnvModifier *,CEnvModifier,xalloc<CEnvModifier> >::_STLP_alloc_proxy<CEnvModifier *,CEnvModifier,xalloc<CEnvModifier> >

; 50   : 	bNeed_re_create_env = FALSE;
; 51   : 	bWFX					= false;
; 52   : 	Current[0]				= 0;
; 53   : 	Current[1]				= 0;
; 54   :     CurrentWeather			= 0;
; 55   :     CurrentWeatherName		= 0;

	mov	eax, DWORD PTR __imp_?g_pStringContainer@@3PAVstr_container@@A
	mov	DWORD PTR [esi+220], ebx
	mov	DWORD PTR [esi+224], ebx
	mov	DWORD PTR [esi+228], ebx
	mov	DWORD PTR [esi+252], ebx
	mov	DWORD PTR [esi+36], ebx
	mov	BYTE PTR [esi+132], bl
	mov	DWORD PTR [esi+124], ebx
	mov	DWORD PTR [esi+128], ebx
	mov	DWORD PTR [esi+148], ebx
	mov	ecx, DWORD PTR [eax]
	push	ebx
	call	DWORD PTR __imp_?dock@str_container@@QAEPAUstr_value@@PBD@Z
	cmp	eax, ebx
	je	SHORT $LN87@CEnvironme@3
	add	DWORD PTR [eax], 1
$LN87@CEnvironme@3:
	mov	ecx, DWORD PTR [esi+152]
	cmp	ecx, ebx
	je	SHORT $LN90@CEnvironme@3
	add	DWORD PTR [ecx], -1
	mov	ecx, DWORD PTR [esi+152]
	cmp	DWORD PTR [ecx], ebx
	jne	SHORT $LN90@CEnvironme@3
	mov	DWORD PTR [esi+152], ebx
$LN90@CEnvironme@3:
	mov	DWORD PTR [esi+152], eax

; 56   : 	eff_Rain				= 0;
; 57   :     eff_LensFlare 			= 0;
; 58   :     eff_Thunderbolt			= 0;
; 59   : 	OnDeviceCreate			();

	mov	ecx, esi
	mov	DWORD PTR [esi+232], ebx
	mov	DWORD PTR [esi+236], ebx
	mov	DWORD PTR [esi+240], ebx
	call	?OnDeviceCreate@CEnvironment@@QAEXXZ	; CEnvironment::OnDeviceCreate

; 60   : #ifdef _EDITOR
; 61   : 	ed_from_time			= 0.f;
; 62   : 	ed_to_time				= DAY_LENGTH;
; 63   : #endif
; 64   : 
; 65   : #ifndef _EDITOR
; 66   : 	m_paused				= false;
; 67   : #endif
; 68   : 
; 69   : 	fGameTime				= 0.f;

	xorps	xmm0, xmm0

; 70   :     fTimeFactor				= 12.f;

	movss	xmm1, DWORD PTR __real@41400000

; 71   : 
; 72   : 	wind_strength_factor	= 0.f;
; 73   : 	wind_gust_factor		= 0.f;
; 74   : 
; 75   : 	wind_blast_strength	= 0.f;
; 76   : 	wind_blast_direction.set(1.f,0.f,0.f);
; 77   : 
; 78   : 	wind_blast_strength_start_value	= 0.f;
; 79   : 	wind_blast_strength_stop_value	= 0.f;
; 80   : 
; 81   : 	// fill clouds hemi verts & faces 
; 82   : 	const Fvector* verts;
; 83   : 	CloudsVerts.resize		(xrHemisphereVertices(2,verts));

	xor	eax, eax
	movss	DWORD PTR [esi+244], xmm1
	movss	xmm1, DWORD PTR __real@3f800000
	mov	BYTE PTR [esi+248], bl
	movss	DWORD PTR [esi+28], xmm0
	movss	DWORD PTR [esi+40], xmm0
	movss	DWORD PTR [esi+44], xmm0
	movss	DWORD PTR [esi+48], xmm0
	lea	edx, DWORD PTR $T551902[esp+568]
	movss	DWORD PTR [esi+52], xmm1
	movss	DWORD PTR [esi+56], xmm0
	movss	DWORD PTR [esi+60], xmm0
	mov	DWORD PTR $T551902[esp+568], eax
	mov	DWORD PTR $T551902[esp+572], eax
	mov	DWORD PTR $T551902[esp+576], eax
	push	edx
	mov	eax, 91					; 0000005bH
	mov	ecx, esi
	movss	DWORD PTR [esi+96], xmm0
	movss	DWORD PTR [esi+100], xmm0
	call	?resize@?$_Impl_vector@U?$_vector3@M@@V?$xalloc@U?$_vector3@M@@@@@priv@stlp_std@@QAEXIABU?$_vector3@M@@@Z ; stlp_std::priv::_Impl_vector<_vector3<float>,xalloc<_vector3<float> > >::resize

; 84   : 	CopyMemory				(&CloudsVerts.front(),verts,CloudsVerts.size()*sizeof(Fvector));

	mov	ebp, DWORD PTR [esi]
	mov	ecx, DWORD PTR [esi+4]
	sub	ecx, ebp
	mov	eax, 715827883				; 2aaaaaabH
	imul	ecx
	sar	edx, 1
	mov	eax, edx
	shr	eax, 31					; 0000001fH
	add	eax, edx
	lea	eax, DWORD PTR [eax+eax*2]
	add	eax, eax
	add	eax, eax
	push	eax
	push	OFFSET _hemi_2
	push	ebp
	call	_memcpy
	add	esp, 12					; 0000000cH

; 85   : 	const u16* indices;
; 86   : 	CloudsIndices.resize	(xrHemisphereIndices(2,indices));

	lea	eax, DWORD PTR $T551903[esp+568]
	mov	ecx, 480				; 000001e0H
	mov	edx, edi
	mov	DWORD PTR $T551903[esp+568], ebx
	call	?resize@?$_Impl_vector@GV?$xalloc@G@@@priv@stlp_std@@QAEXIABG@Z ; stlp_std::priv::_Impl_vector<unsigned short,xalloc<unsigned short> >::resize

; 87   : 	CopyMemory				(&CloudsIndices.front(),indices,CloudsIndices.size()*sizeof(u16));

	mov	ecx, edi
	call	?size@?$_Impl_vector@GV?$xalloc@G@@@priv@stlp_std@@QBEIXZ ; stlp_std::priv::_Impl_vector<unsigned short,xalloc<unsigned short> >::size
	mov	ecx, edi
	mov	ebp, eax
	call	?begin@?$_Impl_vector@GV?$xalloc@G@@@priv@stlp_std@@QAEPAGXZ ; stlp_std::priv::_Impl_vector<unsigned short,xalloc<unsigned short> >::begin
	lea	ecx, DWORD PTR [ebp+ebp]
	push	ecx
	push	OFFSET _hemi_2v
	push	eax
	call	_memcpy

; 88   : 
; 89   : 	// perlin noise
; 90   : 	PerlinNoise1D			= xr_new<CPerlinNoise1D>(Random.randI(0,0xFFFF));

	mov	eax, DWORD PTR __imp_?Random@@3VCRandom@@A
	add	esp, 12					; 0000000cH
	call	?randI@CRandom@@QAEHXZ			; CRandom::randI
	cdq
	mov	ecx, 65535				; 0000ffffH
	idiv	ecx
	mov	ecx, DWORD PTR __imp_?Memory@@3VxrMemory@@A
	mov	edi, DWORD PTR __imp_?mem_alloc@xrMemory@@QAEPAXI@Z
	push	4148					; 00001034H
	mov	ebp, edx
	call	edi
	cmp	eax, ebx
	je	SHORT $LN157@CEnvironme@3
	push	ebp
	mov	ecx, eax
	call	??0CPerlinNoise1D@@QAE@H@Z		; CPerlinNoise1D::CPerlinNoise1D
	jmp	SHORT $LN158@CEnvironme@3
$LN157@CEnvironme@3:
	xor	eax, eax
$LN158@CEnvironme@3:

; 91   : 	PerlinNoise1D->SetOctaves(2);

	xorps	xmm0, xmm0
	mov	DWORD PTR [esi+24], eax
	mov	ecx, 2
	mov	DWORD PTR [eax+2064], ecx
	lea	edx, DWORD PTR [eax+2076]
	lea	eax, DWORD PTR $T552349[esp+568]
	movss	DWORD PTR $T552349[esp+568], xmm0
	call	?resize@?$_Impl_vector@MV?$xalloc@M@@@priv@stlp_std@@QAEXIABM@Z ; stlp_std::priv::_Impl_vector<float,xalloc<float> >::resize

; 92   : 	PerlinNoise1D->SetAmplitude(0.66666f);
; 93   : 
; 94   : //	tsky0					= Device.Resources->_CreateTexture("$user$sky0");
; 95   : //	tsky1					= Device.Resources->_CreateTexture("$user$sky1");
; 96   : 
; 97   : 	string_path				file_name;
; 98   : 	m_ambients_config		=
; 99   : 		xr_new<CInifile>(
; 100  : 			FS.update_path(
; 101  : 				file_name,
; 102  : 				"$game_config$",
; 103  : 				"environment\\ambients.ltx"
; 104  : 			),
; 105  : 			TRUE,
; 106  : 			TRUE,
; 107  : 			FALSE
; 108  : 		);

	mov	ecx, DWORD PTR __imp_?xr_FS@@3PAVCLocatorAPI@@A
	mov	edx, DWORD PTR [esi+24]
	movss	xmm0, DWORD PTR __real@3f2aaa3b
	mov	ecx, DWORD PTR [ecx]
	mov	ebp, DWORD PTR __imp_?update_path@CLocatorAPI@@QAEPBDAAY0CAI@DPBD1@Z
	push	OFFSET ??_C@_0BJ@CIIOKKHI@environment?2ambients?4ltx?$AA@
	push	OFFSET ??_C@_0O@MGNGOECP@$game_config$?$AA@
	lea	eax, DWORD PTR _file_name$[esp+576]
	push	eax
	movss	DWORD PTR [edx+2072], xmm0
	call	ebp
	mov	ecx, DWORD PTR __imp_?Memory@@3VxrMemory@@A
	push	540					; 0000021cH
	mov	DWORD PTR $T551908[esp+572], eax
	call	edi
	cmp	eax, ebx
	mov	DWORD PTR $T552379[esp+568], eax
	je	SHORT $LN171@CEnvironme@3
	sub	esp, 8
	mov	ecx, esp
	call	??0?$FastDelegate@$$A6A_NPBD@Z@fastdelegate@@QAE@XZ ; fastdelegate::FastDelegate<bool __cdecl(char const *)>::FastDelegate<bool __cdecl(char const *)>
	mov	edx, DWORD PTR $T551908[esp+576]
	mov	ecx, DWORD PTR $T552379[esp+576]
	push	ebx
	push	ebx
	push	1
	push	1
	push	edx
	call	DWORD PTR __imp_??0CInifile@@QAE@PBDHHHIV?$FastDelegate@$$A6A_NPBD@Z@fastdelegate@@@Z
	jmp	SHORT $LN172@CEnvironme@3
$LN171@CEnvironme@3:
	xor	eax, eax
$LN172@CEnvironme@3:

; 109  : 	m_sound_channels_config	=
; 110  : 		xr_new<CInifile>(
; 111  : 			FS.update_path(
; 112  : 				file_name,
; 113  : 				"$game_config$",
; 114  : 				"environment\\sound_channels.ltx"
; 115  : 			),
; 116  : 			TRUE,
; 117  : 			TRUE,
; 118  : 			FALSE
; 119  : 		);

	mov	ecx, DWORD PTR __imp_?xr_FS@@3PAVCLocatorAPI@@A
	push	OFFSET ??_C@_0BP@JAFAGAPJ@environment?2sound_channels?4ltx?$AA@
	mov	DWORD PTR [esi+252], eax
	mov	ecx, DWORD PTR [ecx]
	push	OFFSET ??_C@_0O@MGNGOECP@$game_config$?$AA@
	lea	eax, DWORD PTR _file_name$[esp+576]
	push	eax
	call	ebp
	mov	ecx, DWORD PTR __imp_?Memory@@3VxrMemory@@A
	push	540					; 0000021cH
	mov	DWORD PTR $T551912[esp+572], eax
	call	edi
	cmp	eax, ebx
	mov	DWORD PTR $T552408[esp+568], eax
	je	SHORT $LN189@CEnvironme@3
	sub	esp, 8
	mov	ecx, esp
	call	??0?$FastDelegate@$$A6A_NPBD@Z@fastdelegate@@QAE@XZ ; fastdelegate::FastDelegate<bool __cdecl(char const *)>::FastDelegate<bool __cdecl(char const *)>
	mov	edx, DWORD PTR $T551912[esp+576]
	mov	ecx, DWORD PTR $T552408[esp+576]
	push	ebx
	push	ebx
	push	1
	push	1
	push	edx
	call	DWORD PTR __imp_??0CInifile@@QAE@PBDHHHIV?$FastDelegate@$$A6A_NPBD@Z@fastdelegate@@@Z
	jmp	SHORT $LN190@CEnvironme@3
$LN189@CEnvironme@3:
	xor	eax, eax
$LN190@CEnvironme@3:

; 120  : 	m_effects_config		=
; 121  : 		xr_new<CInifile>(
; 122  : 			FS.update_path(
; 123  : 				file_name,
; 124  : 				"$game_config$",
; 125  : 				"environment\\effects.ltx"
; 126  : 			),
; 127  : 			TRUE,
; 128  : 			TRUE,
; 129  : 			FALSE
; 130  : 		);

	mov	ecx, DWORD PTR __imp_?xr_FS@@3PAVCLocatorAPI@@A
	push	OFFSET ??_C@_0BI@EKOOCMNE@environment?2effects?4ltx?$AA@
	mov	DWORD PTR [esi+256], eax
	mov	ecx, DWORD PTR [ecx]
	push	OFFSET ??_C@_0O@MGNGOECP@$game_config$?$AA@
	lea	eax, DWORD PTR _file_name$[esp+576]
	push	eax
	call	ebp
	mov	ecx, DWORD PTR __imp_?Memory@@3VxrMemory@@A
	push	540					; 0000021cH
	mov	DWORD PTR $T551916[esp+572], eax
	call	edi
	cmp	eax, ebx
	mov	DWORD PTR $T552435[esp+568], eax
	je	SHORT $LN207@CEnvironme@3
	sub	esp, 8
	mov	ecx, esp
	call	??0?$FastDelegate@$$A6A_NPBD@Z@fastdelegate@@QAE@XZ ; fastdelegate::FastDelegate<bool __cdecl(char const *)>::FastDelegate<bool __cdecl(char const *)>
	mov	edx, DWORD PTR $T551916[esp+576]
	mov	ecx, DWORD PTR $T552435[esp+576]
	push	ebx
	push	ebx
	push	1
	push	1
	push	edx
	call	DWORD PTR __imp_??0CInifile@@QAE@PBDHHHIV?$FastDelegate@$$A6A_NPBD@Z@fastdelegate@@@Z
	jmp	SHORT $LN208@CEnvironme@3
$LN207@CEnvironme@3:
	xor	eax, eax
$LN208@CEnvironme@3:

; 131  : 	m_suns_config			=
; 132  : 		xr_new<CInifile>(
; 133  : 			FS.update_path(
; 134  : 				file_name,
; 135  : 				"$game_config$",
; 136  : 				"environment\\suns.ltx"
; 137  : 			),
; 138  : 			TRUE,
; 139  : 			TRUE,
; 140  : 			FALSE
; 141  : 		);

	mov	ecx, DWORD PTR __imp_?xr_FS@@3PAVCLocatorAPI@@A
	push	OFFSET ??_C@_0BF@PAEMFBAE@environment?2suns?4ltx?$AA@
	mov	DWORD PTR [esi+260], eax
	mov	ecx, DWORD PTR [ecx]
	push	OFFSET ??_C@_0O@MGNGOECP@$game_config$?$AA@
	lea	eax, DWORD PTR _file_name$[esp+576]
	push	eax
	call	ebp
	mov	ecx, DWORD PTR __imp_?Memory@@3VxrMemory@@A
	push	540					; 0000021cH
	mov	DWORD PTR $T551920[esp+572], eax
	call	edi
	cmp	eax, ebx
	mov	DWORD PTR $T552462[esp+568], eax
	je	SHORT $LN225@CEnvironme@3
	sub	esp, 8
	mov	ecx, esp
	call	??0?$FastDelegate@$$A6A_NPBD@Z@fastdelegate@@QAE@XZ ; fastdelegate::FastDelegate<bool __cdecl(char const *)>::FastDelegate<bool __cdecl(char const *)>
	mov	edx, DWORD PTR $T551920[esp+576]
	mov	ecx, DWORD PTR $T552462[esp+576]
	push	ebx
	push	ebx
	push	1
	push	1
	push	edx
	call	DWORD PTR __imp_??0CInifile@@QAE@PBDHHHIV?$FastDelegate@$$A6A_NPBD@Z@fastdelegate@@@Z
	jmp	SHORT $LN226@CEnvironme@3
$LN225@CEnvironme@3:
	xor	eax, eax
$LN226@CEnvironme@3:

; 142  : 	m_thunderbolt_collections_config	=
; 143  : 		xr_new<CInifile>(
; 144  : 			FS.update_path(
; 145  : 				file_name,
; 146  : 				"$game_config$",
; 147  : 				"environment\\thunderbolt_collections.ltx"
; 148  : 			),
; 149  : 			TRUE,
; 150  : 			TRUE,
; 151  : 			FALSE
; 152  : 		);

	mov	ecx, DWORD PTR __imp_?xr_FS@@3PAVCLocatorAPI@@A
	push	OFFSET ??_C@_0CI@BHHNIBLF@environment?2thunderbolt_collecti@
	mov	DWORD PTR [esi+264], eax
	mov	ecx, DWORD PTR [ecx]
	push	OFFSET ??_C@_0O@MGNGOECP@$game_config$?$AA@
	lea	eax, DWORD PTR _file_name$[esp+576]
	push	eax
	call	ebp
	mov	ecx, DWORD PTR __imp_?Memory@@3VxrMemory@@A
	push	540					; 0000021cH
	mov	DWORD PTR $T551924[esp+572], eax
	call	edi
	cmp	eax, ebx
	mov	DWORD PTR $T552489[esp+568], eax
	je	SHORT $LN243@CEnvironme@3
	sub	esp, 8
	mov	ecx, esp
	call	??0?$FastDelegate@$$A6A_NPBD@Z@fastdelegate@@QAE@XZ ; fastdelegate::FastDelegate<bool __cdecl(char const *)>::FastDelegate<bool __cdecl(char const *)>
	mov	edx, DWORD PTR $T551924[esp+576]
	mov	ecx, DWORD PTR $T552489[esp+576]
	push	ebx
	push	ebx
	push	1
	push	1
	push	edx
	call	DWORD PTR __imp_??0CInifile@@QAE@PBDHHHIV?$FastDelegate@$$A6A_NPBD@Z@fastdelegate@@@Z
	jmp	SHORT $LN244@CEnvironme@3
$LN243@CEnvironme@3:
	xor	eax, eax
$LN244@CEnvironme@3:

; 153  : 	m_thunderbolts_config	=
; 154  : 		xr_new<CInifile>(
; 155  : 			FS.update_path(
; 156  : 				file_name,
; 157  : 				"$game_config$",
; 158  : 				"environment\\thunderbolts.ltx"
; 159  : 			),
; 160  : 			TRUE,
; 161  : 			TRUE,
; 162  : 			FALSE
; 163  : 		);

	mov	ecx, DWORD PTR __imp_?xr_FS@@3PAVCLocatorAPI@@A
	push	OFFSET ??_C@_0BN@FNDFIPLN@environment?2thunderbolts?4ltx?$AA@
	mov	DWORD PTR [esi+268], eax
	mov	ecx, DWORD PTR [ecx]
	push	OFFSET ??_C@_0O@MGNGOECP@$game_config$?$AA@
	lea	eax, DWORD PTR _file_name$[esp+576]
	push	eax
	call	ebp
	mov	ecx, DWORD PTR __imp_?Memory@@3VxrMemory@@A
	push	540					; 0000021cH
	mov	DWORD PTR $T551928[esp+572], eax
	call	edi
	cmp	eax, ebx
	mov	DWORD PTR $T552516[esp+568], eax
	je	SHORT $LN261@CEnvironme@3
	sub	esp, 8
	mov	ecx, esp
	call	??0?$FastDelegate@$$A6A_NPBD@Z@fastdelegate@@QAE@XZ ; fastdelegate::FastDelegate<bool __cdecl(char const *)>::FastDelegate<bool __cdecl(char const *)>
	mov	edx, DWORD PTR $T551928[esp+576]
	mov	ecx, DWORD PTR $T552516[esp+576]
	push	ebx
	push	ebx
	push	1
	push	1
	push	edx
	call	DWORD PTR __imp_??0CInifile@@QAE@PBDHHHIV?$FastDelegate@$$A6A_NPBD@Z@fastdelegate@@@Z
	jmp	SHORT $LN262@CEnvironme@3
$LN261@CEnvironme@3:
	xor	eax, eax
$LN262@CEnvironme@3:

; 164  : 
; 165  : 	CInifile*		config =
; 166  : 		xr_new<CInifile>(
; 167  : 			FS.update_path(
; 168  : 				file_name,
; 169  : 				"$game_config$",
; 170  : 				"environment\\environment.ltx"
; 171  : 			),
; 172  : 			TRUE,
; 173  : 			TRUE,
; 174  : 			FALSE
; 175  : 		);

	mov	ecx, DWORD PTR __imp_?xr_FS@@3PAVCLocatorAPI@@A
	push	OFFSET ??_C@_0BM@MCANILEM@environment?2environment?4ltx?$AA@
	mov	DWORD PTR [esi+272], eax
	mov	ecx, DWORD PTR [ecx]
	push	OFFSET ??_C@_0O@MGNGOECP@$game_config$?$AA@
	lea	eax, DWORD PTR _file_name$[esp+576]
	push	eax
	call	ebp
	mov	ecx, DWORD PTR __imp_?Memory@@3VxrMemory@@A
	push	540					; 0000021cH
	mov	ebp, eax
	call	edi
	mov	edi, eax
	cmp	edi, ebx
	je	SHORT $LN279@CEnvironme@3
	sub	esp, 8
	mov	ecx, esp
	call	??0?$FastDelegate@$$A6A_NPBD@Z@fastdelegate@@QAE@XZ ; fastdelegate::FastDelegate<bool __cdecl(char const *)>::FastDelegate<bool __cdecl(char const *)>
	push	ebx
	push	ebx
	push	1
	push	1
	push	ebp
	mov	ecx, edi
	call	DWORD PTR __imp_??0CInifile@@QAE@PBDHHHIV?$FastDelegate@$$A6A_NPBD@Z@fastdelegate@@@Z
	jmp	SHORT $LN321@CEnvironme@3
$LN279@CEnvironme@3:
	xor	eax, eax
$LN321@CEnvironme@3:

; 176  :     // params
; 177  : 	p_var_alt		= deg2rad(config->r_float					( "environment","altitude" ));  

	push	OFFSET ??_C@_08OFJBILFH@altitude?$AA@
	push	OFFSET ??_C@_0M@PINLHHEI@environment?$AA@
	mov	ecx, eax
	mov	DWORD PTR _config$[esp+576], eax
	call	DWORD PTR __imp_?r_float@CInifile@@QBEMPBD0@Z
	fmul	DWORD PTR __real@3c8efa35

; 178  : 	p_var_long		= deg2rad	(config->r_float				( "environment","delta_longitude" ));

	mov	ecx, DWORD PTR _config$[esp+568]
	push	OFFSET ??_C@_0BA@OADEFBBF@delta_longitude?$AA@
	push	OFFSET ??_C@_0M@PINLHHEI@environment?$AA@
	fstp	DWORD PTR [esi+276]
	call	DWORD PTR __imp_?r_float@CInifile@@QBEMPBD0@Z
	fmul	DWORD PTR __real@3c8efa35

; 179  : 	p_min_dist		= _min		(.95f,config->r_float			( "environment","min_dist_factor" ));

	mov	ecx, DWORD PTR _config$[esp+568]
	push	OFFSET ??_C@_0BA@NMGKLOI@min_dist_factor?$AA@
	push	OFFSET ??_C@_0M@PINLHHEI@environment?$AA@
	fstp	DWORD PTR [esi+280]
	call	DWORD PTR __imp_?r_float@CInifile@@QBEMPBD0@Z
	fst	DWORD PTR $T552574[esp+568]
	fld	DWORD PTR __real@3f733333
	fxch	ST(1)
	fcomip	ST(1)
	fstp	ST(0)
	jbe	SHORT $LN305@CEnvironme@3
	movss	xmm0, DWORD PTR __real@3f733333
	jmp	SHORT $LN306@CEnvironme@3
$LN305@CEnvironme@3:
	movss	xmm0, DWORD PTR $T552574[esp+568]
$LN306@CEnvironme@3:

; 180  : 	p_tilt			= deg2rad	(config->r_float				( "environment","tilt" ));

	mov	ecx, DWORD PTR _config$[esp+568]
	push	OFFSET ??_C@_04HJDPHINC@tilt?$AA@
	push	OFFSET ??_C@_0M@PINLHHEI@environment?$AA@
	movss	DWORD PTR [esi+284], xmm0
	call	DWORD PTR __imp_?r_float@CInifile@@QBEMPBD0@Z
	fmul	DWORD PTR __real@3c8efa35

; 181  : 	p_second_prop	= config->r_float							( "environment","second_propability" );

	mov	ecx, DWORD PTR _config$[esp+568]
	push	OFFSET ??_C@_0BD@LEHNJEAM@second_propability?$AA@
	push	OFFSET ??_C@_0M@PINLHHEI@environment?$AA@
	fstp	DWORD PTR [esi+288]
	call	DWORD PTR __imp_?r_float@CInifile@@QBEMPBD0@Z
	fstp	DWORD PTR [esi+292]

; 182  : 	clamp			(p_second_prop,0.f,1.f);

	movss	xmm0, DWORD PTR [esi+292]
	xorps	xmm1, xmm1
	comiss	xmm1, xmm0
	ja	SHORT $LN322@CEnvironme@3
	movss	xmm1, DWORD PTR __real@3f800000
	comiss	xmm0, xmm1
	jbe	SHORT $LN311@CEnvironme@3
$LN322@CEnvironme@3:
	movss	DWORD PTR [esi+292], xmm1
$LN311@CEnvironme@3:

; 183  : 	p_sky_color		= config->r_float							( "environment","sky_color" );

	mov	ecx, DWORD PTR _config$[esp+568]
	push	OFFSET ??_C@_09DMPOHDE@sky_color?$AA@
	push	OFFSET ??_C@_0M@PINLHHEI@environment?$AA@
	call	DWORD PTR __imp_?r_float@CInifile@@QBEMPBD0@Z
	fstp	DWORD PTR [esi+296]

; 184  : 	p_sun_color		= config->r_float							( "environment","sun_color" );

	mov	ecx, DWORD PTR _config$[esp+568]
	push	OFFSET ??_C@_09BBLDEGOF@sun_color?$AA@
	push	OFFSET ??_C@_0M@PINLHHEI@environment?$AA@
	call	DWORD PTR __imp_?r_float@CInifile@@QBEMPBD0@Z
	fstp	DWORD PTR [esi+300]

; 185  : 	p_fog_color		= config->r_float							( "environment","fog_color" );

	mov	ecx, DWORD PTR _config$[esp+568]
	push	OFFSET ??_C@_09PGJFNPIN@fog_color?$AA@
	push	OFFSET ??_C@_0M@PINLHHEI@environment?$AA@
	call	DWORD PTR __imp_?r_float@CInifile@@QBEMPBD0@Z
	fstp	DWORD PTR [esi+304]

; 186  : 
; 187  : 	xr_delete		(config);

	lea	edx, DWORD PTR _config$[esp+568]
	push	edx
	call	??$xr_delete@VCInifile@@@@YAXAAPAVCInifile@@@Z ; xr_delete<CInifile>
	add	esp, 4

; 188  : }

	pop	edi
	mov	eax, esi
	pop	esi
	pop	ebp
	pop	ebx
	mov	esp, ebp
	pop	ebp
	ret	0
??0CEnvironment@@QAE@XZ ENDP				; CEnvironment::CEnvironment
END
