; Listing generated by Microsoft (R) Optimizing Compiler Version 14.00.50727.762 

	TITLE	D:\CLEARSKY\sources\engine\xrEngine\Environment.cpp
	.686P
	.XMM
	include listing.inc
	.model	flat

INCLUDELIB OLDNAMES

PUBLIC	??_ECLensFlare@@UAEPAXI@Z			; CLensFlare::`vector deleting destructor'
PUBLIC	??_R4CLensFlare@@6B@				; CLensFlare::`RTTI Complete Object Locator'
PUBLIC	??_R3CLensFlare@@8				; CLensFlare::`RTTI Class Hierarchy Descriptor'
PUBLIC	??_R2CLensFlare@@8				; CLensFlare::`RTTI Base Class Array'
PUBLIC	??_R1A@?0A@EA@CLensFlare@@8			; CLensFlare::`RTTI Base Class Descriptor at (0,-1,0,64)'
PUBLIC	??_R0?AVCLensFlare@@@8				; CLensFlare `RTTI Type Descriptor'
PUBLIC	??0SSource@CLensFlareDescriptor@@QAE@ABU01@@Z	; CLensFlareDescriptor::SSource::SSource
PUBLIC	??0?$_Vector_base@USFlare@CLensFlareDescriptor@@V?$xalloc@USFlare@CLensFlareDescriptor@@@@@priv@stlp_std@@QAE@IABV?$xalloc@USFlare@CLensFlareDescriptor@@@@@Z ; stlp_std::priv::_Vector_base<CLensFlareDescriptor::SFlare,xalloc<CLensFlareDescriptor::SFlare> >::_Vector_base<CLensFlareDescriptor::SFlare,xalloc<CLensFlareDescriptor::SFlare> >
PUBLIC	?get_allocator@?$_Impl_vector@USFlare@CLensFlareDescriptor@@V?$xalloc@USFlare@CLensFlareDescriptor@@@@@priv@stlp_std@@QBE?AV?$xalloc@USFlare@CLensFlareDescriptor@@@@XZ ; stlp_std::priv::_Impl_vector<CLensFlareDescriptor::SFlare,xalloc<CLensFlareDescriptor::SFlare> >::get_allocator
PUBLIC	?begin@?$_Impl_vector@USFlare@CLensFlareDescriptor@@V?$xalloc@USFlare@CLensFlareDescriptor@@@@@priv@stlp_std@@QBEPBUSFlare@CLensFlareDescriptor@@XZ ; stlp_std::priv::_Impl_vector<CLensFlareDescriptor::SFlare,xalloc<CLensFlareDescriptor::SFlare> >::begin
PUBLIC	?end@?$_Impl_vector@USFlare@CLensFlareDescriptor@@V?$xalloc@USFlare@CLensFlareDescriptor@@@@@priv@stlp_std@@QBEPBUSFlare@CLensFlareDescriptor@@XZ ; stlp_std::priv::_Impl_vector<CLensFlareDescriptor::SFlare,xalloc<CLensFlareDescriptor::SFlare> >::end
PUBLIC	??0?$_Impl_vector@USFlare@CLensFlareDescriptor@@V?$xalloc@USFlare@CLensFlareDescriptor@@@@@priv@stlp_std@@QAE@ABV012@@Z ; stlp_std::priv::_Impl_vector<CLensFlareDescriptor::SFlare,xalloc<CLensFlareDescriptor::SFlare> >::_Impl_vector<CLensFlareDescriptor::SFlare,xalloc<CLensFlareDescriptor::SFlare> >
PUBLIC	??0?$vector@USFlare@CLensFlareDescriptor@@V?$xalloc@USFlare@CLensFlareDescriptor@@@@@stlp_std@@QAE@ABV01@@Z ; stlp_std::vector<CLensFlareDescriptor::SFlare,xalloc<CLensFlareDescriptor::SFlare> >::vector<CLensFlareDescriptor::SFlare,xalloc<CLensFlareDescriptor::SFlare> >
PUBLIC	??0?$xr_vector@USFlare@CLensFlareDescriptor@@V?$xalloc@USFlare@CLensFlareDescriptor@@@@@@QAE@ABV0@@Z ; xr_vector<CLensFlareDescriptor::SFlare,xalloc<CLensFlareDescriptor::SFlare> >::xr_vector<CLensFlareDescriptor::SFlare,xalloc<CLensFlareDescriptor::SFlare> >
PUBLIC	??4?$FactoryPtr@VIRainRender@@@@QAEAAV0@ABV0@@Z	; FactoryPtr<IRainRender>::operator=
PUBLIC	?capacity@?$_Impl_vector@UItem@CEffect_Rain@@V?$xalloc@UItem@CEffect_Rain@@@@@priv@stlp_std@@QBEIXZ ; stlp_std::priv::_Impl_vector<CEffect_Rain::Item,xalloc<CEffect_Rain::Item> >::capacity
PUBLIC	?_M_clear@?$_Impl_vector@UItem@CEffect_Rain@@V?$xalloc@UItem@CEffect_Rain@@@@@priv@stlp_std@@AAEXXZ ; stlp_std::priv::_Impl_vector<CEffect_Rain::Item,xalloc<CEffect_Rain::Item> >::_M_clear
PUBLIC	?_Answer@?$_BothPtrType@PBUItem@CEffect_Rain@@PAU12@@stlp_std@@SA?AU__true_type@2@XZ ; stlp_std::_BothPtrType<CEffect_Rain::Item const *,CEffect_Rain::Item *>::_Answer
PUBLIC	??$_UseTrivialUCopy@UItem@CEffect_Rain@@U12@@stlp_std@@YA?AU?$_TrivialUCopy@UItem@CEffect_Rain@@U12@@0@PAUItem@CEffect_Rain@@0@Z ; stlp_std::_UseTrivialUCopy<CEffect_Rain::Item,CEffect_Rain::Item>
PUBLIC	?_Answer@?$_TrivialUCopy@UItem@CEffect_Rain@@U12@@stlp_std@@SA?AU__true_type@2@XZ ; stlp_std::_TrivialUCopy<CEffect_Rain::Item,CEffect_Rain::Item>::_Answer
PUBLIC	??$__ucopy_aux@PBUItem@CEffect_Rain@@PAU12@@priv@stlp_std@@YAPAUItem@CEffect_Rain@@PBU23@0PAU23@ABU__true_type@1@@Z ; stlp_std::priv::__ucopy_aux<CEffect_Rain::Item const *,CEffect_Rain::Item *>
PUBLIC	??$uninitialized_copy@PBUItem@CEffect_Rain@@PAU12@@stlp_std@@YAPAUItem@CEffect_Rain@@PBU12@0PAU12@@Z ; stlp_std::uninitialized_copy<CEffect_Rain::Item const *,CEffect_Rain::Item *>
PUBLIC	??$_M_allocate_and_copy@PBUItem@CEffect_Rain@@@?$_Impl_vector@UItem@CEffect_Rain@@V?$xalloc@UItem@CEffect_Rain@@@@@priv@stlp_std@@AAEPAUItem@CEffect_Rain@@AAIPBU34@1@Z ; stlp_std::priv::_Impl_vector<CEffect_Rain::Item,xalloc<CEffect_Rain::Item> >::_M_allocate_and_copy<CEffect_Rain::Item const *>
PUBLIC	??$__copy_ptrs@PBUItem@CEffect_Rain@@PAU12@@priv@stlp_std@@YAPAUItem@CEffect_Rain@@PBU23@0PAU23@ABU__true_type@1@@Z ; stlp_std::priv::__copy_ptrs<CEffect_Rain::Item const *,CEffect_Rain::Item *>
PUBLIC	??$__destroy_range_aux@PAUItem@CEffect_Rain@@U12@@stlp_std@@YAXPAUItem@CEffect_Rain@@00ABU__true_type@0@@Z ; stlp_std::__destroy_range_aux<CEffect_Rain::Item *,CEffect_Rain::Item>
PUBLIC	??$__destroy_range@PAUItem@CEffect_Rain@@U12@@stlp_std@@YAXPAUItem@CEffect_Rain@@00@Z ; stlp_std::__destroy_range<CEffect_Rain::Item *,CEffect_Rain::Item>
PUBLIC	??$_Destroy_Range@PAUItem@CEffect_Rain@@@stlp_std@@YAXPAUItem@CEffect_Rain@@0@Z ; stlp_std::_Destroy_Range<CEffect_Rain::Item *>
PUBLIC	??4?$_Impl_vector@UItem@CEffect_Rain@@V?$xalloc@UItem@CEffect_Rain@@@@@priv@stlp_std@@QAEAAV012@ABV012@@Z ; stlp_std::priv::_Impl_vector<CEffect_Rain::Item,xalloc<CEffect_Rain::Item> >::operator=
PUBLIC	??4?$vector@UItem@CEffect_Rain@@V?$xalloc@UItem@CEffect_Rain@@@@@stlp_std@@QAEAAV01@ABV01@@Z ; stlp_std::vector<CEffect_Rain::Item,xalloc<CEffect_Rain::Item> >::operator=
PUBLIC	??4?$xr_vector@UItem@CEffect_Rain@@V?$xalloc@UItem@CEffect_Rain@@@@@@QAEAAV0@ABV0@@Z ; xr_vector<CEffect_Rain::Item,xalloc<CEffect_Rain::Item> >::operator=
PUBLIC	?capacity@?$_Impl_vector@UParticle@CEffect_Rain@@V?$xalloc@UParticle@CEffect_Rain@@@@@priv@stlp_std@@QBEIXZ ; stlp_std::priv::_Impl_vector<CEffect_Rain::Particle,xalloc<CEffect_Rain::Particle> >::capacity
PUBLIC	?_M_clear@?$_Impl_vector@UParticle@CEffect_Rain@@V?$xalloc@UParticle@CEffect_Rain@@@@@priv@stlp_std@@AAEXXZ ; stlp_std::priv::_Impl_vector<CEffect_Rain::Particle,xalloc<CEffect_Rain::Particle> >::_M_clear
PUBLIC	?_Answer@?$_BothPtrType@PBUParticle@CEffect_Rain@@PAU12@@stlp_std@@SA?AU__true_type@2@XZ ; stlp_std::_BothPtrType<CEffect_Rain::Particle const *,CEffect_Rain::Particle *>::_Answer
PUBLIC	??$_UseTrivialUCopy@UParticle@CEffect_Rain@@U12@@stlp_std@@YA?AU?$_TrivialUCopy@UParticle@CEffect_Rain@@U12@@0@PAUParticle@CEffect_Rain@@0@Z ; stlp_std::_UseTrivialUCopy<CEffect_Rain::Particle,CEffect_Rain::Particle>
PUBLIC	?_Answer@?$_TrivialUCopy@UParticle@CEffect_Rain@@U12@@stlp_std@@SA?AU__true_type@2@XZ ; stlp_std::_TrivialUCopy<CEffect_Rain::Particle,CEffect_Rain::Particle>::_Answer
PUBLIC	??$__ucopy_aux@PBUParticle@CEffect_Rain@@PAU12@@priv@stlp_std@@YAPAUParticle@CEffect_Rain@@PBU23@0PAU23@ABU__true_type@1@@Z ; stlp_std::priv::__ucopy_aux<CEffect_Rain::Particle const *,CEffect_Rain::Particle *>
PUBLIC	??$uninitialized_copy@PBUParticle@CEffect_Rain@@PAU12@@stlp_std@@YAPAUParticle@CEffect_Rain@@PBU12@0PAU12@@Z ; stlp_std::uninitialized_copy<CEffect_Rain::Particle const *,CEffect_Rain::Particle *>
PUBLIC	??$_M_allocate_and_copy@PBUParticle@CEffect_Rain@@@?$_Impl_vector@UParticle@CEffect_Rain@@V?$xalloc@UParticle@CEffect_Rain@@@@@priv@stlp_std@@AAEPAUParticle@CEffect_Rain@@AAIPBU34@1@Z ; stlp_std::priv::_Impl_vector<CEffect_Rain::Particle,xalloc<CEffect_Rain::Particle> >::_M_allocate_and_copy<CEffect_Rain::Particle const *>
PUBLIC	??$__copy_ptrs@PBUParticle@CEffect_Rain@@PAU12@@priv@stlp_std@@YAPAUParticle@CEffect_Rain@@PBU23@0PAU23@ABU__true_type@1@@Z ; stlp_std::priv::__copy_ptrs<CEffect_Rain::Particle const *,CEffect_Rain::Particle *>
PUBLIC	??$__destroy_range_aux@PAUParticle@CEffect_Rain@@U12@@stlp_std@@YAXPAUParticle@CEffect_Rain@@00ABU__true_type@0@@Z ; stlp_std::__destroy_range_aux<CEffect_Rain::Particle *,CEffect_Rain::Particle>
PUBLIC	??$__destroy_range@PAUParticle@CEffect_Rain@@U12@@stlp_std@@YAXPAUParticle@CEffect_Rain@@00@Z ; stlp_std::__destroy_range<CEffect_Rain::Particle *,CEffect_Rain::Particle>
PUBLIC	??$_Destroy_Range@PAUParticle@CEffect_Rain@@@stlp_std@@YAXPAUParticle@CEffect_Rain@@0@Z ; stlp_std::_Destroy_Range<CEffect_Rain::Particle *>
PUBLIC	??4?$_Impl_vector@UParticle@CEffect_Rain@@V?$xalloc@UParticle@CEffect_Rain@@@@@priv@stlp_std@@QAEAAV012@ABV012@@Z ; stlp_std::priv::_Impl_vector<CEffect_Rain::Particle,xalloc<CEffect_Rain::Particle> >::operator=
PUBLIC	??4?$vector@UParticle@CEffect_Rain@@V?$xalloc@UParticle@CEffect_Rain@@@@@stlp_std@@QAEAAV01@ABV01@@Z ; stlp_std::vector<CEffect_Rain::Particle,xalloc<CEffect_Rain::Particle> >::operator=
PUBLIC	??4?$xr_vector@UParticle@CEffect_Rain@@V?$xalloc@UParticle@CEffect_Rain@@@@@@QAEAAV0@ABV0@@Z ; xr_vector<CEffect_Rain::Particle,xalloc<CEffect_Rain::Particle> >::operator=
PUBLIC	??_GCEnvDescriptorMixer@@QAEPAXI@Z		; CEnvDescriptorMixer::`scalar deleting destructor'
PUBLIC	??R?$xr_special_free@$0A@VCEnvDescriptorMixer@@@@QAEXAAPAVCEnvDescriptorMixer@@@Z ; xr_special_free<0,CEnvDescriptorMixer>::operator()
PUBLIC	??$xr_delete@VCEnvDescriptorMixer@@@@YAXAAPAVCEnvDescriptorMixer@@@Z ; xr_delete<CEnvDescriptorMixer>
PUBLIC	??4SSource@CLensFlareDescriptor@@QAEAAU01@ABU01@@Z ; CLensFlareDescriptor::SSource::operator=
PUBLIC	?size@?$_Impl_vector@USFlare@CLensFlareDescriptor@@V?$xalloc@USFlare@CLensFlareDescriptor@@@@@priv@stlp_std@@QBEIXZ ; stlp_std::priv::_Impl_vector<CLensFlareDescriptor::SFlare,xalloc<CLensFlareDescriptor::SFlare> >::size
PUBLIC	?capacity@?$_Impl_vector@USFlare@CLensFlareDescriptor@@V?$xalloc@USFlare@CLensFlareDescriptor@@@@@priv@stlp_std@@QBEIXZ ; stlp_std::priv::_Impl_vector<CLensFlareDescriptor::SFlare,xalloc<CLensFlareDescriptor::SFlare> >::capacity
PUBLIC	?_M_clear@?$_Impl_vector@USFlare@CLensFlareDescriptor@@V?$xalloc@USFlare@CLensFlareDescriptor@@@@@priv@stlp_std@@AAEXXZ ; stlp_std::priv::_Impl_vector<CLensFlareDescriptor::SFlare,xalloc<CLensFlareDescriptor::SFlare> >::_M_clear
PUBLIC	??$xr_alloc@USFlare@CLensFlareDescriptor@@@@YAPAUSFlare@CLensFlareDescriptor@@I@Z ; xr_alloc<CLensFlareDescriptor::SFlare>
PUBLIC	?allocate@?$xalloc@USFlare@CLensFlareDescriptor@@@@QBEPAUSFlare@CLensFlareDescriptor@@IPBX@Z ; xalloc<CLensFlareDescriptor::SFlare>::allocate
PUBLIC	?allocate@?$_STLP_alloc_proxy@PAUSFlare@CLensFlareDescriptor@@U12@V?$xalloc@USFlare@CLensFlareDescriptor@@@@@priv@stlp_std@@QAEPAUSFlare@CLensFlareDescriptor@@I@Z ; stlp_std::priv::_STLP_alloc_proxy<CLensFlareDescriptor::SFlare *,CLensFlareDescriptor::SFlare,xalloc<CLensFlareDescriptor::SFlare> >::allocate
PUBLIC	?allocate@?$_STLP_alloc_proxy@PAUSFlare@CLensFlareDescriptor@@U12@V?$xalloc@USFlare@CLensFlareDescriptor@@@@@priv@stlp_std@@AAEPAUSFlare@CLensFlareDescriptor@@IAAIABU__false_type@3@@Z ; stlp_std::priv::_STLP_alloc_proxy<CLensFlareDescriptor::SFlare *,CLensFlareDescriptor::SFlare,xalloc<CLensFlareDescriptor::SFlare> >::allocate
PUBLIC	?allocate@?$_STLP_alloc_proxy@PAUSFlare@CLensFlareDescriptor@@U12@V?$xalloc@USFlare@CLensFlareDescriptor@@@@@priv@stlp_std@@QAEPAUSFlare@CLensFlareDescriptor@@IAAI@Z ; stlp_std::priv::_STLP_alloc_proxy<CLensFlareDescriptor::SFlare *,CLensFlareDescriptor::SFlare,xalloc<CLensFlareDescriptor::SFlare> >::allocate
PUBLIC	?_Answer@?$_BothPtrType@PBUSFlare@CLensFlareDescriptor@@PAU12@@stlp_std@@SA?AU__true_type@2@XZ ; stlp_std::_BothPtrType<CLensFlareDescriptor::SFlare const *,CLensFlareDescriptor::SFlare *>::_Answer
PUBLIC	??0?$FactoryPtr@VIFlareRender@@@@QAE@ABV0@@Z	; FactoryPtr<IFlareRender>::FactoryPtr<IFlareRender>
PUBLIC	??0SFlare@CLensFlareDescriptor@@QAE@ABU01@@Z	; CLensFlareDescriptor::SFlare::SFlare
PUBLIC	??$_Param_Construct@USFlare@CLensFlareDescriptor@@U12@@stlp_std@@YAXPAUSFlare@CLensFlareDescriptor@@ABU12@@Z ; stlp_std::_Param_Construct<CLensFlareDescriptor::SFlare,CLensFlareDescriptor::SFlare>
PUBLIC	??$__ucopy@PBUSFlare@CLensFlareDescriptor@@PAU12@H@priv@stlp_std@@YAPAUSFlare@CLensFlareDescriptor@@PBU23@0PAU23@ABUrandom_access_iterator_tag@1@PAH@Z ; stlp_std::priv::__ucopy<CLensFlareDescriptor::SFlare const *,CLensFlareDescriptor::SFlare *,int>
PUBLIC	??$__ucopy_ptrs@PBUSFlare@CLensFlareDescriptor@@PAU12@@priv@stlp_std@@YAPAUSFlare@CLensFlareDescriptor@@PBU23@0PAU23@ABU__false_type@1@@Z ; stlp_std::priv::__ucopy_ptrs<CLensFlareDescriptor::SFlare const *,CLensFlareDescriptor::SFlare *>
PUBLIC	??$_UseTrivialUCopy@USFlare@CLensFlareDescriptor@@U12@@stlp_std@@YA?AU?$_TrivialUCopy@USFlare@CLensFlareDescriptor@@U12@@0@PAUSFlare@CLensFlareDescriptor@@0@Z ; stlp_std::_UseTrivialUCopy<CLensFlareDescriptor::SFlare,CLensFlareDescriptor::SFlare>
PUBLIC	?_Answer@?$_TrivialUCopy@USFlare@CLensFlareDescriptor@@U12@@stlp_std@@SA?AU__false_type@2@XZ ; stlp_std::_TrivialUCopy<CLensFlareDescriptor::SFlare,CLensFlareDescriptor::SFlare>::_Answer
PUBLIC	??$__ucopy_aux@PBUSFlare@CLensFlareDescriptor@@PAU12@@priv@stlp_std@@YAPAUSFlare@CLensFlareDescriptor@@PBU23@0PAU23@ABU__true_type@1@@Z ; stlp_std::priv::__ucopy_aux<CLensFlareDescriptor::SFlare const *,CLensFlareDescriptor::SFlare *>
PUBLIC	??$uninitialized_copy@PBUSFlare@CLensFlareDescriptor@@PAU12@@stlp_std@@YAPAUSFlare@CLensFlareDescriptor@@PBU12@0PAU12@@Z ; stlp_std::uninitialized_copy<CLensFlareDescriptor::SFlare const *,CLensFlareDescriptor::SFlare *>
PUBLIC	??$_M_allocate_and_copy@PBUSFlare@CLensFlareDescriptor@@@?$_Impl_vector@USFlare@CLensFlareDescriptor@@V?$xalloc@USFlare@CLensFlareDescriptor@@@@@priv@stlp_std@@AAEPAUSFlare@CLensFlareDescriptor@@AAIPBU34@1@Z ; stlp_std::priv::_Impl_vector<CLensFlareDescriptor::SFlare,xalloc<CLensFlareDescriptor::SFlare> >::_M_allocate_and_copy<CLensFlareDescriptor::SFlare const *>
PUBLIC	??4?$FactoryPtr@VIFlareRender@@@@QAEAAV0@ABV0@@Z ; FactoryPtr<IFlareRender>::operator=
PUBLIC	??4SFlare@CLensFlareDescriptor@@QAEAAU01@ABU01@@Z ; CLensFlareDescriptor::SFlare::operator=
PUBLIC	??$__copy@PBUSFlare@CLensFlareDescriptor@@PAU12@H@priv@stlp_std@@YAPAUSFlare@CLensFlareDescriptor@@PBU23@0PAU23@ABUrandom_access_iterator_tag@1@PAH@Z ; stlp_std::priv::__copy<CLensFlareDescriptor::SFlare const *,CLensFlareDescriptor::SFlare *,int>
PUBLIC	??$__copy_ptrs@PBUSFlare@CLensFlareDescriptor@@PAU12@@priv@stlp_std@@YAPAUSFlare@CLensFlareDescriptor@@PBU23@0PAU23@ABU__false_type@1@@Z ; stlp_std::priv::__copy_ptrs<CLensFlareDescriptor::SFlare const *,CLensFlareDescriptor::SFlare *>
PUBLIC	??$__destroy_range_aux@PAUSFlare@CLensFlareDescriptor@@U12@@stlp_std@@YAXPAUSFlare@CLensFlareDescriptor@@00ABU__false_type@0@@Z ; stlp_std::__destroy_range_aux<CLensFlareDescriptor::SFlare *,CLensFlareDescriptor::SFlare>
PUBLIC	??$__destroy_range@PAUSFlare@CLensFlareDescriptor@@U12@@stlp_std@@YAXPAUSFlare@CLensFlareDescriptor@@00@Z ; stlp_std::__destroy_range<CLensFlareDescriptor::SFlare *,CLensFlareDescriptor::SFlare>
PUBLIC	??$_Destroy_Range@PAUSFlare@CLensFlareDescriptor@@@stlp_std@@YAXPAUSFlare@CLensFlareDescriptor@@0@Z ; stlp_std::_Destroy_Range<CLensFlareDescriptor::SFlare *>
PUBLIC	??4?$_Impl_vector@USFlare@CLensFlareDescriptor@@V?$xalloc@USFlare@CLensFlareDescriptor@@@@@priv@stlp_std@@QAEAAV012@ABV012@@Z ; stlp_std::priv::_Impl_vector<CLensFlareDescriptor::SFlare,xalloc<CLensFlareDescriptor::SFlare> >::operator=
PUBLIC	??4?$vector@USFlare@CLensFlareDescriptor@@V?$xalloc@USFlare@CLensFlareDescriptor@@@@@stlp_std@@QAEAAV01@ABV01@@Z ; stlp_std::vector<CLensFlareDescriptor::SFlare,xalloc<CLensFlareDescriptor::SFlare> >::operator=
PUBLIC	??4?$xr_vector@USFlare@CLensFlareDescriptor@@V?$xalloc@USFlare@CLensFlareDescriptor@@@@@@QAEAAV0@ABV0@@Z ; xr_vector<CLensFlareDescriptor::SFlare,xalloc<CLensFlareDescriptor::SFlare> >::operator=
PUBLIC	??$xr_new@USThunderboltDesc@@@@YAPAUSThunderboltDesc@@XZ ; xr_new<SThunderboltDesc>
PUBLIC	??$xr_new@USThunderboltCollection@@@@YAPAUSThunderboltCollection@@XZ ; xr_new<SThunderboltCollection>
PUBLIC	?begin@?$vector@PAUSThunderboltCollection@@V?$xalloc@PAUSThunderboltCollection@@@@@stlp_std@@QAEPAPAUSThunderboltCollection@@XZ ; stlp_std::vector<SThunderboltCollection *,xalloc<SThunderboltCollection *> >::begin
PUBLIC	?to_value_type_ptr@?$_CastTraits@PAXPAUSThunderboltCollection@@@priv@stlp_std@@SAPAPAUSThunderboltCollection@@PAPAX@Z ; stlp_std::priv::_CastTraits<void *,SThunderboltCollection *>::to_value_type_ptr
PUBLIC	?end@?$vector@PAUSThunderboltCollection@@V?$xalloc@PAUSThunderboltCollection@@@@@stlp_std@@QAEPAPAUSThunderboltCollection@@XZ ; stlp_std::vector<SThunderboltCollection *,xalloc<SThunderboltCollection *> >::end
PUBLIC	?begin@?$vector@PAVCLensFlareDescriptor@@V?$xalloc@PAVCLensFlareDescriptor@@@@@stlp_std@@QAEPAPAVCLensFlareDescriptor@@XZ ; stlp_std::vector<CLensFlareDescriptor *,xalloc<CLensFlareDescriptor *> >::begin
PUBLIC	?to_value_type_ptr@?$_CastTraits@PAXPAVCLensFlareDescriptor@@@priv@stlp_std@@SAPAPAVCLensFlareDescriptor@@PAPAX@Z ; stlp_std::priv::_CastTraits<void *,CLensFlareDescriptor *>::to_value_type_ptr
PUBLIC	?end@?$vector@PAVCLensFlareDescriptor@@V?$xalloc@PAVCLensFlareDescriptor@@@@@stlp_std@@QAEPAPAVCLensFlareDescriptor@@XZ ; stlp_std::vector<CLensFlareDescriptor *,xalloc<CLensFlareDescriptor *> >::end
PUBLIC	?to_storage_type_cref@?$_CastTraits@PAXPAVCLensFlareDescriptor@@@priv@stlp_std@@SAABQAXABQAVCLensFlareDescriptor@@@Z ; stlp_std::priv::_CastTraits<void *,CLensFlareDescriptor *>::to_storage_type_cref
PUBLIC	?push_back@?$vector@PAVCLensFlareDescriptor@@V?$xalloc@PAVCLensFlareDescriptor@@@@@stlp_std@@QAEXABQAVCLensFlareDescriptor@@@Z ; stlp_std::vector<CLensFlareDescriptor *,xalloc<CLensFlareDescriptor *> >::push_back
PUBLIC	??$xr_new@VCLensFlareDescriptor@@@@YAPAVCLensFlareDescriptor@@XZ ; xr_new<CLensFlareDescriptor>
PUBLIC	??_GCPerlinNoise1D@@QAEPAXI@Z			; CPerlinNoise1D::`scalar deleting destructor'
PUBLIC	??R?$xr_special_free@$0A@VCPerlinNoise1D@@@@QAEXAAPAVCPerlinNoise1D@@@Z ; xr_special_free<0,CPerlinNoise1D>::operator()
PUBLIC	??$xr_delete@VCPerlinNoise1D@@@@YAXAAPAVCPerlinNoise1D@@@Z ; xr_delete<CPerlinNoise1D>
PUBLIC	?front@?$_Impl_vector@U?$_vector3@M@@V?$xalloc@U?$_vector3@M@@@@@priv@stlp_std@@QAEAAU?$_vector3@M@@XZ ; stlp_std::priv::_Impl_vector<_vector3<float>,xalloc<_vector3<float> > >::front
PUBLIC	?to_value_type_ref@?$_CastTraits@U?$_vector3@M@@U1@@priv@stlp_std@@SAAAU?$_vector3@M@@AAU4@@Z ; stlp_std::priv::_CastTraits<_vector3<float>,_vector3<float> >::to_value_type_ref
PUBLIC	?front@?$vector@U?$_vector3@M@@V?$xalloc@U?$_vector3@M@@@@@stlp_std@@QAEAAU?$_vector3@M@@XZ ; stlp_std::vector<_vector3<float>,xalloc<_vector3<float> > >::front
PUBLIC	?_M_set@?$_Impl_vector@U?$_vector3@M@@V?$xalloc@U?$_vector3@M@@@@@priv@stlp_std@@AAEXPAU?$_vector3@M@@00@Z ; stlp_std::priv::_Impl_vector<_vector3<float>,xalloc<_vector3<float> > >::_M_set
PUBLIC	??$__fill_n@PAU?$_vector3@M@@IU1@@priv@stlp_std@@YAPAU?$_vector3@M@@PAU2@IABU2@@Z ; stlp_std::priv::__fill_n<_vector3<float> *,unsigned int,_vector3<float> >
PUBLIC	?_M_insert_overflow@?$_Impl_vector@U?$_vector3@M@@V?$xalloc@U?$_vector3@M@@@@@priv@stlp_std@@AAEXPAU?$_vector3@M@@ABU4@ABU__true_type@3@I_N@Z ; stlp_std::priv::_Impl_vector<_vector3<float>,xalloc<_vector3<float> > >::_M_insert_overflow
PUBLIC	?_M_is_inside@?$_Impl_vector@U?$_vector3@M@@V?$xalloc@U?$_vector3@M@@@@@priv@stlp_std@@ABE_NABU?$_vector3@M@@@Z ; stlp_std::priv::_Impl_vector<_vector3<float>,xalloc<_vector3<float> > >::_M_is_inside
PUBLIC	??$__ucopy_ptrs@PAU?$_vector3@M@@PAU1@@priv@stlp_std@@YAPAU?$_vector3@M@@PAU2@00ABU__true_type@1@@Z ; stlp_std::priv::__ucopy_ptrs<_vector3<float> *,_vector3<float> *>
PUBLIC	??$__copy_backward_ptrs@PAU?$_vector3@M@@PAU1@@priv@stlp_std@@YAPAU?$_vector3@M@@PAU2@00ABU__true_type@1@@Z ; stlp_std::priv::__copy_backward_ptrs<_vector3<float> *,_vector3<float> *>
PUBLIC	??$fill@PAU?$_vector3@M@@U1@@stlp_std@@YAXPAU?$_vector3@M@@0ABU1@@Z ; stlp_std::fill<_vector3<float> *,_vector3<float> >
PUBLIC	??$_Param_Construct@U?$_vector3@M@@U1@@stlp_std@@YAXPAU?$_vector3@M@@ABU1@@Z ; stlp_std::_Param_Construct<_vector3<float>,_vector3<float> >
PUBLIC	??$__ufill@PAU?$_vector3@M@@U1@H@priv@stlp_std@@YAXPAU?$_vector3@M@@0ABU2@ABUrandom_access_iterator_tag@1@PAH@Z ; stlp_std::priv::__ufill<_vector3<float> *,_vector3<float>,int>
PUBLIC	??$__uninitialized_fill_n@PAU?$_vector3@M@@IU1@@priv@stlp_std@@YAPAU?$_vector3@M@@PAU2@IABU2@@Z ; stlp_std::priv::__uninitialized_fill_n<_vector3<float> *,unsigned int,_vector3<float> >
PUBLIC	?_M_fill_insert_aux@?$_Impl_vector@U?$_vector3@M@@V?$xalloc@U?$_vector3@M@@@@@priv@stlp_std@@AAEXPAU?$_vector3@M@@IABU4@ABU__false_type@3@@Z ; stlp_std::priv::_Impl_vector<_vector3<float>,xalloc<_vector3<float> > >::_M_fill_insert_aux
PUBLIC	?_M_fill_insert@?$_Impl_vector@U?$_vector3@M@@V?$xalloc@U?$_vector3@M@@@@@priv@stlp_std@@AAEXPAU?$_vector3@M@@IABU4@@Z ; stlp_std::priv::_Impl_vector<_vector3<float>,xalloc<_vector3<float> > >::_M_fill_insert
PUBLIC	?insert@?$_Impl_vector@U?$_vector3@M@@V?$xalloc@U?$_vector3@M@@@@@priv@stlp_std@@QAEXPAU?$_vector3@M@@IABU4@@Z ; stlp_std::priv::_Impl_vector<_vector3<float>,xalloc<_vector3<float> > >::insert
PUBLIC	??$__copy_ptrs@PAU?$_vector3@M@@PAU1@@priv@stlp_std@@YAPAU?$_vector3@M@@PAU2@00ABU__true_type@1@@Z ; stlp_std::priv::__copy_ptrs<_vector3<float> *,_vector3<float> *>
PUBLIC	?_M_erase@?$_Impl_vector@U?$_vector3@M@@V?$xalloc@U?$_vector3@M@@@@@priv@stlp_std@@AAEPAU?$_vector3@M@@PAU4@0ABU__false_type@3@@Z ; stlp_std::priv::_Impl_vector<_vector3<float>,xalloc<_vector3<float> > >::_M_erase
PUBLIC	?erase@?$_Impl_vector@U?$_vector3@M@@V?$xalloc@U?$_vector3@M@@@@@priv@stlp_std@@QAEPAU?$_vector3@M@@PAU4@0@Z ; stlp_std::priv::_Impl_vector<_vector3<float>,xalloc<_vector3<float> > >::erase
PUBLIC	?resize@?$_Impl_vector@U?$_vector3@M@@V?$xalloc@U?$_vector3@M@@@@@priv@stlp_std@@QAEXIABU?$_vector3@M@@@Z ; stlp_std::priv::_Impl_vector<_vector3<float>,xalloc<_vector3<float> > >::resize
PUBLIC	?to_storage_type_cref@?$_CastTraits@U?$_vector3@M@@U1@@priv@stlp_std@@SAABU?$_vector3@M@@ABU4@@Z ; stlp_std::priv::_CastTraits<_vector3<float>,_vector3<float> >::to_storage_type_cref
PUBLIC	?resize@?$vector@U?$_vector3@M@@V?$xalloc@U?$_vector3@M@@@@@stlp_std@@QAEXIABU?$_vector3@M@@@Z ; stlp_std::vector<_vector3<float>,xalloc<_vector3<float> > >::resize
PUBLIC	??0?$xalloc@U?$_vector3@M@@@@QAE@XZ		; xalloc<_vector3<float> >::xalloc<_vector3<float> >
PUBLIC	??0?$_Vector_base@U?$_vector3@M@@V?$xalloc@U?$_vector3@M@@@@@priv@stlp_std@@QAE@ABV?$xalloc@U?$_vector3@M@@@@@Z ; stlp_std::priv::_Vector_base<_vector3<float>,xalloc<_vector3<float> > >::_Vector_base<_vector3<float>,xalloc<_vector3<float> > >
PUBLIC	??0?$_Impl_vector@U?$_vector3@M@@V?$xalloc@U?$_vector3@M@@@@@priv@stlp_std@@QAE@ABV?$xalloc@U?$_vector3@M@@@@@Z ; stlp_std::priv::_Impl_vector<_vector3<float>,xalloc<_vector3<float> > >::_Impl_vector<_vector3<float>,xalloc<_vector3<float> > >
PUBLIC	??0?$vector@U?$_vector3@M@@V?$xalloc@U?$_vector3@M@@@@@stlp_std@@QAE@ABV?$xalloc@U?$_vector3@M@@@@@Z ; stlp_std::vector<_vector3<float>,xalloc<_vector3<float> > >::vector<_vector3<float>,xalloc<_vector3<float> > >
PUBLIC	??0?$xr_vector@U?$_vector3@M@@V?$xalloc@U?$_vector3@M@@@@@@QAE@XZ ; xr_vector<_vector3<float>,xalloc<_vector3<float> > >::xr_vector<_vector3<float>,xalloc<_vector3<float> > >
PUBLIC	?size@?$vector@U?$_vector3@M@@V?$xalloc@U?$_vector3@M@@@@@stlp_std@@QBEIXZ ; stlp_std::vector<_vector3<float>,xalloc<_vector3<float> > >::size
PUBLIC	?size@?$xr_vector@U?$_vector3@M@@V?$xalloc@U?$_vector3@M@@@@@@QBEIXZ ; xr_vector<_vector3<float>,xalloc<_vector3<float> > >::size
PUBLIC	?front@?$_Impl_vector@GV?$xalloc@G@@@priv@stlp_std@@QAEAAGXZ ; stlp_std::priv::_Impl_vector<unsigned short,xalloc<unsigned short> >::front
PUBLIC	?to_value_type_ref@?$_CastTraits@GG@priv@stlp_std@@SAAAGAAG@Z ; stlp_std::priv::_CastTraits<unsigned short,unsigned short>::to_value_type_ref
PUBLIC	?front@?$vector@GV?$xalloc@G@@@stlp_std@@QAEAAGXZ ; stlp_std::vector<unsigned short,xalloc<unsigned short> >::front
PUBLIC	?_M_set@?$_Impl_vector@GV?$xalloc@G@@@priv@stlp_std@@AAEXPAG00@Z ; stlp_std::priv::_Impl_vector<unsigned short,xalloc<unsigned short> >::_M_set
PUBLIC	??$__fill_n@PAGIG@priv@stlp_std@@YAPAGPAGIABG@Z	; stlp_std::priv::__fill_n<unsigned short *,unsigned int,unsigned short>
PUBLIC	?_M_insert_overflow@?$_Impl_vector@GV?$xalloc@G@@@priv@stlp_std@@AAEXPAGABGABU__true_type@3@I_N@Z ; stlp_std::priv::_Impl_vector<unsigned short,xalloc<unsigned short> >::_M_insert_overflow
PUBLIC	?_M_is_inside@?$_Impl_vector@GV?$xalloc@G@@@priv@stlp_std@@ABE_NABG@Z ; stlp_std::priv::_Impl_vector<unsigned short,xalloc<unsigned short> >::_M_is_inside
PUBLIC	??$__ucopy_ptrs@PAGPAG@priv@stlp_std@@YAPAGPAG00ABU__true_type@1@@Z ; stlp_std::priv::__ucopy_ptrs<unsigned short *,unsigned short *>
PUBLIC	??$__copy_backward_ptrs@PAGPAG@priv@stlp_std@@YAPAGPAG00ABU__true_type@1@@Z ; stlp_std::priv::__copy_backward_ptrs<unsigned short *,unsigned short *>
PUBLIC	??$fill@PAGG@stlp_std@@YAXPAG0ABG@Z		; stlp_std::fill<unsigned short *,unsigned short>
PUBLIC	??$_Param_Construct@GG@stlp_std@@YAXPAGABG@Z	; stlp_std::_Param_Construct<unsigned short,unsigned short>
PUBLIC	??$__ufill@PAGGH@priv@stlp_std@@YAXPAG0ABGABUrandom_access_iterator_tag@1@PAH@Z ; stlp_std::priv::__ufill<unsigned short *,unsigned short,int>
PUBLIC	??$__uninitialized_fill_n@PAGIG@priv@stlp_std@@YAPAGPAGIABG@Z ; stlp_std::priv::__uninitialized_fill_n<unsigned short *,unsigned int,unsigned short>
PUBLIC	?_M_fill_insert_aux@?$_Impl_vector@GV?$xalloc@G@@@priv@stlp_std@@AAEXPAGIABGABU__false_type@3@@Z ; stlp_std::priv::_Impl_vector<unsigned short,xalloc<unsigned short> >::_M_fill_insert_aux
PUBLIC	?_M_fill_insert@?$_Impl_vector@GV?$xalloc@G@@@priv@stlp_std@@AAEXPAGIABG@Z ; stlp_std::priv::_Impl_vector<unsigned short,xalloc<unsigned short> >::_M_fill_insert
PUBLIC	?insert@?$_Impl_vector@GV?$xalloc@G@@@priv@stlp_std@@QAEXPAGIABG@Z ; stlp_std::priv::_Impl_vector<unsigned short,xalloc<unsigned short> >::insert
PUBLIC	??$__copy_ptrs@PAGPAG@priv@stlp_std@@YAPAGPAG00ABU__true_type@1@@Z ; stlp_std::priv::__copy_ptrs<unsigned short *,unsigned short *>
PUBLIC	?_M_erase@?$_Impl_vector@GV?$xalloc@G@@@priv@stlp_std@@AAEPAGPAG0ABU__false_type@3@@Z ; stlp_std::priv::_Impl_vector<unsigned short,xalloc<unsigned short> >::_M_erase
PUBLIC	?erase@?$_Impl_vector@GV?$xalloc@G@@@priv@stlp_std@@QAEPAGPAG0@Z ; stlp_std::priv::_Impl_vector<unsigned short,xalloc<unsigned short> >::erase
PUBLIC	?resize@?$_Impl_vector@GV?$xalloc@G@@@priv@stlp_std@@QAEXIABG@Z ; stlp_std::priv::_Impl_vector<unsigned short,xalloc<unsigned short> >::resize
PUBLIC	?to_storage_type_cref@?$_CastTraits@GG@priv@stlp_std@@SAABGABG@Z ; stlp_std::priv::_CastTraits<unsigned short,unsigned short>::to_storage_type_cref
PUBLIC	?resize@?$vector@GV?$xalloc@G@@@stlp_std@@QAEXIABG@Z ; stlp_std::vector<unsigned short,xalloc<unsigned short> >::resize
PUBLIC	??0?$xalloc@G@@QAE@XZ				; xalloc<unsigned short>::xalloc<unsigned short>
PUBLIC	??0?$_Vector_base@GV?$xalloc@G@@@priv@stlp_std@@QAE@ABV?$xalloc@G@@@Z ; stlp_std::priv::_Vector_base<unsigned short,xalloc<unsigned short> >::_Vector_base<unsigned short,xalloc<unsigned short> >
PUBLIC	??0?$_Impl_vector@GV?$xalloc@G@@@priv@stlp_std@@QAE@ABV?$xalloc@G@@@Z ; stlp_std::priv::_Impl_vector<unsigned short,xalloc<unsigned short> >::_Impl_vector<unsigned short,xalloc<unsigned short> >
PUBLIC	??0?$vector@GV?$xalloc@G@@@stlp_std@@QAE@ABV?$xalloc@G@@@Z ; stlp_std::vector<unsigned short,xalloc<unsigned short> >::vector<unsigned short,xalloc<unsigned short> >
PUBLIC	??0?$xr_vector@GV?$xalloc@G@@@@QAE@XZ		; xr_vector<unsigned short,xalloc<unsigned short> >::xr_vector<unsigned short,xalloc<unsigned short> >
PUBLIC	?size@?$vector@GV?$xalloc@G@@@stlp_std@@QBEIXZ	; stlp_std::vector<unsigned short,xalloc<unsigned short> >::size
PUBLIC	?size@?$xr_vector@GV?$xalloc@G@@@@QBEIXZ	; xr_vector<unsigned short,xalloc<unsigned short> >::size
PUBLIC	??0?$FactoryPtr@VIEnvironmentRender@@@@QAE@XZ	; FactoryPtr<IEnvironmentRender>::FactoryPtr<IEnvironmentRender>
PUBLIC	??0?$xalloc@PAVCEnvAmbient@@@@QAE@XZ		; xalloc<CEnvAmbient *>::xalloc<CEnvAmbient *>
PUBLIC	??$?0PAVCEnvAmbient@@@?$xalloc@PAX@@QAE@ABV?$xalloc@PAVCEnvAmbient@@@@@Z ; xalloc<void *>::xalloc<void *><CEnvAmbient *>
PUBLIC	??0?$vector@PAVCEnvAmbient@@V?$xalloc@PAVCEnvAmbient@@@@@stlp_std@@QAE@ABV?$xalloc@PAVCEnvAmbient@@@@@Z ; stlp_std::vector<CEnvAmbient *,xalloc<CEnvAmbient *> >::vector<CEnvAmbient *,xalloc<CEnvAmbient *> >
PUBLIC	??0?$xr_vector@PAVCEnvAmbient@@V?$xalloc@PAVCEnvAmbient@@@@@@QAE@XZ ; xr_vector<CEnvAmbient *,xalloc<CEnvAmbient *> >::xr_vector<CEnvAmbient *,xalloc<CEnvAmbient *> >
PUBLIC	??0?$_Rb_tree@Vshared_str@@Ustr_pred@CEnvironment@@U?$pair@$$CBVshared_str@@V?$xr_vector@PAVCEnvDescriptor@@V?$xalloc@PAVCEnvDescriptor@@@@@@@stlp_std@@U?$_Select1st@U?$pair@$$CBVshared_str@@V?$xr_vector@PAVCEnvDescriptor@@V?$xalloc@PAVCEnvDescriptor@@@@@@@stlp_std@@@priv@5@U?$_MapTraitsT@U?$pair@$$CBVshared_str@@V?$xr_vector@PAVCEnvDescriptor@@V?$xalloc@PAVCEnvDescriptor@@@@@@@stlp_std@@@75@V?$xalloc@U?$pair@Vshared_str@@V?$xr_vector@PAVCEnvDescriptor@@V?$xalloc@PAVCEnvDescriptor@@@@@@@stlp_std@@@@@priv@stlp_std@@QAE@ABUstr_pred@CEnvironment@@ABV?$xalloc@U?$pair@$$CBVshared_str@@V?$xr_vector@PAVCEnvDescriptor@@V?$xalloc@PAVCEnvDescriptor@@@@@@@stlp_std@@@@@Z ; stlp_std::priv::_Rb_tree<shared_str,CEnvironment::str_pred,stlp_std::pair<shared_str const ,xr_vector<CEnvDescriptor *,xalloc<CEnvDescriptor *> > >,stlp_std::priv::_Select1st<stlp_std::pair<shared_str const ,xr_vector<CEnvDescriptor *,xalloc<CEnvDescriptor *> > > >,stlp_std::priv::_MapTraitsT<stlp_std::pair<shared_str const ,xr_vector<CEnvDescriptor *,xalloc<CEnvDescriptor *> > > >,xalloc<stlp_std::pair<shared_str,xr_vector<CEnvDescriptor *,xalloc<CEnvDescriptor *> > > > >::_Rb_tree<shared_str,CEnvironment::str_pred,stlp_std::pair<shared_str const ,xr_vector<CEnvDescriptor *,xalloc<CEnvDescriptor *> > >,stlp_std::priv::_Select1st<stlp_std::pair<shared_str const ,xr_vector<CEnvDescriptor *,xalloc<CEnvDescriptor *> > > >,stlp_std::priv::_MapTraitsT<stlp_std::pair<shared_str const ,xr_vector<CEnvDescriptor *,xalloc<CEnvDescriptor *> > > >,xalloc<stlp_std::pair<shared_str,xr_vector<CEnvDescriptor *,xalloc<CEnvDescriptor *> > > > >
PUBLIC	??0?$xalloc@U?$pair@$$CBVshared_str@@V?$xr_vector@PAVCEnvDescriptor@@V?$xalloc@PAVCEnvDescriptor@@@@@@@stlp_std@@@@QAE@XZ ; xalloc<stlp_std::pair<shared_str const ,xr_vector<CEnvDescriptor *,xalloc<CEnvDescriptor *> > > >::xalloc<stlp_std::pair<shared_str const ,xr_vector<CEnvDescriptor *,xalloc<CEnvDescriptor *> > > >
PUBLIC	??0?$map@Vshared_str@@V?$xr_vector@PAVCEnvDescriptor@@V?$xalloc@PAVCEnvDescriptor@@@@@@Ustr_pred@CEnvironment@@V?$xalloc@U?$pair@Vshared_str@@V?$xr_vector@PAVCEnvDescriptor@@V?$xalloc@PAVCEnvDescriptor@@@@@@@stlp_std@@@@@stlp_std@@QAE@XZ ; stlp_std::map<shared_str,xr_vector<CEnvDescriptor *,xalloc<CEnvDescriptor *> >,CEnvironment::str_pred,xalloc<stlp_std::pair<shared_str,xr_vector<CEnvDescriptor *,xalloc<CEnvDescriptor *> > > > >::map<shared_str,xr_vector<CEnvDescriptor *,xalloc<CEnvDescriptor *> >,CEnvironment::str_pred,xalloc<stlp_std::pair<shared_str,xr_vector<CEnvDescriptor *,xalloc<CEnvDescriptor *> > > > >
PUBLIC	??0?$xr_map@Vshared_str@@V?$xr_vector@PAVCEnvDescriptor@@V?$xalloc@PAVCEnvDescriptor@@@@@@Ustr_pred@CEnvironment@@V?$xalloc@U?$pair@Vshared_str@@V?$xr_vector@PAVCEnvDescriptor@@V?$xalloc@PAVCEnvDescriptor@@@@@@@stlp_std@@@@@@QAE@XZ ; xr_map<shared_str,xr_vector<CEnvDescriptor *,xalloc<CEnvDescriptor *> >,CEnvironment::str_pred,xalloc<stlp_std::pair<shared_str,xr_vector<CEnvDescriptor *,xalloc<CEnvDescriptor *> > > > >::xr_map<shared_str,xr_vector<CEnvDescriptor *,xalloc<CEnvDescriptor *> >,CEnvironment::str_pred,xalloc<stlp_std::pair<shared_str,xr_vector<CEnvDescriptor *,xalloc<CEnvDescriptor *> > > > >
PUBLIC	??0?$xalloc@VCEnvModifier@@@@QAE@XZ		; xalloc<CEnvModifier>::xalloc<CEnvModifier>
PUBLIC	??0?$_Vector_base@VCEnvModifier@@V?$xalloc@VCEnvModifier@@@@@priv@stlp_std@@QAE@ABV?$xalloc@VCEnvModifier@@@@@Z ; stlp_std::priv::_Vector_base<CEnvModifier,xalloc<CEnvModifier> >::_Vector_base<CEnvModifier,xalloc<CEnvModifier> >
PUBLIC	??0?$_Impl_vector@VCEnvModifier@@V?$xalloc@VCEnvModifier@@@@@priv@stlp_std@@QAE@ABV?$xalloc@VCEnvModifier@@@@@Z ; stlp_std::priv::_Impl_vector<CEnvModifier,xalloc<CEnvModifier> >::_Impl_vector<CEnvModifier,xalloc<CEnvModifier> >
PUBLIC	??0?$vector@VCEnvModifier@@V?$xalloc@VCEnvModifier@@@@@stlp_std@@QAE@ABV?$xalloc@VCEnvModifier@@@@@Z ; stlp_std::vector<CEnvModifier,xalloc<CEnvModifier> >::vector<CEnvModifier,xalloc<CEnvModifier> >
PUBLIC	??0?$xr_vector@VCEnvModifier@@V?$xalloc@VCEnvModifier@@@@@@QAE@XZ ; xr_vector<CEnvModifier,xalloc<CEnvModifier> >::xr_vector<CEnvModifier,xalloc<CEnvModifier> >
PUBLIC	??$xr_new@VCPerlinNoise1D@@H@@YAPAVCPerlinNoise1D@@ABH@Z ; xr_new<CPerlinNoise1D,int>
PUBLIC	??$xr_new@VCInifile@@PBDHHH@@YAPAVCInifile@@ABQBDABH11@Z ; xr_new<CInifile,char const *,int,int,int>
PUBLIC	?DestroyObject@?$FactoryPtr@VIThunderboltRender@@@@AAEXXZ ; FactoryPtr<IThunderboltRender>::DestroyObject
PUBLIC	??1?$FactoryPtr@VIThunderboltRender@@@@QAE@XZ	; FactoryPtr<IThunderboltRender>::~FactoryPtr<IThunderboltRender>
PUBLIC	?CreateObject@?$FactoryPtr@VIThunderboltRender@@@@AAEXXZ ; FactoryPtr<IThunderboltRender>::CreateObject
PUBLIC	??0?$FactoryPtr@VIThunderboltRender@@@@QAE@ABV0@@Z ; FactoryPtr<IThunderboltRender>::FactoryPtr<IThunderboltRender>
PUBLIC	??1?$xr_vector@PAUSThunderboltCollection@@V?$xalloc@PAUSThunderboltCollection@@@@@@QAE@XZ ; xr_vector<SThunderboltCollection *,xalloc<SThunderboltCollection *> >::~xr_vector<SThunderboltCollection *,xalloc<SThunderboltCollection *> >
PUBLIC	??0?$vector@PAUSThunderboltCollection@@V?$xalloc@PAUSThunderboltCollection@@@@@stlp_std@@QAE@ABV01@@Z ; stlp_std::vector<SThunderboltCollection *,xalloc<SThunderboltCollection *> >::vector<SThunderboltCollection *,xalloc<SThunderboltCollection *> >
PUBLIC	??1?$vector@PAUSThunderboltCollection@@V?$xalloc@PAUSThunderboltCollection@@@@@stlp_std@@QAE@XZ ; stlp_std::vector<SThunderboltCollection *,xalloc<SThunderboltCollection *> >::~vector<SThunderboltCollection *,xalloc<SThunderboltCollection *> >
PUBLIC	??0?$xr_vector@PAUSThunderboltCollection@@V?$xalloc@PAUSThunderboltCollection@@@@@@QAE@ABV0@@Z ; xr_vector<SThunderboltCollection *,xalloc<SThunderboltCollection *> >::xr_vector<SThunderboltCollection *,xalloc<SThunderboltCollection *> >
PUBLIC	?DestroyObject@?$FactoryPtr@VILensFlareRender@@@@AAEXXZ ; FactoryPtr<ILensFlareRender>::DestroyObject
PUBLIC	??1?$FactoryPtr@VILensFlareRender@@@@QAE@XZ	; FactoryPtr<ILensFlareRender>::~FactoryPtr<ILensFlareRender>
PUBLIC	?CreateObject@?$FactoryPtr@VILensFlareRender@@@@AAEXXZ ; FactoryPtr<ILensFlareRender>::CreateObject
PUBLIC	??0?$FactoryPtr@VILensFlareRender@@@@QAE@ABV0@@Z ; FactoryPtr<ILensFlareRender>::FactoryPtr<ILensFlareRender>
PUBLIC	??1rq_results@collide@@QAE@XZ			; collide::rq_results::~rq_results
PUBLIC	??1?$xr_vector@Urq_result@collide@@V?$xalloc@Urq_result@collide@@@@@@QAE@XZ ; xr_vector<collide::rq_result,xalloc<collide::rq_result> >::~xr_vector<collide::rq_result,xalloc<collide::rq_result> >
PUBLIC	??0?$_STLP_alloc_proxy@PAUrq_result@collide@@U12@V?$xalloc@Urq_result@collide@@@@@priv@stlp_std@@QAE@ABV?$xalloc@Urq_result@collide@@@@PAUrq_result@collide@@@Z ; stlp_std::priv::_STLP_alloc_proxy<collide::rq_result *,collide::rq_result,xalloc<collide::rq_result> >::_STLP_alloc_proxy<collide::rq_result *,collide::rq_result,xalloc<collide::rq_result> >
PUBLIC	??0?$_Vector_base@Urq_result@collide@@V?$xalloc@Urq_result@collide@@@@@priv@stlp_std@@QAE@IABV?$xalloc@Urq_result@collide@@@@@Z ; stlp_std::priv::_Vector_base<collide::rq_result,xalloc<collide::rq_result> >::_Vector_base<collide::rq_result,xalloc<collide::rq_result> >
PUBLIC	??0?$xalloc@Urq_result@collide@@@@QAE@ABV0@@Z	; xalloc<collide::rq_result>::xalloc<collide::rq_result>
PUBLIC	?get_allocator@?$_Impl_vector@Urq_result@collide@@V?$xalloc@Urq_result@collide@@@@@priv@stlp_std@@QBE?AV?$xalloc@Urq_result@collide@@@@XZ ; stlp_std::priv::_Impl_vector<collide::rq_result,xalloc<collide::rq_result> >::get_allocator
PUBLIC	?begin@?$_Impl_vector@Urq_result@collide@@V?$xalloc@Urq_result@collide@@@@@priv@stlp_std@@QBEPBUrq_result@collide@@XZ ; stlp_std::priv::_Impl_vector<collide::rq_result,xalloc<collide::rq_result> >::begin
PUBLIC	?end@?$_Impl_vector@Urq_result@collide@@V?$xalloc@Urq_result@collide@@@@@priv@stlp_std@@QBEPBUrq_result@collide@@XZ ; stlp_std::priv::_Impl_vector<collide::rq_result,xalloc<collide::rq_result> >::end
PUBLIC	??0?$_Impl_vector@Urq_result@collide@@V?$xalloc@Urq_result@collide@@@@@priv@stlp_std@@QAE@ABV012@@Z ; stlp_std::priv::_Impl_vector<collide::rq_result,xalloc<collide::rq_result> >::_Impl_vector<collide::rq_result,xalloc<collide::rq_result> >
PUBLIC	??0?$vector@Urq_result@collide@@V?$xalloc@Urq_result@collide@@@@@stlp_std@@QAE@ABV01@@Z ; stlp_std::vector<collide::rq_result,xalloc<collide::rq_result> >::vector<collide::rq_result,xalloc<collide::rq_result> >
PUBLIC	??1?$_Vector_base@Urq_result@collide@@V?$xalloc@Urq_result@collide@@@@@priv@stlp_std@@QAE@XZ ; stlp_std::priv::_Vector_base<collide::rq_result,xalloc<collide::rq_result> >::~_Vector_base<collide::rq_result,xalloc<collide::rq_result> >
PUBLIC	??1?$_Impl_vector@Urq_result@collide@@V?$xalloc@Urq_result@collide@@@@@priv@stlp_std@@QAE@XZ ; stlp_std::priv::_Impl_vector<collide::rq_result,xalloc<collide::rq_result> >::~_Impl_vector<collide::rq_result,xalloc<collide::rq_result> >
PUBLIC	??1?$vector@Urq_result@collide@@V?$xalloc@Urq_result@collide@@@@@stlp_std@@QAE@XZ ; stlp_std::vector<collide::rq_result,xalloc<collide::rq_result> >::~vector<collide::rq_result,xalloc<collide::rq_result> >
PUBLIC	??0?$xr_vector@Urq_result@collide@@V?$xalloc@Urq_result@collide@@@@@@QAE@ABV0@@Z ; xr_vector<collide::rq_result,xalloc<collide::rq_result> >::xr_vector<collide::rq_result,xalloc<collide::rq_result> >
PUBLIC	??0rq_results@collide@@QAE@ABV01@@Z		; collide::rq_results::rq_results
PUBLIC	??1?$xr_vector@PAVCLensFlareDescriptor@@V?$xalloc@PAVCLensFlareDescriptor@@@@@@QAE@XZ ; xr_vector<CLensFlareDescriptor *,xalloc<CLensFlareDescriptor *> >::~xr_vector<CLensFlareDescriptor *,xalloc<CLensFlareDescriptor *> >
PUBLIC	??0?$vector@PAVCLensFlareDescriptor@@V?$xalloc@PAVCLensFlareDescriptor@@@@@stlp_std@@QAE@ABV01@@Z ; stlp_std::vector<CLensFlareDescriptor *,xalloc<CLensFlareDescriptor *> >::vector<CLensFlareDescriptor *,xalloc<CLensFlareDescriptor *> >
PUBLIC	??1?$vector@PAVCLensFlareDescriptor@@V?$xalloc@PAVCLensFlareDescriptor@@@@@stlp_std@@QAE@XZ ; stlp_std::vector<CLensFlareDescriptor *,xalloc<CLensFlareDescriptor *> >::~vector<CLensFlareDescriptor *,xalloc<CLensFlareDescriptor *> >
PUBLIC	??0?$xr_vector@PAVCLensFlareDescriptor@@V?$xalloc@PAVCLensFlareDescriptor@@@@@@QAE@ABV0@@Z ; xr_vector<CLensFlareDescriptor *,xalloc<CLensFlareDescriptor *> >::xr_vector<CLensFlareDescriptor *,xalloc<CLensFlareDescriptor *> >
PUBLIC	??4?$FactoryPtr@VIThunderboltRender@@@@QAEAAV0@ABV0@@Z ; FactoryPtr<IThunderboltRender>::operator=
PUBLIC	??4?$vector@PAUSThunderboltCollection@@V?$xalloc@PAUSThunderboltCollection@@@@@stlp_std@@QAEAAV01@ABV01@@Z ; stlp_std::vector<SThunderboltCollection *,xalloc<SThunderboltCollection *> >::operator=
PUBLIC	??4?$xr_vector@PAUSThunderboltCollection@@V?$xalloc@PAUSThunderboltCollection@@@@@@QAEAAV0@ABV0@@Z ; xr_vector<SThunderboltCollection *,xalloc<SThunderboltCollection *> >::operator=
PUBLIC	??4?$FactoryPtr@VILensFlareRender@@@@QAEAAV0@ABV0@@Z ; FactoryPtr<ILensFlareRender>::operator=
PUBLIC	?size@?$_Impl_vector@Urq_result@collide@@V?$xalloc@Urq_result@collide@@@@@priv@stlp_std@@QBEIXZ ; stlp_std::priv::_Impl_vector<collide::rq_result,xalloc<collide::rq_result> >::size
PUBLIC	?capacity@?$_Impl_vector@Urq_result@collide@@V?$xalloc@Urq_result@collide@@@@@priv@stlp_std@@QBEIXZ ; stlp_std::priv::_Impl_vector<collide::rq_result,xalloc<collide::rq_result> >::capacity
PUBLIC	??$xr_free@Urq_result@collide@@@@YAXAAPAUrq_result@collide@@@Z ; xr_free<collide::rq_result>
PUBLIC	?deallocate@?$xalloc@Urq_result@collide@@@@QBEXPAUrq_result@collide@@I@Z ; xalloc<collide::rq_result>::deallocate
PUBLIC	?end@?$_Impl_vector@Urq_result@collide@@V?$xalloc@Urq_result@collide@@@@@priv@stlp_std@@QAEPAUrq_result@collide@@XZ ; stlp_std::priv::_Impl_vector<collide::rq_result,xalloc<collide::rq_result> >::end
PUBLIC	?rbegin@?$_Impl_vector@Urq_result@collide@@V?$xalloc@Urq_result@collide@@@@@priv@stlp_std@@QAE?AV?$reverse_iterator@PAUrq_result@collide@@@3@XZ ; stlp_std::priv::_Impl_vector<collide::rq_result,xalloc<collide::rq_result> >::rbegin
PUBLIC	?begin@?$_Impl_vector@Urq_result@collide@@V?$xalloc@Urq_result@collide@@@@@priv@stlp_std@@QAEPAUrq_result@collide@@XZ ; stlp_std::priv::_Impl_vector<collide::rq_result,xalloc<collide::rq_result> >::begin
PUBLIC	??0?$reverse_iterator@PAUrq_result@collide@@@stlp_std@@QAE@PAUrq_result@collide@@@Z ; stlp_std::reverse_iterator<collide::rq_result *>::reverse_iterator<collide::rq_result *>
PUBLIC	?rend@?$_Impl_vector@Urq_result@collide@@V?$xalloc@Urq_result@collide@@@@@priv@stlp_std@@QAE?AV?$reverse_iterator@PAUrq_result@collide@@@3@XZ ; stlp_std::priv::_Impl_vector<collide::rq_result,xalloc<collide::rq_result> >::rend
PUBLIC	??0?$reverse_iterator@PAUrq_result@collide@@@stlp_std@@QAE@ABV01@@Z ; stlp_std::reverse_iterator<collide::rq_result *>::reverse_iterator<collide::rq_result *>
PUBLIC	??$__destroy_range_aux@V?$reverse_iterator@PAUrq_result@collide@@@stlp_std@@Urq_result@collide@@@stlp_std@@YAXV?$reverse_iterator@PAUrq_result@collide@@@0@0PAUrq_result@collide@@ABU__true_type@0@@Z ; stlp_std::__destroy_range_aux<stlp_std::reverse_iterator<collide::rq_result *>,collide::rq_result>
PUBLIC	??$__destroy_range@V?$reverse_iterator@PAUrq_result@collide@@@stlp_std@@Urq_result@collide@@@stlp_std@@YAXV?$reverse_iterator@PAUrq_result@collide@@@0@0PAUrq_result@collide@@@Z ; stlp_std::__destroy_range<stlp_std::reverse_iterator<collide::rq_result *>,collide::rq_result>
PUBLIC	??$_Destroy_Range@V?$reverse_iterator@PAUrq_result@collide@@@stlp_std@@@stlp_std@@YAXV?$reverse_iterator@PAUrq_result@collide@@@0@0@Z ; stlp_std::_Destroy_Range<stlp_std::reverse_iterator<collide::rq_result *> >
PUBLIC	?_M_clear@?$_Impl_vector@Urq_result@collide@@V?$xalloc@Urq_result@collide@@@@@priv@stlp_std@@AAEXXZ ; stlp_std::priv::_Impl_vector<collide::rq_result,xalloc<collide::rq_result> >::_M_clear
PUBLIC	??$__destroy_range_aux@PAUrq_result@collide@@U12@@stlp_std@@YAXPAUrq_result@collide@@00ABU__true_type@0@@Z ; stlp_std::__destroy_range_aux<collide::rq_result *,collide::rq_result>
PUBLIC	??$__destroy_range@PAUrq_result@collide@@U12@@stlp_std@@YAXPAUrq_result@collide@@00@Z ; stlp_std::__destroy_range<collide::rq_result *,collide::rq_result>
PUBLIC	??$_Destroy_Range@PAUrq_result@collide@@@stlp_std@@YAXPAUrq_result@collide@@0@Z ; stlp_std::_Destroy_Range<collide::rq_result *>
PUBLIC	??$xr_alloc@Urq_result@collide@@@@YAPAUrq_result@collide@@I@Z ; xr_alloc<collide::rq_result>
PUBLIC	?allocate@?$xalloc@Urq_result@collide@@@@QBEPAUrq_result@collide@@IPBX@Z ; xalloc<collide::rq_result>::allocate
PUBLIC	?allocate@?$_STLP_alloc_proxy@PAUrq_result@collide@@U12@V?$xalloc@Urq_result@collide@@@@@priv@stlp_std@@QAEPAUrq_result@collide@@I@Z ; stlp_std::priv::_STLP_alloc_proxy<collide::rq_result *,collide::rq_result,xalloc<collide::rq_result> >::allocate
PUBLIC	?allocate@?$_STLP_alloc_proxy@PAUrq_result@collide@@U12@V?$xalloc@Urq_result@collide@@@@@priv@stlp_std@@AAEPAUrq_result@collide@@IAAIABU__false_type@3@@Z ; stlp_std::priv::_STLP_alloc_proxy<collide::rq_result *,collide::rq_result,xalloc<collide::rq_result> >::allocate
PUBLIC	?allocate@?$_STLP_alloc_proxy@PAUrq_result@collide@@U12@V?$xalloc@Urq_result@collide@@@@@priv@stlp_std@@QAEPAUrq_result@collide@@IAAI@Z ; stlp_std::priv::_STLP_alloc_proxy<collide::rq_result *,collide::rq_result,xalloc<collide::rq_result> >::allocate
PUBLIC	?_Answer@?$_BothPtrType@PBUrq_result@collide@@PAU12@@stlp_std@@SA?AU__true_type@2@XZ ; stlp_std::_BothPtrType<collide::rq_result const *,collide::rq_result *>::_Answer
PUBLIC	??$__ucopy_ptrs@PBUrq_result@collide@@PAU12@@priv@stlp_std@@YAPAUrq_result@collide@@PBU23@0PAU23@ABU__true_type@1@@Z ; stlp_std::priv::__ucopy_ptrs<collide::rq_result const *,collide::rq_result *>
PUBLIC	??$_UseTrivialUCopy@Urq_result@collide@@U12@@stlp_std@@YA?AU?$_TrivialUCopy@Urq_result@collide@@U12@@0@PAUrq_result@collide@@0@Z ; stlp_std::_UseTrivialUCopy<collide::rq_result,collide::rq_result>
PUBLIC	?_Answer@?$_TrivialUCopy@Urq_result@collide@@U12@@stlp_std@@SA?AU__true_type@2@XZ ; stlp_std::_TrivialUCopy<collide::rq_result,collide::rq_result>::_Answer
PUBLIC	??$__ucopy_aux@PBUrq_result@collide@@PAU12@@priv@stlp_std@@YAPAUrq_result@collide@@PBU23@0PAU23@ABU__true_type@1@@Z ; stlp_std::priv::__ucopy_aux<collide::rq_result const *,collide::rq_result *>
PUBLIC	??$uninitialized_copy@PBUrq_result@collide@@PAU12@@stlp_std@@YAPAUrq_result@collide@@PBU12@0PAU12@@Z ; stlp_std::uninitialized_copy<collide::rq_result const *,collide::rq_result *>
PUBLIC	??$_M_allocate_and_copy@PBUrq_result@collide@@@?$_Impl_vector@Urq_result@collide@@V?$xalloc@Urq_result@collide@@@@@priv@stlp_std@@AAEPAUrq_result@collide@@AAIPBU34@1@Z ; stlp_std::priv::_Impl_vector<collide::rq_result,xalloc<collide::rq_result> >::_M_allocate_and_copy<collide::rq_result const *>
PUBLIC	??$__copy_ptrs@PBUrq_result@collide@@PAU12@@priv@stlp_std@@YAPAUrq_result@collide@@PBU23@0PAU23@ABU__true_type@1@@Z ; stlp_std::priv::__copy_ptrs<collide::rq_result const *,collide::rq_result *>
PUBLIC	??4?$_Impl_vector@Urq_result@collide@@V?$xalloc@Urq_result@collide@@@@@priv@stlp_std@@QAEAAV012@ABV012@@Z ; stlp_std::priv::_Impl_vector<collide::rq_result,xalloc<collide::rq_result> >::operator=
PUBLIC	??4?$vector@Urq_result@collide@@V?$xalloc@Urq_result@collide@@@@@stlp_std@@QAEAAV01@ABV01@@Z ; stlp_std::vector<collide::rq_result,xalloc<collide::rq_result> >::operator=
PUBLIC	??4?$xr_vector@Urq_result@collide@@V?$xalloc@Urq_result@collide@@@@@@QAEAAV0@ABV0@@Z ; xr_vector<collide::rq_result,xalloc<collide::rq_result> >::operator=
PUBLIC	??4rq_results@collide@@QAEAAV01@ABV01@@Z	; collide::rq_results::operator=
PUBLIC	??4?$vector@PAVCLensFlareDescriptor@@V?$xalloc@PAVCLensFlareDescriptor@@@@@stlp_std@@QAEAAV01@ABV01@@Z ; stlp_std::vector<CLensFlareDescriptor *,xalloc<CLensFlareDescriptor *> >::operator=
PUBLIC	??4?$xr_vector@PAVCLensFlareDescriptor@@V?$xalloc@PAVCLensFlareDescriptor@@@@@@QAEAAV0@ABV0@@Z ; xr_vector<CLensFlareDescriptor *,xalloc<CLensFlareDescriptor *> >::operator=
PUBLIC	??0?$xalloc@M@@QAE@XZ				; xalloc<float>::xalloc<float>
PUBLIC	??0?$_Vector_base@MV?$xalloc@M@@@priv@stlp_std@@QAE@ABV?$xalloc@M@@@Z ; stlp_std::priv::_Vector_base<float,xalloc<float> >::_Vector_base<float,xalloc<float> >
PUBLIC	??0?$_Impl_vector@MV?$xalloc@M@@@priv@stlp_std@@QAE@ABV?$xalloc@M@@@Z ; stlp_std::priv::_Impl_vector<float,xalloc<float> >::_Impl_vector<float,xalloc<float> >
PUBLIC	??0?$vector@MV?$xalloc@M@@@stlp_std@@QAE@ABV?$xalloc@M@@@Z ; stlp_std::vector<float,xalloc<float> >::vector<float,xalloc<float> >
PUBLIC	??0?$xr_vector@MV?$xalloc@M@@@@QAE@XZ		; xr_vector<float,xalloc<float> >::xr_vector<float,xalloc<float> >
PUBLIC	??8?$_Rb_tree_iterator@U?$pair@$$CBVshared_str@@V?$xr_vector@PAVCEnvDescriptor@@V?$xalloc@PAVCEnvDescriptor@@@@@@@stlp_std@@U?$_MapTraitsT@U?$pair@$$CBVshared_str@@V?$xr_vector@PAVCEnvDescriptor@@V?$xalloc@PAVCEnvDescriptor@@@@@@@stlp_std@@@priv@2@@priv@stlp_std@@QBE_NU?$_Rb_tree_iterator@U?$pair@$$CBVshared_str@@V?$xr_vector@PAVCEnvDescriptor@@V?$xalloc@PAVCEnvDescriptor@@@@@@@stlp_std@@U?$_ConstMapTraitsT@U?$pair@$$CBVshared_str@@V?$xr_vector@PAVCEnvDescriptor@@V?$xalloc@PAVCEnvDescriptor@@@@@@@stlp_std@@@priv@2@@12@@Z ; stlp_std::priv::_Rb_tree_iterator<stlp_std::pair<shared_str const ,xr_vector<CEnvDescriptor *,xalloc<CEnvDescriptor *> > >,stlp_std::priv::_MapTraitsT<stlp_std::pair<shared_str const ,xr_vector<CEnvDescriptor *,xalloc<CEnvDescriptor *> > > > >::operator==
PUBLIC	?size@shared_str@@QBEIXZ			; shared_str::size
PUBLIC	?__stl_throw_out_of_range@stlp_std@@YAXPBD@Z	; stlp_std::__stl_throw_out_of_range
PUBLIC	?_M_throw_out_of_range@?$_Vector_base@PAXV?$xalloc@PAX@@@priv@stlp_std@@IBEXXZ ; stlp_std::priv::_Vector_base<void *,xalloc<void *> >::_M_throw_out_of_range
PUBLIC	?_M_range_check@?$_Impl_vector@PAXV?$xalloc@PAX@@@priv@stlp_std@@ABEXI@Z ; stlp_std::priv::_Impl_vector<void *,xalloc<void *> >::_M_range_check
PUBLIC	??A?$_Impl_vector@PAXV?$xalloc@PAX@@@priv@stlp_std@@QAEAAPAXI@Z ; stlp_std::priv::_Impl_vector<void *,xalloc<void *> >::operator[]
PUBLIC	?at@?$_Impl_vector@PAXV?$xalloc@PAX@@@priv@stlp_std@@QAEAAPAXI@Z ; stlp_std::priv::_Impl_vector<void *,xalloc<void *> >::at
PUBLIC	?at@?$vector@PAVCEnvDescriptor@@V?$xalloc@PAVCEnvDescriptor@@@@@stlp_std@@QAEAAPAVCEnvDescriptor@@I@Z ; stlp_std::vector<CEnvDescriptor *,xalloc<CEnvDescriptor *> >::at
PUBLIC	?size@?$vector@PAVCEnvDescriptor@@V?$xalloc@PAVCEnvDescriptor@@@@@stlp_std@@QBEIXZ ; stlp_std::vector<CEnvDescriptor *,xalloc<CEnvDescriptor *> >::size
PUBLIC	?size@?$xr_vector@PAVCEnvDescriptor@@V?$xalloc@PAVCEnvDescriptor@@@@@@QBEIXZ ; xr_vector<CEnvDescriptor *,xalloc<CEnvDescriptor *> >::size
PUBLIC	?end@?$_Rb_tree@Vshared_str@@Ustr_pred@CEnvironment@@U?$pair@$$CBVshared_str@@V?$xr_vector@PAVCEnvDescriptor@@V?$xalloc@PAVCEnvDescriptor@@@@@@@stlp_std@@U?$_Select1st@U?$pair@$$CBVshared_str@@V?$xr_vector@PAVCEnvDescriptor@@V?$xalloc@PAVCEnvDescriptor@@@@@@@stlp_std@@@priv@5@U?$_MapTraitsT@U?$pair@$$CBVshared_str@@V?$xr_vector@PAVCEnvDescriptor@@V?$xalloc@PAVCEnvDescriptor@@@@@@@stlp_std@@@75@V?$xalloc@U?$pair@Vshared_str@@V?$xr_vector@PAVCEnvDescriptor@@V?$xalloc@PAVCEnvDescriptor@@@@@@@stlp_std@@@@@priv@stlp_std@@QAE?AU?$_Rb_tree_iterator@U?$pair@$$CBVshared_str@@V?$xr_vector@PAVCEnvDescriptor@@V?$xalloc@PAVCEnvDescriptor@@@@@@@stlp_std@@U?$_MapTraitsT@U?$pair@$$CBVshared_str@@V?$xr_vector@PAVCEnvDescriptor@@V?$xalloc@PAVCEnvDescriptor@@@@@@@stlp_std@@@priv@2@@23@XZ ; stlp_std::priv::_Rb_tree<shared_str,CEnvironment::str_pred,stlp_std::pair<shared_str const ,xr_vector<CEnvDescriptor *,xalloc<CEnvDescriptor *> > >,stlp_std::priv::_Select1st<stlp_std::pair<shared_str const ,xr_vector<CEnvDescriptor *,xalloc<CEnvDescriptor *> > > >,stlp_std::priv::_MapTraitsT<stlp_std::pair<shared_str const ,xr_vector<CEnvDescriptor *,xalloc<CEnvDescriptor *> > > >,xalloc<stlp_std::pair<shared_str,xr_vector<CEnvDescriptor *,xalloc<CEnvDescriptor *> > > > >::end
PUBLIC	?end@?$map@Vshared_str@@V?$xr_vector@PAVCEnvDescriptor@@V?$xalloc@PAVCEnvDescriptor@@@@@@Ustr_pred@CEnvironment@@V?$xalloc@U?$pair@Vshared_str@@V?$xr_vector@PAVCEnvDescriptor@@V?$xalloc@PAVCEnvDescriptor@@@@@@@stlp_std@@@@@stlp_std@@QAE?AU?$_Rb_tree_iterator@U?$pair@$$CBVshared_str@@V?$xr_vector@PAVCEnvDescriptor@@V?$xalloc@PAVCEnvDescriptor@@@@@@@stlp_std@@U?$_MapTraitsT@U?$pair@$$CBVshared_str@@V?$xr_vector@PAVCEnvDescriptor@@V?$xalloc@PAVCEnvDescriptor@@@@@@@stlp_std@@@priv@2@@priv@2@XZ ; stlp_std::map<shared_str,xr_vector<CEnvDescriptor *,xalloc<CEnvDescriptor *> >,CEnvironment::str_pred,xalloc<stlp_std::pair<shared_str,xr_vector<CEnvDescriptor *,xalloc<CEnvDescriptor *> > > > >::end
PUBLIC	??D?$_Rb_tree_iterator@U?$pair@$$CBVshared_str@@V?$xr_vector@PAVCEnvDescriptor@@V?$xalloc@PAVCEnvDescriptor@@@@@@@stlp_std@@U?$_MapTraitsT@U?$pair@$$CBVshared_str@@V?$xr_vector@PAVCEnvDescriptor@@V?$xalloc@PAVCEnvDescriptor@@@@@@@stlp_std@@@priv@2@@priv@stlp_std@@QBEAAU?$pair@$$CBVshared_str@@V?$xr_vector@PAVCEnvDescriptor@@V?$xalloc@PAVCEnvDescriptor@@@@@@@2@XZ ; stlp_std::priv::_Rb_tree_iterator<stlp_std::pair<shared_str const ,xr_vector<CEnvDescriptor *,xalloc<CEnvDescriptor *> > >,stlp_std::priv::_MapTraitsT<stlp_std::pair<shared_str const ,xr_vector<CEnvDescriptor *,xalloc<CEnvDescriptor *> > > > >::operator*
PUBLIC	??C?$_Rb_tree_iterator@U?$pair@$$CBVshared_str@@V?$xr_vector@PAVCEnvDescriptor@@V?$xalloc@PAVCEnvDescriptor@@@@@@@stlp_std@@U?$_MapTraitsT@U?$pair@$$CBVshared_str@@V?$xr_vector@PAVCEnvDescriptor@@V?$xalloc@PAVCEnvDescriptor@@@@@@@stlp_std@@@priv@2@@priv@stlp_std@@QBEPAU?$pair@$$CBVshared_str@@V?$xr_vector@PAVCEnvDescriptor@@V?$xalloc@PAVCEnvDescriptor@@@@@@@2@XZ ; stlp_std::priv::_Rb_tree_iterator<stlp_std::pair<shared_str const ,xr_vector<CEnvDescriptor *,xalloc<CEnvDescriptor *> > >,stlp_std::priv::_MapTraitsT<stlp_std::pair<shared_str const ,xr_vector<CEnvDescriptor *,xalloc<CEnvDescriptor *> > > > >::operator->
PUBLIC	??9?$_Rb_tree_iterator@U?$pair@$$CBVshared_str@@V?$xr_vector@PAVCEnvDescriptor@@V?$xalloc@PAVCEnvDescriptor@@@@@@@stlp_std@@U?$_MapTraitsT@U?$pair@$$CBVshared_str@@V?$xr_vector@PAVCEnvDescriptor@@V?$xalloc@PAVCEnvDescriptor@@@@@@@stlp_std@@@priv@2@@priv@stlp_std@@QBE_NU?$_Rb_tree_iterator@U?$pair@$$CBVshared_str@@V?$xr_vector@PAVCEnvDescriptor@@V?$xalloc@PAVCEnvDescriptor@@@@@@@stlp_std@@U?$_ConstMapTraitsT@U?$pair@$$CBVshared_str@@V?$xr_vector@PAVCEnvDescriptor@@V?$xalloc@PAVCEnvDescriptor@@@@@@@stlp_std@@@priv@2@@12@@Z ; stlp_std::priv::_Rb_tree_iterator<stlp_std::pair<shared_str const ,xr_vector<CEnvDescriptor *,xalloc<CEnvDescriptor *> > >,stlp_std::priv::_MapTraitsT<stlp_std::pair<shared_str const ,xr_vector<CEnvDescriptor *,xalloc<CEnvDescriptor *> > > > >::operator!=
PUBLIC	??0?$_Rb_tree_iterator@U?$pair@$$CBVshared_str@@V?$xr_vector@PAVCEnvDescriptor@@V?$xalloc@PAVCEnvDescriptor@@@@@@@stlp_std@@U?$_MapTraitsT@U?$pair@$$CBVshared_str@@V?$xr_vector@PAVCEnvDescriptor@@V?$xalloc@PAVCEnvDescriptor@@@@@@@stlp_std@@@priv@2@@priv@stlp_std@@QAE@PAU_Rb_tree_node_base@12@@Z ; stlp_std::priv::_Rb_tree_iterator<stlp_std::pair<shared_str const ,xr_vector<CEnvDescriptor *,xalloc<CEnvDescriptor *> > >,stlp_std::priv::_MapTraitsT<stlp_std::pair<shared_str const ,xr_vector<CEnvDescriptor *,xalloc<CEnvDescriptor *> > > > >::_Rb_tree_iterator<stlp_std::pair<shared_str const ,xr_vector<CEnvDescriptor *,xalloc<CEnvDescriptor *> > >,stlp_std::priv::_MapTraitsT<stlp_std::pair<shared_str const ,xr_vector<CEnvDescriptor *,xalloc<CEnvDescriptor *> > > > >
PUBLIC	?xr_strcmp@@YAHABVshared_str@@0@Z		; xr_strcmp
PUBLIC	??Rstr_pred@CEnvironment@@QBE_NABVshared_str@@0@Z ; CEnvironment::str_pred::operator()
PUBLIC	??R?$_Select1st@U?$pair@$$CBVshared_str@@V?$xr_vector@PAVCEnvDescriptor@@V?$xalloc@PAVCEnvDescriptor@@@@@@@stlp_std@@@priv@stlp_std@@QBEABVshared_str@@ABU?$pair@$$CBVshared_str@@V?$xr_vector@PAVCEnvDescriptor@@V?$xalloc@PAVCEnvDescriptor@@@@@@@2@@Z ; stlp_std::priv::_Select1st<stlp_std::pair<shared_str const ,xr_vector<CEnvDescriptor *,xalloc<CEnvDescriptor *> > > >::operator()
PUBLIC	?_S_key@?$_Rb_tree@Vshared_str@@Ustr_pred@CEnvironment@@U?$pair@$$CBVshared_str@@V?$xr_vector@PAVCEnvDescriptor@@V?$xalloc@PAVCEnvDescriptor@@@@@@@stlp_std@@U?$_Select1st@U?$pair@$$CBVshared_str@@V?$xr_vector@PAVCEnvDescriptor@@V?$xalloc@PAVCEnvDescriptor@@@@@@@stlp_std@@@priv@5@U?$_MapTraitsT@U?$pair@$$CBVshared_str@@V?$xr_vector@PAVCEnvDescriptor@@V?$xalloc@PAVCEnvDescriptor@@@@@@@stlp_std@@@75@V?$xalloc@U?$pair@Vshared_str@@V?$xr_vector@PAVCEnvDescriptor@@V?$xalloc@PAVCEnvDescriptor@@@@@@@stlp_std@@@@@priv@stlp_std@@KAABVshared_str@@PAU_Rb_tree_node_base@23@@Z ; stlp_std::priv::_Rb_tree<shared_str,CEnvironment::str_pred,stlp_std::pair<shared_str const ,xr_vector<CEnvDescriptor *,xalloc<CEnvDescriptor *> > >,stlp_std::priv::_Select1st<stlp_std::pair<shared_str const ,xr_vector<CEnvDescriptor *,xalloc<CEnvDescriptor *> > > >,stlp_std::priv::_MapTraitsT<stlp_std::pair<shared_str const ,xr_vector<CEnvDescriptor *,xalloc<CEnvDescriptor *> > > >,xalloc<stlp_std::pair<shared_str,xr_vector<CEnvDescriptor *,xalloc<CEnvDescriptor *> > > > >::_S_key
PUBLIC	??$_M_find@Vshared_str@@@?$_Rb_tree@Vshared_str@@Ustr_pred@CEnvironment@@U?$pair@$$CBVshared_str@@V?$xr_vector@PAVCEnvDescriptor@@V?$xalloc@PAVCEnvDescriptor@@@@@@@stlp_std@@U?$_Select1st@U?$pair@$$CBVshared_str@@V?$xr_vector@PAVCEnvDescriptor@@V?$xalloc@PAVCEnvDescriptor@@@@@@@stlp_std@@@priv@5@U?$_MapTraitsT@U?$pair@$$CBVshared_str@@V?$xr_vector@PAVCEnvDescriptor@@V?$xalloc@PAVCEnvDescriptor@@@@@@@stlp_std@@@75@V?$xalloc@U?$pair@Vshared_str@@V?$xr_vector@PAVCEnvDescriptor@@V?$xalloc@PAVCEnvDescriptor@@@@@@@stlp_std@@@@@priv@stlp_std@@ABEPAU_Rb_tree_node_base@12@ABVshared_str@@@Z ; stlp_std::priv::_Rb_tree<shared_str,CEnvironment::str_pred,stlp_std::pair<shared_str const ,xr_vector<CEnvDescriptor *,xalloc<CEnvDescriptor *> > >,stlp_std::priv::_Select1st<stlp_std::pair<shared_str const ,xr_vector<CEnvDescriptor *,xalloc<CEnvDescriptor *> > > >,stlp_std::priv::_MapTraitsT<stlp_std::pair<shared_str const ,xr_vector<CEnvDescriptor *,xalloc<CEnvDescriptor *> > > >,xalloc<stlp_std::pair<shared_str,xr_vector<CEnvDescriptor *,xalloc<CEnvDescriptor *> > > > >::_M_find<shared_str>
PUBLIC	??$find@Vshared_str@@@?$_Rb_tree@Vshared_str@@Ustr_pred@CEnvironment@@U?$pair@$$CBVshared_str@@V?$xr_vector@PAVCEnvDescriptor@@V?$xalloc@PAVCEnvDescriptor@@@@@@@stlp_std@@U?$_Select1st@U?$pair@$$CBVshared_str@@V?$xr_vector@PAVCEnvDescriptor@@V?$xalloc@PAVCEnvDescriptor@@@@@@@stlp_std@@@priv@5@U?$_MapTraitsT@U?$pair@$$CBVshared_str@@V?$xr_vector@PAVCEnvDescriptor@@V?$xalloc@PAVCEnvDescriptor@@@@@@@stlp_std@@@75@V?$xalloc@U?$pair@Vshared_str@@V?$xr_vector@PAVCEnvDescriptor@@V?$xalloc@PAVCEnvDescriptor@@@@@@@stlp_std@@@@@priv@stlp_std@@QAE?AU?$_Rb_tree_iterator@U?$pair@$$CBVshared_str@@V?$xr_vector@PAVCEnvDescriptor@@V?$xalloc@PAVCEnvDescriptor@@@@@@@stlp_std@@U?$_MapTraitsT@U?$pair@$$CBVshared_str@@V?$xr_vector@PAVCEnvDescriptor@@V?$xalloc@PAVCEnvDescriptor@@@@@@@stlp_std@@@priv@2@@12@ABVshared_str@@@Z ; stlp_std::priv::_Rb_tree<shared_str,CEnvironment::str_pred,stlp_std::pair<shared_str const ,xr_vector<CEnvDescriptor *,xalloc<CEnvDescriptor *> > >,stlp_std::priv::_Select1st<stlp_std::pair<shared_str const ,xr_vector<CEnvDescriptor *,xalloc<CEnvDescriptor *> > > >,stlp_std::priv::_MapTraitsT<stlp_std::pair<shared_str const ,xr_vector<CEnvDescriptor *,xalloc<CEnvDescriptor *> > > >,xalloc<stlp_std::pair<shared_str,xr_vector<CEnvDescriptor *,xalloc<CEnvDescriptor *> > > > >::find<shared_str>
PUBLIC	??$find@Vshared_str@@@?$map@Vshared_str@@V?$xr_vector@PAVCEnvDescriptor@@V?$xalloc@PAVCEnvDescriptor@@@@@@Ustr_pred@CEnvironment@@V?$xalloc@U?$pair@Vshared_str@@V?$xr_vector@PAVCEnvDescriptor@@V?$xalloc@PAVCEnvDescriptor@@@@@@@stlp_std@@@@@stlp_std@@QAE?AU?$_Rb_tree_iterator@U?$pair@$$CBVshared_str@@V?$xr_vector@PAVCEnvDescriptor@@V?$xalloc@PAVCEnvDescriptor@@@@@@@stlp_std@@U?$_MapTraitsT@U?$pair@$$CBVshared_str@@V?$xr_vector@PAVCEnvDescriptor@@V?$xalloc@PAVCEnvDescriptor@@@@@@@stlp_std@@@priv@2@@priv@1@ABVshared_str@@@Z ; stlp_std::map<shared_str,xr_vector<CEnvDescriptor *,xalloc<CEnvDescriptor *> >,CEnvironment::str_pred,xalloc<stlp_std::pair<shared_str,xr_vector<CEnvDescriptor *,xalloc<CEnvDescriptor *> > > > >::find<shared_str>
PUBLIC	??0?$_Rb_tree_iterator@U?$pair@$$CBVshared_str@@V?$xr_vector@PAVCEnvDescriptor@@V?$xalloc@PAVCEnvDescriptor@@@@@@@stlp_std@@U?$_ConstMapTraitsT@U?$pair@$$CBVshared_str@@V?$xr_vector@PAVCEnvDescriptor@@V?$xalloc@PAVCEnvDescriptor@@@@@@@stlp_std@@@priv@2@@priv@stlp_std@@QAE@ABU?$_Rb_tree_iterator@U?$pair@$$CBVshared_str@@V?$xr_vector@PAVCEnvDescriptor@@V?$xalloc@PAVCEnvDescriptor@@@@@@@stlp_std@@U?$_MapTraitsT@U?$pair@$$CBVshared_str@@V?$xr_vector@PAVCEnvDescriptor@@V?$xalloc@PAVCEnvDescriptor@@@@@@@stlp_std@@@priv@2@@12@@Z ; stlp_std::priv::_Rb_tree_iterator<stlp_std::pair<shared_str const ,xr_vector<CEnvDescriptor *,xalloc<CEnvDescriptor *> > >,stlp_std::priv::_ConstMapTraitsT<stlp_std::pair<shared_str const ,xr_vector<CEnvDescriptor *,xalloc<CEnvDescriptor *> > > > >::_Rb_tree_iterator<stlp_std::pair<shared_str const ,xr_vector<CEnvDescriptor *,xalloc<CEnvDescriptor *> > >,stlp_std::priv::_ConstMapTraitsT<stlp_std::pair<shared_str const ,xr_vector<CEnvDescriptor *,xalloc<CEnvDescriptor *> > > > >
PUBLIC	??$__lg@H@priv@stlp_std@@YAHH@Z			; stlp_std::priv::__lg<int>
PUBLIC	??$__make_heap@PAPAVCEnvDescriptor@@P6A_NPBV1@0@ZPAV1@H@stlp_std@@YAXPAPAVCEnvDescriptor@@0P6A_NPBV1@1@Z0PAH@Z ; stlp_std::__make_heap<CEnvDescriptor * *,bool (__cdecl*)(CEnvDescriptor const *,CEnvDescriptor const *),CEnvDescriptor *,int>
PUBLIC	??$make_heap@PAPAVCEnvDescriptor@@P6A_NPBV1@0@Z@stlp_std@@YAXPAPAVCEnvDescriptor@@0P6A_NPBV1@1@Z@Z ; stlp_std::make_heap<CEnvDescriptor * *,bool (__cdecl*)(CEnvDescriptor const *,CEnvDescriptor const *)>
PUBLIC	??$__push_heap@PAPAVCEnvDescriptor@@HPAV1@P6A_NPBV1@0@Z@stlp_std@@YAXPAPAVCEnvDescriptor@@HHPAV1@P6A_NPBV1@2@Z@Z ; stlp_std::__push_heap<CEnvDescriptor * *,int,CEnvDescriptor *,bool (__cdecl*)(CEnvDescriptor const *,CEnvDescriptor const *)>
PUBLIC	??$__adjust_heap@PAPAVCEnvDescriptor@@HPAV1@P6A_NPBV1@0@Z@stlp_std@@YAXPAPAVCEnvDescriptor@@HHPAV1@P6A_NPBV1@2@Z@Z ; stlp_std::__adjust_heap<CEnvDescriptor * *,int,CEnvDescriptor *,bool (__cdecl*)(CEnvDescriptor const *,CEnvDescriptor const *)>
PUBLIC	??$__pop_heap@PAPAVCEnvDescriptor@@PAV1@P6A_NPBV1@0@ZH@stlp_std@@YAXPAPAVCEnvDescriptor@@00PAV1@P6A_NPBV1@2@ZPAH@Z ; stlp_std::__pop_heap<CEnvDescriptor * *,CEnvDescriptor *,bool (__cdecl*)(CEnvDescriptor const *,CEnvDescriptor const *),int>
PUBLIC	??$__pop_heap_aux@PAPAVCEnvDescriptor@@PAV1@P6A_NPBV1@0@Z@stlp_std@@YAXPAPAVCEnvDescriptor@@00P6A_NPBV1@1@Z@Z ; stlp_std::__pop_heap_aux<CEnvDescriptor * *,CEnvDescriptor *,bool (__cdecl*)(CEnvDescriptor const *,CEnvDescriptor const *)>
PUBLIC	??$pop_heap@PAPAVCEnvDescriptor@@P6A_NPBV1@0@Z@stlp_std@@YAXPAPAVCEnvDescriptor@@0P6A_NPBV1@1@Z@Z ; stlp_std::pop_heap<CEnvDescriptor * *,bool (__cdecl*)(CEnvDescriptor const *,CEnvDescriptor const *)>
PUBLIC	??$sort_heap@PAPAVCEnvDescriptor@@P6A_NPBV1@0@Z@stlp_std@@YAXPAPAVCEnvDescriptor@@0P6A_NPBV1@1@Z@Z ; stlp_std::sort_heap<CEnvDescriptor * *,bool (__cdecl*)(CEnvDescriptor const *,CEnvDescriptor const *)>
PUBLIC	??$__partial_sort@PAPAVCEnvDescriptor@@PAV1@P6A_NPBV1@0@Z@priv@stlp_std@@YAXPAPAVCEnvDescriptor@@000P6A_NPBV2@1@Z@Z ; stlp_std::priv::__partial_sort<CEnvDescriptor * *,CEnvDescriptor *,bool (__cdecl*)(CEnvDescriptor const *,CEnvDescriptor const *)>
PUBLIC	??$partial_sort@PAPAVCEnvDescriptor@@P6A_NPBV1@0@Z@stlp_std@@YAXPAPAVCEnvDescriptor@@00P6A_NPBV1@1@Z@Z ; stlp_std::partial_sort<CEnvDescriptor * *,bool (__cdecl*)(CEnvDescriptor const *,CEnvDescriptor const *)>
PUBLIC	??$__median@PAVCEnvDescriptor@@P6A_NPBV1@0@Z@priv@stlp_std@@YAABQAVCEnvDescriptor@@ABQAV2@00P6A_NPBV2@1@Z@Z ; stlp_std::priv::__median<CEnvDescriptor *,bool (__cdecl*)(CEnvDescriptor const *,CEnvDescriptor const *)>
PUBLIC	?_Ret@?$_IsRefType@AAPAVCEnvDescriptor@@@stlp_std@@SA?AU__true_type@2@XZ ; stlp_std::_IsRefType<CEnvDescriptor * &>::_Ret
PUBLIC	??$_IsOKToSwap@PAVCEnvDescriptor@@PAV1@U__true_type@stlp_std@@U23@@stlp_std@@YA?AU?$_OKToSwap@PAVCEnvDescriptor@@PAV1@U__true_type@stlp_std@@U23@@0@PAPAVCEnvDescriptor@@0ABU__true_type@0@1@Z ; stlp_std::_IsOKToSwap<CEnvDescriptor *,CEnvDescriptor *,stlp_std::__true_type,stlp_std::__true_type>
PUBLIC	?_Answer@?$_OKToSwap@PAVCEnvDescriptor@@PAV1@U__true_type@stlp_std@@U23@@stlp_std@@SA?AU__true_type@2@XZ ; stlp_std::_OKToSwap<CEnvDescriptor *,CEnvDescriptor *,stlp_std::__true_type,stlp_std::__true_type>::_Answer
PUBLIC	??$swap@PAVCEnvDescriptor@@@stlp_std@@YAXAAPAVCEnvDescriptor@@0@Z ; stlp_std::swap<CEnvDescriptor *>
PUBLIC	??$__iter_swap_aux@PAPAVCEnvDescriptor@@PAPAV1@@priv@stlp_std@@YAXAAPAPAVCEnvDescriptor@@0ABU__true_type@1@@Z ; stlp_std::priv::__iter_swap_aux<CEnvDescriptor * *,CEnvDescriptor * *>
PUBLIC	??$iter_swap@PAPAVCEnvDescriptor@@PAPAV1@@stlp_std@@YAXPAPAVCEnvDescriptor@@0@Z ; stlp_std::iter_swap<CEnvDescriptor * *,CEnvDescriptor * *>
PUBLIC	??$__unguarded_partition@PAPAVCEnvDescriptor@@PAV1@P6A_NPBV1@0@Z@priv@stlp_std@@YAPAPAVCEnvDescriptor@@PAPAV2@0PAV2@P6A_NPBV2@2@Z@Z ; stlp_std::priv::__unguarded_partition<CEnvDescriptor * *,CEnvDescriptor *,bool (__cdecl*)(CEnvDescriptor const *,CEnvDescriptor const *)>
PUBLIC	??$__introsort_loop@PAPAVCEnvDescriptor@@PAV1@HP6A_NPBV1@0@Z@priv@stlp_std@@YAXPAPAVCEnvDescriptor@@00HP6A_NPBV2@1@Z@Z ; stlp_std::priv::__introsort_loop<CEnvDescriptor * *,CEnvDescriptor *,int,bool (__cdecl*)(CEnvDescriptor const *,CEnvDescriptor const *)>
PUBLIC	?_Answer@?$_BothPtrType@PAPAVCEnvDescriptor@@PAPAV1@@stlp_std@@SA?AU__true_type@2@XZ ; stlp_std::_BothPtrType<CEnvDescriptor * *,CEnvDescriptor * *>::_Answer
PUBLIC	??$_UseTrivialCopy@PAVCEnvDescriptor@@PAV1@@stlp_std@@YA?AU?$_TrivialCopy@PAVCEnvDescriptor@@PAV1@@0@PAPAVCEnvDescriptor@@0@Z ; stlp_std::_UseTrivialCopy<CEnvDescriptor *,CEnvDescriptor *>
PUBLIC	?_Answer@?$_TrivialCopy@PAVCEnvDescriptor@@PAV1@@stlp_std@@SA?AU__true_type@2@XZ ; stlp_std::_TrivialCopy<CEnvDescriptor *,CEnvDescriptor *>::_Answer
PUBLIC	??$__copy_backward_ptrs@PAPAVCEnvDescriptor@@PAPAV1@@priv@stlp_std@@YAPAPAVCEnvDescriptor@@PAPAV2@00ABU__true_type@1@@Z ; stlp_std::priv::__copy_backward_ptrs<CEnvDescriptor * *,CEnvDescriptor * *>
PUBLIC	??$__copy_backward_aux@PAPAVCEnvDescriptor@@PAPAV1@@priv@stlp_std@@YAPAPAVCEnvDescriptor@@PAPAV2@00ABU__true_type@1@@Z ; stlp_std::priv::__copy_backward_aux<CEnvDescriptor * *,CEnvDescriptor * *>
PUBLIC	??$copy_backward@PAPAVCEnvDescriptor@@PAPAV1@@stlp_std@@YAPAPAVCEnvDescriptor@@PAPAV1@00@Z ; stlp_std::copy_backward<CEnvDescriptor * *,CEnvDescriptor * *>
PUBLIC	??$__linear_insert@PAPAVCEnvDescriptor@@PAV1@P6A_NPBV1@0@Z@priv@stlp_std@@YAXPAPAVCEnvDescriptor@@0PAV2@P6A_NPBV2@2@Z@Z ; stlp_std::priv::__linear_insert<CEnvDescriptor * *,CEnvDescriptor *,bool (__cdecl*)(CEnvDescriptor const *,CEnvDescriptor const *)>
PUBLIC	??$__insertion_sort@PAPAVCEnvDescriptor@@PAV1@P6A_NPBV1@0@Z@priv@stlp_std@@YAXPAPAVCEnvDescriptor@@00P6A_NPBV2@1@Z@Z ; stlp_std::priv::__insertion_sort<CEnvDescriptor * *,CEnvDescriptor *,bool (__cdecl*)(CEnvDescriptor const *,CEnvDescriptor const *)>
PUBLIC	??$__unguarded_linear_insert@PAPAVCEnvDescriptor@@PAV1@P6A_NPBV1@0@Z@priv@stlp_std@@YAXPAPAVCEnvDescriptor@@PAV2@P6A_NPBV2@2@Z@Z ; stlp_std::priv::__unguarded_linear_insert<CEnvDescriptor * *,CEnvDescriptor *,bool (__cdecl*)(CEnvDescriptor const *,CEnvDescriptor const *)>
PUBLIC	??$__unguarded_insertion_sort_aux@PAPAVCEnvDescriptor@@PAV1@P6A_NPBV1@0@Z@priv@stlp_std@@YAXPAPAVCEnvDescriptor@@00P6A_NPBV2@1@Z@Z ; stlp_std::priv::__unguarded_insertion_sort_aux<CEnvDescriptor * *,CEnvDescriptor *,bool (__cdecl*)(CEnvDescriptor const *,CEnvDescriptor const *)>
PUBLIC	??$__unguarded_insertion_sort@PAPAVCEnvDescriptor@@P6A_NPBV1@0@Z@priv@stlp_std@@YAXPAPAVCEnvDescriptor@@0P6A_NPBV2@1@Z@Z ; stlp_std::priv::__unguarded_insertion_sort<CEnvDescriptor * *,bool (__cdecl*)(CEnvDescriptor const *,CEnvDescriptor const *)>
PUBLIC	??$__final_insertion_sort@PAPAVCEnvDescriptor@@P6A_NPBV1@0@Z@priv@stlp_std@@YAXPAPAVCEnvDescriptor@@0P6A_NPBV2@1@Z@Z ; stlp_std::priv::__final_insertion_sort<CEnvDescriptor * *,bool (__cdecl*)(CEnvDescriptor const *,CEnvDescriptor const *)>
PUBLIC	??$sort@PAPAVCEnvDescriptor@@P6A_NPBV1@0@Z@stlp_std@@YAXPAPAVCEnvDescriptor@@0P6A_NPBV1@1@Z@Z ; stlp_std::sort<CEnvDescriptor * *,bool (__cdecl*)(CEnvDescriptor const *,CEnvDescriptor const *)>
PUBLIC	??$clampr@M@@YAMABM00@Z				; clampr<float>
PUBLIC	??C?$FactoryPtr@VIEnvironmentRender@@@@QBEPAVIEnvironmentRender@@XZ ; FactoryPtr<IEnvironmentRender>::operator->
PUBLIC	?_M_set@?$_Impl_vector@MV?$xalloc@M@@@priv@stlp_std@@AAEXPAM00@Z ; stlp_std::priv::_Impl_vector<float,xalloc<float> >::_M_set
PUBLIC	??$__fill_n@PAMIM@priv@stlp_std@@YAPAMPAMIABM@Z	; stlp_std::priv::__fill_n<float *,unsigned int,float>
PUBLIC	?_M_insert_overflow@?$_Impl_vector@MV?$xalloc@M@@@priv@stlp_std@@AAEXPAMABMABU__true_type@3@I_N@Z ; stlp_std::priv::_Impl_vector<float,xalloc<float> >::_M_insert_overflow
PUBLIC	?_M_is_inside@?$_Impl_vector@MV?$xalloc@M@@@priv@stlp_std@@ABE_NABM@Z ; stlp_std::priv::_Impl_vector<float,xalloc<float> >::_M_is_inside
PUBLIC	??$__ucopy_ptrs@PAMPAM@priv@stlp_std@@YAPAMPAM00ABU__true_type@1@@Z ; stlp_std::priv::__ucopy_ptrs<float *,float *>
PUBLIC	??$__copy_backward_ptrs@PAMPAM@priv@stlp_std@@YAPAMPAM00ABU__true_type@1@@Z ; stlp_std::priv::__copy_backward_ptrs<float *,float *>
PUBLIC	??$fill@PAMM@stlp_std@@YAXPAM0ABM@Z		; stlp_std::fill<float *,float>
PUBLIC	??$_Param_Construct@MM@stlp_std@@YAXPAMABM@Z	; stlp_std::_Param_Construct<float,float>
PUBLIC	??$__ufill@PAMMH@priv@stlp_std@@YAXPAM0ABMABUrandom_access_iterator_tag@1@PAH@Z ; stlp_std::priv::__ufill<float *,float,int>
PUBLIC	??$__uninitialized_fill_n@PAMIM@priv@stlp_std@@YAPAMPAMIABM@Z ; stlp_std::priv::__uninitialized_fill_n<float *,unsigned int,float>
PUBLIC	?_M_fill_insert_aux@?$_Impl_vector@MV?$xalloc@M@@@priv@stlp_std@@AAEXPAMIABMABU__false_type@3@@Z ; stlp_std::priv::_Impl_vector<float,xalloc<float> >::_M_fill_insert_aux
PUBLIC	?_M_fill_insert@?$_Impl_vector@MV?$xalloc@M@@@priv@stlp_std@@AAEXPAMIABM@Z ; stlp_std::priv::_Impl_vector<float,xalloc<float> >::_M_fill_insert
PUBLIC	?insert@?$_Impl_vector@MV?$xalloc@M@@@priv@stlp_std@@QAEXPAMIABM@Z ; stlp_std::priv::_Impl_vector<float,xalloc<float> >::insert
PUBLIC	??$__copy_ptrs@PAMPAM@priv@stlp_std@@YAPAMPAM00ABU__true_type@1@@Z ; stlp_std::priv::__copy_ptrs<float *,float *>
PUBLIC	?_M_erase@?$_Impl_vector@MV?$xalloc@M@@@priv@stlp_std@@AAEPAMPAM0ABU__false_type@3@@Z ; stlp_std::priv::_Impl_vector<float,xalloc<float> >::_M_erase
PUBLIC	?erase@?$_Impl_vector@MV?$xalloc@M@@@priv@stlp_std@@QAEPAMPAM0@Z ; stlp_std::priv::_Impl_vector<float,xalloc<float> >::erase
PUBLIC	?resize@?$_Impl_vector@MV?$xalloc@M@@@priv@stlp_std@@QAEXIABM@Z ; stlp_std::priv::_Impl_vector<float,xalloc<float> >::resize
PUBLIC	?to_storage_type_cref@?$_CastTraits@MM@priv@stlp_std@@SAABMABM@Z ; stlp_std::priv::_CastTraits<float,float>::to_storage_type_cref
PUBLIC	?resize@?$vector@MV?$xalloc@M@@@stlp_std@@QAEXIABM@Z ; stlp_std::vector<float,xalloc<float> >::resize
PUBLIC	?begin@?$vector@PAVCEnvDescriptor@@V?$xalloc@PAVCEnvDescriptor@@@@@stlp_std@@QAEPAPAVCEnvDescriptor@@XZ ; stlp_std::vector<CEnvDescriptor *,xalloc<CEnvDescriptor *> >::begin
PUBLIC	?to_value_type_ptr@?$_CastTraits@PAXPAVCEnvDescriptor@@@priv@stlp_std@@SAPAPAVCEnvDescriptor@@PAPAX@Z ; stlp_std::priv::_CastTraits<void *,CEnvDescriptor *>::to_value_type_ptr
PUBLIC	?end@?$vector@PAVCEnvDescriptor@@V?$xalloc@PAVCEnvDescriptor@@@@@stlp_std@@QAEPAPAVCEnvDescriptor@@XZ ; stlp_std::vector<CEnvDescriptor *,xalloc<CEnvDescriptor *> >::end
PUBLIC	?front@?$_Impl_vector@PAXV?$xalloc@PAX@@@priv@stlp_std@@QAEAAPAXXZ ; stlp_std::priv::_Impl_vector<void *,xalloc<void *> >::front
PUBLIC	?to_value_type_ref@?$_CastTraits@PAXPAVCEnvDescriptor@@@priv@stlp_std@@SAAAPAVCEnvDescriptor@@AAPAX@Z ; stlp_std::priv::_CastTraits<void *,CEnvDescriptor *>::to_value_type_ref
PUBLIC	?front@?$vector@PAVCEnvDescriptor@@V?$xalloc@PAVCEnvDescriptor@@@@@stlp_std@@QAEAAPAVCEnvDescriptor@@XZ ; stlp_std::vector<CEnvDescriptor *,xalloc<CEnvDescriptor *> >::front
PUBLIC	?lb_env_pred@@YA_NPBVCEnvDescriptor@@M@Z	; lb_env_pred
PUBLIC	??$__distance@PAPAVCEnvDescriptor@@@stlp_std@@YAHABQAPAVCEnvDescriptor@@0ABUrandom_access_iterator_tag@0@@Z ; stlp_std::__distance<CEnvDescriptor * *>
PUBLIC	??$distance@PAPAVCEnvDescriptor@@@stlp_std@@YAHPAPAVCEnvDescriptor@@0@Z ; stlp_std::distance<CEnvDescriptor * *>
PUBLIC	??$__advance@PAPAVCEnvDescriptor@@H@stlp_std@@YAXAAPAPAVCEnvDescriptor@@HABUrandom_access_iterator_tag@0@@Z ; stlp_std::__advance<CEnvDescriptor * *,int>
PUBLIC	??$advance@PAPAVCEnvDescriptor@@H@stlp_std@@YAXAAPAPAVCEnvDescriptor@@H@Z ; stlp_std::advance<CEnvDescriptor * *,int>
PUBLIC	??$__lower_bound@PAPAVCEnvDescriptor@@MP6A_NPBV1@M@ZP6A_N0M@ZH@priv@stlp_std@@YAPAPAVCEnvDescriptor@@PAPAV2@0ABMP6A_NPBV2@M@Z3PAH@Z ; stlp_std::priv::__lower_bound<CEnvDescriptor * *,float,bool (__cdecl*)(CEnvDescriptor const *,float),bool (__cdecl*)(CEnvDescriptor const *,float),int>
PUBLIC	??$lower_bound@PAPAVCEnvDescriptor@@MP6A_NPBV1@M@Z@stlp_std@@YAPAPAVCEnvDescriptor@@PAPAV1@0ABMP6A_NPBV1@M@Z@Z ; stlp_std::lower_bound<CEnvDescriptor * *,float,bool (__cdecl*)(CEnvDescriptor const *,float)>
PUBLIC	?zero@?$_flags@G@@QAEAAU1@XZ			; _flags<unsigned short>::zero
PUBLIC	?begin@?$vector@VCEnvModifier@@V?$xalloc@VCEnvModifier@@@@@stlp_std@@QAEPAVCEnvModifier@@XZ ; stlp_std::vector<CEnvModifier,xalloc<CEnvModifier> >::begin
PUBLIC	?to_value_type_ptr@?$_CastTraits@VCEnvModifier@@V1@@priv@stlp_std@@SAPAVCEnvModifier@@PAV4@@Z ; stlp_std::priv::_CastTraits<CEnvModifier,CEnvModifier>::to_value_type_ptr
PUBLIC	?end@?$vector@VCEnvModifier@@V?$xalloc@VCEnvModifier@@@@@stlp_std@@QAEPAVCEnvModifier@@XZ ; stlp_std::vector<CEnvModifier,xalloc<CEnvModifier> >::end
PUBLIC	?zero@?$_flags@I@@QAEAAU1@XZ			; _flags<unsigned int>::zero
PUBLIC	?CreateObject@?$FactoryPtr@VIFlareRender@@@@AAEXXZ ; FactoryPtr<IFlareRender>::CreateObject
PUBLIC	??0?$FactoryPtr@VIFlareRender@@@@QAE@XZ		; FactoryPtr<IFlareRender>::FactoryPtr<IFlareRender>
PUBLIC	??0SFlare@CLensFlareDescriptor@@QAE@XZ		; CLensFlareDescriptor::SFlare::SFlare
PUBLIC	??0SSource@CLensFlareDescriptor@@QAE@XZ		; CLensFlareDescriptor::SSource::SSource
PUBLIC	??0?$xalloc@USFlare@CLensFlareDescriptor@@@@QAE@XZ ; xalloc<CLensFlareDescriptor::SFlare>::xalloc<CLensFlareDescriptor::SFlare>
PUBLIC	??0?$xalloc@USFlare@CLensFlareDescriptor@@@@QAE@ABV0@@Z ; xalloc<CLensFlareDescriptor::SFlare>::xalloc<CLensFlareDescriptor::SFlare>
PUBLIC	??0?$_STLP_alloc_proxy@PAUSFlare@CLensFlareDescriptor@@U12@V?$xalloc@USFlare@CLensFlareDescriptor@@@@@priv@stlp_std@@QAE@ABV?$xalloc@USFlare@CLensFlareDescriptor@@@@PAUSFlare@CLensFlareDescriptor@@@Z ; stlp_std::priv::_STLP_alloc_proxy<CLensFlareDescriptor::SFlare *,CLensFlareDescriptor::SFlare,xalloc<CLensFlareDescriptor::SFlare> >::_STLP_alloc_proxy<CLensFlareDescriptor::SFlare *,CLensFlareDescriptor::SFlare,xalloc<CLensFlareDescriptor::SFlare> >
PUBLIC	??0?$_Vector_base@USFlare@CLensFlareDescriptor@@V?$xalloc@USFlare@CLensFlareDescriptor@@@@@priv@stlp_std@@QAE@ABV?$xalloc@USFlare@CLensFlareDescriptor@@@@@Z ; stlp_std::priv::_Vector_base<CLensFlareDescriptor::SFlare,xalloc<CLensFlareDescriptor::SFlare> >::_Vector_base<CLensFlareDescriptor::SFlare,xalloc<CLensFlareDescriptor::SFlare> >
PUBLIC	??0?$_Impl_vector@USFlare@CLensFlareDescriptor@@V?$xalloc@USFlare@CLensFlareDescriptor@@@@@priv@stlp_std@@QAE@ABV?$xalloc@USFlare@CLensFlareDescriptor@@@@@Z ; stlp_std::priv::_Impl_vector<CLensFlareDescriptor::SFlare,xalloc<CLensFlareDescriptor::SFlare> >::_Impl_vector<CLensFlareDescriptor::SFlare,xalloc<CLensFlareDescriptor::SFlare> >
PUBLIC	??0?$vector@USFlare@CLensFlareDescriptor@@V?$xalloc@USFlare@CLensFlareDescriptor@@@@@stlp_std@@QAE@ABV?$xalloc@USFlare@CLensFlareDescriptor@@@@@Z ; stlp_std::vector<CLensFlareDescriptor::SFlare,xalloc<CLensFlareDescriptor::SFlare> >::vector<CLensFlareDescriptor::SFlare,xalloc<CLensFlareDescriptor::SFlare> >
PUBLIC	??0?$xr_vector@USFlare@CLensFlareDescriptor@@V?$xalloc@USFlare@CLensFlareDescriptor@@@@@@QAE@XZ ; xr_vector<CLensFlareDescriptor::SFlare,xalloc<CLensFlareDescriptor::SFlare> >::xr_vector<CLensFlareDescriptor::SFlare,xalloc<CLensFlareDescriptor::SFlare> >
PUBLIC	_acosf
PUBLIC	?fis_zero@@YAHMM@Z				; fis_zero
PUBLIC	??$deg2rad@M@implement@@YAMM@Z			; implement::deg2rad<float>
PUBLIC	?deg2rad@@YAMM@Z				; deg2rad
PUBLIC	?setHP@?$_vector3@M@@QAEAAU1@MM@Z		; _vector3<float>::setHP
PUBLIC	?_valid@@YAHM@Z					; _valid
PUBLIC	??$_valid@M@@YAHABU?$_vector3@M@@@Z		; _valid<float>
PUBLIC	??1SSource@CLensFlareDescriptor@@QAE@XZ		; CLensFlareDescriptor::SSource::~SSource
PUBLIC	??$xr_free@USFlare@CLensFlareDescriptor@@@@YAXAAPAUSFlare@CLensFlareDescriptor@@@Z ; xr_free<CLensFlareDescriptor::SFlare>
PUBLIC	?deallocate@?$xalloc@USFlare@CLensFlareDescriptor@@@@QBEXPAUSFlare@CLensFlareDescriptor@@I@Z ; xalloc<CLensFlareDescriptor::SFlare>::deallocate
PUBLIC	??1?$_Vector_base@USFlare@CLensFlareDescriptor@@V?$xalloc@USFlare@CLensFlareDescriptor@@@@@priv@stlp_std@@QAE@XZ ; stlp_std::priv::_Vector_base<CLensFlareDescriptor::SFlare,xalloc<CLensFlareDescriptor::SFlare> >::~_Vector_base<CLensFlareDescriptor::SFlare,xalloc<CLensFlareDescriptor::SFlare> >
PUBLIC	?end@?$_Impl_vector@USFlare@CLensFlareDescriptor@@V?$xalloc@USFlare@CLensFlareDescriptor@@@@@priv@stlp_std@@QAEPAUSFlare@CLensFlareDescriptor@@XZ ; stlp_std::priv::_Impl_vector<CLensFlareDescriptor::SFlare,xalloc<CLensFlareDescriptor::SFlare> >::end
PUBLIC	?rbegin@?$_Impl_vector@USFlare@CLensFlareDescriptor@@V?$xalloc@USFlare@CLensFlareDescriptor@@@@@priv@stlp_std@@QAE?AV?$reverse_iterator@PAUSFlare@CLensFlareDescriptor@@@3@XZ ; stlp_std::priv::_Impl_vector<CLensFlareDescriptor::SFlare,xalloc<CLensFlareDescriptor::SFlare> >::rbegin
PUBLIC	?begin@?$_Impl_vector@USFlare@CLensFlareDescriptor@@V?$xalloc@USFlare@CLensFlareDescriptor@@@@@priv@stlp_std@@QAEPAUSFlare@CLensFlareDescriptor@@XZ ; stlp_std::priv::_Impl_vector<CLensFlareDescriptor::SFlare,xalloc<CLensFlareDescriptor::SFlare> >::begin
PUBLIC	??0?$reverse_iterator@PAUSFlare@CLensFlareDescriptor@@@stlp_std@@QAE@PAUSFlare@CLensFlareDescriptor@@@Z ; stlp_std::reverse_iterator<CLensFlareDescriptor::SFlare *>::reverse_iterator<CLensFlareDescriptor::SFlare *>
PUBLIC	?rend@?$_Impl_vector@USFlare@CLensFlareDescriptor@@V?$xalloc@USFlare@CLensFlareDescriptor@@@@@priv@stlp_std@@QAE?AV?$reverse_iterator@PAUSFlare@CLensFlareDescriptor@@@3@XZ ; stlp_std::priv::_Impl_vector<CLensFlareDescriptor::SFlare,xalloc<CLensFlareDescriptor::SFlare> >::rend
PUBLIC	??0?$reverse_iterator@PAUSFlare@CLensFlareDescriptor@@@stlp_std@@QAE@ABV01@@Z ; stlp_std::reverse_iterator<CLensFlareDescriptor::SFlare *>::reverse_iterator<CLensFlareDescriptor::SFlare *>
PUBLIC	??D?$reverse_iterator@PAUSFlare@CLensFlareDescriptor@@@stlp_std@@QBEAAUSFlare@CLensFlareDescriptor@@XZ ; stlp_std::reverse_iterator<CLensFlareDescriptor::SFlare *>::operator*
PUBLIC	??E?$reverse_iterator@PAUSFlare@CLensFlareDescriptor@@@stlp_std@@QAEAAV01@XZ ; stlp_std::reverse_iterator<CLensFlareDescriptor::SFlare *>::operator++
PUBLIC	?base@?$reverse_iterator@PAUSFlare@CLensFlareDescriptor@@@stlp_std@@QBEPAUSFlare@CLensFlareDescriptor@@XZ ; stlp_std::reverse_iterator<CLensFlareDescriptor::SFlare *>::base
PUBLIC	??$?8PAUSFlare@CLensFlareDescriptor@@@stlp_std@@YA_NABV?$reverse_iterator@PAUSFlare@CLensFlareDescriptor@@@0@0@Z ; stlp_std::operator==<CLensFlareDescriptor::SFlare *>
PUBLIC	??$?9PAUSFlare@CLensFlareDescriptor@@@stlp_std@@YA_NABV?$reverse_iterator@PAUSFlare@CLensFlareDescriptor@@@0@0@Z ; stlp_std::operator!=<CLensFlareDescriptor::SFlare *>
PUBLIC	?DestroyObject@?$FactoryPtr@VIFlareRender@@@@AAEXXZ ; FactoryPtr<IFlareRender>::DestroyObject
PUBLIC	??1?$FactoryPtr@VIFlareRender@@@@QAE@XZ		; FactoryPtr<IFlareRender>::~FactoryPtr<IFlareRender>
PUBLIC	??1SFlare@CLensFlareDescriptor@@QAE@XZ		; CLensFlareDescriptor::SFlare::~SFlare
PUBLIC	??_GSFlare@CLensFlareDescriptor@@QAEPAXI@Z	; CLensFlareDescriptor::SFlare::`scalar deleting destructor'
PUBLIC	??$__destroy_aux@USFlare@CLensFlareDescriptor@@@stlp_std@@YAXPAUSFlare@CLensFlareDescriptor@@ABU__false_type@0@@Z ; stlp_std::__destroy_aux<CLensFlareDescriptor::SFlare>
PUBLIC	??$__destroy_range_aux@V?$reverse_iterator@PAUSFlare@CLensFlareDescriptor@@@stlp_std@@USFlare@CLensFlareDescriptor@@@stlp_std@@YAXV?$reverse_iterator@PAUSFlare@CLensFlareDescriptor@@@0@0PAUSFlare@CLensFlareDescriptor@@ABU__false_type@0@@Z ; stlp_std::__destroy_range_aux<stlp_std::reverse_iterator<CLensFlareDescriptor::SFlare *>,CLensFlareDescriptor::SFlare>
PUBLIC	??$__destroy_range@V?$reverse_iterator@PAUSFlare@CLensFlareDescriptor@@@stlp_std@@USFlare@CLensFlareDescriptor@@@stlp_std@@YAXV?$reverse_iterator@PAUSFlare@CLensFlareDescriptor@@@0@0PAUSFlare@CLensFlareDescriptor@@@Z ; stlp_std::__destroy_range<stlp_std::reverse_iterator<CLensFlareDescriptor::SFlare *>,CLensFlareDescriptor::SFlare>
PUBLIC	??$_Destroy_Range@V?$reverse_iterator@PAUSFlare@CLensFlareDescriptor@@@stlp_std@@@stlp_std@@YAXV?$reverse_iterator@PAUSFlare@CLensFlareDescriptor@@@0@0@Z ; stlp_std::_Destroy_Range<stlp_std::reverse_iterator<CLensFlareDescriptor::SFlare *> >
PUBLIC	??1?$_Impl_vector@USFlare@CLensFlareDescriptor@@V?$xalloc@USFlare@CLensFlareDescriptor@@@@@priv@stlp_std@@QAE@XZ ; stlp_std::priv::_Impl_vector<CLensFlareDescriptor::SFlare,xalloc<CLensFlareDescriptor::SFlare> >::~_Impl_vector<CLensFlareDescriptor::SFlare,xalloc<CLensFlareDescriptor::SFlare> >
PUBLIC	??1?$vector@USFlare@CLensFlareDescriptor@@V?$xalloc@USFlare@CLensFlareDescriptor@@@@@stlp_std@@QAE@XZ ; stlp_std::vector<CLensFlareDescriptor::SFlare,xalloc<CLensFlareDescriptor::SFlare> >::~vector<CLensFlareDescriptor::SFlare,xalloc<CLensFlareDescriptor::SFlare> >
PUBLIC	??1?$xr_vector@USFlare@CLensFlareDescriptor@@V?$xalloc@USFlare@CLensFlareDescriptor@@@@@@QAE@XZ ; xr_vector<CLensFlareDescriptor::SFlare,xalloc<CLensFlareDescriptor::SFlare> >::~xr_vector<CLensFlareDescriptor::SFlare,xalloc<CLensFlareDescriptor::SFlare> >
PUBLIC	?DestroyObject@?$FactoryPtr@VIRainRender@@@@AAEXXZ ; FactoryPtr<IRainRender>::DestroyObject
PUBLIC	??1?$FactoryPtr@VIRainRender@@@@QAE@XZ		; FactoryPtr<IRainRender>::~FactoryPtr<IRainRender>
PUBLIC	?CreateObject@?$FactoryPtr@VIRainRender@@@@AAEXXZ ; FactoryPtr<IRainRender>::CreateObject
PUBLIC	??0?$FactoryPtr@VIRainRender@@@@QAE@ABV0@@Z	; FactoryPtr<IRainRender>::FactoryPtr<IRainRender>
PUBLIC	??1?$xr_vector@UItem@CEffect_Rain@@V?$xalloc@UItem@CEffect_Rain@@@@@@QAE@XZ ; xr_vector<CEffect_Rain::Item,xalloc<CEffect_Rain::Item> >::~xr_vector<CEffect_Rain::Item,xalloc<CEffect_Rain::Item> >
PUBLIC	??0?$_STLP_alloc_proxy@PAUItem@CEffect_Rain@@U12@V?$xalloc@UItem@CEffect_Rain@@@@@priv@stlp_std@@QAE@ABV?$xalloc@UItem@CEffect_Rain@@@@PAUItem@CEffect_Rain@@@Z ; stlp_std::priv::_STLP_alloc_proxy<CEffect_Rain::Item *,CEffect_Rain::Item,xalloc<CEffect_Rain::Item> >::_STLP_alloc_proxy<CEffect_Rain::Item *,CEffect_Rain::Item,xalloc<CEffect_Rain::Item> >
PUBLIC	??$xr_alloc@UItem@CEffect_Rain@@@@YAPAUItem@CEffect_Rain@@I@Z ; xr_alloc<CEffect_Rain::Item>
PUBLIC	?allocate@?$xalloc@UItem@CEffect_Rain@@@@QBEPAUItem@CEffect_Rain@@IPBX@Z ; xalloc<CEffect_Rain::Item>::allocate
PUBLIC	?allocate@?$_STLP_alloc_proxy@PAUItem@CEffect_Rain@@U12@V?$xalloc@UItem@CEffect_Rain@@@@@priv@stlp_std@@QAEPAUItem@CEffect_Rain@@I@Z ; stlp_std::priv::_STLP_alloc_proxy<CEffect_Rain::Item *,CEffect_Rain::Item,xalloc<CEffect_Rain::Item> >::allocate
PUBLIC	?allocate@?$_STLP_alloc_proxy@PAUItem@CEffect_Rain@@U12@V?$xalloc@UItem@CEffect_Rain@@@@@priv@stlp_std@@AAEPAUItem@CEffect_Rain@@IAAIABU__false_type@3@@Z ; stlp_std::priv::_STLP_alloc_proxy<CEffect_Rain::Item *,CEffect_Rain::Item,xalloc<CEffect_Rain::Item> >::allocate
PUBLIC	?allocate@?$_STLP_alloc_proxy@PAUItem@CEffect_Rain@@U12@V?$xalloc@UItem@CEffect_Rain@@@@@priv@stlp_std@@QAEPAUItem@CEffect_Rain@@IAAI@Z ; stlp_std::priv::_STLP_alloc_proxy<CEffect_Rain::Item *,CEffect_Rain::Item,xalloc<CEffect_Rain::Item> >::allocate
PUBLIC	??0?$_Vector_base@UItem@CEffect_Rain@@V?$xalloc@UItem@CEffect_Rain@@@@@priv@stlp_std@@QAE@IABV?$xalloc@UItem@CEffect_Rain@@@@@Z ; stlp_std::priv::_Vector_base<CEffect_Rain::Item,xalloc<CEffect_Rain::Item> >::_Vector_base<CEffect_Rain::Item,xalloc<CEffect_Rain::Item> >
PUBLIC	??0?$xalloc@UItem@CEffect_Rain@@@@QAE@ABV0@@Z	; xalloc<CEffect_Rain::Item>::xalloc<CEffect_Rain::Item>
PUBLIC	?get_allocator@?$_Impl_vector@UItem@CEffect_Rain@@V?$xalloc@UItem@CEffect_Rain@@@@@priv@stlp_std@@QBE?AV?$xalloc@UItem@CEffect_Rain@@@@XZ ; stlp_std::priv::_Impl_vector<CEffect_Rain::Item,xalloc<CEffect_Rain::Item> >::get_allocator
PUBLIC	?begin@?$_Impl_vector@UItem@CEffect_Rain@@V?$xalloc@UItem@CEffect_Rain@@@@@priv@stlp_std@@QBEPBUItem@CEffect_Rain@@XZ ; stlp_std::priv::_Impl_vector<CEffect_Rain::Item,xalloc<CEffect_Rain::Item> >::begin
PUBLIC	?end@?$_Impl_vector@UItem@CEffect_Rain@@V?$xalloc@UItem@CEffect_Rain@@@@@priv@stlp_std@@QBEPBUItem@CEffect_Rain@@XZ ; stlp_std::priv::_Impl_vector<CEffect_Rain::Item,xalloc<CEffect_Rain::Item> >::end
PUBLIC	?size@?$_Impl_vector@UItem@CEffect_Rain@@V?$xalloc@UItem@CEffect_Rain@@@@@priv@stlp_std@@QBEIXZ ; stlp_std::priv::_Impl_vector<CEffect_Rain::Item,xalloc<CEffect_Rain::Item> >::size
PUBLIC	??$__ucopy_ptrs@PBUItem@CEffect_Rain@@PAU12@@priv@stlp_std@@YAPAUItem@CEffect_Rain@@PBU23@0PAU23@ABU__true_type@1@@Z ; stlp_std::priv::__ucopy_ptrs<CEffect_Rain::Item const *,CEffect_Rain::Item *>
PUBLIC	??0?$_Impl_vector@UItem@CEffect_Rain@@V?$xalloc@UItem@CEffect_Rain@@@@@priv@stlp_std@@QAE@ABV012@@Z ; stlp_std::priv::_Impl_vector<CEffect_Rain::Item,xalloc<CEffect_Rain::Item> >::_Impl_vector<CEffect_Rain::Item,xalloc<CEffect_Rain::Item> >
PUBLIC	??0?$vector@UItem@CEffect_Rain@@V?$xalloc@UItem@CEffect_Rain@@@@@stlp_std@@QAE@ABV01@@Z ; stlp_std::vector<CEffect_Rain::Item,xalloc<CEffect_Rain::Item> >::vector<CEffect_Rain::Item,xalloc<CEffect_Rain::Item> >
PUBLIC	??$xr_free@UItem@CEffect_Rain@@@@YAXAAPAUItem@CEffect_Rain@@@Z ; xr_free<CEffect_Rain::Item>
PUBLIC	?deallocate@?$xalloc@UItem@CEffect_Rain@@@@QBEXPAUItem@CEffect_Rain@@I@Z ; xalloc<CEffect_Rain::Item>::deallocate
PUBLIC	??1?$_Vector_base@UItem@CEffect_Rain@@V?$xalloc@UItem@CEffect_Rain@@@@@priv@stlp_std@@QAE@XZ ; stlp_std::priv::_Vector_base<CEffect_Rain::Item,xalloc<CEffect_Rain::Item> >::~_Vector_base<CEffect_Rain::Item,xalloc<CEffect_Rain::Item> >
PUBLIC	?end@?$_Impl_vector@UItem@CEffect_Rain@@V?$xalloc@UItem@CEffect_Rain@@@@@priv@stlp_std@@QAEPAUItem@CEffect_Rain@@XZ ; stlp_std::priv::_Impl_vector<CEffect_Rain::Item,xalloc<CEffect_Rain::Item> >::end
PUBLIC	?rbegin@?$_Impl_vector@UItem@CEffect_Rain@@V?$xalloc@UItem@CEffect_Rain@@@@@priv@stlp_std@@QAE?AV?$reverse_iterator@PAUItem@CEffect_Rain@@@3@XZ ; stlp_std::priv::_Impl_vector<CEffect_Rain::Item,xalloc<CEffect_Rain::Item> >::rbegin
PUBLIC	?begin@?$_Impl_vector@UItem@CEffect_Rain@@V?$xalloc@UItem@CEffect_Rain@@@@@priv@stlp_std@@QAEPAUItem@CEffect_Rain@@XZ ; stlp_std::priv::_Impl_vector<CEffect_Rain::Item,xalloc<CEffect_Rain::Item> >::begin
PUBLIC	??0?$reverse_iterator@PAUItem@CEffect_Rain@@@stlp_std@@QAE@PAUItem@CEffect_Rain@@@Z ; stlp_std::reverse_iterator<CEffect_Rain::Item *>::reverse_iterator<CEffect_Rain::Item *>
PUBLIC	?rend@?$_Impl_vector@UItem@CEffect_Rain@@V?$xalloc@UItem@CEffect_Rain@@@@@priv@stlp_std@@QAE?AV?$reverse_iterator@PAUItem@CEffect_Rain@@@3@XZ ; stlp_std::priv::_Impl_vector<CEffect_Rain::Item,xalloc<CEffect_Rain::Item> >::rend
PUBLIC	??0?$reverse_iterator@PAUItem@CEffect_Rain@@@stlp_std@@QAE@ABV01@@Z ; stlp_std::reverse_iterator<CEffect_Rain::Item *>::reverse_iterator<CEffect_Rain::Item *>
PUBLIC	??$__destroy_range_aux@V?$reverse_iterator@PAUItem@CEffect_Rain@@@stlp_std@@UItem@CEffect_Rain@@@stlp_std@@YAXV?$reverse_iterator@PAUItem@CEffect_Rain@@@0@0PAUItem@CEffect_Rain@@ABU__true_type@0@@Z ; stlp_std::__destroy_range_aux<stlp_std::reverse_iterator<CEffect_Rain::Item *>,CEffect_Rain::Item>
PUBLIC	??$__destroy_range@V?$reverse_iterator@PAUItem@CEffect_Rain@@@stlp_std@@UItem@CEffect_Rain@@@stlp_std@@YAXV?$reverse_iterator@PAUItem@CEffect_Rain@@@0@0PAUItem@CEffect_Rain@@@Z ; stlp_std::__destroy_range<stlp_std::reverse_iterator<CEffect_Rain::Item *>,CEffect_Rain::Item>
PUBLIC	??$_Destroy_Range@V?$reverse_iterator@PAUItem@CEffect_Rain@@@stlp_std@@@stlp_std@@YAXV?$reverse_iterator@PAUItem@CEffect_Rain@@@0@0@Z ; stlp_std::_Destroy_Range<stlp_std::reverse_iterator<CEffect_Rain::Item *> >
PUBLIC	??1?$_Impl_vector@UItem@CEffect_Rain@@V?$xalloc@UItem@CEffect_Rain@@@@@priv@stlp_std@@QAE@XZ ; stlp_std::priv::_Impl_vector<CEffect_Rain::Item,xalloc<CEffect_Rain::Item> >::~_Impl_vector<CEffect_Rain::Item,xalloc<CEffect_Rain::Item> >
PUBLIC	??1?$vector@UItem@CEffect_Rain@@V?$xalloc@UItem@CEffect_Rain@@@@@stlp_std@@QAE@XZ ; stlp_std::vector<CEffect_Rain::Item,xalloc<CEffect_Rain::Item> >::~vector<CEffect_Rain::Item,xalloc<CEffect_Rain::Item> >
PUBLIC	??0?$xr_vector@UItem@CEffect_Rain@@V?$xalloc@UItem@CEffect_Rain@@@@@@QAE@ABV0@@Z ; xr_vector<CEffect_Rain::Item,xalloc<CEffect_Rain::Item> >::xr_vector<CEffect_Rain::Item,xalloc<CEffect_Rain::Item> >
PUBLIC	??1?$xr_vector@UParticle@CEffect_Rain@@V?$xalloc@UParticle@CEffect_Rain@@@@@@QAE@XZ ; xr_vector<CEffect_Rain::Particle,xalloc<CEffect_Rain::Particle> >::~xr_vector<CEffect_Rain::Particle,xalloc<CEffect_Rain::Particle> >
PUBLIC	??0?$_STLP_alloc_proxy@PAUParticle@CEffect_Rain@@U12@V?$xalloc@UParticle@CEffect_Rain@@@@@priv@stlp_std@@QAE@ABV?$xalloc@UParticle@CEffect_Rain@@@@PAUParticle@CEffect_Rain@@@Z ; stlp_std::priv::_STLP_alloc_proxy<CEffect_Rain::Particle *,CEffect_Rain::Particle,xalloc<CEffect_Rain::Particle> >::_STLP_alloc_proxy<CEffect_Rain::Particle *,CEffect_Rain::Particle,xalloc<CEffect_Rain::Particle> >
PUBLIC	??$xr_alloc@UParticle@CEffect_Rain@@@@YAPAUParticle@CEffect_Rain@@I@Z ; xr_alloc<CEffect_Rain::Particle>
PUBLIC	?allocate@?$xalloc@UParticle@CEffect_Rain@@@@QBEPAUParticle@CEffect_Rain@@IPBX@Z ; xalloc<CEffect_Rain::Particle>::allocate
PUBLIC	?allocate@?$_STLP_alloc_proxy@PAUParticle@CEffect_Rain@@U12@V?$xalloc@UParticle@CEffect_Rain@@@@@priv@stlp_std@@QAEPAUParticle@CEffect_Rain@@I@Z ; stlp_std::priv::_STLP_alloc_proxy<CEffect_Rain::Particle *,CEffect_Rain::Particle,xalloc<CEffect_Rain::Particle> >::allocate
PUBLIC	?allocate@?$_STLP_alloc_proxy@PAUParticle@CEffect_Rain@@U12@V?$xalloc@UParticle@CEffect_Rain@@@@@priv@stlp_std@@AAEPAUParticle@CEffect_Rain@@IAAIABU__false_type@3@@Z ; stlp_std::priv::_STLP_alloc_proxy<CEffect_Rain::Particle *,CEffect_Rain::Particle,xalloc<CEffect_Rain::Particle> >::allocate
PUBLIC	?allocate@?$_STLP_alloc_proxy@PAUParticle@CEffect_Rain@@U12@V?$xalloc@UParticle@CEffect_Rain@@@@@priv@stlp_std@@QAEPAUParticle@CEffect_Rain@@IAAI@Z ; stlp_std::priv::_STLP_alloc_proxy<CEffect_Rain::Particle *,CEffect_Rain::Particle,xalloc<CEffect_Rain::Particle> >::allocate
PUBLIC	??0?$_Vector_base@UParticle@CEffect_Rain@@V?$xalloc@UParticle@CEffect_Rain@@@@@priv@stlp_std@@QAE@IABV?$xalloc@UParticle@CEffect_Rain@@@@@Z ; stlp_std::priv::_Vector_base<CEffect_Rain::Particle,xalloc<CEffect_Rain::Particle> >::_Vector_base<CEffect_Rain::Particle,xalloc<CEffect_Rain::Particle> >
PUBLIC	??0?$xalloc@UParticle@CEffect_Rain@@@@QAE@ABV0@@Z ; xalloc<CEffect_Rain::Particle>::xalloc<CEffect_Rain::Particle>
PUBLIC	?get_allocator@?$_Impl_vector@UParticle@CEffect_Rain@@V?$xalloc@UParticle@CEffect_Rain@@@@@priv@stlp_std@@QBE?AV?$xalloc@UParticle@CEffect_Rain@@@@XZ ; stlp_std::priv::_Impl_vector<CEffect_Rain::Particle,xalloc<CEffect_Rain::Particle> >::get_allocator
PUBLIC	?begin@?$_Impl_vector@UParticle@CEffect_Rain@@V?$xalloc@UParticle@CEffect_Rain@@@@@priv@stlp_std@@QBEPBUParticle@CEffect_Rain@@XZ ; stlp_std::priv::_Impl_vector<CEffect_Rain::Particle,xalloc<CEffect_Rain::Particle> >::begin
PUBLIC	?end@?$_Impl_vector@UParticle@CEffect_Rain@@V?$xalloc@UParticle@CEffect_Rain@@@@@priv@stlp_std@@QBEPBUParticle@CEffect_Rain@@XZ ; stlp_std::priv::_Impl_vector<CEffect_Rain::Particle,xalloc<CEffect_Rain::Particle> >::end
PUBLIC	?size@?$_Impl_vector@UParticle@CEffect_Rain@@V?$xalloc@UParticle@CEffect_Rain@@@@@priv@stlp_std@@QBEIXZ ; stlp_std::priv::_Impl_vector<CEffect_Rain::Particle,xalloc<CEffect_Rain::Particle> >::size
PUBLIC	??$__ucopy_ptrs@PBUParticle@CEffect_Rain@@PAU12@@priv@stlp_std@@YAPAUParticle@CEffect_Rain@@PBU23@0PAU23@ABU__true_type@1@@Z ; stlp_std::priv::__ucopy_ptrs<CEffect_Rain::Particle const *,CEffect_Rain::Particle *>
PUBLIC	??0?$_Impl_vector@UParticle@CEffect_Rain@@V?$xalloc@UParticle@CEffect_Rain@@@@@priv@stlp_std@@QAE@ABV012@@Z ; stlp_std::priv::_Impl_vector<CEffect_Rain::Particle,xalloc<CEffect_Rain::Particle> >::_Impl_vector<CEffect_Rain::Particle,xalloc<CEffect_Rain::Particle> >
PUBLIC	??0?$vector@UParticle@CEffect_Rain@@V?$xalloc@UParticle@CEffect_Rain@@@@@stlp_std@@QAE@ABV01@@Z ; stlp_std::vector<CEffect_Rain::Particle,xalloc<CEffect_Rain::Particle> >::vector<CEffect_Rain::Particle,xalloc<CEffect_Rain::Particle> >
PUBLIC	??$xr_free@UParticle@CEffect_Rain@@@@YAXAAPAUParticle@CEffect_Rain@@@Z ; xr_free<CEffect_Rain::Particle>
PUBLIC	?deallocate@?$xalloc@UParticle@CEffect_Rain@@@@QBEXPAUParticle@CEffect_Rain@@I@Z ; xalloc<CEffect_Rain::Particle>::deallocate
PUBLIC	??1?$_Vector_base@UParticle@CEffect_Rain@@V?$xalloc@UParticle@CEffect_Rain@@@@@priv@stlp_std@@QAE@XZ ; stlp_std::priv::_Vector_base<CEffect_Rain::Particle,xalloc<CEffect_Rain::Particle> >::~_Vector_base<CEffect_Rain::Particle,xalloc<CEffect_Rain::Particle> >
PUBLIC	?end@?$_Impl_vector@UParticle@CEffect_Rain@@V?$xalloc@UParticle@CEffect_Rain@@@@@priv@stlp_std@@QAEPAUParticle@CEffect_Rain@@XZ ; stlp_std::priv::_Impl_vector<CEffect_Rain::Particle,xalloc<CEffect_Rain::Particle> >::end
PUBLIC	?rbegin@?$_Impl_vector@UParticle@CEffect_Rain@@V?$xalloc@UParticle@CEffect_Rain@@@@@priv@stlp_std@@QAE?AV?$reverse_iterator@PAUParticle@CEffect_Rain@@@3@XZ ; stlp_std::priv::_Impl_vector<CEffect_Rain::Particle,xalloc<CEffect_Rain::Particle> >::rbegin
PUBLIC	?begin@?$_Impl_vector@UParticle@CEffect_Rain@@V?$xalloc@UParticle@CEffect_Rain@@@@@priv@stlp_std@@QAEPAUParticle@CEffect_Rain@@XZ ; stlp_std::priv::_Impl_vector<CEffect_Rain::Particle,xalloc<CEffect_Rain::Particle> >::begin
PUBLIC	??0?$reverse_iterator@PAUParticle@CEffect_Rain@@@stlp_std@@QAE@PAUParticle@CEffect_Rain@@@Z ; stlp_std::reverse_iterator<CEffect_Rain::Particle *>::reverse_iterator<CEffect_Rain::Particle *>
PUBLIC	?rend@?$_Impl_vector@UParticle@CEffect_Rain@@V?$xalloc@UParticle@CEffect_Rain@@@@@priv@stlp_std@@QAE?AV?$reverse_iterator@PAUParticle@CEffect_Rain@@@3@XZ ; stlp_std::priv::_Impl_vector<CEffect_Rain::Particle,xalloc<CEffect_Rain::Particle> >::rend
PUBLIC	??0?$reverse_iterator@PAUParticle@CEffect_Rain@@@stlp_std@@QAE@ABV01@@Z ; stlp_std::reverse_iterator<CEffect_Rain::Particle *>::reverse_iterator<CEffect_Rain::Particle *>
PUBLIC	??$__destroy_range_aux@V?$reverse_iterator@PAUParticle@CEffect_Rain@@@stlp_std@@UParticle@CEffect_Rain@@@stlp_std@@YAXV?$reverse_iterator@PAUParticle@CEffect_Rain@@@0@0PAUParticle@CEffect_Rain@@ABU__true_type@0@@Z ; stlp_std::__destroy_range_aux<stlp_std::reverse_iterator<CEffect_Rain::Particle *>,CEffect_Rain::Particle>
PUBLIC	??$__destroy_range@V?$reverse_iterator@PAUParticle@CEffect_Rain@@@stlp_std@@UParticle@CEffect_Rain@@@stlp_std@@YAXV?$reverse_iterator@PAUParticle@CEffect_Rain@@@0@0PAUParticle@CEffect_Rain@@@Z ; stlp_std::__destroy_range<stlp_std::reverse_iterator<CEffect_Rain::Particle *>,CEffect_Rain::Particle>
PUBLIC	??$_Destroy_Range@V?$reverse_iterator@PAUParticle@CEffect_Rain@@@stlp_std@@@stlp_std@@YAXV?$reverse_iterator@PAUParticle@CEffect_Rain@@@0@0@Z ; stlp_std::_Destroy_Range<stlp_std::reverse_iterator<CEffect_Rain::Particle *> >
PUBLIC	??1?$_Impl_vector@UParticle@CEffect_Rain@@V?$xalloc@UParticle@CEffect_Rain@@@@@priv@stlp_std@@QAE@XZ ; stlp_std::priv::_Impl_vector<CEffect_Rain::Particle,xalloc<CEffect_Rain::Particle> >::~_Impl_vector<CEffect_Rain::Particle,xalloc<CEffect_Rain::Particle> >
PUBLIC	??1?$vector@UParticle@CEffect_Rain@@V?$xalloc@UParticle@CEffect_Rain@@@@@stlp_std@@QAE@XZ ; stlp_std::vector<CEffect_Rain::Particle,xalloc<CEffect_Rain::Particle> >::~vector<CEffect_Rain::Particle,xalloc<CEffect_Rain::Particle> >
PUBLIC	??0?$xr_vector@UParticle@CEffect_Rain@@V?$xalloc@UParticle@CEffect_Rain@@@@@@QAE@ABV0@@Z ; xr_vector<CEffect_Rain::Particle,xalloc<CEffect_Rain::Particle> >::xr_vector<CEffect_Rain::Particle,xalloc<CEffect_Rain::Particle> >
PUBLIC	??$xr_new@VCEnvDescriptorMixer@@$$BY08$$CBD@@YAPAVCEnvDescriptorMixer@@AAY08$$CBD@Z ; xr_new<CEnvDescriptorMixer,char const [9]>
PUBLIC	?psVisDistance@@3MA				; psVisDistance
PUBLIC	??_C@_0BJ@CIIOKKHI@environment?2ambients?4ltx?$AA@ ; `string'
PUBLIC	??_C@_0BP@JAFAGAPJ@environment?2sound_channels?4ltx?$AA@ ; `string'
PUBLIC	??_C@_0BI@EKOOCMNE@environment?2effects?4ltx?$AA@ ; `string'
PUBLIC	??_C@_0BF@PAEMFBAE@environment?2suns?4ltx?$AA@	; `string'
PUBLIC	??_C@_0CI@BHHNIBLF@environment?2thunderbolt_collecti@ ; `string'
PUBLIC	??_C@_0BN@FNDFIPLN@environment?2thunderbolts?4ltx?$AA@ ; `string'
PUBLIC	??_C@_0BM@MCANILEM@environment?2environment?4ltx?$AA@ ; `string'
PUBLIC	??_C@_08OFJBILFH@altitude?$AA@			; `string'
PUBLIC	??_C@_0M@PINLHHEI@environment?$AA@		; `string'
PUBLIC	??_C@_0BA@OADEFBBF@delta_longitude?$AA@		; `string'
PUBLIC	??_C@_0BA@NMGKLOI@min_dist_factor?$AA@		; `string'
PUBLIC	??_C@_04HJDPHINC@tilt?$AA@			; `string'
PUBLIC	??_C@_0BD@LEHNJEAM@second_propability?$AA@	; `string'
PUBLIC	??_C@_09DMPOHDE@sky_color?$AA@			; `string'
PUBLIC	??_C@_09BBLDEGOF@sun_color?$AA@			; `string'
PUBLIC	??_C@_09PGJFNPIN@fog_color?$AA@			; `string'
PUBLIC	??_C@_0BL@JLFBJDAD@?$CB?5Invalid?5weather?5name?3?5?$CFs?$AA@ ; `string'
PUBLIC	??_C@_0BJ@NEEPJKH@CEnvironment?3?3SetWeather?$AA@ ; `string'
PUBLIC	??_C@_0DE@KEBEOAOH@D?3?2CLEARSKY?2sources?2engine?2xrEng@ ; `string'
PUBLIC	??_C@_0BG@HGMLELDB@Invalid?5weather?5name?4?$AA@ ; `string'
PUBLIC	??_C@_0BI@NMGDFLEF@it?$CB?$DNWeatherCycles?4end?$CI?$CJ?$AA@ ; `string'
PUBLIC	??_C@_0BF@POCGPELE@?$CB?5Empty?5weather?5name?$AA@ ; `string'
PUBLIC	??_C@_0BL@CDFCELPM@CEnvironment?3?3SetWeatherFX?$AA@ ; `string'
PUBLIC	??_C@_0BN@NJOLPOOD@Invalid?5weather?5effect?5name?4?$AA@ ; `string'
PUBLIC	??_C@_0BF@KLDNMBFN@it?$CB?$DNWeatherFXs?4end?$CI?$CJ?$AA@ ; `string'
PUBLIC	??_C@_0BM@GOLKAJHL@?$CB?5Empty?5weather?5effect?5name?$AA@ ; `string'
PUBLIC	??_C@_0CI@PFKCKBCO@CEnvironment?3?3calculate_dynamic_@ ; `string'
PUBLIC	??_C@_0L@DCAKJJFH@_valid?$CIAZ?$CJ?$AA@		; `string'
PUBLIC	??_C@_0M@OFOFEIJG@_valid?$CISEA?$CJ?$AA@	; `string'
PUBLIC	??_C@_0BM@HLLHPBBI@_valid?$CICurrentEnv?9?$DOsun_dir?$CJ?$AA@ ; `string'
PUBLIC	??_C@_08HPPJPGGP@00?300?300?$AA@		; `string'
PUBLIC	??_7CLensFlare@@6B@				; CLensFlare::`vftable'
EXTRN	__imp_?Destroy@CInifile@@SAXPAV1@@Z:PROC
EXTRN	__imp_?fail@xrDebug@@QAEXPBD000H0AA_N@Z:PROC
EXTRN	__imp___fpclass:PROC
;	COMDAT ?ignore_always@?9??SetWeather@CEnvironment@@QAEXVshared_str@@_N@Z@4_NA
_BSS	SEGMENT
?ignore_always@?9??SetWeather@CEnvironment@@QAEXVshared_str@@_N@Z@4_NA DB 01H DUP (?) ; `CEnvironment::SetWeather'::`10'::ignore_always
_BSS	ENDS
;	COMDAT ?ignore_always@?8??SetWeatherFX@CEnvironment@@QAE_NVshared_str@@@Z@4_NA
_BSS	SEGMENT
?ignore_always@?8??SetWeatherFX@CEnvironment@@QAE_NVshared_str@@@Z@4_NA DB 01H DUP (?) ; `CEnvironment::SetWeatherFX'::`9'::ignore_always
_BSS	ENDS
;	COMDAT ?ignore_always@?O@??calculate_dynamic_sun_dir@CEnvironment@@AAEXXZ@4_NA
_BSS	SEGMENT
?ignore_always@?O@??calculate_dynamic_sun_dir@CEnvironment@@AAEXXZ@4_NA DB 01H DUP (?) ; `CEnvironment::calculate_dynamic_sun_dir'::`14'::ignore_always
_BSS	ENDS
;	COMDAT ?ignore_always@?BC@??calculate_dynamic_sun_dir@CEnvironment@@AAEXXZ@4_NA
_BSS	SEGMENT
?ignore_always@?BC@??calculate_dynamic_sun_dir@CEnvironment@@AAEXXZ@4_NA DB 01H DUP (?) ; `CEnvironment::calculate_dynamic_sun_dir'::`18'::ignore_always
_BSS	ENDS
;	COMDAT ?ignore_always@?BG@??calculate_dynamic_sun_dir@CEnvironment@@AAEXXZ@4_NA
_BSS	SEGMENT
?ignore_always@?BG@??calculate_dynamic_sun_dir@CEnvironment@@AAEXXZ@4_NA DB 01H DUP (?) ; `CEnvironment::calculate_dynamic_sun_dir'::`22'::ignore_always
;	COMDAT ??_7CLensFlare@@6B@
CONST	SEGMENT
??_7CLensFlare@@6B@ DD FLAT:??_R4CLensFlare@@6B@	; CLensFlare::`vftable'
	DD	FLAT:??_ECLensFlare@@UAEPAXI@Z
CONST	ENDS
;	COMDAT ??_R4CLensFlare@@6B@
rdata$r	SEGMENT
??_R4CLensFlare@@6B@ DD 00H				; CLensFlare::`RTTI Complete Object Locator'
	DD	00H
	DD	00H
	DD	FLAT:??_R0?AVCLensFlare@@@8
	DD	FLAT:??_R3CLensFlare@@8
rdata$r	ENDS
;	COMDAT ??_R3CLensFlare@@8
rdata$r	SEGMENT
??_R3CLensFlare@@8 DD 00H				; CLensFlare::`RTTI Class Hierarchy Descriptor'
	DD	00H
	DD	01H
	DD	FLAT:??_R2CLensFlare@@8
rdata$r	ENDS
;	COMDAT ??_R2CLensFlare@@8
rdata$r	SEGMENT
??_R2CLensFlare@@8 DD FLAT:??_R1A@?0A@EA@CLensFlare@@8	; CLensFlare::`RTTI Base Class Array'
rdata$r	ENDS
;	COMDAT ??_R1A@?0A@EA@CLensFlare@@8
rdata$r	SEGMENT
??_R1A@?0A@EA@CLensFlare@@8 DD FLAT:??_R0?AVCLensFlare@@@8 ; CLensFlare::`RTTI Base Class Descriptor at (0,-1,0,64)'
	DD	00H
	DD	00H
	DD	0ffffffffH
	DD	00H
	DD	040H
	DD	FLAT:??_R3CLensFlare@@8
rdata$r	ENDS
;	COMDAT ??_R0?AVCLensFlare@@@8
_DATA	SEGMENT
??_R0?AVCLensFlare@@@8 DD FLAT:??_7type_info@@6B@	; CLensFlare `RTTI Type Descriptor'
	DD	00H
	DB	'.?AVCLensFlare@@', 00H
_DATA	ENDS
;	COMDAT ??_C@_08HPPJPGGP@00?300?300?$AA@
CONST	SEGMENT
??_C@_08HPPJPGGP@00?300?300?$AA@ DB '00:00:00', 00H	; `string'
CONST	ENDS
;	COMDAT ??_C@_0BM@HLLHPBBI@_valid?$CICurrentEnv?9?$DOsun_dir?$CJ?$AA@
CONST	SEGMENT
??_C@_0BM@HLLHPBBI@_valid?$CICurrentEnv?9?$DOsun_dir?$CJ?$AA@ DB '_valid('
	DB	'CurrentEnv->sun_dir)', 00H			; `string'
CONST	ENDS
;	COMDAT ??_C@_0M@OFOFEIJG@_valid?$CISEA?$CJ?$AA@
CONST	SEGMENT
??_C@_0M@OFOFEIJG@_valid?$CISEA?$CJ?$AA@ DB '_valid(SEA)', 00H ; `string'
CONST	ENDS
;	COMDAT ??_C@_0L@DCAKJJFH@_valid?$CIAZ?$CJ?$AA@
CONST	SEGMENT
??_C@_0L@DCAKJJFH@_valid?$CIAZ?$CJ?$AA@ DB '_valid(AZ)', 00H ; `string'
CONST	ENDS
;	COMDAT ??_C@_0CI@PFKCKBCO@CEnvironment?3?3calculate_dynamic_@
CONST	SEGMENT
??_C@_0CI@PFKCKBCO@CEnvironment?3?3calculate_dynamic_@ DB 'CEnvironment::'
	DB	'calculate_dynamic_sun_dir', 00H		; `string'
CONST	ENDS
;	COMDAT ??_C@_0BM@GOLKAJHL@?$CB?5Empty?5weather?5effect?5name?$AA@
CONST	SEGMENT
??_C@_0BM@GOLKAJHL@?$CB?5Empty?5weather?5effect?5name?$AA@ DB '! Empty we'
	DB	'ather effect name', 00H			; `string'
CONST	ENDS
;	COMDAT ??_C@_0BF@KLDNMBFN@it?$CB?$DNWeatherFXs?4end?$CI?$CJ?$AA@
CONST	SEGMENT
??_C@_0BF@KLDNMBFN@it?$CB?$DNWeatherFXs?4end?$CI?$CJ?$AA@ DB 'it!=Weather'
	DB	'FXs.end()', 00H				; `string'
CONST	ENDS
;	COMDAT ??_C@_0BN@NJOLPOOD@Invalid?5weather?5effect?5name?4?$AA@
CONST	SEGMENT
??_C@_0BN@NJOLPOOD@Invalid?5weather?5effect?5name?4?$AA@ DB 'Invalid weat'
	DB	'her effect name.', 00H			; `string'
CONST	ENDS
;	COMDAT ??_C@_0BL@CDFCELPM@CEnvironment?3?3SetWeatherFX?$AA@
CONST	SEGMENT
??_C@_0BL@CDFCELPM@CEnvironment?3?3SetWeatherFX?$AA@ DB 'CEnvironment::Se'
	DB	'tWeatherFX', 00H				; `string'
CONST	ENDS
;	COMDAT ??_C@_0BF@POCGPELE@?$CB?5Empty?5weather?5name?$AA@
CONST	SEGMENT
??_C@_0BF@POCGPELE@?$CB?5Empty?5weather?5name?$AA@ DB '! Empty weather na'
	DB	'me', 00H					; `string'
CONST	ENDS
;	COMDAT ??_C@_0BI@NMGDFLEF@it?$CB?$DNWeatherCycles?4end?$CI?$CJ?$AA@
CONST	SEGMENT
??_C@_0BI@NMGDFLEF@it?$CB?$DNWeatherCycles?4end?$CI?$CJ?$AA@ DB 'it!=Weat'
	DB	'herCycles.end()', 00H			; `string'
CONST	ENDS
;	COMDAT ??_C@_0BG@HGMLELDB@Invalid?5weather?5name?4?$AA@
CONST	SEGMENT
??_C@_0BG@HGMLELDB@Invalid?5weather?5name?4?$AA@ DB 'Invalid weather name'
	DB	'.', 00H					; `string'
CONST	ENDS
;	COMDAT ??_C@_0DE@KEBEOAOH@D?3?2CLEARSKY?2sources?2engine?2xrEng@
CONST	SEGMENT
??_C@_0DE@KEBEOAOH@D?3?2CLEARSKY?2sources?2engine?2xrEng@ DB 'D:\CLEARSKY'
	DB	'\sources\engine\xrEngine\Environment.cpp', 00H ; `string'
CONST	ENDS
;	COMDAT ??_C@_0BJ@NEEPJKH@CEnvironment?3?3SetWeather?$AA@
CONST	SEGMENT
??_C@_0BJ@NEEPJKH@CEnvironment?3?3SetWeather?$AA@ DB 'CEnvironment::SetWe'
	DB	'ather', 00H					; `string'
CONST	ENDS
;	COMDAT ??_C@_0BL@JLFBJDAD@?$CB?5Invalid?5weather?5name?3?5?$CFs?$AA@
CONST	SEGMENT
??_C@_0BL@JLFBJDAD@?$CB?5Invalid?5weather?5name?3?5?$CFs?$AA@ DB '! Inval'
	DB	'id weather name: %s', 00H			; `string'
CONST	ENDS
;	COMDAT ??_C@_09PGJFNPIN@fog_color?$AA@
CONST	SEGMENT
??_C@_09PGJFNPIN@fog_color?$AA@ DB 'fog_color', 00H	; `string'
CONST	ENDS
;	COMDAT ??_C@_09BBLDEGOF@sun_color?$AA@
CONST	SEGMENT
??_C@_09BBLDEGOF@sun_color?$AA@ DB 'sun_color', 00H	; `string'
CONST	ENDS
;	COMDAT ??_C@_09DMPOHDE@sky_color?$AA@
CONST	SEGMENT
??_C@_09DMPOHDE@sky_color?$AA@ DB 'sky_color', 00H	; `string'
CONST	ENDS
;	COMDAT ??_C@_0BD@LEHNJEAM@second_propability?$AA@
CONST	SEGMENT
??_C@_0BD@LEHNJEAM@second_propability?$AA@ DB 'second_propability', 00H ; `string'
CONST	ENDS
;	COMDAT ??_C@_04HJDPHINC@tilt?$AA@
CONST	SEGMENT
??_C@_04HJDPHINC@tilt?$AA@ DB 'tilt', 00H		; `string'
CONST	ENDS
;	COMDAT ??_C@_0BA@NMGKLOI@min_dist_factor?$AA@
CONST	SEGMENT
??_C@_0BA@NMGKLOI@min_dist_factor?$AA@ DB 'min_dist_factor', 00H ; `string'
CONST	ENDS
;	COMDAT ??_C@_0BA@OADEFBBF@delta_longitude?$AA@
CONST	SEGMENT
??_C@_0BA@OADEFBBF@delta_longitude?$AA@ DB 'delta_longitude', 00H ; `string'
CONST	ENDS
;	COMDAT ??_C@_0M@PINLHHEI@environment?$AA@
CONST	SEGMENT
??_C@_0M@PINLHHEI@environment?$AA@ DB 'environment', 00H ; `string'
CONST	ENDS
;	COMDAT ??_C@_08OFJBILFH@altitude?$AA@
CONST	SEGMENT
??_C@_08OFJBILFH@altitude?$AA@ DB 'altitude', 00H	; `string'
CONST	ENDS
;	COMDAT ??_C@_0BM@MCANILEM@environment?2environment?4ltx?$AA@
CONST	SEGMENT
??_C@_0BM@MCANILEM@environment?2environment?4ltx?$AA@ DB 'environment\env'
	DB	'ironment.ltx', 00H				; `string'
CONST	ENDS
;	COMDAT ??_C@_0BN@FNDFIPLN@environment?2thunderbolts?4ltx?$AA@
CONST	SEGMENT
??_C@_0BN@FNDFIPLN@environment?2thunderbolts?4ltx?$AA@ DB 'environment\th'
	DB	'underbolts.ltx', 00H			; `string'
CONST	ENDS
;	COMDAT ??_C@_0CI@BHHNIBLF@environment?2thunderbolt_collecti@
CONST	SEGMENT
??_C@_0CI@BHHNIBLF@environment?2thunderbolt_collecti@ DB 'environment\thu'
	DB	'nderbolt_collections.ltx', 00H		; `string'
CONST	ENDS
;	COMDAT ??_C@_0BF@PAEMFBAE@environment?2suns?4ltx?$AA@
CONST	SEGMENT
??_C@_0BF@PAEMFBAE@environment?2suns?4ltx?$AA@ DB 'environment\suns.ltx', 00H ; `string'
CONST	ENDS
;	COMDAT ??_C@_0BI@EKOOCMNE@environment?2effects?4ltx?$AA@
CONST	SEGMENT
??_C@_0BI@EKOOCMNE@environment?2effects?4ltx?$AA@ DB 'environment\effects'
	DB	'.ltx', 00H					; `string'
CONST	ENDS
;	COMDAT ??_C@_0BP@JAFAGAPJ@environment?2sound_channels?4ltx?$AA@
CONST	SEGMENT
??_C@_0BP@JAFAGAPJ@environment?2sound_channels?4ltx?$AA@ DB 'environment\'
	DB	'sound_channels.ltx', 00H			; `string'
CONST	ENDS
;	COMDAT ??_C@_0BJ@CIIOKKHI@environment?2ambients?4ltx?$AA@
CONST	SEGMENT
??_C@_0BJ@CIIOKKHI@environment?2ambients?4ltx?$AA@ DB 'environment\ambien'
	DB	'ts.ltx', 00H				; `string'
?psVisDistance@@3MA DD 03f800000r		; 1	; psVisDistance
_MAX_NOISE_FREQ DD 03cf5c28fr			; 0.03
_EPS_S	DD	033d6bf95r			; 1e-007
_EPS	DD	03727c5acr			; 1e-005
_M_PI	DD	040490fdbr			; 3.14159
_PI	DD	040490fdbr			; 3.14159
PUBLIC	__real@3c8efa35
;	COMDAT __real@3c8efa35
; File d:\clearsky\sources\engine\xrcore\vector.h
CONST	SEGMENT
__real@3c8efa35 DD 03c8efa35r			; 0.0174533
; Function compile flags: /Ogtpy
CONST	ENDS
;	COMDAT ??$deg2rad@M@implement@@YAMM@Z
_TEXT	SEGMENT
??$deg2rad@M@implement@@YAMM@Z PROC			; implement::deg2rad<float>, COMDAT
; _val$ = xmm0s

; 87   : 	template <class T>	ICF T	deg2rad		( T val )						{ return (val*T(M_PI)/T(180));	};

	mulss	xmm0, DWORD PTR __real@3c8efa35
	ret	0
??$deg2rad@M@implement@@YAMM@Z ENDP			; implement::deg2rad<float>
; Function compile flags: /Ogtpy
_TEXT	ENDS
;	COMDAT ?deg2rad@@YAMM@Z
_TEXT	SEGMENT
?deg2rad@@YAMM@Z PROC					; deg2rad, COMDAT
; _val$ = xmm0s

; 90   : ICF float	deg2rad 	(float val)											{return implement::deg2rad(val);}

	mulss	xmm0, DWORD PTR __real@3c8efa35
	ret	0
?deg2rad@@YAMM@Z ENDP					; deg2rad
; Function compile flags: /Ogtpy
; File d:\clearsky\sources\engine\xrcore\xrstring.h
_TEXT	ENDS
;	COMDAT ?size@shared_str@@QBEIXZ
_TEXT	SEGMENT
?size@shared_str@@QBEIXZ PROC				; shared_str::size, COMDAT
; _this$ = eax

; 86   : 	u32					size		()						const	{	if (0==p_) return 0; else return p_->dwLength;	}

	mov	eax, DWORD PTR [eax]
	test	eax, eax
	jne	SHORT $LN2@size@4
	ret	0
$LN2@size@4:
	mov	eax, DWORD PTR [eax+4]
	ret	0
?size@shared_str@@QBEIXZ ENDP				; shared_str::size
; Function compile flags: /Ogtpy
; File d:\clearsky\sources\engine\xrcore\vector.h
_TEXT	ENDS
;	COMDAT ??$clampr@M@@YAMABM00@Z
_TEXT	SEGMENT
??$clampr@M@@YAMABM00@Z PROC				; clampr<float>, COMDAT
; _val$ = eax
; __high$ = ecx

; 102  : 	if		( val<_low	)	return _low; 
; 103  : 	else if	( val>_high )	return _high;

	movss	xmm0, DWORD PTR [eax]
	movss	xmm1, DWORD PTR [ecx]
	comiss	xmm0, xmm1
	jbe	SHORT $LN8@clampr@2
	movaps	xmm0, xmm1
$LN8@clampr@2:

; 104  : 	else					return val;
; 105  : };

	ret	0
??$clampr@M@@YAMABM00@Z ENDP				; clampr<float>
_TEXT	ENDS
EXTRN	__CIacos:PROC
; Function compile flags: /Ogtpy
; File j:\msvs8\vc\include\math.h
;	COMDAT _acosf
_TEXT	SEGMENT
__X$ = 8						; size = 4
_acosf	PROC						; COMDAT

; 389  :         {return ((float)acos((double)_X)); }

	fld	DWORD PTR __X$[esp-4]
	jmp	__CIacos
_acosf	ENDP
; Function compile flags: /Ogtpy
; File d:\clearsky\sources\engine\xrcore\_std_extensions.h
_TEXT	ENDS
;	COMDAT ?_valid@@YAHM@Z
_TEXT	SEGMENT
_x$ = 8							; size = 4
?_valid@@YAHM@Z PROC					; _valid, COMDAT

; 105  : 	// check for: Signaling NaN, Quiet NaN, Negative infinity ( INF), Positive infinity (+INF), Negative denormalized, Positive denormalized
; 106  : 	int			cls			= _fpclass		(double(x));
; 107  : 	if (cls&(_FPCLASS_SNAN+_FPCLASS_QNAN+_FPCLASS_NINF+_FPCLASS_PINF+_FPCLASS_ND+_FPCLASS_PD))	

	fld	DWORD PTR _x$[esp-4]
	sub	esp, 8
	fstp	QWORD PTR [esp]
	call	DWORD PTR __imp___fpclass
	and	eax, 663				; 00000297H
	add	esp, 8
	neg	eax
	sbb	eax, eax
	add	eax, 1

; 108  : 		return	false;	
; 109  : 
; 110  : 	/*	*****other cases are*****
; 111  : 	_FPCLASS_NN Negative normalized non-zero 
; 112  : 	_FPCLASS_NZ Negative zero (  0) 
; 113  : 	_FPCLASS_PZ Positive 0 (+0) 
; 114  : 	_FPCLASS_PN Positive normalized non-zero 
; 115  : 	*/
; 116  : 	return		true;
; 117  : }

	ret	0
?_valid@@YAHM@Z ENDP					; _valid
; Function compile flags: /Ogtpy
; File d:\clearsky\sources\engine\include\xrrender\factoryptr.h
_TEXT	ENDS
;	COMDAT ?CreateObject@?$FactoryPtr@VIFlareRender@@@@AAEXXZ
_TEXT	SEGMENT
_this$ = 8						; size = 4
?CreateObject@?$FactoryPtr@VIFlareRender@@@@AAEXXZ PROC	; FactoryPtr<IFlareRender>::CreateObject, COMDAT

; 71   :     FACTORY_PTR_INSTANCIATE(FlareRender)

	mov	eax, DWORD PTR __imp_?RenderFactory@@3PAVIRenderFactory@@A
	mov	ecx, DWORD PTR [eax]
	mov	edx, DWORD PTR [ecx]
	mov	eax, DWORD PTR [edx+120]
	call	eax
	mov	ecx, DWORD PTR _this$[esp-4]
	mov	DWORD PTR [ecx], eax
	ret	4
?CreateObject@?$FactoryPtr@VIFlareRender@@@@AAEXXZ ENDP	; FactoryPtr<IFlareRender>::CreateObject
; Function compile flags: /Ogtpy
_TEXT	ENDS
;	COMDAT ?DestroyObject@?$FactoryPtr@VIFlareRender@@@@AAEXXZ
_TEXT	SEGMENT
?DestroyObject@?$FactoryPtr@VIFlareRender@@@@AAEXXZ PROC ; FactoryPtr<IFlareRender>::DestroyObject, COMDAT
; _this$ = esi

; 71   :     FACTORY_PTR_INSTANCIATE(FlareRender)

	mov	eax, DWORD PTR __imp_?RenderFactory@@3PAVIRenderFactory@@A
	mov	ecx, DWORD PTR [eax]
	mov	edx, DWORD PTR [ecx]
	mov	eax, DWORD PTR [esi]
	mov	edx, DWORD PTR [edx+124]
	push	eax
	call	edx
	mov	DWORD PTR [esi], 0
	ret	0
?DestroyObject@?$FactoryPtr@VIFlareRender@@@@AAEXXZ ENDP ; FactoryPtr<IFlareRender>::DestroyObject
; Function compile flags: /Ogtpy
_TEXT	ENDS
;	COMDAT ?DestroyObject@?$FactoryPtr@VIThunderboltRender@@@@AAEXXZ
_TEXT	SEGMENT
?DestroyObject@?$FactoryPtr@VIThunderboltRender@@@@AAEXXZ PROC ; FactoryPtr<IThunderboltRender>::DestroyObject, COMDAT
; _this$ = esi

; 72   :     FACTORY_PTR_INSTANCIATE(ThunderboltRender)

	mov	eax, DWORD PTR __imp_?RenderFactory@@3PAVIRenderFactory@@A
	mov	ecx, DWORD PTR [eax]
	mov	edx, DWORD PTR [ecx]
	mov	eax, DWORD PTR [esi]
	mov	edx, DWORD PTR [edx+108]
	push	eax
	call	edx
	mov	DWORD PTR [esi], 0
	ret	0
?DestroyObject@?$FactoryPtr@VIThunderboltRender@@@@AAEXXZ ENDP ; FactoryPtr<IThunderboltRender>::DestroyObject
; Function compile flags: /Ogtpy
_TEXT	ENDS
;	COMDAT ?CreateObject@?$FactoryPtr@VIThunderboltRender@@@@AAEXXZ
_TEXT	SEGMENT
_this$ = 8						; size = 4
?CreateObject@?$FactoryPtr@VIThunderboltRender@@@@AAEXXZ PROC ; FactoryPtr<IThunderboltRender>::CreateObject, COMDAT

; 72   :     FACTORY_PTR_INSTANCIATE(ThunderboltRender)

	mov	eax, DWORD PTR __imp_?RenderFactory@@3PAVIRenderFactory@@A
	mov	ecx, DWORD PTR [eax]
	mov	edx, DWORD PTR [ecx]
	mov	eax, DWORD PTR [edx+104]
	call	eax
	mov	ecx, DWORD PTR _this$[esp-4]
	mov	DWORD PTR [ecx], eax
	ret	4
?CreateObject@?$FactoryPtr@VIThunderboltRender@@@@AAEXXZ ENDP ; FactoryPtr<IThunderboltRender>::CreateObject
; Function compile flags: /Ogtpy
_TEXT	ENDS
;	COMDAT ?DestroyObject@?$FactoryPtr@VILensFlareRender@@@@AAEXXZ
_TEXT	SEGMENT
?DestroyObject@?$FactoryPtr@VILensFlareRender@@@@AAEXXZ PROC ; FactoryPtr<ILensFlareRender>::DestroyObject, COMDAT
; _this$ = esi

; 74   :     FACTORY_PTR_INSTANCIATE(LensFlareRender)

	mov	eax, DWORD PTR __imp_?RenderFactory@@3PAVIRenderFactory@@A
	mov	ecx, DWORD PTR [eax]
	mov	edx, DWORD PTR [ecx]
	mov	eax, DWORD PTR [esi]
	mov	edx, DWORD PTR [edx+100]
	push	eax
	call	edx
	mov	DWORD PTR [esi], 0
	ret	0
?DestroyObject@?$FactoryPtr@VILensFlareRender@@@@AAEXXZ ENDP ; FactoryPtr<ILensFlareRender>::DestroyObject
; Function compile flags: /Ogtpy
_TEXT	ENDS
;	COMDAT ?CreateObject@?$FactoryPtr@VILensFlareRender@@@@AAEXXZ
_TEXT	SEGMENT
_this$ = 8						; size = 4
?CreateObject@?$FactoryPtr@VILensFlareRender@@@@AAEXXZ PROC ; FactoryPtr<ILensFlareRender>::CreateObject, COMDAT

; 74   :     FACTORY_PTR_INSTANCIATE(LensFlareRender)

	mov	eax, DWORD PTR __imp_?RenderFactory@@3PAVIRenderFactory@@A
	mov	ecx, DWORD PTR [eax]
	mov	edx, DWORD PTR [ecx]
	mov	eax, DWORD PTR [edx+96]
	call	eax
	mov	ecx, DWORD PTR _this$[esp-4]
	mov	DWORD PTR [ecx], eax
	ret	4
?CreateObject@?$FactoryPtr@VILensFlareRender@@@@AAEXXZ ENDP ; FactoryPtr<ILensFlareRender>::CreateObject
; Function compile flags: /Ogtpy
_TEXT	ENDS
;	COMDAT ?DestroyObject@?$FactoryPtr@VIRainRender@@@@AAEXXZ
_TEXT	SEGMENT
?DestroyObject@?$FactoryPtr@VIRainRender@@@@AAEXXZ PROC	; FactoryPtr<IRainRender>::DestroyObject, COMDAT
; _this$ = esi

; 75   :     FACTORY_PTR_INSTANCIATE(RainRender)

	mov	eax, DWORD PTR __imp_?RenderFactory@@3PAVIRenderFactory@@A
	mov	ecx, DWORD PTR [eax]
	mov	edx, DWORD PTR [ecx]
	mov	eax, DWORD PTR [esi]
	mov	edx, DWORD PTR [edx+92]
	push	eax
	call	edx
	mov	DWORD PTR [esi], 0
	ret	0
?DestroyObject@?$FactoryPtr@VIRainRender@@@@AAEXXZ ENDP	; FactoryPtr<IRainRender>::DestroyObject
; Function compile flags: /Ogtpy
_TEXT	ENDS
;	COMDAT ?CreateObject@?$FactoryPtr@VIRainRender@@@@AAEXXZ
_TEXT	SEGMENT
_this$ = 8						; size = 4
?CreateObject@?$FactoryPtr@VIRainRender@@@@AAEXXZ PROC	; FactoryPtr<IRainRender>::CreateObject, COMDAT

; 75   :     FACTORY_PTR_INSTANCIATE(RainRender)

	mov	eax, DWORD PTR __imp_?RenderFactory@@3PAVIRenderFactory@@A
	mov	ecx, DWORD PTR [eax]
	mov	edx, DWORD PTR [ecx]
	mov	eax, DWORD PTR [edx+88]
	call	eax
	mov	ecx, DWORD PTR _this$[esp-4]
	mov	DWORD PTR [ecx], eax
	ret	4
?CreateObject@?$FactoryPtr@VIRainRender@@@@AAEXXZ ENDP	; FactoryPtr<IRainRender>::CreateObject
; Function compile flags: /Ogtpy
; File d:\clearsky\sources\sdk\include\stlport\stl\_range_errors.h
_TEXT	ENDS
;	COMDAT ?__stl_throw_out_of_range@stlp_std@@YAXPBD@Z
_TEXT	SEGMENT
?__stl_throw_out_of_range@stlp_std@@YAXPBD@Z PROC	; stlp_std::__stl_throw_out_of_range, COMDAT

; 79   : { _STLP_THROW_MSG(out_of_range, __msg); }

	push	OFFSET ??_C@_06NBFPPGEG@vector?$AA@
	call	DWORD PTR __imp__puts
	add	esp, 4
	jmp	DWORD PTR __imp__abort
?__stl_throw_out_of_range@stlp_std@@YAXPBD@Z ENDP	; stlp_std::__stl_throw_out_of_range
; Function compile flags: /Ogtpy
; File d:\clearsky\sources\sdk\include\stlport\stl\type_traits.h
_TEXT	ENDS
;	COMDAT ??$_UseTrivialCopy@PAVCEnvDescriptor@@PAV1@@stlp_std@@YA?AU?$_TrivialCopy@PAVCEnvDescriptor@@PAV1@@0@PAPAVCEnvDescriptor@@0@Z
_TEXT	SEGMENT
??$_UseTrivialCopy@PAVCEnvDescriptor@@PAV1@@stlp_std@@YA?AU?$_TrivialCopy@PAVCEnvDescriptor@@PAV1@@0@PAPAVCEnvDescriptor@@0@Z PROC ; stlp_std::_UseTrivialCopy<CEnvDescriptor *,CEnvDescriptor *>, COMDAT

; 485  : { return _TrivialCopy<_Src, _Dst>(); }

	xor	al, al
	ret	0
??$_UseTrivialCopy@PAVCEnvDescriptor@@PAV1@@stlp_std@@YA?AU?$_TrivialCopy@PAVCEnvDescriptor@@PAV1@@0@PAPAVCEnvDescriptor@@0@Z ENDP ; stlp_std::_UseTrivialCopy<CEnvDescriptor *,CEnvDescriptor *>
; Function compile flags: /Ogtpy
; File d:\clearsky\sources\sdk\include\stlport\stl\_heap.c
_TEXT	ENDS
;	COMDAT ??$__push_heap@PAPAVCEnvDescriptor@@HPAV1@P6A_NPBV1@0@Z@stlp_std@@YAXPAPAVCEnvDescriptor@@HHPAV1@P6A_NPBV1@2@Z@Z
_TEXT	SEGMENT
___topIndex$ = 8					; size = 4
___val$ = 12						; size = 4
___comp$ = 16						; size = 4
??$__push_heap@PAPAVCEnvDescriptor@@HPAV1@P6A_NPBV1@0@Z@stlp_std@@YAXPAPAVCEnvDescriptor@@HHPAV1@P6A_NPBV1@2@Z@Z PROC ; stlp_std::__push_heap<CEnvDescriptor * *,int,CEnvDescriptor *,bool (__cdecl*)(CEnvDescriptor const *,CEnvDescriptor const *)>, COMDAT
; ___first$ = ebx
; ___holeIndex$ = eax

; 78   : {

	push	ebp
	mov	ebp, DWORD PTR ___val$[esp]
	push	esi
	push	edi
	mov	edi, eax

; 79   :   _Distance __parent = (__holeIndex - 1) / 2;

	lea	eax, DWORD PTR [edi-1]
	cdq
	sub	eax, edx
	mov	esi, eax
	sar	esi, 1

; 80   :   while (__holeIndex > __topIndex && __comp(*(__first + __parent), __val)) {

	cmp	edi, DWORD PTR ___topIndex$[esp+8]
	jle	SHORT $LN8@push_heap@3
	npad	7
$LL2@push_heap@3:
	mov	eax, DWORD PTR [ebx+esi*4]
	push	ebp
	push	eax
	call	DWORD PTR ___comp$[esp+16]
	add	esp, 8
	test	al, al
	je	SHORT $LN8@push_heap@3

; 81   :     _STLP_VERBOSE_ASSERT(!__comp(__val, *(__first + __parent)), _StlMsg_INVALID_STRICT_WEAK_PREDICATE)
; 82   :     *(__first + __holeIndex) = *(__first + __parent);

	mov	ecx, DWORD PTR [ebx+esi*4]

; 83   :     __holeIndex = __parent;
; 84   :     __parent = (__holeIndex - 1) / 2;

	lea	eax, DWORD PTR [esi-1]
	cdq
	sub	eax, edx
	mov	DWORD PTR [ebx+edi*4], ecx
	mov	edi, esi
	sar	eax, 1
	cmp	edi, DWORD PTR ___topIndex$[esp+8]
	mov	esi, eax
	jg	SHORT $LL2@push_heap@3
$LN8@push_heap@3:

; 85   :   }
; 86   :   *(__first + __holeIndex) = __val;

	mov	DWORD PTR [ebx+edi*4], ebp
	pop	edi
	pop	esi
	pop	ebp

; 87   : }

	ret	0
??$__push_heap@PAPAVCEnvDescriptor@@HPAV1@P6A_NPBV1@0@Z@stlp_std@@YAXPAPAVCEnvDescriptor@@HHPAV1@P6A_NPBV1@2@Z@Z ENDP ; stlp_std::__push_heap<CEnvDescriptor * *,int,CEnvDescriptor *,bool (__cdecl*)(CEnvDescriptor const *,CEnvDescriptor const *)>
; Function compile flags: /Ogtpy
; File d:\clearsky\sources\sdk\include\stlport\stl\type_traits.h
_TEXT	ENDS
;	COMDAT ?_Answer@?$_TrivialCopy@PAVCEnvDescriptor@@PAV1@@stlp_std@@SA?AU__true_type@2@XZ
_TEXT	SEGMENT
?_Answer@?$_TrivialCopy@PAVCEnvDescriptor@@PAV1@@stlp_std@@SA?AU__true_type@2@XZ PROC ; stlp_std::_TrivialCopy<CEnvDescriptor *,CEnvDescriptor *>::_Answer, COMDAT

; 390  :   static _Ret _Answer() { return _Ret(); }

	xor	al, al
	ret	0
?_Answer@?$_TrivialCopy@PAVCEnvDescriptor@@PAV1@@stlp_std@@SA?AU__true_type@2@XZ ENDP ; stlp_std::_TrivialCopy<CEnvDescriptor *,CEnvDescriptor *>::_Answer
; Function compile flags: /Ogtpy
; File d:\clearsky\sources\sdk\include\stlport\stl\_algobase.h
_TEXT	ENDS
;	COMDAT ??$swap@PAVCEnvDescriptor@@@stlp_std@@YAXAAPAVCEnvDescriptor@@0@Z
_TEXT	SEGMENT
??$swap@PAVCEnvDescriptor@@@stlp_std@@YAXAAPAVCEnvDescriptor@@0@Z PROC ; stlp_std::swap<CEnvDescriptor *>, COMDAT
; ___a$ = ecx
; ___b$ = eax

; 82   : #if defined (_STLP_USE_PARTIAL_SPEC_WORKAROUND) && !defined (_STLP_FUNCTION_TMPL_PARTIAL_ORDER)
; 83   : #  if !defined(__BORLANDC__)
; 84   :   typedef typename _SwapImplemented<_Tp>::_Ret _Implemented;
; 85   : #  else
; 86   :   enum { _Is = _SwapImplemented<_Tp>::_Is };
; 87   :   typedef typename __bool2type<_Is>::_Ret _Implemented;
; 88   : #  endif
; 89   :   _STLP_PRIV __swap_aux(__a, __b, _Implemented());
; 90   : #else
; 91   :   _Tp __tmp = __a;

	mov	edx, DWORD PTR [ecx]
	push	esi

; 92   :   __a = __b;

	mov	esi, DWORD PTR [eax]
	mov	DWORD PTR [ecx], esi

; 93   :   __b = __tmp;

	mov	DWORD PTR [eax], edx
	pop	esi

; 94   : #endif /* _STLP_USE_PARTIAL_SPEC_WORKAROUND */
; 95   : }

	ret	0
??$swap@PAVCEnvDescriptor@@@stlp_std@@YAXAAPAVCEnvDescriptor@@0@Z ENDP ; stlp_std::swap<CEnvDescriptor *>
; Function compile flags: /Ogtpy
; File d:\clearsky\sources\sdk\include\stlport\stl\_heap.c
_TEXT	ENDS
;	COMDAT ??$__adjust_heap@PAPAVCEnvDescriptor@@HPAV1@P6A_NPBV1@0@Z@stlp_std@@YAXPAPAVCEnvDescriptor@@HHPAV1@P6A_NPBV1@2@Z@Z
_TEXT	SEGMENT
___topIndex$ = 8					; size = 4
___len$ = 8						; size = 4
___val$ = 12						; size = 4
___comp$ = 16						; size = 4
??$__adjust_heap@PAPAVCEnvDescriptor@@HPAV1@P6A_NPBV1@0@Z@stlp_std@@YAXPAPAVCEnvDescriptor@@HHPAV1@P6A_NPBV1@2@Z@Z PROC ; stlp_std::__adjust_heap<CEnvDescriptor * *,int,CEnvDescriptor *,bool (__cdecl*)(CEnvDescriptor const *,CEnvDescriptor const *)>, COMDAT
; ___first$ = ecx
; ___holeIndex$ = eax

; 148  : {

	push	ebx
	push	ebp
	mov	ebp, DWORD PTR ___len$[esp+4]
	push	esi
	push	edi
	mov	edi, eax

; 149  :   _Distance __topIndex = __holeIndex;
; 150  :   _Distance __secondChild = 2 * __holeIndex + 2;

	lea	esi, DWORD PTR [edi+edi+2]

; 151  :   while (__secondChild < __len) {

	cmp	esi, ebp
	mov	ebx, ecx
	mov	DWORD PTR ___topIndex$[esp+12], edi
	jge	SHORT $LN9@adjust_hea@3
$LL4@adjust_hea@3:

; 152  :     if (__comp(*(__first + __secondChild), *(__first + (__secondChild - 1)))) {

	mov	eax, DWORD PTR [ebx+esi*4-4]
	mov	ecx, DWORD PTR [ebx+esi*4]
	push	eax
	push	ecx
	call	DWORD PTR ___comp$[esp+20]
	add	esp, 8
	test	al, al
	je	SHORT $LN2@adjust_hea@3

; 153  :       _STLP_VERBOSE_ASSERT(!__comp(*(__first + (__secondChild - 1)), *(__first + __secondChild)),
; 154  :                            _StlMsg_INVALID_STRICT_WEAK_PREDICATE)
; 155  :       __secondChild--;

	sub	esi, 1
$LN2@adjust_hea@3:

; 156  :     }
; 157  :     *(__first + __holeIndex) = *(__first + __secondChild);

	mov	edx, DWORD PTR [ebx+esi*4]
	mov	DWORD PTR [ebx+edi*4], edx

; 158  :     __holeIndex = __secondChild;

	mov	edi, esi

; 159  :     __secondChild = 2 * (__secondChild + 1);

	lea	esi, DWORD PTR [esi+esi+2]
	cmp	esi, ebp
	jl	SHORT $LL4@adjust_hea@3
$LN9@adjust_hea@3:

; 160  :   }
; 161  :   if (__secondChild == __len) {

	jne	SHORT $LN1@adjust_hea@3

; 162  :     *(__first + __holeIndex) = *(__first + (__secondChild - 1));

	mov	eax, DWORD PTR [ebx+esi*4-4]
	mov	DWORD PTR [ebx+edi*4], eax

; 163  :     __holeIndex = __secondChild - 1;

	lea	edi, DWORD PTR [esi-1]
$LN1@adjust_hea@3:

; 164  :   }
; 165  :   __push_heap(__first, __holeIndex, __topIndex, __val, __comp);

	mov	ecx, DWORD PTR ___comp$[esp+12]
	mov	edx, DWORD PTR ___val$[esp+12]
	mov	eax, DWORD PTR ___topIndex$[esp+12]
	push	ecx
	push	edx
	push	eax
	mov	eax, edi
	call	??$__push_heap@PAPAVCEnvDescriptor@@HPAV1@P6A_NPBV1@0@Z@stlp_std@@YAXPAPAVCEnvDescriptor@@HHPAV1@P6A_NPBV1@2@Z@Z ; stlp_std::__push_heap<CEnvDescriptor * *,int,CEnvDescriptor *,bool (__cdecl*)(CEnvDescriptor const *,CEnvDescriptor const *)>
	add	esp, 12					; 0000000cH
	pop	edi
	pop	esi
	pop	ebp
	pop	ebx

; 166  : }

	ret	0
??$__adjust_heap@PAPAVCEnvDescriptor@@HPAV1@P6A_NPBV1@0@Z@stlp_std@@YAXPAPAVCEnvDescriptor@@HHPAV1@P6A_NPBV1@2@Z@Z ENDP ; stlp_std::__adjust_heap<CEnvDescriptor * *,int,CEnvDescriptor *,bool (__cdecl*)(CEnvDescriptor const *,CEnvDescriptor const *)>
; Function compile flags: /Ogtpy
_TEXT	ENDS
;	COMDAT ??$__make_heap@PAPAVCEnvDescriptor@@P6A_NPBV1@0@ZPAV1@H@stlp_std@@YAXPAPAVCEnvDescriptor@@0P6A_NPBV1@1@Z0PAH@Z
_TEXT	SEGMENT
___comp$ = 8						; size = 4
??$__make_heap@PAPAVCEnvDescriptor@@P6A_NPBV1@0@ZPAV1@H@stlp_std@@YAXPAPAVCEnvDescriptor@@0P6A_NPBV1@1@Z0PAH@Z PROC ; stlp_std::__make_heap<CEnvDescriptor * *,bool (__cdecl*)(CEnvDescriptor const *,CEnvDescriptor const *),CEnvDescriptor *,int>, COMDAT
; ___first$ = edi
; ___last$ = eax

; 218  : {

	push	ebx
	mov	ebx, eax

; 219  :   if (__last - __first < 2) return;
; 220  :   _Distance __len = __last - __first;

	sub	ebx, edi
	sar	ebx, 2
	push	ebp
	mov	ebp, DWORD PTR ___comp$[esp+4]

; 221  :   _Distance __parent = (__len - 2)/2;

	lea	eax, DWORD PTR [ebx-2]
	cdq
	push	esi
	sub	eax, edx
	mov	esi, eax
	sar	esi, 1

; 222  : 
; 223  :   for (;;) {
; 224  :     __adjust_heap(__first, __parent, __len, _Tp(*(__first + __parent)),
; 225  :                   __comp);

	mov	eax, DWORD PTR [edi+esi*4]
	push	ebp
	push	eax
	push	ebx
	mov	eax, esi
	mov	ecx, edi
	call	??$__adjust_heap@PAPAVCEnvDescriptor@@HPAV1@P6A_NPBV1@0@Z@stlp_std@@YAXPAPAVCEnvDescriptor@@HHPAV1@P6A_NPBV1@2@Z@Z ; stlp_std::__adjust_heap<CEnvDescriptor * *,int,CEnvDescriptor *,bool (__cdecl*)(CEnvDescriptor const *,CEnvDescriptor const *)>
	add	esp, 12					; 0000000cH

; 226  :     if (__parent == 0) return;

	test	esi, esi
	je	SHORT $LN13@make_heap@5
	npad	2
$LL3@make_heap@5:

; 222  : 
; 223  :   for (;;) {
; 224  :     __adjust_heap(__first, __parent, __len, _Tp(*(__first + __parent)),
; 225  :                   __comp);

	mov	ecx, DWORD PTR [edi+esi*4-4]

; 227  :     __parent--;

	sub	esi, 1
	push	ebp
	push	ecx
	push	ebx
	mov	eax, esi
	mov	ecx, edi
	call	??$__adjust_heap@PAPAVCEnvDescriptor@@HPAV1@P6A_NPBV1@0@Z@stlp_std@@YAXPAPAVCEnvDescriptor@@HHPAV1@P6A_NPBV1@2@Z@Z ; stlp_std::__adjust_heap<CEnvDescriptor * *,int,CEnvDescriptor *,bool (__cdecl*)(CEnvDescriptor const *,CEnvDescriptor const *)>
	add	esp, 12					; 0000000cH
	test	esi, esi
	jne	SHORT $LL3@make_heap@5
$LN13@make_heap@5:
	pop	esi
	pop	ebp
	pop	ebx

; 228  :   }
; 229  : }

	ret	0
??$__make_heap@PAPAVCEnvDescriptor@@P6A_NPBV1@0@ZPAV1@H@stlp_std@@YAXPAPAVCEnvDescriptor@@0P6A_NPBV1@1@Z0PAH@Z ENDP ; stlp_std::__make_heap<CEnvDescriptor * *,bool (__cdecl*)(CEnvDescriptor const *,CEnvDescriptor const *),CEnvDescriptor *,int>
; Function compile flags: /Ogtpy
; File d:\clearsky\sources\sdk\include\stlport\stl\type_traits.h
_TEXT	ENDS
;	COMDAT ?_Answer@?$_BothPtrType@PAPAVCEnvDescriptor@@PAPAV1@@stlp_std@@SA?AU__true_type@2@XZ
_TEXT	SEGMENT
?_Answer@?$_BothPtrType@PAPAVCEnvDescriptor@@PAPAV1@@stlp_std@@SA?AU__true_type@2@XZ PROC ; stlp_std::_BothPtrType<CEnvDescriptor * *,CEnvDescriptor * *>::_Answer, COMDAT

; 468  :   static _Ret _Answer() { return _Ret(); }

	xor	al, al
	ret	0
?_Answer@?$_BothPtrType@PAPAVCEnvDescriptor@@PAPAV1@@stlp_std@@SA?AU__true_type@2@XZ ENDP ; stlp_std::_BothPtrType<CEnvDescriptor * *,CEnvDescriptor * *>::_Answer
; Function compile flags: /Ogtpy
; File d:\clearsky\sources\sdk\include\stlport\stl\_iterator.h
_TEXT	ENDS
;	COMDAT ?base@?$reverse_iterator@PAUSFlare@CLensFlareDescriptor@@@stlp_std@@QBEPAUSFlare@CLensFlareDescriptor@@XZ
_TEXT	SEGMENT
?base@?$reverse_iterator@PAUSFlare@CLensFlareDescriptor@@@stlp_std@@QBEPAUSFlare@CLensFlareDescriptor@@XZ PROC ; stlp_std::reverse_iterator<CLensFlareDescriptor::SFlare *>::base, COMDAT
; _this$ = eax

; 75   :   iterator_type base() const { return current; }

	mov	eax, DWORD PTR [eax]
	ret	0
?base@?$reverse_iterator@PAUSFlare@CLensFlareDescriptor@@@stlp_std@@QBEPAUSFlare@CLensFlareDescriptor@@XZ ENDP ; stlp_std::reverse_iterator<CLensFlareDescriptor::SFlare *>::base
; Function compile flags: /Ogtpy
_TEXT	ENDS
;	COMDAT ??$?8PAUSFlare@CLensFlareDescriptor@@@stlp_std@@YA_NABV?$reverse_iterator@PAUSFlare@CLensFlareDescriptor@@@0@0@Z
_TEXT	SEGMENT
??$?8PAUSFlare@CLensFlareDescriptor@@@stlp_std@@YA_NABV?$reverse_iterator@PAUSFlare@CLensFlareDescriptor@@@0@0@Z PROC ; stlp_std::operator==<CLensFlareDescriptor::SFlare *>, COMDAT
; ___x$ = eax
; ___y$ = edx

; 116  : { return __x.base() == __y.base(); }

	mov	ecx, DWORD PTR [eax]
	xor	eax, eax
	cmp	ecx, DWORD PTR [edx]
	sete	al
	ret	0
??$?8PAUSFlare@CLensFlareDescriptor@@@stlp_std@@YA_NABV?$reverse_iterator@PAUSFlare@CLensFlareDescriptor@@@0@0@Z ENDP ; stlp_std::operator==<CLensFlareDescriptor::SFlare *>
; Function compile flags: /Ogtpy
; File d:\clearsky\sources\sdk\include\stlport\stl\_algo.c
_TEXT	ENDS
;	COMDAT ??$__unguarded_linear_insert@PAPAVCEnvDescriptor@@PAV1@P6A_NPBV1@0@Z@priv@stlp_std@@YAXPAPAVCEnvDescriptor@@PAV2@P6A_NPBV2@2@Z@Z
_TEXT	SEGMENT
___comp$ = 8						; size = 4
??$__unguarded_linear_insert@PAPAVCEnvDescriptor@@PAV1@P6A_NPBV1@0@Z@priv@stlp_std@@YAXPAPAVCEnvDescriptor@@PAV2@P6A_NPBV2@2@Z@Z PROC ; stlp_std::priv::__unguarded_linear_insert<CEnvDescriptor * *,CEnvDescriptor *,bool (__cdecl*)(CEnvDescriptor const *,CEnvDescriptor const *)>, COMDAT
; ___last$ = eax
; ___val$ = ebx

; 896  :                                _Compare __comp) {

	push	ebp
	mov	ebp, DWORD PTR ___comp$[esp]
	push	esi
	push	edi
	mov	edi, eax

; 897  :   _RandomAccessIter __next = __last;
; 898  :   --__next;
; 899  :   while (__comp(__val, *__next)) {

	mov	eax, DWORD PTR [edi-4]
	lea	esi, DWORD PTR [edi-4]
	push	eax
	push	ebx
	call	ebp
	add	esp, 8
	test	al, al
	je	SHORT $LN7@unguarded_@8
	npad	6
$LL2@unguarded_@8:

; 900  :     _STLP_VERBOSE_ASSERT(!__comp(*__next, __val), _StlMsg_INVALID_STRICT_WEAK_PREDICATE)
; 901  :     *__last = *__next;

	mov	ecx, DWORD PTR [esi]
	mov	DWORD PTR [edi], ecx
	mov	edx, DWORD PTR [esi-4]

; 902  :     __last = __next;

	mov	edi, esi

; 903  :     --__next;

	sub	esi, 4
	push	edx
	push	ebx
	call	ebp
	add	esp, 8
	test	al, al
	jne	SHORT $LL2@unguarded_@8
$LN7@unguarded_@8:

; 904  :   }
; 905  :   *__last = __val;

	mov	DWORD PTR [edi], ebx
	pop	edi
	pop	esi
	pop	ebp

; 906  : }

	ret	0
??$__unguarded_linear_insert@PAPAVCEnvDescriptor@@PAV1@P6A_NPBV1@0@Z@priv@stlp_std@@YAXPAPAVCEnvDescriptor@@PAV2@P6A_NPBV2@2@Z@Z ENDP ; stlp_std::priv::__unguarded_linear_insert<CEnvDescriptor * *,CEnvDescriptor *,bool (__cdecl*)(CEnvDescriptor const *,CEnvDescriptor const *)>
; Function compile flags: /Ogtpy
; File d:\clearsky\sources\sdk\include\stlport\stl\_algobase.h
_TEXT	ENDS
;	COMDAT ??$__iter_swap_aux@PAPAVCEnvDescriptor@@PAPAV1@@priv@stlp_std@@YAXAAPAPAVCEnvDescriptor@@0ABU__true_type@1@@Z
_TEXT	SEGMENT
??$__iter_swap_aux@PAPAVCEnvDescriptor@@PAPAV1@@priv@stlp_std@@YAXAAPAPAVCEnvDescriptor@@0ABU__true_type@1@@Z PROC ; stlp_std::priv::__iter_swap_aux<CEnvDescriptor * *,CEnvDescriptor * *>, COMDAT
; ___i1$ = ecx
; ___i2$ = eax

; 108  :   swap(*__i1, *__i2);

	mov	eax, DWORD PTR [eax]
	mov	ecx, DWORD PTR [ecx]
	mov	edx, DWORD PTR [ecx]
	push	esi
	mov	esi, DWORD PTR [eax]
	mov	DWORD PTR [ecx], esi
	mov	DWORD PTR [eax], edx
	pop	esi

; 109  : }

	ret	0
??$__iter_swap_aux@PAPAVCEnvDescriptor@@PAPAV1@@priv@stlp_std@@YAXAAPAPAVCEnvDescriptor@@0ABU__true_type@1@@Z ENDP ; stlp_std::priv::__iter_swap_aux<CEnvDescriptor * *,CEnvDescriptor * *>
; Function compile flags: /Ogtpy
; File d:\clearsky\sources\sdk\include\stlport\stl\type_traits.h
_TEXT	ENDS
;	COMDAT ??$_IsOKToSwap@PAVCEnvDescriptor@@PAV1@U__true_type@stlp_std@@U23@@stlp_std@@YA?AU?$_OKToSwap@PAVCEnvDescriptor@@PAV1@U__true_type@stlp_std@@U23@@0@PAPAVCEnvDescriptor@@0ABU__true_type@0@1@Z
_TEXT	SEGMENT
??$_IsOKToSwap@PAVCEnvDescriptor@@PAV1@U__true_type@stlp_std@@U23@@stlp_std@@YA?AU?$_OKToSwap@PAVCEnvDescriptor@@PAV1@U__true_type@stlp_std@@U23@@0@PAPAVCEnvDescriptor@@0ABU__true_type@0@1@Z PROC ; stlp_std::_IsOKToSwap<CEnvDescriptor *,CEnvDescriptor *,stlp_std::__true_type,stlp_std::__true_type>, COMDAT

; 481  : { return _OKToSwap<_Tp1, _Tp2, _IsRef1, _IsRef2>(); }

	xor	al, al
	ret	0
??$_IsOKToSwap@PAVCEnvDescriptor@@PAV1@U__true_type@stlp_std@@U23@@stlp_std@@YA?AU?$_OKToSwap@PAVCEnvDescriptor@@PAV1@U__true_type@stlp_std@@U23@@0@PAPAVCEnvDescriptor@@0ABU__true_type@0@1@Z ENDP ; stlp_std::_IsOKToSwap<CEnvDescriptor *,CEnvDescriptor *,stlp_std::__true_type,stlp_std::__true_type>
; Function compile flags: /Ogtpy
; File d:\clearsky\sources\sdk\include\stlport\stl\_heap.h
_TEXT	ENDS
;	COMDAT ??$__pop_heap@PAPAVCEnvDescriptor@@PAV1@P6A_NPBV1@0@ZH@stlp_std@@YAXPAPAVCEnvDescriptor@@00PAV1@P6A_NPBV1@2@ZPAH@Z
_TEXT	SEGMENT
___val$ = 8						; size = 4
___comp$ = 12						; size = 4
??$__pop_heap@PAPAVCEnvDescriptor@@PAV1@P6A_NPBV1@0@ZH@stlp_std@@YAXPAPAVCEnvDescriptor@@00PAV1@P6A_NPBV1@2@ZPAH@Z PROC ; stlp_std::__pop_heap<CEnvDescriptor * *,CEnvDescriptor *,bool (__cdecl*)(CEnvDescriptor const *,CEnvDescriptor const *),int>, COMDAT
; ___first$ = ecx
; ___last$ = eax
; ___result$ = esi

; 78   :   *__result = *__first;

	mov	edx, DWORD PTR [ecx]
	mov	DWORD PTR [esi], edx

; 79   :   __adjust_heap(__first, _Distance(0), _Distance(__last - __first),
; 80   :                 __val, __comp);

	mov	edx, DWORD PTR ___comp$[esp-4]
	push	edx
	mov	edx, DWORD PTR ___val$[esp]
	sub	eax, ecx
	sar	eax, 2
	push	edx
	push	eax
	xor	eax, eax
	call	??$__adjust_heap@PAPAVCEnvDescriptor@@HPAV1@P6A_NPBV1@0@Z@stlp_std@@YAXPAPAVCEnvDescriptor@@HHPAV1@P6A_NPBV1@2@Z@Z ; stlp_std::__adjust_heap<CEnvDescriptor * *,int,CEnvDescriptor *,bool (__cdecl*)(CEnvDescriptor const *,CEnvDescriptor const *)>
	add	esp, 12					; 0000000cH

; 81   : }

	ret	0
??$__pop_heap@PAPAVCEnvDescriptor@@PAV1@P6A_NPBV1@0@ZH@stlp_std@@YAXPAPAVCEnvDescriptor@@00PAV1@P6A_NPBV1@2@ZPAH@Z ENDP ; stlp_std::__pop_heap<CEnvDescriptor * *,CEnvDescriptor *,bool (__cdecl*)(CEnvDescriptor const *,CEnvDescriptor const *),int>
; Function compile flags: /Ogtpy
; File d:\clearsky\sources\sdk\include\stlport\stl\_heap.c
_TEXT	ENDS
;	COMDAT ??$make_heap@PAPAVCEnvDescriptor@@P6A_NPBV1@0@Z@stlp_std@@YAXPAPAVCEnvDescriptor@@0P6A_NPBV1@1@Z@Z
_TEXT	SEGMENT
___comp$ = 8						; size = 4
??$make_heap@PAPAVCEnvDescriptor@@P6A_NPBV1@0@Z@stlp_std@@YAXPAPAVCEnvDescriptor@@0P6A_NPBV1@1@Z@Z PROC ; stlp_std::make_heap<CEnvDescriptor * *,bool (__cdecl*)(CEnvDescriptor const *,CEnvDescriptor const *)>, COMDAT
; ___first$ = edi
; ___last$ = eax

; 235  : {

	push	ebx
	mov	ebx, eax

; 236  :   __make_heap(__first, __last, __comp,
; 237  :               _STLP_VALUE_TYPE(__first, _RandomAccessIterator), _STLP_DISTANCE_TYPE(__first, _RandomAccessIterator));

	sub	ebx, edi
	sar	ebx, 2
	cmp	ebx, 2
	push	ebp
	mov	ebp, DWORD PTR ___comp$[esp+4]
	jl	SHORT $LN11@make_heap@6
	lea	eax, DWORD PTR [ebx-2]
	cdq
	push	esi
	sub	eax, edx
	mov	esi, eax
	sar	esi, 1
	mov	eax, DWORD PTR [edi+esi*4]
	push	ebp
	push	eax
	push	ebx
	mov	eax, esi
	mov	ecx, edi
	call	??$__adjust_heap@PAPAVCEnvDescriptor@@HPAV1@P6A_NPBV1@0@Z@stlp_std@@YAXPAPAVCEnvDescriptor@@HHPAV1@P6A_NPBV1@2@Z@Z ; stlp_std::__adjust_heap<CEnvDescriptor * *,int,CEnvDescriptor *,bool (__cdecl*)(CEnvDescriptor const *,CEnvDescriptor const *)>
	add	esp, 12					; 0000000cH
	test	esi, esi
	je	SHORT $LN13@make_heap@6
$LL5@make_heap@6:
	mov	ecx, DWORD PTR [edi+esi*4-4]
	sub	esi, 1
	push	ebp
	push	ecx
	push	ebx
	mov	eax, esi
	mov	ecx, edi
	call	??$__adjust_heap@PAPAVCEnvDescriptor@@HPAV1@P6A_NPBV1@0@Z@stlp_std@@YAXPAPAVCEnvDescriptor@@HHPAV1@P6A_NPBV1@2@Z@Z ; stlp_std::__adjust_heap<CEnvDescriptor * *,int,CEnvDescriptor *,bool (__cdecl*)(CEnvDescriptor const *,CEnvDescriptor const *)>
	add	esp, 12					; 0000000cH
	test	esi, esi
	jne	SHORT $LL5@make_heap@6
$LN13@make_heap@6:
	pop	esi
$LN11@make_heap@6:
	pop	ebp
	pop	ebx

; 238  : }

	ret	0
??$make_heap@PAPAVCEnvDescriptor@@P6A_NPBV1@0@Z@stlp_std@@YAXPAPAVCEnvDescriptor@@0P6A_NPBV1@1@Z@Z ENDP ; stlp_std::make_heap<CEnvDescriptor * *,bool (__cdecl*)(CEnvDescriptor const *,CEnvDescriptor const *)>
; Function compile flags: /Ogtpy
; File d:\clearsky\sources\sdk\include\stlport\stl\type_traits.h
_TEXT	ENDS
;	COMDAT ??$_UseTrivialUCopy@UParticle@CEffect_Rain@@U12@@stlp_std@@YA?AU?$_TrivialUCopy@UParticle@CEffect_Rain@@U12@@0@PAUParticle@CEffect_Rain@@0@Z
_TEXT	SEGMENT
??$_UseTrivialUCopy@UParticle@CEffect_Rain@@U12@@stlp_std@@YA?AU?$_TrivialUCopy@UParticle@CEffect_Rain@@U12@@0@PAUParticle@CEffect_Rain@@0@Z PROC ; stlp_std::_UseTrivialUCopy<CEffect_Rain::Particle,CEffect_Rain::Particle>, COMDAT

; 489  : { return _TrivialUCopy<_Src, _Dst>(); }

	xor	al, al
	ret	0
??$_UseTrivialUCopy@UParticle@CEffect_Rain@@U12@@stlp_std@@YA?AU?$_TrivialUCopy@UParticle@CEffect_Rain@@U12@@0@PAUParticle@CEffect_Rain@@0@Z ENDP ; stlp_std::_UseTrivialUCopy<CEffect_Rain::Particle,CEffect_Rain::Particle>
; Function compile flags: /Ogtpy
_TEXT	ENDS
;	COMDAT ??$_UseTrivialUCopy@UItem@CEffect_Rain@@U12@@stlp_std@@YA?AU?$_TrivialUCopy@UItem@CEffect_Rain@@U12@@0@PAUItem@CEffect_Rain@@0@Z
_TEXT	SEGMENT
??$_UseTrivialUCopy@UItem@CEffect_Rain@@U12@@stlp_std@@YA?AU?$_TrivialUCopy@UItem@CEffect_Rain@@U12@@0@PAUItem@CEffect_Rain@@0@Z PROC ; stlp_std::_UseTrivialUCopy<CEffect_Rain::Item,CEffect_Rain::Item>, COMDAT

; 489  : { return _TrivialUCopy<_Src, _Dst>(); }

	xor	al, al
	ret	0
??$_UseTrivialUCopy@UItem@CEffect_Rain@@U12@@stlp_std@@YA?AU?$_TrivialUCopy@UItem@CEffect_Rain@@U12@@0@PAUItem@CEffect_Rain@@0@Z ENDP ; stlp_std::_UseTrivialUCopy<CEffect_Rain::Item,CEffect_Rain::Item>
; Function compile flags: /Ogtpy
_TEXT	ENDS
;	COMDAT ??$_UseTrivialUCopy@USFlare@CLensFlareDescriptor@@U12@@stlp_std@@YA?AU?$_TrivialUCopy@USFlare@CLensFlareDescriptor@@U12@@0@PAUSFlare@CLensFlareDescriptor@@0@Z
_TEXT	SEGMENT
??$_UseTrivialUCopy@USFlare@CLensFlareDescriptor@@U12@@stlp_std@@YA?AU?$_TrivialUCopy@USFlare@CLensFlareDescriptor@@U12@@0@PAUSFlare@CLensFlareDescriptor@@0@Z PROC ; stlp_std::_UseTrivialUCopy<CLensFlareDescriptor::SFlare,CLensFlareDescriptor::SFlare>, COMDAT

; 489  : { return _TrivialUCopy<_Src, _Dst>(); }

	xor	al, al
	ret	0
??$_UseTrivialUCopy@USFlare@CLensFlareDescriptor@@U12@@stlp_std@@YA?AU?$_TrivialUCopy@USFlare@CLensFlareDescriptor@@U12@@0@PAUSFlare@CLensFlareDescriptor@@0@Z ENDP ; stlp_std::_UseTrivialUCopy<CLensFlareDescriptor::SFlare,CLensFlareDescriptor::SFlare>
; Function compile flags: /Ogtpy
_TEXT	ENDS
;	COMDAT ??$_UseTrivialUCopy@Urq_result@collide@@U12@@stlp_std@@YA?AU?$_TrivialUCopy@Urq_result@collide@@U12@@0@PAUrq_result@collide@@0@Z
_TEXT	SEGMENT
??$_UseTrivialUCopy@Urq_result@collide@@U12@@stlp_std@@YA?AU?$_TrivialUCopy@Urq_result@collide@@U12@@0@PAUrq_result@collide@@0@Z PROC ; stlp_std::_UseTrivialUCopy<collide::rq_result,collide::rq_result>, COMDAT

; 489  : { return _TrivialUCopy<_Src, _Dst>(); }

	xor	al, al
	ret	0
??$_UseTrivialUCopy@Urq_result@collide@@U12@@stlp_std@@YA?AU?$_TrivialUCopy@Urq_result@collide@@U12@@0@PAUrq_result@collide@@0@Z ENDP ; stlp_std::_UseTrivialUCopy<collide::rq_result,collide::rq_result>
; Function compile flags: /Ogtpy
_TEXT	ENDS
;	COMDAT ?_Answer@?$_OKToSwap@PAVCEnvDescriptor@@PAV1@U__true_type@stlp_std@@U23@@stlp_std@@SA?AU__true_type@2@XZ
_TEXT	SEGMENT
?_Answer@?$_OKToSwap@PAVCEnvDescriptor@@PAV1@U__true_type@stlp_std@@U23@@stlp_std@@SA?AU__true_type@2@XZ PROC ; stlp_std::_OKToSwap<CEnvDescriptor *,CEnvDescriptor *,stlp_std::__true_type,stlp_std::__true_type>::_Answer, COMDAT

; 475  :   static _Type _Answer() { return _Type(); }

	xor	al, al
	ret	0
?_Answer@?$_OKToSwap@PAVCEnvDescriptor@@PAV1@U__true_type@stlp_std@@U23@@stlp_std@@SA?AU__true_type@2@XZ ENDP ; stlp_std::_OKToSwap<CEnvDescriptor *,CEnvDescriptor *,stlp_std::__true_type,stlp_std::__true_type>::_Answer
; Function compile flags: /Ogtpy
_TEXT	ENDS
;	COMDAT ?_Ret@?$_IsRefType@AAPAVCEnvDescriptor@@@stlp_std@@SA?AU__true_type@2@XZ
_TEXT	SEGMENT
?_Ret@?$_IsRefType@AAPAVCEnvDescriptor@@@stlp_std@@SA?AU__true_type@2@XZ PROC ; stlp_std::_IsRefType<CEnvDescriptor * &>::_Ret, COMDAT

; 443  :   static _Type _Ret() { return _Type();}

	xor	al, al
	ret	0
?_Ret@?$_IsRefType@AAPAVCEnvDescriptor@@@stlp_std@@SA?AU__true_type@2@XZ ENDP ; stlp_std::_IsRefType<CEnvDescriptor * &>::_Ret
; Function compile flags: /Ogtpy
_TEXT	ENDS
;	COMDAT ?_Answer@?$_TrivialUCopy@UParticle@CEffect_Rain@@U12@@stlp_std@@SA?AU__true_type@2@XZ
_TEXT	SEGMENT
?_Answer@?$_TrivialUCopy@UParticle@CEffect_Rain@@U12@@stlp_std@@SA?AU__true_type@2@XZ PROC ; stlp_std::_TrivialUCopy<CEffect_Rain::Particle,CEffect_Rain::Particle>::_Answer, COMDAT

; 407  :   static _Ret _Answer() { return _Ret(); }

	xor	al, al
	ret	0
?_Answer@?$_TrivialUCopy@UParticle@CEffect_Rain@@U12@@stlp_std@@SA?AU__true_type@2@XZ ENDP ; stlp_std::_TrivialUCopy<CEffect_Rain::Particle,CEffect_Rain::Particle>::_Answer
; Function compile flags: /Ogtpy
_TEXT	ENDS
;	COMDAT ?_Answer@?$_TrivialUCopy@UItem@CEffect_Rain@@U12@@stlp_std@@SA?AU__true_type@2@XZ
_TEXT	SEGMENT
?_Answer@?$_TrivialUCopy@UItem@CEffect_Rain@@U12@@stlp_std@@SA?AU__true_type@2@XZ PROC ; stlp_std::_TrivialUCopy<CEffect_Rain::Item,CEffect_Rain::Item>::_Answer, COMDAT

; 407  :   static _Ret _Answer() { return _Ret(); }

	xor	al, al
	ret	0
?_Answer@?$_TrivialUCopy@UItem@CEffect_Rain@@U12@@stlp_std@@SA?AU__true_type@2@XZ ENDP ; stlp_std::_TrivialUCopy<CEffect_Rain::Item,CEffect_Rain::Item>::_Answer
; Function compile flags: /Ogtpy
_TEXT	ENDS
;	COMDAT ?_Answer@?$_TrivialUCopy@USFlare@CLensFlareDescriptor@@U12@@stlp_std@@SA?AU__false_type@2@XZ
_TEXT	SEGMENT
?_Answer@?$_TrivialUCopy@USFlare@CLensFlareDescriptor@@U12@@stlp_std@@SA?AU__false_type@2@XZ PROC ; stlp_std::_TrivialUCopy<CLensFlareDescriptor::SFlare,CLensFlareDescriptor::SFlare>::_Answer, COMDAT

; 407  :   static _Ret _Answer() { return _Ret(); }

	xor	al, al
	ret	0
?_Answer@?$_TrivialUCopy@USFlare@CLensFlareDescriptor@@U12@@stlp_std@@SA?AU__false_type@2@XZ ENDP ; stlp_std::_TrivialUCopy<CLensFlareDescriptor::SFlare,CLensFlareDescriptor::SFlare>::_Answer
; Function compile flags: /Ogtpy
_TEXT	ENDS
;	COMDAT ?_Answer@?$_TrivialUCopy@Urq_result@collide@@U12@@stlp_std@@SA?AU__true_type@2@XZ
_TEXT	SEGMENT
?_Answer@?$_TrivialUCopy@Urq_result@collide@@U12@@stlp_std@@SA?AU__true_type@2@XZ PROC ; stlp_std::_TrivialUCopy<collide::rq_result,collide::rq_result>::_Answer, COMDAT

; 407  :   static _Ret _Answer() { return _Ret(); }

	xor	al, al
	ret	0
?_Answer@?$_TrivialUCopy@Urq_result@collide@@U12@@stlp_std@@SA?AU__true_type@2@XZ ENDP ; stlp_std::_TrivialUCopy<collide::rq_result,collide::rq_result>::_Answer
; Function compile flags: /Ogtpy
; File d:\clearsky\sources\sdk\include\stlport\stl\_iterator.h
_TEXT	ENDS
;	COMDAT ??$?9PAUSFlare@CLensFlareDescriptor@@@stlp_std@@YA_NABV?$reverse_iterator@PAUSFlare@CLensFlareDescriptor@@@0@0@Z
_TEXT	SEGMENT
??$?9PAUSFlare@CLensFlareDescriptor@@@stlp_std@@YA_NABV?$reverse_iterator@PAUSFlare@CLensFlareDescriptor@@@0@0@Z PROC ; stlp_std::operator!=<CLensFlareDescriptor::SFlare *>, COMDAT
; ___x$ = eax
; ___y$ = edx

; 127  : { return !(__x == __y); }

	mov	ecx, DWORD PTR [eax]
	xor	eax, eax
	cmp	ecx, DWORD PTR [edx]
	setne	al
	ret	0
??$?9PAUSFlare@CLensFlareDescriptor@@@stlp_std@@YA_NABV?$reverse_iterator@PAUSFlare@CLensFlareDescriptor@@@0@0@Z ENDP ; stlp_std::operator!=<CLensFlareDescriptor::SFlare *>
; Function compile flags: /Ogtpy
; File d:\clearsky\sources\sdk\include\stlport\stl\_iterator_base.h
_TEXT	ENDS
;	COMDAT ??$__advance@PAPAVCEnvDescriptor@@H@stlp_std@@YAXAAPAPAVCEnvDescriptor@@HABUrandom_access_iterator_tag@0@@Z
_TEXT	SEGMENT
??$__advance@PAPAVCEnvDescriptor@@H@stlp_std@@YAXAAPAPAVCEnvDescriptor@@HABUrandom_access_iterator_tag@0@@Z PROC ; stlp_std::__advance<CEnvDescriptor * *,int>, COMDAT
; ___i$ = eax
; ___n$ = ecx

; 522  :   __i += __n;

	lea	edx, DWORD PTR [ecx*4]
	add	DWORD PTR [eax], edx

; 523  : }

	ret	0
??$__advance@PAPAVCEnvDescriptor@@H@stlp_std@@YAXAAPAPAVCEnvDescriptor@@HABUrandom_access_iterator_tag@0@@Z ENDP ; stlp_std::__advance<CEnvDescriptor * *,int>
; Function compile flags: /Ogtpy
_TEXT	ENDS
;	COMDAT ??$__distance@PAPAVCEnvDescriptor@@@stlp_std@@YAHABQAPAVCEnvDescriptor@@0ABUrandom_access_iterator_tag@0@@Z
_TEXT	SEGMENT
??$__distance@PAPAVCEnvDescriptor@@@stlp_std@@YAHABQAPAVCEnvDescriptor@@0ABUrandom_access_iterator_tag@0@@Z PROC ; stlp_std::__distance<CEnvDescriptor * *>, COMDAT
; ___first$ = ecx
; ___last$ = eax

; 372  :   return __last - __first;

	mov	eax, DWORD PTR [eax]
	sub	eax, DWORD PTR [ecx]
	sar	eax, 2

; 373  : }

	ret	0
??$__distance@PAPAVCEnvDescriptor@@@stlp_std@@YAHABQAPAVCEnvDescriptor@@0ABUrandom_access_iterator_tag@0@@Z ENDP ; stlp_std::__distance<CEnvDescriptor * *>
; Function compile flags: /Ogtpy
; File d:\clearsky\sources\sdk\include\stlport\stl\_algo.c
_TEXT	ENDS
;	COMDAT ??$__unguarded_insertion_sort_aux@PAPAVCEnvDescriptor@@PAV1@P6A_NPBV1@0@Z@priv@stlp_std@@YAXPAPAVCEnvDescriptor@@00P6A_NPBV2@1@Z@Z
_TEXT	SEGMENT
___first$ = 8						; size = 4
___last$ = 12						; size = 4
___comp$ = 16						; size = 4
??$__unguarded_insertion_sort_aux@PAPAVCEnvDescriptor@@PAV1@P6A_NPBV1@0@Z@priv@stlp_std@@YAXPAPAVCEnvDescriptor@@00P6A_NPBV2@1@Z@Z PROC ; stlp_std::priv::__unguarded_insertion_sort_aux<CEnvDescriptor * *,CEnvDescriptor *,bool (__cdecl*)(CEnvDescriptor const *,CEnvDescriptor const *)>, COMDAT

; 934  :                                     _Tp*, _Compare __comp) {

	push	ebp
	mov	ebp, DWORD PTR ___first$[esp]

; 935  :   for (_RandomAccessIter __i = __first; __i != __last; ++__i)

	cmp	ebp, DWORD PTR ___last$[esp]
	je	SHORT $LN1@unguarded_@9
	push	ebx
	push	esi
	push	edi
	npad	2
$LL3@unguarded_@9:

; 936  :     __unguarded_linear_insert<_RandomAccessIter, _Tp, _Compare>(__i, *__i, __comp);

	mov	eax, DWORD PTR [ebp-4]
	mov	ebx, DWORD PTR [ebp]
	lea	esi, DWORD PTR [ebp-4]
	push	eax
	push	ebx
	mov	edi, ebp
	call	DWORD PTR ___comp$[esp+20]
	add	esp, 8
	test	al, al
	je	SHORT $LN6@unguarded_@9
$LL7@unguarded_@9:
	mov	ecx, DWORD PTR [esi]
	mov	DWORD PTR [edi], ecx
	mov	edx, DWORD PTR [esi-4]
	mov	edi, esi
	sub	esi, 4
	push	edx
	push	ebx
	call	DWORD PTR ___comp$[esp+20]
	add	esp, 8
	test	al, al
	jne	SHORT $LL7@unguarded_@9
$LN6@unguarded_@9:
	add	ebp, 4
	cmp	ebp, DWORD PTR ___last$[esp+12]
	mov	DWORD PTR [edi], ebx
	jne	SHORT $LL3@unguarded_@9
	pop	edi
	pop	esi
	pop	ebx
$LN1@unguarded_@9:
	pop	ebp

; 937  : }

	ret	0
??$__unguarded_insertion_sort_aux@PAPAVCEnvDescriptor@@PAV1@P6A_NPBV1@0@Z@priv@stlp_std@@YAXPAPAVCEnvDescriptor@@00P6A_NPBV2@1@Z@Z ENDP ; stlp_std::priv::__unguarded_insertion_sort_aux<CEnvDescriptor * *,CEnvDescriptor *,bool (__cdecl*)(CEnvDescriptor const *,CEnvDescriptor const *)>
; Function compile flags: /Ogtpy
; File d:\clearsky\sources\sdk\include\stlport\stl\_algobase.h
_TEXT	ENDS
;	COMDAT ??$iter_swap@PAPAVCEnvDescriptor@@PAPAV1@@stlp_std@@YAXPAPAVCEnvDescriptor@@0@Z
_TEXT	SEGMENT
??$iter_swap@PAPAVCEnvDescriptor@@PAPAV1@@stlp_std@@YAXPAPAVCEnvDescriptor@@0@Z PROC ; stlp_std::iter_swap<CEnvDescriptor * *,CEnvDescriptor * *>, COMDAT
; ___i1$ = ecx
; ___i2$ = eax

; 120  :   // swap(*__i1, *__i2);
; 121  :   _STLP_PRIV __iter_swap_aux( __i1, __i2, _IsOKToSwap(_STLP_VALUE_TYPE(__i1, _ForwardIter1), _STLP_VALUE_TYPE(__i2, _ForwardIter2),
; 122  :                                                       _STLP_IS_REF_TYPE_REAL_REF(__i1, _ForwardIter1),
; 123  :                                                       _STLP_IS_REF_TYPE_REAL_REF(__i2, _ForwardIter2))._Answer());

	mov	edx, DWORD PTR [ecx]
	push	esi
	mov	esi, DWORD PTR [eax]
	mov	DWORD PTR [ecx], esi
	mov	DWORD PTR [eax], edx
	pop	esi

; 124  : }

	ret	0
??$iter_swap@PAPAVCEnvDescriptor@@PAPAV1@@stlp_std@@YAXPAPAVCEnvDescriptor@@0@Z ENDP ; stlp_std::iter_swap<CEnvDescriptor * *,CEnvDescriptor * *>
; Function compile flags: /Ogtpy
; File d:\clearsky\sources\sdk\include\stlport\stl\_construct.h
_TEXT	ENDS
;	COMDAT ??$__destroy_range_aux@PAUParticle@CEffect_Rain@@U12@@stlp_std@@YAXPAUParticle@CEffect_Rain@@00ABU__true_type@0@@Z
_TEXT	SEGMENT
??$__destroy_range_aux@PAUParticle@CEffect_Rain@@U12@@stlp_std@@YAXPAUParticle@CEffect_Rain@@00ABU__true_type@0@@Z PROC ; stlp_std::__destroy_range_aux<CEffect_Rain::Particle *,CEffect_Rain::Particle>, COMDAT

; 169  : __destroy_range_aux(_ForwardIterator, _ForwardIterator, _Tp*, const __true_type& /*_Trivial_destructor*/) {}

	ret	0
??$__destroy_range_aux@PAUParticle@CEffect_Rain@@U12@@stlp_std@@YAXPAUParticle@CEffect_Rain@@00ABU__true_type@0@@Z ENDP ; stlp_std::__destroy_range_aux<CEffect_Rain::Particle *,CEffect_Rain::Particle>
; Function compile flags: /Ogtpy
_TEXT	ENDS
;	COMDAT ??$__destroy_range_aux@PAUItem@CEffect_Rain@@U12@@stlp_std@@YAXPAUItem@CEffect_Rain@@00ABU__true_type@0@@Z
_TEXT	SEGMENT
??$__destroy_range_aux@PAUItem@CEffect_Rain@@U12@@stlp_std@@YAXPAUItem@CEffect_Rain@@00ABU__true_type@0@@Z PROC ; stlp_std::__destroy_range_aux<CEffect_Rain::Item *,CEffect_Rain::Item>, COMDAT

; 169  : __destroy_range_aux(_ForwardIterator, _ForwardIterator, _Tp*, const __true_type& /*_Trivial_destructor*/) {}

	ret	0
??$__destroy_range_aux@PAUItem@CEffect_Rain@@U12@@stlp_std@@YAXPAUItem@CEffect_Rain@@00ABU__true_type@0@@Z ENDP ; stlp_std::__destroy_range_aux<CEffect_Rain::Item *,CEffect_Rain::Item>
; Function compile flags: /Ogtpy
; File d:\clearsky\sources\sdk\include\stlport\stl\_function_base.h
_TEXT	ENDS
;	COMDAT ??R?$_Select1st@U?$pair@$$CBVshared_str@@V?$xr_vector@PAVCEnvDescriptor@@V?$xalloc@PAVCEnvDescriptor@@@@@@@stlp_std@@@priv@stlp_std@@QBEABVshared_str@@ABU?$pair@$$CBVshared_str@@V?$xr_vector@PAVCEnvDescriptor@@V?$xalloc@PAVCEnvDescriptor@@@@@@@2@@Z
_TEXT	SEGMENT
??R?$_Select1st@U?$pair@$$CBVshared_str@@V?$xr_vector@PAVCEnvDescriptor@@V?$xalloc@PAVCEnvDescriptor@@@@@@@stlp_std@@@priv@stlp_std@@QBEABVshared_str@@ABU?$pair@$$CBVshared_str@@V?$xr_vector@PAVCEnvDescriptor@@V?$xalloc@PAVCEnvDescriptor@@@@@@@2@@Z PROC ; stlp_std::priv::_Select1st<stlp_std::pair<shared_str const ,xr_vector<CEnvDescriptor *,xalloc<CEnvDescriptor *> > > >::operator(), COMDAT
; ___x$ = eax

; 133  :     return __x.first;
; 134  :   }

	ret	0
??R?$_Select1st@U?$pair@$$CBVshared_str@@V?$xr_vector@PAVCEnvDescriptor@@V?$xalloc@PAVCEnvDescriptor@@@@@@@stlp_std@@@priv@stlp_std@@QBEABVshared_str@@ABU?$pair@$$CBVshared_str@@V?$xr_vector@PAVCEnvDescriptor@@V?$xalloc@PAVCEnvDescriptor@@@@@@@2@@Z ENDP ; stlp_std::priv::_Select1st<stlp_std::pair<shared_str const ,xr_vector<CEnvDescriptor *,xalloc<CEnvDescriptor *> > > >::operator()
; Function compile flags: /Ogtpy
; File d:\clearsky\sources\sdk\include\stlport\stl\type_traits.h
_TEXT	ENDS
;	COMDAT ?_Answer@?$_BothPtrType@PBUParticle@CEffect_Rain@@PAU12@@stlp_std@@SA?AU__true_type@2@XZ
_TEXT	SEGMENT
?_Answer@?$_BothPtrType@PBUParticle@CEffect_Rain@@PAU12@@stlp_std@@SA?AU__true_type@2@XZ PROC ; stlp_std::_BothPtrType<CEffect_Rain::Particle const *,CEffect_Rain::Particle *>::_Answer, COMDAT

; 468  :   static _Ret _Answer() { return _Ret(); }

	xor	al, al
	ret	0
?_Answer@?$_BothPtrType@PBUParticle@CEffect_Rain@@PAU12@@stlp_std@@SA?AU__true_type@2@XZ ENDP ; stlp_std::_BothPtrType<CEffect_Rain::Particle const *,CEffect_Rain::Particle *>::_Answer
; Function compile flags: /Ogtpy
_TEXT	ENDS
;	COMDAT ?_Answer@?$_BothPtrType@PBUItem@CEffect_Rain@@PAU12@@stlp_std@@SA?AU__true_type@2@XZ
_TEXT	SEGMENT
?_Answer@?$_BothPtrType@PBUItem@CEffect_Rain@@PAU12@@stlp_std@@SA?AU__true_type@2@XZ PROC ; stlp_std::_BothPtrType<CEffect_Rain::Item const *,CEffect_Rain::Item *>::_Answer, COMDAT

; 468  :   static _Ret _Answer() { return _Ret(); }

	xor	al, al
	ret	0
?_Answer@?$_BothPtrType@PBUItem@CEffect_Rain@@PAU12@@stlp_std@@SA?AU__true_type@2@XZ ENDP ; stlp_std::_BothPtrType<CEffect_Rain::Item const *,CEffect_Rain::Item *>::_Answer
; Function compile flags: /Ogtpy
_TEXT	ENDS
;	COMDAT ?_Answer@?$_BothPtrType@PBUSFlare@CLensFlareDescriptor@@PAU12@@stlp_std@@SA?AU__true_type@2@XZ
_TEXT	SEGMENT
?_Answer@?$_BothPtrType@PBUSFlare@CLensFlareDescriptor@@PAU12@@stlp_std@@SA?AU__true_type@2@XZ PROC ; stlp_std::_BothPtrType<CLensFlareDescriptor::SFlare const *,CLensFlareDescriptor::SFlare *>::_Answer, COMDAT

; 468  :   static _Ret _Answer() { return _Ret(); }

	xor	al, al
	ret	0
?_Answer@?$_BothPtrType@PBUSFlare@CLensFlareDescriptor@@PAU12@@stlp_std@@SA?AU__true_type@2@XZ ENDP ; stlp_std::_BothPtrType<CLensFlareDescriptor::SFlare const *,CLensFlareDescriptor::SFlare *>::_Answer
; Function compile flags: /Ogtpy
_TEXT	ENDS
;	COMDAT ?_Answer@?$_BothPtrType@PBUrq_result@collide@@PAU12@@stlp_std@@SA?AU__true_type@2@XZ
_TEXT	SEGMENT
?_Answer@?$_BothPtrType@PBUrq_result@collide@@PAU12@@stlp_std@@SA?AU__true_type@2@XZ PROC ; stlp_std::_BothPtrType<collide::rq_result const *,collide::rq_result *>::_Answer, COMDAT

; 468  :   static _Ret _Answer() { return _Ret(); }

	xor	al, al
	ret	0
?_Answer@?$_BothPtrType@PBUrq_result@collide@@PAU12@@stlp_std@@SA?AU__true_type@2@XZ ENDP ; stlp_std::_BothPtrType<collide::rq_result const *,collide::rq_result *>::_Answer
; Function compile flags: /Ogtpy
; File d:\clearsky\sources\sdk\include\stlport\stl\_iterator.h
_TEXT	ENDS
;	COMDAT ??E?$reverse_iterator@PAUSFlare@CLensFlareDescriptor@@@stlp_std@@QAEAAV01@XZ
_TEXT	SEGMENT
??E?$reverse_iterator@PAUSFlare@CLensFlareDescriptor@@@stlp_std@@QAEAAV01@XZ PROC ; stlp_std::reverse_iterator<CLensFlareDescriptor::SFlare *>::operator++, COMDAT
; _this$ = eax

; 82   :     --current;

	add	DWORD PTR [eax], -24			; ffffffe8H

; 83   :     return *this;
; 84   :   }

	ret	0
??E?$reverse_iterator@PAUSFlare@CLensFlareDescriptor@@@stlp_std@@QAEAAV01@XZ ENDP ; stlp_std::reverse_iterator<CLensFlareDescriptor::SFlare *>::operator++
; Function compile flags: /Ogtpy
_TEXT	ENDS
;	COMDAT ??D?$reverse_iterator@PAUSFlare@CLensFlareDescriptor@@@stlp_std@@QBEAAUSFlare@CLensFlareDescriptor@@XZ
_TEXT	SEGMENT
??D?$reverse_iterator@PAUSFlare@CLensFlareDescriptor@@@stlp_std@@QBEAAUSFlare@CLensFlareDescriptor@@XZ PROC ; stlp_std::reverse_iterator<CLensFlareDescriptor::SFlare *>::operator*, COMDAT
; _this$ = eax

; 77   :     _Iterator __tmp = current;
; 78   :     return *--__tmp;

	mov	eax, DWORD PTR [eax]
	sub	eax, 24					; 00000018H

; 79   :   }

	ret	0
??D?$reverse_iterator@PAUSFlare@CLensFlareDescriptor@@@stlp_std@@QBEAAUSFlare@CLensFlareDescriptor@@XZ ENDP ; stlp_std::reverse_iterator<CLensFlareDescriptor::SFlare *>::operator*
; Function compile flags: /Ogtpy
; File d:\clearsky\sources\sdk\include\stlport\stl\_construct.h
_TEXT	ENDS
;	COMDAT ??$__destroy_range_aux@PAUrq_result@collide@@U12@@stlp_std@@YAXPAUrq_result@collide@@00ABU__true_type@0@@Z
_TEXT	SEGMENT
??$__destroy_range_aux@PAUrq_result@collide@@U12@@stlp_std@@YAXPAUrq_result@collide@@00ABU__true_type@0@@Z PROC ; stlp_std::__destroy_range_aux<collide::rq_result *,collide::rq_result>, COMDAT

; 169  : __destroy_range_aux(_ForwardIterator, _ForwardIterator, _Tp*, const __true_type& /*_Trivial_destructor*/) {}

	ret	0
??$__destroy_range_aux@PAUrq_result@collide@@U12@@stlp_std@@YAXPAUrq_result@collide@@00ABU__true_type@0@@Z ENDP ; stlp_std::__destroy_range_aux<collide::rq_result *,collide::rq_result>
; Function compile flags: /Ogtpy
_TEXT	ENDS
;	COMDAT ??$__destroy_range_aux@V?$reverse_iterator@PAUParticle@CEffect_Rain@@@stlp_std@@UParticle@CEffect_Rain@@@stlp_std@@YAXV?$reverse_iterator@PAUParticle@CEffect_Rain@@@0@0PAUParticle@CEffect_Rain@@ABU__true_type@0@@Z
_TEXT	SEGMENT
___formal$ = 8						; size = 4
___formal$ = 12						; size = 4
??$__destroy_range_aux@V?$reverse_iterator@PAUParticle@CEffect_Rain@@@stlp_std@@UParticle@CEffect_Rain@@@stlp_std@@YAXV?$reverse_iterator@PAUParticle@CEffect_Rain@@@0@0PAUParticle@CEffect_Rain@@ABU__true_type@0@@Z PROC ; stlp_std::__destroy_range_aux<stlp_std::reverse_iterator<CEffect_Rain::Particle *>,CEffect_Rain::Particle>, COMDAT

; 169  : __destroy_range_aux(_ForwardIterator, _ForwardIterator, _Tp*, const __true_type& /*_Trivial_destructor*/) {}

	ret	0
??$__destroy_range_aux@V?$reverse_iterator@PAUParticle@CEffect_Rain@@@stlp_std@@UParticle@CEffect_Rain@@@stlp_std@@YAXV?$reverse_iterator@PAUParticle@CEffect_Rain@@@0@0PAUParticle@CEffect_Rain@@ABU__true_type@0@@Z ENDP ; stlp_std::__destroy_range_aux<stlp_std::reverse_iterator<CEffect_Rain::Particle *>,CEffect_Rain::Particle>
; Function compile flags: /Ogtpy
_TEXT	ENDS
;	COMDAT ??$__destroy_range_aux@V?$reverse_iterator@PAUItem@CEffect_Rain@@@stlp_std@@UItem@CEffect_Rain@@@stlp_std@@YAXV?$reverse_iterator@PAUItem@CEffect_Rain@@@0@0PAUItem@CEffect_Rain@@ABU__true_type@0@@Z
_TEXT	SEGMENT
___formal$ = 8						; size = 4
___formal$ = 12						; size = 4
??$__destroy_range_aux@V?$reverse_iterator@PAUItem@CEffect_Rain@@@stlp_std@@UItem@CEffect_Rain@@@stlp_std@@YAXV?$reverse_iterator@PAUItem@CEffect_Rain@@@0@0PAUItem@CEffect_Rain@@ABU__true_type@0@@Z PROC ; stlp_std::__destroy_range_aux<stlp_std::reverse_iterator<CEffect_Rain::Item *>,CEffect_Rain::Item>, COMDAT

; 169  : __destroy_range_aux(_ForwardIterator, _ForwardIterator, _Tp*, const __true_type& /*_Trivial_destructor*/) {}

	ret	0
??$__destroy_range_aux@V?$reverse_iterator@PAUItem@CEffect_Rain@@@stlp_std@@UItem@CEffect_Rain@@@stlp_std@@YAXV?$reverse_iterator@PAUItem@CEffect_Rain@@@0@0PAUItem@CEffect_Rain@@ABU__true_type@0@@Z ENDP ; stlp_std::__destroy_range_aux<stlp_std::reverse_iterator<CEffect_Rain::Item *>,CEffect_Rain::Item>
; Function compile flags: /Ogtpy
_TEXT	ENDS
;	COMDAT ??$__destroy_range_aux@V?$reverse_iterator@PAUrq_result@collide@@@stlp_std@@Urq_result@collide@@@stlp_std@@YAXV?$reverse_iterator@PAUrq_result@collide@@@0@0PAUrq_result@collide@@ABU__true_type@0@@Z
_TEXT	SEGMENT
___formal$ = 8						; size = 4
___formal$ = 12						; size = 4
??$__destroy_range_aux@V?$reverse_iterator@PAUrq_result@collide@@@stlp_std@@Urq_result@collide@@@stlp_std@@YAXV?$reverse_iterator@PAUrq_result@collide@@@0@0PAUrq_result@collide@@ABU__true_type@0@@Z PROC ; stlp_std::__destroy_range_aux<stlp_std::reverse_iterator<collide::rq_result *>,collide::rq_result>, COMDAT

; 169  : __destroy_range_aux(_ForwardIterator, _ForwardIterator, _Tp*, const __true_type& /*_Trivial_destructor*/) {}

	ret	0
??$__destroy_range_aux@V?$reverse_iterator@PAUrq_result@collide@@@stlp_std@@Urq_result@collide@@@stlp_std@@YAXV?$reverse_iterator@PAUrq_result@collide@@@0@0PAUrq_result@collide@@ABU__true_type@0@@Z ENDP ; stlp_std::__destroy_range_aux<stlp_std::reverse_iterator<collide::rq_result *>,collide::rq_result>
; Function compile flags: /Ogtpy
; File d:\clearsky\sources\sdk\include\stlport\stl\_iterator_base.h
_TEXT	ENDS
;	COMDAT ??$advance@PAPAVCEnvDescriptor@@H@stlp_std@@YAXAAPAPAVCEnvDescriptor@@H@Z
_TEXT	SEGMENT
??$advance@PAPAVCEnvDescriptor@@H@stlp_std@@YAXAAPAPAVCEnvDescriptor@@H@Z PROC ; stlp_std::advance<CEnvDescriptor * *,int>, COMDAT
; ___i$ = eax
; ___n$ = ecx

; 527  :   __advance(__i, __n, _STLP_ITERATOR_CATEGORY(__i, _InputIterator));

	lea	edx, DWORD PTR [ecx*4]
	add	DWORD PTR [eax], edx

; 528  : }

	ret	0
??$advance@PAPAVCEnvDescriptor@@H@stlp_std@@YAXAAPAPAVCEnvDescriptor@@H@Z ENDP ; stlp_std::advance<CEnvDescriptor * *,int>
; Function compile flags: /Ogtpy
_TEXT	ENDS
;	COMDAT ??$distance@PAPAVCEnvDescriptor@@@stlp_std@@YAHPAPAVCEnvDescriptor@@0@Z
_TEXT	SEGMENT
___first$ = 8						; size = 4
??$distance@PAPAVCEnvDescriptor@@@stlp_std@@YAHPAPAVCEnvDescriptor@@0@Z PROC ; stlp_std::distance<CEnvDescriptor * *>, COMDAT
; ___last$ = eax

; 378  :   return __distance(__first, __last, _STLP_ITERATOR_CATEGORY(__first, _InputIterator));

	sub	eax, DWORD PTR ___first$[esp-4]
	sar	eax, 2

; 379  : }

	ret	0
??$distance@PAPAVCEnvDescriptor@@@stlp_std@@YAHPAPAVCEnvDescriptor@@0@Z ENDP ; stlp_std::distance<CEnvDescriptor * *>
; Function compile flags: /Ogtpy
; File d:\clearsky\sources\sdk\include\stlport\stl\_algo.c
_TEXT	ENDS
;	COMDAT ??$__unguarded_insertion_sort@PAPAVCEnvDescriptor@@P6A_NPBV1@0@Z@priv@stlp_std@@YAXPAPAVCEnvDescriptor@@0P6A_NPBV2@1@Z@Z
_TEXT	SEGMENT
??$__unguarded_insertion_sort@PAPAVCEnvDescriptor@@P6A_NPBV1@0@Z@priv@stlp_std@@YAXPAPAVCEnvDescriptor@@0P6A_NPBV2@1@Z@Z PROC ; stlp_std::priv::__unguarded_insertion_sort<CEnvDescriptor * *,bool (__cdecl*)(CEnvDescriptor const *,CEnvDescriptor const *)>, COMDAT
; ___first$ = edx
; ___last$ = ecx
; ___comp$ = eax

; 943  :   __unguarded_insertion_sort_aux(__first, __last, _STLP_VALUE_TYPE(__first, _RandomAccessIter), __comp);

	push	eax
	push	ecx
	push	edx
	call	??$__unguarded_insertion_sort_aux@PAPAVCEnvDescriptor@@PAV1@P6A_NPBV1@0@Z@priv@stlp_std@@YAXPAPAVCEnvDescriptor@@00P6A_NPBV2@1@Z@Z ; stlp_std::priv::__unguarded_insertion_sort_aux<CEnvDescriptor * *,CEnvDescriptor *,bool (__cdecl*)(CEnvDescriptor const *,CEnvDescriptor const *)>
	add	esp, 12					; 0000000cH

; 944  : }

	ret	0
??$__unguarded_insertion_sort@PAPAVCEnvDescriptor@@P6A_NPBV1@0@Z@priv@stlp_std@@YAXPAPAVCEnvDescriptor@@0P6A_NPBV2@1@Z@Z ENDP ; stlp_std::priv::__unguarded_insertion_sort<CEnvDescriptor * *,bool (__cdecl*)(CEnvDescriptor const *,CEnvDescriptor const *)>
; Function compile flags: /Ogtpy
_TEXT	ENDS
;	COMDAT ??$__unguarded_partition@PAPAVCEnvDescriptor@@PAV1@P6A_NPBV1@0@Z@priv@stlp_std@@YAPAPAVCEnvDescriptor@@PAPAV2@0PAV2@P6A_NPBV2@2@Z@Z
_TEXT	SEGMENT
___pivot$ = 8						; size = 4
??$__unguarded_partition@PAPAVCEnvDescriptor@@PAV1@P6A_NPBV1@0@Z@priv@stlp_std@@YAPAPAVCEnvDescriptor@@PAPAV2@0PAV2@P6A_NPBV2@2@Z@Z PROC ; stlp_std::priv::__unguarded_partition<CEnvDescriptor * *,CEnvDescriptor *,bool (__cdecl*)(CEnvDescriptor const *,CEnvDescriptor const *)>, COMDAT
; ___first$ = ecx
; ___last$ = eax
; ___comp$ = ebx

; 873  :                                         _Tp __pivot, _Compare __comp) {

	push	ebp
	mov	ebp, DWORD PTR ___pivot$[esp]
	push	esi
	push	edi
	mov	esi, eax
	mov	edi, ecx
	npad	5
$LL7@unguarded_@10:

; 874  :   for (;;) {
; 875  :     while (__comp(*__first, __pivot)) {

	mov	eax, DWORD PTR [edi]
	push	ebp
	push	eax
	call	ebx
	add	esp, 8
	test	al, al
	je	SHORT $LN4@unguarded_@10
	npad	3
$LL5@unguarded_@10:
	mov	ecx, DWORD PTR [edi+4]

; 876  :       _STLP_VERBOSE_ASSERT(!__comp(__pivot, *__first), _StlMsg_INVALID_STRICT_WEAK_PREDICATE)
; 877  :       ++__first;

	add	edi, 4
	push	ebp
	push	ecx
	call	ebx
	add	esp, 8
	test	al, al
	jne	SHORT $LL5@unguarded_@10
$LN4@unguarded_@10:

; 878  :     }
; 879  :     --__last;
; 880  :     while (__comp(__pivot, *__last)) {

	mov	edx, DWORD PTR [esi-4]
	sub	esi, 4
	push	edx
	push	ebp
	call	ebx
	add	esp, 8
	test	al, al
	je	SHORT $LN2@unguarded_@10
$LL3@unguarded_@10:
	mov	eax, DWORD PTR [esi-4]

; 881  :       _STLP_VERBOSE_ASSERT(!__comp(*__last, __pivot), _StlMsg_INVALID_STRICT_WEAK_PREDICATE)
; 882  :       --__last;

	sub	esi, 4
	push	eax
	push	ebp
	call	ebx
	add	esp, 8
	test	al, al
	jne	SHORT $LL3@unguarded_@10
$LN2@unguarded_@10:

; 883  :     }
; 884  :     if (!(__first < __last))

	cmp	edi, esi
	jae	SHORT $LN31@unguarded_@10

; 886  :     iter_swap(__first, __last);

	mov	eax, DWORD PTR [edi]
	mov	ecx, DWORD PTR [esi]
	mov	DWORD PTR [edi], ecx
	mov	DWORD PTR [esi], eax

; 887  :     ++__first;

	add	edi, 4

; 888  :   }

	jmp	SHORT $LL7@unguarded_@10
$LN31@unguarded_@10:

; 885  :       return __first;

	mov	eax, edi
	pop	edi
	pop	esi
	pop	ebp

; 889  : }

	ret	0
??$__unguarded_partition@PAPAVCEnvDescriptor@@PAV1@P6A_NPBV1@0@Z@priv@stlp_std@@YAPAPAVCEnvDescriptor@@PAPAV2@0PAV2@P6A_NPBV2@2@Z@Z ENDP ; stlp_std::priv::__unguarded_partition<CEnvDescriptor * *,CEnvDescriptor *,bool (__cdecl*)(CEnvDescriptor const *,CEnvDescriptor const *)>
; Function compile flags: /Ogtpy
_TEXT	ENDS
;	COMDAT ??$__median@PAVCEnvDescriptor@@P6A_NPBV1@0@Z@priv@stlp_std@@YAABQAVCEnvDescriptor@@ABQAV2@00P6A_NPBV2@1@Z@Z
_TEXT	SEGMENT
___a$ = 8						; size = 4
??$__median@PAVCEnvDescriptor@@P6A_NPBV1@0@Z@priv@stlp_std@@YAABQAVCEnvDescriptor@@ABQAV2@00P6A_NPBV2@1@Z@Z PROC ; stlp_std::priv::__median<CEnvDescriptor *,bool (__cdecl*)(CEnvDescriptor const *,CEnvDescriptor const *)>, COMDAT
; ___b$ = ebx
; ___c$ = edi
; ___comp$ = esi

; 84   :   if (__comp(__a, __b)) {

	mov	eax, DWORD PTR [ebx]
	push	ebp
	mov	ebp, DWORD PTR ___a$[esp]
	mov	ecx, DWORD PTR [ebp]
	push	eax
	push	ecx
	call	esi
	add	esp, 8
	test	al, al
	je	SHORT $LN10@median@4

; 85   :     _STLP_VERBOSE_ASSERT(!__comp(__b, __a), _StlMsg_INVALID_STRICT_WEAK_PREDICATE)
; 86   :     if (__comp(__b, __c)) {

	mov	edx, DWORD PTR [edi]
	mov	eax, DWORD PTR [ebx]
	push	edx
	push	eax
	call	esi
	add	esp, 8
	test	al, al

; 87   :       _STLP_VERBOSE_ASSERT(!__comp(__c, __b), _StlMsg_INVALID_STRICT_WEAK_PREDICATE)
; 88   :       return __b;

	jne	SHORT $LN2@median@4

; 89   :     }
; 90   :     else if (__comp(__a, __c)) {

	mov	ecx, DWORD PTR [edi]
	mov	edx, DWORD PTR [ebp]
	push	ecx
	push	edx
	call	esi
	add	esp, 8
	test	al, al
	je	SHORT $LN7@median@4

; 91   :       _STLP_VERBOSE_ASSERT(!__comp(__c, __a), _StlMsg_INVALID_STRICT_WEAK_PREDICATE)
; 92   :       return __c;

	mov	eax, edi
	pop	ebp

; 107  : }

	ret	0
$LN7@median@4:

; 93   :     }
; 94   :     else
; 95   :       return __a;

	mov	eax, ebp
	pop	ebp

; 107  : }

	ret	0
$LN10@median@4:

; 96   :   }
; 97   :   else if (__comp(__a, __c)) {

	mov	eax, DWORD PTR [edi]
	mov	ecx, DWORD PTR [ebp]
	push	eax
	push	ecx
	call	esi
	add	esp, 8
	test	al, al

; 98   :     _STLP_VERBOSE_ASSERT(!__comp(__c, __a), _StlMsg_INVALID_STRICT_WEAK_PREDICATE)
; 99   :     return __a;

	jne	SHORT $LN7@median@4

; 100  :   }
; 101  :   else if (__comp(__b, __c)) {

	mov	edx, DWORD PTR [edi]
	mov	eax, DWORD PTR [ebx]
	push	edx
	push	eax
	call	esi
	add	esp, 8
	test	al, al

; 102  :     _STLP_VERBOSE_ASSERT(!__comp(__c, __b), _StlMsg_INVALID_STRICT_WEAK_PREDICATE)
; 103  :     return __c;

	mov	eax, edi
	jne	SHORT $LN1@median@4
$LN2@median@4:

; 104  :   }
; 105  :   else
; 106  :     return __b;

	mov	eax, ebx
$LN1@median@4:
	pop	ebp

; 107  : }

	ret	0
??$__median@PAVCEnvDescriptor@@P6A_NPBV1@0@Z@priv@stlp_std@@YAABQAVCEnvDescriptor@@ABQAV2@00P6A_NPBV2@1@Z@Z ENDP ; stlp_std::priv::__median<CEnvDescriptor *,bool (__cdecl*)(CEnvDescriptor const *,CEnvDescriptor const *)>
; Function compile flags: /Ogtpy
; File d:\clearsky\sources\sdk\include\stlport\stl\_algobase.h
_TEXT	ENDS
;	COMDAT ??$fill@PAMM@stlp_std@@YAXPAM0ABM@Z
_TEXT	SEGMENT
??$fill@PAMM@stlp_std@@YAXPAM0ABM@Z PROC		; stlp_std::fill<float *,float>, COMDAT
; ___first$ = eax
; ___last$ = ecx
; ___val$ = edx

; 393  :   _STLP_DEBUG_CHECK(_STLP_PRIV __check_range(__first, __last))
; 394  :   for ( ; __first != __last; ++__first)

	cmp	eax, ecx
	je	SHORT $LN1@fill@6
$LL3@fill@6:

; 395  :     *__first = __val;

	fld	DWORD PTR [edx]
	add	eax, 4
	cmp	eax, ecx
	fstp	DWORD PTR [eax-4]
	jne	SHORT $LL3@fill@6
$LN1@fill@6:

; 396  : }

	ret	0
??$fill@PAMM@stlp_std@@YAXPAM0ABM@Z ENDP		; stlp_std::fill<float *,float>
; Function compile flags: /Ogtpy
_TEXT	ENDS
;	COMDAT ??$__fill_n@PAMIM@priv@stlp_std@@YAPAMPAMIABM@Z
_TEXT	SEGMENT
??$__fill_n@PAMIM@priv@stlp_std@@YAPAMPAMIABM@Z PROC	; stlp_std::priv::__fill_n<float *,unsigned int,float>, COMDAT
; ___first$ = eax
; ___n$ = ecx
; ___val$ = edx

; 403  :   _STLP_FIX_LITERAL_BUG(__first)
; 404  :   for ( ; __n > 0; --__n, ++__first)

	test	ecx, ecx
	jbe	SHORT $LN1@fill_n@14
$LL3@fill_n@14:

; 405  :     *__first = __val;

	fld	DWORD PTR [edx]
	sub	ecx, 1
	fstp	DWORD PTR [eax]
	add	eax, 4
	test	ecx, ecx
	ja	SHORT $LL3@fill_n@14
$LN1@fill_n@14:

; 406  :   return __first;
; 407  : }

	ret	0
??$__fill_n@PAMIM@priv@stlp_std@@YAPAMPAMIABM@Z ENDP	; stlp_std::priv::__fill_n<float *,unsigned int,float>
; Function compile flags: /Ogtpy
; File d:\clearsky\sources\sdk\include\stlport\stl\_construct.h
_TEXT	ENDS
;	COMDAT ??$__destroy_range@PAUParticle@CEffect_Rain@@U12@@stlp_std@@YAXPAUParticle@CEffect_Rain@@00@Z
_TEXT	SEGMENT
??$__destroy_range@PAUParticle@CEffect_Rain@@U12@@stlp_std@@YAXPAUParticle@CEffect_Rain@@00@Z PROC ; stlp_std::__destroy_range<CEffect_Rain::Particle *,CEffect_Rain::Particle>, COMDAT

; 175  :   typedef typename __type_traits<_Tp>::has_trivial_destructor _Trivial_destructor;
; 176  :   __destroy_range_aux(__first, __last, __ptr, _Trivial_destructor());
; 177  : }

	ret	0
??$__destroy_range@PAUParticle@CEffect_Rain@@U12@@stlp_std@@YAXPAUParticle@CEffect_Rain@@00@Z ENDP ; stlp_std::__destroy_range<CEffect_Rain::Particle *,CEffect_Rain::Particle>
; Function compile flags: /Ogtpy
_TEXT	ENDS
;	COMDAT ??$__destroy_range@PAUItem@CEffect_Rain@@U12@@stlp_std@@YAXPAUItem@CEffect_Rain@@00@Z
_TEXT	SEGMENT
??$__destroy_range@PAUItem@CEffect_Rain@@U12@@stlp_std@@YAXPAUItem@CEffect_Rain@@00@Z PROC ; stlp_std::__destroy_range<CEffect_Rain::Item *,CEffect_Rain::Item>, COMDAT

; 175  :   typedef typename __type_traits<_Tp>::has_trivial_destructor _Trivial_destructor;
; 176  :   __destroy_range_aux(__first, __last, __ptr, _Trivial_destructor());
; 177  : }

	ret	0
??$__destroy_range@PAUItem@CEffect_Rain@@U12@@stlp_std@@YAXPAUItem@CEffect_Rain@@00@Z ENDP ; stlp_std::__destroy_range<CEffect_Rain::Item *,CEffect_Rain::Item>
; Function compile flags: /Ogtpy
; File d:\clearsky\sources\sdk\include\stlport\stl\_algobase.h
_TEXT	ENDS
;	COMDAT ??$fill@PAGG@stlp_std@@YAXPAG0ABG@Z
_TEXT	SEGMENT
??$fill@PAGG@stlp_std@@YAXPAG0ABG@Z PROC		; stlp_std::fill<unsigned short *,unsigned short>, COMDAT
; ___first$ = eax
; ___last$ = ecx
; ___val$ = edx

; 393  :   _STLP_DEBUG_CHECK(_STLP_PRIV __check_range(__first, __last))
; 394  :   for ( ; __first != __last; ++__first)

	cmp	eax, ecx
	je	SHORT $LN1@fill@7
	push	esi
$LL3@fill@7:

; 395  :     *__first = __val;

	mov	si, WORD PTR [edx]
	mov	WORD PTR [eax], si
	add	eax, 2
	cmp	eax, ecx
	jne	SHORT $LL3@fill@7
	pop	esi
$LN1@fill@7:

; 396  : }

	ret	0
??$fill@PAGG@stlp_std@@YAXPAG0ABG@Z ENDP		; stlp_std::fill<unsigned short *,unsigned short>
; Function compile flags: /Ogtpy
_TEXT	ENDS
;	COMDAT ??$__fill_n@PAGIG@priv@stlp_std@@YAPAGPAGIABG@Z
_TEXT	SEGMENT
??$__fill_n@PAGIG@priv@stlp_std@@YAPAGPAGIABG@Z PROC	; stlp_std::priv::__fill_n<unsigned short *,unsigned int,unsigned short>, COMDAT
; ___first$ = eax
; ___n$ = ecx
; ___val$ = edx

; 403  :   _STLP_FIX_LITERAL_BUG(__first)
; 404  :   for ( ; __n > 0; --__n, ++__first)

	test	ecx, ecx
	jbe	SHORT $LN1@fill_n@15
	push	esi
$LL3@fill_n@15:

; 405  :     *__first = __val;

	mov	si, WORD PTR [edx]
	mov	WORD PTR [eax], si
	sub	ecx, 1
	add	eax, 2
	test	ecx, ecx
	ja	SHORT $LL3@fill_n@15
	pop	esi
$LN1@fill_n@15:

; 406  :   return __first;
; 407  : }

	ret	0
??$__fill_n@PAGIG@priv@stlp_std@@YAPAGPAGIABG@Z ENDP	; stlp_std::priv::__fill_n<unsigned short *,unsigned int,unsigned short>
; Function compile flags: /Ogtpy
_TEXT	ENDS
;	COMDAT ??$fill@PAU?$_vector3@M@@U1@@stlp_std@@YAXPAU?$_vector3@M@@0ABU1@@Z
_TEXT	SEGMENT
??$fill@PAU?$_vector3@M@@U1@@stlp_std@@YAXPAU?$_vector3@M@@0ABU1@@Z PROC ; stlp_std::fill<_vector3<float> *,_vector3<float> >, COMDAT
; ___first$ = eax
; ___last$ = edx
; ___val$ = ecx

; 393  :   _STLP_DEBUG_CHECK(_STLP_PRIV __check_range(__first, __last))
; 394  :   for ( ; __first != __last; ++__first)

	cmp	eax, edx
	je	SHORT $LN1@fill@8
	push	esi
$LL3@fill@8:

; 395  :     *__first = __val;

	mov	esi, DWORD PTR [ecx]
	mov	DWORD PTR [eax], esi
	mov	esi, DWORD PTR [ecx+4]
	mov	DWORD PTR [eax+4], esi
	mov	esi, DWORD PTR [ecx+8]
	mov	DWORD PTR [eax+8], esi
	add	eax, 12					; 0000000cH
	cmp	eax, edx
	jne	SHORT $LL3@fill@8
	pop	esi
$LN1@fill@8:

; 396  : }

	ret	0
??$fill@PAU?$_vector3@M@@U1@@stlp_std@@YAXPAU?$_vector3@M@@0ABU1@@Z ENDP ; stlp_std::fill<_vector3<float> *,_vector3<float> >
; Function compile flags: /Ogtpy
_TEXT	ENDS
;	COMDAT ??$__fill_n@PAU?$_vector3@M@@IU1@@priv@stlp_std@@YAPAU?$_vector3@M@@PAU2@IABU2@@Z
_TEXT	SEGMENT
??$__fill_n@PAU?$_vector3@M@@IU1@@priv@stlp_std@@YAPAU?$_vector3@M@@PAU2@IABU2@@Z PROC ; stlp_std::priv::__fill_n<_vector3<float> *,unsigned int,_vector3<float> >, COMDAT
; ___first$ = eax
; ___n$ = edx
; ___val$ = ecx

; 403  :   _STLP_FIX_LITERAL_BUG(__first)
; 404  :   for ( ; __n > 0; --__n, ++__first)

	test	edx, edx
	jbe	SHORT $LN1@fill_n@16
	push	esi
$LL3@fill_n@16:

; 405  :     *__first = __val;

	mov	esi, DWORD PTR [ecx]
	mov	DWORD PTR [eax], esi
	mov	esi, DWORD PTR [ecx+4]
	mov	DWORD PTR [eax+4], esi
	mov	esi, DWORD PTR [ecx+8]
	mov	DWORD PTR [eax+8], esi
	sub	edx, 1
	add	eax, 12					; 0000000cH
	test	edx, edx
	ja	SHORT $LL3@fill_n@16
	pop	esi
$LN1@fill_n@16:

; 406  :   return __first;
; 407  : }

	ret	0
??$__fill_n@PAU?$_vector3@M@@IU1@@priv@stlp_std@@YAPAU?$_vector3@M@@PAU2@IABU2@@Z ENDP ; stlp_std::priv::__fill_n<_vector3<float> *,unsigned int,_vector3<float> >
; Function compile flags: /Ogtpy
; File d:\clearsky\sources\sdk\include\stlport\stl\_vector.h
_TEXT	ENDS
;	COMDAT ?_M_set@?$_Impl_vector@MV?$xalloc@M@@@priv@stlp_std@@AAEXPAM00@Z
_TEXT	SEGMENT
___e$ = 8						; size = 4
?_M_set@?$_Impl_vector@MV?$xalloc@M@@@priv@stlp_std@@AAEXPAM00@Z PROC ; stlp_std::priv::_Impl_vector<float,xalloc<float> >::_M_set, COMDAT
; _this$ = eax
; ___s$ = ecx
; ___f$ = edx

; 626  :     this->_M_start = __s;

	mov	DWORD PTR [eax], ecx

; 627  :     this->_M_finish = __f;
; 628  :     this->_M_end_of_storage._M_data = __e;

	mov	ecx, DWORD PTR ___e$[esp-4]
	mov	DWORD PTR [eax+4], edx
	mov	DWORD PTR [eax+8], ecx

; 629  :   }

	ret	4
?_M_set@?$_Impl_vector@MV?$xalloc@M@@@priv@stlp_std@@AAEXPAM00@Z ENDP ; stlp_std::priv::_Impl_vector<float,xalloc<float> >::_M_set
; Function compile flags: /Ogtpy
_TEXT	ENDS
;	COMDAT ?_M_is_inside@?$_Impl_vector@MV?$xalloc@M@@@priv@stlp_std@@ABE_NABM@Z
_TEXT	SEGMENT
?_M_is_inside@?$_Impl_vector@MV?$xalloc@M@@@priv@stlp_std@@ABE_NABM@Z PROC ; stlp_std::priv::_Impl_vector<float,xalloc<float> >::_M_is_inside, COMDAT
; _this$ = ecx
; ___x$ = eax

; 393  :     return (&__x >= this->_M_start && &__x < this->_M_finish);

	cmp	eax, DWORD PTR [ecx]
	jb	SHORT $LN3@M_is_insid@10
	cmp	eax, DWORD PTR [ecx+4]
	jae	SHORT $LN3@M_is_insid@10
	mov	eax, 1

; 394  :   }

	ret	0
$LN3@M_is_insid@10:

; 393  :     return (&__x >= this->_M_start && &__x < this->_M_finish);

	xor	eax, eax

; 394  :   }

	ret	0
?_M_is_inside@?$_Impl_vector@MV?$xalloc@M@@@priv@stlp_std@@ABE_NABM@Z ENDP ; stlp_std::priv::_Impl_vector<float,xalloc<float> >::_M_is_inside
; Function compile flags: /Ogtpy
_TEXT	ENDS
;	COMDAT ?_M_set@?$_Impl_vector@GV?$xalloc@G@@@priv@stlp_std@@AAEXPAG00@Z
_TEXT	SEGMENT
___e$ = 8						; size = 4
?_M_set@?$_Impl_vector@GV?$xalloc@G@@@priv@stlp_std@@AAEXPAG00@Z PROC ; stlp_std::priv::_Impl_vector<unsigned short,xalloc<unsigned short> >::_M_set, COMDAT
; _this$ = eax
; ___s$ = ecx
; ___f$ = edx

; 626  :     this->_M_start = __s;

	mov	DWORD PTR [eax], ecx

; 627  :     this->_M_finish = __f;
; 628  :     this->_M_end_of_storage._M_data = __e;

	mov	ecx, DWORD PTR ___e$[esp-4]
	mov	DWORD PTR [eax+4], edx
	mov	DWORD PTR [eax+8], ecx

; 629  :   }

	ret	4
?_M_set@?$_Impl_vector@GV?$xalloc@G@@@priv@stlp_std@@AAEXPAG00@Z ENDP ; stlp_std::priv::_Impl_vector<unsigned short,xalloc<unsigned short> >::_M_set
; Function compile flags: /Ogtpy
_TEXT	ENDS
;	COMDAT ?_M_is_inside@?$_Impl_vector@GV?$xalloc@G@@@priv@stlp_std@@ABE_NABG@Z
_TEXT	SEGMENT
?_M_is_inside@?$_Impl_vector@GV?$xalloc@G@@@priv@stlp_std@@ABE_NABG@Z PROC ; stlp_std::priv::_Impl_vector<unsigned short,xalloc<unsigned short> >::_M_is_inside, COMDAT
; _this$ = ecx
; ___x$ = eax

; 393  :     return (&__x >= this->_M_start && &__x < this->_M_finish);

	cmp	eax, DWORD PTR [ecx]
	jb	SHORT $LN3@M_is_insid@11
	cmp	eax, DWORD PTR [ecx+4]
	jae	SHORT $LN3@M_is_insid@11
	mov	eax, 1

; 394  :   }

	ret	0
$LN3@M_is_insid@11:

; 393  :     return (&__x >= this->_M_start && &__x < this->_M_finish);

	xor	eax, eax

; 394  :   }

	ret	0
?_M_is_inside@?$_Impl_vector@GV?$xalloc@G@@@priv@stlp_std@@ABE_NABG@Z ENDP ; stlp_std::priv::_Impl_vector<unsigned short,xalloc<unsigned short> >::_M_is_inside
; Function compile flags: /Ogtpy
_TEXT	ENDS
;	COMDAT ?_M_set@?$_Impl_vector@U?$_vector3@M@@V?$xalloc@U?$_vector3@M@@@@@priv@stlp_std@@AAEXPAU?$_vector3@M@@00@Z
_TEXT	SEGMENT
___e$ = 8						; size = 4
?_M_set@?$_Impl_vector@U?$_vector3@M@@V?$xalloc@U?$_vector3@M@@@@@priv@stlp_std@@AAEXPAU?$_vector3@M@@00@Z PROC ; stlp_std::priv::_Impl_vector<_vector3<float>,xalloc<_vector3<float> > >::_M_set, COMDAT
; _this$ = eax
; ___s$ = ecx
; ___f$ = edx

; 626  :     this->_M_start = __s;

	mov	DWORD PTR [eax], ecx

; 627  :     this->_M_finish = __f;
; 628  :     this->_M_end_of_storage._M_data = __e;

	mov	ecx, DWORD PTR ___e$[esp-4]
	mov	DWORD PTR [eax+4], edx
	mov	DWORD PTR [eax+8], ecx

; 629  :   }

	ret	4
?_M_set@?$_Impl_vector@U?$_vector3@M@@V?$xalloc@U?$_vector3@M@@@@@priv@stlp_std@@AAEXPAU?$_vector3@M@@00@Z ENDP ; stlp_std::priv::_Impl_vector<_vector3<float>,xalloc<_vector3<float> > >::_M_set
; Function compile flags: /Ogtpy
_TEXT	ENDS
;	COMDAT ?_M_is_inside@?$_Impl_vector@U?$_vector3@M@@V?$xalloc@U?$_vector3@M@@@@@priv@stlp_std@@ABE_NABU?$_vector3@M@@@Z
_TEXT	SEGMENT
?_M_is_inside@?$_Impl_vector@U?$_vector3@M@@V?$xalloc@U?$_vector3@M@@@@@priv@stlp_std@@ABE_NABU?$_vector3@M@@@Z PROC ; stlp_std::priv::_Impl_vector<_vector3<float>,xalloc<_vector3<float> > >::_M_is_inside, COMDAT
; _this$ = ecx
; ___x$ = eax

; 393  :     return (&__x >= this->_M_start && &__x < this->_M_finish);

	cmp	eax, DWORD PTR [ecx]
	jb	SHORT $LN3@M_is_insid@12
	cmp	eax, DWORD PTR [ecx+4]
	jae	SHORT $LN3@M_is_insid@12
	mov	eax, 1

; 394  :   }

	ret	0
$LN3@M_is_insid@12:

; 393  :     return (&__x >= this->_M_start && &__x < this->_M_finish);

	xor	eax, eax

; 394  :   }

	ret	0
?_M_is_inside@?$_Impl_vector@U?$_vector3@M@@V?$xalloc@U?$_vector3@M@@@@@priv@stlp_std@@ABE_NABU?$_vector3@M@@@Z ENDP ; stlp_std::priv::_Impl_vector<_vector3<float>,xalloc<_vector3<float> > >::_M_is_inside
; Function compile flags: /Ogtpy
; File d:\clearsky\sources\sdk\include\stlport\stl\_construct.h
_TEXT	ENDS
;	COMDAT ??$__destroy_range@PAUrq_result@collide@@U12@@stlp_std@@YAXPAUrq_result@collide@@00@Z
_TEXT	SEGMENT
??$__destroy_range@PAUrq_result@collide@@U12@@stlp_std@@YAXPAUrq_result@collide@@00@Z PROC ; stlp_std::__destroy_range<collide::rq_result *,collide::rq_result>, COMDAT

; 175  :   typedef typename __type_traits<_Tp>::has_trivial_destructor _Trivial_destructor;
; 176  :   __destroy_range_aux(__first, __last, __ptr, _Trivial_destructor());
; 177  : }

	ret	0
??$__destroy_range@PAUrq_result@collide@@U12@@stlp_std@@YAXPAUrq_result@collide@@00@Z ENDP ; stlp_std::__destroy_range<collide::rq_result *,collide::rq_result>
; Function compile flags: /Ogtpy
; File d:\clearsky\sources\sdk\include\stlport\stl\_algobase.c
_TEXT	ENDS
;	COMDAT ??$__lower_bound@PAPAVCEnvDescriptor@@MP6A_NPBV1@M@ZP6A_N0M@ZH@priv@stlp_std@@YAPAPAVCEnvDescriptor@@PAPAV2@0ABMP6A_NPBV2@M@Z3PAH@Z
_TEXT	SEGMENT
??$__lower_bound@PAPAVCEnvDescriptor@@MP6A_NPBV1@M@ZP6A_N0M@ZH@priv@stlp_std@@YAPAPAVCEnvDescriptor@@PAPAV2@0ABMP6A_NPBV2@M@Z3PAH@Z PROC ; stlp_std::priv::__lower_bound<CEnvDescriptor * *,float,bool (__cdecl*)(CEnvDescriptor const *,float),bool (__cdecl*)(CEnvDescriptor const *,float),int>, COMDAT
; ___first$ = eax
; ___last$ = edx
; ___val$ = ecx

; 375  :   _Distance __len = distance(__first, __last);

	sub	edx, eax
	sar	edx, 2

; 376  :   _Distance __half;
; 377  :   _ForwardIter __middle;
; 378  : 
; 379  :   while (__len > 0) {

	test	edx, edx
	jle	SHORT $LN3@lower_boun@2
	movss	xmm0, DWORD PTR [ecx]
	push	esi
	npad	2
$LL4@lower_boun@2:

; 380  :     __half = __len >> 1;

	mov	ecx, edx
	sar	ecx, 1

; 381  :     __middle = __first;
; 382  :     advance(__middle, __half);
; 383  :     if (__comp1(*__middle, __val)) {

	mov	esi, DWORD PTR [eax+ecx*4]
	comiss	xmm0, DWORD PTR [esi]
	jbe	SHORT $LN2@lower_boun@2

; 384  :       _STLP_VERBOSE_ASSERT(!__comp2(__val, *__middle), _StlMsg_INVALID_STRICT_WEAK_PREDICATE)
; 385  :       __first = __middle;
; 386  :       ++__first;
; 387  :       __len = __len - __half - 1;

	or	esi, -1
	sub	esi, ecx
	lea	eax, DWORD PTR [eax+ecx*4+4]
	add	edx, esi

; 388  :     }
; 389  :     else

	jmp	SHORT $LN1@lower_boun@2
$LN2@lower_boun@2:

; 390  :       __len = __half;

	mov	edx, ecx
$LN1@lower_boun@2:

; 376  :   _Distance __half;
; 377  :   _ForwardIter __middle;
; 378  : 
; 379  :   while (__len > 0) {

	test	edx, edx
	jg	SHORT $LL4@lower_boun@2
	pop	esi
$LN3@lower_boun@2:

; 391  :   }
; 392  :   return __first;
; 393  : }

	ret	0
??$__lower_bound@PAPAVCEnvDescriptor@@MP6A_NPBV1@M@ZP6A_N0M@ZH@priv@stlp_std@@YAPAPAVCEnvDescriptor@@PAPAV2@0ABMP6A_NPBV2@M@Z3PAH@Z ENDP ; stlp_std::priv::__lower_bound<CEnvDescriptor * *,float,bool (__cdecl*)(CEnvDescriptor const *,float),bool (__cdecl*)(CEnvDescriptor const *,float),int>
; Function compile flags: /Ogtpy
; File d:\clearsky\sources\sdk\include\stlport\stl\_construct.h
_TEXT	ENDS
;	COMDAT ??$_Destroy_Range@PAUParticle@CEffect_Rain@@@stlp_std@@YAXPAUParticle@CEffect_Rain@@0@Z
_TEXT	SEGMENT
??$_Destroy_Range@PAUParticle@CEffect_Rain@@@stlp_std@@YAXPAUParticle@CEffect_Rain@@0@Z PROC ; stlp_std::_Destroy_Range<CEffect_Rain::Particle *>, COMDAT

; 181  :   __destroy_range(__first, __last, _STLP_VALUE_TYPE(__first, _ForwardIterator));
; 182  : }

	ret	0
??$_Destroy_Range@PAUParticle@CEffect_Rain@@@stlp_std@@YAXPAUParticle@CEffect_Rain@@0@Z ENDP ; stlp_std::_Destroy_Range<CEffect_Rain::Particle *>
; Function compile flags: /Ogtpy
_TEXT	ENDS
;	COMDAT ??$_Destroy_Range@PAUItem@CEffect_Rain@@@stlp_std@@YAXPAUItem@CEffect_Rain@@0@Z
_TEXT	SEGMENT
??$_Destroy_Range@PAUItem@CEffect_Rain@@@stlp_std@@YAXPAUItem@CEffect_Rain@@0@Z PROC ; stlp_std::_Destroy_Range<CEffect_Rain::Item *>, COMDAT

; 181  :   __destroy_range(__first, __last, _STLP_VALUE_TYPE(__first, _ForwardIterator));
; 182  : }

	ret	0
??$_Destroy_Range@PAUItem@CEffect_Rain@@@stlp_std@@YAXPAUItem@CEffect_Rain@@0@Z ENDP ; stlp_std::_Destroy_Range<CEffect_Rain::Item *>
; Function compile flags: /Ogtpy
; File d:\clearsky\sources\sdk\include\stlport\stl\_algo.h
_TEXT	ENDS
;	COMDAT ??$__lg@H@priv@stlp_std@@YAHH@Z
_TEXT	SEGMENT
??$__lg@H@priv@stlp_std@@YAHH@Z PROC			; stlp_std::priv::__lg<int>, COMDAT
; ___n$ = ecx

; 425  :   _Size __k;
; 426  :   for (__k = 0; __n != 1; __n >>= 1) ++__k;

	xor	eax, eax
	cmp	ecx, 1
	je	SHORT $LN1@lg
$LL3@lg:
	sar	ecx, 1
	add	eax, 1
	cmp	ecx, 1
	jne	SHORT $LL3@lg
$LN1@lg:

; 427  :   return __k;
; 428  : }

	ret	0
??$__lg@H@priv@stlp_std@@YAHH@Z ENDP			; stlp_std::priv::__lg<int>
; Function compile flags: /Ogtpy
; File d:\clearsky\sources\sdk\include\stlport\stl\_iterator.h
_TEXT	ENDS
;	COMDAT ??0?$reverse_iterator@PAUParticle@CEffect_Rain@@@stlp_std@@QAE@ABV01@@Z
_TEXT	SEGMENT
??0?$reverse_iterator@PAUParticle@CEffect_Rain@@@stlp_std@@QAE@ABV01@@Z PROC ; stlp_std::reverse_iterator<CEffect_Rain::Particle *>::reverse_iterator<CEffect_Rain::Particle *>, COMDAT
; _this$ = eax
; ___x$ = ecx

; 66   :   reverse_iterator(const _Self& __x) : current(__x.current) {}

	mov	edx, DWORD PTR [ecx]
	mov	DWORD PTR [eax], edx
	ret	0
??0?$reverse_iterator@PAUParticle@CEffect_Rain@@@stlp_std@@QAE@ABV01@@Z ENDP ; stlp_std::reverse_iterator<CEffect_Rain::Particle *>::reverse_iterator<CEffect_Rain::Particle *>
; Function compile flags: /Ogtpy
_TEXT	ENDS
;	COMDAT ??0?$reverse_iterator@PAUItem@CEffect_Rain@@@stlp_std@@QAE@ABV01@@Z
_TEXT	SEGMENT
??0?$reverse_iterator@PAUItem@CEffect_Rain@@@stlp_std@@QAE@ABV01@@Z PROC ; stlp_std::reverse_iterator<CEffect_Rain::Item *>::reverse_iterator<CEffect_Rain::Item *>, COMDAT
; _this$ = eax
; ___x$ = ecx

; 66   :   reverse_iterator(const _Self& __x) : current(__x.current) {}

	mov	edx, DWORD PTR [ecx]
	mov	DWORD PTR [eax], edx
	ret	0
??0?$reverse_iterator@PAUItem@CEffect_Rain@@@stlp_std@@QAE@ABV01@@Z ENDP ; stlp_std::reverse_iterator<CEffect_Rain::Item *>::reverse_iterator<CEffect_Rain::Item *>
; Function compile flags: /Ogtpy
_TEXT	ENDS
;	COMDAT ??0?$reverse_iterator@PAUSFlare@CLensFlareDescriptor@@@stlp_std@@QAE@ABV01@@Z
_TEXT	SEGMENT
??0?$reverse_iterator@PAUSFlare@CLensFlareDescriptor@@@stlp_std@@QAE@ABV01@@Z PROC ; stlp_std::reverse_iterator<CLensFlareDescriptor::SFlare *>::reverse_iterator<CLensFlareDescriptor::SFlare *>, COMDAT
; _this$ = eax
; ___x$ = ecx

; 66   :   reverse_iterator(const _Self& __x) : current(__x.current) {}

	mov	edx, DWORD PTR [ecx]
	mov	DWORD PTR [eax], edx
	ret	0
??0?$reverse_iterator@PAUSFlare@CLensFlareDescriptor@@@stlp_std@@QAE@ABV01@@Z ENDP ; stlp_std::reverse_iterator<CLensFlareDescriptor::SFlare *>::reverse_iterator<CLensFlareDescriptor::SFlare *>
; Function compile flags: /Ogtpy
_TEXT	ENDS
;	COMDAT ??0?$reverse_iterator@PAUrq_result@collide@@@stlp_std@@QAE@ABV01@@Z
_TEXT	SEGMENT
??0?$reverse_iterator@PAUrq_result@collide@@@stlp_std@@QAE@ABV01@@Z PROC ; stlp_std::reverse_iterator<collide::rq_result *>::reverse_iterator<collide::rq_result *>, COMDAT
; _this$ = eax
; ___x$ = ecx

; 66   :   reverse_iterator(const _Self& __x) : current(__x.current) {}

	mov	edx, DWORD PTR [ecx]
	mov	DWORD PTR [eax], edx
	ret	0
??0?$reverse_iterator@PAUrq_result@collide@@@stlp_std@@QAE@ABV01@@Z ENDP ; stlp_std::reverse_iterator<collide::rq_result *>::reverse_iterator<collide::rq_result *>
; Function compile flags: /Ogtpy
; File d:\clearsky\sources\sdk\include\stlport\stl\_vector.h
_TEXT	ENDS
;	COMDAT ?capacity@?$_Impl_vector@UParticle@CEffect_Rain@@V?$xalloc@UParticle@CEffect_Rain@@@@@priv@stlp_std@@QBEIXZ
_TEXT	SEGMENT
?capacity@?$_Impl_vector@UParticle@CEffect_Rain@@V?$xalloc@UParticle@CEffect_Rain@@@@@priv@stlp_std@@QBEIXZ PROC ; stlp_std::priv::_Impl_vector<CEffect_Rain::Particle,xalloc<CEffect_Rain::Particle> >::capacity, COMDAT
; _this$ = eax

; 187  :   size_type capacity() const    { return size_type(this->_M_end_of_storage._M_data - this->_M_start); }

	mov	ecx, DWORD PTR [eax+8]
	sub	ecx, DWORD PTR [eax]
	mov	eax, -1307163959			; b21642c9H
	imul	ecx
	add	edx, ecx
	sar	edx, 6
	mov	eax, edx
	shr	eax, 31					; 0000001fH
	add	eax, edx
	ret	0
?capacity@?$_Impl_vector@UParticle@CEffect_Rain@@V?$xalloc@UParticle@CEffect_Rain@@@@@priv@stlp_std@@QBEIXZ ENDP ; stlp_std::priv::_Impl_vector<CEffect_Rain::Particle,xalloc<CEffect_Rain::Particle> >::capacity
; Function compile flags: /Ogtpy
_TEXT	ENDS
;	COMDAT ?capacity@?$_Impl_vector@UItem@CEffect_Rain@@V?$xalloc@UItem@CEffect_Rain@@@@@priv@stlp_std@@QBEIXZ
_TEXT	SEGMENT
?capacity@?$_Impl_vector@UItem@CEffect_Rain@@V?$xalloc@UItem@CEffect_Rain@@@@@priv@stlp_std@@QBEIXZ PROC ; stlp_std::priv::_Impl_vector<CEffect_Rain::Item,xalloc<CEffect_Rain::Item> >::capacity, COMDAT
; _this$ = eax

; 187  :   size_type capacity() const    { return size_type(this->_M_end_of_storage._M_data - this->_M_start); }

	mov	ecx, DWORD PTR [eax+8]
	sub	ecx, DWORD PTR [eax]
	mov	eax, 1321528399				; 4ec4ec4fH
	imul	ecx
	sar	edx, 4
	mov	eax, edx
	shr	eax, 31					; 0000001fH
	add	eax, edx
	ret	0
?capacity@?$_Impl_vector@UItem@CEffect_Rain@@V?$xalloc@UItem@CEffect_Rain@@@@@priv@stlp_std@@QBEIXZ ENDP ; stlp_std::priv::_Impl_vector<CEffect_Rain::Item,xalloc<CEffect_Rain::Item> >::capacity
; Function compile flags: /Ogtpy
_TEXT	ENDS
;	COMDAT ?capacity@?$_Impl_vector@USFlare@CLensFlareDescriptor@@V?$xalloc@USFlare@CLensFlareDescriptor@@@@@priv@stlp_std@@QBEIXZ
_TEXT	SEGMENT
?capacity@?$_Impl_vector@USFlare@CLensFlareDescriptor@@V?$xalloc@USFlare@CLensFlareDescriptor@@@@@priv@stlp_std@@QBEIXZ PROC ; stlp_std::priv::_Impl_vector<CLensFlareDescriptor::SFlare,xalloc<CLensFlareDescriptor::SFlare> >::capacity, COMDAT
; _this$ = eax

; 187  :   size_type capacity() const    { return size_type(this->_M_end_of_storage._M_data - this->_M_start); }

	mov	ecx, DWORD PTR [eax+8]
	sub	ecx, DWORD PTR [eax]
	mov	eax, 715827883				; 2aaaaaabH
	imul	ecx
	sar	edx, 2
	mov	eax, edx
	shr	eax, 31					; 0000001fH
	add	eax, edx
	ret	0
?capacity@?$_Impl_vector@USFlare@CLensFlareDescriptor@@V?$xalloc@USFlare@CLensFlareDescriptor@@@@@priv@stlp_std@@QBEIXZ ENDP ; stlp_std::priv::_Impl_vector<CLensFlareDescriptor::SFlare,xalloc<CLensFlareDescriptor::SFlare> >::capacity
; Function compile flags: /Ogtpy
; File d:\clearsky\sources\engine\xrcore\xrmemory.h
_TEXT	ENDS
;	COMDAT ??$xr_alloc@UParticle@CEffect_Rain@@@@YAPAUParticle@CEffect_Rain@@I@Z
_TEXT	SEGMENT
??$xr_alloc@UParticle@CEffect_Rain@@@@YAPAUParticle@CEffect_Rain@@I@Z PROC ; xr_alloc<CEffect_Rain::Particle>, COMDAT
; _count$ = eax

; 109  : 	IC T*		xr_alloc	(u32 count)				{	return  (T*)Memory.mem_alloc(count*sizeof(T));	}

	mov	ecx, DWORD PTR __imp_?Memory@@3VxrMemory@@A
	imul	eax, 92					; 0000005cH
	push	eax
	call	DWORD PTR __imp_?mem_alloc@xrMemory@@QAEPAXI@Z
	ret	0
??$xr_alloc@UParticle@CEffect_Rain@@@@YAPAUParticle@CEffect_Rain@@I@Z ENDP ; xr_alloc<CEffect_Rain::Particle>
; Function compile flags: /Ogtpy
_TEXT	ENDS
;	COMDAT ??$xr_alloc@UItem@CEffect_Rain@@@@YAPAUItem@CEffect_Rain@@I@Z
_TEXT	SEGMENT
??$xr_alloc@UItem@CEffect_Rain@@@@YAPAUItem@CEffect_Rain@@I@Z PROC ; xr_alloc<CEffect_Rain::Item>, COMDAT
; _count$ = eax

; 109  : 	IC T*		xr_alloc	(u32 count)				{	return  (T*)Memory.mem_alloc(count*sizeof(T));	}

	mov	ecx, DWORD PTR __imp_?Memory@@3VxrMemory@@A
	imul	eax, 52					; 00000034H
	push	eax
	call	DWORD PTR __imp_?mem_alloc@xrMemory@@QAEPAXI@Z
	ret	0
??$xr_alloc@UItem@CEffect_Rain@@@@YAPAUItem@CEffect_Rain@@I@Z ENDP ; xr_alloc<CEffect_Rain::Item>
; Function compile flags: /Ogtpy
_TEXT	ENDS
;	COMDAT ??$xr_alloc@USFlare@CLensFlareDescriptor@@@@YAPAUSFlare@CLensFlareDescriptor@@I@Z
_TEXT	SEGMENT
??$xr_alloc@USFlare@CLensFlareDescriptor@@@@YAPAUSFlare@CLensFlareDescriptor@@I@Z PROC ; xr_alloc<CLensFlareDescriptor::SFlare>, COMDAT
; _count$ = eax

; 109  : 	IC T*		xr_alloc	(u32 count)				{	return  (T*)Memory.mem_alloc(count*sizeof(T));	}

	mov	ecx, DWORD PTR __imp_?Memory@@3VxrMemory@@A
	lea	eax, DWORD PTR [eax+eax*2]
	add	eax, eax
	add	eax, eax
	add	eax, eax
	push	eax
	call	DWORD PTR __imp_?mem_alloc@xrMemory@@QAEPAXI@Z
	ret	0
??$xr_alloc@USFlare@CLensFlareDescriptor@@@@YAPAUSFlare@CLensFlareDescriptor@@I@Z ENDP ; xr_alloc<CLensFlareDescriptor::SFlare>
; Function compile flags: /Ogtpy
_TEXT	ENDS
;	COMDAT ??$xr_alloc@Urq_result@collide@@@@YAPAUrq_result@collide@@I@Z
_TEXT	SEGMENT
??$xr_alloc@Urq_result@collide@@@@YAPAUrq_result@collide@@I@Z PROC ; xr_alloc<collide::rq_result>, COMDAT
; _count$ = eax

; 109  : 	IC T*		xr_alloc	(u32 count)				{	return  (T*)Memory.mem_alloc(count*sizeof(T));	}

	mov	ecx, DWORD PTR __imp_?Memory@@3VxrMemory@@A
	lea	eax, DWORD PTR [eax+eax*2]
	add	eax, eax
	add	eax, eax
	push	eax
	call	DWORD PTR __imp_?mem_alloc@xrMemory@@QAEPAXI@Z
	ret	0
??$xr_alloc@Urq_result@collide@@@@YAPAUrq_result@collide@@I@Z ENDP ; xr_alloc<collide::rq_result>
; Function compile flags: /Ogtpy
; File d:\clearsky\sources\sdk\include\stlport\stl\_construct.h
_TEXT	ENDS
;	COMDAT ??$_Destroy_Range@PAUrq_result@collide@@@stlp_std@@YAXPAUrq_result@collide@@0@Z
_TEXT	SEGMENT
??$_Destroy_Range@PAUrq_result@collide@@@stlp_std@@YAXPAUrq_result@collide@@0@Z PROC ; stlp_std::_Destroy_Range<collide::rq_result *>, COMDAT

; 181  :   __destroy_range(__first, __last, _STLP_VALUE_TYPE(__first, _ForwardIterator));
; 182  : }

	ret	0
??$_Destroy_Range@PAUrq_result@collide@@@stlp_std@@YAXPAUrq_result@collide@@0@Z ENDP ; stlp_std::_Destroy_Range<collide::rq_result *>
; Function compile flags: /Ogtpy
; File d:\clearsky\sources\engine\xrcore\xrmemory.h
_TEXT	ENDS
;	COMDAT ??$xr_free@UParticle@CEffect_Rain@@@@YAXAAPAUParticle@CEffect_Rain@@@Z
_TEXT	SEGMENT
??$xr_free@UParticle@CEffect_Rain@@@@YAXAAPAUParticle@CEffect_Rain@@@Z PROC ; xr_free<CEffect_Rain::Particle>, COMDAT
; _P$ = esi

; 111  : 	IC void		xr_free		(T* &P)					{	if (P) { Memory.mem_free((void*)P); P=NULL;	};	}

	mov	eax, DWORD PTR [esi]
	test	eax, eax
	je	SHORT $LN1@xr_free@27
	mov	ecx, DWORD PTR __imp_?Memory@@3VxrMemory@@A
	push	eax
	call	DWORD PTR __imp_?mem_free@xrMemory@@QAEXPAX@Z
	mov	DWORD PTR [esi], 0
$LN1@xr_free@27:
	ret	0
??$xr_free@UParticle@CEffect_Rain@@@@YAXAAPAUParticle@CEffect_Rain@@@Z ENDP ; xr_free<CEffect_Rain::Particle>
; Function compile flags: /Ogtpy
_TEXT	ENDS
;	COMDAT ??$xr_free@UItem@CEffect_Rain@@@@YAXAAPAUItem@CEffect_Rain@@@Z
_TEXT	SEGMENT
??$xr_free@UItem@CEffect_Rain@@@@YAXAAPAUItem@CEffect_Rain@@@Z PROC ; xr_free<CEffect_Rain::Item>, COMDAT
; _P$ = esi

; 111  : 	IC void		xr_free		(T* &P)					{	if (P) { Memory.mem_free((void*)P); P=NULL;	};	}

	mov	eax, DWORD PTR [esi]
	test	eax, eax
	je	SHORT $LN1@xr_free@28
	mov	ecx, DWORD PTR __imp_?Memory@@3VxrMemory@@A
	push	eax
	call	DWORD PTR __imp_?mem_free@xrMemory@@QAEXPAX@Z
	mov	DWORD PTR [esi], 0
$LN1@xr_free@28:
	ret	0
??$xr_free@UItem@CEffect_Rain@@@@YAXAAPAUItem@CEffect_Rain@@@Z ENDP ; xr_free<CEffect_Rain::Item>
; Function compile flags: /Ogtpy
_TEXT	ENDS
;	COMDAT ??$xr_free@USFlare@CLensFlareDescriptor@@@@YAXAAPAUSFlare@CLensFlareDescriptor@@@Z
_TEXT	SEGMENT
??$xr_free@USFlare@CLensFlareDescriptor@@@@YAXAAPAUSFlare@CLensFlareDescriptor@@@Z PROC ; xr_free<CLensFlareDescriptor::SFlare>, COMDAT
; _P$ = esi

; 111  : 	IC void		xr_free		(T* &P)					{	if (P) { Memory.mem_free((void*)P); P=NULL;	};	}

	mov	eax, DWORD PTR [esi]
	test	eax, eax
	je	SHORT $LN1@xr_free@29
	mov	ecx, DWORD PTR __imp_?Memory@@3VxrMemory@@A
	push	eax
	call	DWORD PTR __imp_?mem_free@xrMemory@@QAEXPAX@Z
	mov	DWORD PTR [esi], 0
$LN1@xr_free@29:
	ret	0
??$xr_free@USFlare@CLensFlareDescriptor@@@@YAXAAPAUSFlare@CLensFlareDescriptor@@@Z ENDP ; xr_free<CLensFlareDescriptor::SFlare>
; Function compile flags: /Ogtpy
_TEXT	ENDS
;	COMDAT ??$xr_free@Urq_result@collide@@@@YAXAAPAUrq_result@collide@@@Z
_TEXT	SEGMENT
??$xr_free@Urq_result@collide@@@@YAXAAPAUrq_result@collide@@@Z PROC ; xr_free<collide::rq_result>, COMDAT
; _P$ = esi

; 111  : 	IC void		xr_free		(T* &P)					{	if (P) { Memory.mem_free((void*)P); P=NULL;	};	}

	mov	eax, DWORD PTR [esi]
	test	eax, eax
	je	SHORT $LN1@xr_free@30
	mov	ecx, DWORD PTR __imp_?Memory@@3VxrMemory@@A
	push	eax
	call	DWORD PTR __imp_?mem_free@xrMemory@@QAEXPAX@Z
	mov	DWORD PTR [esi], 0
$LN1@xr_free@30:
	ret	0
??$xr_free@Urq_result@collide@@@@YAXAAPAUrq_result@collide@@@Z ENDP ; xr_free<collide::rq_result>
; Function compile flags: /Ogtpy
; File d:\clearsky\sources\engine\xrcore\_stl_extensions.h
_TEXT	ENDS
;	COMDAT ??$?0PAVCEnvAmbient@@@?$xalloc@PAX@@QAE@ABV?$xalloc@PAVCEnvAmbient@@@@@Z
_TEXT	SEGMENT
??$?0PAVCEnvAmbient@@@?$xalloc@PAX@@QAE@ABV?$xalloc@PAVCEnvAmbient@@@@@Z PROC ; xalloc<void *>::xalloc<void *><CEnvAmbient *>, COMDAT
; _this$ = eax

; 79   : 	template<class _Other>							xalloc			(const xalloc<_Other>&)					{	}

	ret	0
??$?0PAVCEnvAmbient@@@?$xalloc@PAX@@QAE@ABV?$xalloc@PAVCEnvAmbient@@@@@Z ENDP ; xalloc<void *>::xalloc<void *><CEnvAmbient *>
; Function compile flags: /Ogtpy
; File d:\clearsky\sources\sdk\include\stlport\stl\_vector.c
_TEXT	ENDS
;	COMDAT ?_M_throw_out_of_range@?$_Vector_base@PAXV?$xalloc@PAX@@@priv@stlp_std@@IBEXXZ
_TEXT	SEGMENT
?_M_throw_out_of_range@?$_Vector_base@PAXV?$xalloc@PAX@@@priv@stlp_std@@IBEXXZ PROC ; stlp_std::priv::_Vector_base<void *,xalloc<void *> >::_M_throw_out_of_range, COMDAT

; 46   :   __stl_throw_out_of_range("vector");

	push	OFFSET ??_C@_06NBFPPGEG@vector?$AA@
	call	DWORD PTR __imp__puts
	add	esp, 4
	jmp	DWORD PTR __imp__abort
?_M_throw_out_of_range@?$_Vector_base@PAXV?$xalloc@PAX@@@priv@stlp_std@@IBEXXZ ENDP ; stlp_std::priv::_Vector_base<void *,xalloc<void *> >::_M_throw_out_of_range
; Function compile flags: /Ogtpy
; File d:\clearsky\sources\engine\xrcore\_vector3d.h
_TEXT	ENDS
;	COMDAT ??$_valid@M@@YAHABU?$_vector3@M@@@Z
_TEXT	SEGMENT
??$_valid@M@@YAHABU?$_vector3@M@@@Z PROC		; _valid<float>, COMDAT
; _v$ = esi

; 442  : BOOL	_valid			(const _vector3<T>& v)	{ return _valid((T)v.x) && _valid((T)v.y) && _valid((T)v.z);	}

	push	ebp
	mov	ebp, esp
	and	esp, -64				; ffffffc0H
	fld	DWORD PTR [esi]
	sub	esp, 60					; 0000003cH
	push	edi
	mov	edi, DWORD PTR __imp___fpclass
	sub	esp, 8
	fstp	QWORD PTR [esp]
	call	edi
	add	esp, 8
	test	eax, 663				; 00000297H
	jne	SHORT $LN3@valid
	fld	DWORD PTR [esi+4]
	sub	esp, 8
	fstp	QWORD PTR [esp]
	call	edi
	add	esp, 8
	test	eax, 663				; 00000297H
	jne	SHORT $LN3@valid
	fld	DWORD PTR [esi+8]
	sub	esp, 8
	fstp	QWORD PTR [esp]
	call	edi
	add	esp, 8
	test	eax, 663				; 00000297H
	jne	SHORT $LN3@valid
	mov	eax, 1
	pop	edi
	mov	esp, ebp
	pop	ebp
	ret	0
$LN3@valid:
	xor	eax, eax
	pop	edi
	mov	esp, ebp
	pop	ebp
	ret	0
??$_valid@M@@YAHABU?$_vector3@M@@@Z ENDP		; _valid<float>
; Function compile flags: /Ogtpy
; File d:\clearsky\sources\sdk\include\stlport\stl\_algo.h
_TEXT	ENDS
;	COMDAT ??$lower_bound@PAPAVCEnvDescriptor@@MP6A_NPBV1@M@Z@stlp_std@@YAPAPAVCEnvDescriptor@@PAPAV1@0ABMP6A_NPBV1@M@Z@Z
_TEXT	SEGMENT
___val$ = 8						; size = 4
??$lower_bound@PAPAVCEnvDescriptor@@MP6A_NPBV1@M@Z@stlp_std@@YAPAPAVCEnvDescriptor@@PAPAV1@0ABMP6A_NPBV1@M@Z@Z PROC ; stlp_std::lower_bound<CEnvDescriptor * *,float,bool (__cdecl*)(CEnvDescriptor const *,float)>, COMDAT
; ___first$ = ecx
; ___last$ = eax

; 507  :                                 const _Tp& __val, _Compare __comp) {

	push	ebx
	push	ebp
	mov	ebp, DWORD PTR ___val$[esp+4]
	push	edi
	mov	edi, eax
	mov	ebx, ecx

; 508  :   _STLP_DEBUG_CHECK(_STLP_PRIV __check_range(__first, __last))
; 509  :   return _STLP_PRIV __lower_bound(__first, __last, __val, __comp, __comp,
; 510  :                                   _STLP_DISTANCE_TYPE(__first, _ForwardIter));

	sub	edi, ebx
	sar	edi, 2
	test	edi, edi
	jle	SHORT $LN18@lower_boun@3
	push	esi
$LL6@lower_boun@3:
	fld	DWORD PTR [ebp]
	mov	esi, edi
	push	ecx
	sar	esi, 1
	fstp	DWORD PTR [esp]
	mov	eax, DWORD PTR [ebx+esi*4]
	push	eax
	call	?lb_env_pred@@YA_NPBVCEnvDescriptor@@M@Z ; lb_env_pred
	add	esp, 8
	test	al, al
	je	SHORT $LN4@lower_boun@3
	or	ecx, -1
	sub	ecx, esi
	lea	ebx, DWORD PTR [ebx+esi*4+4]
	add	edi, ecx
	jmp	SHORT $LN3@lower_boun@3
$LN4@lower_boun@3:
	mov	edi, esi
$LN3@lower_boun@3:
	test	edi, edi
	jg	SHORT $LL6@lower_boun@3
	pop	esi
$LN18@lower_boun@3:
	pop	edi
	pop	ebp
	mov	eax, ebx
	pop	ebx

; 511  : }

	ret	0
??$lower_bound@PAPAVCEnvDescriptor@@MP6A_NPBV1@M@Z@stlp_std@@YAPAPAVCEnvDescriptor@@PAPAV1@0ABMP6A_NPBV1@M@Z@Z ENDP ; stlp_std::lower_bound<CEnvDescriptor * *,float,bool (__cdecl*)(CEnvDescriptor const *,float)>
; Function compile flags: /Ogtpy
; File d:\clearsky\sources\engine\xrcore\_stl_extensions.h
_TEXT	ENDS
;	COMDAT ?allocate@?$xalloc@UParticle@CEffect_Rain@@@@QBEPAUParticle@CEffect_Rain@@IPBX@Z
_TEXT	SEGMENT
?allocate@?$xalloc@UParticle@CEffect_Rain@@@@QBEPAUParticle@CEffect_Rain@@IPBX@Z PROC ; xalloc<CEffect_Rain::Particle>::allocate, COMDAT
; _n$ = eax

; 81   : 							pointer					allocate		(size_type n, const void* p=0) const	{	return xr_alloc<T>((u32)n);	}

	mov	ecx, DWORD PTR __imp_?Memory@@3VxrMemory@@A
	imul	eax, 92					; 0000005cH
	push	eax
	call	DWORD PTR __imp_?mem_alloc@xrMemory@@QAEPAXI@Z
	ret	0
?allocate@?$xalloc@UParticle@CEffect_Rain@@@@QBEPAUParticle@CEffect_Rain@@IPBX@Z ENDP ; xalloc<CEffect_Rain::Particle>::allocate
; Function compile flags: /Ogtpy
_TEXT	ENDS
;	COMDAT ?allocate@?$xalloc@UItem@CEffect_Rain@@@@QBEPAUItem@CEffect_Rain@@IPBX@Z
_TEXT	SEGMENT
?allocate@?$xalloc@UItem@CEffect_Rain@@@@QBEPAUItem@CEffect_Rain@@IPBX@Z PROC ; xalloc<CEffect_Rain::Item>::allocate, COMDAT
; _n$ = eax

; 81   : 							pointer					allocate		(size_type n, const void* p=0) const	{	return xr_alloc<T>((u32)n);	}

	mov	ecx, DWORD PTR __imp_?Memory@@3VxrMemory@@A
	imul	eax, 52					; 00000034H
	push	eax
	call	DWORD PTR __imp_?mem_alloc@xrMemory@@QAEPAXI@Z
	ret	0
?allocate@?$xalloc@UItem@CEffect_Rain@@@@QBEPAUItem@CEffect_Rain@@IPBX@Z ENDP ; xalloc<CEffect_Rain::Item>::allocate
; Function compile flags: /Ogtpy
_TEXT	ENDS
;	COMDAT ?allocate@?$xalloc@USFlare@CLensFlareDescriptor@@@@QBEPAUSFlare@CLensFlareDescriptor@@IPBX@Z
_TEXT	SEGMENT
?allocate@?$xalloc@USFlare@CLensFlareDescriptor@@@@QBEPAUSFlare@CLensFlareDescriptor@@IPBX@Z PROC ; xalloc<CLensFlareDescriptor::SFlare>::allocate, COMDAT
; _n$ = eax

; 81   : 							pointer					allocate		(size_type n, const void* p=0) const	{	return xr_alloc<T>((u32)n);	}

	mov	ecx, DWORD PTR __imp_?Memory@@3VxrMemory@@A
	lea	eax, DWORD PTR [eax+eax*2]
	add	eax, eax
	add	eax, eax
	add	eax, eax
	push	eax
	call	DWORD PTR __imp_?mem_alloc@xrMemory@@QAEPAXI@Z
	ret	0
?allocate@?$xalloc@USFlare@CLensFlareDescriptor@@@@QBEPAUSFlare@CLensFlareDescriptor@@IPBX@Z ENDP ; xalloc<CLensFlareDescriptor::SFlare>::allocate
; Function compile flags: /Ogtpy
_TEXT	ENDS
;	COMDAT ?allocate@?$xalloc@Urq_result@collide@@@@QBEPAUrq_result@collide@@IPBX@Z
_TEXT	SEGMENT
?allocate@?$xalloc@Urq_result@collide@@@@QBEPAUrq_result@collide@@IPBX@Z PROC ; xalloc<collide::rq_result>::allocate, COMDAT
; _n$ = eax

; 81   : 							pointer					allocate		(size_type n, const void* p=0) const	{	return xr_alloc<T>((u32)n);	}

	mov	ecx, DWORD PTR __imp_?Memory@@3VxrMemory@@A
	lea	eax, DWORD PTR [eax+eax*2]
	add	eax, eax
	add	eax, eax
	push	eax
	call	DWORD PTR __imp_?mem_alloc@xrMemory@@QAEPAXI@Z
	ret	0
?allocate@?$xalloc@Urq_result@collide@@@@QBEPAUrq_result@collide@@IPBX@Z ENDP ; xalloc<collide::rq_result>::allocate
; Function compile flags: /Ogtpy
; File d:\clearsky\sources\sdk\include\stlport\stl\_alloc.h
_TEXT	ENDS
;	COMDAT ?allocate@?$_STLP_alloc_proxy@PAUParticle@CEffect_Rain@@U12@V?$xalloc@UParticle@CEffect_Rain@@@@@priv@stlp_std@@QAEPAUParticle@CEffect_Rain@@I@Z
_TEXT	SEGMENT
?allocate@?$_STLP_alloc_proxy@PAUParticle@CEffect_Rain@@U12@V?$xalloc@UParticle@CEffect_Rain@@@@@priv@stlp_std@@QAEPAUParticle@CEffect_Rain@@I@Z PROC ; stlp_std::priv::_STLP_alloc_proxy<CEffect_Rain::Particle *,CEffect_Rain::Particle,xalloc<CEffect_Rain::Particle> >::allocate, COMDAT
; ___n$ = eax

; 633  :   { return _Base::allocate(__n); }

	mov	ecx, DWORD PTR __imp_?Memory@@3VxrMemory@@A
	imul	eax, 92					; 0000005cH
	push	eax
	call	DWORD PTR __imp_?mem_alloc@xrMemory@@QAEPAXI@Z
	ret	0
?allocate@?$_STLP_alloc_proxy@PAUParticle@CEffect_Rain@@U12@V?$xalloc@UParticle@CEffect_Rain@@@@@priv@stlp_std@@QAEPAUParticle@CEffect_Rain@@I@Z ENDP ; stlp_std::priv::_STLP_alloc_proxy<CEffect_Rain::Particle *,CEffect_Rain::Particle,xalloc<CEffect_Rain::Particle> >::allocate
; Function compile flags: /Ogtpy
_TEXT	ENDS
;	COMDAT ?allocate@?$_STLP_alloc_proxy@PAUItem@CEffect_Rain@@U12@V?$xalloc@UItem@CEffect_Rain@@@@@priv@stlp_std@@QAEPAUItem@CEffect_Rain@@I@Z
_TEXT	SEGMENT
?allocate@?$_STLP_alloc_proxy@PAUItem@CEffect_Rain@@U12@V?$xalloc@UItem@CEffect_Rain@@@@@priv@stlp_std@@QAEPAUItem@CEffect_Rain@@I@Z PROC ; stlp_std::priv::_STLP_alloc_proxy<CEffect_Rain::Item *,CEffect_Rain::Item,xalloc<CEffect_Rain::Item> >::allocate, COMDAT
; ___n$ = eax

; 633  :   { return _Base::allocate(__n); }

	mov	ecx, DWORD PTR __imp_?Memory@@3VxrMemory@@A
	imul	eax, 52					; 00000034H
	push	eax
	call	DWORD PTR __imp_?mem_alloc@xrMemory@@QAEPAXI@Z
	ret	0
?allocate@?$_STLP_alloc_proxy@PAUItem@CEffect_Rain@@U12@V?$xalloc@UItem@CEffect_Rain@@@@@priv@stlp_std@@QAEPAUItem@CEffect_Rain@@I@Z ENDP ; stlp_std::priv::_STLP_alloc_proxy<CEffect_Rain::Item *,CEffect_Rain::Item,xalloc<CEffect_Rain::Item> >::allocate
; Function compile flags: /Ogtpy
_TEXT	ENDS
;	COMDAT ?allocate@?$_STLP_alloc_proxy@PAUSFlare@CLensFlareDescriptor@@U12@V?$xalloc@USFlare@CLensFlareDescriptor@@@@@priv@stlp_std@@QAEPAUSFlare@CLensFlareDescriptor@@I@Z
_TEXT	SEGMENT
?allocate@?$_STLP_alloc_proxy@PAUSFlare@CLensFlareDescriptor@@U12@V?$xalloc@USFlare@CLensFlareDescriptor@@@@@priv@stlp_std@@QAEPAUSFlare@CLensFlareDescriptor@@I@Z PROC ; stlp_std::priv::_STLP_alloc_proxy<CLensFlareDescriptor::SFlare *,CLensFlareDescriptor::SFlare,xalloc<CLensFlareDescriptor::SFlare> >::allocate, COMDAT
; ___n$ = eax

; 633  :   { return _Base::allocate(__n); }

	mov	ecx, DWORD PTR __imp_?Memory@@3VxrMemory@@A
	lea	eax, DWORD PTR [eax+eax*2]
	add	eax, eax
	add	eax, eax
	add	eax, eax
	push	eax
	call	DWORD PTR __imp_?mem_alloc@xrMemory@@QAEPAXI@Z
	ret	0
?allocate@?$_STLP_alloc_proxy@PAUSFlare@CLensFlareDescriptor@@U12@V?$xalloc@USFlare@CLensFlareDescriptor@@@@@priv@stlp_std@@QAEPAUSFlare@CLensFlareDescriptor@@I@Z ENDP ; stlp_std::priv::_STLP_alloc_proxy<CLensFlareDescriptor::SFlare *,CLensFlareDescriptor::SFlare,xalloc<CLensFlareDescriptor::SFlare> >::allocate
; Function compile flags: /Ogtpy
_TEXT	ENDS
;	COMDAT ?allocate@?$_STLP_alloc_proxy@PAUrq_result@collide@@U12@V?$xalloc@Urq_result@collide@@@@@priv@stlp_std@@QAEPAUrq_result@collide@@I@Z
_TEXT	SEGMENT
?allocate@?$_STLP_alloc_proxy@PAUrq_result@collide@@U12@V?$xalloc@Urq_result@collide@@@@@priv@stlp_std@@QAEPAUrq_result@collide@@I@Z PROC ; stlp_std::priv::_STLP_alloc_proxy<collide::rq_result *,collide::rq_result,xalloc<collide::rq_result> >::allocate, COMDAT
; ___n$ = eax

; 633  :   { return _Base::allocate(__n); }

	mov	ecx, DWORD PTR __imp_?Memory@@3VxrMemory@@A
	lea	eax, DWORD PTR [eax+eax*2]
	add	eax, eax
	add	eax, eax
	push	eax
	call	DWORD PTR __imp_?mem_alloc@xrMemory@@QAEPAXI@Z
	ret	0
?allocate@?$_STLP_alloc_proxy@PAUrq_result@collide@@U12@V?$xalloc@Urq_result@collide@@@@@priv@stlp_std@@QAEPAUrq_result@collide@@I@Z ENDP ; stlp_std::priv::_STLP_alloc_proxy<collide::rq_result *,collide::rq_result,xalloc<collide::rq_result> >::allocate
; Function compile flags: /Ogtpy
_TEXT	ENDS
;	COMDAT ?allocate@?$_STLP_alloc_proxy@PAUParticle@CEffect_Rain@@U12@V?$xalloc@UParticle@CEffect_Rain@@@@@priv@stlp_std@@AAEPAUParticle@CEffect_Rain@@IAAIABU__false_type@3@@Z
_TEXT	SEGMENT
?allocate@?$_STLP_alloc_proxy@PAUParticle@CEffect_Rain@@U12@V?$xalloc@UParticle@CEffect_Rain@@@@@priv@stlp_std@@AAEPAUParticle@CEffect_Rain@@IAAIABU__false_type@3@@Z PROC ; stlp_std::priv::_STLP_alloc_proxy<CEffect_Rain::Particle *,CEffect_Rain::Particle,xalloc<CEffect_Rain::Particle> >::allocate, COMDAT
; ___n$ = eax
; ___allocated_n$ = ecx

; 640  :   { __allocated_n = __n; return allocate(__n); }

	mov	DWORD PTR [ecx], eax
	imul	eax, 92					; 0000005cH
	mov	ecx, DWORD PTR __imp_?Memory@@3VxrMemory@@A
	push	eax
	call	DWORD PTR __imp_?mem_alloc@xrMemory@@QAEPAXI@Z
	ret	0
?allocate@?$_STLP_alloc_proxy@PAUParticle@CEffect_Rain@@U12@V?$xalloc@UParticle@CEffect_Rain@@@@@priv@stlp_std@@AAEPAUParticle@CEffect_Rain@@IAAIABU__false_type@3@@Z ENDP ; stlp_std::priv::_STLP_alloc_proxy<CEffect_Rain::Particle *,CEffect_Rain::Particle,xalloc<CEffect_Rain::Particle> >::allocate
; Function compile flags: /Ogtpy
_TEXT	ENDS
;	COMDAT ?allocate@?$_STLP_alloc_proxy@PAUItem@CEffect_Rain@@U12@V?$xalloc@UItem@CEffect_Rain@@@@@priv@stlp_std@@AAEPAUItem@CEffect_Rain@@IAAIABU__false_type@3@@Z
_TEXT	SEGMENT
?allocate@?$_STLP_alloc_proxy@PAUItem@CEffect_Rain@@U12@V?$xalloc@UItem@CEffect_Rain@@@@@priv@stlp_std@@AAEPAUItem@CEffect_Rain@@IAAIABU__false_type@3@@Z PROC ; stlp_std::priv::_STLP_alloc_proxy<CEffect_Rain::Item *,CEffect_Rain::Item,xalloc<CEffect_Rain::Item> >::allocate, COMDAT
; ___n$ = eax
; ___allocated_n$ = ecx

; 640  :   { __allocated_n = __n; return allocate(__n); }

	mov	DWORD PTR [ecx], eax
	imul	eax, 52					; 00000034H
	mov	ecx, DWORD PTR __imp_?Memory@@3VxrMemory@@A
	push	eax
	call	DWORD PTR __imp_?mem_alloc@xrMemory@@QAEPAXI@Z
	ret	0
?allocate@?$_STLP_alloc_proxy@PAUItem@CEffect_Rain@@U12@V?$xalloc@UItem@CEffect_Rain@@@@@priv@stlp_std@@AAEPAUItem@CEffect_Rain@@IAAIABU__false_type@3@@Z ENDP ; stlp_std::priv::_STLP_alloc_proxy<CEffect_Rain::Item *,CEffect_Rain::Item,xalloc<CEffect_Rain::Item> >::allocate
; Function compile flags: /Ogtpy
_TEXT	ENDS
;	COMDAT ?allocate@?$_STLP_alloc_proxy@PAUSFlare@CLensFlareDescriptor@@U12@V?$xalloc@USFlare@CLensFlareDescriptor@@@@@priv@stlp_std@@AAEPAUSFlare@CLensFlareDescriptor@@IAAIABU__false_type@3@@Z
_TEXT	SEGMENT
?allocate@?$_STLP_alloc_proxy@PAUSFlare@CLensFlareDescriptor@@U12@V?$xalloc@USFlare@CLensFlareDescriptor@@@@@priv@stlp_std@@AAEPAUSFlare@CLensFlareDescriptor@@IAAIABU__false_type@3@@Z PROC ; stlp_std::priv::_STLP_alloc_proxy<CLensFlareDescriptor::SFlare *,CLensFlareDescriptor::SFlare,xalloc<CLensFlareDescriptor::SFlare> >::allocate, COMDAT
; ___n$ = eax
; ___allocated_n$ = ecx

; 640  :   { __allocated_n = __n; return allocate(__n); }

	lea	edx, DWORD PTR [eax+eax*2]
	add	edx, edx
	add	edx, edx
	add	edx, edx
	mov	DWORD PTR [ecx], eax
	mov	ecx, DWORD PTR __imp_?Memory@@3VxrMemory@@A
	push	edx
	call	DWORD PTR __imp_?mem_alloc@xrMemory@@QAEPAXI@Z
	ret	0
?allocate@?$_STLP_alloc_proxy@PAUSFlare@CLensFlareDescriptor@@U12@V?$xalloc@USFlare@CLensFlareDescriptor@@@@@priv@stlp_std@@AAEPAUSFlare@CLensFlareDescriptor@@IAAIABU__false_type@3@@Z ENDP ; stlp_std::priv::_STLP_alloc_proxy<CLensFlareDescriptor::SFlare *,CLensFlareDescriptor::SFlare,xalloc<CLensFlareDescriptor::SFlare> >::allocate
; Function compile flags: /Ogtpy
_TEXT	ENDS
;	COMDAT ?allocate@?$_STLP_alloc_proxy@PAUrq_result@collide@@U12@V?$xalloc@Urq_result@collide@@@@@priv@stlp_std@@AAEPAUrq_result@collide@@IAAIABU__false_type@3@@Z
_TEXT	SEGMENT
?allocate@?$_STLP_alloc_proxy@PAUrq_result@collide@@U12@V?$xalloc@Urq_result@collide@@@@@priv@stlp_std@@AAEPAUrq_result@collide@@IAAIABU__false_type@3@@Z PROC ; stlp_std::priv::_STLP_alloc_proxy<collide::rq_result *,collide::rq_result,xalloc<collide::rq_result> >::allocate, COMDAT
; ___n$ = eax
; ___allocated_n$ = ecx

; 640  :   { __allocated_n = __n; return allocate(__n); }

	lea	edx, DWORD PTR [eax+eax*2]
	add	edx, edx
	add	edx, edx
	mov	DWORD PTR [ecx], eax
	mov	ecx, DWORD PTR __imp_?Memory@@3VxrMemory@@A
	push	edx
	call	DWORD PTR __imp_?mem_alloc@xrMemory@@QAEPAXI@Z
	ret	0
?allocate@?$_STLP_alloc_proxy@PAUrq_result@collide@@U12@V?$xalloc@Urq_result@collide@@@@@priv@stlp_std@@AAEPAUrq_result@collide@@IAAIABU__false_type@3@@Z ENDP ; stlp_std::priv::_STLP_alloc_proxy<collide::rq_result *,collide::rq_result,xalloc<collide::rq_result> >::allocate
; Function compile flags: /Ogtpy
_TEXT	ENDS
;	COMDAT ?allocate@?$_STLP_alloc_proxy@PAUParticle@CEffect_Rain@@U12@V?$xalloc@UParticle@CEffect_Rain@@@@@priv@stlp_std@@QAEPAUParticle@CEffect_Rain@@IAAI@Z
_TEXT	SEGMENT
?allocate@?$_STLP_alloc_proxy@PAUParticle@CEffect_Rain@@U12@V?$xalloc@UParticle@CEffect_Rain@@@@@priv@stlp_std@@QAEPAUParticle@CEffect_Rain@@IAAI@Z PROC ; stlp_std::priv::_STLP_alloc_proxy<CEffect_Rain::Particle *,CEffect_Rain::Particle,xalloc<CEffect_Rain::Particle> >::allocate, COMDAT
; ___n$ = eax
; ___allocated_n$ = ecx

; 611  : #if !defined (__BORLANDC__)
; 612  :     typedef typename _IsSTLportClass<_MaybeReboundAlloc>::_Ret _STLportAlloc;
; 613  : #else
; 614  :     typedef typename __bool2type<_IsSTLportClass<_MaybeReboundAlloc>::_Is>::_Ret _STLportAlloc;
; 615  : #endif
; 616  :     return allocate(__n, __allocated_n, _STLportAlloc());

	mov	DWORD PTR [ecx], eax
	imul	eax, 92					; 0000005cH
	mov	ecx, DWORD PTR __imp_?Memory@@3VxrMemory@@A
	push	eax
	call	DWORD PTR __imp_?mem_alloc@xrMemory@@QAEPAXI@Z

; 617  :   }

	ret	0
?allocate@?$_STLP_alloc_proxy@PAUParticle@CEffect_Rain@@U12@V?$xalloc@UParticle@CEffect_Rain@@@@@priv@stlp_std@@QAEPAUParticle@CEffect_Rain@@IAAI@Z ENDP ; stlp_std::priv::_STLP_alloc_proxy<CEffect_Rain::Particle *,CEffect_Rain::Particle,xalloc<CEffect_Rain::Particle> >::allocate
; Function compile flags: /Ogtpy
; File d:\clearsky\sources\engine\xrcore\_stl_extensions.h
_TEXT	ENDS
;	COMDAT ??0?$xalloc@UParticle@CEffect_Rain@@@@QAE@ABV0@@Z
_TEXT	SEGMENT
??0?$xalloc@UParticle@CEffect_Rain@@@@QAE@ABV0@@Z PROC	; xalloc<CEffect_Rain::Particle>::xalloc<CEffect_Rain::Particle>, COMDAT
; _this$ = eax

; 78   : 													xalloc			(const xalloc<T>&)						{	}

	ret	0
??0?$xalloc@UParticle@CEffect_Rain@@@@QAE@ABV0@@Z ENDP	; xalloc<CEffect_Rain::Particle>::xalloc<CEffect_Rain::Particle>
; Function compile flags: /Ogtpy
; File d:\clearsky\sources\sdk\include\stlport\stl\_alloc.h
_TEXT	ENDS
;	COMDAT ?allocate@?$_STLP_alloc_proxy@PAUItem@CEffect_Rain@@U12@V?$xalloc@UItem@CEffect_Rain@@@@@priv@stlp_std@@QAEPAUItem@CEffect_Rain@@IAAI@Z
_TEXT	SEGMENT
?allocate@?$_STLP_alloc_proxy@PAUItem@CEffect_Rain@@U12@V?$xalloc@UItem@CEffect_Rain@@@@@priv@stlp_std@@QAEPAUItem@CEffect_Rain@@IAAI@Z PROC ; stlp_std::priv::_STLP_alloc_proxy<CEffect_Rain::Item *,CEffect_Rain::Item,xalloc<CEffect_Rain::Item> >::allocate, COMDAT
; ___n$ = eax
; ___allocated_n$ = ecx

; 611  : #if !defined (__BORLANDC__)
; 612  :     typedef typename _IsSTLportClass<_MaybeReboundAlloc>::_Ret _STLportAlloc;
; 613  : #else
; 614  :     typedef typename __bool2type<_IsSTLportClass<_MaybeReboundAlloc>::_Is>::_Ret _STLportAlloc;
; 615  : #endif
; 616  :     return allocate(__n, __allocated_n, _STLportAlloc());

	mov	DWORD PTR [ecx], eax
	imul	eax, 52					; 00000034H
	mov	ecx, DWORD PTR __imp_?Memory@@3VxrMemory@@A
	push	eax
	call	DWORD PTR __imp_?mem_alloc@xrMemory@@QAEPAXI@Z

; 617  :   }

	ret	0
?allocate@?$_STLP_alloc_proxy@PAUItem@CEffect_Rain@@U12@V?$xalloc@UItem@CEffect_Rain@@@@@priv@stlp_std@@QAEPAUItem@CEffect_Rain@@IAAI@Z ENDP ; stlp_std::priv::_STLP_alloc_proxy<CEffect_Rain::Item *,CEffect_Rain::Item,xalloc<CEffect_Rain::Item> >::allocate
; Function compile flags: /Ogtpy
; File d:\clearsky\sources\engine\xrcore\_stl_extensions.h
_TEXT	ENDS
;	COMDAT ??0?$xalloc@UItem@CEffect_Rain@@@@QAE@ABV0@@Z
_TEXT	SEGMENT
??0?$xalloc@UItem@CEffect_Rain@@@@QAE@ABV0@@Z PROC	; xalloc<CEffect_Rain::Item>::xalloc<CEffect_Rain::Item>, COMDAT
; _this$ = eax

; 78   : 													xalloc			(const xalloc<T>&)						{	}

	ret	0
??0?$xalloc@UItem@CEffect_Rain@@@@QAE@ABV0@@Z ENDP	; xalloc<CEffect_Rain::Item>::xalloc<CEffect_Rain::Item>
; Function compile flags: /Ogtpy
; File d:\clearsky\sources\sdk\include\stlport\stl\_alloc.h
_TEXT	ENDS
;	COMDAT ?allocate@?$_STLP_alloc_proxy@PAUSFlare@CLensFlareDescriptor@@U12@V?$xalloc@USFlare@CLensFlareDescriptor@@@@@priv@stlp_std@@QAEPAUSFlare@CLensFlareDescriptor@@IAAI@Z
_TEXT	SEGMENT
?allocate@?$_STLP_alloc_proxy@PAUSFlare@CLensFlareDescriptor@@U12@V?$xalloc@USFlare@CLensFlareDescriptor@@@@@priv@stlp_std@@QAEPAUSFlare@CLensFlareDescriptor@@IAAI@Z PROC ; stlp_std::priv::_STLP_alloc_proxy<CLensFlareDescriptor::SFlare *,CLensFlareDescriptor::SFlare,xalloc<CLensFlareDescriptor::SFlare> >::allocate, COMDAT
; ___n$ = eax
; ___allocated_n$ = ecx

; 611  : #if !defined (__BORLANDC__)
; 612  :     typedef typename _IsSTLportClass<_MaybeReboundAlloc>::_Ret _STLportAlloc;
; 613  : #else
; 614  :     typedef typename __bool2type<_IsSTLportClass<_MaybeReboundAlloc>::_Is>::_Ret _STLportAlloc;
; 615  : #endif
; 616  :     return allocate(__n, __allocated_n, _STLportAlloc());

	lea	edx, DWORD PTR [eax+eax*2]
	add	edx, edx
	add	edx, edx
	add	edx, edx
	mov	DWORD PTR [ecx], eax
	mov	ecx, DWORD PTR __imp_?Memory@@3VxrMemory@@A
	push	edx
	call	DWORD PTR __imp_?mem_alloc@xrMemory@@QAEPAXI@Z

; 617  :   }

	ret	0
?allocate@?$_STLP_alloc_proxy@PAUSFlare@CLensFlareDescriptor@@U12@V?$xalloc@USFlare@CLensFlareDescriptor@@@@@priv@stlp_std@@QAEPAUSFlare@CLensFlareDescriptor@@IAAI@Z ENDP ; stlp_std::priv::_STLP_alloc_proxy<CLensFlareDescriptor::SFlare *,CLensFlareDescriptor::SFlare,xalloc<CLensFlareDescriptor::SFlare> >::allocate
; Function compile flags: /Ogtpy
; File d:\clearsky\sources\engine\xrcore\_stl_extensions.h
_TEXT	ENDS
;	COMDAT ??0?$xalloc@USFlare@CLensFlareDescriptor@@@@QAE@ABV0@@Z
_TEXT	SEGMENT
??0?$xalloc@USFlare@CLensFlareDescriptor@@@@QAE@ABV0@@Z PROC ; xalloc<CLensFlareDescriptor::SFlare>::xalloc<CLensFlareDescriptor::SFlare>, COMDAT
; _this$ = eax

; 78   : 													xalloc			(const xalloc<T>&)						{	}

	ret	0
??0?$xalloc@USFlare@CLensFlareDescriptor@@@@QAE@ABV0@@Z ENDP ; xalloc<CLensFlareDescriptor::SFlare>::xalloc<CLensFlareDescriptor::SFlare>
; Function compile flags: /Ogtpy
; File d:\clearsky\sources\sdk\include\stlport\stl\_alloc.h
_TEXT	ENDS
;	COMDAT ?allocate@?$_STLP_alloc_proxy@PAUrq_result@collide@@U12@V?$xalloc@Urq_result@collide@@@@@priv@stlp_std@@QAEPAUrq_result@collide@@IAAI@Z
_TEXT	SEGMENT
?allocate@?$_STLP_alloc_proxy@PAUrq_result@collide@@U12@V?$xalloc@Urq_result@collide@@@@@priv@stlp_std@@QAEPAUrq_result@collide@@IAAI@Z PROC ; stlp_std::priv::_STLP_alloc_proxy<collide::rq_result *,collide::rq_result,xalloc<collide::rq_result> >::allocate, COMDAT
; ___n$ = eax
; ___allocated_n$ = ecx

; 611  : #if !defined (__BORLANDC__)
; 612  :     typedef typename _IsSTLportClass<_MaybeReboundAlloc>::_Ret _STLportAlloc;
; 613  : #else
; 614  :     typedef typename __bool2type<_IsSTLportClass<_MaybeReboundAlloc>::_Is>::_Ret _STLportAlloc;
; 615  : #endif
; 616  :     return allocate(__n, __allocated_n, _STLportAlloc());

	lea	edx, DWORD PTR [eax+eax*2]
	add	edx, edx
	add	edx, edx
	mov	DWORD PTR [ecx], eax
	mov	ecx, DWORD PTR __imp_?Memory@@3VxrMemory@@A
	push	edx
	call	DWORD PTR __imp_?mem_alloc@xrMemory@@QAEPAXI@Z

; 617  :   }

	ret	0
?allocate@?$_STLP_alloc_proxy@PAUrq_result@collide@@U12@V?$xalloc@Urq_result@collide@@@@@priv@stlp_std@@QAEPAUrq_result@collide@@IAAI@Z ENDP ; stlp_std::priv::_STLP_alloc_proxy<collide::rq_result *,collide::rq_result,xalloc<collide::rq_result> >::allocate
; Function compile flags: /Ogtpy
; File d:\clearsky\sources\engine\xrcore\_stl_extensions.h
_TEXT	ENDS
;	COMDAT ??0?$xalloc@Urq_result@collide@@@@QAE@ABV0@@Z
_TEXT	SEGMENT
??0?$xalloc@Urq_result@collide@@@@QAE@ABV0@@Z PROC	; xalloc<collide::rq_result>::xalloc<collide::rq_result>, COMDAT
; _this$ = eax

; 78   : 													xalloc			(const xalloc<T>&)						{	}

	ret	0
??0?$xalloc@Urq_result@collide@@@@QAE@ABV0@@Z ENDP	; xalloc<collide::rq_result>::xalloc<collide::rq_result>
; Function compile flags: /Ogtpy
; File d:\clearsky\sources\sdk\include\stlport\stl\_iterator.h
_TEXT	ENDS
;	COMDAT ??0?$reverse_iterator@PAUParticle@CEffect_Rain@@@stlp_std@@QAE@PAUParticle@CEffect_Rain@@@Z
_TEXT	SEGMENT
??0?$reverse_iterator@PAUParticle@CEffect_Rain@@@stlp_std@@QAE@PAUParticle@CEffect_Rain@@@Z PROC ; stlp_std::reverse_iterator<CEffect_Rain::Particle *>::reverse_iterator<CEffect_Rain::Particle *>, COMDAT
; _this$ = eax
; ___x$ = ecx

; 65   :   explicit reverse_iterator(iterator_type __x) : current(__x) {}

	mov	DWORD PTR [eax], ecx
	ret	0
??0?$reverse_iterator@PAUParticle@CEffect_Rain@@@stlp_std@@QAE@PAUParticle@CEffect_Rain@@@Z ENDP ; stlp_std::reverse_iterator<CEffect_Rain::Particle *>::reverse_iterator<CEffect_Rain::Particle *>
; Function compile flags: /Ogtpy
_TEXT	ENDS
;	COMDAT ??0?$reverse_iterator@PAUItem@CEffect_Rain@@@stlp_std@@QAE@PAUItem@CEffect_Rain@@@Z
_TEXT	SEGMENT
??0?$reverse_iterator@PAUItem@CEffect_Rain@@@stlp_std@@QAE@PAUItem@CEffect_Rain@@@Z PROC ; stlp_std::reverse_iterator<CEffect_Rain::Item *>::reverse_iterator<CEffect_Rain::Item *>, COMDAT
; _this$ = eax
; ___x$ = ecx

; 65   :   explicit reverse_iterator(iterator_type __x) : current(__x) {}

	mov	DWORD PTR [eax], ecx
	ret	0
??0?$reverse_iterator@PAUItem@CEffect_Rain@@@stlp_std@@QAE@PAUItem@CEffect_Rain@@@Z ENDP ; stlp_std::reverse_iterator<CEffect_Rain::Item *>::reverse_iterator<CEffect_Rain::Item *>
; Function compile flags: /Ogtpy
_TEXT	ENDS
;	COMDAT ??0?$reverse_iterator@PAUSFlare@CLensFlareDescriptor@@@stlp_std@@QAE@PAUSFlare@CLensFlareDescriptor@@@Z
_TEXT	SEGMENT
??0?$reverse_iterator@PAUSFlare@CLensFlareDescriptor@@@stlp_std@@QAE@PAUSFlare@CLensFlareDescriptor@@@Z PROC ; stlp_std::reverse_iterator<CLensFlareDescriptor::SFlare *>::reverse_iterator<CLensFlareDescriptor::SFlare *>, COMDAT
; _this$ = eax
; ___x$ = ecx

; 65   :   explicit reverse_iterator(iterator_type __x) : current(__x) {}

	mov	DWORD PTR [eax], ecx
	ret	0
??0?$reverse_iterator@PAUSFlare@CLensFlareDescriptor@@@stlp_std@@QAE@PAUSFlare@CLensFlareDescriptor@@@Z ENDP ; stlp_std::reverse_iterator<CLensFlareDescriptor::SFlare *>::reverse_iterator<CLensFlareDescriptor::SFlare *>
; Function compile flags: /Ogtpy
_TEXT	ENDS
;	COMDAT ??0?$reverse_iterator@PAUrq_result@collide@@@stlp_std@@QAE@PAUrq_result@collide@@@Z
_TEXT	SEGMENT
??0?$reverse_iterator@PAUrq_result@collide@@@stlp_std@@QAE@PAUrq_result@collide@@@Z PROC ; stlp_std::reverse_iterator<collide::rq_result *>::reverse_iterator<collide::rq_result *>, COMDAT
; _this$ = eax
; ___x$ = ecx

; 65   :   explicit reverse_iterator(iterator_type __x) : current(__x) {}

	mov	DWORD PTR [eax], ecx
	ret	0
??0?$reverse_iterator@PAUrq_result@collide@@@stlp_std@@QAE@PAUrq_result@collide@@@Z ENDP ; stlp_std::reverse_iterator<collide::rq_result *>::reverse_iterator<collide::rq_result *>
; Function compile flags: /Ogtpy
; File d:\clearsky\sources\sdk\include\stlport\stl\_vector.h
_TEXT	ENDS
;	COMDAT ?size@?$_Impl_vector@UParticle@CEffect_Rain@@V?$xalloc@UParticle@CEffect_Rain@@@@@priv@stlp_std@@QBEIXZ
_TEXT	SEGMENT
?size@?$_Impl_vector@UParticle@CEffect_Rain@@V?$xalloc@UParticle@CEffect_Rain@@@@@priv@stlp_std@@QBEIXZ PROC ; stlp_std::priv::_Impl_vector<CEffect_Rain::Particle,xalloc<CEffect_Rain::Particle> >::size, COMDAT
; _this$ = eax

; 180  :   size_type size() const        { return size_type(this->_M_finish - this->_M_start); }

	mov	ecx, DWORD PTR [eax+4]
	sub	ecx, DWORD PTR [eax]
	mov	eax, -1307163959			; b21642c9H
	imul	ecx
	add	edx, ecx
	sar	edx, 6
	mov	eax, edx
	shr	eax, 31					; 0000001fH
	add	eax, edx
	ret	0
?size@?$_Impl_vector@UParticle@CEffect_Rain@@V?$xalloc@UParticle@CEffect_Rain@@@@@priv@stlp_std@@QBEIXZ ENDP ; stlp_std::priv::_Impl_vector<CEffect_Rain::Particle,xalloc<CEffect_Rain::Particle> >::size
; Function compile flags: /Ogtpy
_TEXT	ENDS
;	COMDAT ?end@?$_Impl_vector@UParticle@CEffect_Rain@@V?$xalloc@UParticle@CEffect_Rain@@@@@priv@stlp_std@@QBEPBUParticle@CEffect_Rain@@XZ
_TEXT	SEGMENT
?end@?$_Impl_vector@UParticle@CEffect_Rain@@V?$xalloc@UParticle@CEffect_Rain@@@@@priv@stlp_std@@QBEPBUParticle@CEffect_Rain@@XZ PROC ; stlp_std::priv::_Impl_vector<CEffect_Rain::Particle,xalloc<CEffect_Rain::Particle> >::end, COMDAT
; _this$ = eax

; 173  :   const_iterator end() const   { return this->_M_finish; }

	mov	eax, DWORD PTR [eax+4]
	ret	0
?end@?$_Impl_vector@UParticle@CEffect_Rain@@V?$xalloc@UParticle@CEffect_Rain@@@@@priv@stlp_std@@QBEPBUParticle@CEffect_Rain@@XZ ENDP ; stlp_std::priv::_Impl_vector<CEffect_Rain::Particle,xalloc<CEffect_Rain::Particle> >::end
; Function compile flags: /Ogtpy
_TEXT	ENDS
;	COMDAT ?end@?$_Impl_vector@UParticle@CEffect_Rain@@V?$xalloc@UParticle@CEffect_Rain@@@@@priv@stlp_std@@QAEPAUParticle@CEffect_Rain@@XZ
_TEXT	SEGMENT
?end@?$_Impl_vector@UParticle@CEffect_Rain@@V?$xalloc@UParticle@CEffect_Rain@@@@@priv@stlp_std@@QAEPAUParticle@CEffect_Rain@@XZ PROC ; stlp_std::priv::_Impl_vector<CEffect_Rain::Particle,xalloc<CEffect_Rain::Particle> >::end, COMDAT
; _this$ = eax

; 172  :   iterator end()               { return this->_M_finish; }

	mov	eax, DWORD PTR [eax+4]
	ret	0
?end@?$_Impl_vector@UParticle@CEffect_Rain@@V?$xalloc@UParticle@CEffect_Rain@@@@@priv@stlp_std@@QAEPAUParticle@CEffect_Rain@@XZ ENDP ; stlp_std::priv::_Impl_vector<CEffect_Rain::Particle,xalloc<CEffect_Rain::Particle> >::end
; Function compile flags: /Ogtpy
_TEXT	ENDS
;	COMDAT ?begin@?$_Impl_vector@UParticle@CEffect_Rain@@V?$xalloc@UParticle@CEffect_Rain@@@@@priv@stlp_std@@QBEPBUParticle@CEffect_Rain@@XZ
_TEXT	SEGMENT
?begin@?$_Impl_vector@UParticle@CEffect_Rain@@V?$xalloc@UParticle@CEffect_Rain@@@@@priv@stlp_std@@QBEPBUParticle@CEffect_Rain@@XZ PROC ; stlp_std::priv::_Impl_vector<CEffect_Rain::Particle,xalloc<CEffect_Rain::Particle> >::begin, COMDAT
; _this$ = eax

; 171  :   const_iterator begin() const { return this->_M_start; }

	mov	eax, DWORD PTR [eax]
	ret	0
?begin@?$_Impl_vector@UParticle@CEffect_Rain@@V?$xalloc@UParticle@CEffect_Rain@@@@@priv@stlp_std@@QBEPBUParticle@CEffect_Rain@@XZ ENDP ; stlp_std::priv::_Impl_vector<CEffect_Rain::Particle,xalloc<CEffect_Rain::Particle> >::begin
; Function compile flags: /Ogtpy
_TEXT	ENDS
;	COMDAT ?begin@?$_Impl_vector@UParticle@CEffect_Rain@@V?$xalloc@UParticle@CEffect_Rain@@@@@priv@stlp_std@@QAEPAUParticle@CEffect_Rain@@XZ
_TEXT	SEGMENT
?begin@?$_Impl_vector@UParticle@CEffect_Rain@@V?$xalloc@UParticle@CEffect_Rain@@@@@priv@stlp_std@@QAEPAUParticle@CEffect_Rain@@XZ PROC ; stlp_std::priv::_Impl_vector<CEffect_Rain::Particle,xalloc<CEffect_Rain::Particle> >::begin, COMDAT
; _this$ = eax

; 170  :   iterator begin()             { return this->_M_start; }

	mov	eax, DWORD PTR [eax]
	ret	0
?begin@?$_Impl_vector@UParticle@CEffect_Rain@@V?$xalloc@UParticle@CEffect_Rain@@@@@priv@stlp_std@@QAEPAUParticle@CEffect_Rain@@XZ ENDP ; stlp_std::priv::_Impl_vector<CEffect_Rain::Particle,xalloc<CEffect_Rain::Particle> >::begin
; Function compile flags: /Ogtpy
_TEXT	ENDS
;	COMDAT ?get_allocator@?$_Impl_vector@UParticle@CEffect_Rain@@V?$xalloc@UParticle@CEffect_Rain@@@@@priv@stlp_std@@QBE?AV?$xalloc@UParticle@CEffect_Rain@@@@XZ
_TEXT	SEGMENT
?get_allocator@?$_Impl_vector@UParticle@CEffect_Rain@@V?$xalloc@UParticle@CEffect_Rain@@@@@priv@stlp_std@@QBE?AV?$xalloc@UParticle@CEffect_Rain@@@@XZ PROC ; stlp_std::priv::_Impl_vector<CEffect_Rain::Particle,xalloc<CEffect_Rain::Particle> >::get_allocator, COMDAT
; ___$ReturnUdt$ = eax

; 134  :   { return _STLP_CONVERT_ALLOCATOR((const allocator_type&)this->_M_end_of_storage, _Tp); }

	ret	0
?get_allocator@?$_Impl_vector@UParticle@CEffect_Rain@@V?$xalloc@UParticle@CEffect_Rain@@@@@priv@stlp_std@@QBE?AV?$xalloc@UParticle@CEffect_Rain@@@@XZ ENDP ; stlp_std::priv::_Impl_vector<CEffect_Rain::Particle,xalloc<CEffect_Rain::Particle> >::get_allocator
; Function compile flags: /Ogtpy
; File d:\clearsky\sources\engine\xrcore\_stl_extensions.h
_TEXT	ENDS
;	COMDAT ?deallocate@?$xalloc@UParticle@CEffect_Rain@@@@QBEXPAUParticle@CEffect_Rain@@I@Z
_TEXT	SEGMENT
?deallocate@?$xalloc@UParticle@CEffect_Rain@@@@QBEXPAUParticle@CEffect_Rain@@I@Z PROC ; xalloc<CEffect_Rain::Particle>::deallocate, COMDAT
; _p$ = eax

; 83   : 							void					deallocate		(pointer p, size_type n) const			{	xr_free	(p);				}

	test	eax, eax
	je	SHORT $LN3@deallocate@19
	mov	ecx, DWORD PTR __imp_?Memory@@3VxrMemory@@A
	push	eax
	call	DWORD PTR __imp_?mem_free@xrMemory@@QAEXPAX@Z
$LN3@deallocate@19:
	ret	0
?deallocate@?$xalloc@UParticle@CEffect_Rain@@@@QBEXPAUParticle@CEffect_Rain@@I@Z ENDP ; xalloc<CEffect_Rain::Particle>::deallocate
; Function compile flags: /Ogtpy
; File d:\clearsky\sources\sdk\include\stlport\stl\_vector.h
_TEXT	ENDS
;	COMDAT ?size@?$_Impl_vector@UItem@CEffect_Rain@@V?$xalloc@UItem@CEffect_Rain@@@@@priv@stlp_std@@QBEIXZ
_TEXT	SEGMENT
?size@?$_Impl_vector@UItem@CEffect_Rain@@V?$xalloc@UItem@CEffect_Rain@@@@@priv@stlp_std@@QBEIXZ PROC ; stlp_std::priv::_Impl_vector<CEffect_Rain::Item,xalloc<CEffect_Rain::Item> >::size, COMDAT
; _this$ = eax

; 180  :   size_type size() const        { return size_type(this->_M_finish - this->_M_start); }

	mov	ecx, DWORD PTR [eax+4]
	sub	ecx, DWORD PTR [eax]
	mov	eax, 1321528399				; 4ec4ec4fH
	imul	ecx
	sar	edx, 4
	mov	eax, edx
	shr	eax, 31					; 0000001fH
	add	eax, edx
	ret	0
?size@?$_Impl_vector@UItem@CEffect_Rain@@V?$xalloc@UItem@CEffect_Rain@@@@@priv@stlp_std@@QBEIXZ ENDP ; stlp_std::priv::_Impl_vector<CEffect_Rain::Item,xalloc<CEffect_Rain::Item> >::size
; Function compile flags: /Ogtpy
_TEXT	ENDS
;	COMDAT ?end@?$_Impl_vector@UItem@CEffect_Rain@@V?$xalloc@UItem@CEffect_Rain@@@@@priv@stlp_std@@QBEPBUItem@CEffect_Rain@@XZ
_TEXT	SEGMENT
?end@?$_Impl_vector@UItem@CEffect_Rain@@V?$xalloc@UItem@CEffect_Rain@@@@@priv@stlp_std@@QBEPBUItem@CEffect_Rain@@XZ PROC ; stlp_std::priv::_Impl_vector<CEffect_Rain::Item,xalloc<CEffect_Rain::Item> >::end, COMDAT
; _this$ = eax

; 173  :   const_iterator end() const   { return this->_M_finish; }

	mov	eax, DWORD PTR [eax+4]
	ret	0
?end@?$_Impl_vector@UItem@CEffect_Rain@@V?$xalloc@UItem@CEffect_Rain@@@@@priv@stlp_std@@QBEPBUItem@CEffect_Rain@@XZ ENDP ; stlp_std::priv::_Impl_vector<CEffect_Rain::Item,xalloc<CEffect_Rain::Item> >::end
; Function compile flags: /Ogtpy
_TEXT	ENDS
;	COMDAT ?end@?$_Impl_vector@UItem@CEffect_Rain@@V?$xalloc@UItem@CEffect_Rain@@@@@priv@stlp_std@@QAEPAUItem@CEffect_Rain@@XZ
_TEXT	SEGMENT
?end@?$_Impl_vector@UItem@CEffect_Rain@@V?$xalloc@UItem@CEffect_Rain@@@@@priv@stlp_std@@QAEPAUItem@CEffect_Rain@@XZ PROC ; stlp_std::priv::_Impl_vector<CEffect_Rain::Item,xalloc<CEffect_Rain::Item> >::end, COMDAT
; _this$ = eax

; 172  :   iterator end()               { return this->_M_finish; }

	mov	eax, DWORD PTR [eax+4]
	ret	0
?end@?$_Impl_vector@UItem@CEffect_Rain@@V?$xalloc@UItem@CEffect_Rain@@@@@priv@stlp_std@@QAEPAUItem@CEffect_Rain@@XZ ENDP ; stlp_std::priv::_Impl_vector<CEffect_Rain::Item,xalloc<CEffect_Rain::Item> >::end
; Function compile flags: /Ogtpy
_TEXT	ENDS
;	COMDAT ?begin@?$_Impl_vector@UItem@CEffect_Rain@@V?$xalloc@UItem@CEffect_Rain@@@@@priv@stlp_std@@QBEPBUItem@CEffect_Rain@@XZ
_TEXT	SEGMENT
?begin@?$_Impl_vector@UItem@CEffect_Rain@@V?$xalloc@UItem@CEffect_Rain@@@@@priv@stlp_std@@QBEPBUItem@CEffect_Rain@@XZ PROC ; stlp_std::priv::_Impl_vector<CEffect_Rain::Item,xalloc<CEffect_Rain::Item> >::begin, COMDAT
; _this$ = eax

; 171  :   const_iterator begin() const { return this->_M_start; }

	mov	eax, DWORD PTR [eax]
	ret	0
?begin@?$_Impl_vector@UItem@CEffect_Rain@@V?$xalloc@UItem@CEffect_Rain@@@@@priv@stlp_std@@QBEPBUItem@CEffect_Rain@@XZ ENDP ; stlp_std::priv::_Impl_vector<CEffect_Rain::Item,xalloc<CEffect_Rain::Item> >::begin
; Function compile flags: /Ogtpy
_TEXT	ENDS
;	COMDAT ?begin@?$_Impl_vector@UItem@CEffect_Rain@@V?$xalloc@UItem@CEffect_Rain@@@@@priv@stlp_std@@QAEPAUItem@CEffect_Rain@@XZ
_TEXT	SEGMENT
?begin@?$_Impl_vector@UItem@CEffect_Rain@@V?$xalloc@UItem@CEffect_Rain@@@@@priv@stlp_std@@QAEPAUItem@CEffect_Rain@@XZ PROC ; stlp_std::priv::_Impl_vector<CEffect_Rain::Item,xalloc<CEffect_Rain::Item> >::begin, COMDAT
; _this$ = eax

; 170  :   iterator begin()             { return this->_M_start; }

	mov	eax, DWORD PTR [eax]
	ret	0
?begin@?$_Impl_vector@UItem@CEffect_Rain@@V?$xalloc@UItem@CEffect_Rain@@@@@priv@stlp_std@@QAEPAUItem@CEffect_Rain@@XZ ENDP ; stlp_std::priv::_Impl_vector<CEffect_Rain::Item,xalloc<CEffect_Rain::Item> >::begin
; Function compile flags: /Ogtpy
_TEXT	ENDS
;	COMDAT ?get_allocator@?$_Impl_vector@UItem@CEffect_Rain@@V?$xalloc@UItem@CEffect_Rain@@@@@priv@stlp_std@@QBE?AV?$xalloc@UItem@CEffect_Rain@@@@XZ
_TEXT	SEGMENT
?get_allocator@?$_Impl_vector@UItem@CEffect_Rain@@V?$xalloc@UItem@CEffect_Rain@@@@@priv@stlp_std@@QBE?AV?$xalloc@UItem@CEffect_Rain@@@@XZ PROC ; stlp_std::priv::_Impl_vector<CEffect_Rain::Item,xalloc<CEffect_Rain::Item> >::get_allocator, COMDAT
; ___$ReturnUdt$ = eax

; 134  :   { return _STLP_CONVERT_ALLOCATOR((const allocator_type&)this->_M_end_of_storage, _Tp); }

	ret	0
?get_allocator@?$_Impl_vector@UItem@CEffect_Rain@@V?$xalloc@UItem@CEffect_Rain@@@@@priv@stlp_std@@QBE?AV?$xalloc@UItem@CEffect_Rain@@@@XZ ENDP ; stlp_std::priv::_Impl_vector<CEffect_Rain::Item,xalloc<CEffect_Rain::Item> >::get_allocator
; Function compile flags: /Ogtpy
; File d:\clearsky\sources\engine\xrcore\_stl_extensions.h
_TEXT	ENDS
;	COMDAT ?deallocate@?$xalloc@UItem@CEffect_Rain@@@@QBEXPAUItem@CEffect_Rain@@I@Z
_TEXT	SEGMENT
?deallocate@?$xalloc@UItem@CEffect_Rain@@@@QBEXPAUItem@CEffect_Rain@@I@Z PROC ; xalloc<CEffect_Rain::Item>::deallocate, COMDAT
; _p$ = eax

; 83   : 							void					deallocate		(pointer p, size_type n) const			{	xr_free	(p);				}

	test	eax, eax
	je	SHORT $LN3@deallocate@20
	mov	ecx, DWORD PTR __imp_?Memory@@3VxrMemory@@A
	push	eax
	call	DWORD PTR __imp_?mem_free@xrMemory@@QAEXPAX@Z
$LN3@deallocate@20:
	ret	0
?deallocate@?$xalloc@UItem@CEffect_Rain@@@@QBEXPAUItem@CEffect_Rain@@I@Z ENDP ; xalloc<CEffect_Rain::Item>::deallocate
; Function compile flags: /Ogtpy
; File d:\clearsky\sources\sdk\include\stlport\stl\_vector.h
_TEXT	ENDS
;	COMDAT ?size@?$_Impl_vector@USFlare@CLensFlareDescriptor@@V?$xalloc@USFlare@CLensFlareDescriptor@@@@@priv@stlp_std@@QBEIXZ
_TEXT	SEGMENT
?size@?$_Impl_vector@USFlare@CLensFlareDescriptor@@V?$xalloc@USFlare@CLensFlareDescriptor@@@@@priv@stlp_std@@QBEIXZ PROC ; stlp_std::priv::_Impl_vector<CLensFlareDescriptor::SFlare,xalloc<CLensFlareDescriptor::SFlare> >::size, COMDAT
; _this$ = eax

; 180  :   size_type size() const        { return size_type(this->_M_finish - this->_M_start); }

	mov	ecx, DWORD PTR [eax+4]
	sub	ecx, DWORD PTR [eax]
	mov	eax, 715827883				; 2aaaaaabH
	imul	ecx
	sar	edx, 2
	mov	eax, edx
	shr	eax, 31					; 0000001fH
	add	eax, edx
	ret	0
?size@?$_Impl_vector@USFlare@CLensFlareDescriptor@@V?$xalloc@USFlare@CLensFlareDescriptor@@@@@priv@stlp_std@@QBEIXZ ENDP ; stlp_std::priv::_Impl_vector<CLensFlareDescriptor::SFlare,xalloc<CLensFlareDescriptor::SFlare> >::size
; Function compile flags: /Ogtpy
_TEXT	ENDS
;	COMDAT ?end@?$_Impl_vector@USFlare@CLensFlareDescriptor@@V?$xalloc@USFlare@CLensFlareDescriptor@@@@@priv@stlp_std@@QBEPBUSFlare@CLensFlareDescriptor@@XZ
_TEXT	SEGMENT
?end@?$_Impl_vector@USFlare@CLensFlareDescriptor@@V?$xalloc@USFlare@CLensFlareDescriptor@@@@@priv@stlp_std@@QBEPBUSFlare@CLensFlareDescriptor@@XZ PROC ; stlp_std::priv::_Impl_vector<CLensFlareDescriptor::SFlare,xalloc<CLensFlareDescriptor::SFlare> >::end, COMDAT
; _this$ = eax

; 173  :   const_iterator end() const   { return this->_M_finish; }

	mov	eax, DWORD PTR [eax+4]
	ret	0
?end@?$_Impl_vector@USFlare@CLensFlareDescriptor@@V?$xalloc@USFlare@CLensFlareDescriptor@@@@@priv@stlp_std@@QBEPBUSFlare@CLensFlareDescriptor@@XZ ENDP ; stlp_std::priv::_Impl_vector<CLensFlareDescriptor::SFlare,xalloc<CLensFlareDescriptor::SFlare> >::end
; Function compile flags: /Ogtpy
_TEXT	ENDS
;	COMDAT ?end@?$_Impl_vector@USFlare@CLensFlareDescriptor@@V?$xalloc@USFlare@CLensFlareDescriptor@@@@@priv@stlp_std@@QAEPAUSFlare@CLensFlareDescriptor@@XZ
_TEXT	SEGMENT
?end@?$_Impl_vector@USFlare@CLensFlareDescriptor@@V?$xalloc@USFlare@CLensFlareDescriptor@@@@@priv@stlp_std@@QAEPAUSFlare@CLensFlareDescriptor@@XZ PROC ; stlp_std::priv::_Impl_vector<CLensFlareDescriptor::SFlare,xalloc<CLensFlareDescriptor::SFlare> >::end, COMDAT
; _this$ = eax

; 172  :   iterator end()               { return this->_M_finish; }

	mov	eax, DWORD PTR [eax+4]
	ret	0
?end@?$_Impl_vector@USFlare@CLensFlareDescriptor@@V?$xalloc@USFlare@CLensFlareDescriptor@@@@@priv@stlp_std@@QAEPAUSFlare@CLensFlareDescriptor@@XZ ENDP ; stlp_std::priv::_Impl_vector<CLensFlareDescriptor::SFlare,xalloc<CLensFlareDescriptor::SFlare> >::end
; Function compile flags: /Ogtpy
_TEXT	ENDS
;	COMDAT ?begin@?$_Impl_vector@USFlare@CLensFlareDescriptor@@V?$xalloc@USFlare@CLensFlareDescriptor@@@@@priv@stlp_std@@QBEPBUSFlare@CLensFlareDescriptor@@XZ
_TEXT	SEGMENT
?begin@?$_Impl_vector@USFlare@CLensFlareDescriptor@@V?$xalloc@USFlare@CLensFlareDescriptor@@@@@priv@stlp_std@@QBEPBUSFlare@CLensFlareDescriptor@@XZ PROC ; stlp_std::priv::_Impl_vector<CLensFlareDescriptor::SFlare,xalloc<CLensFlareDescriptor::SFlare> >::begin, COMDAT
; _this$ = eax

; 171  :   const_iterator begin() const { return this->_M_start; }

	mov	eax, DWORD PTR [eax]
	ret	0
?begin@?$_Impl_vector@USFlare@CLensFlareDescriptor@@V?$xalloc@USFlare@CLensFlareDescriptor@@@@@priv@stlp_std@@QBEPBUSFlare@CLensFlareDescriptor@@XZ ENDP ; stlp_std::priv::_Impl_vector<CLensFlareDescriptor::SFlare,xalloc<CLensFlareDescriptor::SFlare> >::begin
; Function compile flags: /Ogtpy
_TEXT	ENDS
;	COMDAT ?begin@?$_Impl_vector@USFlare@CLensFlareDescriptor@@V?$xalloc@USFlare@CLensFlareDescriptor@@@@@priv@stlp_std@@QAEPAUSFlare@CLensFlareDescriptor@@XZ
_TEXT	SEGMENT
?begin@?$_Impl_vector@USFlare@CLensFlareDescriptor@@V?$xalloc@USFlare@CLensFlareDescriptor@@@@@priv@stlp_std@@QAEPAUSFlare@CLensFlareDescriptor@@XZ PROC ; stlp_std::priv::_Impl_vector<CLensFlareDescriptor::SFlare,xalloc<CLensFlareDescriptor::SFlare> >::begin, COMDAT
; _this$ = eax

; 170  :   iterator begin()             { return this->_M_start; }

	mov	eax, DWORD PTR [eax]
	ret	0
?begin@?$_Impl_vector@USFlare@CLensFlareDescriptor@@V?$xalloc@USFlare@CLensFlareDescriptor@@@@@priv@stlp_std@@QAEPAUSFlare@CLensFlareDescriptor@@XZ ENDP ; stlp_std::priv::_Impl_vector<CLensFlareDescriptor::SFlare,xalloc<CLensFlareDescriptor::SFlare> >::begin
; Function compile flags: /Ogtpy
_TEXT	ENDS
;	COMDAT ?get_allocator@?$_Impl_vector@USFlare@CLensFlareDescriptor@@V?$xalloc@USFlare@CLensFlareDescriptor@@@@@priv@stlp_std@@QBE?AV?$xalloc@USFlare@CLensFlareDescriptor@@@@XZ
_TEXT	SEGMENT
?get_allocator@?$_Impl_vector@USFlare@CLensFlareDescriptor@@V?$xalloc@USFlare@CLensFlareDescriptor@@@@@priv@stlp_std@@QBE?AV?$xalloc@USFlare@CLensFlareDescriptor@@@@XZ PROC ; stlp_std::priv::_Impl_vector<CLensFlareDescriptor::SFlare,xalloc<CLensFlareDescriptor::SFlare> >::get_allocator, COMDAT
; ___$ReturnUdt$ = eax

; 134  :   { return _STLP_CONVERT_ALLOCATOR((const allocator_type&)this->_M_end_of_storage, _Tp); }

	ret	0
?get_allocator@?$_Impl_vector@USFlare@CLensFlareDescriptor@@V?$xalloc@USFlare@CLensFlareDescriptor@@@@@priv@stlp_std@@QBE?AV?$xalloc@USFlare@CLensFlareDescriptor@@@@XZ ENDP ; stlp_std::priv::_Impl_vector<CLensFlareDescriptor::SFlare,xalloc<CLensFlareDescriptor::SFlare> >::get_allocator
; Function compile flags: /Ogtpy
; File d:\clearsky\sources\engine\xrcore\_stl_extensions.h
_TEXT	ENDS
;	COMDAT ?deallocate@?$xalloc@USFlare@CLensFlareDescriptor@@@@QBEXPAUSFlare@CLensFlareDescriptor@@I@Z
_TEXT	SEGMENT
?deallocate@?$xalloc@USFlare@CLensFlareDescriptor@@@@QBEXPAUSFlare@CLensFlareDescriptor@@I@Z PROC ; xalloc<CLensFlareDescriptor::SFlare>::deallocate, COMDAT
; _p$ = eax

; 83   : 							void					deallocate		(pointer p, size_type n) const			{	xr_free	(p);				}

	test	eax, eax
	je	SHORT $LN3@deallocate@21
	mov	ecx, DWORD PTR __imp_?Memory@@3VxrMemory@@A
	push	eax
	call	DWORD PTR __imp_?mem_free@xrMemory@@QAEXPAX@Z
$LN3@deallocate@21:
	ret	0
?deallocate@?$xalloc@USFlare@CLensFlareDescriptor@@@@QBEXPAUSFlare@CLensFlareDescriptor@@I@Z ENDP ; xalloc<CLensFlareDescriptor::SFlare>::deallocate
; Function compile flags: /Ogtpy
; File d:\clearsky\sources\sdk\include\stlport\stl\_vector.h
_TEXT	ENDS
;	COMDAT ?size@?$_Impl_vector@Urq_result@collide@@V?$xalloc@Urq_result@collide@@@@@priv@stlp_std@@QBEIXZ
_TEXT	SEGMENT
?size@?$_Impl_vector@Urq_result@collide@@V?$xalloc@Urq_result@collide@@@@@priv@stlp_std@@QBEIXZ PROC ; stlp_std::priv::_Impl_vector<collide::rq_result,xalloc<collide::rq_result> >::size, COMDAT
; _this$ = eax

; 180  :   size_type size() const        { return size_type(this->_M_finish - this->_M_start); }

	mov	ecx, DWORD PTR [eax+4]
	sub	ecx, DWORD PTR [eax]
	mov	eax, 715827883				; 2aaaaaabH
	imul	ecx
	sar	edx, 1
	mov	eax, edx
	shr	eax, 31					; 0000001fH
	add	eax, edx
	ret	0
?size@?$_Impl_vector@Urq_result@collide@@V?$xalloc@Urq_result@collide@@@@@priv@stlp_std@@QBEIXZ ENDP ; stlp_std::priv::_Impl_vector<collide::rq_result,xalloc<collide::rq_result> >::size
; Function compile flags: /Ogtpy
_TEXT	ENDS
;	COMDAT ?end@?$_Impl_vector@Urq_result@collide@@V?$xalloc@Urq_result@collide@@@@@priv@stlp_std@@QBEPBUrq_result@collide@@XZ
_TEXT	SEGMENT
?end@?$_Impl_vector@Urq_result@collide@@V?$xalloc@Urq_result@collide@@@@@priv@stlp_std@@QBEPBUrq_result@collide@@XZ PROC ; stlp_std::priv::_Impl_vector<collide::rq_result,xalloc<collide::rq_result> >::end, COMDAT
; _this$ = eax

; 173  :   const_iterator end() const   { return this->_M_finish; }

	mov	eax, DWORD PTR [eax+4]
	ret	0
?end@?$_Impl_vector@Urq_result@collide@@V?$xalloc@Urq_result@collide@@@@@priv@stlp_std@@QBEPBUrq_result@collide@@XZ ENDP ; stlp_std::priv::_Impl_vector<collide::rq_result,xalloc<collide::rq_result> >::end
; Function compile flags: /Ogtpy
_TEXT	ENDS
;	COMDAT ?begin@?$_Impl_vector@Urq_result@collide@@V?$xalloc@Urq_result@collide@@@@@priv@stlp_std@@QBEPBUrq_result@collide@@XZ
_TEXT	SEGMENT
?begin@?$_Impl_vector@Urq_result@collide@@V?$xalloc@Urq_result@collide@@@@@priv@stlp_std@@QBEPBUrq_result@collide@@XZ PROC ; stlp_std::priv::_Impl_vector<collide::rq_result,xalloc<collide::rq_result> >::begin, COMDAT
; _this$ = eax

; 171  :   const_iterator begin() const { return this->_M_start; }

	mov	eax, DWORD PTR [eax]
	ret	0
?begin@?$_Impl_vector@Urq_result@collide@@V?$xalloc@Urq_result@collide@@@@@priv@stlp_std@@QBEPBUrq_result@collide@@XZ ENDP ; stlp_std::priv::_Impl_vector<collide::rq_result,xalloc<collide::rq_result> >::begin
; Function compile flags: /Ogtpy
_TEXT	ENDS
;	COMDAT ?get_allocator@?$_Impl_vector@Urq_result@collide@@V?$xalloc@Urq_result@collide@@@@@priv@stlp_std@@QBE?AV?$xalloc@Urq_result@collide@@@@XZ
_TEXT	SEGMENT
?get_allocator@?$_Impl_vector@Urq_result@collide@@V?$xalloc@Urq_result@collide@@@@@priv@stlp_std@@QBE?AV?$xalloc@Urq_result@collide@@@@XZ PROC ; stlp_std::priv::_Impl_vector<collide::rq_result,xalloc<collide::rq_result> >::get_allocator, COMDAT
; ___$ReturnUdt$ = eax

; 134  :   { return _STLP_CONVERT_ALLOCATOR((const allocator_type&)this->_M_end_of_storage, _Tp); }

	ret	0
?get_allocator@?$_Impl_vector@Urq_result@collide@@V?$xalloc@Urq_result@collide@@@@@priv@stlp_std@@QBE?AV?$xalloc@Urq_result@collide@@@@XZ ENDP ; stlp_std::priv::_Impl_vector<collide::rq_result,xalloc<collide::rq_result> >::get_allocator
; Function compile flags: /Ogtpy
; File d:\clearsky\sources\engine\xrcore\_stl_extensions.h
_TEXT	ENDS
;	COMDAT ?deallocate@?$xalloc@Urq_result@collide@@@@QBEXPAUrq_result@collide@@I@Z
_TEXT	SEGMENT
?deallocate@?$xalloc@Urq_result@collide@@@@QBEXPAUrq_result@collide@@I@Z PROC ; xalloc<collide::rq_result>::deallocate, COMDAT
; _p$ = eax

; 83   : 							void					deallocate		(pointer p, size_type n) const			{	xr_free	(p);				}

	test	eax, eax
	je	SHORT $LN3@deallocate@22
	mov	ecx, DWORD PTR __imp_?Memory@@3VxrMemory@@A
	push	eax
	call	DWORD PTR __imp_?mem_free@xrMemory@@QAEXPAX@Z
$LN3@deallocate@22:
	ret	0
?deallocate@?$xalloc@Urq_result@collide@@@@QBEXPAUrq_result@collide@@I@Z ENDP ; xalloc<collide::rq_result>::deallocate
; Function compile flags: /Ogtpy
; File d:\clearsky\sources\sdk\include\stlport\stl\_vector.h
_TEXT	ENDS
;	COMDAT ?_M_range_check@?$_Impl_vector@PAXV?$xalloc@PAX@@@priv@stlp_std@@ABEXI@Z
_TEXT	SEGMENT
_this$ = 8						; size = 4
?_M_range_check@?$_Impl_vector@PAXV?$xalloc@PAX@@@priv@stlp_std@@ABEXI@Z PROC ; stlp_std::priv::_Impl_vector<void *,xalloc<void *> >::_M_range_check, COMDAT

; 165  :     if (__n >= size_type(this->_M_finish - this->_M_start))
; 166  :       this->_M_throw_out_of_range();

	push	OFFSET ??_C@_06NBFPPGEG@vector?$AA@
	call	DWORD PTR __imp__puts
	add	esp, 4
	call	DWORD PTR __imp__abort
$LN14@M_range_ch:
$LN13@M_range_ch:
	int	3
?_M_range_check@?$_Impl_vector@PAXV?$xalloc@PAX@@@priv@stlp_std@@ABEXI@Z ENDP ; stlp_std::priv::_Impl_vector<void *,xalloc<void *> >::_M_range_check
; Function compile flags: /Ogtpy
; File d:\clearsky\sources\sdk\include\stlport\stl\pointers\_tools.h
_TEXT	ENDS
;	COMDAT ?to_value_type_ptr@?$_CastTraits@VCEnvModifier@@V1@@priv@stlp_std@@SAPAVCEnvModifier@@PAV4@@Z
_TEXT	SEGMENT
?to_value_type_ptr@?$_CastTraits@VCEnvModifier@@V1@@priv@stlp_std@@SAPAVCEnvModifier@@PAV4@@Z PROC ; stlp_std::priv::_CastTraits<CEnvModifier,CEnvModifier>::to_value_type_ptr, COMDAT
; ___ptr$ = eax

; 237  :   { return __ptr; }

	ret	0
?to_value_type_ptr@?$_CastTraits@VCEnvModifier@@V1@@priv@stlp_std@@SAPAVCEnvModifier@@PAV4@@Z ENDP ; stlp_std::priv::_CastTraits<CEnvModifier,CEnvModifier>::to_value_type_ptr
; Function compile flags: /Ogtpy
; File d:\clearsky\sources\engine\xrcore\_stl_extensions.h
_TEXT	ENDS
;	COMDAT ??0?$xalloc@U?$pair@$$CBVshared_str@@V?$xr_vector@PAVCEnvDescriptor@@V?$xalloc@PAVCEnvDescriptor@@@@@@@stlp_std@@@@QAE@XZ
_TEXT	SEGMENT
??0?$xalloc@U?$pair@$$CBVshared_str@@V?$xr_vector@PAVCEnvDescriptor@@V?$xalloc@PAVCEnvDescriptor@@@@@@@stlp_std@@@@QAE@XZ PROC ; xalloc<stlp_std::pair<shared_str const ,xr_vector<CEnvDescriptor *,xalloc<CEnvDescriptor *> > > >::xalloc<stlp_std::pair<shared_str const ,xr_vector<CEnvDescriptor *,xalloc<CEnvDescriptor *> > > >, COMDAT
; _this$ = eax

; 77   : 													xalloc			()										{	}

	ret	0
??0?$xalloc@U?$pair@$$CBVshared_str@@V?$xr_vector@PAVCEnvDescriptor@@V?$xalloc@PAVCEnvDescriptor@@@@@@@stlp_std@@@@QAE@XZ ENDP ; xalloc<stlp_std::pair<shared_str const ,xr_vector<CEnvDescriptor *,xalloc<CEnvDescriptor *> > > >::xalloc<stlp_std::pair<shared_str const ,xr_vector<CEnvDescriptor *,xalloc<CEnvDescriptor *> > > >
; Function compile flags: /Ogtpy
; File d:\clearsky\sources\sdk\include\stlport\stl\pointers\_tools.h
_TEXT	ENDS
;	COMDAT ?to_storage_type_cref@?$_CastTraits@MM@priv@stlp_std@@SAABMABM@Z
_TEXT	SEGMENT
?to_storage_type_cref@?$_CastTraits@MM@priv@stlp_std@@SAABMABM@Z PROC ; stlp_std::priv::_CastTraits<float,float>::to_storage_type_cref, COMDAT
; ___ref$ = eax

; 254  :   { return __ref; }

	ret	0
?to_storage_type_cref@?$_CastTraits@MM@priv@stlp_std@@SAABMABM@Z ENDP ; stlp_std::priv::_CastTraits<float,float>::to_storage_type_cref
; Function compile flags: /Ogtpy
_TEXT	ENDS
;	COMDAT ?to_storage_type_cref@?$_CastTraits@GG@priv@stlp_std@@SAABGABG@Z
_TEXT	SEGMENT
?to_storage_type_cref@?$_CastTraits@GG@priv@stlp_std@@SAABGABG@Z PROC ; stlp_std::priv::_CastTraits<unsigned short,unsigned short>::to_storage_type_cref, COMDAT
; ___ref$ = eax

; 254  :   { return __ref; }

	ret	0
?to_storage_type_cref@?$_CastTraits@GG@priv@stlp_std@@SAABGABG@Z ENDP ; stlp_std::priv::_CastTraits<unsigned short,unsigned short>::to_storage_type_cref
; Function compile flags: /Ogtpy
_TEXT	ENDS
;	COMDAT ?to_value_type_ref@?$_CastTraits@GG@priv@stlp_std@@SAAAGAAG@Z
_TEXT	SEGMENT
?to_value_type_ref@?$_CastTraits@GG@priv@stlp_std@@SAAAGAAG@Z PROC ; stlp_std::priv::_CastTraits<unsigned short,unsigned short>::to_value_type_ref, COMDAT
; ___ref$ = eax

; 243  :   { return __ref; }

	ret	0
?to_value_type_ref@?$_CastTraits@GG@priv@stlp_std@@SAAAGAAG@Z ENDP ; stlp_std::priv::_CastTraits<unsigned short,unsigned short>::to_value_type_ref
; Function compile flags: /Ogtpy
; File d:\clearsky\sources\sdk\include\stlport\stl\_tree.h
_TEXT	ENDS
;	COMDAT ??D?$_Rb_tree_iterator@U?$pair@$$CBVshared_str@@V?$xr_vector@PAVCEnvDescriptor@@V?$xalloc@PAVCEnvDescriptor@@@@@@@stlp_std@@U?$_MapTraitsT@U?$pair@$$CBVshared_str@@V?$xr_vector@PAVCEnvDescriptor@@V?$xalloc@PAVCEnvDescriptor@@@@@@@stlp_std@@@priv@2@@priv@stlp_std@@QBEAAU?$pair@$$CBVshared_str@@V?$xr_vector@PAVCEnvDescriptor@@V?$xalloc@PAVCEnvDescriptor@@@@@@@2@XZ
_TEXT	SEGMENT
??D?$_Rb_tree_iterator@U?$pair@$$CBVshared_str@@V?$xr_vector@PAVCEnvDescriptor@@V?$xalloc@PAVCEnvDescriptor@@@@@@@stlp_std@@U?$_MapTraitsT@U?$pair@$$CBVshared_str@@V?$xr_vector@PAVCEnvDescriptor@@V?$xalloc@PAVCEnvDescriptor@@@@@@@stlp_std@@@priv@2@@priv@stlp_std@@QBEAAU?$pair@$$CBVshared_str@@V?$xr_vector@PAVCEnvDescriptor@@V?$xalloc@PAVCEnvDescriptor@@@@@@@2@XZ PROC ; stlp_std::priv::_Rb_tree_iterator<stlp_std::pair<shared_str const ,xr_vector<CEnvDescriptor *,xalloc<CEnvDescriptor *> > >,stlp_std::priv::_MapTraitsT<stlp_std::pair<shared_str const ,xr_vector<CEnvDescriptor *,xalloc<CEnvDescriptor *> > > > >::operator*, COMDAT
; _this$ = eax

; 171  :     return __STATIC_CAST(_Link_type, _M_node)->_M_value_field;

	mov	eax, DWORD PTR [eax]
	add	eax, 16					; 00000010H

; 172  :   }

	ret	0
??D?$_Rb_tree_iterator@U?$pair@$$CBVshared_str@@V?$xr_vector@PAVCEnvDescriptor@@V?$xalloc@PAVCEnvDescriptor@@@@@@@stlp_std@@U?$_MapTraitsT@U?$pair@$$CBVshared_str@@V?$xr_vector@PAVCEnvDescriptor@@V?$xalloc@PAVCEnvDescriptor@@@@@@@stlp_std@@@priv@2@@priv@stlp_std@@QBEAAU?$pair@$$CBVshared_str@@V?$xr_vector@PAVCEnvDescriptor@@V?$xalloc@PAVCEnvDescriptor@@@@@@@2@XZ ENDP ; stlp_std::priv::_Rb_tree_iterator<stlp_std::pair<shared_str const ,xr_vector<CEnvDescriptor *,xalloc<CEnvDescriptor *> > >,stlp_std::priv::_MapTraitsT<stlp_std::pair<shared_str const ,xr_vector<CEnvDescriptor *,xalloc<CEnvDescriptor *> > > > >::operator*
; Function compile flags: /Ogtpy
; File d:\clearsky\sources\sdk\include\stlport\stl\_vector.h
_TEXT	ENDS
;	COMDAT ??1?$_Vector_base@UParticle@CEffect_Rain@@V?$xalloc@UParticle@CEffect_Rain@@@@@priv@stlp_std@@QAE@XZ
_TEXT	SEGMENT
??1?$_Vector_base@UParticle@CEffect_Rain@@V?$xalloc@UParticle@CEffect_Rain@@@@@priv@stlp_std@@QAE@XZ PROC ; stlp_std::priv::_Vector_base<CEffect_Rain::Particle,xalloc<CEffect_Rain::Particle> >::~_Vector_base<CEffect_Rain::Particle,xalloc<CEffect_Rain::Particle> >, COMDAT
; _this$ = eax

; 85   :     if (_M_start != _STLP_DEFAULT_CONSTRUCTED(pointer))

	mov	eax, DWORD PTR [eax]
	test	eax, eax
	je	SHORT $LN6@Vector_bas@11

; 86   :       _M_end_of_storage.deallocate(_M_start, _M_end_of_storage._M_data - _M_start);

	mov	ecx, DWORD PTR __imp_?Memory@@3VxrMemory@@A
	push	eax
	call	DWORD PTR __imp_?mem_free@xrMemory@@QAEXPAX@Z
$LN6@Vector_bas@11:

; 87   :   }

	ret	0
??1?$_Vector_base@UParticle@CEffect_Rain@@V?$xalloc@UParticle@CEffect_Rain@@@@@priv@stlp_std@@QAE@XZ ENDP ; stlp_std::priv::_Vector_base<CEffect_Rain::Particle,xalloc<CEffect_Rain::Particle> >::~_Vector_base<CEffect_Rain::Particle,xalloc<CEffect_Rain::Particle> >
; Function compile flags: /Ogtpy
_TEXT	ENDS
;	COMDAT ?rend@?$_Impl_vector@UParticle@CEffect_Rain@@V?$xalloc@UParticle@CEffect_Rain@@@@@priv@stlp_std@@QAE?AV?$reverse_iterator@PAUParticle@CEffect_Rain@@@3@XZ
_TEXT	SEGMENT
?rend@?$_Impl_vector@UParticle@CEffect_Rain@@V?$xalloc@UParticle@CEffect_Rain@@@@@priv@stlp_std@@QAE?AV?$reverse_iterator@PAUParticle@CEffect_Rain@@@3@XZ PROC ; stlp_std::priv::_Impl_vector<CEffect_Rain::Particle,xalloc<CEffect_Rain::Particle> >::rend, COMDAT
; _this$ = ecx
; ___$ReturnUdt$ = eax

; 177  :   reverse_iterator rend()                { return reverse_iterator(begin()); }

	mov	edx, DWORD PTR [ecx]
	mov	DWORD PTR [eax], edx
	ret	0
?rend@?$_Impl_vector@UParticle@CEffect_Rain@@V?$xalloc@UParticle@CEffect_Rain@@@@@priv@stlp_std@@QAE?AV?$reverse_iterator@PAUParticle@CEffect_Rain@@@3@XZ ENDP ; stlp_std::priv::_Impl_vector<CEffect_Rain::Particle,xalloc<CEffect_Rain::Particle> >::rend
; Function compile flags: /Ogtpy
_TEXT	ENDS
;	COMDAT ?rbegin@?$_Impl_vector@UParticle@CEffect_Rain@@V?$xalloc@UParticle@CEffect_Rain@@@@@priv@stlp_std@@QAE?AV?$reverse_iterator@PAUParticle@CEffect_Rain@@@3@XZ
_TEXT	SEGMENT
?rbegin@?$_Impl_vector@UParticle@CEffect_Rain@@V?$xalloc@UParticle@CEffect_Rain@@@@@priv@stlp_std@@QAE?AV?$reverse_iterator@PAUParticle@CEffect_Rain@@@3@XZ PROC ; stlp_std::priv::_Impl_vector<CEffect_Rain::Particle,xalloc<CEffect_Rain::Particle> >::rbegin, COMDAT
; _this$ = ecx
; ___$ReturnUdt$ = eax

; 175  :   reverse_iterator rbegin()              { return reverse_iterator(end()); }

	mov	edx, DWORD PTR [ecx+4]
	mov	DWORD PTR [eax], edx
	ret	0
?rbegin@?$_Impl_vector@UParticle@CEffect_Rain@@V?$xalloc@UParticle@CEffect_Rain@@@@@priv@stlp_std@@QAE?AV?$reverse_iterator@PAUParticle@CEffect_Rain@@@3@XZ ENDP ; stlp_std::priv::_Impl_vector<CEffect_Rain::Particle,xalloc<CEffect_Rain::Particle> >::rbegin
; Function compile flags: /Ogtpy
_TEXT	ENDS
;	COMDAT ??1?$_Vector_base@UItem@CEffect_Rain@@V?$xalloc@UItem@CEffect_Rain@@@@@priv@stlp_std@@QAE@XZ
_TEXT	SEGMENT
??1?$_Vector_base@UItem@CEffect_Rain@@V?$xalloc@UItem@CEffect_Rain@@@@@priv@stlp_std@@QAE@XZ PROC ; stlp_std::priv::_Vector_base<CEffect_Rain::Item,xalloc<CEffect_Rain::Item> >::~_Vector_base<CEffect_Rain::Item,xalloc<CEffect_Rain::Item> >, COMDAT
; _this$ = eax

; 85   :     if (_M_start != _STLP_DEFAULT_CONSTRUCTED(pointer))

	mov	eax, DWORD PTR [eax]
	test	eax, eax
	je	SHORT $LN6@Vector_bas@12

; 86   :       _M_end_of_storage.deallocate(_M_start, _M_end_of_storage._M_data - _M_start);

	mov	ecx, DWORD PTR __imp_?Memory@@3VxrMemory@@A
	push	eax
	call	DWORD PTR __imp_?mem_free@xrMemory@@QAEXPAX@Z
$LN6@Vector_bas@12:

; 87   :   }

	ret	0
??1?$_Vector_base@UItem@CEffect_Rain@@V?$xalloc@UItem@CEffect_Rain@@@@@priv@stlp_std@@QAE@XZ ENDP ; stlp_std::priv::_Vector_base<CEffect_Rain::Item,xalloc<CEffect_Rain::Item> >::~_Vector_base<CEffect_Rain::Item,xalloc<CEffect_Rain::Item> >
; Function compile flags: /Ogtpy
_TEXT	ENDS
;	COMDAT ?rend@?$_Impl_vector@UItem@CEffect_Rain@@V?$xalloc@UItem@CEffect_Rain@@@@@priv@stlp_std@@QAE?AV?$reverse_iterator@PAUItem@CEffect_Rain@@@3@XZ
_TEXT	SEGMENT
?rend@?$_Impl_vector@UItem@CEffect_Rain@@V?$xalloc@UItem@CEffect_Rain@@@@@priv@stlp_std@@QAE?AV?$reverse_iterator@PAUItem@CEffect_Rain@@@3@XZ PROC ; stlp_std::priv::_Impl_vector<CEffect_Rain::Item,xalloc<CEffect_Rain::Item> >::rend, COMDAT
; _this$ = ecx
; ___$ReturnUdt$ = eax

; 177  :   reverse_iterator rend()                { return reverse_iterator(begin()); }

	mov	edx, DWORD PTR [ecx]
	mov	DWORD PTR [eax], edx
	ret	0
?rend@?$_Impl_vector@UItem@CEffect_Rain@@V?$xalloc@UItem@CEffect_Rain@@@@@priv@stlp_std@@QAE?AV?$reverse_iterator@PAUItem@CEffect_Rain@@@3@XZ ENDP ; stlp_std::priv::_Impl_vector<CEffect_Rain::Item,xalloc<CEffect_Rain::Item> >::rend
; Function compile flags: /Ogtpy
_TEXT	ENDS
;	COMDAT ?rbegin@?$_Impl_vector@UItem@CEffect_Rain@@V?$xalloc@UItem@CEffect_Rain@@@@@priv@stlp_std@@QAE?AV?$reverse_iterator@PAUItem@CEffect_Rain@@@3@XZ
_TEXT	SEGMENT
?rbegin@?$_Impl_vector@UItem@CEffect_Rain@@V?$xalloc@UItem@CEffect_Rain@@@@@priv@stlp_std@@QAE?AV?$reverse_iterator@PAUItem@CEffect_Rain@@@3@XZ PROC ; stlp_std::priv::_Impl_vector<CEffect_Rain::Item,xalloc<CEffect_Rain::Item> >::rbegin, COMDAT
; _this$ = ecx
; ___$ReturnUdt$ = eax

; 175  :   reverse_iterator rbegin()              { return reverse_iterator(end()); }

	mov	edx, DWORD PTR [ecx+4]
	mov	DWORD PTR [eax], edx
	ret	0
?rbegin@?$_Impl_vector@UItem@CEffect_Rain@@V?$xalloc@UItem@CEffect_Rain@@@@@priv@stlp_std@@QAE?AV?$reverse_iterator@PAUItem@CEffect_Rain@@@3@XZ ENDP ; stlp_std::priv::_Impl_vector<CEffect_Rain::Item,xalloc<CEffect_Rain::Item> >::rbegin
; Function compile flags: /Ogtpy
_TEXT	ENDS
;	COMDAT ??1?$_Vector_base@USFlare@CLensFlareDescriptor@@V?$xalloc@USFlare@CLensFlareDescriptor@@@@@priv@stlp_std@@QAE@XZ
_TEXT	SEGMENT
??1?$_Vector_base@USFlare@CLensFlareDescriptor@@V?$xalloc@USFlare@CLensFlareDescriptor@@@@@priv@stlp_std@@QAE@XZ PROC ; stlp_std::priv::_Vector_base<CLensFlareDescriptor::SFlare,xalloc<CLensFlareDescriptor::SFlare> >::~_Vector_base<CLensFlareDescriptor::SFlare,xalloc<CLensFlareDescriptor::SFlare> >, COMDAT
; _this$ = eax

; 85   :     if (_M_start != _STLP_DEFAULT_CONSTRUCTED(pointer))

	mov	eax, DWORD PTR [eax]
	test	eax, eax
	je	SHORT $LN6@Vector_bas@13

; 86   :       _M_end_of_storage.deallocate(_M_start, _M_end_of_storage._M_data - _M_start);

	mov	ecx, DWORD PTR __imp_?Memory@@3VxrMemory@@A
