; Listing generated by Microsoft (R) Optimizing Compiler Version 14.00.50727.762 

	TITLE	D:\CLEARSKY\sources\engine\xrEngine\IGame_Persistent.cpp
	.686P
	.XMM
	include listing.inc
	.model	flat

INCLUDELIB OLDNAMES

PUBLIC	??_R4CPS_Instance@@6BIRenderable@@@		; CPS_Instance::`RTTI Complete Object Locator'
PUBLIC	?shedule_Name@CPS_Instance@@UBE?AVshared_str@@XZ ; CPS_Instance::shedule_Name
PUBLIC	??_R4CPS_Instance@@6BISheduled@@@		; CPS_Instance::`RTTI Complete Object Locator'
PUBLIC	?Locked@CPS_Instance@@UAEHXZ			; CPS_Instance::Locked
PUBLIC	??_ECPS_Instance@@MAEPAXI@Z			; CPS_Instance::`vector deleting destructor'
PUBLIC	?dcast_Renderable@CPS_Instance@@UAEPAVIRenderable@@XZ ; CPS_Instance::dcast_Renderable
PUBLIC	??_R4CPS_Instance@@6BISpatial@@@		; CPS_Instance::`RTTI Complete Object Locator'
PUBLIC	??_R3CPS_Instance@@8				; CPS_Instance::`RTTI Class Hierarchy Descriptor'
PUBLIC	??_R2CPS_Instance@@8				; CPS_Instance::`RTTI Base Class Array'
PUBLIC	??_R1DM@?0A@EA@IRenderable@@8			; IRenderable::`RTTI Base Class Descriptor at (60,-1,0,64)'
PUBLIC	??_R1DE@?0A@EA@ISheduled@@8			; ISheduled::`RTTI Base Class Descriptor at (52,-1,0,64)'
PUBLIC	??_R1A@?0A@EA@CPS_Instance@@8			; CPS_Instance::`RTTI Base Class Descriptor at (0,-1,0,64)'
PUBLIC	??_R0?AVCPS_Instance@@@8			; CPS_Instance `RTTI Type Descriptor'
PUBLIC	?OnFrame@IGame_Persistent@@UAGXXZ		; IGame_Persistent::OnFrame
PUBLIC	?OnAppDeactivate@IGame_Persistent@@UAEXXZ	; IGame_Persistent::OnAppDeactivate
PUBLIC	?OnAppActivate@IGame_Persistent@@UAEXXZ		; IGame_Persistent::OnAppActivate
PUBLIC	?OnAppEnd@IGame_Persistent@@UAEXXZ		; IGame_Persistent::OnAppEnd
PUBLIC	?OnAppStart@IGame_Persistent@@UAEXXZ		; IGame_Persistent::OnAppStart
PUBLIC	?OnAssetsChanged@IGame_Persistent@@UAEXXZ	; IGame_Persistent::OnAssetsChanged
PUBLIC	?OnGameEnd@IGame_Persistent@@UAEXXZ		; IGame_Persistent::OnGameEnd
PUBLIC	?OnGameStart@IGame_Persistent@@UAEXXZ		; IGame_Persistent::OnGameStart
PUBLIC	?Disconnect@IGame_Persistent@@UAEXXZ		; IGame_Persistent::Disconnect
PUBLIC	?Start@IGame_Persistent@@UAEXPBD@Z		; IGame_Persistent::Start
PUBLIC	?PreStart@IGame_Persistent@@UAEXPBD@Z		; IGame_Persistent::PreStart
PUBLIC	?Remove@?$CRegistrator@VpureAppStart@@@@QAEXPAVpureAppStart@@@Z ; CRegistrator<pureAppStart>::Remove
PUBLIC	?Remove@?$CRegistrator@VpureAppEnd@@@@QAEXPAVpureAppEnd@@@Z ; CRegistrator<pureAppEnd>::Remove
PUBLIC	??_GCEnvironment@@QAEPAXI@Z			; CEnvironment::`scalar deleting destructor'
PUBLIC	??R?$xr_special_free@$0A@VCEnvironment@@@@QAEXAAPAVCEnvironment@@@Z ; xr_special_free<0,CEnvironment>::operator()
PUBLIC	??$xr_delete@VCEnvironment@@@@YAXAAPAVCEnvironment@@@Z ; xr_delete<CEnvironment>
PUBLIC	??_ECPS_Instance@@ODE@AEPAXI@Z			; [thunk]:CPS_Instance::`vector deleting destructor'
PUBLIC	??_ECPS_Instance@@ODM@AEPAXI@Z			; [thunk]:CPS_Instance::`vector deleting destructor'
PUBLIC	?_REG_Compare@?$CRegistrator@VpureAppStart@@@@CAHPBX0@Z ; CRegistrator<pureAppStart>::_REG_Compare
PUBLIC	?Resort@?$CRegistrator@VpureAppStart@@@@QAEXXZ	; CRegistrator<pureAppStart>::Resort
PUBLIC	?Add@?$CRegistrator@VpureAppStart@@@@QAEXPAVpureAppStart@@HI@Z ; CRegistrator<pureAppStart>::Add
PUBLIC	?_REG_Compare@?$CRegistrator@VpureAppEnd@@@@CAHPBX0@Z ; CRegistrator<pureAppEnd>::_REG_Compare
PUBLIC	?Resort@?$CRegistrator@VpureAppEnd@@@@QAEXXZ	; CRegistrator<pureAppEnd>::Resort
PUBLIC	?Add@?$CRegistrator@VpureAppEnd@@@@QAEXPAVpureAppEnd@@HI@Z ; CRegistrator<pureAppEnd>::Add
PUBLIC	??0?$xalloc@PAX@@QAE@XZ				; xalloc<void *>::xalloc<void *>
PUBLIC	??0?$_BinaryPredWrapper@PAXPAVCPS_Instance@@U?$less@PAVCPS_Instance@@@stlp_std@@@priv@stlp_std@@QAE@XZ ; stlp_std::priv::_BinaryPredWrapper<void *,CPS_Instance *,stlp_std::less<CPS_Instance *> >::_BinaryPredWrapper<void *,CPS_Instance *,stlp_std::less<CPS_Instance *> >
PUBLIC	??0?$_Rb_tree@PAXU?$_BinaryPredWrapper@PAXPAVCPS_Instance@@U?$less@PAVCPS_Instance@@@stlp_std@@@priv@stlp_std@@PAXU?$_Identity@PAX@23@U?$_SetTraitsT@PAX@23@V?$xalloc@PAX@@@priv@stlp_std@@QAE@ABU?$_BinaryPredWrapper@PAXPAVCPS_Instance@@U?$less@PAVCPS_Instance@@@stlp_std@@@12@ABV?$xalloc@PAX@@@Z ; stlp_std::priv::_Rb_tree<void *,stlp_std::priv::_BinaryPredWrapper<void *,CPS_Instance *,stlp_std::less<CPS_Instance *> >,void *,stlp_std::priv::_Identity<void *>,stlp_std::priv::_SetTraitsT<void *>,xalloc<void *> >::_Rb_tree<void *,stlp_std::priv::_BinaryPredWrapper<void *,CPS_Instance *,stlp_std::less<CPS_Instance *> >,void *,stlp_std::priv::_Identity<void *>,stlp_std::priv::_SetTraitsT<void *>,xalloc<void *> >
PUBLIC	??0?$set@PAVCPS_Instance@@U?$less@PAVCPS_Instance@@@stlp_std@@V?$xalloc@PAVCPS_Instance@@@@@stlp_std@@QAE@XZ ; stlp_std::set<CPS_Instance *,stlp_std::less<CPS_Instance *>,xalloc<CPS_Instance *> >::set<CPS_Instance *,stlp_std::less<CPS_Instance *>,xalloc<CPS_Instance *> >
PUBLIC	??0?$xr_set@PAVCPS_Instance@@U?$less@PAVCPS_Instance@@@stlp_std@@V?$xalloc@PAVCPS_Instance@@@@@@QAE@XZ ; xr_set<CPS_Instance *,stlp_std::less<CPS_Instance *>,xalloc<CPS_Instance *> >::xr_set<CPS_Instance *,stlp_std::less<CPS_Instance *>,xalloc<CPS_Instance *> >
PUBLIC	??0?$xalloc@PAVCPS_Instance@@@@QAE@XZ		; xalloc<CPS_Instance *>::xalloc<CPS_Instance *>
PUBLIC	??$?0PAVCPS_Instance@@@?$xalloc@PAX@@QAE@ABV?$xalloc@PAVCPS_Instance@@@@@Z ; xalloc<void *>::xalloc<void *><CPS_Instance *>
PUBLIC	??0?$vector@PAVCPS_Instance@@V?$xalloc@PAVCPS_Instance@@@@@stlp_std@@QAE@ABV?$xalloc@PAVCPS_Instance@@@@@Z ; stlp_std::vector<CPS_Instance *,xalloc<CPS_Instance *> >::vector<CPS_Instance *,xalloc<CPS_Instance *> >
PUBLIC	??0?$xr_vector@PAVCPS_Instance@@V?$xalloc@PAVCPS_Instance@@@@@@QAE@XZ ; xr_vector<CPS_Instance *,xalloc<CPS_Instance *> >::xr_vector<CPS_Instance *,xalloc<CPS_Instance *> >
PUBLIC	??$xr_new@VCEnvironment@@@@YAPAVCEnvironment@@XZ ; xr_new<CEnvironment>
PUBLIC	?begin@?$_Rb_tree@PAXU?$_BinaryPredWrapper@PAXPAVCPS_Instance@@U?$less@PAVCPS_Instance@@@stlp_std@@@priv@stlp_std@@PAXU?$_Identity@PAX@23@U?$_SetTraitsT@PAX@23@V?$xalloc@PAX@@@priv@stlp_std@@QAE?AU?$_Rb_tree_iterator@PAXU?$_SetTraitsT@PAX@priv@stlp_std@@@23@XZ ; stlp_std::priv::_Rb_tree<void *,stlp_std::priv::_BinaryPredWrapper<void *,CPS_Instance *,stlp_std::less<CPS_Instance *> >,void *,stlp_std::priv::_Identity<void *>,stlp_std::priv::_SetTraitsT<void *>,xalloc<void *> >::begin
PUBLIC	?begin@?$set@PAVCPS_Instance@@U?$less@PAVCPS_Instance@@@stlp_std@@V?$xalloc@PAVCPS_Instance@@@@@stlp_std@@QAE?AU?$_Rb_tree_iterator@PAVCPS_Instance@@U?$_SetTraitsT@PAVCPS_Instance@@@priv@stlp_std@@@priv@2@XZ ; stlp_std::set<CPS_Instance *,stlp_std::less<CPS_Instance *>,xalloc<CPS_Instance *> >::begin
PUBLIC	??0?$_Rb_tree_iterator@PAXU?$_SetTraitsT@PAX@priv@stlp_std@@@priv@stlp_std@@QAE@PAU_Rb_tree_node_base@12@@Z ; stlp_std::priv::_Rb_tree_iterator<void *,stlp_std::priv::_SetTraitsT<void *> >::_Rb_tree_iterator<void *,stlp_std::priv::_SetTraitsT<void *> >
PUBLIC	?end@?$_Rb_tree@PAXU?$_BinaryPredWrapper@PAXPAVCPS_Instance@@U?$less@PAVCPS_Instance@@@stlp_std@@@priv@stlp_std@@PAXU?$_Identity@PAX@23@U?$_SetTraitsT@PAX@23@V?$xalloc@PAX@@@priv@stlp_std@@QAE?AU?$_Rb_tree_iterator@PAXU?$_SetTraitsT@PAX@priv@stlp_std@@@23@XZ ; stlp_std::priv::_Rb_tree<void *,stlp_std::priv::_BinaryPredWrapper<void *,CPS_Instance *,stlp_std::less<CPS_Instance *> >,void *,stlp_std::priv::_Identity<void *>,stlp_std::priv::_SetTraitsT<void *>,xalloc<void *> >::end
PUBLIC	??0?$_Rb_tree_iterator@PAVCPS_Instance@@U?$_SetTraitsT@PAVCPS_Instance@@@priv@stlp_std@@@priv@stlp_std@@QAE@PAU_Rb_tree_node_base@12@@Z ; stlp_std::priv::_Rb_tree_iterator<CPS_Instance *,stlp_std::priv::_SetTraitsT<CPS_Instance *> >::_Rb_tree_iterator<CPS_Instance *,stlp_std::priv::_SetTraitsT<CPS_Instance *> >
PUBLIC	?_S_to_value_ite@?$set@PAVCPS_Instance@@U?$less@PAVCPS_Instance@@@stlp_std@@V?$xalloc@PAVCPS_Instance@@@@@stlp_std@@CA?AU?$_Rb_tree_iterator@PAVCPS_Instance@@U?$_SetTraitsT@PAVCPS_Instance@@@priv@stlp_std@@@priv@2@U?$_Rb_tree_iterator@PAXU?$_ConstSetTraitsT@PAX@priv@stlp_std@@@42@@Z ; stlp_std::set<CPS_Instance *,stlp_std::less<CPS_Instance *>,xalloc<CPS_Instance *> >::_S_to_value_ite
PUBLIC	??0?$_Rb_tree_iterator@PAXU?$_ConstSetTraitsT@PAX@priv@stlp_std@@@priv@stlp_std@@QAE@ABU?$_Rb_tree_iterator@PAXU?$_SetTraitsT@PAX@priv@stlp_std@@@12@@Z ; stlp_std::priv::_Rb_tree_iterator<void *,stlp_std::priv::_ConstSetTraitsT<void *> >::_Rb_tree_iterator<void *,stlp_std::priv::_ConstSetTraitsT<void *> >
PUBLIC	?end@?$set@PAVCPS_Instance@@U?$less@PAVCPS_Instance@@@stlp_std@@V?$xalloc@PAVCPS_Instance@@@@@stlp_std@@QAE?AU?$_Rb_tree_iterator@PAVCPS_Instance@@U?$_SetTraitsT@PAVCPS_Instance@@@priv@stlp_std@@@priv@2@XZ ; stlp_std::set<CPS_Instance *,stlp_std::less<CPS_Instance *>,xalloc<CPS_Instance *> >::end
PUBLIC	?empty@?$_Rb_tree@PAXU?$_BinaryPredWrapper@PAXPAVCPS_Instance@@U?$less@PAVCPS_Instance@@@stlp_std@@@priv@stlp_std@@PAXU?$_Identity@PAX@23@U?$_SetTraitsT@PAX@23@V?$xalloc@PAX@@@priv@stlp_std@@QBE_NXZ ; stlp_std::priv::_Rb_tree<void *,stlp_std::priv::_BinaryPredWrapper<void *,CPS_Instance *,stlp_std::less<CPS_Instance *> >,void *,stlp_std::priv::_Identity<void *>,stlp_std::priv::_SetTraitsT<void *>,xalloc<void *> >::empty
PUBLIC	?empty@?$set@PAVCPS_Instance@@U?$less@PAVCPS_Instance@@@stlp_std@@V?$xalloc@PAVCPS_Instance@@@@@stlp_std@@QBE_NXZ ; stlp_std::set<CPS_Instance *,stlp_std::less<CPS_Instance *>,xalloc<CPS_Instance *> >::empty
PUBLIC	?size@?$_Rb_tree@PAXU?$_BinaryPredWrapper@PAXPAVCPS_Instance@@U?$less@PAVCPS_Instance@@@stlp_std@@@priv@stlp_std@@PAXU?$_Identity@PAX@23@U?$_SetTraitsT@PAX@23@V?$xalloc@PAX@@@priv@stlp_std@@QBEIXZ ; stlp_std::priv::_Rb_tree<void *,stlp_std::priv::_BinaryPredWrapper<void *,CPS_Instance *,stlp_std::less<CPS_Instance *> >,void *,stlp_std::priv::_Identity<void *>,stlp_std::priv::_SetTraitsT<void *>,xalloc<void *> >::size
PUBLIC	?size@?$set@PAVCPS_Instance@@U?$less@PAVCPS_Instance@@@stlp_std@@V?$xalloc@PAVCPS_Instance@@@@@stlp_std@@QBEIXZ ; stlp_std::set<CPS_Instance *,stlp_std::less<CPS_Instance *>,xalloc<CPS_Instance *> >::size
PUBLIC	?size@?$xr_set@PAVCPS_Instance@@U?$less@PAVCPS_Instance@@@stlp_std@@V?$xalloc@PAVCPS_Instance@@@@@@QBEIXZ ; xr_set<CPS_Instance *,stlp_std::less<CPS_Instance *>,xalloc<CPS_Instance *> >::size
PUBLIC	?to_value_type_ref@?$_CastTraits@PAXPAVCPS_Instance@@@priv@stlp_std@@SAAAPAVCPS_Instance@@AAPAX@Z ; stlp_std::priv::_CastTraits<void *,CPS_Instance *>::to_value_type_ref
PUBLIC	?back@?$vector@PAVCPS_Instance@@V?$xalloc@PAVCPS_Instance@@@@@stlp_std@@QAEAAPAVCPS_Instance@@XZ ; stlp_std::vector<CPS_Instance *,xalloc<CPS_Instance *> >::back
PUBLIC	?pop_back@?$vector@PAVCPS_Instance@@V?$xalloc@PAVCPS_Instance@@@@@stlp_std@@QAEXXZ ; stlp_std::vector<CPS_Instance *,xalloc<CPS_Instance *> >::pop_back
PUBLIC	?size@?$vector@PAVCPS_Instance@@V?$xalloc@PAVCPS_Instance@@@@@stlp_std@@QBEIXZ ; stlp_std::vector<CPS_Instance *,xalloc<CPS_Instance *> >::size
PUBLIC	?size@?$xr_vector@PAVCPS_Instance@@V?$xalloc@PAVCPS_Instance@@@@@@QBEIXZ ; xr_vector<CPS_Instance *,xalloc<CPS_Instance *> >::size
PUBLIC	?clear@?$_Impl_vector@PAXV?$xalloc@PAX@@@priv@stlp_std@@QAEXXZ ; stlp_std::priv::_Impl_vector<void *,xalloc<void *> >::clear
PUBLIC	?clear@?$vector@PAVCPS_Instance@@V?$xalloc@PAVCPS_Instance@@@@@stlp_std@@QAEXXZ ; stlp_std::vector<CPS_Instance *,xalloc<CPS_Instance *> >::clear
PUBLIC	?clear_and_free@?$xr_vector@PAVCPS_Instance@@V?$xalloc@PAVCPS_Instance@@@@@@QAEXXZ ; xr_vector<CPS_Instance *,xalloc<CPS_Instance *> >::clear_and_free
PUBLIC	?clear@?$xr_vector@PAVCPS_Instance@@V?$xalloc@PAVCPS_Instance@@@@@@QAEXXZ ; xr_vector<CPS_Instance *,xalloc<CPS_Instance *> >::clear
PUBLIC	?_Answer@?$_BothPtrType@U?$_Rb_tree_iterator@PAVCPS_Instance@@U?$_SetTraitsT@PAVCPS_Instance@@@priv@stlp_std@@@priv@stlp_std@@PAPAVCPS_Instance@@@stlp_std@@SA?AU__false_type@2@XZ ; stlp_std::_BothPtrType<stlp_std::priv::_Rb_tree_iterator<CPS_Instance *,stlp_std::priv::_SetTraitsT<CPS_Instance *> >,CPS_Instance * *>::_Answer
PUBLIC	??0?$_Rb_tree_iterator@PAVCPS_Instance@@U?$_SetTraitsT@PAVCPS_Instance@@@priv@stlp_std@@@priv@stlp_std@@QAE@ABU012@@Z ; stlp_std::priv::_Rb_tree_iterator<CPS_Instance *,stlp_std::priv::_SetTraitsT<CPS_Instance *> >::_Rb_tree_iterator<CPS_Instance *,stlp_std::priv::_SetTraitsT<CPS_Instance *> >
PUBLIC	??D?$_Rb_tree_iterator@PAVCPS_Instance@@U?$_SetTraitsT@PAVCPS_Instance@@@priv@stlp_std@@@priv@stlp_std@@QBEAAPAVCPS_Instance@@XZ ; stlp_std::priv::_Rb_tree_iterator<CPS_Instance *,stlp_std::priv::_SetTraitsT<CPS_Instance *> >::operator*
PUBLIC	?_M_increment@?$_Rb_global@_N@priv@stlp_std@@SAPAU_Rb_tree_node_base@23@PAU423@@Z ; stlp_std::priv::_Rb_global<bool>::_M_increment
PUBLIC	??E?$_Rb_tree_iterator@PAVCPS_Instance@@U?$_SetTraitsT@PAVCPS_Instance@@@priv@stlp_std@@@priv@stlp_std@@QAEAAU012@XZ ; stlp_std::priv::_Rb_tree_iterator<CPS_Instance *,stlp_std::priv::_SetTraitsT<CPS_Instance *> >::operator++
PUBLIC	??9?$_Rb_tree_iterator@PAVCPS_Instance@@U?$_SetTraitsT@PAVCPS_Instance@@@priv@stlp_std@@@priv@stlp_std@@QBE_NU?$_Rb_tree_iterator@PAVCPS_Instance@@U?$_ConstSetTraitsT@PAVCPS_Instance@@@priv@stlp_std@@@12@@Z ; stlp_std::priv::_Rb_tree_iterator<CPS_Instance *,stlp_std::priv::_SetTraitsT<CPS_Instance *> >::operator!=
PUBLIC	??0?$_Rb_tree_iterator@PAVCPS_Instance@@U?$_ConstSetTraitsT@PAVCPS_Instance@@@priv@stlp_std@@@priv@stlp_std@@QAE@ABU?$_Rb_tree_iterator@PAVCPS_Instance@@U?$_SetTraitsT@PAVCPS_Instance@@@priv@stlp_std@@@12@@Z ; stlp_std::priv::_Rb_tree_iterator<CPS_Instance *,stlp_std::priv::_ConstSetTraitsT<CPS_Instance *> >::_Rb_tree_iterator<CPS_Instance *,stlp_std::priv::_ConstSetTraitsT<CPS_Instance *> >
PUBLIC	??$__copy@U?$_Rb_tree_iterator@PAVCPS_Instance@@U?$_SetTraitsT@PAVCPS_Instance@@@priv@stlp_std@@@priv@stlp_std@@PAPAVCPS_Instance@@H@priv@stlp_std@@YAPAPAVCPS_Instance@@U?$_Rb_tree_iterator@PAVCPS_Instance@@U?$_SetTraitsT@PAVCPS_Instance@@@priv@stlp_std@@@01@0PAPAV2@ABUinput_iterator_tag@1@PAH@Z ; stlp_std::priv::__copy<stlp_std::priv::_Rb_tree_iterator<CPS_Instance *,stlp_std::priv::_SetTraitsT<CPS_Instance *> >,CPS_Instance * *,int>
PUBLIC	??$__copy_aux@U?$_Rb_tree_iterator@PAVCPS_Instance@@U?$_SetTraitsT@PAVCPS_Instance@@@priv@stlp_std@@@priv@stlp_std@@PAPAVCPS_Instance@@@priv@stlp_std@@YAPAPAVCPS_Instance@@U?$_Rb_tree_iterator@PAVCPS_Instance@@U?$_SetTraitsT@PAVCPS_Instance@@@priv@stlp_std@@@01@0PAPAV2@ABU__false_type@1@@Z ; stlp_std::priv::__copy_aux<stlp_std::priv::_Rb_tree_iterator<CPS_Instance *,stlp_std::priv::_SetTraitsT<CPS_Instance *> >,CPS_Instance * *>
PUBLIC	??$copy@U?$_Rb_tree_iterator@PAVCPS_Instance@@U?$_SetTraitsT@PAVCPS_Instance@@@priv@stlp_std@@@priv@stlp_std@@PAPAVCPS_Instance@@@stlp_std@@YAPAPAVCPS_Instance@@U?$_Rb_tree_iterator@PAVCPS_Instance@@U?$_SetTraitsT@PAVCPS_Instance@@@priv@stlp_std@@@priv@0@0PAPAV1@@Z ; stlp_std::copy<stlp_std::priv::_Rb_tree_iterator<CPS_Instance *,stlp_std::priv::_SetTraitsT<CPS_Instance *> >,CPS_Instance * *>
PUBLIC	??$__find_if@PAPAVCPS_Instance@@P6A_NABQAV1@@Z@priv@stlp_std@@YAPAPAVCPS_Instance@@PAPAV2@0P6A_NABQAV2@@ZABUrandom_access_iterator_tag@1@@Z ; stlp_std::priv::__find_if<CPS_Instance * *,bool (__cdecl*)(CPS_Instance * const &)>
PUBLIC	??$find_if@PAPAVCPS_Instance@@P6A_NABQAV1@@Z@stlp_std@@YAPAPAVCPS_Instance@@PAPAV1@0P6A_NABQAV1@@Z@Z ; stlp_std::find_if<CPS_Instance * *,bool (__cdecl*)(CPS_Instance * const &)>
PUBLIC	??$remove_copy_if@PAPAVCPS_Instance@@PAPAV1@P6A_NABQAV1@@Z@stlp_std@@YAPAPAVCPS_Instance@@PAPAV1@00P6A_NABQAV1@@Z@Z ; stlp_std::remove_copy_if<CPS_Instance * *,CPS_Instance * *,bool (__cdecl*)(CPS_Instance * const &)>
PUBLIC	??$remove_if@PAPAVCPS_Instance@@P6A_NABQAV1@@Z@stlp_std@@YAPAPAVCPS_Instance@@PAPAV1@0P6A_NABQAV1@@Z@Z ; stlp_std::remove_if<CPS_Instance * *,bool (__cdecl*)(CPS_Instance * const &)>
PUBLIC	??0params@IGame_Persistent@@QAE@XZ		; IGame_Persistent::params::params
PUBLIC	?_min@@YAHHH@Z					; _min
PUBLIC	?reset@params@IGame_Persistent@@QAEXXZ		; IGame_Persistent::params::reset
PUBLIC	??$_GetItem@$0BAA@@@YAPADPBDHAAY0BAA@DD0_N@Z	; _GetItem<256>
PUBLIC	?parse_cmd_line@params@IGame_Persistent@@QAEXPBD@Z ; IGame_Persistent::params::parse_cmd_line
PUBLIC	??_C@_0BC@PBHNCFIM@particle_instance?$AA@	; `string'
PUBLIC	?g_pGamePersistent@@3PAVIGame_Persistent@@A	; g_pGamePersistent
PUBLIC	??_C@_0M@GLDFIAFI@?9noprefetch?$AA@		; `string'
PUBLIC	??_C@_0BD@DCNEFOFM@Loading?5objects?4?4?4?$AA@	; `string'
PUBLIC	??_C@_0BC@EKMFCOAB@Loading?5models?4?4?4?$AA@	; `string'
PUBLIC	??_C@_0BM@BCKNFNIB@?$CK?5?$FLprefetch?$FN?5time?3?5?5?5?5?$CFd?5ms?$AA@ ; `string'
PUBLIC	??_C@_0BL@BOLEHGBI@?$CK?5?$FLprefetch?$FN?5memory?3?5?5?$CFdKb?$AA@ ; `string'
PUBLIC	??_C@_08MALHLIML@?9?9locked?$AA@		; `string'
PUBLIC	??_7CPS_Instance@@6BISpatial@@@			; CPS_Instance::`vftable'
PUBLIC	??_7CPS_Instance@@6BISheduled@@@		; CPS_Instance::`vftable'
PUBLIC	??_7CPS_Instance@@6BIRenderable@@@		; CPS_Instance::`vftable'
EXTRN	?dcast_CObject@ISpatial@@UAEPAVCObject@@XZ:PROC	; ISpatial::dcast_CObject
EXTRN	?spatial_move@ISpatial@@UAEXXZ:PROC		; ISpatial::spatial_move
EXTRN	?spatial_unregister@ISpatial@@UAEXXZ:PROC	; ISpatial::spatial_unregister
EXTRN	?spatial_register@ISpatial@@UAEXXZ:PROC		; ISpatial::spatial_register
EXTRN	__imp_?spatial_register@ISpatial@@UAEXXZ:PROC
EXTRN	__imp_?spatial_unregister@ISpatial@@UAEXXZ:PROC
EXTRN	__imp_?spatial_move@ISpatial@@UAEXXZ:PROC
EXTRN	__imp_?dcast_CObject@ISpatial@@UAEPAVCObject@@XZ:PROC
EXTRN	__imp_?GetElapsed_sec@CTimer@@QBEMXZ:PROC
EXTRN	__imp__strlwr:PROC
EXTRN	__imp_?_GetItemCount@@YAHPBDD@Z:PROC
EXTRN	__imp_?_GetItem@@YAPADPBDHPADID0_N@Z:PROC
?g_pGamePersistent@@3PAVIGame_Persistent@@A DD 01H DUP (?) ; g_pGamePersistent
;	COMDAT ??_7CPS_Instance@@6BIRenderable@@@
CONST	SEGMENT
??_7CPS_Instance@@6BIRenderable@@@ DD FLAT:??_R4CPS_Instance@@6BIRenderable@@@ ; CPS_Instance::`vftable'
	DD	FLAT:??_ECPS_Instance@@ODM@AEPAXI@Z
	DD	FLAT:__purecall
	DD	FLAT:?renderable_ShadowGenerate@IRenderable@@UAEHXZ
	DD	FLAT:?renderable_ShadowReceive@IRenderable@@UAEHXZ
CONST	ENDS
;	COMDAT ??_R4CPS_Instance@@6BIRenderable@@@
rdata$r	SEGMENT
??_R4CPS_Instance@@6BIRenderable@@@ DD 00H		; CPS_Instance::`RTTI Complete Object Locator'
	DD	03cH
	DD	00H
	DD	FLAT:??_R0?AVCPS_Instance@@@8
	DD	FLAT:??_R3CPS_Instance@@8
rdata$r	ENDS
;	COMDAT ??_7CPS_Instance@@6BISheduled@@@
CONST	SEGMENT
??_7CPS_Instance@@6BISheduled@@@ DD FLAT:??_R4CPS_Instance@@6BISheduled@@@ ; CPS_Instance::`vftable'
	DD	FLAT:??_ECPS_Instance@@ODE@AEPAXI@Z
	DD	FLAT:__purecall
	DD	FLAT:?shedule_Update@CPS_Instance@@UAEXI@Z
	DD	FLAT:?shedule_Name@CPS_Instance@@UBE?AVshared_str@@XZ
	DD	FLAT:__purecall
CONST	ENDS
;	COMDAT ??_R4CPS_Instance@@6BISheduled@@@
rdata$r	SEGMENT
??_R4CPS_Instance@@6BISheduled@@@ DD 00H		; CPS_Instance::`RTTI Complete Object Locator'
	DD	034H
	DD	00H
	DD	FLAT:??_R0?AVCPS_Instance@@@8
	DD	FLAT:??_R3CPS_Instance@@8
rdata$r	ENDS
;	COMDAT ??_7CPS_Instance@@6BISpatial@@@
CONST	SEGMENT
??_7CPS_Instance@@6BISpatial@@@ DD FLAT:??_R4CPS_Instance@@6BISpatial@@@ ; CPS_Instance::`vftable'
	DD	FLAT:?spatial_register@ISpatial@@UAEXXZ
	DD	FLAT:?spatial_unregister@ISpatial@@UAEXXZ
	DD	FLAT:?spatial_move@ISpatial@@UAEXXZ
	DD	FLAT:?spatial_sector_point@ISpatial@@UAE?AU?$_vector3@M@@XZ
	DD	FLAT:?dcast_CObject@ISpatial@@UAEPAVCObject@@XZ
	DD	FLAT:?dcast_FeelSound@ISpatial@@UAEPAVSound@Feel@@XZ
	DD	FLAT:?dcast_Renderable@CPS_Instance@@UAEPAVIRenderable@@XZ
	DD	FLAT:?dcast_Light@ISpatial@@UAEPAVIRender_Light@@XZ
	DD	FLAT:??_ECPS_Instance@@MAEPAXI@Z
	DD	FLAT:?PSI_internal_delete@CPS_Instance@@MAEXXZ
	DD	FLAT:?PSI_destroy@CPS_Instance@@UAEXXZ
	DD	FLAT:__purecall
	DD	FLAT:?Locked@CPS_Instance@@UAEHXZ
CONST	ENDS
;	COMDAT ??_R4CPS_Instance@@6BISpatial@@@
rdata$r	SEGMENT
??_R4CPS_Instance@@6BISpatial@@@ DD 00H			; CPS_Instance::`RTTI Complete Object Locator'
	DD	00H
	DD	00H
	DD	FLAT:??_R0?AVCPS_Instance@@@8
	DD	FLAT:??_R3CPS_Instance@@8
rdata$r	ENDS
;	COMDAT ??_R3CPS_Instance@@8
rdata$r	SEGMENT
??_R3CPS_Instance@@8 DD 00H				; CPS_Instance::`RTTI Class Hierarchy Descriptor'
	DD	01H
	DD	04H
	DD	FLAT:??_R2CPS_Instance@@8
rdata$r	ENDS
;	COMDAT ??_R2CPS_Instance@@8
rdata$r	SEGMENT
??_R2CPS_Instance@@8 DD FLAT:??_R1A@?0A@EA@CPS_Instance@@8 ; CPS_Instance::`RTTI Base Class Array'
	DD	FLAT:??_R1A@?0A@EA@ISpatial@@8
	DD	FLAT:??_R1DE@?0A@EA@ISheduled@@8
	DD	FLAT:??_R1DM@?0A@EA@IRenderable@@8
rdata$r	ENDS
;	COMDAT ??_R1DM@?0A@EA@IRenderable@@8
rdata$r	SEGMENT
??_R1DM@?0A@EA@IRenderable@@8 DD FLAT:??_R0?AVIRenderable@@@8 ; IRenderable::`RTTI Base Class Descriptor at (60,-1,0,64)'
	DD	00H
	DD	03cH
	DD	0ffffffffH
	DD	00H
	DD	040H
	DD	FLAT:??_R3IRenderable@@8
rdata$r	ENDS
;	COMDAT ??_R1DE@?0A@EA@ISheduled@@8
rdata$r	SEGMENT
??_R1DE@?0A@EA@ISheduled@@8 DD FLAT:??_R0?AVISheduled@@@8 ; ISheduled::`RTTI Base Class Descriptor at (52,-1,0,64)'
	DD	00H
	DD	034H
	DD	0ffffffffH
	DD	00H
	DD	040H
	DD	FLAT:??_R3ISheduled@@8
rdata$r	ENDS
;	COMDAT ??_R1A@?0A@EA@CPS_Instance@@8
rdata$r	SEGMENT
??_R1A@?0A@EA@CPS_Instance@@8 DD FLAT:??_R0?AVCPS_Instance@@@8 ; CPS_Instance::`RTTI Base Class Descriptor at (0,-1,0,64)'
	DD	03H
	DD	00H
	DD	0ffffffffH
	DD	00H
	DD	040H
	DD	FLAT:??_R3CPS_Instance@@8
rdata$r	ENDS
;	COMDAT ??_R0?AVCPS_Instance@@@8
_DATA	SEGMENT
??_R0?AVCPS_Instance@@@8 DD FLAT:??_7type_info@@6B@	; CPS_Instance `RTTI Type Descriptor'
	DD	00H
	DB	'.?AVCPS_Instance@@', 00H
_DATA	ENDS
;	COMDAT ??_C@_08MALHLIML@?9?9locked?$AA@
CONST	SEGMENT
??_C@_08MALHLIML@?9?9locked?$AA@ DB '--locked', 00H	; `string'
CONST	ENDS
;	COMDAT ??_C@_0BL@BOLEHGBI@?$CK?5?$FLprefetch?$FN?5memory?3?5?5?$CFdKb?$AA@
CONST	SEGMENT
??_C@_0BL@BOLEHGBI@?$CK?5?$FLprefetch?$FN?5memory?3?5?5?$CFdKb?$AA@ DB '*'
	DB	' [prefetch] memory:  %dKb', 00H		; `string'
CONST	ENDS
;	COMDAT ??_C@_0BM@BCKNFNIB@?$CK?5?$FLprefetch?$FN?5time?3?5?5?5?5?$CFd?5ms?$AA@
CONST	SEGMENT
??_C@_0BM@BCKNFNIB@?$CK?5?$FLprefetch?$FN?5time?3?5?5?5?5?$CFd?5ms?$AA@ DB '*'
	DB	' [prefetch] time:    %d ms', 00H		; `string'
CONST	ENDS
;	COMDAT ??_C@_0BC@EKMFCOAB@Loading?5models?4?4?4?$AA@
CONST	SEGMENT
??_C@_0BC@EKMFCOAB@Loading?5models?4?4?4?$AA@ DB 'Loading models...', 00H ; `string'
CONST	ENDS
;	COMDAT ??_C@_0BD@DCNEFOFM@Loading?5objects?4?4?4?$AA@
CONST	SEGMENT
??_C@_0BD@DCNEFOFM@Loading?5objects?4?4?4?$AA@ DB 'Loading objects...', 00H ; `string'
CONST	ENDS
;	COMDAT ??_C@_0M@GLDFIAFI@?9noprefetch?$AA@
CONST	SEGMENT
??_C@_0M@GLDFIAFI@?9noprefetch?$AA@ DB '-noprefetch', 00H ; `string'
CONST	ENDS
;	COMDAT ??_C@_0BC@PBHNCFIM@particle_instance?$AA@
CONST	SEGMENT
??_C@_0BC@PBHNCFIM@particle_instance?$AA@ DB 'particle_instance', 00H ; `string'
; Function compile flags: /Ogtpy
; File d:\clearsky\sources\engine\xrcore\_std_extensions.h
;	COMDAT ?_min@@YAHHH@Z
_TEXT	SEGMENT
?_min@@YAHHH@Z PROC					; _min, COMDAT
; _x$ = ecx
; _y$ = edx

; 159  : IC s32		_min	(s32 x, s32 y)	{ return y + ((x - y) & ((x - y) >> (sizeof(s32) * 8 - 1))); };

	sub	ecx, edx
	mov	eax, ecx
	sar	eax, 31					; 0000001fH
	and	eax, ecx
	add	eax, edx
	ret	0
?_min@@YAHHH@Z ENDP					; _min
; Function compile flags: /Ogtpy
; File d:\clearsky\sources\sdk\include\stlport\stl\_tree.h
_TEXT	ENDS
;	COMDAT ??9?$_Rb_tree_iterator@PAVCPS_Instance@@U?$_SetTraitsT@PAVCPS_Instance@@@priv@stlp_std@@@priv@stlp_std@@QBE_NU?$_Rb_tree_iterator@PAVCPS_Instance@@U?$_ConstSetTraitsT@PAVCPS_Instance@@@priv@stlp_std@@@12@@Z
_TEXT	SEGMENT
___rhs$ = 8						; size = 4
??9?$_Rb_tree_iterator@PAVCPS_Instance@@U?$_SetTraitsT@PAVCPS_Instance@@@priv@stlp_std@@@priv@stlp_std@@QBE_NU?$_Rb_tree_iterator@PAVCPS_Instance@@U?$_ConstSetTraitsT@PAVCPS_Instance@@@priv@stlp_std@@@12@@Z PROC ; stlp_std::priv::_Rb_tree_iterator<CPS_Instance *,stlp_std::priv::_SetTraitsT<CPS_Instance *> >::operator!=, COMDAT
; _this$ = ecx

; 200  :     return _M_node != __rhs._M_node;

	mov	edx, DWORD PTR [ecx]
	xor	eax, eax
	cmp	edx, DWORD PTR ___rhs$[esp-4]
	setne	al

; 201  :   }

	ret	4
??9?$_Rb_tree_iterator@PAVCPS_Instance@@U?$_SetTraitsT@PAVCPS_Instance@@@priv@stlp_std@@@priv@stlp_std@@QBE_NU?$_Rb_tree_iterator@PAVCPS_Instance@@U?$_ConstSetTraitsT@PAVCPS_Instance@@@priv@stlp_std@@@12@@Z ENDP ; stlp_std::priv::_Rb_tree_iterator<CPS_Instance *,stlp_std::priv::_SetTraitsT<CPS_Instance *> >::operator!=
; Function compile flags: /Ogtpy
; File d:\clearsky\sources\sdk\include\stlport\stl\_algobase.c
_TEXT	ENDS
;	COMDAT ??$__find_if@PAPAVCPS_Instance@@P6A_NABQAV1@@Z@priv@stlp_std@@YAPAPAVCPS_Instance@@PAPAV2@0P6A_NABQAV2@@ZABUrandom_access_iterator_tag@1@@Z
_TEXT	SEGMENT
??$__find_if@PAPAVCPS_Instance@@P6A_NABQAV1@@Z@priv@stlp_std@@YAPAPAVCPS_Instance@@PAPAV2@0P6A_NABQAV2@@ZABUrandom_access_iterator_tag@1@@Z PROC ; stlp_std::priv::__find_if<CPS_Instance * *,bool (__cdecl*)(CPS_Instance * const &)>, COMDAT
; ___first$ = eax
; ___last$ = edx

; 155  :   _STLP_DIFFERENCE_TYPE(_RandomAccessIter) __trip_count = (__last - __first) >> 2;

	mov	ecx, edx
	sub	ecx, eax
	sar	ecx, 4

; 156  : 
; 157  :   for ( ; __trip_count > 0 ; --__trip_count) {

	test	ecx, ecx
	push	esi
	jle	SHORT $LN14@find_if
	npad	4
$LL16@find_if:

; 158  :     if (__pred(*__first)) return __first;

	mov	esi, DWORD PTR [eax]
	cmp	BYTE PTR [esi+140], 0
	je	SHORT $LN8@find_if

; 159  :     ++__first;
; 160  : 
; 161  :     if (__pred(*__first)) return __first;

	mov	esi, DWORD PTR [eax+4]
	add	eax, 4
	cmp	BYTE PTR [esi+140], 0
	je	SHORT $LN8@find_if

; 162  :     ++__first;
; 163  : 
; 164  :     if (__pred(*__first)) return __first;

	mov	esi, DWORD PTR [eax+4]
	add	eax, 4
	cmp	BYTE PTR [esi+140], 0
	je	SHORT $LN8@find_if

; 165  :     ++__first;
; 166  : 
; 167  :     if (__pred(*__first)) return __first;

	mov	esi, DWORD PTR [eax+4]
	add	eax, 4
	cmp	BYTE PTR [esi+140], 0
	je	SHORT $LN8@find_if
	sub	ecx, 1

; 168  :     ++__first;

	add	eax, 4
	test	ecx, ecx
	jg	SHORT $LL16@find_if
$LN14@find_if:

; 169  :   }
; 170  : 
; 171  :   switch(__last - __first) {

	mov	ecx, edx
	sub	ecx, eax
	sar	ecx, 2
	sub	ecx, 1
	je	SHORT $LN3@find_if
	sub	ecx, 1
	je	SHORT $LN5@find_if
	sub	ecx, 1
	jne	SHORT $LN2@find_if

; 172  :   case 3:
; 173  :     if (__pred(*__first)) return __first;

	mov	ecx, DWORD PTR [eax]
	cmp	BYTE PTR [ecx+140], 0
	je	SHORT $LN8@find_if

; 174  :     ++__first;

	add	eax, 4
$LN5@find_if:

; 175  :   case 2:
; 176  :     if (__pred(*__first)) return __first;

	mov	ecx, DWORD PTR [eax]
	cmp	BYTE PTR [ecx+140], 0
	je	SHORT $LN8@find_if

; 177  :     ++__first;

	add	eax, 4
$LN3@find_if:

; 178  :   case 1:
; 179  :     if (__pred(*__first)) return __first;

	mov	ecx, DWORD PTR [eax]
	cmp	BYTE PTR [ecx+140], 0
	je	SHORT $LN8@find_if
$LN2@find_if:

; 180  :       //++__first;
; 181  :   case 0:
; 182  :   default:
; 183  :     return __last;

	mov	eax, edx
$LN8@find_if:
	pop	esi

; 184  :   }
; 185  : }

	ret	0
??$__find_if@PAPAVCPS_Instance@@P6A_NABQAV1@@Z@priv@stlp_std@@YAPAPAVCPS_Instance@@PAPAV2@0P6A_NABQAV2@@ZABUrandom_access_iterator_tag@1@@Z ENDP ; stlp_std::priv::__find_if<CPS_Instance * *,bool (__cdecl*)(CPS_Instance * const &)>
; Function compile flags: /Ogtpy
; File d:\clearsky\sources\sdk\include\stlport\stl\_algo.h
_TEXT	ENDS
;	COMDAT ??$remove_copy_if@PAPAVCPS_Instance@@PAPAV1@P6A_NABQAV1@@Z@stlp_std@@YAPAPAVCPS_Instance@@PAPAV1@00P6A_NABQAV1@@Z@Z
_TEXT	SEGMENT
??$remove_copy_if@PAPAVCPS_Instance@@PAPAV1@P6A_NABQAV1@@Z@stlp_std@@YAPAPAVCPS_Instance@@PAPAV1@00P6A_NABQAV1@@Z@Z PROC ; stlp_std::remove_copy_if<CPS_Instance * *,CPS_Instance * *,bool (__cdecl*)(CPS_Instance * const &)>, COMDAT
; ___first$ = edx
; ___last$ = esi
; ___result$ = eax

; 254  :   _STLP_DEBUG_CHECK(_STLP_PRIV __check_range(__first, __last))
; 255  :   for ( ; __first != __last; ++__first) {

	cmp	edx, esi
	je	SHORT $LN2@remove_cop@2
$LL4@remove_cop@2:

; 256  :     if (!__pred(*__first)) {

	mov	ecx, DWORD PTR [edx]
	cmp	BYTE PTR [ecx+140], 0
	je	SHORT $LN3@remove_cop@2

; 257  :       *__result = *__first;

	mov	DWORD PTR [eax], ecx

; 258  :       ++__result;

	add	eax, 4
$LN3@remove_cop@2:
	add	edx, 4
	cmp	edx, esi
	jne	SHORT $LL4@remove_cop@2
$LN2@remove_cop@2:

; 259  :     }
; 260  :   }
; 261  :   return __result;
; 262  : }

	ret	0
??$remove_copy_if@PAPAVCPS_Instance@@PAPAV1@P6A_NABQAV1@@Z@stlp_std@@YAPAPAVCPS_Instance@@PAPAV1@00P6A_NABQAV1@@Z@Z ENDP ; stlp_std::remove_copy_if<CPS_Instance * *,CPS_Instance * *,bool (__cdecl*)(CPS_Instance * const &)>
; Function compile flags: /Ogtpy
; File d:\clearsky\sources\sdk\include\stlport\stl\_algobase.c
_TEXT	ENDS
;	COMDAT ??$find_if@PAPAVCPS_Instance@@P6A_NABQAV1@@Z@stlp_std@@YAPAPAVCPS_Instance@@PAPAV1@0P6A_NABQAV1@@Z@Z
_TEXT	SEGMENT
??$find_if@PAPAVCPS_Instance@@P6A_NABQAV1@@Z@stlp_std@@YAPAPAVCPS_Instance@@PAPAV1@0P6A_NABQAV1@@Z@Z PROC ; stlp_std::find_if<CPS_Instance * *,bool (__cdecl*)(CPS_Instance * const &)>, COMDAT
; ___first$ = eax
; ___last$ = edx

; 209  :   _STLP_DEBUG_CHECK(_STLP_PRIV __check_range(__first, __last))
; 210  :   return _STLP_PRIV __find_if(__first, __last, __pred, _STLP_ITERATOR_CATEGORY(__first, _InputIter));

	jmp	??$__find_if@PAPAVCPS_Instance@@P6A_NABQAV1@@Z@priv@stlp_std@@YAPAPAVCPS_Instance@@PAPAV2@0P6A_NABQAV2@@ZABUrandom_access_iterator_tag@1@@Z ; stlp_std::priv::__find_if<CPS_Instance * *,bool (__cdecl*)(CPS_Instance * const &)>
??$find_if@PAPAVCPS_Instance@@P6A_NABQAV1@@Z@stlp_std@@YAPAPAVCPS_Instance@@PAPAV1@0P6A_NABQAV1@@Z@Z ENDP ; stlp_std::find_if<CPS_Instance * *,bool (__cdecl*)(CPS_Instance * const &)>
; Function compile flags: /Ogtpy
; File d:\clearsky\sources\sdk\include\stlport\stl\type_traits.h
_TEXT	ENDS
;	COMDAT ?_Answer@?$_BothPtrType@U?$_Rb_tree_iterator@PAVCPS_Instance@@U?$_SetTraitsT@PAVCPS_Instance@@@priv@stlp_std@@@priv@stlp_std@@PAPAVCPS_Instance@@@stlp_std@@SA?AU__false_type@2@XZ
_TEXT	SEGMENT
?_Answer@?$_BothPtrType@U?$_Rb_tree_iterator@PAVCPS_Instance@@U?$_SetTraitsT@PAVCPS_Instance@@@priv@stlp_std@@@priv@stlp_std@@PAPAVCPS_Instance@@@stlp_std@@SA?AU__false_type@2@XZ PROC ; stlp_std::_BothPtrType<stlp_std::priv::_Rb_tree_iterator<CPS_Instance *,stlp_std::priv::_SetTraitsT<CPS_Instance *> >,CPS_Instance * *>::_Answer, COMDAT

; 468  :   static _Ret _Answer() { return _Ret(); }

	xor	al, al
	ret	0
?_Answer@?$_BothPtrType@U?$_Rb_tree_iterator@PAVCPS_Instance@@U?$_SetTraitsT@PAVCPS_Instance@@@priv@stlp_std@@@priv@stlp_std@@PAPAVCPS_Instance@@@stlp_std@@SA?AU__false_type@2@XZ ENDP ; stlp_std::_BothPtrType<stlp_std::priv::_Rb_tree_iterator<CPS_Instance *,stlp_std::priv::_SetTraitsT<CPS_Instance *> >,CPS_Instance * *>::_Answer
; Function compile flags: /Ogtpy
; File d:\clearsky\sources\engine\xrcore\_stl_extensions.h
_TEXT	ENDS
;	COMDAT ??$?0PAVCPS_Instance@@@?$xalloc@PAX@@QAE@ABV?$xalloc@PAVCPS_Instance@@@@@Z
_TEXT	SEGMENT
??$?0PAVCPS_Instance@@@?$xalloc@PAX@@QAE@ABV?$xalloc@PAVCPS_Instance@@@@@Z PROC ; xalloc<void *>::xalloc<void *><CPS_Instance *>, COMDAT
; _this$ = eax

; 79   : 	template<class _Other>							xalloc			(const xalloc<_Other>&)					{	}

	ret	0
??$?0PAVCPS_Instance@@@?$xalloc@PAX@@QAE@ABV?$xalloc@PAVCPS_Instance@@@@@Z ENDP ; xalloc<void *>::xalloc<void *><CPS_Instance *>
_TEXT	ENDS
PUBLIC	?predicate@destroy_on_game_load@?O@??destroy_particles@IGame_Persistent@@QAEXAB_N@Z@SA_NABQAVCPS_Instance@@@Z ; `IGame_Persistent::destroy_particles'::`14'::destroy_on_game_load::predicate
; Function compile flags: /Ogtpy
; File d:\clearsky\sources\sdk\include\stlport\stl\_algo.h
;	COMDAT ??$remove_if@PAPAVCPS_Instance@@P6A_NABQAV1@@Z@stlp_std@@YAPAPAVCPS_Instance@@PAPAV1@0P6A_NABQAV1@@Z@Z
_TEXT	SEGMENT
??$remove_if@PAPAVCPS_Instance@@P6A_NABQAV1@@Z@stlp_std@@YAPAPAVCPS_Instance@@PAPAV1@0P6A_NABQAV1@@Z@Z PROC ; stlp_std::remove_if<CPS_Instance * *,bool (__cdecl*)(CPS_Instance * const &)>, COMDAT
; ___first$ = eax
; ___last$ = ebx

; 280  :   _STLP_DEBUG_CHECK(_STLP_PRIV __check_range(__first, __last))
; 281  :   __first = find_if(__first, __last, __pred);

	mov	edx, ebx
	call	??$__find_if@PAPAVCPS_Instance@@P6A_NABQAV1@@Z@priv@stlp_std@@YAPAPAVCPS_Instance@@PAPAV2@0P6A_NABQAV2@@ZABUrandom_access_iterator_tag@1@@Z ; stlp_std::priv::__find_if<CPS_Instance * *,bool (__cdecl*)(CPS_Instance * const &)>

; 282  :   if ( __first == __last )

	cmp	eax, ebx

; 283  :     return __first;

	je	SHORT $LN1@remove_if
	push	esi

; 284  :   else {
; 285  :     _ForwardIter __next = __first;
; 286  :     return remove_copy_if(++__next, __last, __first, __pred);

	lea	esi, DWORD PTR [eax+4]
	cmp	esi, ebx
	push	edi
	mov	edi, eax
	je	SHORT $LN8@remove_if
$LL10@remove_if:
	push	esi
	call	?predicate@destroy_on_game_load@?O@??destroy_particles@IGame_Persistent@@QAEXAB_N@Z@SA_NABQAVCPS_Instance@@@Z ; `IGame_Persistent::destroy_particles'::`14'::destroy_on_game_load::predicate
	add	esp, 4
	test	al, al
	jne	SHORT $LN9@remove_if
	mov	eax, DWORD PTR [esi]
	mov	DWORD PTR [edi], eax
	add	edi, 4
$LN9@remove_if:
	add	esi, 4
	cmp	esi, ebx
	jne	SHORT $LL10@remove_if
$LN8@remove_if:
	mov	eax, edi
	pop	edi
	pop	esi
$LN1@remove_if:

; 287  :   }
; 288  : }

	ret	0
??$remove_if@PAPAVCPS_Instance@@P6A_NABQAV1@@Z@stlp_std@@YAPAPAVCPS_Instance@@PAPAV1@0P6A_NABQAV1@@Z@Z ENDP ; stlp_std::remove_if<CPS_Instance * *,bool (__cdecl*)(CPS_Instance * const &)>
; Function compile flags: /Ogtpy
; File d:\clearsky\sources\engine\xrcore\xr_trims.h
_TEXT	ENDS
;	COMDAT ??$_GetItem@$0BAA@@@YAPADPBDHAAY0BAA@DD0_N@Z
_TEXT	SEGMENT
_src$ = 8						; size = 4
??$_GetItem@$0BAA@@@YAPADPBDHAAY0BAA@DD0_N@Z PROC	; _GetItem<256>, COMDAT
; _index$ = edx
; _dst$ = ecx
; _separator$ = eax

; 27   : 	return					_GetItem(src,index,dst,count,separator,def,trim);

	push	1
	push	OFFSET ??_C@_00CNPNBAHC@?$AA@
	push	eax
	mov	eax, DWORD PTR _src$[esp+8]
	push	256					; 00000100H
	push	ecx
	push	edx
	push	eax
	call	DWORD PTR __imp_?_GetItem@@YAPADPBDHPADID0_N@Z
	add	esp, 28					; 0000001cH

; 28   : }

	ret	0
??$_GetItem@$0BAA@@@YAPADPBDHAAY0BAA@DD0_N@Z ENDP	; _GetItem<256>
; Function compile flags: /Ogtpy
; File d:\clearsky\sources\sdk\include\stlport\stl\_tree.h
_TEXT	ENDS
;	COMDAT ?size@?$_Rb_tree@PAXU?$_BinaryPredWrapper@PAXPAVCPS_Instance@@U?$less@PAVCPS_Instance@@@stlp_std@@@priv@stlp_std@@PAXU?$_Identity@PAX@23@U?$_SetTraitsT@PAX@23@V?$xalloc@PAX@@@priv@stlp_std@@QBEIXZ
_TEXT	SEGMENT
?size@?$_Rb_tree@PAXU?$_BinaryPredWrapper@PAXPAVCPS_Instance@@U?$less@PAVCPS_Instance@@@stlp_std@@@priv@stlp_std@@PAXU?$_Identity@PAX@23@U?$_SetTraitsT@PAX@23@V?$xalloc@PAX@@@priv@stlp_std@@QBEIXZ PROC ; stlp_std::priv::_Rb_tree<void *,stlp_std::priv::_BinaryPredWrapper<void *,CPS_Instance *,stlp_std::less<CPS_Instance *> >,void *,stlp_std::priv::_Identity<void *>,stlp_std::priv::_SetTraitsT<void *>,xalloc<void *> >::size, COMDAT
; _this$ = eax

; 428  :   size_type size() const { return _M_node_count; }

	mov	eax, DWORD PTR [eax+16]
	ret	0
?size@?$_Rb_tree@PAXU?$_BinaryPredWrapper@PAXPAVCPS_Instance@@U?$less@PAVCPS_Instance@@@stlp_std@@@priv@stlp_std@@PAXU?$_Identity@PAX@23@U?$_SetTraitsT@PAX@23@V?$xalloc@PAX@@@priv@stlp_std@@QBEIXZ ENDP ; stlp_std::priv::_Rb_tree<void *,stlp_std::priv::_BinaryPredWrapper<void *,CPS_Instance *,stlp_std::less<CPS_Instance *> >,void *,stlp_std::priv::_Identity<void *>,stlp_std::priv::_SetTraitsT<void *>,xalloc<void *> >::size
; Function compile flags: /Ogtpy
; File d:\clearsky\sources\engine\xrengine\pure.h
_TEXT	ENDS
;	COMDAT ?_REG_Compare@?$CRegistrator@VpureAppEnd@@@@CAHPBX0@Z
_TEXT	SEGMENT
_e1$ = 8						; size = 4
_e2$ = 12						; size = 4
?_REG_Compare@?$CRegistrator@VpureAppEnd@@@@CAHPBX0@Z PROC ; CRegistrator<pureAppEnd>::_REG_Compare, COMDAT

; 42   : 	_REG_INFO *p1 = (_REG_INFO *)e1;
; 43   : 	_REG_INFO *p2 = (_REG_INFO *)e2;
; 44   : 	return (p2->Prio - p1->Prio);

	mov	eax, DWORD PTR _e2$[esp-4]
	mov	eax, DWORD PTR [eax+4]
	mov	ecx, DWORD PTR _e1$[esp-4]
	sub	eax, DWORD PTR [ecx+4]

; 45   : }

	ret	0
?_REG_Compare@?$CRegistrator@VpureAppEnd@@@@CAHPBX0@Z ENDP ; CRegistrator<pureAppEnd>::_REG_Compare
; Function compile flags: /Ogtpy
_TEXT	ENDS
;	COMDAT ?_REG_Compare@?$CRegistrator@VpureAppStart@@@@CAHPBX0@Z
_TEXT	SEGMENT
_e1$ = 8						; size = 4
_e2$ = 12						; size = 4
?_REG_Compare@?$CRegistrator@VpureAppStart@@@@CAHPBX0@Z PROC ; CRegistrator<pureAppStart>::_REG_Compare, COMDAT

; 42   : 	_REG_INFO *p1 = (_REG_INFO *)e1;
; 43   : 	_REG_INFO *p2 = (_REG_INFO *)e2;
; 44   : 	return (p2->Prio - p1->Prio);

	mov	eax, DWORD PTR _e2$[esp-4]
	mov	eax, DWORD PTR [eax+4]
	mov	ecx, DWORD PTR _e1$[esp-4]
	sub	eax, DWORD PTR [ecx+4]

; 45   : }

	ret	0
?_REG_Compare@?$CRegistrator@VpureAppStart@@@@CAHPBX0@Z ENDP ; CRegistrator<pureAppStart>::_REG_Compare
; Function compile flags: /Ogtpy
; File d:\clearsky\sources\sdk\include\stlport\stl\pointers\_tools.h
_TEXT	ENDS
;	COMDAT ??0?$_BinaryPredWrapper@PAXPAVCPS_Instance@@U?$less@PAVCPS_Instance@@@stlp_std@@@priv@stlp_std@@QAE@XZ
_TEXT	SEGMENT
??0?$_BinaryPredWrapper@PAXPAVCPS_Instance@@U?$less@PAVCPS_Instance@@@stlp_std@@@priv@stlp_std@@QAE@XZ PROC ; stlp_std::priv::_BinaryPredWrapper<void *,CPS_Instance *,stlp_std::less<CPS_Instance *> >::_BinaryPredWrapper<void *,CPS_Instance *,stlp_std::less<CPS_Instance *> >, COMDAT
; _this$ = eax

; 379  :   _BinaryPredWrapper () {}

	ret	0
??0?$_BinaryPredWrapper@PAXPAVCPS_Instance@@U?$less@PAVCPS_Instance@@@stlp_std@@@priv@stlp_std@@QAE@XZ ENDP ; stlp_std::priv::_BinaryPredWrapper<void *,CPS_Instance *,stlp_std::less<CPS_Instance *> >::_BinaryPredWrapper<void *,CPS_Instance *,stlp_std::less<CPS_Instance *> >
; Function compile flags: /Ogtpy
; File d:\clearsky\sources\sdk\include\stlport\stl\_tree.h
_TEXT	ENDS
;	COMDAT ?empty@?$_Rb_tree@PAXU?$_BinaryPredWrapper@PAXPAVCPS_Instance@@U?$less@PAVCPS_Instance@@@stlp_std@@@priv@stlp_std@@PAXU?$_Identity@PAX@23@U?$_SetTraitsT@PAX@23@V?$xalloc@PAX@@@priv@stlp_std@@QBE_NXZ
_TEXT	SEGMENT
?empty@?$_Rb_tree@PAXU?$_BinaryPredWrapper@PAXPAVCPS_Instance@@U?$less@PAVCPS_Instance@@@stlp_std@@@priv@stlp_std@@PAXU?$_Identity@PAX@23@U?$_SetTraitsT@PAX@23@V?$xalloc@PAX@@@priv@stlp_std@@QBE_NXZ PROC ; stlp_std::priv::_Rb_tree<void *,stlp_std::priv::_BinaryPredWrapper<void *,CPS_Instance *,stlp_std::less<CPS_Instance *> >,void *,stlp_std::priv::_Identity<void *>,stlp_std::priv::_SetTraitsT<void *>,xalloc<void *> >::empty, COMDAT
; _this$ = ecx

; 427  :   bool empty() const { return _M_node_count == 0; }

	xor	eax, eax
	cmp	DWORD PTR [ecx+16], eax
	sete	al
	ret	0
?empty@?$_Rb_tree@PAXU?$_BinaryPredWrapper@PAXPAVCPS_Instance@@U?$less@PAVCPS_Instance@@@stlp_std@@@priv@stlp_std@@PAXU?$_Identity@PAX@23@U?$_SetTraitsT@PAX@23@V?$xalloc@PAX@@@priv@stlp_std@@QBE_NXZ ENDP ; stlp_std::priv::_Rb_tree<void *,stlp_std::priv::_BinaryPredWrapper<void *,CPS_Instance *,stlp_std::less<CPS_Instance *> >,void *,stlp_std::priv::_Identity<void *>,stlp_std::priv::_SetTraitsT<void *>,xalloc<void *> >::empty
; Function compile flags: /Ogtpy
; File d:\clearsky\sources\engine\xrcore\_stl_extensions.h
_TEXT	ENDS
;	COMDAT ??0?$xalloc@PAVCPS_Instance@@@@QAE@XZ
_TEXT	SEGMENT
??0?$xalloc@PAVCPS_Instance@@@@QAE@XZ PROC		; xalloc<CPS_Instance *>::xalloc<CPS_Instance *>, COMDAT
; _this$ = eax

; 77   : 													xalloc			()										{	}

	ret	0
??0?$xalloc@PAVCPS_Instance@@@@QAE@XZ ENDP		; xalloc<CPS_Instance *>::xalloc<CPS_Instance *>
; Function compile flags: /Ogtpy
; File d:\clearsky\sources\sdk\include\stlport\stl\pointers\_set.h
_TEXT	ENDS
;	COMDAT ?size@?$set@PAVCPS_Instance@@U?$less@PAVCPS_Instance@@@stlp_std@@V?$xalloc@PAVCPS_Instance@@@@@stlp_std@@QBEIXZ
_TEXT	SEGMENT
?size@?$set@PAVCPS_Instance@@U?$less@PAVCPS_Instance@@@stlp_std@@V?$xalloc@PAVCPS_Instance@@@@@stlp_std@@QBEIXZ PROC ; stlp_std::set<CPS_Instance *,stlp_std::less<CPS_Instance *>,xalloc<CPS_Instance *> >::size, COMDAT
; _this$ = eax

; 209  :   size_type size() const { return _M_t.size(); }

	mov	eax, DWORD PTR [eax+16]
	ret	0
?size@?$set@PAVCPS_Instance@@U?$less@PAVCPS_Instance@@@stlp_std@@V?$xalloc@PAVCPS_Instance@@@@@stlp_std@@QBEIXZ ENDP ; stlp_std::set<CPS_Instance *,stlp_std::less<CPS_Instance *>,xalloc<CPS_Instance *> >::size
; Function compile flags: /Ogtpy
; File d:\clearsky\sources\engine\xrcore\_stl_extensions.h
_TEXT	ENDS
;	COMDAT ??0?$xalloc@PAX@@QAE@XZ
_TEXT	SEGMENT
??0?$xalloc@PAX@@QAE@XZ PROC				; xalloc<void *>::xalloc<void *>, COMDAT
; _this$ = eax

; 77   : 													xalloc			()										{	}

	ret	0
??0?$xalloc@PAX@@QAE@XZ ENDP				; xalloc<void *>::xalloc<void *>
; Function compile flags: /Ogtpy
; File d:\clearsky\sources\sdk\include\stlport\stl\_tree.h
_TEXT	ENDS
;	COMDAT ??D?$_Rb_tree_iterator@PAVCPS_Instance@@U?$_SetTraitsT@PAVCPS_Instance@@@priv@stlp_std@@@priv@stlp_std@@QBEAAPAVCPS_Instance@@XZ
_TEXT	SEGMENT
??D?$_Rb_tree_iterator@PAVCPS_Instance@@U?$_SetTraitsT@PAVCPS_Instance@@@priv@stlp_std@@@priv@stlp_std@@QBEAAPAVCPS_Instance@@XZ PROC ; stlp_std::priv::_Rb_tree_iterator<CPS_Instance *,stlp_std::priv::_SetTraitsT<CPS_Instance *> >::operator*, COMDAT
; _this$ = eax

; 171  :     return __STATIC_CAST(_Link_type, _M_node)->_M_value_field;

	mov	eax, DWORD PTR [eax]
	add	eax, 16					; 00000010H

; 172  :   }

	ret	0
??D?$_Rb_tree_iterator@PAVCPS_Instance@@U?$_SetTraitsT@PAVCPS_Instance@@@priv@stlp_std@@@priv@stlp_std@@QBEAAPAVCPS_Instance@@XZ ENDP ; stlp_std::priv::_Rb_tree_iterator<CPS_Instance *,stlp_std::priv::_SetTraitsT<CPS_Instance *> >::operator*
; Function compile flags: /Ogtpy
; File d:\clearsky\sources\sdk\include\stlport\stl\pointers\_set.h
_TEXT	ENDS
;	COMDAT ?empty@?$set@PAVCPS_Instance@@U?$less@PAVCPS_Instance@@@stlp_std@@V?$xalloc@PAVCPS_Instance@@@@@stlp_std@@QBE_NXZ
_TEXT	SEGMENT
?empty@?$set@PAVCPS_Instance@@U?$less@PAVCPS_Instance@@@stlp_std@@V?$xalloc@PAVCPS_Instance@@@@@stlp_std@@QBE_NXZ PROC ; stlp_std::set<CPS_Instance *,stlp_std::less<CPS_Instance *>,xalloc<CPS_Instance *> >::empty, COMDAT
; _this$ = ecx

; 208  :   bool empty() const { return _M_t.empty(); }

	xor	eax, eax
	cmp	DWORD PTR [ecx+16], eax
	sete	al
	ret	0
?empty@?$set@PAVCPS_Instance@@U?$less@PAVCPS_Instance@@@stlp_std@@V?$xalloc@PAVCPS_Instance@@@@@stlp_std@@QBE_NXZ ENDP ; stlp_std::set<CPS_Instance *,stlp_std::less<CPS_Instance *>,xalloc<CPS_Instance *> >::empty
; Function compile flags: /Ogtpy
; File d:\clearsky\sources\engine\xrcore\_stl_extensions.h
_TEXT	ENDS
;	COMDAT ?size@?$xr_set@PAVCPS_Instance@@U?$less@PAVCPS_Instance@@@stlp_std@@V?$xalloc@PAVCPS_Instance@@@@@@QBEIXZ
_TEXT	SEGMENT
?size@?$xr_set@PAVCPS_Instance@@U?$less@PAVCPS_Instance@@@stlp_std@@V?$xalloc@PAVCPS_Instance@@@@@@QBEIXZ PROC ; xr_set<CPS_Instance *,stlp_std::less<CPS_Instance *>,xalloc<CPS_Instance *> >::size, COMDAT
; _this$ = eax

; 201  : template	<typename K, class P=std::less<K>, typename allocator = xalloc<K> >				class	xr_set			: public std::set<K,P,allocator>		{ public: u32 size() const {return (u32)__super::size(); } };

	mov	eax, DWORD PTR [eax+16]
	ret	0
?size@?$xr_set@PAVCPS_Instance@@U?$less@PAVCPS_Instance@@@stlp_std@@V?$xalloc@PAVCPS_Instance@@@@@@QBEIXZ ENDP ; xr_set<CPS_Instance *,stlp_std::less<CPS_Instance *>,xalloc<CPS_Instance *> >::size
; Function compile flags: /Ogtpy
; File d:\clearsky\sources\engine\xrengine\igame_persistent.cpp
_TEXT	ENDS
;	COMDAT ?OnAssetsChanged@IGame_Persistent@@UAEXXZ
_TEXT	SEGMENT
?OnAssetsChanged@IGame_Persistent@@UAEXXZ PROC		; IGame_Persistent::OnAssetsChanged, COMDAT
; _this$ = ecx

; 244  : #ifndef _EDITOR
; 245  : 	Device.m_pRender->OnAssetsChanged(); //Resources->m_textures_description.Load();

	mov	ecx, DWORD PTR ?Device@@3VCRenderDevice@@A+868
	mov	eax, DWORD PTR [ecx]
	mov	edx, DWORD PTR [eax+124]
	jmp	edx
?OnAssetsChanged@IGame_Persistent@@UAEXXZ ENDP		; IGame_Persistent::OnAssetsChanged
; Function compile flags: /Ogtpy
_TEXT	ENDS
;	COMDAT ?OnAppDeactivate@IGame_Persistent@@UAEXXZ
_TEXT	SEGMENT
?OnAppDeactivate@IGame_Persistent@@UAEXXZ PROC		; IGame_Persistent::OnAppDeactivate, COMDAT
; _this$ = ecx

; 66   : }

	ret	0
?OnAppDeactivate@IGame_Persistent@@UAEXXZ ENDP		; IGame_Persistent::OnAppDeactivate
; Function compile flags: /Ogtpy
_TEXT	ENDS
;	COMDAT ?OnAppActivate@IGame_Persistent@@UAEXXZ
_TEXT	SEGMENT
?OnAppActivate@IGame_Persistent@@UAEXXZ PROC		; IGame_Persistent::OnAppActivate, COMDAT
; _this$ = ecx

; 62   : }

	ret	0
?OnAppActivate@IGame_Persistent@@UAEXXZ ENDP		; IGame_Persistent::OnAppActivate
; Function compile flags: /Ogtpy
; File d:\clearsky\sources\engine\xrengine\ps_instance.h
_TEXT	ENDS
;	COMDAT ?dcast_Renderable@CPS_Instance@@UAEPAVIRenderable@@XZ
_TEXT	SEGMENT
?dcast_Renderable@CPS_Instance@@UAEPAVIRenderable@@XZ PROC ; CPS_Instance::dcast_Renderable, COMDAT
; _this$ = ecx

; 45   : 	virtual	IRenderable*	dcast_Renderable	()				{ return this;	}

	test	ecx, ecx
	je	SHORT $LN3@dcast_Rend
	lea	eax, DWORD PTR [ecx+60]
	ret	0
$LN3@dcast_Rend:
	xor	eax, eax
	ret	0
?dcast_Renderable@CPS_Instance@@UAEPAVIRenderable@@XZ ENDP ; CPS_Instance::dcast_Renderable
; Function compile flags: /Ogtpy
_TEXT	ENDS
;	COMDAT ?Locked@CPS_Instance@@UAEHXZ
_TEXT	SEGMENT
?Locked@CPS_Instance@@UAEHXZ PROC			; CPS_Instance::Locked, COMDAT
; _this$ = ecx

; 40   : 	virtual BOOL			Locked				()				{ return FALSE; }

	xor	eax, eax
	ret	0
?Locked@CPS_Instance@@UAEHXZ ENDP			; CPS_Instance::Locked
_TEXT	ENDS
PUBLIC	?PSI_IsAutomatic@CPS_Instance@@QAEHXZ		; CPS_Instance::PSI_IsAutomatic
; Function compile flags: /Ogtpy
;	COMDAT ?PSI_IsAutomatic@CPS_Instance@@QAEHXZ
_TEXT	SEGMENT
?PSI_IsAutomatic@CPS_Instance@@QAEHXZ PROC		; CPS_Instance::PSI_IsAutomatic, COMDAT
; _this$ = ecx

; 36   : 	IC BOOL					PSI_IsAutomatic		()						{	return m_bAutoRemove;				}

	mov	eax, DWORD PTR [ecx+148]
	ret	0
?PSI_IsAutomatic@CPS_Instance@@QAEHXZ ENDP		; CPS_Instance::PSI_IsAutomatic
_TEXT	ENDS
PUBLIC	?PSI_alive@CPS_Instance@@QAEHXZ			; CPS_Instance::PSI_alive
; Function compile flags: /Ogtpy
;	COMDAT ?PSI_alive@CPS_Instance@@QAEHXZ
_TEXT	SEGMENT
?PSI_alive@CPS_Instance@@QAEHXZ PROC			; CPS_Instance::PSI_alive, COMDAT
; _this$ = ecx

; 35   : 	IC BOOL					PSI_alive			()						{	return m_iLifeTime>0;				}

	xor	eax, eax
	cmp	DWORD PTR [ecx+144], eax
	setg	al
	ret	0
?PSI_alive@CPS_Instance@@QAEHXZ ENDP			; CPS_Instance::PSI_alive
_TEXT	ENDS
PUBLIC	?destroy_on_game_load@CPS_Instance@@QBEAB_NXZ	; CPS_Instance::destroy_on_game_load
; Function compile flags: /Ogtpy
;	COMDAT ?destroy_on_game_load@CPS_Instance@@QBEAB_NXZ
_TEXT	SEGMENT
?destroy_on_game_load@CPS_Instance@@QBEAB_NXZ PROC	; CPS_Instance::destroy_on_game_load, COMDAT
; _this$ = ecx

; 33   : 	IC		const bool		&destroy_on_game_load() const				{	return m_destroy_on_game_load;	}

	lea	eax, DWORD PTR [ecx+140]
	ret	0
?destroy_on_game_load@CPS_Instance@@QBEAB_NXZ ENDP	; CPS_Instance::destroy_on_game_load
; Function compile flags: /Ogtpy
; File d:\clearsky\sources\sdk\include\stlport\stl\_tree.c
;	COMDAT ?_M_increment@?$_Rb_global@_N@priv@stlp_std@@SAPAU_Rb_tree_node_base@23@PAU423@@Z
_TEXT	SEGMENT
?_M_increment@?$_Rb_global@_N@priv@stlp_std@@SAPAU_Rb_tree_node_base@23@PAU423@@Z PROC ; stlp_std::priv::_Rb_global<bool>::_M_increment, COMDAT
; __M_node$ = ecx

; 297  :   if (_M_node->_M_right != 0) {

	mov	eax, DWORD PTR [ecx+12]
	test	eax, eax
	je	SHORT $LN5@M_incremen@3

; 298  :     _M_node = _Rb_tree_node_base::_S_minimum(_M_node->_M_right);

	mov	ecx, DWORD PTR [eax+8]
	test	ecx, ecx
	je	SHORT $LN1@M_incremen@3
	npad	2
$LL9@M_incremen@3:
	mov	eax, ecx
	mov	ecx, DWORD PTR [eax+8]
	test	ecx, ecx
	jne	SHORT $LL9@M_incremen@3

; 313  : }

	ret	0
$LN5@M_incremen@3:

; 299  :   }
; 300  :   else {
; 301  :     _Base_ptr __y = _M_node->_M_parent;

	mov	eax, DWORD PTR [ecx+4]

; 302  :     while (_M_node == __y->_M_right) {

	cmp	ecx, DWORD PTR [eax+12]
	jne	SHORT $LN2@M_incremen@3
$LL3@M_incremen@3:

; 303  :       _M_node = __y;

	mov	ecx, eax

; 304  :       __y = __y->_M_parent;

	mov	eax, DWORD PTR [eax+4]
	cmp	ecx, DWORD PTR [eax+12]
	je	SHORT $LL3@M_incremen@3
$LN2@M_incremen@3:

; 305  :     }
; 306  :     // check special case: This is necessary if _M_node is the
; 307  :     // _M_head and the tree contains only a single node __y. In
; 308  :     // that case parent, left and right all point to __y!
; 309  :     if (_M_node->_M_right != __y)

	cmp	DWORD PTR [ecx+12], eax

; 310  :       _M_node = __y;

	jne	SHORT $LN1@M_incremen@3

; 311  :   }
; 312  :   return _M_node;

	mov	eax, ecx
$LN1@M_incremen@3:

; 313  : }

	ret	0
?_M_increment@?$_Rb_global@_N@priv@stlp_std@@SAPAU_Rb_tree_node_base@23@PAU423@@Z ENDP ; stlp_std::priv::_Rb_global<bool>::_M_increment
; Function compile flags: /Ogtpy
; File d:\clearsky\sources\sdk\include\stlport\stl\_tree.h
_TEXT	ENDS
;	COMDAT ??0?$_Rb_tree_iterator@PAVCPS_Instance@@U?$_ConstSetTraitsT@PAVCPS_Instance@@@priv@stlp_std@@@priv@stlp_std@@QAE@ABU?$_Rb_tree_iterator@PAVCPS_Instance@@U?$_SetTraitsT@PAVCPS_Instance@@@priv@stlp_std@@@12@@Z
_TEXT	SEGMENT
??0?$_Rb_tree_iterator@PAVCPS_Instance@@U?$_ConstSetTraitsT@PAVCPS_Instance@@@priv@stlp_std@@@priv@stlp_std@@QAE@ABU?$_Rb_tree_iterator@PAVCPS_Instance@@U?$_SetTraitsT@PAVCPS_Instance@@@priv@stlp_std@@@12@@Z PROC ; stlp_std::priv::_Rb_tree_iterator<CPS_Instance *,stlp_std::priv::_ConstSetTraitsT<CPS_Instance *> >::_Rb_tree_iterator<CPS_Instance *,stlp_std::priv::_ConstSetTraitsT<CPS_Instance *> >, COMDAT
; _this$ = eax
; ___it$ = ecx

; 168  :   _Rb_tree_iterator(const iterator& __it) : _Rb_tree_base_iterator(__it._M_node) {}

	mov	edx, DWORD PTR [ecx]
	mov	DWORD PTR [eax], edx
	ret	0
??0?$_Rb_tree_iterator@PAVCPS_Instance@@U?$_ConstSetTraitsT@PAVCPS_Instance@@@priv@stlp_std@@@priv@stlp_std@@QAE@ABU?$_Rb_tree_iterator@PAVCPS_Instance@@U?$_SetTraitsT@PAVCPS_Instance@@@priv@stlp_std@@@12@@Z ENDP ; stlp_std::priv::_Rb_tree_iterator<CPS_Instance *,stlp_std::priv::_ConstSetTraitsT<CPS_Instance *> >::_Rb_tree_iterator<CPS_Instance *,stlp_std::priv::_ConstSetTraitsT<CPS_Instance *> >
; Function compile flags: /Ogtpy
_TEXT	ENDS
;	COMDAT ??E?$_Rb_tree_iterator@PAVCPS_Instance@@U?$_SetTraitsT@PAVCPS_Instance@@@priv@stlp_std@@@priv@stlp_std@@QAEAAU012@XZ
_TEXT	SEGMENT
??E?$_Rb_tree_iterator@PAVCPS_Instance@@U?$_SetTraitsT@PAVCPS_Instance@@@priv@stlp_std@@@priv@stlp_std@@QAEAAU012@XZ PROC ; stlp_std::priv::_Rb_tree_iterator<CPS_Instance *,stlp_std::priv::_SetTraitsT<CPS_Instance *> >::operator++, COMDAT
; _this$ = eax

; 177  :     _M_node = _Rb_global_inst::_M_increment(_M_node);

	mov	ecx, DWORD PTR [eax]
	mov	edx, DWORD PTR [ecx+12]
	test	edx, edx
	je	SHORT $LN7@operator@24
	mov	ecx, DWORD PTR [edx+8]
	test	ecx, ecx
	je	SHORT $LN10@operator@24
$LL11@operator@24:
	mov	edx, ecx
	mov	ecx, DWORD PTR [edx+8]
	test	ecx, ecx
	jne	SHORT $LL11@operator@24
$LN10@operator@24:
	mov	DWORD PTR [eax], edx

; 178  :     return *this;
; 179  :   }

	ret	0

; 177  :     _M_node = _Rb_global_inst::_M_increment(_M_node);

$LN7@operator@24:
	mov	edx, DWORD PTR [ecx+4]
	cmp	ecx, DWORD PTR [edx+12]
	jne	SHORT $LN4@operator@24
$LL5@operator@24:
	mov	ecx, edx
	mov	edx, DWORD PTR [edx+4]
	cmp	ecx, DWORD PTR [edx+12]
	je	SHORT $LL5@operator@24
$LN4@operator@24:
	cmp	DWORD PTR [ecx+12], edx
	jne	SHORT $LN10@operator@24
	mov	DWORD PTR [eax], ecx

; 178  :     return *this;
; 179  :   }

	ret	0
??E?$_Rb_tree_iterator@PAVCPS_Instance@@U?$_SetTraitsT@PAVCPS_Instance@@@priv@stlp_std@@@priv@stlp_std@@QAEAAU012@XZ ENDP ; stlp_std::priv::_Rb_tree_iterator<CPS_Instance *,stlp_std::priv::_SetTraitsT<CPS_Instance *> >::operator++
; Function compile flags: /Ogtpy
; File d:\clearsky\sources\sdk\include\stlport\stl\_algobase.h
_TEXT	ENDS
;	COMDAT ??$__copy@U?$_Rb_tree_iterator@PAVCPS_Instance@@U?$_SetTraitsT@PAVCPS_Instance@@@priv@stlp_std@@@priv@stlp_std@@PAPAVCPS_Instance@@H@priv@stlp_std@@YAPAPAVCPS_Instance@@U?$_Rb_tree_iterator@PAVCPS_Instance@@U?$_SetTraitsT@PAVCPS_Instance@@@priv@stlp_std@@@01@0PAPAV2@ABUinput_iterator_tag@1@PAH@Z
_TEXT	SEGMENT
___first$ = 8						; size = 4
___last$ = 12						; size = 4
??$__copy@U?$_Rb_tree_iterator@PAVCPS_Instance@@U?$_SetTraitsT@PAVCPS_Instance@@@priv@stlp_std@@@priv@stlp_std@@PAPAVCPS_Instance@@H@priv@stlp_std@@YAPAPAVCPS_Instance@@U?$_Rb_tree_iterator@PAVCPS_Instance@@U?$_SetTraitsT@PAVCPS_Instance@@@priv@stlp_std@@@01@0PAPAV2@ABUinput_iterator_tag@1@PAH@Z PROC ; stlp_std::priv::__copy<stlp_std::priv::_Rb_tree_iterator<CPS_Instance *,stlp_std::priv::_SetTraitsT<CPS_Instance *> >,CPS_Instance * *,int>, COMDAT
; ___result$ = eax

; 174  :   for ( ; __first != __last; ++__result, ++__first)

	mov	ecx, DWORD PTR ___first$[esp-4]
	push	esi
	mov	esi, DWORD PTR ___last$[esp]
	cmp	ecx, esi
	setne	dl
	test	dl, dl
	je	SHORT $LN1@copy@6
$LL6@copy@6:

; 175  :     *__result = *__first;

	mov	edx, DWORD PTR [ecx+16]
	mov	DWORD PTR [eax], edx
	mov	edx, DWORD PTR [ecx+12]
	add	eax, 4
	test	edx, edx
	je	SHORT $LN12@copy@6
	mov	ecx, edx
	mov	edx, DWORD PTR [ecx+8]
	test	edx, edx
	je	SHORT $LN8@copy@6
	npad	6

; 174  :   for ( ; __first != __last; ++__result, ++__first)

$LL16@copy@6:
	mov	ecx, edx
	mov	edx, DWORD PTR [ecx+8]
	test	edx, edx
	jne	SHORT $LL16@copy@6
	jmp	SHORT $LN8@copy@6
$LN12@copy@6:
	mov	edx, DWORD PTR [ecx+4]
	cmp	ecx, DWORD PTR [edx+12]
	jne	SHORT $LN9@copy@6
$LL10@copy@6:
	mov	ecx, edx
	mov	edx, DWORD PTR [edx+4]
	cmp	ecx, DWORD PTR [edx+12]
	je	SHORT $LL10@copy@6
$LN9@copy@6:
	cmp	DWORD PTR [ecx+12], edx
	je	SHORT $LN8@copy@6
	mov	ecx, edx
$LN8@copy@6:
	cmp	ecx, esi
	setne	dl
	test	dl, dl
	jne	SHORT $LL6@copy@6
$LN1@copy@6:
	pop	esi

; 176  :   return __result;
; 177  : }

	ret	0
??$__copy@U?$_Rb_tree_iterator@PAVCPS_Instance@@U?$_SetTraitsT@PAVCPS_Instance@@@priv@stlp_std@@@priv@stlp_std@@PAPAVCPS_Instance@@H@priv@stlp_std@@YAPAPAVCPS_Instance@@U?$_Rb_tree_iterator@PAVCPS_Instance@@U?$_SetTraitsT@PAVCPS_Instance@@@priv@stlp_std@@@01@0PAPAV2@ABUinput_iterator_tag@1@PAH@Z ENDP ; stlp_std::priv::__copy<stlp_std::priv::_Rb_tree_iterator<CPS_Instance *,stlp_std::priv::_SetTraitsT<CPS_Instance *> >,CPS_Instance * *,int>
; Function compile flags: /Ogtpy
; File d:\clearsky\sources\sdk\include\stlport\stl\_tree.h
_TEXT	ENDS
;	COMDAT ??0?$_Rb_tree_iterator@PAVCPS_Instance@@U?$_SetTraitsT@PAVCPS_Instance@@@priv@stlp_std@@@priv@stlp_std@@QAE@ABU012@@Z
_TEXT	SEGMENT
??0?$_Rb_tree_iterator@PAVCPS_Instance@@U?$_SetTraitsT@PAVCPS_Instance@@@priv@stlp_std@@@priv@stlp_std@@QAE@ABU012@@Z PROC ; stlp_std::priv::_Rb_tree_iterator<CPS_Instance *,stlp_std::priv::_SetTraitsT<CPS_Instance *> >::_Rb_tree_iterator<CPS_Instance *,stlp_std::priv::_SetTraitsT<CPS_Instance *> >, COMDAT
; _this$ = eax
; ___it$ = ecx

; 168  :   _Rb_tree_iterator(const iterator& __it) : _Rb_tree_base_iterator(__it._M_node) {}

	mov	edx, DWORD PTR [ecx]
	mov	DWORD PTR [eax], edx
	ret	0
??0?$_Rb_tree_iterator@PAVCPS_Instance@@U?$_SetTraitsT@PAVCPS_Instance@@@priv@stlp_std@@@priv@stlp_std@@QAE@ABU012@@Z ENDP ; stlp_std::priv::_Rb_tree_iterator<CPS_Instance *,stlp_std::priv::_SetTraitsT<CPS_Instance *> >::_Rb_tree_iterator<CPS_Instance *,stlp_std::priv::_SetTraitsT<CPS_Instance *> >
; Function compile flags: /Ogtpy
_TEXT	ENDS
;	COMDAT ??0?$_Rb_tree_iterator@PAXU?$_SetTraitsT@PAX@priv@stlp_std@@@priv@stlp_std@@QAE@PAU_Rb_tree_node_base@12@@Z
_TEXT	SEGMENT
??0?$_Rb_tree_iterator@PAXU?$_SetTraitsT@PAX@priv@stlp_std@@@priv@stlp_std@@QAE@PAU_Rb_tree_node_base@12@@Z PROC ; stlp_std::priv::_Rb_tree_iterator<void *,stlp_std::priv::_SetTraitsT<void *> >::_Rb_tree_iterator<void *,stlp_std::priv::_SetTraitsT<void *> >, COMDAT
; _this$ = eax
; ___x$ = ecx

; 166  :   _Rb_tree_iterator(_Base_ptr __x) : _Rb_tree_base_iterator(__x) {}

	mov	DWORD PTR [eax], ecx
	ret	0
??0?$_Rb_tree_iterator@PAXU?$_SetTraitsT@PAX@priv@stlp_std@@@priv@stlp_std@@QAE@PAU_Rb_tree_node_base@12@@Z ENDP ; stlp_std::priv::_Rb_tree_iterator<void *,stlp_std::priv::_SetTraitsT<void *> >::_Rb_tree_iterator<void *,stlp_std::priv::_SetTraitsT<void *> >
; Function compile flags: /Ogtpy
_TEXT	ENDS
;	COMDAT ??0?$_Rb_tree_iterator@PAVCPS_Instance@@U?$_SetTraitsT@PAVCPS_Instance@@@priv@stlp_std@@@priv@stlp_std@@QAE@PAU_Rb_tree_node_base@12@@Z
_TEXT	SEGMENT
??0?$_Rb_tree_iterator@PAVCPS_Instance@@U?$_SetTraitsT@PAVCPS_Instance@@@priv@stlp_std@@@priv@stlp_std@@QAE@PAU_Rb_tree_node_base@12@@Z PROC ; stlp_std::priv::_Rb_tree_iterator<CPS_Instance *,stlp_std::priv::_SetTraitsT<CPS_Instance *> >::_Rb_tree_iterator<CPS_Instance *,stlp_std::priv::_SetTraitsT<CPS_Instance *> >, COMDAT
; _this$ = eax
; ___x$ = ecx

; 166  :   _Rb_tree_iterator(_Base_ptr __x) : _Rb_tree_base_iterator(__x) {}

	mov	DWORD PTR [eax], ecx
	ret	0
??0?$_Rb_tree_iterator@PAVCPS_Instance@@U?$_SetTraitsT@PAVCPS_Instance@@@priv@stlp_std@@@priv@stlp_std@@QAE@PAU_Rb_tree_node_base@12@@Z ENDP ; stlp_std::priv::_Rb_tree_iterator<CPS_Instance *,stlp_std::priv::_SetTraitsT<CPS_Instance *> >::_Rb_tree_iterator<CPS_Instance *,stlp_std::priv::_SetTraitsT<CPS_Instance *> >
; Function compile flags: /Ogtpy
; File d:\clearsky\sources\sdk\include\stlport\stl\pointers\_tools.h
_TEXT	ENDS
;	COMDAT ?to_value_type_ref@?$_CastTraits@PAXPAVCPS_Instance@@@priv@stlp_std@@SAAAPAVCPS_Instance@@AAPAX@Z
_TEXT	SEGMENT
?to_value_type_ref@?$_CastTraits@PAXPAVCPS_Instance@@@priv@stlp_std@@SAAAPAVCPS_Instance@@AAPAX@Z PROC ; stlp_std::priv::_CastTraits<void *,CPS_Instance *>::to_value_type_ref, COMDAT
; ___ref$ = eax

; 213  :   { return __REINTERPRET_CAST(value_type &, cv_traits::cv_ref(__ref)); }

	ret	0
?to_value_type_ref@?$_CastTraits@PAXPAVCPS_Instance@@@priv@stlp_std@@SAAAPAVCPS_Instance@@AAPAX@Z ENDP ; stlp_std::priv::_CastTraits<void *,CPS_Instance *>::to_value_type_ref
; Function compile flags: /Ogtpy
; File d:\clearsky\sources\sdk\include\stlport\stl\_tree.h
_TEXT	ENDS
;	COMDAT ??0?$_Rb_tree_iterator@PAXU?$_ConstSetTraitsT@PAX@priv@stlp_std@@@priv@stlp_std@@QAE@ABU?$_Rb_tree_iterator@PAXU?$_SetTraitsT@PAX@priv@stlp_std@@@12@@Z
_TEXT	SEGMENT
??0?$_Rb_tree_iterator@PAXU?$_ConstSetTraitsT@PAX@priv@stlp_std@@@priv@stlp_std@@QAE@ABU?$_Rb_tree_iterator@PAXU?$_SetTraitsT@PAX@priv@stlp_std@@@12@@Z PROC ; stlp_std::priv::_Rb_tree_iterator<void *,stlp_std::priv::_ConstSetTraitsT<void *> >::_Rb_tree_iterator<void *,stlp_std::priv::_ConstSetTraitsT<void *> >, COMDAT
; _this$ = eax
; ___it$ = ecx

; 168  :   _Rb_tree_iterator(const iterator& __it) : _Rb_tree_base_iterator(__it._M_node) {}

	mov	edx, DWORD PTR [ecx]
	mov	DWORD PTR [eax], edx
	ret	0
??0?$_Rb_tree_iterator@PAXU?$_ConstSetTraitsT@PAX@priv@stlp_std@@@priv@stlp_std@@QAE@ABU?$_Rb_tree_iterator@PAXU?$_SetTraitsT@PAX@priv@stlp_std@@@12@@Z ENDP ; stlp_std::priv::_Rb_tree_iterator<void *,stlp_std::priv::_ConstSetTraitsT<void *> >::_Rb_tree_iterator<void *,stlp_std::priv::_ConstSetTraitsT<void *> >
; Function compile flags: /Ogtpy
; File d:\clearsky\sources\sdk\include\stlport\stl\pointers\_vector.h
_TEXT	ENDS
;	COMDAT ?size@?$vector@PAVCPS_Instance@@V?$xalloc@PAVCPS_Instance@@@@@stlp_std@@QBEIXZ
_TEXT	SEGMENT
?size@?$vector@PAVCPS_Instance@@V?$xalloc@PAVCPS_Instance@@@@@stlp_std@@QBEIXZ PROC ; stlp_std::vector<CPS_Instance *,xalloc<CPS_Instance *> >::size, COMDAT
; _this$ = ecx

; 89   :   size_type size() const        { return _M_impl.size(); }

	mov	eax, DWORD PTR [ecx+4]
	sub	eax, DWORD PTR [ecx]
	sar	eax, 2
	ret	0
?size@?$vector@PAVCPS_Instance@@V?$xalloc@PAVCPS_Instance@@@@@stlp_std@@QBEIXZ ENDP ; stlp_std::vector<CPS_Instance *,xalloc<CPS_Instance *> >::size
; Function compile flags: /Ogtpy
; File d:\clearsky\sources\sdk\include\stlport\stl\_tree.h
_TEXT	ENDS
;	COMDAT ?end@?$_Rb_tree@PAXU?$_BinaryPredWrapper@PAXPAVCPS_Instance@@U?$less@PAVCPS_Instance@@@stlp_std@@@priv@stlp_std@@PAXU?$_Identity@PAX@23@U?$_SetTraitsT@PAX@23@V?$xalloc@PAX@@@priv@stlp_std@@QAE?AU?$_Rb_tree_iterator@PAXU?$_SetTraitsT@PAX@priv@stlp_std@@@23@XZ
_TEXT	SEGMENT
?end@?$_Rb_tree@PAXU?$_BinaryPredWrapper@PAXPAVCPS_Instance@@U?$less@PAVCPS_Instance@@@stlp_std@@@priv@stlp_std@@PAXU?$_Identity@PAX@23@U?$_SetTraitsT@PAX@23@V?$xalloc@PAX@@@priv@stlp_std@@QAE?AU?$_Rb_tree_iterator@PAXU?$_SetTraitsT@PAX@priv@stlp_std@@@23@XZ PROC ; stlp_std::priv::_Rb_tree<void *,stlp_std::priv::_BinaryPredWrapper<void *,CPS_Instance *,stlp_std::less<CPS_Instance *> >,void *,stlp_std::priv::_Identity<void *>,stlp_std::priv::_SetTraitsT<void *>,xalloc<void *> >::end, COMDAT
; _this$ = ecx
; ___$ReturnUdt$ = eax

; 418  :   iterator end() { return iterator(&this->_M_header._M_data); }

	mov	DWORD PTR [eax], ecx
	ret	0
?end@?$_Rb_tree@PAXU?$_BinaryPredWrapper@PAXPAVCPS_Instance@@U?$less@PAVCPS_Instance@@@stlp_std@@@priv@stlp_std@@PAXU?$_Identity@PAX@23@U?$_SetTraitsT@PAX@23@V?$xalloc@PAX@@@priv@stlp_std@@QAE?AU?$_Rb_tree_iterator@PAXU?$_SetTraitsT@PAX@priv@stlp_std@@@23@XZ ENDP ; stlp_std::priv::_Rb_tree<void *,stlp_std::priv::_BinaryPredWrapper<void *,CPS_Instance *,stlp_std::less<CPS_Instance *> >,void *,stlp_std::priv::_Identity<void *>,stlp_std::priv::_SetTraitsT<void *>,xalloc<void *> >::end
; Function compile flags: /Ogtpy
_TEXT	ENDS
;	COMDAT ?begin@?$_Rb_tree@PAXU?$_BinaryPredWrapper@PAXPAVCPS_Instance@@U?$less@PAVCPS_Instance@@@stlp_std@@@priv@stlp_std@@PAXU?$_Identity@PAX@23@U?$_SetTraitsT@PAX@23@V?$xalloc@PAX@@@priv@stlp_std@@QAE?AU?$_Rb_tree_iterator@PAXU?$_SetTraitsT@PAX@priv@stlp_std@@@23@XZ
_TEXT	SEGMENT
?begin@?$_Rb_tree@PAXU?$_BinaryPredWrapper@PAXPAVCPS_Instance@@U?$less@PAVCPS_Instance@@@stlp_std@@@priv@stlp_std@@PAXU?$_Identity@PAX@23@U?$_SetTraitsT@PAX@23@V?$xalloc@PAX@@@priv@stlp_std@@QAE?AU?$_Rb_tree_iterator@PAXU?$_SetTraitsT@PAX@priv@stlp_std@@@23@XZ PROC ; stlp_std::priv::_Rb_tree<void *,stlp_std::priv::_BinaryPredWrapper<void *,CPS_Instance *,stlp_std::less<CPS_Instance *> >,void *,stlp_std::priv::_Identity<void *>,stlp_std::priv::_SetTraitsT<void *>,xalloc<void *> >::begin, COMDAT
; _this$ = ecx
; ___$ReturnUdt$ = esi

; 416  :   iterator begin() { return iterator(_M_leftmost()); }

	call	?_M_leftmost@?$_Rb_tree@PAXU?$_BinaryPredWrapper@PAXPAVCPS_Instance@@U?$less@PAVCPS_Instance@@@stlp_std@@@priv@stlp_std@@PAXU?$_Identity@PAX@23@U?$_SetTraitsT@PAX@23@V?$xalloc@PAX@@@priv@stlp_std@@IAEAAPAU_Rb_tree_node_base@23@XZ ; stlp_std::priv::_Rb_tree<void *,stlp_std::priv::_BinaryPredWrapper<void *,CPS_Instance *,stlp_std::less<CPS_Instance *> >,void *,stlp_std::priv::_Identity<void *>,stlp_std::priv::_SetTraitsT<void *>,xalloc<void *> >::_M_leftmost
	mov	eax, DWORD PTR [eax]
	mov	DWORD PTR [esi], eax
	mov	eax, esi
	ret	0
?begin@?$_Rb_tree@PAXU?$_BinaryPredWrapper@PAXPAVCPS_Instance@@U?$less@PAVCPS_Instance@@@stlp_std@@@priv@stlp_std@@PAXU?$_Identity@PAX@23@U?$_SetTraitsT@PAX@23@V?$xalloc@PAX@@@priv@stlp_std@@QAE?AU?$_Rb_tree_iterator@PAXU?$_SetTraitsT@PAX@priv@stlp_std@@@23@XZ ENDP ; stlp_std::priv::_Rb_tree<void *,stlp_std::priv::_BinaryPredWrapper<void *,CPS_Instance *,stlp_std::less<CPS_Instance *> >,void *,stlp_std::priv::_Identity<void *>,stlp_std::priv::_SetTraitsT<void *>,xalloc<void *> >::begin
; Function compile flags: /Ogtpy
_TEXT	ENDS
;	COMDAT ??0?$_Rb_tree@PAXU?$_BinaryPredWrapper@PAXPAVCPS_Instance@@U?$less@PAVCPS_Instance@@@stlp_std@@@priv@stlp_std@@PAXU?$_Identity@PAX@23@U?$_SetTraitsT@PAX@23@V?$xalloc@PAX@@@priv@stlp_std@@QAE@ABU?$_BinaryPredWrapper@PAXPAVCPS_Instance@@U?$less@PAVCPS_Instance@@@stlp_std@@@12@ABV?$xalloc@PAX@@@Z
_TEXT	SEGMENT
___comp$ = 8						; size = 4
??0?$_Rb_tree@PAXU?$_BinaryPredWrapper@PAXPAVCPS_Instance@@U?$less@PAVCPS_Instance@@@stlp_std@@@priv@stlp_std@@PAXU?$_Identity@PAX@23@U?$_SetTraitsT@PAX@23@V?$xalloc@PAX@@@priv@stlp_std@@QAE@ABU?$_BinaryPredWrapper@PAXPAVCPS_Instance@@U?$less@PAVCPS_Instance@@@stlp_std@@@12@ABV?$xalloc@PAX@@@Z PROC ; stlp_std::priv::_Rb_tree<void *,stlp_std::priv::_BinaryPredWrapper<void *,CPS_Instance *,stlp_std::less<CPS_Instance *> >,void *,stlp_std::priv::_Identity<void *>,stlp_std::priv::_SetTraitsT<void *>,xalloc<void *> >::_Rb_tree<void *,stlp_std::priv::_BinaryPredWrapper<void *,CPS_Instance *,stlp_std::less<CPS_Instance *> >,void *,stlp_std::priv::_Identity<void *>,stlp_std::priv::_SetTraitsT<void *>,xalloc<void *> >, COMDAT
; _this$ = esi
; ___a$ = eax

; 388  :     {}

	push	eax
	mov	ecx, esi
	call	??0?$_Rb_tree_base@PAXV?$xalloc@PAX@@@priv@stlp_std@@IAE@ABV?$xalloc@PAX@@@Z ; stlp_std::priv::_Rb_tree_base<void *,xalloc<void *> >::_Rb_tree_base<void *,xalloc<void *> >
	mov	ecx, DWORD PTR ___comp$[esp-4]
	mov	DWORD PTR [esi+16], 0
	mov	dl, BYTE PTR [ecx]
	mov	BYTE PTR [esi+20], dl
	mov	eax, esi
	ret	4
??0?$_Rb_tree@PAXU?$_BinaryPredWrapper@PAXPAVCPS_Instance@@U?$less@PAVCPS_Instance@@@stlp_std@@@priv@stlp_std@@PAXU?$_Identity@PAX@23@U?$_SetTraitsT@PAX@23@V?$xalloc@PAX@@@priv@stlp_std@@QAE@ABU?$_BinaryPredWrapper@PAXPAVCPS_Instance@@U?$less@PAVCPS_Instance@@@stlp_std@@@12@ABV?$xalloc@PAX@@@Z ENDP ; stlp_std::priv::_Rb_tree<void *,stlp_std::priv::_BinaryPredWrapper<void *,CPS_Instance *,stlp_std::less<CPS_Instance *> >,void *,stlp_std::priv::_Identity<void *>,stlp_std::priv::_SetTraitsT<void *>,xalloc<void *> >::_Rb_tree<void *,stlp_std::priv::_BinaryPredWrapper<void *,CPS_Instance *,stlp_std::less<CPS_Instance *> >,void *,stlp_std::priv::_Identity<void *>,stlp_std::priv::_SetTraitsT<void *>,xalloc<void *> >
; Function compile flags: /Ogtpy
; File d:\clearsky\sources\sdk\include\stlport\stl\pointers\_set.h
_TEXT	ENDS
;	COMDAT ?_S_to_value_ite@?$set@PAVCPS_Instance@@U?$less@PAVCPS_Instance@@@stlp_std@@V?$xalloc@PAVCPS_Instance@@@@@stlp_std@@CA?AU?$_Rb_tree_iterator@PAVCPS_Instance@@U?$_SetTraitsT@PAVCPS_Instance@@@priv@stlp_std@@@priv@2@U?$_Rb_tree_iterator@PAXU?$_ConstSetTraitsT@PAX@priv@stlp_std@@@42@@Z
_TEXT	SEGMENT
___ite$ = 8						; size = 4
?_S_to_value_ite@?$set@PAVCPS_Instance@@U?$less@PAVCPS_Instance@@@stlp_std@@V?$xalloc@PAVCPS_Instance@@@@@stlp_std@@CA?AU?$_Rb_tree_iterator@PAVCPS_Instance@@U?$_SetTraitsT@PAVCPS_Instance@@@priv@stlp_std@@@priv@2@U?$_Rb_tree_iterator@PAXU?$_ConstSetTraitsT@PAX@priv@stlp_std@@@42@@Z PROC ; stlp_std::set<CPS_Instance *,stlp_std::less<CPS_Instance *>,xalloc<CPS_Instance *> >::_S_to_value_ite, COMDAT
; ___$ReturnUdt$ = eax

; 114  :   { return iterator(__ite._M_node); }

	mov	ecx, DWORD PTR ___ite$[esp-4]
	mov	DWORD PTR [eax], ecx
	ret	0
?_S_to_value_ite@?$set@PAVCPS_Instance@@U?$less@PAVCPS_Instance@@@stlp_std@@V?$xalloc@PAVCPS_Instance@@@@@stlp_std@@CA?AU?$_Rb_tree_iterator@PAVCPS_Instance@@U?$_SetTraitsT@PAVCPS_Instance@@@priv@stlp_std@@@priv@2@U?$_Rb_tree_iterator@PAXU?$_ConstSetTraitsT@PAX@priv@stlp_std@@@42@@Z ENDP ; stlp_std::set<CPS_Instance *,stlp_std::less<CPS_Instance *>,xalloc<CPS_Instance *> >::_S_to_value_ite
; Function compile flags: /Ogtpy
; File d:\clearsky\sources\engine\xrcore\_stl_extensions.h
_TEXT	ENDS
;	COMDAT ?size@?$xr_vector@PAVCPS_Instance@@V?$xalloc@PAVCPS_Instance@@@@@@QBEIXZ
_TEXT	SEGMENT
?size@?$xr_vector@PAVCPS_Instance@@V?$xalloc@PAVCPS_Instance@@@@@@QBEIXZ PROC ; xr_vector<CPS_Instance *,xalloc<CPS_Instance *> >::size, COMDAT
; _this$ = ecx

; 126  : 	u32		size				() const							{ return (u32)inherited::size();} 

	mov	eax, DWORD PTR [ecx+4]
	sub	eax, DWORD PTR [ecx]
	sar	eax, 2
	ret	0
?size@?$xr_vector@PAVCPS_Instance@@V?$xalloc@PAVCPS_Instance@@@@@@QBEIXZ ENDP ; xr_vector<CPS_Instance *,xalloc<CPS_Instance *> >::size
; Function compile flags: /Ogtpy
; File d:\clearsky\sources\sdk\include\stlport\stl\pointers\_set.h
_TEXT	ENDS
;	COMDAT ?end@?$set@PAVCPS_Instance@@U?$less@PAVCPS_Instance@@@stlp_std@@V?$xalloc@PAVCPS_Instance@@@@@stlp_std@@QAE?AU?$_Rb_tree_iterator@PAVCPS_Instance@@U?$_SetTraitsT@PAVCPS_Instance@@@priv@stlp_std@@@priv@2@XZ
_TEXT	SEGMENT
?end@?$set@PAVCPS_Instance@@U?$less@PAVCPS_Instance@@@stlp_std@@V?$xalloc@PAVCPS_Instance@@@@@stlp_std@@QAE?AU?$_Rb_tree_iterator@PAVCPS_Instance@@U?$_SetTraitsT@PAVCPS_Instance@@@priv@stlp_std@@@priv@2@XZ PROC ; stlp_std::set<CPS_Instance *,stlp_std::less<CPS_Instance *>,xalloc<CPS_Instance *> >::end, COMDAT
; _this$ = ecx
; ___$ReturnUdt$ = eax

; 201  :   iterator end() { return _S_to_value_ite(_M_t.end()); }

	mov	DWORD PTR [eax], ecx
	ret	0
?end@?$set@PAVCPS_Instance@@U?$less@PAVCPS_Instance@@@stlp_std@@V?$xalloc@PAVCPS_Instance@@@@@stlp_std@@QAE?AU?$_Rb_tree_iterator@PAVCPS_Instance@@U?$_SetTraitsT@PAVCPS_Instance@@@priv@stlp_std@@@priv@2@XZ ENDP ; stlp_std::set<CPS_Instance *,stlp_std::less<CPS_Instance *>,xalloc<CPS_Instance *> >::end
; Function compile flags: /Ogtpy
_TEXT	ENDS
;	COMDAT ?begin@?$set@PAVCPS_Instance@@U?$less@PAVCPS_Instance@@@stlp_std@@V?$xalloc@PAVCPS_Instance@@@@@stlp_std@@QAE?AU?$_Rb_tree_iterator@PAVCPS_Instance@@U?$_SetTraitsT@PAVCPS_Instance@@@priv@stlp_std@@@priv@2@XZ
_TEXT	SEGMENT
?begin@?$set@PAVCPS_Instance@@U?$less@PAVCPS_Instance@@@stlp_std@@V?$xalloc@PAVCPS_Instance@@@@@stlp_std@@QAE?AU?$_Rb_tree_iterator@PAVCPS_Instance@@U?$_SetTraitsT@PAVCPS_Instance@@@priv@stlp_std@@@priv@2@XZ PROC ; stlp_std::set<CPS_Instance *,stlp_std::less<CPS_Instance *>,xalloc<CPS_Instance *> >::begin, COMDAT
; _this$ = ecx
; ___$ReturnUdt$ = esi

; 200  :   iterator begin() { return _S_to_value_ite(_M_t.begin()); }

	call	?_M_leftmost@?$_Rb_tree@PAXU?$_BinaryPredWrapper@PAXPAVCPS_Instance@@U?$less@PAVCPS_Instance@@@stlp_std@@@priv@stlp_std@@PAXU?$_Identity@PAX@23@U?$_SetTraitsT@PAX@23@V?$xalloc@PAX@@@priv@stlp_std@@IAEAAPAU_Rb_tree_node_base@23@XZ ; stlp_std::priv::_Rb_tree<void *,stlp_std::priv::_BinaryPredWrapper<void *,CPS_Instance *,stlp_std::less<CPS_Instance *> >,void *,stlp_std::priv::_Identity<void *>,stlp_std::priv::_SetTraitsT<void *>,xalloc<void *> >::_M_leftmost
	mov	eax, DWORD PTR [eax]
	mov	DWORD PTR [esi], eax
	mov	eax, esi
	ret	0
?begin@?$set@PAVCPS_Instance@@U?$less@PAVCPS_Instance@@@stlp_std@@V?$xalloc@PAVCPS_Instance@@@@@stlp_std@@QAE?AU?$_Rb_tree_iterator@PAVCPS_Instance@@U?$_SetTraitsT@PAVCPS_Instance@@@priv@stlp_std@@@priv@2@XZ ENDP ; stlp_std::set<CPS_Instance *,stlp_std::less<CPS_Instance *>,xalloc<CPS_Instance *> >::begin
; Function compile flags: /Ogtpy
_TEXT	ENDS
;	COMDAT ??0?$set@PAVCPS_Instance@@U?$less@PAVCPS_Instance@@@stlp_std@@V?$xalloc@PAVCPS_Instance@@@@@stlp_std@@QAE@XZ
_TEXT	SEGMENT
$T259318 = -1						; size = 1
$T259317 = -1						; size = 1
??0?$set@PAVCPS_Instance@@U?$less@PAVCPS_Instance@@@stlp_std@@V?$xalloc@PAVCPS_Instance@@@@@stlp_std@@QAE@XZ PROC ; stlp_std::set<CPS_Instance *,stlp_std::less<CPS_Instance *>,xalloc<CPS_Instance *> >::set<CPS_Instance *,stlp_std::less<CPS_Instance *>,xalloc<CPS_Instance *> >, COMDAT
; _this$ = esi

; 120  :   set() : _M_t(_CompareStorageType(), _StorageTypeAlloc()) {}

	push	ecx
	lea	eax, DWORD PTR $T259317[esp+4]
	push	eax
	mov	ecx, esi
	call	??0?$_Rb_tree_base@PAXV?$xalloc@PAX@@@priv@stlp_std@@IAE@ABV?$xalloc@PAX@@@Z ; stlp_std::priv::_Rb_tree_base<void *,xalloc<void *> >::_Rb_tree_base<void *,xalloc<void *> >
	mov	cl, BYTE PTR $T259318[esp+4]
	mov	DWORD PTR [esi+16], 0
	mov	BYTE PTR [esi+20], cl
	mov	eax, esi
	pop	ecx
	ret	0
??0?$set@PAVCPS_Instance@@U?$less@PAVCPS_Instance@@@stlp_std@@V?$xalloc@PAVCPS_Instance@@@@@stlp_std@@QAE@XZ ENDP ; stlp_std::set<CPS_Instance *,stlp_std::less<CPS_Instance *>,xalloc<CPS_Instance *> >::set<CPS_Instance *,stlp_std::less<CPS_Instance *>,xalloc<CPS_Instance *> >
; Function compile flags: /Ogtpy
; File d:\clearsky\sources\engine\xrengine\igame_persistent.cpp
_TEXT	ENDS
;	COMDAT ?predicate@destroy_on_game_load@?O@??destroy_particles@IGame_Persistent@@QAEXAB_N@Z@SA_NABQAVCPS_Instance@@@Z
_TEXT	SEGMENT
_object$ = 8						; size = 4
?predicate@destroy_on_game_load@?O@??destroy_particles@IGame_Persistent@@QAEXAB_N@Z@SA_NABQAVCPS_Instance@@@Z PROC ; `IGame_Persistent::destroy_particles'::`14'::destroy_on_game_load::predicate, COMDAT

; 229  : 				return					(!object->destroy_on_game_load());

	mov	eax, DWORD PTR _object$[esp-4]
	mov	ecx, DWORD PTR [eax]
	xor	eax, eax
	cmp	BYTE PTR [ecx+140], al
	sete	al

; 230  : 			}

	ret	0
?predicate@destroy_on_game_load@?O@??destroy_particles@IGame_Persistent@@QAEXAB_N@Z@SA_NABQAVCPS_Instance@@@Z ENDP ; `IGame_Persistent::destroy_particles'::`14'::destroy_on_game_load::predicate
; Function compile flags: /Ogtpy
_TEXT	ENDS
;	COMDAT ??0?$xr_set@PAVCPS_Instance@@U?$less@PAVCPS_Instance@@@stlp_std@@V?$xalloc@PAVCPS_Instance@@@@@@QAE@XZ
_TEXT	SEGMENT
$T259352 = -1						; size = 1
$T259351 = -1						; size = 1
??0?$xr_set@PAVCPS_Instance@@U?$less@PAVCPS_Instance@@@stlp_std@@V?$xalloc@PAVCPS_Instance@@@@@@QAE@XZ PROC ; xr_set<CPS_Instance *,stlp_std::less<CPS_Instance *>,xalloc<CPS_Instance *> >::xr_set<CPS_Instance *,stlp_std::less<CPS_Instance *>,xalloc<CPS_Instance *> >, COMDAT
; _this$ = esi
	push	ecx
	lea	eax, DWORD PTR $T259351[esp+4]
	push	eax
	mov	ecx, esi
	call	??0?$_Rb_tree_base@PAXV?$xalloc@PAX@@@priv@stlp_std@@IAE@ABV?$xalloc@PAX@@@Z ; stlp_std::priv::_Rb_tree_base<void *,xalloc<void *> >::_Rb_tree_base<void *,xalloc<void *> >
	mov	cl, BYTE PTR $T259352[esp+4]
	mov	DWORD PTR [esi+16], 0
	mov	BYTE PTR [esi+20], cl
	mov	eax, esi
	pop	ecx
	ret	0
??0?$xr_set@PAVCPS_Instance@@U?$less@PAVCPS_Instance@@@stlp_std@@V?$xalloc@PAVCPS_Instance@@@@@@QAE@XZ ENDP ; xr_set<CPS_Instance *,stlp_std::less<CPS_Instance *>,xalloc<CPS_Instance *> >::xr_set<CPS_Instance *,stlp_std::less<CPS_Instance *>,xalloc<CPS_Instance *> >
_TEXT	ENDS
PUBLIC	??4CPS_Instance@@QAEAAV0@ABV0@@Z		; CPS_Instance::operator=
; Function compile flags: /Ogtpy
;	COMDAT ??4CPS_Instance@@QAEAAV0@ABV0@@Z
_TEXT	SEGMENT
___that$ = 8						; size = 4
??4CPS_Instance@@QAEAAV0@ABV0@@Z PROC			; CPS_Instance::operator=, COMDAT
; _this$ = ecx
	mov	edx, DWORD PTR ___that$[esp-4]
	mov	eax, ecx
	push	esi
	push	edi
	lea	esi, DWORD PTR [edx+4]
	lea	edi, DWORD PTR [eax+4]
	mov	ecx, 12					; 0000000cH
	rep movsd
	mov	ecx, DWORD PTR [edx+56]
	mov	DWORD PTR [eax+56], ecx
	lea	esi, DWORD PTR [edx+64]
	lea	edi, DWORD PTR [eax+64]
	mov	ecx, 19					; 00000013H
	rep movsd
	mov	cl, BYTE PTR [edx+140]
	mov	BYTE PTR [eax+140], cl
	mov	ecx, DWORD PTR [edx+144]
	mov	DWORD PTR [eax+144], ecx
	mov	ecx, DWORD PTR [edx+148]
	mov	DWORD PTR [eax+148], ecx
	mov	edx, DWORD PTR [edx+152]
	pop	edi
	mov	DWORD PTR [eax+152], edx
	pop	esi
	ret	4
??4CPS_Instance@@QAEAAV0@ABV0@@Z ENDP			; CPS_Instance::operator=
_TEXT	ENDS
PUBLIC	?PSI_SetLifeTime@CPS_Instance@@QAEXM@Z		; CPS_Instance::PSI_SetLifeTime
; Function compile flags: /Ogtpy
; File d:\clearsky\sources\engine\xrengine\ps_instance.h
;	COMDAT ?PSI_SetLifeTime@CPS_Instance@@QAEXM@Z
_TEXT	SEGMENT
_a$259384 = 8						; size = 4
_life_time$ = 8						; size = 4
?PSI_SetLifeTime@CPS_Instance@@QAEXM@Z PROC		; CPS_Instance::PSI_SetLifeTime, COMDAT
; _this$ = ecx

; 37   : 	IC void					PSI_SetLifeTime		(float life_time)		{	m_iLifeTime=iFloor(life_time*1000);	}

	movss	xmm0, DWORD PTR _life_time$[esp-4]
	mulss	xmm0, DWORD PTR _fuzzy_update_novis
	push	esi
	movss	DWORD PTR _a$259384[esp], xmm0
	mov	esi, DWORD PTR _a$259384[esp]
	mov	eax, esi
	sar	eax, 23					; 00000017H
	and	eax, 255				; 000000ffH
	push	edi
	mov	edi, ecx
	mov	edx, esi
	or	edx, -8388608				; ff800000H
	shl	edx, 8
	mov	ecx, 158				; 0000009eH
	sub	ecx, eax
	shr	edx, cl
	sub	ecx, 96					; 00000060H
	mov	eax, 1
	shl	eax, cl
	sub	eax, 1
	sar	eax, 8
	and	eax, esi
	neg	eax
	sbb	eax, eax
	sar	esi, 31					; 0000001fH
	add	eax, 1
	and	eax, esi
	add	ecx, 64					; 00000040H
	sub	edx, eax
	sar	ecx, 31					; 0000001fH
	and	edx, ecx
	xor	edx, esi
	mov	DWORD PTR [edi+144], edx
	pop	edi
	pop	esi
	ret	4
?PSI_SetLifeTime@CPS_Instance@@QAEXM@Z ENDP		; CPS_Instance::PSI_SetLifeTime
; Function compile flags: /Ogtpy
; File d:\clearsky\sources\engine\xrengine\igame_persistent.h
_TEXT	ENDS
;	COMDAT ?reset@params@IGame_Persistent@@QAEXXZ
_TEXT	SEGMENT
?reset@params@IGame_Persistent@@QAEXXZ PROC		; IGame_Persistent::params::reset, COMDAT
; _this$ = eax

; 37   : 		{

	push	esi
	push	edi

; 38   : 			for (int i=0; i<4; ++i)

	mov	esi, eax
	mov	edi, 4
	npad	7
$LL3@reset@2:

; 39   : 				xr_strcpy	(m_params[i],"");

	push	OFFSET ??_C@_00CNPNBAHC@?$AA@
	push	esi
	call	??$xr_strcpy@$0BAA@@@YAHAAY0BAA@DPBD@Z	; xr_strcpy<256>
	add	esp, 8
	add	esi, 256				; 00000100H
	sub	edi, 1
	jne	SHORT $LL3@reset@2
	pop	edi
	pop	esi

; 40   : 		}

	ret	0
?reset@params@IGame_Persistent@@QAEXXZ ENDP		; IGame_Persistent::params::reset
; Function compile flags: /Ogtpy
_TEXT	ENDS
;	COMDAT ??0params@IGame_Persistent@@QAE@XZ
_TEXT	SEGMENT
??0params@IGame_Persistent@@QAE@XZ PROC			; IGame_Persistent::params::params, COMDAT
; _this$ = ebx

; 35   : 						params		()	{	reset();	}

	push	esi
	push	edi
	mov	esi, ebx
	mov	edi, 4
	npad	7
$LL5@params:
	push	OFFSET ??_C@_00CNPNBAHC@?$AA@
	push	esi
	call	??$xr_strcpy@$0BAA@@@YAHAAY0BAA@DPBD@Z	; xr_strcpy<256>
	add	esp, 8
	add	esi, 256				; 00000100H
	sub	edi, 1
	jne	SHORT $LL5@params
	pop	edi
	mov	eax, ebx
	pop	esi
	ret	0
??0params@IGame_Persistent@@QAE@XZ ENDP			; IGame_Persistent::params::params
; Function compile flags: /Ogtpy
; File d:\clearsky\sources\sdk\include\stlport\stl\_algobase.h
;	COMDAT ??$__copy_aux@U?$_Rb_tree_iterator@PAVCPS_Instance@@U?$_SetTraitsT@PAVCPS_Instance@@@priv@stlp_std@@@priv@stlp_std@@PAPAVCPS_Instance@@@priv@stlp_std@@YAPAPAVCPS_Instance@@U?$_Rb_tree_iterator@PAVCPS_Instance@@U?$_SetTraitsT@PAVCPS_Instance@@@priv@stlp_std@@@01@0PAPAV2@ABU__false_type@1@@Z
_TEXT	SEGMENT
___first$ = 8						; size = 4
___last$ = 12						; size = 4
___result$ = 16						; size = 4
??$__copy_aux@U?$_Rb_tree_iterator@PAVCPS_Instance@@U?$_SetTraitsT@PAVCPS_Instance@@@priv@stlp_std@@@priv@stlp_std@@PAPAVCPS_Instance@@@priv@stlp_std@@YAPAPAVCPS_Instance@@U?$_Rb_tree_iterator@PAVCPS_Instance@@U?$_SetTraitsT@PAVCPS_Instance@@@priv@stlp_std@@@01@0PAPAV2@ABU__false_type@1@@Z PROC ; stlp_std::priv::__copy_aux<stlp_std::priv::_Rb_tree_iterator<CPS_Instance *,stlp_std::priv::_SetTraitsT<CPS_Instance *> >,CPS_Instance * *>, COMDAT

; 271  :   return __copy(__first, __last, __result,
; 272  :                 _STLP_ITERATOR_CATEGORY(__first, _InputIter),
; 273  :                 _STLP_DISTANCE_TYPE(__first, _InputIter));

	mov	edx, DWORD PTR ___first$[esp-4]
	push	ecx
	mov	ecx, DWORD PTR ___last$[esp]
	mov	eax, esp
	mov	DWORD PTR [eax], ecx
	push	ecx
	mov	eax, esp
	mov	DWORD PTR [eax], edx
	mov	eax, DWORD PTR ___result$[esp+4]
	call	??$__copy@U?$_Rb_tree_iterator@PAVCPS_Instance@@U?$_SetTraitsT@PAVCPS_Instance@@@priv@stlp_std@@@priv@stlp_std@@PAPAVCPS_Instance@@H@priv@stlp_std@@YAPAPAVCPS_Instance@@U?$_Rb_tree_iterator@PAVCPS_Instance@@U?$_SetTraitsT@PAVCPS_Instance@@@priv@stlp_std@@@01@0PAPAV2@ABUinput_iterator_tag@1@PAH@Z ; stlp_std::priv::__copy<stlp_std::priv::_Rb_tree_iterator<CPS_Instance *,stlp_std::priv::_SetTraitsT<CPS_Instance *> >,CPS_Instance * *,int>
	add	esp, 8

; 274  : }

	ret	0
??$__copy_aux@U?$_Rb_tree_iterator@PAVCPS_Instance@@U?$_SetTraitsT@PAVCPS_Instance@@@priv@stlp_std@@@priv@stlp_std@@PAPAVCPS_Instance@@@priv@stlp_std@@YAPAPAVCPS_Instance@@U?$_Rb_tree_iterator@PAVCPS_Instance@@U?$_SetTraitsT@PAVCPS_Instance@@@priv@stlp_std@@@01@0PAPAV2@ABU__false_type@1@@Z ENDP ; stlp_std::priv::__copy_aux<stlp_std::priv::_Rb_tree_iterator<CPS_Instance *,stlp_std::priv::_SetTraitsT<CPS_Instance *> >,CPS_Instance * *>
; Function compile flags: /Ogtpy
_TEXT	ENDS
;	COMDAT ??$copy@U?$_Rb_tree_iterator@PAVCPS_Instance@@U?$_SetTraitsT@PAVCPS_Instance@@@priv@stlp_std@@@priv@stlp_std@@PAPAVCPS_Instance@@@stlp_std@@YAPAPAVCPS_Instance@@U?$_Rb_tree_iterator@PAVCPS_Instance@@U?$_SetTraitsT@PAVCPS_Instance@@@priv@stlp_std@@@priv@0@0PAPAV1@@Z
_TEXT	SEGMENT
___first$ = 8						; size = 4
___last$ = 12						; size = 4
___result$ = 16						; size = 4
??$copy@U?$_Rb_tree_iterator@PAVCPS_Instance@@U?$_SetTraitsT@PAVCPS_Instance@@@priv@stlp_std@@@priv@stlp_std@@PAPAVCPS_Instance@@@stlp_std@@YAPAPAVCPS_Instance@@U?$_Rb_tree_iterator@PAVCPS_Instance@@U?$_SetTraitsT@PAVCPS_Instance@@@priv@stlp_std@@@priv@0@0PAPAV1@@Z PROC ; stlp_std::copy<stlp_std::priv::_Rb_tree_iterator<CPS_Instance *,stlp_std::priv::_SetTraitsT<CPS_Instance *> >,CPS_Instance * *>, COMDAT

; 280  :   _STLP_DEBUG_CHECK(_STLP_PRIV __check_range(__first, __last))
; 281  :   return _STLP_PRIV __copy_aux(__first, __last, __result, _BothPtrType< _InputIter, _OutputIter>::_Answer());

	mov	edx, DWORD PTR ___first$[esp-4]
	push	ecx
	mov	ecx, DWORD PTR ___last$[esp]
	mov	eax, esp
	mov	DWORD PTR [eax], ecx
	push	ecx
	mov	eax, esp
	mov	DWORD PTR [eax], edx
	mov	eax, DWORD PTR ___result$[esp+4]
	call	??$__copy@U?$_Rb_tree_iterator@PAVCPS_Instance@@U?$_SetTraitsT@PAVCPS_Instance@@@priv@stlp_std@@@priv@stlp_std@@PAPAVCPS_Instance@@H@priv@stlp_std@@YAPAPAVCPS_Instance@@U?$_Rb_tree_iterator@PAVCPS_Instance@@U?$_SetTraitsT@PAVCPS_Instance@@@priv@stlp_std@@@01@0PAPAV2@ABUinput_iterator_tag@1@PAH@Z ; stlp_std::priv::__copy<stlp_std::priv::_Rb_tree_iterator<CPS_Instance *,stlp_std::priv::_SetTraitsT<CPS_Instance *> >,CPS_Instance * *,int>
	add	esp, 8

; 282  : }

	ret	0
??$copy@U?$_Rb_tree_iterator@PAVCPS_Instance@@U?$_SetTraitsT@PAVCPS_Instance@@@priv@stlp_std@@@priv@stlp_std@@PAPAVCPS_Instance@@@stlp_std@@YAPAPAVCPS_Instance@@U?$_Rb_tree_iterator@PAVCPS_Instance@@U?$_SetTraitsT@PAVCPS_Instance@@@priv@stlp_std@@@priv@0@0PAPAV1@@Z ENDP ; stlp_std::copy<stlp_std::priv::_Rb_tree_iterator<CPS_Instance *,stlp_std::priv::_SetTraitsT<CPS_Instance *> >,CPS_Instance * *>
; Function compile flags: /Ogtpy
; File d:\clearsky\sources\sdk\include\stlport\stl\pointers\_vector.h
_TEXT	ENDS
;	COMDAT ??0?$vector@PAVCPS_Instance@@V?$xalloc@PAVCPS_Instance@@@@@stlp_std@@QAE@ABV?$xalloc@PAVCPS_Instance@@@@@Z
_TEXT	SEGMENT
??0?$vector@PAVCPS_Instance@@V?$xalloc@PAVCPS_Instance@@@@@stlp_std@@QAE@ABV?$xalloc@PAVCPS_Instance@@@@@Z PROC ; stlp_std::vector<CPS_Instance *,xalloc<CPS_Instance *> >::vector<CPS_Instance *,xalloc<CPS_Instance *> >, COMDAT
; _this$ = eax

; 106  :   explicit vector(const allocator_type& __a = allocator_type())

	xor	ecx, ecx
	mov	DWORD PTR [eax], ecx
	mov	DWORD PTR [eax+4], ecx
	mov	DWORD PTR [eax+8], ecx
	ret	0
??0?$vector@PAVCPS_Instance@@V?$xalloc@PAVCPS_Instance@@@@@stlp_std@@QAE@ABV?$xalloc@PAVCPS_Instance@@@@@Z ENDP ; stlp_std::vector<CPS_Instance *,xalloc<CPS_Instance *> >::vector<CPS_Instance *,xalloc<CPS_Instance *> >
; Function compile flags: /Ogtpy
; File d:\clearsky\sources\engine\xrengine\pure.h
_TEXT	ENDS
;	COMDAT ?Resort@?$CRegistrator@VpureAppEnd@@@@QAEXXZ
_TEXT	SEGMENT
?Resort@?$CRegistrator@VpureAppEnd@@@@QAEXXZ PROC	; CRegistrator<pureAppEnd>::Resort, COMDAT
; _this$ = esi

; 96   : 		qsort	(&*R.begin(),R.size(),sizeof(_REG_INFO),_REG_Compare);

	push	OFFSET ?_REG_Compare@?$CRegistrator@VpureAppEnd@@@@CAHPBX0@Z ; CRegistrator<pureAppEnd>::_REG_Compare
	push	12					; 0000000cH
	mov	ecx, esi
	call	?size@?$xr_vector@U_REG_INFO@@V?$xalloc@U_REG_INFO@@@@@@QBEIXZ ; xr_vector<_REG_INFO,xalloc<_REG_INFO> >::size
	push	eax
	mov	ecx, esi
	call	?begin@?$vector@U_REG_INFO@@V?$xalloc@U_REG_INFO@@@@@stlp_std@@QAEPAU_REG_INFO@@XZ ; stlp_std::vector<_REG_INFO,xalloc<_REG_INFO> >::begin
	push	eax
	call	DWORD PTR __imp__qsort
	add	esp, 16					; 00000010H

; 97   : 		while	((R.size()) && (R[R.size()-1].Prio==REG_PRIORITY_INVALID)) R.pop_back();

	mov	ecx, esi
	call	?size@?$xr_vector@U_REG_INFO@@V?$xalloc@U_REG_INFO@@@@@@QBEIXZ ; xr_vector<_REG_INFO,xalloc<_REG_INFO> >::size
	test	eax, eax
	je	SHORT $LN2@Resort@4
	npad	5
$LL3@Resort@4:
	mov	ecx, esi
	call	?size@?$xr_vector@U_REG_INFO@@V?$xalloc@U_REG_INFO@@@@@@QBEIXZ ; xr_vector<_REG_INFO,xalloc<_REG_INFO> >::size
	sub	eax, 1
	push	eax
	mov	ecx, esi
	call	??A?$xr_vector@U_REG_INFO@@V?$xalloc@U_REG_INFO@@@@@@QAEAAU_REG_INFO@@I@Z ; xr_vector<_REG_INFO,xalloc<_REG_INFO> >::operator[]
	cmp	DWORD PTR [eax+4], -1
	jne	SHORT $LN2@Resort@4
	mov	ecx, esi
	call	?pop_back@?$vector@U_REG_INFO@@V?$xalloc@U_REG_INFO@@@@@stlp_std@@QAEXXZ ; stlp_std::vector<_REG_INFO,xalloc<_REG_INFO> >::pop_back
	mov	ecx, esi
	call	?size@?$xr_vector@U_REG_INFO@@V?$xalloc@U_REG_INFO@@@@@@QBEIXZ ; xr_vector<_REG_INFO,xalloc<_REG_INFO> >::size
	test	eax, eax
	jne	SHORT $LL3@Resort@4
$LN2@Resort@4:

; 98   : 		if (R.empty())		R.clear		();

	mov	ecx, esi
	call	?empty@?$vector@U_REG_INFO@@V?$xalloc@U_REG_INFO@@@@@stlp_std@@QBE_NXZ ; stlp_std::vector<_REG_INFO,xalloc<_REG_INFO> >::empty
	test	al, al
	je	SHORT $LN78@Resort@4
	mov	ecx, esi
	call	?clear@?$xr_vector@U_REG_INFO@@V?$xalloc@U_REG_INFO@@@@@@QAEXXZ ; xr_vector<_REG_INFO,xalloc<_REG_INFO> >::clear
$LN78@Resort@4:

; 99   : 		changed				= false;

	and	DWORD PTR [esi+12], -3			; fffffffdH

; 100  : 	};

	ret	0
?Resort@?$CRegistrator@VpureAppEnd@@@@QAEXXZ ENDP	; CRegistrator<pureAppEnd>::Resort
; Function compile flags: /Ogtpy
_TEXT	ENDS
;	COMDAT ?Resort@?$CRegistrator@VpureAppStart@@@@QAEXXZ
_TEXT	SEGMENT
?Resort@?$CRegistrator@VpureAppStart@@@@QAEXXZ PROC	; CRegistrator<pureAppStart>::Resort, COMDAT
; _this$ = esi

; 96   : 		qsort	(&*R.begin(),R.size(),sizeof(_REG_INFO),_REG_Compare);

	push	OFFSET ?_REG_Compare@?$CRegistrator@VpureAppStart@@@@CAHPBX0@Z ; CRegistrator<pureAppStart>::_REG_Compare
	push	12					; 0000000cH
	mov	ecx, esi
	call	?size@?$xr_vector@U_REG_INFO@@V?$xalloc@U_REG_INFO@@@@@@QBEIXZ ; xr_vector<_REG_INFO,xalloc<_REG_INFO> >::size
	push	eax
	mov	ecx, esi
	call	?begin@?$vector@U_REG_INFO@@V?$xalloc@U_REG_INFO@@@@@stlp_std@@QAEPAU_REG_INFO@@XZ ; stlp_std::vector<_REG_INFO,xalloc<_REG_INFO> >::begin
	push	eax
	call	DWORD PTR __imp__qsort
	add	esp, 16					; 00000010H

; 97   : 		while	((R.size()) && (R[R.size()-1].Prio==REG_PRIORITY_INVALID)) R.pop_back();

	mov	ecx, esi
	call	?size@?$xr_vector@U_REG_INFO@@V?$xalloc@U_REG_INFO@@@@@@QBEIXZ ; xr_vector<_REG_INFO,xalloc<_REG_INFO> >::size
	test	eax, eax
	je	SHORT $LN2@Resort@5
	npad	5
$LL3@Resort@5:
	mov	ecx, esi
	call	?size@?$xr_vector@U_REG_INFO@@V?$xalloc@U_REG_INFO@@@@@@QBEIXZ ; xr_vector<_REG_INFO,xalloc<_REG_INFO> >::size
	sub	eax, 1
	push	eax
	mov	ecx, esi
	call	??A?$xr_vector@U_REG_INFO@@V?$xalloc@U_REG_INFO@@@@@@QAEAAU_REG_INFO@@I@Z ; xr_vector<_REG_INFO,xalloc<_REG_INFO> >::operator[]
	cmp	DWORD PTR [eax+4], -1
	jne	SHORT $LN2@Resort@5
	mov	ecx, esi
	call	?pop_back@?$vector@U_REG_INFO@@V?$xalloc@U_REG_INFO@@@@@stlp_std@@QAEXXZ ; stlp_std::vector<_REG_INFO,xalloc<_REG_INFO> >::pop_back
	mov	ecx, esi
	call	?size@?$xr_vector@U_REG_INFO@@V?$xalloc@U_REG_INFO@@@@@@QBEIXZ ; xr_vector<_REG_INFO,xalloc<_REG_INFO> >::size
	test	eax, eax
	jne	SHORT $LL3@Resort@5
$LN2@Resort@5:

; 98   : 		if (R.empty())		R.clear		();

	mov	ecx, esi
	call	?empty@?$vector@U_REG_INFO@@V?$xalloc@U_REG_INFO@@@@@stlp_std@@QBE_NXZ ; stlp_std::vector<_REG_INFO,xalloc<_REG_INFO> >::empty
	test	al, al
	je	SHORT $LN78@Resort@5
	mov	ecx, esi
	call	?clear@?$xr_vector@U_REG_INFO@@V?$xalloc@U_REG_INFO@@@@@@QAEXXZ ; xr_vector<_REG_INFO,xalloc<_REG_INFO> >::clear
$LN78@Resort@5:

; 99   : 		changed				= false;

	and	DWORD PTR [esi+12], -3			; fffffffdH

; 100  : 	};

	ret	0
?Resort@?$CRegistrator@VpureAppStart@@@@QAEXXZ ENDP	; CRegistrator<pureAppStart>::Resort
; Function compile flags: /Ogtpy
; File d:\clearsky\sources\sdk\include\stlport\stl\pointers\_vector.h
_TEXT	ENDS
;	COMDAT ?pop_back@?$vector@PAVCPS_Instance@@V?$xalloc@PAVCPS_Instance@@@@@stlp_std@@QAEXXZ
_TEXT	SEGMENT
?pop_back@?$vector@PAVCPS_Instance@@V?$xalloc@PAVCPS_Instance@@@@@stlp_std@@QAEXXZ PROC ; stlp_std::vector<CPS_Instance *,xalloc<CPS_Instance *> >::pop_back, COMDAT
; _this$ = eax

; 204  :   void pop_back() {_M_impl.pop_back();}

	add	DWORD PTR [eax+4], -4			; fffffffcH
	mov	eax, DWORD PTR [eax+4]
	push	eax
	call	??$_Destroy@PAX@stlp_std@@YAXPAPAX@Z	; stlp_std::_Destroy<void *>
	pop	ecx
	ret	0
?pop_back@?$vector@PAVCPS_Instance@@V?$xalloc@PAVCPS_Instance@@@@@stlp_std@@QAEXXZ ENDP ; stlp_std::vector<CPS_Instance *,xalloc<CPS_Instance *> >::pop_back
; Function compile flags: /Ogtpy
_TEXT	ENDS
;	COMDAT ?back@?$vector@PAVCPS_Instance@@V?$xalloc@PAVCPS_Instance@@@@@stlp_std@@QAEAAPAVCPS_Instance@@XZ
_TEXT	SEGMENT
?back@?$vector@PAVCPS_Instance@@V?$xalloc@PAVCPS_Instance@@@@@stlp_std@@QAEAAPAVCPS_Instance@@XZ PROC ; stlp_std::vector<CPS_Instance *,xalloc<CPS_Instance *> >::back, COMDAT
; _this$ = eax

; 100  :   reference back()              { return cast_traits::to_value_type_ref(_M_impl.back()); }

	mov	eax, DWORD PTR [eax+4]
	sub	eax, 4
	ret	0
?back@?$vector@PAVCPS_Instance@@V?$xalloc@PAVCPS_Instance@@@@@stlp_std@@QAEAAPAVCPS_Instance@@XZ ENDP ; stlp_std::vector<CPS_Instance *,xalloc<CPS_Instance *> >::back
; Function compile flags: /Ogtpy
; File d:\clearsky\sources\engine\xrengine\pure.h
_TEXT	ENDS
;	COMDAT ?Remove@?$CRegistrator@VpureAppEnd@@@@QAEXPAVpureAppEnd@@@Z
_TEXT	SEGMENT
?Remove@?$CRegistrator@VpureAppEnd@@@@QAEXPAVpureAppEnd@@@Z PROC ; CRegistrator<pureAppEnd>::Remove, COMDAT
; _this$ = eax
; _obj$ = ebx

; 73   : 	{

	push	esi
	mov	esi, eax
	push	edi

; 74   : 		for (u32 i=0; i<R.size(); i++) {

	mov	ecx, esi
	xor	edi, edi
	call	?size@?$xr_vector@U_REG_INFO@@V?$xalloc@U_REG_INFO@@@@@@QBEIXZ ; xr_vector<_REG_INFO,xalloc<_REG_INFO> >::size
	test	eax, eax
	jbe	SHORT $LN4@Remove@2
$LL6@Remove@2:

; 75   : 			if (R[i].Object==obj) R[i].Prio = REG_PRIORITY_INVALID;

	push	edi
	mov	ecx, esi
	call	??A?$xr_vector@U_REG_INFO@@V?$xalloc@U_REG_INFO@@@@@@QAEAAU_REG_INFO@@I@Z ; xr_vector<_REG_INFO,xalloc<_REG_INFO> >::operator[]
	cmp	DWORD PTR [eax], ebx
	jne	SHORT $LN5@Remove@2
	push	edi
	mov	ecx, esi
	call	??A?$xr_vector@U_REG_INFO@@V?$xalloc@U_REG_INFO@@@@@@QAEAAU_REG_INFO@@I@Z ; xr_vector<_REG_INFO,xalloc<_REG_INFO> >::operator[]
	mov	DWORD PTR [eax+4], -1
$LN5@Remove@2:
	mov	ecx, esi
	add	edi, 1
	call	?size@?$xr_vector@U_REG_INFO@@V?$xalloc@U_REG_INFO@@@@@@QBEIXZ ; xr_vector<_REG_INFO,xalloc<_REG_INFO> >::size
	cmp	edi, eax
	jb	SHORT $LL6@Remove@2
$LN4@Remove@2:

; 76   : 		}
; 77   : 		if(in_process)		changed=true;

	mov	eax, DWORD PTR [esi+12]
	test	al, 1
	je	SHORT $LN2@Remove@2
	or	eax, 2
	pop	edi
	mov	DWORD PTR [esi+12], eax
	pop	esi

; 79   : 	};

	ret	0
$LN2@Remove@2:

; 78   : 		else Resort			( );

	call	?Resort@?$CRegistrator@VpureAppEnd@@@@QAEXXZ ; CRegistrator<pureAppEnd>::Resort
	pop	edi
	pop	esi

; 79   : 	};

	ret	0
?Remove@?$CRegistrator@VpureAppEnd@@@@QAEXPAVpureAppEnd@@@Z ENDP ; CRegistrator<pureAppEnd>::Remove
; Function compile flags: /Ogtpy
_TEXT	ENDS
;	COMDAT ?Remove@?$CRegistrator@VpureAppStart@@@@QAEXPAVpureAppStart@@@Z
_TEXT	SEGMENT
?Remove@?$CRegistrator@VpureAppStart@@@@QAEXPAVpureAppStart@@@Z PROC ; CRegistrator<pureAppStart>::Remove, COMDAT
; _this$ = eax
; _obj$ = ebx

; 73   : 	{

	push	esi
	mov	esi, eax
	push	edi

; 74   : 		for (u32 i=0; i<R.size(); i++) {

	mov	ecx, esi
	xor	edi, edi
	call	?size@?$xr_vector@U_REG_INFO@@V?$xalloc@U_REG_INFO@@@@@@QBEIXZ ; xr_vector<_REG_INFO,xalloc<_REG_INFO> >::size
	test	eax, eax
	jbe	SHORT $LN4@Remove@3
$LL6@Remove@3:

; 75   : 			if (R[i].Object==obj) R[i].Prio = REG_PRIORITY_INVALID;

	push	edi
	mov	ecx, esi
	call	??A?$xr_vector@U_REG_INFO@@V?$xalloc@U_REG_INFO@@@@@@QAEAAU_REG_INFO@@I@Z ; xr_vector<_REG_INFO,xalloc<_REG_INFO> >::operator[]
	cmp	DWORD PTR [eax], ebx
	jne	SHORT $LN5@Remove@3
	push	edi
	mov	ecx, esi
	call	??A?$xr_vector@U_REG_INFO@@V?$xalloc@U_REG_INFO@@@@@@QAEAAU_REG_INFO@@I@Z ; xr_vector<_REG_INFO,xalloc<_REG_INFO> >::operator[]
	mov	DWORD PTR [eax+4], -1
$LN5@Remove@3:
	mov	ecx, esi
	add	edi, 1
	call	?size@?$xr_vector@U_REG_INFO@@V?$xalloc@U_REG_INFO@@@@@@QBEIXZ ; xr_vector<_REG_INFO,xalloc<_REG_INFO> >::size
	cmp	edi, eax
	jb	SHORT $LL6@Remove@3
$LN4@Remove@3:

; 76   : 		}
; 77   : 		if(in_process)		changed=true;

	mov	eax, DWORD PTR [esi+12]
	test	al, 1
	je	SHORT $LN2@Remove@3
	or	eax, 2
	pop	edi
	mov	DWORD PTR [esi+12], eax
	pop	esi

; 79   : 	};

	ret	0
$LN2@Remove@3:

; 78   : 		else Resort			( );

	call	?Resort@?$CRegistrator@VpureAppStart@@@@QAEXXZ ; CRegistrator<pureAppStart>::Resort
	pop	edi
	pop	esi

; 79   : 	};

	ret	0
?Remove@?$CRegistrator@VpureAppStart@@@@QAEXPAVpureAppStart@@@Z ENDP ; CRegistrator<pureAppStart>::Remove
; Function compile flags: /Ogtpy
; File d:\clearsky\sources\engine\xrengine\igame_persistent.h
_TEXT	ENDS
;	COMDAT ?parse_cmd_line@params@IGame_Persistent@@QAEXPBD@Z
_TEXT	SEGMENT
_cmd_line$ = 8						; size = 4
?parse_cmd_line@params@IGame_Persistent@@QAEXPBD@Z PROC	; IGame_Persistent::params::parse_cmd_line, COMDAT
; _this$ = eax

; 42   : 		{

	push	ebx
	push	esi
	mov	ebx, eax
	push	edi

; 43   : 			reset					();

	mov	esi, ebx
	mov	edi, 4
	npad	4
$LL8@parse_cmd_:
	push	OFFSET ??_C@_00CNPNBAHC@?$AA@
	push	esi
	call	??$xr_strcpy@$0BAA@@@YAHAAY0BAA@DPBD@Z	; xr_strcpy<256>
	add	esp, 8
	add	esi, 256				; 00000100H
	sub	edi, 1
	jne	SHORT $LL8@parse_cmd_

; 44   : 			int						n = _min(4,_GetItemCount(cmd_line,'/'));

	mov	eax, DWORD PTR _cmd_line$[esp+8]
	push	47					; 0000002fH
	push	eax
	call	DWORD PTR __imp_?_GetItemCount@@YAHPBDD@Z
	mov	ecx, 4
	sub	ecx, eax
	mov	edi, ecx
	sar	edi, 31					; 0000001fH
	and	edi, ecx
	add	edi, eax
	add	esp, 8

; 45   : 			for (int i=0; i<n; ++i) {

	xor	esi, esi
	test	edi, edi
	jle	SHORT $LN1@parse_cmd_
	push	ebp
	mov	ebp, DWORD PTR __imp__strlwr
	npad	10
$LL3@parse_cmd_:

; 46   : 				_GetItem			(cmd_line,i,m_params[i],'/');

	mov	ecx, DWORD PTR _cmd_line$[esp+12]
	push	1
	push	OFFSET ??_C@_00CNPNBAHC@?$AA@
	push	47					; 0000002fH
	push	256					; 00000100H
	push	ebx
	push	esi
	push	ecx
	call	DWORD PTR __imp_?_GetItem@@YAPADPBDHPADID0_N@Z

; 47   : 				strlwr				(m_params[i]);

	push	ebx
	call	ebp
	add	esi, 1
	add	esp, 32					; 00000020H
	add	ebx, 256				; 00000100H
	cmp	esi, edi
	jl	SHORT $LL3@parse_cmd_
	pop	ebp
$LN1@parse_cmd_:
	pop	edi
	pop	esi
	pop	ebx

; 48   : 			}
; 49   : 		}

	ret	4
?parse_cmd_line@params@IGame_Persistent@@QAEXPBD@Z ENDP	; IGame_Persistent::params::parse_cmd_line
; Function compile flags: /Ogtpy
; File d:\clearsky\sources\sdk\include\stlport\stl\_vector.h
;	COMDAT ?clear@?$_Impl_vector@PAXV?$xalloc@PAX@@@priv@stlp_std@@QAEXXZ
_TEXT	SEGMENT
?clear@?$_Impl_vector@PAXV?$xalloc@PAX@@@priv@stlp_std@@QAEXXZ PROC ; stlp_std::priv::_Impl_vector<void *,xalloc<void *> >::clear, COMDAT
; _this$ = edi

; 611  :     erase(begin(), end());

	mov	ecx, DWORD PTR [edi+4]
	mov	eax, DWORD PTR [edi]
	cmp	eax, ecx
	je	SHORT $LN10@clear@35
	push	esi
	mov	esi, ecx
	sub	esi, ecx
	je	SHORT $LN16@clear@35
	push	esi
	push	ecx
	push	eax
	call	DWORD PTR __imp__memmove
	add	esp, 12					; 0000000cH
	add	eax, esi
$LN16@clear@35:
	mov	DWORD PTR [edi+4], eax
	pop	esi
$LN10@clear@35:

; 612  :   }

	ret	0
?clear@?$_Impl_vector@PAXV?$xalloc@PAX@@@priv@stlp_std@@QAEXXZ ENDP ; stlp_std::priv::_Impl_vector<void *,xalloc<void *> >::clear
; Function compile flags: /Ogtpy
; File d:\clearsky\sources\sdk\include\stlport\stl\pointers\_vector.h
_TEXT	ENDS
;	COMDAT ?clear@?$vector@PAVCPS_Instance@@V?$xalloc@PAVCPS_Instance@@@@@stlp_std@@QAEXXZ
_TEXT	SEGMENT
?clear@?$vector@PAVCPS_Instance@@V?$xalloc@PAVCPS_Instance@@@@@stlp_std@@QAEXXZ PROC ; stlp_std::vector<CPS_Instance *,xalloc<CPS_Instance *> >::clear, COMDAT
; _this$ = edi

; 223  :   void clear() { _M_impl.clear(); }

	mov	ecx, DWORD PTR [edi+4]
	mov	eax, DWORD PTR [edi]
	cmp	eax, ecx
	je	SHORT $LN12@clear@36
	push	esi
	mov	esi, ecx
	sub	esi, ecx
	je	SHORT $LN18@clear@36
	push	esi
	push	ecx
	push	eax
	call	DWORD PTR __imp__memmove
	add	esp, 12					; 0000000cH
	add	eax, esi
$LN18@clear@36:
	mov	DWORD PTR [edi+4], eax
	pop	esi
$LN12@clear@36:
	ret	0
?clear@?$vector@PAVCPS_Instance@@V?$xalloc@PAVCPS_Instance@@@@@stlp_std@@QAEXXZ ENDP ; stlp_std::vector<CPS_Instance *,xalloc<CPS_Instance *> >::clear
; Function compile flags: /Ogtpy
; File d:\clearsky\sources\engine\xrcore\_stl_extensions.h
_TEXT	ENDS
;	COMDAT ?clear_and_free@?$xr_vector@PAVCPS_Instance@@V?$xalloc@PAVCPS_Instance@@@@@@QAEXXZ
_TEXT	SEGMENT
?clear_and_free@?$xr_vector@PAVCPS_Instance@@V?$xalloc@PAVCPS_Instance@@@@@@QAEXXZ PROC ; xr_vector<CPS_Instance *,xalloc<CPS_Instance *> >::clear_and_free, COMDAT
; _this$ = edi

; 128  : 	void	clear_and_free		()									{ inherited::clear();			}

	mov	ecx, DWORD PTR [edi+4]
	mov	eax, DWORD PTR [edi]
	cmp	eax, ecx
	je	SHORT $LN14@clear_and_@10
	push	esi
	mov	esi, ecx
	sub	esi, ecx
	je	SHORT $LN20@clear_and_@10
	push	esi
	push	ecx
	push	eax
	call	DWORD PTR __imp__memmove
	add	esp, 12					; 0000000cH
	add	eax, esi
$LN20@clear_and_@10:
	mov	DWORD PTR [edi+4], eax
	pop	esi
$LN14@clear_and_@10:
	ret	0
?clear_and_free@?$xr_vector@PAVCPS_Instance@@V?$xalloc@PAVCPS_Instance@@@@@@QAEXXZ ENDP ; xr_vector<CPS_Instance *,xalloc<CPS_Instance *> >::clear_and_free
; Function compile flags: /Ogtpy
_TEXT	ENDS
;	COMDAT ?clear@?$xr_vector@PAVCPS_Instance@@V?$xalloc@PAVCPS_Instance@@@@@@QAEXXZ
_TEXT	SEGMENT
?clear@?$xr_vector@PAVCPS_Instance@@V?$xalloc@PAVCPS_Instance@@@@@@QAEXXZ PROC ; xr_vector<CPS_Instance *,xalloc<CPS_Instance *> >::clear, COMDAT
; _this$ = edi

; 133  : 	void	clear				()									{ clear_and_free	();			}

	mov	ecx, DWORD PTR [edi+4]
	mov	eax, DWORD PTR [edi]
	cmp	eax, ecx
	je	SHORT $LN16@clear@37
	push	esi
	mov	esi, ecx
	sub	esi, ecx
	je	SHORT $LN22@clear@37
	push	esi
	push	ecx
	push	eax
	call	DWORD PTR __imp__memmove
	add	esp, 12					; 0000000cH
	add	eax, esi
$LN22@clear@37:
	mov	DWORD PTR [edi+4], eax
	pop	esi
$LN16@clear@37:
	ret	0
?clear@?$xr_vector@PAVCPS_Instance@@V?$xalloc@PAVCPS_Instance@@@@@@QAEXXZ ENDP ; xr_vector<CPS_Instance *,xalloc<CPS_Instance *> >::clear
; Function compile flags: /Ogtpy
_TEXT	ENDS
;	COMDAT ??0?$xr_vector@PAVCPS_Instance@@V?$xalloc@PAVCPS_Instance@@@@@@QAE@XZ
_TEXT	SEGMENT
??0?$xr_vector@PAVCPS_Instance@@V?$xalloc@PAVCPS_Instance@@@@@@QAE@XZ PROC ; xr_vector<CPS_Instance *,xalloc<CPS_Instance *> >::xr_vector<CPS_Instance *,xalloc<CPS_Instance *> >, COMDAT
; _this$ = eax

; 123  : 			xr_vector			()									: inherited	()					{}

	xor	ecx, ecx
	mov	DWORD PTR [eax], ecx
	mov	DWORD PTR [eax+4], ecx
	mov	DWORD PTR [eax+8], ecx
	ret	0
??0?$xr_vector@PAVCPS_Instance@@V?$xalloc@PAVCPS_Instance@@@@@@QAE@XZ ENDP ; xr_vector<CPS_Instance *,xalloc<CPS_Instance *> >::xr_vector<CPS_Instance *,xalloc<CPS_Instance *> >
_TEXT	ENDS
PUBLIC	?destroy_particles@IGame_Persistent@@QAEXAB_N@Z	; IGame_Persistent::destroy_particles
; Function compile flags: /Ogtpy
; File d:\clearsky\sources\engine\xrengine\igame_persistent.cpp
;	COMDAT ?destroy_particles@IGame_Persistent@@QAEXAB_N@Z
_TEXT	SEGMENT
_all_particles$ = 8					; size = 4
?destroy_particles@IGame_Persistent@@QAEXAB_N@Z PROC	; IGame_Persistent::destroy_particles, COMDAT
; _this$ = ecx

; 203  : {

	push	ebp
	mov	ebp, esp
	push	ebx
	push	esi
	mov	esi, ecx

; 204  : #ifndef _EDITOR
; 205  : 	ps_needtoplay.clear				();

	mov	ecx, DWORD PTR [esi+1104]
	mov	eax, DWORD PTR [esi+1100]
	cmp	eax, ecx
	push	edi
	je	SHORT $LN160@destroy_pa
	mov	edi, ecx
	sub	edi, ecx
	je	SHORT $LN42@destroy_pa
	push	edi
	push	ecx
	push	eax
	call	DWORD PTR __imp__memmove
	add	esp, 12					; 0000000cH
	add	eax, edi
$LN42@destroy_pa:
	mov	DWORD PTR [esi+1104], eax
$LN160@destroy_pa:

; 206  : 
; 207  : 	while (ps_destroy.size())

	mov	eax, DWORD PTR [esi+1092]
	sub	eax, DWORD PTR [esi+1088]
	mov	ebx, -4					; fffffffcH
	test	eax, ebx
	je	SHORT $LN17@destroy_pa
	npad	9
$LL18@destroy_pa:

; 208  : 	{
; 209  : 		CPS_Instance*	psi		= ps_destroy.back	();		

	mov	eax, DWORD PTR [esi+1092]
	mov	edi, DWORD PTR [eax-4]

; 210  : 		VERIFY					(psi);
; 211  : 		VERIFY					(!psi->Locked());
; 212  : 		ps_destroy.pop_back		();

	add	DWORD PTR [esi+1092], ebx
	mov	eax, DWORD PTR [esi+1092]
	push	eax
	call	??$_Destroy@PAX@stlp_std@@YAXPAPAX@Z	; stlp_std::_Destroy<void *>

; 213  : 		psi->PSI_internal_delete();

	mov	edx, DWORD PTR [edi]
	mov	eax, DWORD PTR [edx+36]
	add	esp, 4
	mov	ecx, edi
	call	eax
	mov	ecx, DWORD PTR [esi+1092]
	sub	ecx, DWORD PTR [esi+1088]
	test	ecx, ebx
	jne	SHORT $LL18@destroy_pa
$LN17@destroy_pa:

; 214  : 	}
; 215  : 
; 216  : 	// delete active particles
; 217  : 	if (all_particles) {

	mov	edx, DWORD PTR _all_particles$[ebp]
	cmp	BYTE PTR [edx], 0
	je	SHORT $LN10@destroy_pa

; 218  : 		for (;!ps_active.empty();)

	cmp	DWORD PTR [esi+1080], 0
	je	$LN3@destroy_pa
	lea	edi, DWORD PTR [esi+1064]
$LL9@destroy_pa:

; 219  : 			(*ps_active.begin())->PSI_internal_delete	();

	mov	ecx, edi
	call	?_M_leftmost@?$_Rb_tree@PAXU?$_BinaryPredWrapper@PAXPAVCPS_Instance@@U?$less@PAVCPS_Instance@@@stlp_std@@@priv@stlp_std@@PAXU?$_Identity@PAX@23@U?$_SetTraitsT@PAX@23@V?$xalloc@PAX@@@priv@stlp_std@@IAEAAPAU_Rb_tree_node_base@23@XZ ; stlp_std::priv::_Rb_tree<void *,stlp_std::priv::_BinaryPredWrapper<void *,CPS_Instance *,stlp_std::less<CPS_Instance *> >,void *,stlp_std::priv::_Identity<void *>,stlp_std::priv::_SetTraitsT<void *>,xalloc<void *> >::_M_leftmost
	mov	eax, DWORD PTR [eax]
	mov	ecx, DWORD PTR [eax+16]
	mov	eax, DWORD PTR [ecx]
	mov	edx, DWORD PTR [eax+36]
	call	edx
	cmp	DWORD PTR [esi+1080], 0
	jne	SHORT $LL9@destroy_pa

; 236  : 	}
; 237  : 
; 238  : 	VERIFY								(ps_needtoplay.empty() && ps_destroy.empty() && (!all_particles || ps_active.empty()));
; 239  : #endif
; 240  : }

	lea	esp, DWORD PTR [ebp-12]
	pop	edi
	pop	esi
	pop	ebx
	pop	ebp
	ret	4
$LN10@destroy_pa:

; 220  : 	}
; 221  : 	else {
; 222  : 		u32								active_size = ps_active.size();

	mov	eax, DWORD PTR [esi+1080]

; 223  : 		CPS_Instance					**I = (CPS_Instance**)_alloca(active_size*sizeof(CPS_Instance*));

	lea	ebx, DWORD PTR [eax*4]
	mov	eax, ebx
	call	__alloca_probe_16

; 224  : 		std::copy						(ps_active.begin(),ps_active.end(),I);

	add	esi, 1064				; 00000428H
	mov	ecx, esi
	mov	edi, esp
	call	?_M_leftmost@?$_Rb_tree@PAXU?$_BinaryPredWrapper@PAXPAVCPS_Instance@@U?$less@PAVCPS_Instance@@@stlp_std@@@priv@stlp_std@@PAXU?$_Identity@PAX@23@U?$_SetTraitsT@PAX@23@V?$xalloc@PAX@@@priv@stlp_std@@IAEAAPAU_Rb_tree_node_base@23@XZ ; stlp_std::priv::_Rb_tree<void *,stlp_std::priv::_BinaryPredWrapper<void *,CPS_Instance *,stlp_std::less<CPS_Instance *> >,void *,stlp_std::priv::_Identity<void *>,stlp_std::priv::_SetTraitsT<void *>,xalloc<void *> >::_M_leftmost
	mov	eax, DWORD PTR [eax]
	push	ecx
	mov	ecx, esp
	mov	DWORD PTR [ecx], esi
	push	ecx
	mov	ecx, esp
	mov	DWORD PTR [ecx], eax
	mov	eax, edi
	call	??$__copy@U?$_Rb_tree_iterator@PAVCPS_Instance@@U?$_SetTraitsT@PAVCPS_Instance@@@priv@stlp_std@@@priv@stlp_std@@PAPAVCPS_Instance@@H@priv@stlp_std@@YAPAPAVCPS_Instance@@U?$_Rb_tree_iterator@PAVCPS_Instance@@U?$_SetTraitsT@PAVCPS_Instance@@@priv@stlp_std@@@01@0PAPAV2@ABUinput_iterator_tag@1@PAH@Z ; stlp_std::priv::__copy<stlp_std::priv::_Rb_tree_iterator<CPS_Instance *,stlp_std::priv::_SetTraitsT<CPS_Instance *> >,CPS_Instance * *,int>
	add	esp, 8

; 225  : 
; 226  : 		struct destroy_on_game_load {
; 227  : 			static IC bool predicate (CPS_Instance*const& object)
; 228  : 			{
; 229  : 				return					(!object->destroy_on_game_load());
; 230  : 			}
; 231  : 		};
; 232  : 
; 233  : 		CPS_Instance					**E = std::remove_if(I,I + active_size,&destroy_on_game_load::predicate);

	add	ebx, edi
	mov	eax, edi
	call	??$remove_if@PAPAVCPS_Instance@@P6A_NABQAV1@@Z@stlp_std@@YAPAPAVCPS_Instance@@PAPAV1@0P6A_NABQAV1@@Z@Z ; stlp_std::remove_if<CPS_Instance * *,bool (__cdecl*)(CPS_Instance * const &)>
	mov	esi, eax

; 234  : 		for ( ; I != E; ++I)

	cmp	edi, esi
	je	SHORT $LN3@destroy_pa
$LL6@destroy_pa:

; 235  : 			(*I)->PSI_internal_delete	();

	mov	ecx, DWORD PTR [edi]
	mov	eax, DWORD PTR [ecx]
	mov	edx, DWORD PTR [eax+36]
	call	edx
	add	edi, 4
	cmp	edi, esi
	jne	SHORT $LL6@destroy_pa
$LN3@destroy_pa:

; 236  : 	}
; 237  : 
; 238  : 	VERIFY								(ps_needtoplay.empty() && ps_destroy.empty() && (!all_particles || ps_active.empty()));
; 239  : #endif
; 240  : }

	lea	esp, DWORD PTR [ebp-12]
	pop	edi
	pop	esi
	pop	ebx
	pop	ebp
	ret	4
?destroy_particles@IGame_Persistent@@QAEXAB_N@Z ENDP	; IGame_Persistent::destroy_particles
; Function compile flags: /Ogtpy
_TEXT	ENDS
;	COMDAT ?Disconnect@IGame_Persistent@@UAEXXZ
_TEXT	SEGMENT
$T395757 = -1						; size = 1
?Disconnect@IGame_Persistent@@UAEXXZ PROC		; IGame_Persistent::Disconnect, COMDAT
; _this$ = ecx

; 121  : {

	push	ecx

; 122  : #ifndef _EDITOR
; 123  : 	// clear "need to play" particles
; 124  : 	destroy_particles					(true);

	lea	eax, DWORD PTR $T395757[esp+4]
	push	eax
	mov	BYTE PTR $T395757[esp+8], 1
	call	?destroy_particles@IGame_Persistent@@QAEXAB_N@Z ; IGame_Persistent::destroy_particles

; 125  : 
; 126  : 	if(g_hud)

	mov	eax, DWORD PTR ?g_hud@@3PAVCCustomHUD@@A ; g_hud
	test	eax, eax
	je	SHORT $LN1@Disconnect

; 127  : 			DEL_INSTANCE			(g_hud);

	push	eax
	call	DWORD PTR ?Engine@@3VCEngine@@A+20
	add	esp, 4
	mov	DWORD PTR ?g_hud@@3PAVCCustomHUD@@A, 0	; g_hud
$LN1@Disconnect:

; 128  : //.		g_hud->OnDisconnected			();
; 129  : #endif
; 130  : }

	pop	ecx
	ret	0
?Disconnect@IGame_Persistent@@UAEXXZ ENDP		; IGame_Persistent::Disconnect
; Function compile flags: /Ogtpy
_TEXT	ENDS
;	COMDAT ?Start@IGame_Persistent@@UAEXPBD@Z
_TEXT	SEGMENT
_prev_type$ = -256					; size = 256
_op$ = 8						; size = 4
?Start@IGame_Persistent@@UAEXPBD@Z PROC			; IGame_Persistent::Start, COMDAT
; _this$ = ecx

; 101  : {

	sub	esp, 256				; 00000100H
	push	esi
	push	edi
	mov	esi, ecx

; 102  : 	string256						prev_type;
; 103  : 	xr_strcpy							(prev_type,m_game_params.m_game_type);

	lea	edi, DWORD PTR [esi+292]
	lea	eax, DWORD PTR _prev_type$[esp+264]
	push	edi
	push	eax
	call	??$xr_strcpy@$0BAA@@@YAHAAY0BAA@DPBD@Z	; xr_strcpy<256>

; 104  : 	m_game_params.parse_cmd_line	(op);

	mov	ecx, DWORD PTR _op$[esp+268]
	add	esp, 8
	push	ecx
	lea	eax, DWORD PTR [esi+36]
	call	?parse_cmd_line@params@IGame_Persistent@@QAEXPBD@Z ; IGame_Persistent::params::parse_cmd_line

; 105  : 	// change game type
; 106  : 	if ((0!=xr_strcmp(prev_type,m_game_params.m_game_type))) 

	mov	ecx, edi
	lea	eax, DWORD PTR _prev_type$[esp+264]
$LL16@Start:
	mov	dl, BYTE PTR [eax]
	cmp	dl, BYTE PTR [ecx]
	jne	SHORT $LN17@Start
	test	dl, dl
	je	SHORT $LN18@Start
	mov	dl, BYTE PTR [eax+1]
	cmp	dl, BYTE PTR [ecx+1]
	jne	SHORT $LN17@Start
	add	eax, 2
	add	ecx, 2
	test	dl, dl
	jne	SHORT $LL16@Start
$LN18@Start:
	xor	eax, eax
	jmp	SHORT $LN19@Start
$LN17@Start:
	sbb	eax, eax
	sbb	eax, -1
$LN19@Start:
	test	eax, eax
	je	SHORT $LN7@Start

; 107  : 	{
; 108  : 		if (*m_game_params.m_game_type)

	cmp	BYTE PTR [edi], 0
	je	SHORT $LN6@Start

; 109  : 			OnGameStart					();

	mov	edx, DWORD PTR [esi]
	mov	eax, DWORD PTR [edx+32]
	mov	ecx, esi
	call	eax
$LN6@Start:

; 110  : #ifndef _EDITOR
; 111  : 		if(g_hud)

	mov	eax, DWORD PTR ?g_hud@@3PAVCCustomHUD@@A ; g_hud
	test	eax, eax
	je	SHORT $LN3@Start

; 112  : 			DEL_INSTANCE			(g_hud);

	push	eax
	call	DWORD PTR ?Engine@@3VCEngine@@A+20
	add	esp, 4
	pop	edi
	mov	DWORD PTR ?g_hud@@3PAVCCustomHUD@@A, 0	; g_hud
	pop	esi

; 116  : 
; 117  : 	VERIFY							(ps_destroy.empty());
; 118  : }

	add	esp, 256				; 00000100H
	ret	4
$LN7@Start:

; 113  : #endif            
; 114  : 	}
; 115  : 	else UpdateGameType();

	mov	edx, DWORD PTR [esi]
	mov	eax, DWORD PTR [edx+40]
	mov	ecx, esi
	call	eax
$LN3@Start:
	pop	edi
	pop	esi

; 116  : 
; 117  : 	VERIFY							(ps_destroy.empty());
; 118  : }

	add	esp, 256				; 00000100H
	ret	4
?Start@IGame_Persistent@@UAEXPBD@Z ENDP			; IGame_Persistent::Start
; Function compile flags: /Ogtpy
_TEXT	ENDS
;	COMDAT ?PreStart@IGame_Persistent@@UAEXPBD@Z
_TEXT	SEGMENT
_prev_type$ = -1284					; size = 256
_new_game_params$ = -1028				; size = 1028
_op$ = 8						; size = 4
?PreStart@IGame_Persistent@@UAEXPBD@Z PROC		; IGame_Persistent::PreStart, COMDAT
; _this$ = ecx

; 89   : {

	sub	esp, 1284				; 00000504H
	push	ebx
	push	esi
	push	edi
	mov	ebx, ecx

; 90   : 	string256						prev_type;
; 91   : 	params							new_game_params;

	lea	esi, DWORD PTR _new_game_params$[esp+1296]
	mov	edi, 4
	npad	9
$LL8@PreStart:
	push	OFFSET ??_C@_00CNPNBAHC@?$AA@
	push	esi
	call	??$xr_strcpy@$0BAA@@@YAHAAY0BAA@DPBD@Z	; xr_strcpy<256>
	add	esp, 8
	add	esi, 256				; 00000100H
	sub	edi, 1
	jne	SHORT $LL8@PreStart

; 92   : 	xr_strcpy							(prev_type,m_game_params.m_game_type);

	lea	eax, DWORD PTR [ebx+292]
	push	eax
	lea	ecx, DWORD PTR _prev_type$[esp+1300]
	push	ecx
	call	??$xr_strcpy@$0BAA@@@YAHAAY0BAA@DPBD@Z	; xr_strcpy<256>

; 93   : 	new_game_params.parse_cmd_line	(op);

	mov	edx, DWORD PTR _op$[esp+1300]
	add	esp, 8
	push	edx
	lea	eax, DWORD PTR _new_game_params$[esp+1300]
	call	?parse_cmd_line@params@IGame_Persistent@@QAEXPBD@Z ; IGame_Persistent::params::parse_cmd_line

; 94   : 
; 95   : 	// change game type
; 96   : 	if (0!=xr_strcmp(prev_type,new_game_params.m_game_type)){

	lea	ecx, DWORD PTR _new_game_params$[esp+1552]
	lea	eax, DWORD PTR _prev_type$[esp+1296]
	npad	4
$LL23@PreStart:
	mov	dl, BYTE PTR [eax]
	cmp	dl, BYTE PTR [ecx]
	jne	SHORT $LN24@PreStart
	test	dl, dl
	je	SHORT $LN25@PreStart
	mov	dl, BYTE PTR [eax+1]
	cmp	dl, BYTE PTR [ecx+1]
	jne	SHORT $LN24@PreStart
	add	eax, 2
	add	ecx, 2
	test	dl, dl
	jne	SHORT $LL23@PreStart
$LN25@PreStart:
	xor	eax, eax
	jmp	SHORT $LN26@PreStart
$LN24@PreStart:
	sbb	eax, eax
	sbb	eax, -1
$LN26@PreStart:
	test	eax, eax
	je	SHORT $LN1@PreStart

; 97   : 		OnGameEnd					();

	mov	eax, DWORD PTR [ebx]
	mov	edx, DWORD PTR [eax+36]
	mov	ecx, ebx
	call	edx
$LN1@PreStart:
	pop	edi
	pop	esi
	pop	ebx

; 98   : 	}
; 99   : }

	add	esp, 1284				; 00000504H
	ret	4
?PreStart@IGame_Persistent@@UAEXPBD@Z ENDP		; IGame_Persistent::PreStart
; Function compile flags: /Ogtpy
; File d:\clearsky\sources\engine\xrengine\ps_instance.h
_TEXT	ENDS
;	COMDAT ?shedule_Name@CPS_Instance@@UBE?AVshared_str@@XZ
_TEXT	SEGMENT
___$ReturnUdt$ = 8					; size = 4
?shedule_Name@CPS_Instance@@UBE?AVshared_str@@XZ PROC	; CPS_Instance::shedule_Name, COMDAT
; _this$ = ecx

; 42   : 	virtual	shared_str		shedule_Name		() const		{ return shared_str("particle_instance"); };

	mov	eax, DWORD PTR __imp_?g_pStringContainer@@3PAVstr_container@@A
	mov	ecx, DWORD PTR [eax]
	push	esi
	mov	esi, DWORD PTR ___$ReturnUdt$[esp]
	push	OFFSET ??_C@_0BC@PBHNCFIM@particle_instance?$AA@
	mov	DWORD PTR [esi], 0
	call	DWORD PTR __imp_?dock@str_container@@QAEPAUstr_value@@PBD@Z
	test	eax, eax
	je	SHORT $LN5@shedule_Na
	add	DWORD PTR [eax], 1
$LN5@shedule_Na:
	mov	ecx, DWORD PTR [esi]
	test	ecx, ecx
	je	SHORT $LN13@shedule_Na
	add	DWORD PTR [ecx], -1
	jne	SHORT $LN13@shedule_Na
	mov	DWORD PTR [esi], 0
$LN13@shedule_Na:
	mov	DWORD PTR [esi], eax
	mov	eax, esi
	pop	esi
	ret	4
?shedule_Name@CPS_Instance@@UBE?AVshared_str@@XZ ENDP	; CPS_Instance::shedule_Name
; Function compile flags: /Ogtpy
;	COMDAT ??_GCEnvironment@@QAEPAXI@Z
_TEXT	SEGMENT
??_GCEnvironment@@QAEPAXI@Z PROC			; CEnvironment::`scalar deleting destructor', COMDAT
; _this$ = esi
	mov	ecx, esi
	call	??1CEnvironment@@QAE@XZ			; CEnvironment::~CEnvironment
	mov	eax, esi
	ret	0
??_GCEnvironment@@QAEPAXI@Z ENDP			; CEnvironment::`scalar deleting destructor'
; Function compile flags: /Ogtpy
; File d:\clearsky\sources\engine\xrcore\xrmemory_subst_msvc.h
_TEXT	ENDS
;	COMDAT ??R?$xr_special_free@$0A@VCEnvironment@@@@QAEXAAPAVCEnvironment@@@Z
_TEXT	SEGMENT
??R?$xr_special_free@$0A@VCEnvironment@@@@QAEXAAPAVCEnvironment@@@Z PROC ; xr_special_free<0,CEnvironment>::operator(), COMDAT
; _ptr$ = esi

; 143  : 		ptr->~T			();

	mov	ecx, DWORD PTR [esi]
	call	??1CEnvironment@@QAE@XZ			; CEnvironment::~CEnvironment

; 144  : 		Memory.mem_free	(ptr);

	mov	eax, DWORD PTR [esi]
	mov	ecx, DWORD PTR __imp_?Memory@@3VxrMemory@@A
	push	eax
	call	DWORD PTR __imp_?mem_free@xrMemory@@QAEXPAX@Z

; 145  : 	}

	ret	0
??R?$xr_special_free@$0A@VCEnvironment@@@@QAEXAAPAVCEnvironment@@@Z ENDP ; xr_special_free<0,CEnvironment>::operator()
; Function compile flags: /Ogtpy
_TEXT	ENDS
;	COMDAT ??$xr_delete@VCEnvironment@@@@YAXAAPAVCEnvironment@@@Z
_TEXT	SEGMENT
??$xr_delete@VCEnvironment@@@@YAXAAPAVCEnvironment@@@Z PROC ; xr_delete<CEnvironment>, COMDAT
; _ptr$ = esi

; 151  : 	if (ptr) 

	mov	ecx, DWORD PTR [esi]
	test	ecx, ecx
	je	SHORT $LN1@xr_delete@43

; 152  : 	{
; 153  : 		xr_special_free<is_polymorphic<T>::result,T>()(ptr);

	call	??1CEnvironment@@QAE@XZ			; CEnvironment::~CEnvironment
	mov	eax, DWORD PTR [esi]
	mov	ecx, DWORD PTR __imp_?Memory@@3VxrMemory@@A
	push	eax
	call	DWORD PTR __imp_?mem_free@xrMemory@@QAEXPAX@Z

; 154  : 		ptr = NULL;

	mov	DWORD PTR [esi], 0
$LN1@xr_delete@43:

; 155  : 	}
; 156  : }

	ret	0
??$xr_delete@VCEnvironment@@@@YAXAAPAVCEnvironment@@@Z ENDP ; xr_delete<CEnvironment>
; Function compile flags: /Ogtpy
; File d:\clearsky\sources\engine\xrengine\pure.h
_TEXT	ENDS
;	COMDAT ?Add@?$CRegistrator@VpureAppEnd@@@@QAEXPAVpureAppEnd@@HI@Z
_TEXT	SEGMENT
_I$ = -12						; size = 12
?Add@?$CRegistrator@VpureAppEnd@@@@QAEXPAVpureAppEnd@@HI@Z PROC ; CRegistrator<pureAppEnd>::Add, COMDAT
; _this$ = ecx
; _obj$ = eax

; 57   : 	{

	sub	esp, 12					; 0000000cH
	push	esi
	mov	esi, ecx

; 58   : #ifdef DEBUG
; 59   : 		VERIFY	(priority!=REG_PRIORITY_INVALID);
; 60   : 		VERIFY	(obj);
; 61   : 		for		(u32 i=0; i<R.size(); i++) VERIFY( !((R[i].Prio!=REG_PRIORITY_INVALID)&&(R[i].Object==(void*)obj))   );
; 62   : #endif
; 63   : 		_REG_INFO			I;
; 64   : 		I.Object			=obj;
; 65   : 		I.Prio				=priority;
; 66   : 		I.Flags				=flags;
; 67   : 		R.push_back			(I);

	lea	ecx, DWORD PTR _I$[esp+16]
	push	ecx
	mov	ecx, esi
	mov	DWORD PTR _I$[esp+20], eax
	mov	DWORD PTR _I$[esp+24], 572662306	; 22222222H
	mov	DWORD PTR _I$[esp+28], 0
	call	?push_back@?$vector@U_REG_INFO@@V?$xalloc@U_REG_INFO@@@@@stlp_std@@QAEXABU_REG_INFO@@@Z ; stlp_std::vector<_REG_INFO,xalloc<_REG_INFO> >::push_back

; 68   : 		
; 69   : 		if(in_process)		changed=true;

	mov	eax, DWORD PTR [esi+12]
	test	al, 1
	je	SHORT $LN2@Add@3
	or	eax, 2
	mov	DWORD PTR [esi+12], eax
	pop	esi

; 71   : 	};

	add	esp, 12					; 0000000cH
	ret	0
$LN2@Add@3:

; 70   : 		else Resort			( );

	call	?Resort@?$CRegistrator@VpureAppEnd@@@@QAEXXZ ; CRegistrator<pureAppEnd>::Resort
	pop	esi

; 71   : 	};

	add	esp, 12					; 0000000cH
	ret	0
?Add@?$CRegistrator@VpureAppEnd@@@@QAEXPAVpureAppEnd@@HI@Z ENDP ; CRegistrator<pureAppEnd>::Add
; Function compile flags: /Ogtpy
_TEXT	ENDS
;	COMDAT ?Add@?$CRegistrator@VpureAppStart@@@@QAEXPAVpureAppStart@@HI@Z
_TEXT	SEGMENT
_I$ = -12						; size = 12
?Add@?$CRegistrator@VpureAppStart@@@@QAEXPAVpureAppStart@@HI@Z PROC ; CRegistrator<pureAppStart>::Add, COMDAT
; _this$ = ecx
; _obj$ = eax

; 57   : 	{

	sub	esp, 12					; 0000000cH
	push	esi
	mov	esi, ecx

; 58   : #ifdef DEBUG
; 59   : 		VERIFY	(priority!=REG_PRIORITY_INVALID);
; 60   : 		VERIFY	(obj);
; 61   : 		for		(u32 i=0; i<R.size(); i++) VERIFY( !((R[i].Prio!=REG_PRIORITY_INVALID)&&(R[i].Object==(void*)obj))   );
; 62   : #endif
; 63   : 		_REG_INFO			I;
; 64   : 		I.Object			=obj;
; 65   : 		I.Prio				=priority;
; 66   : 		I.Flags				=flags;
; 67   : 		R.push_back			(I);

	lea	ecx, DWORD PTR _I$[esp+16]
	push	ecx
	mov	ecx, esi
	mov	DWORD PTR _I$[esp+20], eax
	mov	DWORD PTR _I$[esp+24], 572662306	; 22222222H
	mov	DWORD PTR _I$[esp+28], 0
	call	?push_back@?$vector@U_REG_INFO@@V?$xalloc@U_REG_INFO@@@@@stlp_std@@QAEXABU_REG_INFO@@@Z ; stlp_std::vector<_REG_INFO,xalloc<_REG_INFO> >::push_back

; 68   : 		
; 69   : 		if(in_process)		changed=true;

	mov	eax, DWORD PTR [esi+12]
	test	al, 1
	je	SHORT $LN2@Add@4
	or	eax, 2
	mov	DWORD PTR [esi+12], eax
	pop	esi

; 71   : 	};

	add	esp, 12					; 0000000cH
	ret	0
$LN2@Add@4:

; 70   : 		else Resort			( );

	call	?Resort@?$CRegistrator@VpureAppStart@@@@QAEXXZ ; CRegistrator<pureAppStart>::Resort
	pop	esi

; 71   : 	};

	add	esp, 12					; 0000000cH
	ret	0
?Add@?$CRegistrator@VpureAppStart@@@@QAEXPAVpureAppStart@@HI@Z ENDP ; CRegistrator<pureAppStart>::Add
; Function compile flags: /Ogtpy
; File d:\clearsky\sources\engine\xrengine\igame_persistent.cpp
_TEXT	ENDS
;	COMDAT ?OnGameEnd@IGame_Persistent@@UAEXXZ
_TEXT	SEGMENT
?OnGameEnd@IGame_Persistent@@UAEXXZ PROC		; IGame_Persistent::OnGameEnd, COMDAT
; _this$ = ecx

; 160  : #ifndef _EDITOR
; 161  : 	ObjectPool.clear					();

	add	ecx, 1112				; 00000458H
	call	?clear@IGame_ObjectPool@@QAEXXZ		; IGame_ObjectPool::clear

; 162  : 	Render->models_Clear				(TRUE);

	mov	eax, DWORD PTR __imp_?Render@@3PAVIRender_interface@@A
	mov	ecx, DWORD PTR [eax]
	mov	edx, DWORD PTR [ecx]
	mov	eax, DWORD PTR [edx+168]
	push	1
	call	eax

; 163  : #endif
; 164  : }

	ret	0
?OnGameEnd@IGame_Persistent@@UAEXXZ ENDP		; IGame_Persistent::OnGameEnd
; Function compile flags: /Ogtpy
_TEXT	ENDS
;	COMDAT ?OnGameStart@IGame_Persistent@@UAEXXZ
_TEXT	SEGMENT
_a$463137 = -4						; size = 4
_p_time$ = -4						; size = 4
?OnGameStart@IGame_Persistent@@UAEXXZ PROC		; IGame_Persistent::OnGameStart, COMDAT
; _this$ = ecx

; 133  : {

	push	ecx

; 134  : #ifndef _EDITOR
; 135  : //	LoadTitle("st_prefetching_objects");
; 136  : 	LoadTitle();

	mov	eax, DWORD PTR __imp_?g_pStringContainer@@3PAVstr_container@@A
	push	ebx
	push	ebp
	push	esi
	push	edi
	push	ecx
	mov	esi, esp
	mov	ebp, ecx
	mov	DWORD PTR [esi], 0
	mov	ecx, DWORD PTR [eax]
	push	OFFSET ??_C@_00CNPNBAHC@?$AA@
	call	DWORD PTR __imp_?dock@str_container@@QAEPAUstr_value@@PBD@Z
	test	eax, eax
	je	SHORT $LN6@OnGameStar
	add	DWORD PTR [eax], 1
$LN6@OnGameStar:
	mov	ecx, DWORD PTR [esi]
	test	ecx, ecx
	je	SHORT $LN9@OnGameStar
	add	DWORD PTR [ecx], -1
	mov	ecx, DWORD PTR [esi]
	cmp	DWORD PTR [ecx], 0
	jne	SHORT $LN9@OnGameStar
	mov	DWORD PTR [esi], 0
$LN9@OnGameStar:
	mov	DWORD PTR [esi], eax
	mov	edx, DWORD PTR [ebp]
	mov	eax, DWORD PTR [edx+72]
	push	0
	mov	ecx, ebp
	call	eax

; 137  : 	if (strstr(Core.Params,"-noprefetch"))	return;

	mov	eax, DWORD PTR __imp_?Core@@3VxrCore@@A
	add	eax, 1232				; 000004d0H
	push	OFFSET ??_C@_0M@GLDFIAFI@?9noprefetch?$AA@
	push	eax
	call	DWORD PTR __imp__strstr
	add	esp, 8
	test	eax, eax
	jne	$LN2@OnGameStar

; 138  : 
; 139  : 	// prefetch game objects & models
; 140  : 	float	p_time		=			1000.f*Device.GetTimerGlobal()->GetElapsed_sec();

	mov	ecx, OFFSET ?Device@@3VCRenderDevice@@A+584
	call	DWORD PTR __imp_?GetElapsed_sec@CTimer@@QBEMXZ
	fmul	DWORD PTR _fuzzy_update_novis

; 141  : 	u32	mem_0			=			Memory.mem_usage()	;

	mov	ecx, DWORD PTR __imp_?Memory@@3VxrMemory@@A
	mov	esi, DWORD PTR __imp_?mem_usage@xrMemory@@QAEIPAI0@Z
	push	0
	fstp	DWORD PTR _p_time$[esp+24]
	push	0
	call	esi

; 142  : 
; 143  : 	Log				("Loading objects...");

	mov	ebx, DWORD PTR __imp_?Log@@YAXPBD@Z
	push	OFFSET ??_C@_0BD@DCNEFOFM@Loading?5objects?4?4?4?$AA@
	mov	edi, eax
	call	ebx
	add	esp, 4

; 144  : 	ObjectPool.prefetch					();

	lea	ecx, DWORD PTR [ebp+1112]
	call	?prefetch@IGame_ObjectPool@@QAEXXZ	; IGame_ObjectPool::prefetch

; 145  : 	Log				("Loading models...");

	push	OFFSET ??_C@_0BC@EKMFCOAB@Loading?5models?4?4?4?$AA@
	call	ebx

; 146  : 	Render->models_Prefetch				();

	mov	ecx, DWORD PTR __imp_?Render@@3PAVIRender_interface@@A
	mov	ecx, DWORD PTR [ecx]
	mov	edx, DWORD PTR [ecx]
	mov	eax, DWORD PTR [edx+164]
	add	esp, 4
	call	eax

; 147  : 	//Device.Resources->DeferredUpload	();
; 148  : 	Device.m_pRender->ResourcesDeferredUpload();

	mov	ecx, DWORD PTR ?Device@@3VCRenderDevice@@A+868
	mov	edx, DWORD PTR [ecx]
	mov	eax, DWORD PTR [edx+68]
	call	eax

; 149  : 
; 150  : 	p_time				=			1000.f*Device.GetTimerGlobal()->GetElapsed_sec() - p_time;

	mov	ecx, OFFSET ?Device@@3VCRenderDevice@@A+584
	call	DWORD PTR __imp_?GetElapsed_sec@CTimer@@QBEMXZ
	fmul	DWORD PTR _fuzzy_update_novis

; 151  : 	u32		p_mem		=			Memory.mem_usage() - mem_0	;

	mov	ecx, DWORD PTR __imp_?Memory@@3VxrMemory@@A
	push	0
	fsub	DWORD PTR _p_time$[esp+24]
	push	0
	fstp	DWORD PTR _p_time$[esp+28]
	call	esi

; 152  : 
; 153  : 	Msg					("* [prefetch] time:    %d ms",	iFloor(p_time));

	fld	DWORD PTR _p_time$[esp+20]
	mov	esi, eax
	sub	esi, edi
	fstp	DWORD PTR _a$463137[esp+20]
	mov	edi, DWORD PTR _a$463137[esp+20]
	mov	edx, edi
	sar	edx, 23					; 00000017H
	and	edx, 255				; 000000ffH
	mov	ecx, 158				; 0000009eH
	sub	ecx, edx
	mov	edx, edi
	or	edx, -8388608				; ff800000H
	shl	edx, 8
	shr	edx, cl
	sub	ecx, 96					; 00000060H
	mov	eax, 1
	shl	eax, cl
	sub	eax, 1
	sar	eax, 8
	and	eax, edi
	neg	eax
	sbb	eax, eax
	sar	edi, 31					; 0000001fH
	add	eax, 1
	and	eax, edi
	add	ecx, 64					; 00000040H
	sub	edx, eax
	sar	ecx, 31					; 0000001fH
	and	edx, ecx
	xor	edx, edi
	mov	edi, DWORD PTR __imp_?Msg@@YAXPBDZZ
	push	edx
	push	OFFSET ??_C@_0BM@BCKNFNIB@?$CK?5?$FLprefetch?$FN?5time?3?5?5?5?5?$CFd?5ms?$AA@
	call	edi

; 154  : 	Msg					("* [prefetch] memory:  %dKb",	p_mem/1024);

	shr	esi, 10					; 0000000aH
	push	esi
	push	OFFSET ??_C@_0BL@BOLEHGBI@?$CK?5?$FLprefetch?$FN?5memory?3?5?5?$CFdKb?$AA@
	call	edi
	add	esp, 16					; 00000010H
$LN2@OnGameStar:

; 155  : #endif
; 156  : }

	pop	edi
	pop	esi
	pop	ebp
	pop	ebx
	pop	ecx
	ret	0
?OnGameStart@IGame_Persistent@@UAEXXZ ENDP		; IGame_Persistent::OnGameStart
_TEXT	ENDS
PUBLIC	??1IGame_Persistent@@UAE@XZ			; IGame_Persistent::~IGame_Persistent
; Function compile flags: /Ogtpy
;	COMDAT ??1IGame_Persistent@@UAE@XZ
_TEXT	SEGMENT
??1IGame_Persistent@@UAE@XZ PROC			; IGame_Persistent::~IGame_Persistent, COMDAT
; _this$ = ecx

; 49   : {

	push	ebx
	push	ebp
	push	esi
	mov	esi, ecx
	push	edi
	lea	eax, DWORD PTR [esi+32]
	lea	ebx, DWORD PTR [esi+16]
	lea	edi, DWORD PTR [esi+20]
	lea	ebp, DWORD PTR [esi+24]

; 50   : 	RDEVICE.seqFrame.Remove			(this);

	push	eax
	mov	ecx, OFFSET ?Device@@3VCRenderDevice@@A+728
	mov	DWORD PTR [esi], OFFSET ??_7IGame_Persistent@@6BDLL_Pure@@@
	mov	DWORD PTR [ebx], OFFSET ??_7IGame_Persistent@@6BpureAppStart@@@
	mov	DWORD PTR [edi], OFFSET ??_7IGame_Persistent@@6BpureAppEnd@@@
	mov	DWORD PTR [ebp], OFFSET ??_7IGame_Persistent@@6BpureAppActivate@@@
	mov	DWORD PTR [esi+28], OFFSET ??_7IGame_Persistent@@6BpureAppDeactivate@@@
	mov	DWORD PTR [eax], OFFSET ??_7IGame_Persistent@@6BpureFrame@@@
	call	?Remove@?$CRegistrator@VpureFrame@@@@QAEXPAVpureFrame@@@Z ; CRegistrator<pureFrame>::Remove

; 51   : 	RDEVICE.seqAppStart.Remove		(this);

	mov	eax, OFFSET ?Device@@3VCRenderDevice@@A+696
	call	?Remove@?$CRegistrator@VpureAppStart@@@@QAEXPAVpureAppStart@@@Z ; CRegistrator<pureAppStart>::Remove

; 52   : 	RDEVICE.seqAppEnd.Remove			(this);

	mov	ebx, edi
	mov	eax, OFFSET ?Device@@3VCRenderDevice@@A+712
	call	?Remove@?$CRegistrator@VpureAppEnd@@@@QAEXPAVpureAppEnd@@@Z ; CRegistrator<pureAppEnd>::Remove

; 53   : 	RDEVICE.seqAppActivate.Remove	(this);

	mov	ebx, ebp
	mov	eax, OFFSET ?Device@@3VCRenderDevice@@A+664
	call	?Remove@?$CRegistrator@VpureAppActivate@@@@QAEXPAVpureAppActivate@@@Z ; CRegistrator<pureAppActivate>::Remove

; 54   : 	RDEVICE.seqAppDeactivate.Remove	(this);

	lea	ebx, DWORD PTR [esi+28]
	mov	eax, OFFSET ?Device@@3VCRenderDevice@@A+680
	call	?Remove@?$CRegistrator@VpureAppDeactivate@@@@QAEXPAVpureAppDeactivate@@@Z ; CRegistrator<pureAppDeactivate>::Remove

; 55   : #ifndef _EDITOR
; 56   : 	xr_delete						(pEnvironment);

	mov	ecx, DWORD PTR [esi+1128]
	test	ecx, ecx
	mov	edi, DWORD PTR __imp_?mem_free@xrMemory@@QAEXPAX@Z
	je	SHORT $LN13@IGame_Pers
	call	??1CEnvironment@@QAE@XZ			; CEnvironment::~CEnvironment
	mov	eax, DWORD PTR [esi+1128]
	mov	ecx, DWORD PTR __imp_?Memory@@3VxrMemory@@A
	push	eax
	call	edi
	mov	DWORD PTR [esi+1128], 0
$LN13@IGame_Pers:

; 57   : #endif
; 58   : }

	lea	ecx, DWORD PTR [esi+1112]
	call	??1IGame_ObjectPool@@UAE@XZ		; IGame_ObjectPool::~IGame_ObjectPool
	mov	eax, DWORD PTR [esi+1100]
	test	eax, eax
	je	SHORT $LN63@IGame_Pers
	mov	ecx, DWORD PTR __imp_?Memory@@3VxrMemory@@A
	push	eax
	call	edi
$LN63@IGame_Pers:
	mov	eax, DWORD PTR [esi+1088]
	test	eax, eax
	je	SHORT $LN103@IGame_Pers
	mov	ecx, DWORD PTR __imp_?Memory@@3VxrMemory@@A
	push	eax
	call	edi
$LN103@IGame_Pers:
	lea	ecx, DWORD PTR [esi+1064]
	call	??1?$_Rb_tree@PAXU?$_BinaryPredWrapper@PAXPAVCPS_Instance@@U?$less@PAVCPS_Instance@@@stlp_std@@@priv@stlp_std@@PAXU?$_Identity@PAX@23@U?$_SetTraitsT@PAX@23@V?$xalloc@PAX@@@priv@stlp_std@@QAE@XZ ; stlp_std::priv::_Rb_tree<void *,stlp_std::priv::_BinaryPredWrapper<void *,CPS_Instance *,stlp_std::less<CPS_Instance *> >,void *,stlp_std::priv::_Identity<void *>,stlp_std::priv::_SetTraitsT<void *>,xalloc<void *> >::~_Rb_tree<void *,stlp_std::priv::_BinaryPredWrapper<void *,CPS_Instance *,stlp_std::less<CPS_Instance *> >,void *,stlp_std::priv::_Identity<void *>,stlp_std::priv::_SetTraitsT<void *>,xalloc<void *> >
	pop	edi
	mov	DWORD PTR [esi], OFFSET ??_7DLL_Pure@@6B@
	pop	esi
	pop	ebp
	pop	ebx
	ret	0
??1IGame_Persistent@@UAE@XZ ENDP			; IGame_Persistent::~IGame_Persistent
; Function compile flags: /Ogtpy
;	COMDAT ?OnAppEnd@IGame_Persistent@@UAEXXZ
_TEXT	SEGMENT
?OnAppEnd@IGame_Persistent@@UAEXXZ PROC			; IGame_Persistent::OnAppEnd, COMDAT
; _this$ = ecx

; 76   : {

	push	esi
	mov	esi, ecx

; 77   : #ifndef _EDITOR
; 78   : 	Environment().unload			 ();

	mov	ecx, DWORD PTR [esi+1108]
	call	?unload@CEnvironment@@QAEXXZ		; CEnvironment::unload

; 79   : #endif    
; 80   : 	OnGameEnd						();

	mov	eax, DWORD PTR [esi-20]
	mov	edx, DWORD PTR [eax+36]
	lea	ecx, DWORD PTR [esi-20]
	call	edx

; 81   : 
; 82   : #ifndef _EDITOR
; 83   : 	DEL_INSTANCE					(g_hud);

	mov	eax, DWORD PTR ?g_hud@@3PAVCCustomHUD@@A ; g_hud
	push	eax
	call	DWORD PTR ?Engine@@3VCEngine@@A+20
	add	esp, 4
	mov	DWORD PTR ?g_hud@@3PAVCCustomHUD@@A, 0	; g_hud
	pop	esi

; 84   : #endif    
; 85   : }

	ret	0
?OnAppEnd@IGame_Persistent@@UAEXXZ ENDP			; IGame_Persistent::OnAppEnd
; Function compile flags: /Ogtpy
_TEXT	ENDS
;	COMDAT ??_ECPS_Instance@@MAEPAXI@Z
_TEXT	SEGMENT
___flags$ = 8						; size = 4
??_ECPS_Instance@@MAEPAXI@Z PROC			; CPS_Instance::`vector deleting destructor', COMDAT
; _this$ = ecx
	test	BYTE PTR ___flags$[esp-4], 2
	push	ebp
	mov	ebp, ecx
	je	SHORT $LN3@vector@101
	push	ebx
	push	esi
	push	edi
	mov	edi, DWORD PTR [ebp-4]
	lea	ebx, DWORD PTR [ebp-4]
	mov	esi, edi
	imul	esi, 156				; 0000009cH
	add	esi, ebp
	sub	edi, 1
	js	SHORT $LN6@vector@101
$LL7@vector@101:
	sub	esi, 156				; 0000009cH
	mov	ecx, esi
	call	??1CPS_Instance@@MAE@XZ			; CPS_Instance::~CPS_Instance
	sub	edi, 1
	jns	SHORT $LL7@vector@101
$LN6@vector@101:
	test	BYTE PTR ___flags$[esp+12], 1
	je	SHORT $LN12@vector@101
	test	ebx, ebx
	je	SHORT $LN12@vector@101
	mov	ecx, DWORD PTR __imp_?Memory@@3VxrMemory@@A
	push	ebx
	call	DWORD PTR __imp_?mem_free@xrMemory@@QAEXPAX@Z
$LN12@vector@101:
	pop	edi
	pop	esi
	mov	eax, ebx
	pop	ebx
	pop	ebp
	ret	4
$LN3@vector@101:
	call	??1CPS_Instance@@MAE@XZ			; CPS_Instance::~CPS_Instance
	test	BYTE PTR ___flags$[esp], 1
	je	SHORT $LN17@vector@101
	test	ebp, ebp
	je	SHORT $LN17@vector@101
	mov	ecx, DWORD PTR __imp_?Memory@@3VxrMemory@@A
	push	ebp
	call	DWORD PTR __imp_?mem_free@xrMemory@@QAEXPAX@Z
$LN17@vector@101:
	mov	eax, ebp
	pop	ebp
	ret	4
??_ECPS_Instance@@MAEPAXI@Z ENDP			; CPS_Instance::`vector deleting destructor'
_TEXT	ENDS
PUBLIC	??_GCPS_Instance@@MAEPAXI@Z			; CPS_Instance::`scalar deleting destructor'
; Function compile flags: /Ogtpy
;	COMDAT ??_GCPS_Instance@@MAEPAXI@Z
_TEXT	SEGMENT
___flags$ = 8						; size = 4
??_GCPS_Instance@@MAEPAXI@Z PROC			; CPS_Instance::`scalar deleting destructor', COMDAT
; _this$ = ecx
	push	esi
	mov	esi, ecx
	call	??1CPS_Instance@@MAE@XZ			; CPS_Instance::~CPS_Instance
	test	BYTE PTR ___flags$[esp], 1
	je	SHORT $LN10@scalar@91
	test	esi, esi
	je	SHORT $LN10@scalar@91
	mov	ecx, DWORD PTR __imp_?Memory@@3VxrMemory@@A
	push	esi
	call	DWORD PTR __imp_?mem_free@xrMemory@@QAEXPAX@Z
$LN10@scalar@91:
	mov	eax, esi
	pop	esi
	ret	4
??_GCPS_Instance@@MAEPAXI@Z ENDP			; CPS_Instance::`scalar deleting destructor'
_TEXT	ENDS
PUBLIC	??0CPS_Instance@@QAE@ABV0@@Z			; CPS_Instance::CPS_Instance
; Function compile flags: /Ogtpy
;	COMDAT ??0CPS_Instance@@QAE@ABV0@@Z
_TEXT	SEGMENT
___that$ = 8						; size = 4
??0CPS_Instance@@QAE@ABV0@@Z PROC			; CPS_Instance::CPS_Instance, COMDAT
; _this$ = ecx
	mov	edx, DWORD PTR ___that$[esp-4]
	mov	eax, ecx
	mov	ecx, DWORD PTR __imp_??_7ISpatial@@6B@
	mov	DWORD PTR [eax], ecx
	push	esi
	push	edi
	lea	esi, DWORD PTR [edx+4]
	lea	edi, DWORD PTR [eax+4]
	mov	ecx, 12					; 0000000cH
	rep movsd
	mov	DWORD PTR [eax+52], OFFSET ??_7ISheduled@@6B@
	mov	ecx, DWORD PTR [edx+56]
	mov	DWORD PTR [eax+56], ecx
	mov	DWORD PTR [eax+60], OFFSET ??_7IRenderable@@6B@
	lea	esi, DWORD PTR [edx+64]
	lea	edi, DWORD PTR [eax+64]
	mov	ecx, 19					; 00000013H
	rep movsd
	mov	DWORD PTR [eax], OFFSET ??_7CPS_Instance@@6BISpatial@@@
	mov	DWORD PTR [eax+52], OFFSET ??_7CPS_Instance@@6BISheduled@@@
	mov	DWORD PTR [eax+60], OFFSET ??_7CPS_Instance@@6BIRenderable@@@
	mov	cl, BYTE PTR [edx+140]
	mov	BYTE PTR [eax+140], cl
	mov	ecx, DWORD PTR [edx+144]
	mov	DWORD PTR [eax+144], ecx
	mov	ecx, DWORD PTR [edx+148]
	mov	DWORD PTR [eax+148], ecx
	mov	edx, DWORD PTR [edx+152]
	pop	edi
	mov	DWORD PTR [eax+152], edx
	pop	esi
	ret	4
??0CPS_Instance@@QAE@ABV0@@Z ENDP			; CPS_Instance::CPS_Instance
; Function compile flags: /Odtpy
;	COMDAT ??_ECPS_Instance@@ODE@AEPAXI@Z
_TEXT	SEGMENT
??_ECPS_Instance@@ODE@AEPAXI@Z PROC			; [thunk]:CPS_Instance::`vector deleting destructor', COMDAT
	sub	ecx, 52					; 00000034H
	jmp	??_ECPS_Instance@@MAEPAXI@Z
??_ECPS_Instance@@ODE@AEPAXI@Z ENDP			; [thunk]:CPS_Instance::`vector deleting destructor'
; Function compile flags: /Odtpy
_TEXT	ENDS
;	COMDAT ??_ECPS_Instance@@ODM@AEPAXI@Z
_TEXT	SEGMENT
??_ECPS_Instance@@ODM@AEPAXI@Z PROC			; [thunk]:CPS_Instance::`vector deleting destructor', COMDAT
	sub	ecx, 60					; 0000003cH
	jmp	??_ECPS_Instance@@MAEPAXI@Z
??_ECPS_Instance@@ODM@AEPAXI@Z ENDP			; [thunk]:CPS_Instance::`vector deleting destructor'
; Function compile flags: /Ogtpy
_TEXT	ENDS
;	COMDAT ?OnFrame@IGame_Persistent@@UAGXXZ
_TEXT	SEGMENT
_this$ = 8						; size = 4
?OnFrame@IGame_Persistent@@UAGXXZ PROC			; IGame_Persistent::OnFrame, COMDAT

; 168  : #ifndef _EDITOR
; 169  : 
; 170  : 	if(!Device.Paused() || Device.dwPrecacheFrame)

	mov	eax, DWORD PTR __imp_?g_pauseMngr@@3VpauseMngr@@A
	cmp	DWORD PTR [eax+12], 0
	push	ebx
	push	esi
	mov	esi, DWORD PTR _this$[esp+4]
	push	edi
	je	SHORT $LN9@OnFrame@12
	cmp	DWORD PTR ?Device@@3VCRenderDevice@@A+12, 0
	je	SHORT $LN10@OnFrame@12
$LN9@OnFrame@12:

; 171  : 		Environment().OnFrame	();

	mov	ecx, DWORD PTR [esi+1096]
	call	?OnFrame@CEnvironment@@QAEXXZ		; CEnvironment::OnFrame
$LN10@OnFrame@12:

; 172  : 
; 173  : 
; 174  : 	Device.Statistic->Particles_starting= ps_needtoplay.size	();

	mov	ecx, DWORD PTR [esi+1072]
	sub	ecx, DWORD PTR [esi+1068]
	mov	edx, DWORD PTR ?Device@@3VCRenderDevice@@A+920
	sar	ecx, 2
	mov	DWORD PTR [edx+496], ecx

; 175  : 	Device.Statistic->Particles_active	= ps_active.size		();

	mov	eax, DWORD PTR [esi+1048]
	mov	ecx, DWORD PTR ?Device@@3VCRenderDevice@@A+920
	mov	DWORD PTR [ecx+500], eax

; 176  : 	Device.Statistic->Particles_destroy	= ps_destroy.size		();

	mov	edx, DWORD PTR [esi+1060]
	sub	edx, DWORD PTR [esi+1056]
	mov	eax, DWORD PTR ?Device@@3VCRenderDevice@@A+920
	sar	edx, 2
	mov	DWORD PTR [eax+504], edx

; 177  : 
; 178  : 	// Play req particle systems
; 179  : 	while (ps_needtoplay.size())

	mov	ecx, DWORD PTR [esi+1072]
	sub	ecx, DWORD PTR [esi+1068]
	mov	ebx, -4					; fffffffcH
	test	ecx, ebx
	je	SHORT $LN86@OnFrame@12
	npad	14
$LL8@OnFrame@12:

; 180  : 	{
; 181  : 		CPS_Instance*	psi		= ps_needtoplay.back	();

	mov	edx, DWORD PTR [esi+1072]
	mov	edi, DWORD PTR [edx-4]

; 182  : 		ps_needtoplay.pop_back	();

	add	DWORD PTR [esi+1072], ebx
	mov	eax, DWORD PTR [esi+1072]
	push	eax
	call	??$_Destroy@PAX@stlp_std@@YAXPAPAX@Z	; stlp_std::_Destroy<void *>

; 183  : 		psi->Play				(false);

	mov	eax, DWORD PTR [edi]
	mov	edx, DWORD PTR [eax+44]
	add	esp, 4
	push	0
	mov	ecx, edi
	call	edx
	mov	eax, DWORD PTR [esi+1072]
	sub	eax, DWORD PTR [esi+1068]
	test	eax, ebx
	jne	SHORT $LL8@OnFrame@12
$LN86@OnFrame@12:

; 184  : 	}
; 185  : 	// Destroy inactive particle systems
; 186  : 	while (ps_destroy.size())

	mov	ecx, DWORD PTR [esi+1060]
	sub	ecx, DWORD PTR [esi+1056]
	test	ecx, ebx
	je	SHORT $LN5@OnFrame@12
	npad	7
$LL6@OnFrame@12:

; 187  : 	{
; 188  : //		u32 cnt					= ps_destroy.size();
; 189  : 		CPS_Instance*	psi		= ps_destroy.back();

	mov	edx, DWORD PTR [esi+1060]
	mov	edi, DWORD PTR [edx-4]

; 190  : 		VERIFY					(psi);
; 191  : 		if (psi->Locked())

	mov	eax, DWORD PTR [edi]
	mov	edx, DWORD PTR [eax+48]
	mov	ecx, edi
	call	edx
	test	eax, eax
	jne	SHORT $LN87@OnFrame@12

; 194  : 			break;
; 195  : 		}
; 196  : 		ps_destroy.pop_back		();

	add	DWORD PTR [esi+1060], ebx
	mov	eax, DWORD PTR [esi+1060]
	push	eax
	call	??$_Destroy@PAX@stlp_std@@YAXPAPAX@Z	; stlp_std::_Destroy<void *>

; 197  : 		psi->PSI_internal_delete();

	mov	eax, DWORD PTR [edi]
	mov	edx, DWORD PTR [eax+36]
	add	esp, 4
	mov	ecx, edi
	call	edx
	mov	eax, DWORD PTR [esi+1060]
	sub	eax, DWORD PTR [esi+1056]
	test	eax, ebx
	jne	SHORT $LL6@OnFrame@12
	pop	edi
	pop	esi
	pop	ebx

; 198  : 	}
; 199  : #endif
; 200  : }

	ret	4
$LN87@OnFrame@12:

; 192  : 		{
; 193  : 			Log("--locked");

	push	OFFSET ??_C@_08MALHLIML@?9?9locked?$AA@
	call	DWORD PTR __imp_?Log@@YAXPBD@Z
	add	esp, 4
$LN5@OnFrame@12:
	pop	edi
	pop	esi
	pop	ebx

; 198  : 	}
; 199  : #endif
; 200  : }

	ret	4
?OnFrame@IGame_Persistent@@UAGXXZ ENDP			; IGame_Persistent::OnFrame
; Function compile flags: /Ogtpy
; File d:\clearsky\sources\engine\xrcore\xrmemory_subst_msvc.h
;	COMDAT ??$xr_new@VCEnvironment@@@@YAPAVCEnvironment@@XZ
_TEXT	SEGMENT
??$xr_new@VCEnvironment@@@@YAPAVCEnvironment@@XZ PROC	; xr_new<CEnvironment>, COMDAT

; 68   : 	T* ptr	= (T*)Memory.mem_alloc(sizeof(T));

	mov	ecx, DWORD PTR __imp_?Memory@@3VxrMemory@@A
	push	308					; 00000134H
	call	DWORD PTR __imp_?mem_alloc@xrMemory@@QAEPAXI@Z

; 69   : 	return new (ptr) T();

	test	eax, eax
	je	SHORT $LN3@xr_new@47
	mov	ecx, eax
	jmp	??0CEnvironment@@QAE@XZ			; CEnvironment::CEnvironment
$LN3@xr_new@47:
	xor	eax, eax

; 70   : }

	ret	0
??$xr_new@VCEnvironment@@@@YAPAVCEnvironment@@XZ ENDP	; xr_new<CEnvironment>
_TEXT	ENDS
PUBLIC	??0IGame_Persistent@@QAE@XZ			; IGame_Persistent::IGame_Persistent
; Function compile flags: /Ogtpy
; File d:\clearsky\sources\engine\xrengine\igame_persistent.cpp
;	COMDAT ??0IGame_Persistent@@QAE@XZ
_TEXT	SEGMENT
$T553031 = -17						; size = 1
$T553030 = -17						; size = 1
tv64 = -16						; size = 4
_I$553298 = -12						; size = 12
_I$553289 = -12						; size = 12
_I$553278 = -12						; size = 12
_I$553269 = -12						; size = 12
??0IGame_Persistent@@QAE@XZ PROC			; IGame_Persistent::IGame_Persistent, COMDAT
; _this$ = ecx

; 27   : {

	sub	esp, 20					; 00000014H
	push	ebx
	push	ebp
	push	esi
	push	edi
	mov	edi, ecx
	xor	ebx, ebx
	mov	DWORD PTR [edi+8], ebx
	mov	DWORD PTR [edi+12], ebx
	mov	DWORD PTR [edi+16], OFFSET ??_7pureAppStart@@6B@
	mov	DWORD PTR [edi+20], OFFSET ??_7pureAppEnd@@6B@
	mov	DWORD PTR [edi+24], OFFSET ??_7pureAppActivate@@6B@
	lea	ebp, DWORD PTR [edi+16]
	mov	DWORD PTR [edi+28], OFFSET ??_7pureAppDeactivate@@6B@
	mov	DWORD PTR [edi+32], OFFSET ??_7pureFrame@@6B@
	mov	DWORD PTR [edi], OFFSET ??_7IGame_Persistent@@6BDLL_Pure@@@
	mov	DWORD PTR [ebp], OFFSET ??_7IGame_Persistent@@6BpureAppStart@@@
	mov	DWORD PTR [edi+20], OFFSET ??_7IGame_Persistent@@6BpureAppEnd@@@
	mov	DWORD PTR [edi+24], OFFSET ??_7IGame_Persistent@@6BpureAppActivate@@@
	mov	DWORD PTR [edi+28], OFFSET ??_7IGame_Persistent@@6BpureAppDeactivate@@@
	mov	DWORD PTR [edi+32], OFFSET ??_7IGame_Persistent@@6BpureFrame@@@
	lea	esi, DWORD PTR [edi+36]
	mov	DWORD PTR tv64[esp+36], 4
	npad	5
$LL29@IGame_Pers@2:
	push	OFFSET ??_C@_00CNPNBAHC@?$AA@
	push	esi
	call	??$xr_strcpy@$0BAA@@@YAHAAY0BAA@DPBD@Z	; xr_strcpy<256>
	add	esp, 8
	add	esi, 256				; 00000100H
	sub	DWORD PTR tv64[esp+36], 1
	jne	SHORT $LL29@IGame_Pers@2
	lea	eax, DWORD PTR $T553030[esp+36]
	lea	esi, DWORD PTR [edi+1064]
	push	eax
	mov	ecx, esi
	call	??0?$_Rb_tree_base@PAXV?$xalloc@PAX@@@priv@stlp_std@@IAE@ABV?$xalloc@PAX@@@Z ; stlp_std::priv::_Rb_tree_base<void *,xalloc<void *> >::_Rb_tree_base<void *,xalloc<void *> >
	mov	cl, BYTE PTR $T553031[esp+36]
	mov	BYTE PTR [esi+20], cl
	mov	DWORD PTR [esi+16], ebx
	mov	DWORD PTR [edi+1088], ebx
	mov	DWORD PTR [edi+1092], ebx
	mov	DWORD PTR [edi+1096], ebx
	mov	DWORD PTR [edi+1100], ebx
	mov	DWORD PTR [edi+1104], ebx
	mov	DWORD PTR [edi+1108], ebx
	mov	DWORD PTR [edi+1112], OFFSET ??_7IGame_ObjectPool@@6B@

; 28   : 	RDEVICE.seqAppStart.Add			(this);

	mov	DWORD PTR _I$553269[esp+36], ebp
	lea	edx, DWORD PTR _I$553269[esp+36]
	mov	DWORD PTR [edi+1116], ebx
	mov	DWORD PTR [edi+1120], ebx
	mov	ebp, 572662306				; 22222222H
	push	edx
	mov	ecx, OFFSET ?Device@@3VCRenderDevice@@A+696
	mov	DWORD PTR [edi+1124], ebx
	mov	DWORD PTR _I$553269[esp+44], ebp
	mov	DWORD PTR _I$553269[esp+48], ebx
	call	?push_back@?$vector@U_REG_INFO@@V?$xalloc@U_REG_INFO@@@@@stlp_std@@QAEXABU_REG_INFO@@@Z ; stlp_std::vector<_REG_INFO,xalloc<_REG_INFO> >::push_back
	test	BYTE PTR ?Device@@3VCRenderDevice@@A+708, 1
	je	SHORT $LN97@IGame_Pers@2
	or	DWORD PTR ?Device@@3VCRenderDevice@@A+708, 2
	jmp	SHORT $LN96@IGame_Pers@2
$LN97@IGame_Pers@2:
	mov	esi, OFFSET ?Device@@3VCRenderDevice@@A+696
	call	?Resort@?$CRegistrator@VpureAppStart@@@@QAEXXZ ; CRegistrator<pureAppStart>::Resort
$LN96@IGame_Pers@2:

; 29   : 	RDEVICE.seqAppEnd.Add			(this);

	lea	eax, DWORD PTR [edi+20]
	mov	DWORD PTR _I$553278[esp+36], eax
	lea	eax, DWORD PTR _I$553278[esp+36]
	push	eax
	mov	ecx, OFFSET ?Device@@3VCRenderDevice@@A+712
	mov	DWORD PTR _I$553278[esp+44], ebp
	mov	DWORD PTR _I$553278[esp+48], ebx
	call	?push_back@?$vector@U_REG_INFO@@V?$xalloc@U_REG_INFO@@@@@stlp_std@@QAEXABU_REG_INFO@@@Z ; stlp_std::vector<_REG_INFO,xalloc<_REG_INFO> >::push_back
	test	BYTE PTR ?Device@@3VCRenderDevice@@A+724, 1
	je	SHORT $LN105@IGame_Pers@2
	or	DWORD PTR ?Device@@3VCRenderDevice@@A+724, 2
	jmp	SHORT $LN104@IGame_Pers@2
$LN105@IGame_Pers@2:
	mov	esi, OFFSET ?Device@@3VCRenderDevice@@A+712
	call	?Resort@?$CRegistrator@VpureAppEnd@@@@QAEXXZ ; CRegistrator<pureAppEnd>::Resort
$LN104@IGame_Pers@2:

; 30   : 	RDEVICE.seqFrame.Add			(this,REG_PRIORITY_HIGH+1);

	push	ebx
	push	858993460				; 33333334H
	lea	eax, DWORD PTR [edi+32]
	push	eax
	mov	ecx, OFFSET ?Device@@3VCRenderDevice@@A+728
	call	?Add@?$CRegistrator@VpureFrame@@@@QAEXPAVpureFrame@@HI@Z ; CRegistrator<pureFrame>::Add

; 31   : 	RDEVICE.seqAppActivate.Add		(this);

	lea	ecx, DWORD PTR _I$553289[esp+36]
	lea	eax, DWORD PTR [edi+24]
	push	ecx
	mov	ecx, OFFSET ?Device@@3VCRenderDevice@@A+664
	mov	DWORD PTR _I$553289[esp+40], eax
	mov	DWORD PTR _I$553289[esp+44], ebp
	mov	DWORD PTR _I$553289[esp+48], ebx
	call	?push_back@?$vector@U_REG_INFO@@V?$xalloc@U_REG_INFO@@@@@stlp_std@@QAEXABU_REG_INFO@@@Z ; stlp_std::vector<_REG_INFO,xalloc<_REG_INFO> >::push_back
	test	BYTE PTR ?Device@@3VCRenderDevice@@A+676, 1
	je	SHORT $LN121@IGame_Pers@2
	or	DWORD PTR ?Device@@3VCRenderDevice@@A+676, 2
	jmp	SHORT $LN120@IGame_Pers@2
$LN121@IGame_Pers@2:
	mov	esi, OFFSET ?Device@@3VCRenderDevice@@A+664
	call	?Resort@?$CRegistrator@VpureAppActivate@@@@QAEXXZ ; CRegistrator<pureAppActivate>::Resort
$LN120@IGame_Pers@2:

; 32   : 	RDEVICE.seqAppDeactivate.Add	(this);

	lea	edx, DWORD PTR _I$553298[esp+36]
	lea	eax, DWORD PTR [edi+28]
	push	edx
	mov	ecx, OFFSET ?Device@@3VCRenderDevice@@A+680
	mov	DWORD PTR _I$553298[esp+40], eax
	mov	DWORD PTR _I$553298[esp+44], ebp
	mov	DWORD PTR _I$553298[esp+48], ebx
	call	?push_back@?$vector@U_REG_INFO@@V?$xalloc@U_REG_INFO@@@@@stlp_std@@QAEXABU_REG_INFO@@@Z ; stlp_std::vector<_REG_INFO,xalloc<_REG_INFO> >::push_back
	test	BYTE PTR ?Device@@3VCRenderDevice@@A+692, 1
	je	SHORT $LN129@IGame_Pers@2
	or	DWORD PTR ?Device@@3VCRenderDevice@@A+692, 2
	jmp	SHORT $LN128@IGame_Pers@2
$LN129@IGame_Pers@2:
	mov	esi, OFFSET ?Device@@3VCRenderDevice@@A+680
	call	?Resort@?$CRegistrator@VpureAppDeactivate@@@@QAEXXZ ; CRegistrator<pureAppDeactivate>::Resort
$LN128@IGame_Pers@2:

; 33   : 
; 34   : 	m_pMainMenu						= NULL;

	mov	DWORD PTR [edi+1132], ebx

; 35   : 
; 36   : #ifndef INGAME_EDITOR
; 37   : 	#ifndef _EDITOR
; 38   : 	pEnvironment					= xr_new<CEnvironment>();

	mov	ecx, DWORD PTR __imp_?Memory@@3VxrMemory@@A
	push	308					; 00000134H
	call	DWORD PTR __imp_?mem_alloc@xrMemory@@QAEPAXI@Z
	cmp	eax, ebx
	je	SHORT $LN138@IGame_Pers@2
	mov	ecx, eax
	call	??0CEnvironment@@QAE@XZ			; CEnvironment::CEnvironment
	mov	DWORD PTR [edi+1128], eax

; 39   : 	#endif
; 40   : #else // #ifdef INGAME_EDITOR
; 41   : 	if (RDEVICE.editor())
; 42   : 		pEnvironment				= xr_new<editor::environment::manager>();
; 43   : 	else
; 44   : 		pEnvironment				= xr_new<CEnvironment>();
; 45   : #endif // #ifdef INGAME_EDITOR
; 46   : }

	mov	eax, edi
	pop	edi
	pop	esi
	pop	ebp
	pop	ebx
	add	esp, 20					; 00000014H
	ret	0

; 35   : 
; 36   : #ifndef INGAME_EDITOR
; 37   : 	#ifndef _EDITOR
; 38   : 	pEnvironment					= xr_new<CEnvironment>();

$LN138@IGame_Pers@2:
	mov	DWORD PTR [edi+1128], ebx

; 39   : 	#endif
; 40   : #else // #ifdef INGAME_EDITOR
; 41   : 	if (RDEVICE.editor())
; 42   : 		pEnvironment				= xr_new<editor::environment::manager>();
; 43   : 	else
; 44   : 		pEnvironment				= xr_new<CEnvironment>();
; 45   : #endif // #ifdef INGAME_EDITOR
; 46   : }

	mov	eax, edi
	pop	edi
	pop	esi
	pop	ebp
	pop	ebx
	add	esp, 20					; 00000014H
	ret	0
??0IGame_Persistent@@QAE@XZ ENDP			; IGame_Persistent::IGame_Persistent
; Function compile flags: /Ogtpy
;	COMDAT ?OnAppStart@IGame_Persistent@@UAEXXZ
_TEXT	SEGMENT
?OnAppStart@IGame_Persistent@@UAEXXZ PROC		; IGame_Persistent::OnAppStart, COMDAT
; _this$ = ecx

; 70   : #ifndef _EDITOR
; 71   : 	Environment().load				();

	mov	ecx, DWORD PTR [ecx+1112]
	jmp	?load@CEnvironment@@QAEXXZ		; CEnvironment::load
?OnAppStart@IGame_Persistent@@UAEXXZ ENDP		; IGame_Persistent::OnAppStart
END
