; Listing generated by Microsoft (R) Optimizing Compiler Version 14.00.50727.762 

	TITLE	D:\CLEARSKY\sources\engine\xrEngine\IGame_Level.cpp
	.686P
	.XMM
	include listing.inc
	.model	flat

INCLUDELIB OLDNAMES

PUBLIC	??_ESBaseEffector@@UAEPAXI@Z			; SBaseEffector::`vector deleting destructor'
PUBLIC	??_R4SBaseEffector@@6B@				; SBaseEffector::`RTTI Complete Object Locator'
PUBLIC	??_R3SBaseEffector@@8				; SBaseEffector::`RTTI Class Hierarchy Descriptor'
PUBLIC	??_R2SBaseEffector@@8				; SBaseEffector::`RTTI Base Class Array'
PUBLIC	??_R1A@?0A@EA@SBaseEffector@@8			; SBaseEffector::`RTTI Base Class Descriptor at (0,-1,0,64)'
PUBLIC	??_R0?AUSBaseEffector@@@8			; SBaseEffector `RTTI Type Descriptor'
PUBLIC	??_R4IGame_Level@@6BIEventReceiver@@@		; IGame_Level::`RTTI Complete Object Locator'
PUBLIC	?OnFrame@IGame_Level@@UAGXXZ			; IGame_Level::OnFrame
PUBLIC	??_R4IGame_Level@@6BpureFrame@@@		; IGame_Level::`RTTI Complete Object Locator'
PUBLIC	?OnRender@IGame_Level@@UAEXXZ			; IGame_Level::OnRender
PUBLIC	??_R4IGame_Level@@6BpureRender@@@		; IGame_Level::`RTTI Complete Object Locator'
PUBLIC	??_R4IGame_Level@@6BIInputReceiver@@@		; IGame_Level::`RTTI Complete Object Locator'
PUBLIC	?Load@IGame_Level@@UAEHI@Z			; IGame_Level::Load
PUBLIC	?net_Stop@IGame_Level@@UAEXXZ			; IGame_Level::net_Stop
PUBLIC	??_EIGame_Level@@UAEPAXI@Z			; IGame_Level::`vector deleting destructor'
PUBLIC	??_R4IGame_Level@@6BDLL_Pure@@@			; IGame_Level::`RTTI Complete Object Locator'
PUBLIC	??_R3IGame_Level@@8				; IGame_Level::`RTTI Class Hierarchy Descriptor'
PUBLIC	??_R2IGame_Level@@8				; IGame_Level::`RTTI Base Class Array'
PUBLIC	??_R1BM@?0A@EA@IEventReceiver@@8		; IEventReceiver::`RTTI Base Class Descriptor at (28,-1,0,64)'
PUBLIC	??_R1BI@?0A@EA@pureFrame@@8			; pureFrame::`RTTI Base Class Descriptor at (24,-1,0,64)'
PUBLIC	??_R1BE@?0A@EA@pureRender@@8			; pureRender::`RTTI Base Class Descriptor at (20,-1,0,64)'
PUBLIC	??_R1BA@?0A@EA@IInputReceiver@@8		; IInputReceiver::`RTTI Base Class Descriptor at (16,-1,0,64)'
PUBLIC	??_R1A@?0A@EA@IGame_Level@@8			; IGame_Level::`RTTI Base Class Descriptor at (0,-1,0,64)'
PUBLIC	??_R0?AVIGame_Level@@@8				; IGame_Level `RTTI Type Descriptor'
PUBLIC	?feel_sound_new@Sound@Feel@@UAEXPAVCObject@@HV?$resptr_core@VCSound_UserData@@V?$resptr_base@VCSound_UserData@@@@@@ABU?$_vector3@M@@M@Z ; Feel::Sound::feel_sound_new
PUBLIC	??_R4Sound@Feel@@6B@				; Feel::Sound::`RTTI Complete Object Locator'
PUBLIC	??_R3Sound@Feel@@8				; Feel::Sound::`RTTI Class Hierarchy Descriptor'
PUBLIC	??_R2Sound@Feel@@8				; Feel::Sound::`RTTI Base Class Array'
PUBLIC	??_R1A@?0A@EA@Sound@Feel@@8			; Feel::Sound::`RTTI Base Class Descriptor at (0,-1,0,64)'
PUBLIC	??_R0?AVSound@Feel@@@8				; Feel::Sound `RTTI Type Descriptor'
PUBLIC	??_R4CCustomHUD@@6BpureScreenResolutionChanged@@@ ; CCustomHUD::`RTTI Complete Object Locator'
PUBLIC	?OnEvent@CCustomHUD@@UAEXPAVCEvent@@_K1@Z	; CCustomHUD::OnEvent
PUBLIC	??_R4CCustomHUD@@6BIEventReceiver@@@		; CCustomHUD::`RTTI Complete Object Locator'
PUBLIC	?Load@CCustomHUD@@UAEXXZ			; CCustomHUD::Load
PUBLIC	?OnFrame@CCustomHUD@@UAEXXZ			; CCustomHUD::OnFrame
PUBLIC	?Render_Last@CCustomHUD@@UAEXXZ			; CCustomHUD::Render_Last
PUBLIC	?Render_First@CCustomHUD@@UAEXXZ		; CCustomHUD::Render_First
PUBLIC	??_ECCustomHUD@@UAEPAXI@Z			; CCustomHUD::`vector deleting destructor'
PUBLIC	??_R4CCustomHUD@@6BDLL_Pure@@@			; CCustomHUD::`RTTI Complete Object Locator'
PUBLIC	??_R3CCustomHUD@@8				; CCustomHUD::`RTTI Class Hierarchy Descriptor'
PUBLIC	??_R2CCustomHUD@@8				; CCustomHUD::`RTTI Base Class Array'
PUBLIC	??_R1BE@?0A@EA@pureScreenResolutionChanged@@8	; pureScreenResolutionChanged::`RTTI Base Class Descriptor at (20,-1,0,64)'
PUBLIC	??_R1BA@?0A@EA@IEventReceiver@@8		; IEventReceiver::`RTTI Base Class Descriptor at (16,-1,0,64)'
PUBLIC	??_R1A@?0A@EA@CCustomHUD@@8			; CCustomHUD::`RTTI Base Class Descriptor at (0,-1,0,64)'
PUBLIC	??_R0?AVCCustomHUD@@@8				; CCustomHUD `RTTI Type Descriptor'
PUBLIC	??_ECCameraManager@@UAEPAXI@Z			; CCameraManager::`vector deleting destructor'
PUBLIC	??_R4CCameraManager@@6B@			; CCameraManager::`RTTI Complete Object Locator'
PUBLIC	??_R3CCameraManager@@8				; CCameraManager::`RTTI Class Hierarchy Descriptor'
PUBLIC	??_R2CCameraManager@@8				; CCameraManager::`RTTI Base Class Array'
PUBLIC	??_R1A@?0A@EA@CCameraManager@@8			; CCameraManager::`RTTI Base Class Descriptor at (0,-1,0,64)'
PUBLIC	??_R0?AVCCameraManager@@@8			; CCameraManager `RTTI Type Descriptor'
PUBLIC	?clear@?$FastDelegate0@X@fastdelegate@@QAEXXZ	; fastdelegate::FastDelegate0<void>::clear
PUBLIC	??0?$FastDelegate0@X@fastdelegate@@QAE@XZ	; fastdelegate::FastDelegate0<void>::FastDelegate0<void>
PUBLIC	??0?$xalloc@PAVISpatial@@@@QAE@XZ		; xalloc<ISpatial *>::xalloc<ISpatial *>
PUBLIC	??$?0PAVISpatial@@@?$xalloc@PAX@@QAE@ABV?$xalloc@PAVISpatial@@@@@Z ; xalloc<void *>::xalloc<void *><ISpatial *>
PUBLIC	??0?$vector@PAVISpatial@@V?$xalloc@PAVISpatial@@@@@stlp_std@@QAE@ABV?$xalloc@PAVISpatial@@@@@Z ; stlp_std::vector<ISpatial *,xalloc<ISpatial *> >::vector<ISpatial *,xalloc<ISpatial *> >
PUBLIC	??0?$xr_vector@PAVISpatial@@V?$xalloc@PAVISpatial@@@@@@QAE@XZ ; xr_vector<ISpatial *,xalloc<ISpatial *> >::xr_vector<ISpatial *,xalloc<ISpatial *> >
PUBLIC	??0?$xalloc@Uref_sound@@@@QAE@XZ		; xalloc<ref_sound>::xalloc<ref_sound>
PUBLIC	??0?$xalloc@Uref_sound@@@@QAE@ABV0@@Z		; xalloc<ref_sound>::xalloc<ref_sound>
PUBLIC	??0?$_STLP_alloc_proxy@PAUref_sound@@U1@V?$xalloc@Uref_sound@@@@@priv@stlp_std@@QAE@ABV?$xalloc@Uref_sound@@@@PAUref_sound@@@Z ; stlp_std::priv::_STLP_alloc_proxy<ref_sound *,ref_sound,xalloc<ref_sound> >::_STLP_alloc_proxy<ref_sound *,ref_sound,xalloc<ref_sound> >
PUBLIC	??0?$_Vector_base@Uref_sound@@V?$xalloc@Uref_sound@@@@@priv@stlp_std@@QAE@ABV?$xalloc@Uref_sound@@@@@Z ; stlp_std::priv::_Vector_base<ref_sound,xalloc<ref_sound> >::_Vector_base<ref_sound,xalloc<ref_sound> >
PUBLIC	??0?$_Impl_vector@Uref_sound@@V?$xalloc@Uref_sound@@@@@priv@stlp_std@@QAE@ABV?$xalloc@Uref_sound@@@@@Z ; stlp_std::priv::_Impl_vector<ref_sound,xalloc<ref_sound> >::_Impl_vector<ref_sound,xalloc<ref_sound> >
PUBLIC	??0?$vector@Uref_sound@@V?$xalloc@Uref_sound@@@@@stlp_std@@QAE@ABV?$xalloc@Uref_sound@@@@@Z ; stlp_std::vector<ref_sound,xalloc<ref_sound> >::vector<ref_sound,xalloc<ref_sound> >
PUBLIC	??0?$xr_vector@Uref_sound@@V?$xalloc@Uref_sound@@@@@@QAE@XZ ; xr_vector<ref_sound,xalloc<ref_sound> >::xr_vector<ref_sound,xalloc<ref_sound> >
PUBLIC	??0?$xalloc@U_esound_delegate@IGame_Level@@@@QAE@XZ ; xalloc<IGame_Level::_esound_delegate>::xalloc<IGame_Level::_esound_delegate>
PUBLIC	??0?$xalloc@U_esound_delegate@IGame_Level@@@@QAE@ABV0@@Z ; xalloc<IGame_Level::_esound_delegate>::xalloc<IGame_Level::_esound_delegate>
PUBLIC	??0?$_STLP_alloc_proxy@PAU_esound_delegate@IGame_Level@@U12@V?$xalloc@U_esound_delegate@IGame_Level@@@@@priv@stlp_std@@QAE@ABV?$xalloc@U_esound_delegate@IGame_Level@@@@PAU_esound_delegate@IGame_Level@@@Z ; stlp_std::priv::_STLP_alloc_proxy<IGame_Level::_esound_delegate *,IGame_Level::_esound_delegate,xalloc<IGame_Level::_esound_delegate> >::_STLP_alloc_proxy<IGame_Level::_esound_delegate *,IGame_Level::_esound_delegate,xalloc<IGame_Level::_esound_delegate> >
PUBLIC	??0?$_Vector_base@U_esound_delegate@IGame_Level@@V?$xalloc@U_esound_delegate@IGame_Level@@@@@priv@stlp_std@@QAE@ABV?$xalloc@U_esound_delegate@IGame_Level@@@@@Z ; stlp_std::priv::_Vector_base<IGame_Level::_esound_delegate,xalloc<IGame_Level::_esound_delegate> >::_Vector_base<IGame_Level::_esound_delegate,xalloc<IGame_Level::_esound_delegate> >
PUBLIC	??0?$_Impl_vector@U_esound_delegate@IGame_Level@@V?$xalloc@U_esound_delegate@IGame_Level@@@@@priv@stlp_std@@QAE@ABV?$xalloc@U_esound_delegate@IGame_Level@@@@@Z ; stlp_std::priv::_Impl_vector<IGame_Level::_esound_delegate,xalloc<IGame_Level::_esound_delegate> >::_Impl_vector<IGame_Level::_esound_delegate,xalloc<IGame_Level::_esound_delegate> >
PUBLIC	??0?$vector@U_esound_delegate@IGame_Level@@V?$xalloc@U_esound_delegate@IGame_Level@@@@@stlp_std@@QAE@ABV?$xalloc@U_esound_delegate@IGame_Level@@@@@Z ; stlp_std::vector<IGame_Level::_esound_delegate,xalloc<IGame_Level::_esound_delegate> >::vector<IGame_Level::_esound_delegate,xalloc<IGame_Level::_esound_delegate> >
PUBLIC	??0?$xr_vector@U_esound_delegate@IGame_Level@@V?$xalloc@U_esound_delegate@IGame_Level@@@@@@QAE@XZ ; xr_vector<IGame_Level::_esound_delegate,xalloc<IGame_Level::_esound_delegate> >::xr_vector<IGame_Level::_esound_delegate,xalloc<IGame_Level::_esound_delegate> >
PUBLIC	??$xr_new@VCCameraManager@@_N@@YAPAVCCameraManager@@AB_N@Z ; xr_new<CCameraManager,bool>
PUBLIC	?Remove@?$CRegistrator@VpureRender@@@@QAEXPAVpureRender@@@Z ; CRegistrator<pureRender>::Remove
PUBLIC	??1?$vector@PAVISpatial@@V?$xalloc@PAVISpatial@@@@@stlp_std@@QAE@XZ ; stlp_std::vector<ISpatial *,xalloc<ISpatial *> >::~vector<ISpatial *,xalloc<ISpatial *> >
PUBLIC	??1?$xr_vector@PAVISpatial@@V?$xalloc@PAVISpatial@@@@@@QAE@XZ ; xr_vector<ISpatial *,xalloc<ISpatial *> >::~xr_vector<ISpatial *,xalloc<ISpatial *> >
PUBLIC	??1?$_Vector_base@Uref_sound@@V?$xalloc@Uref_sound@@@@@priv@stlp_std@@QAE@XZ ; stlp_std::priv::_Vector_base<ref_sound,xalloc<ref_sound> >::~_Vector_base<ref_sound,xalloc<ref_sound> >
PUBLIC	??1?$_Impl_vector@Uref_sound@@V?$xalloc@Uref_sound@@@@@priv@stlp_std@@QAE@XZ ; stlp_std::priv::_Impl_vector<ref_sound,xalloc<ref_sound> >::~_Impl_vector<ref_sound,xalloc<ref_sound> >
PUBLIC	??1?$vector@Uref_sound@@V?$xalloc@Uref_sound@@@@@stlp_std@@QAE@XZ ; stlp_std::vector<ref_sound,xalloc<ref_sound> >::~vector<ref_sound,xalloc<ref_sound> >
PUBLIC	??1?$xr_vector@Uref_sound@@V?$xalloc@Uref_sound@@@@@@QAE@XZ ; xr_vector<ref_sound,xalloc<ref_sound> >::~xr_vector<ref_sound,xalloc<ref_sound> >
PUBLIC	??1?$_Vector_base@U_esound_delegate@IGame_Level@@V?$xalloc@U_esound_delegate@IGame_Level@@@@@priv@stlp_std@@QAE@XZ ; stlp_std::priv::_Vector_base<IGame_Level::_esound_delegate,xalloc<IGame_Level::_esound_delegate> >::~_Vector_base<IGame_Level::_esound_delegate,xalloc<IGame_Level::_esound_delegate> >
PUBLIC	??1?$_Impl_vector@U_esound_delegate@IGame_Level@@V?$xalloc@U_esound_delegate@IGame_Level@@@@@priv@stlp_std@@QAE@XZ ; stlp_std::priv::_Impl_vector<IGame_Level::_esound_delegate,xalloc<IGame_Level::_esound_delegate> >::~_Impl_vector<IGame_Level::_esound_delegate,xalloc<IGame_Level::_esound_delegate> >
PUBLIC	??1?$vector@U_esound_delegate@IGame_Level@@V?$xalloc@U_esound_delegate@IGame_Level@@@@@stlp_std@@QAE@XZ ; stlp_std::vector<IGame_Level::_esound_delegate,xalloc<IGame_Level::_esound_delegate> >::~vector<IGame_Level::_esound_delegate,xalloc<IGame_Level::_esound_delegate> >
PUBLIC	??1?$xr_vector@U_esound_delegate@IGame_Level@@V?$xalloc@U_esound_delegate@IGame_Level@@@@@@QAE@XZ ; xr_vector<IGame_Level::_esound_delegate,xalloc<IGame_Level::_esound_delegate> >::~xr_vector<IGame_Level::_esound_delegate,xalloc<IGame_Level::_esound_delegate> >
PUBLIC	??R?$xr_special_free@$00VCCameraManager@@@@QAEXAAPAVCCameraManager@@@Z ; xr_special_free<1,CCameraManager>::operator()
PUBLIC	??$xr_delete@VCCameraManager@@@@YAXAAPAVCCameraManager@@@Z ; xr_delete<CCameraManager>
PUBLIC	??$__distance@U?$_List_iterator@PAXU?$_Const_traits@PAX@stlp_std@@@priv@stlp_std@@@stlp_std@@YAHABU?$_List_iterator@PAXU?$_Const_traits@PAX@stlp_std@@@priv@0@0ABUinput_iterator_tag@0@@Z ; stlp_std::__distance<stlp_std::priv::_List_iterator<void *,stlp_std::_Const_traits<void *> > >
PUBLIC	??$distance@U?$_List_iterator@PAXU?$_Const_traits@PAX@stlp_std@@@priv@stlp_std@@@stlp_std@@YAHU?$_List_iterator@PAXU?$_Const_traits@PAX@stlp_std@@@priv@0@0@Z ; stlp_std::distance<stlp_std::priv::_List_iterator<void *,stlp_std::_Const_traits<void *> > >
PUBLIC	?size@?$_Impl_list@PAXV?$xalloc@PAX@@@priv@stlp_std@@QBEIXZ ; stlp_std::priv::_Impl_list<void *,xalloc<void *> >::size
PUBLIC	?size@?$list@PAVCEffectorCam@@V?$xalloc@PAVCEffectorCam@@@@@stlp_std@@QBEIXZ ; stlp_std::list<CEffectorCam *,xalloc<CEffectorCam *> >::size
PUBLIC	?size@?$xr_list@PAVCEffectorCam@@V?$xalloc@PAVCEffectorCam@@@@@@QBEIXZ ; xr_list<CEffectorCam *,xalloc<CEffectorCam *> >::size
PUBLIC	?_REG_Compare@?$CRegistrator@VpureRender@@@@CAHPBX0@Z ; CRegistrator<pureRender>::_REG_Compare
PUBLIC	?Resort@?$CRegistrator@VpureRender@@@@QAEXXZ	; CRegistrator<pureRender>::Resort
PUBLIC	?Add@?$CRegistrator@VpureRender@@@@QAEXPAVpureRender@@HI@Z ; CRegistrator<pureRender>::Add
PUBLIC	??$xr_new@VCInifile@@$$BY0CAI@D@@YAPAVCInifile@@AAY0CAI@$$CBD@Z ; xr_new<CInifile,char [520]>
PUBLIC	?randF@CRandom@@QAEMMM@Z			; CRandom::randF
PUBLIC	?mul@?$_vector3@M@@QAEAAU1@M@Z			; _vector3<float>::mul
PUBLIC	?normalize@?$_vector3@M@@QAEAAU1@XZ		; _vector3<float>::normalize
PUBLIC	_sinf
PUBLIC	?_sin@@YAMM@Z					; _sin
PUBLIC	_cosf
PUBLIC	?_cos@@YAMM@Z					; _cos
PUBLIC	?maxF@CRandom@@QAEMXZ				; CRandom::maxF
PUBLIC	?randF@CRandom@@QAEMXZ				; CRandom::randF
PUBLIC	?randF@CRandom@@QAEMM@Z				; CRandom::randF
PUBLIC	?random_dir@?$_vector3@M@@QAEAAU1@AAVCRandom@@@Z ; _vector3<float>::random_dir
PUBLIC	?play_at_pos@ref_sound@@QAEXPAVCObject@@ABU?$_vector3@M@@IM@Z ; ref_sound::play_at_pos
PUBLIC	?set_range@ref_sound@@QAEXMM@Z			; ref_sound::set_range
PUBLIC	??B?$resptr_core@Vref_sound_data@@V?$resptr_base@Vref_sound_data@@@@@@QBEP80@BEPAVref_sound_data@@XZXZ ; resptr_core<ref_sound_data,resptr_base<ref_sound_data> >::operator ref_sound_data * (__thiscall resptr_core<ref_sound_data,resptr_base<ref_sound_data> >::*)(void)const 
PUBLIC	?_feedback@ref_sound@@QAEPAVCSound_emitter@@XZ	; ref_sound::_feedback
PUBLIC	?set_volume@ref_sound@@QAEXM@Z			; ref_sound::set_volume
PUBLIC	?size@?$vector@Uref_sound@@V?$xalloc@Uref_sound@@@@@stlp_std@@QBEIXZ ; stlp_std::vector<ref_sound,xalloc<ref_sound> >::size
PUBLIC	?size@?$xr_vector@Uref_sound@@V?$xalloc@Uref_sound@@@@@@QBEIXZ ; xr_vector<ref_sound,xalloc<ref_sound> >::size
PUBLIC	?to_value_type_ptr@?$_CastTraits@Uref_sound@@U1@@priv@stlp_std@@SAPAUref_sound@@PAU4@@Z ; stlp_std::priv::_CastTraits<ref_sound,ref_sound>::to_value_type_ptr
PUBLIC	?begin@?$vector@Uref_sound@@V?$xalloc@Uref_sound@@@@@stlp_std@@QAEPAUref_sound@@XZ ; stlp_std::vector<ref_sound,xalloc<ref_sound> >::begin
PUBLIC	??A?$xr_vector@Uref_sound@@V?$xalloc@Uref_sound@@@@@@QAEAAUref_sound@@I@Z ; xr_vector<ref_sound,xalloc<ref_sound> >::operator[]
PUBLIC	?set@?$_matrix@M@@QAEAAU1@ABU?$_vector3@M@@000@Z ; _matrix<float>::set
PUBLIC	?push_back@?$svector@USItem_ServerInfo@CServerInfo@@$0P@@@QAEXUSItem_ServerInfo@CServerInfo@@@Z ; svector<CServerInfo::SItem_ServerInfo,15>::push_back
PUBLIC	??$xr_strcpy@$0IA@@@YAHAAY0IA@DPBD@Z		; xr_strcpy<128>
PUBLIC	??$xr_strcat@$0IA@@@YAHAAY0IA@DPBD@Z		; xr_strcat<128>
PUBLIC	??1?$xr_list@PAVCEffectorCam@@V?$xalloc@PAVCEffectorCam@@@@@@QAE@XZ ; xr_list<CEffectorCam *,xalloc<CEffectorCam *> >::~xr_list<CEffectorCam *,xalloc<CEffectorCam *> >
PUBLIC	??0?$_Impl_list@PAXV?$xalloc@PAX@@@priv@stlp_std@@QAE@ABV012@@Z ; stlp_std::priv::_Impl_list<void *,xalloc<void *> >::_Impl_list<void *,xalloc<void *> >
PUBLIC	??0?$list@PAVCEffectorCam@@V?$xalloc@PAVCEffectorCam@@@@@stlp_std@@QAE@ABV01@@Z ; stlp_std::list<CEffectorCam *,xalloc<CEffectorCam *> >::list<CEffectorCam *,xalloc<CEffectorCam *> >
PUBLIC	??1?$list@PAVCEffectorCam@@V?$xalloc@PAVCEffectorCam@@@@@stlp_std@@QAE@XZ ; stlp_std::list<CEffectorCam *,xalloc<CEffectorCam *> >::~list<CEffectorCam *,xalloc<CEffectorCam *> >
PUBLIC	??0?$xr_list@PAVCEffectorCam@@V?$xalloc@PAVCEffectorCam@@@@@@QAE@ABV0@@Z ; xr_list<CEffectorCam *,xalloc<CEffectorCam *> >::xr_list<CEffectorCam *,xalloc<CEffectorCam *> >
PUBLIC	??1?$xr_vector@PAVCEffectorPP@@V?$xalloc@PAVCEffectorPP@@@@@@QAE@XZ ; xr_vector<CEffectorPP *,xalloc<CEffectorPP *> >::~xr_vector<CEffectorPP *,xalloc<CEffectorPP *> >
PUBLIC	??0?$vector@PAVCEffectorPP@@V?$xalloc@PAVCEffectorPP@@@@@stlp_std@@QAE@ABV01@@Z ; stlp_std::vector<CEffectorPP *,xalloc<CEffectorPP *> >::vector<CEffectorPP *,xalloc<CEffectorPP *> >
PUBLIC	??1?$vector@PAVCEffectorPP@@V?$xalloc@PAVCEffectorPP@@@@@stlp_std@@QAE@XZ ; stlp_std::vector<CEffectorPP *,xalloc<CEffectorPP *> >::~vector<CEffectorPP *,xalloc<CEffectorPP *> >
PUBLIC	??0?$xr_vector@PAVCEffectorPP@@V?$xalloc@PAVCEffectorPP@@@@@@QAE@ABV0@@Z ; xr_vector<CEffectorPP *,xalloc<CEffectorPP *> >::xr_vector<CEffectorPP *,xalloc<CEffectorPP *> >
PUBLIC	?begin@?$_Impl_list@PAXV?$xalloc@PAX@@@priv@stlp_std@@QBE?AU?$_List_iterator@PAXU?$_Const_traits@PAX@stlp_std@@@23@XZ ; stlp_std::priv::_Impl_list<void *,xalloc<void *> >::begin
PUBLIC	??0?$_List_iterator@PAXU?$_Const_traits@PAX@stlp_std@@@priv@stlp_std@@QAE@PAU_List_node_base@12@@Z ; stlp_std::priv::_List_iterator<void *,stlp_std::_Const_traits<void *> >::_List_iterator<void *,stlp_std::_Const_traits<void *> >
PUBLIC	?end@?$_Impl_list@PAXV?$xalloc@PAX@@@priv@stlp_std@@QBE?AU?$_List_iterator@PAXU?$_Const_traits@PAX@stlp_std@@@23@XZ ; stlp_std::priv::_Impl_list<void *,xalloc<void *> >::end
PUBLIC	?erase@?$_Impl_list@PAXV?$xalloc@PAX@@@priv@stlp_std@@QAE?AU?$_List_iterator@PAXU?$_Nonconst_traits@PAX@stlp_std@@@23@U423@@Z ; stlp_std::priv::_Impl_list<void *,xalloc<void *> >::erase
PUBLIC	?erase@?$_Impl_list@PAXV?$xalloc@PAX@@@priv@stlp_std@@QAE?AU?$_List_iterator@PAXU?$_Nonconst_traits@PAX@stlp_std@@@23@U423@0@Z ; stlp_std::priv::_Impl_list<void *,xalloc<void *> >::erase
PUBLIC	??E?$_List_iterator@PAXU?$_Nonconst_traits@PAX@stlp_std@@@priv@stlp_std@@QAE?AU012@H@Z ; stlp_std::priv::_List_iterator<void *,stlp_std::_Nonconst_traits<void *> >::operator++
PUBLIC	??E?$_List_iterator@PAXU?$_Const_traits@PAX@stlp_std@@@priv@stlp_std@@QAE?AU012@H@Z ; stlp_std::priv::_List_iterator<void *,stlp_std::_Const_traits<void *> >::operator++
PUBLIC	??8?$_List_iterator@PAXU?$_Const_traits@PAX@stlp_std@@@priv@stlp_std@@QBE_NU012@@Z ; stlp_std::priv::_List_iterator<void *,stlp_std::_Const_traits<void *> >::operator==
PUBLIC	?empty@?$_List_base@PAXV?$xalloc@PAX@@@priv@stlp_std@@QBE_NXZ ; stlp_std::priv::_List_base<void *,xalloc<void *> >::empty
PUBLIC	?end@?$_Impl_list@PAXV?$xalloc@PAX@@@priv@stlp_std@@QAE?AU?$_List_iterator@PAXU?$_Nonconst_traits@PAX@stlp_std@@@23@XZ ; stlp_std::priv::_Impl_list<void *,xalloc<void *> >::end
PUBLIC	??$?8PAXPAX@@YA_NABV?$xalloc@PAX@@0@Z		; operator==<void *,void *>
PUBLIC	?_Transfer@?$_List_global@_N@priv@stlp_std@@SAXPAU_List_node_base@23@00@Z ; stlp_std::priv::_List_global<bool>::_Transfer
PUBLIC	??$?0V?$_List_node@PAX@priv@stlp_std@@@?$xalloc@PAX@@QAE@ABV?$xalloc@V?$_List_node@PAX@priv@stlp_std@@@@@Z ; xalloc<void *>::xalloc<void *><stlp_std::priv::_List_node<void *> >
PUBLIC	?get_allocator@?$_List_base@PAXV?$xalloc@PAX@@@priv@stlp_std@@QBE?AV?$xalloc@PAX@@XZ ; stlp_std::priv::_List_base<void *,xalloc<void *> >::get_allocator
PUBLIC	??1?$_Impl_list@PAXV?$xalloc@PAX@@@priv@stlp_std@@QAE@XZ ; stlp_std::priv::_Impl_list<void *,xalloc<void *> >::~_Impl_list<void *,xalloc<void *> >
PUBLIC	??D?$_List_iterator@PAXU?$_Nonconst_traits@PAX@stlp_std@@@priv@stlp_std@@QBEAAPAXXZ ; stlp_std::priv::_List_iterator<void *,stlp_std::_Nonconst_traits<void *> >::operator*
PUBLIC	??E?$_List_iterator@PAXU?$_Nonconst_traits@PAX@stlp_std@@@priv@stlp_std@@QAEAAU012@XZ ; stlp_std::priv::_List_iterator<void *,stlp_std::_Nonconst_traits<void *> >::operator++
PUBLIC	??9?$_List_iterator@PAXU?$_Nonconst_traits@PAX@stlp_std@@@priv@stlp_std@@QBE_NU?$_List_iterator@PAXU?$_Const_traits@PAX@stlp_std@@@12@@Z ; stlp_std::priv::_List_iterator<void *,stlp_std::_Nonconst_traits<void *> >::operator!=
PUBLIC	??0?$_List_iterator@PAXU?$_Const_traits@PAX@stlp_std@@@priv@stlp_std@@QAE@ABU?$_List_iterator@PAXU?$_Nonconst_traits@PAX@stlp_std@@@12@@Z ; stlp_std::priv::_List_iterator<void *,stlp_std::_Const_traits<void *> >::_List_iterator<void *,stlp_std::_Const_traits<void *> >
PUBLIC	??$_M_insert_dispatch@U?$_List_iterator@PAXU?$_Nonconst_traits@PAX@stlp_std@@@priv@stlp_std@@@?$_Impl_list@PAXV?$xalloc@PAX@@@priv@stlp_std@@AAEXU?$_List_iterator@PAXU?$_Nonconst_traits@PAX@stlp_std@@@12@00ABU__false_type@2@@Z ; stlp_std::priv::_Impl_list<void *,xalloc<void *> >::_M_insert_dispatch<stlp_std::priv::_List_iterator<void *,stlp_std::_Nonconst_traits<void *> > >
PUBLIC	??$_M_insert@U?$_List_iterator@PAXU?$_Nonconst_traits@PAX@stlp_std@@@priv@stlp_std@@@?$_Impl_list@PAXV?$xalloc@PAX@@@priv@stlp_std@@AAEXU?$_List_iterator@PAXU?$_Nonconst_traits@PAX@stlp_std@@@12@00@Z ; stlp_std::priv::_Impl_list<void *,xalloc<void *> >::_M_insert<stlp_std::priv::_List_iterator<void *,stlp_std::_Nonconst_traits<void *> > >
PUBLIC	??$?0U?$_List_iterator@PAXU?$_Nonconst_traits@PAX@stlp_std@@@priv@stlp_std@@@?$_Impl_list@PAXV?$xalloc@PAX@@@priv@stlp_std@@QAE@U?$_List_iterator@PAXU?$_Nonconst_traits@PAX@stlp_std@@@12@0ABV?$xalloc@PAX@@@Z ; stlp_std::priv::_Impl_list<void *,xalloc<void *> >::_Impl_list<void *,xalloc<void *> ><stlp_std::priv::_List_iterator<void *,stlp_std::_Nonconst_traits<void *> > >
PUBLIC	??$_M_splice_insert_dispatch@U?$_List_iterator@PAXU?$_Nonconst_traits@PAX@stlp_std@@@priv@stlp_std@@@?$_Impl_list@PAXV?$xalloc@PAX@@@priv@stlp_std@@AAEXU?$_List_iterator@PAXU?$_Nonconst_traits@PAX@stlp_std@@@12@00ABU__false_type@2@@Z ; stlp_std::priv::_Impl_list<void *,xalloc<void *> >::_M_splice_insert_dispatch<stlp_std::priv::_List_iterator<void *,stlp_std::_Nonconst_traits<void *> > >
PUBLIC	??$insert@U?$_List_iterator@PAXU?$_Nonconst_traits@PAX@stlp_std@@@priv@stlp_std@@@?$_Impl_list@PAXV?$xalloc@PAX@@@priv@stlp_std@@QAEXU?$_List_iterator@PAXU?$_Nonconst_traits@PAX@stlp_std@@@12@00@Z ; stlp_std::priv::_Impl_list<void *,xalloc<void *> >::insert<stlp_std::priv::_List_iterator<void *,stlp_std::_Nonconst_traits<void *> > >
PUBLIC	?splice@?$_Impl_list@PAXV?$xalloc@PAX@@@priv@stlp_std@@QAEXU?$_List_iterator@PAXU?$_Nonconst_traits@PAX@stlp_std@@@23@AAV123@@Z ; stlp_std::priv::_Impl_list<void *,xalloc<void *> >::splice
PUBLIC	?_M_empty_initialize@?$_List_base@PAXV?$xalloc@PAX@@@priv@stlp_std@@QAEXXZ ; stlp_std::priv::_List_base<void *,xalloc<void *> >::_M_empty_initialize
PUBLIC	??0?$xalloc@V?$_List_node@PAX@priv@stlp_std@@@@QAE@ABV0@@Z ; xalloc<stlp_std::priv::_List_node<void *> >::xalloc<stlp_std::priv::_List_node<void *> >
PUBLIC	??0?$_STLP_alloc_proxy@U_List_node_base@priv@stlp_std@@V?$_List_node@PAX@23@V?$xalloc@V?$_List_node@PAX@priv@stlp_std@@@@@priv@stlp_std@@QAE@ABV?$xalloc@V?$_List_node@PAX@priv@stlp_std@@@@U_List_node_base@12@@Z ; stlp_std::priv::_STLP_alloc_proxy<stlp_std::priv::_List_node_base,stlp_std::priv::_List_node<void *>,xalloc<stlp_std::priv::_List_node<void *> > >::_STLP_alloc_proxy<stlp_std::priv::_List_node_base,stlp_std::priv::_List_node<void *>,xalloc<stlp_std::priv::_List_node<void *> > >
PUBLIC	??$?0PAX@?$xalloc@V?$_List_node@PAX@priv@stlp_std@@@@QAE@ABV?$xalloc@PAX@@@Z ; xalloc<stlp_std::priv::_List_node<void *> >::xalloc<stlp_std::priv::_List_node<void *> ><void *>
PUBLIC	??0?$_List_base@PAXV?$xalloc@PAX@@@priv@stlp_std@@QAE@ABV?$xalloc@PAX@@@Z ; stlp_std::priv::_List_base<void *,xalloc<void *> >::_List_base<void *,xalloc<void *> >
PUBLIC	??$xr_free@V?$_List_node@PAX@priv@stlp_std@@@@YAXAAPAV?$_List_node@PAX@priv@stlp_std@@@Z ; xr_free<stlp_std::priv::_List_node<void *> >
PUBLIC	?deallocate@?$xalloc@V?$_List_node@PAX@priv@stlp_std@@@@QBEXPAV?$_List_node@PAX@priv@stlp_std@@I@Z ; xalloc<stlp_std::priv::_List_node<void *> >::deallocate
PUBLIC	?clear@?$_List_base@PAXV?$xalloc@PAX@@@priv@stlp_std@@QAEXXZ ; stlp_std::priv::_List_base<void *,xalloc<void *> >::clear
PUBLIC	??1?$_List_base@PAXV?$xalloc@PAX@@@priv@stlp_std@@QAE@XZ ; stlp_std::priv::_List_base<void *,xalloc<void *> >::~_List_base<void *,xalloc<void *> >
PUBLIC	?begin@?$_Impl_list@PAXV?$xalloc@PAX@@@priv@stlp_std@@QAE?AU?$_List_iterator@PAXU?$_Nonconst_traits@PAX@stlp_std@@@23@XZ ; stlp_std::priv::_Impl_list<void *,xalloc<void *> >::begin
PUBLIC	??$xr_alloc@V?$_List_node@PAX@priv@stlp_std@@@@YAPAV?$_List_node@PAX@priv@stlp_std@@I@Z ; xr_alloc<stlp_std::priv::_List_node<void *> >
PUBLIC	?allocate@?$xalloc@V?$_List_node@PAX@priv@stlp_std@@@@QBEPAV?$_List_node@PAX@priv@stlp_std@@IPBX@Z ; xalloc<stlp_std::priv::_List_node<void *> >::allocate
PUBLIC	?allocate@?$_STLP_alloc_proxy@U_List_node_base@priv@stlp_std@@V?$_List_node@PAX@23@V?$xalloc@V?$_List_node@PAX@priv@stlp_std@@@@@priv@stlp_std@@QAEPAV?$_List_node@PAX@23@I@Z ; stlp_std::priv::_STLP_alloc_proxy<stlp_std::priv::_List_node_base,stlp_std::priv::_List_node<void *>,xalloc<stlp_std::priv::_List_node<void *> > >::allocate
PUBLIC	?_M_create_node@?$_Impl_list@PAXV?$xalloc@PAX@@@priv@stlp_std@@IAEPAU_List_node_base@23@ABQAX@Z ; stlp_std::priv::_Impl_list<void *,xalloc<void *> >::_M_create_node
PUBLIC	??0?$_List_iterator@PAXU?$_Nonconst_traits@PAX@stlp_std@@@priv@stlp_std@@QAE@PAU_List_node_base@12@@Z ; stlp_std::priv::_List_iterator<void *,stlp_std::_Nonconst_traits<void *> >::_List_iterator<void *,stlp_std::_Nonconst_traits<void *> >
PUBLIC	?insert@?$_Impl_list@PAXV?$xalloc@PAX@@@priv@stlp_std@@QAE?AU?$_List_iterator@PAXU?$_Nonconst_traits@PAX@stlp_std@@@23@U423@ABQAX@Z ; stlp_std::priv::_Impl_list<void *,xalloc<void *> >::insert
PUBLIC	??0_List_iterator_base@priv@stlp_std@@QAE@PAU_List_node_base@12@@Z ; stlp_std::priv::_List_iterator_base::_List_iterator_base
PUBLIC	??0?$_List_iterator@PAXU?$_Nonconst_traits@PAX@stlp_std@@@priv@stlp_std@@QAE@ABU012@@Z ; stlp_std::priv::_List_iterator<void *,stlp_std::_Nonconst_traits<void *> >::_List_iterator<void *,stlp_std::_Nonconst_traits<void *> >
PUBLIC	??D?$_List_iterator@PAXU?$_Const_traits@PAX@stlp_std@@@priv@stlp_std@@QBEABQAXXZ ; stlp_std::priv::_List_iterator<void *,stlp_std::_Const_traits<void *> >::operator*
PUBLIC	?_M_incr@_List_iterator_base@priv@stlp_std@@QAEXXZ ; stlp_std::priv::_List_iterator_base::_M_incr
PUBLIC	??E?$_List_iterator@PAXU?$_Const_traits@PAX@stlp_std@@@priv@stlp_std@@QAEAAU012@XZ ; stlp_std::priv::_List_iterator<void *,stlp_std::_Const_traits<void *> >::operator++
PUBLIC	??9?$_List_iterator@PAXU?$_Const_traits@PAX@stlp_std@@@priv@stlp_std@@QBE_NU012@@Z ; stlp_std::priv::_List_iterator<void *,stlp_std::_Const_traits<void *> >::operator!=
PUBLIC	??$_M_insert_dispatch@U?$_List_iterator@PAXU?$_Const_traits@PAX@stlp_std@@@priv@stlp_std@@@?$_Impl_list@PAXV?$xalloc@PAX@@@priv@stlp_std@@AAEXU?$_List_iterator@PAXU?$_Nonconst_traits@PAX@stlp_std@@@12@U?$_List_iterator@PAXU?$_Const_traits@PAX@stlp_std@@@12@1ABU__false_type@2@@Z ; stlp_std::priv::_Impl_list<void *,xalloc<void *> >::_M_insert_dispatch<stlp_std::priv::_List_iterator<void *,stlp_std::_Const_traits<void *> > >
PUBLIC	??$_M_insert@U?$_List_iterator@PAXU?$_Const_traits@PAX@stlp_std@@@priv@stlp_std@@@?$_Impl_list@PAXV?$xalloc@PAX@@@priv@stlp_std@@AAEXU?$_List_iterator@PAXU?$_Nonconst_traits@PAX@stlp_std@@@12@U?$_List_iterator@PAXU?$_Const_traits@PAX@stlp_std@@@12@1@Z ; stlp_std::priv::_Impl_list<void *,xalloc<void *> >::_M_insert<stlp_std::priv::_List_iterator<void *,stlp_std::_Const_traits<void *> > >
PUBLIC	??$?0U?$_List_iterator@PAXU?$_Const_traits@PAX@stlp_std@@@priv@stlp_std@@@?$_Impl_list@PAXV?$xalloc@PAX@@@priv@stlp_std@@QAE@U?$_List_iterator@PAXU?$_Const_traits@PAX@stlp_std@@@12@0ABV?$xalloc@PAX@@@Z ; stlp_std::priv::_Impl_list<void *,xalloc<void *> >::_Impl_list<void *,xalloc<void *> ><stlp_std::priv::_List_iterator<void *,stlp_std::_Const_traits<void *> > >
PUBLIC	??$_M_splice_insert_dispatch@U?$_List_iterator@PAXU?$_Const_traits@PAX@stlp_std@@@priv@stlp_std@@@?$_Impl_list@PAXV?$xalloc@PAX@@@priv@stlp_std@@AAEXU?$_List_iterator@PAXU?$_Nonconst_traits@PAX@stlp_std@@@12@U?$_List_iterator@PAXU?$_Const_traits@PAX@stlp_std@@@12@1ABU__false_type@2@@Z ; stlp_std::priv::_Impl_list<void *,xalloc<void *> >::_M_splice_insert_dispatch<stlp_std::priv::_List_iterator<void *,stlp_std::_Const_traits<void *> > >
PUBLIC	??$insert@U?$_List_iterator@PAXU?$_Const_traits@PAX@stlp_std@@@priv@stlp_std@@@?$_Impl_list@PAXV?$xalloc@PAX@@@priv@stlp_std@@QAEXU?$_List_iterator@PAXU?$_Nonconst_traits@PAX@stlp_std@@@12@U?$_List_iterator@PAXU?$_Const_traits@PAX@stlp_std@@@12@1@Z ; stlp_std::priv::_Impl_list<void *,xalloc<void *> >::insert<stlp_std::priv::_List_iterator<void *,stlp_std::_Const_traits<void *> > >
PUBLIC	??4?$_Impl_list@PAXV?$xalloc@PAX@@@priv@stlp_std@@QAEAAV012@ABV012@@Z ; stlp_std::priv::_Impl_list<void *,xalloc<void *> >::operator=
PUBLIC	??4?$list@PAVCEffectorCam@@V?$xalloc@PAVCEffectorCam@@@@@stlp_std@@QAEAAV01@ABV01@@Z ; stlp_std::list<CEffectorCam *,xalloc<CEffectorCam *> >::operator=
PUBLIC	??4?$xr_list@PAVCEffectorCam@@V?$xalloc@PAVCEffectorCam@@@@@@QAEAAV0@ABV0@@Z ; xr_list<CEffectorCam *,xalloc<CEffectorCam *> >::operator=
PUBLIC	??4?$vector@PAVCEffectorPP@@V?$xalloc@PAVCEffectorPP@@@@@stlp_std@@QAEAAV01@ABV01@@Z ; stlp_std::vector<CEffectorPP *,xalloc<CEffectorPP *> >::operator=
PUBLIC	??4?$xr_vector@PAVCEffectorPP@@V?$xalloc@PAVCEffectorPP@@@@@@QAEAAV0@ABV0@@Z ; xr_vector<CEffectorPP *,xalloc<CEffectorPP *> >::operator=
PUBLIC	?add@?$_vector3@M@@QAEAAU1@ABU1@@Z		; _vector3<float>::add
PUBLIC	??7?$resptr_core@Vref_sound_data@@V?$resptr_base@Vref_sound_data@@@@@@QBE_NXZ ; resptr_core<ref_sound_data,resptr_base<ref_sound_data> >::operator!
PUBLIC	?begin@?$vector@PAVISpatial@@V?$xalloc@PAVISpatial@@@@@stlp_std@@QAEPAPAVISpatial@@XZ ; stlp_std::vector<ISpatial *,xalloc<ISpatial *> >::begin
PUBLIC	?end@?$vector@PAVISpatial@@V?$xalloc@PAVISpatial@@@@@stlp_std@@QAEPAPAVISpatial@@XZ ; stlp_std::vector<ISpatial *,xalloc<ISpatial *> >::end
PUBLIC	?_M_erase@?$_Impl_vector@PAXV?$xalloc@PAX@@@priv@stlp_std@@AAEPAPAXPAPAX0ABU__false_type@3@@Z ; stlp_std::priv::_Impl_vector<void *,xalloc<void *> >::_M_erase
PUBLIC	?erase@?$_Impl_vector@PAXV?$xalloc@PAX@@@priv@stlp_std@@QAEPAPAXPAPAX0@Z ; stlp_std::priv::_Impl_vector<void *,xalloc<void *> >::erase
PUBLIC	?to_value_type_ptr@?$_CastTraits@PAXPAVISpatial@@@priv@stlp_std@@SAPAPAVISpatial@@PAPAX@Z ; stlp_std::priv::_CastTraits<void *,ISpatial *>::to_value_type_ptr
PUBLIC	?to_storage_type_ptr@?$_CastTraits@PAXPAVISpatial@@@priv@stlp_std@@SAPAPAXPAPAVISpatial@@@Z ; stlp_std::priv::_CastTraits<void *,ISpatial *>::to_storage_type_ptr
PUBLIC	?erase@?$vector@PAVISpatial@@V?$xalloc@PAVISpatial@@@@@stlp_std@@QAEPAPAVISpatial@@PAPAV3@0@Z ; stlp_std::vector<ISpatial *,xalloc<ISpatial *> >::erase
PUBLIC	?clear_not_free@?$xr_vector@PAVISpatial@@V?$xalloc@PAVISpatial@@@@@@QAEXXZ ; xr_vector<ISpatial *,xalloc<ISpatial *> >::clear_not_free
PUBLIC	??$__destroy_mv_srcs@V?$reverse_iterator@PAU_esound_delegate@IGame_Level@@@stlp_std@@U_esound_delegate@IGame_Level@@@stlp_std@@YAXV?$reverse_iterator@PAU_esound_delegate@IGame_Level@@@0@0PAU_esound_delegate@IGame_Level@@@Z ; stlp_std::__destroy_mv_srcs<stlp_std::reverse_iterator<IGame_Level::_esound_delegate *>,IGame_Level::_esound_delegate>
PUBLIC	??$_Destroy_Moved_Range@V?$reverse_iterator@PAU_esound_delegate@IGame_Level@@@stlp_std@@@stlp_std@@YAXV?$reverse_iterator@PAU_esound_delegate@IGame_Level@@@0@0@Z ; stlp_std::_Destroy_Moved_Range<stlp_std::reverse_iterator<IGame_Level::_esound_delegate *> >
PUBLIC	?_M_clear_after_move@?$_Impl_vector@U_esound_delegate@IGame_Level@@V?$xalloc@U_esound_delegate@IGame_Level@@@@@priv@stlp_std@@AAEXXZ ; stlp_std::priv::_Impl_vector<IGame_Level::_esound_delegate,xalloc<IGame_Level::_esound_delegate> >::_M_clear_after_move
PUBLIC	?_M_set@?$_Impl_vector@U_esound_delegate@IGame_Level@@V?$xalloc@U_esound_delegate@IGame_Level@@@@@priv@stlp_std@@AAEXPAU_esound_delegate@IGame_Level@@00@Z ; stlp_std::priv::_Impl_vector<IGame_Level::_esound_delegate,xalloc<IGame_Level::_esound_delegate> >::_M_set
PUBLIC	??$__ucopy@PAU_esound_delegate@IGame_Level@@PAU12@H@priv@stlp_std@@YAPAU_esound_delegate@IGame_Level@@PAU23@00ABUrandom_access_iterator_tag@1@PAH@Z ; stlp_std::priv::__ucopy<IGame_Level::_esound_delegate *,IGame_Level::_esound_delegate *,int>
PUBLIC	??$__ucopy_ptrs@PAU_esound_delegate@IGame_Level@@PAU12@@priv@stlp_std@@YAPAU_esound_delegate@IGame_Level@@PAU23@00ABU__false_type@1@@Z ; stlp_std::priv::__ucopy_ptrs<IGame_Level::_esound_delegate *,IGame_Level::_esound_delegate *>
PUBLIC	??$__uninitialized_move@PAU_esound_delegate@IGame_Level@@PAU12@U__false_type@stlp_std@@@priv@stlp_std@@YAPAU_esound_delegate@IGame_Level@@PAU23@00U__false_type@1@ABU41@@Z ; stlp_std::priv::__uninitialized_move<IGame_Level::_esound_delegate *,IGame_Level::_esound_delegate *,stlp_std::__false_type>
PUBLIC	??$__ufill@PAU_esound_delegate@IGame_Level@@U12@H@priv@stlp_std@@YAXPAU_esound_delegate@IGame_Level@@0ABU23@ABUrandom_access_iterator_tag@1@PAH@Z ; stlp_std::priv::__ufill<IGame_Level::_esound_delegate *,IGame_Level::_esound_delegate,int>
PUBLIC	??$__uninitialized_fill_n@PAU_esound_delegate@IGame_Level@@IU12@@priv@stlp_std@@YAPAU_esound_delegate@IGame_Level@@PAU23@IABU23@@Z ; stlp_std::priv::__uninitialized_fill_n<IGame_Level::_esound_delegate *,unsigned int,IGame_Level::_esound_delegate>
PUBLIC	?_M_insert_overflow_aux@?$_Impl_vector@U_esound_delegate@IGame_Level@@V?$xalloc@U_esound_delegate@IGame_Level@@@@@priv@stlp_std@@AAEXPAU_esound_delegate@IGame_Level@@ABU45@ABU__false_type@3@I_N@Z ; stlp_std::priv::_Impl_vector<IGame_Level::_esound_delegate,xalloc<IGame_Level::_esound_delegate> >::_M_insert_overflow_aux
PUBLIC	?_M_insert_overflow@?$_Impl_vector@U_esound_delegate@IGame_Level@@V?$xalloc@U_esound_delegate@IGame_Level@@@@@priv@stlp_std@@AAEXPAU_esound_delegate@IGame_Level@@ABU45@ABU__false_type@3@I_N@Z ; stlp_std::priv::_Impl_vector<IGame_Level::_esound_delegate,xalloc<IGame_Level::_esound_delegate> >::_M_insert_overflow
PUBLIC	??$_Copy_Construct@U_esound_delegate@IGame_Level@@@stlp_std@@YAXPAU_esound_delegate@IGame_Level@@ABU12@@Z ; stlp_std::_Copy_Construct<IGame_Level::_esound_delegate>
PUBLIC	?push_back@?$_Impl_vector@U_esound_delegate@IGame_Level@@V?$xalloc@U_esound_delegate@IGame_Level@@@@@priv@stlp_std@@QAEXABU_esound_delegate@IGame_Level@@@Z ; stlp_std::priv::_Impl_vector<IGame_Level::_esound_delegate,xalloc<IGame_Level::_esound_delegate> >::push_back
PUBLIC	?to_storage_type_cref@?$_CastTraits@U_esound_delegate@IGame_Level@@U12@@priv@stlp_std@@SAABU_esound_delegate@IGame_Level@@ABU45@@Z ; stlp_std::priv::_CastTraits<IGame_Level::_esound_delegate,IGame_Level::_esound_delegate>::to_storage_type_cref
PUBLIC	?push_back@?$vector@U_esound_delegate@IGame_Level@@V?$xalloc@U_esound_delegate@IGame_Level@@@@@stlp_std@@QAEXABU_esound_delegate@IGame_Level@@@Z ; stlp_std::vector<IGame_Level::_esound_delegate,xalloc<IGame_Level::_esound_delegate> >::push_back
PUBLIC	??$_min@M@@YAMMM@Z				; _min<float>
PUBLIC	?_inc@?$resptr_base@VCSound_UserData@@@@IAEXXZ	; resptr_base<CSound_UserData>::_inc
PUBLIC	??0?$resptr_core@VCSound_UserData@@V?$resptr_base@VCSound_UserData@@@@@@QAE@ABV0@@Z ; resptr_core<CSound_UserData,resptr_base<CSound_UserData> >::resptr_core<CSound_UserData,resptr_base<CSound_UserData> >
PUBLIC	??R?$xr_special_free@$00VCSound_UserData@@@@QAEXAAPAVCSound_UserData@@@Z ; xr_special_free<1,CSound_UserData>::operator()
PUBLIC	??$xr_delete@VCSound_UserData@@@@YAXAAPAVCSound_UserData@@@Z ; xr_delete<CSound_UserData>
PUBLIC	?_dec@?$resptr_base@VCSound_UserData@@@@IAEXXZ	; resptr_base<CSound_UserData>::_dec
PUBLIC	??1?$resptr_core@VCSound_UserData@@V?$resptr_base@VCSound_UserData@@@@@@QAE@XZ ; resptr_core<CSound_UserData,resptr_base<CSound_UserData> >::~resptr_core<CSound_UserData,resptr_base<CSound_UserData> >
PUBLIC	??C?$resptr_core@Vref_sound_data@@V?$resptr_base@Vref_sound_data@@@@@@QBEPAVref_sound_data@@XZ ; resptr_core<ref_sound_data,resptr_base<ref_sound_data> >::operator->
PUBLIC	?empty@?$_Impl_vector@U_esound_delegate@IGame_Level@@V?$xalloc@U_esound_delegate@IGame_Level@@@@@priv@stlp_std@@QBE_NXZ ; stlp_std::priv::_Impl_vector<IGame_Level::_esound_delegate,xalloc<IGame_Level::_esound_delegate> >::empty
PUBLIC	?empty@?$vector@U_esound_delegate@IGame_Level@@V?$xalloc@U_esound_delegate@IGame_Level@@@@@stlp_std@@QBE_NXZ ; stlp_std::vector<IGame_Level::_esound_delegate,xalloc<IGame_Level::_esound_delegate> >::empty
PUBLIC	?back@?$_Impl_vector@U_esound_delegate@IGame_Level@@V?$xalloc@U_esound_delegate@IGame_Level@@@@@priv@stlp_std@@QAEAAU_esound_delegate@IGame_Level@@XZ ; stlp_std::priv::_Impl_vector<IGame_Level::_esound_delegate,xalloc<IGame_Level::_esound_delegate> >::back
PUBLIC	?to_value_type_ref@?$_CastTraits@U_esound_delegate@IGame_Level@@U12@@priv@stlp_std@@SAAAU_esound_delegate@IGame_Level@@AAU45@@Z ; stlp_std::priv::_CastTraits<IGame_Level::_esound_delegate,IGame_Level::_esound_delegate>::to_value_type_ref
PUBLIC	?back@?$vector@U_esound_delegate@IGame_Level@@V?$xalloc@U_esound_delegate@IGame_Level@@@@@stlp_std@@QAEAAU_esound_delegate@IGame_Level@@XZ ; stlp_std::vector<IGame_Level::_esound_delegate,xalloc<IGame_Level::_esound_delegate> >::back
PUBLIC	??$_Destroy@U_esound_delegate@IGame_Level@@@stlp_std@@YAXPAU_esound_delegate@IGame_Level@@@Z ; stlp_std::_Destroy<IGame_Level::_esound_delegate>
PUBLIC	?pop_back@?$_Impl_vector@U_esound_delegate@IGame_Level@@V?$xalloc@U_esound_delegate@IGame_Level@@@@@priv@stlp_std@@QAEXXZ ; stlp_std::priv::_Impl_vector<IGame_Level::_esound_delegate,xalloc<IGame_Level::_esound_delegate> >::pop_back
PUBLIC	?pop_back@?$vector@U_esound_delegate@IGame_Level@@V?$xalloc@U_esound_delegate@IGame_Level@@@@@stlp_std@@QAEXXZ ; stlp_std::vector<IGame_Level::_esound_delegate,xalloc<IGame_Level::_esound_delegate> >::pop_back
PUBLIC	?begin@?$vector@U_esound_delegate@IGame_Level@@V?$xalloc@U_esound_delegate@IGame_Level@@@@@stlp_std@@QAEPAU_esound_delegate@IGame_Level@@XZ ; stlp_std::vector<IGame_Level::_esound_delegate,xalloc<IGame_Level::_esound_delegate> >::begin
PUBLIC	?end@?$vector@U_esound_delegate@IGame_Level@@V?$xalloc@U_esound_delegate@IGame_Level@@@@@stlp_std@@QAEPAU_esound_delegate@IGame_Level@@XZ ; stlp_std::vector<IGame_Level::_esound_delegate,xalloc<IGame_Level::_esound_delegate> >::end
PUBLIC	??$__copy@PAU_esound_delegate@IGame_Level@@PAU12@H@priv@stlp_std@@YAPAU_esound_delegate@IGame_Level@@PAU23@00ABUrandom_access_iterator_tag@1@PAH@Z ; stlp_std::priv::__copy<IGame_Level::_esound_delegate *,IGame_Level::_esound_delegate *,int>
PUBLIC	??$__copy_ptrs@PAU_esound_delegate@IGame_Level@@PAU12@@priv@stlp_std@@YAPAU_esound_delegate@IGame_Level@@PAU23@00ABU__false_type@1@@Z ; stlp_std::priv::__copy_ptrs<IGame_Level::_esound_delegate *,IGame_Level::_esound_delegate *>
PUBLIC	?_M_erase@?$_Impl_vector@U_esound_delegate@IGame_Level@@V?$xalloc@U_esound_delegate@IGame_Level@@@@@priv@stlp_std@@AAEPAU_esound_delegate@IGame_Level@@PAU45@0ABU__false_type@3@@Z ; stlp_std::priv::_Impl_vector<IGame_Level::_esound_delegate,xalloc<IGame_Level::_esound_delegate> >::_M_erase
PUBLIC	?erase@?$_Impl_vector@U_esound_delegate@IGame_Level@@V?$xalloc@U_esound_delegate@IGame_Level@@@@@priv@stlp_std@@QAEPAU_esound_delegate@IGame_Level@@PAU45@0@Z ; stlp_std::priv::_Impl_vector<IGame_Level::_esound_delegate,xalloc<IGame_Level::_esound_delegate> >::erase
PUBLIC	?to_value_type_ptr@?$_CastTraits@U_esound_delegate@IGame_Level@@U12@@priv@stlp_std@@SAPAU_esound_delegate@IGame_Level@@PAU45@@Z ; stlp_std::priv::_CastTraits<IGame_Level::_esound_delegate,IGame_Level::_esound_delegate>::to_value_type_ptr
PUBLIC	?to_storage_type_ptr@?$_CastTraits@U_esound_delegate@IGame_Level@@U12@@priv@stlp_std@@SAPAU_esound_delegate@IGame_Level@@PAU45@@Z ; stlp_std::priv::_CastTraits<IGame_Level::_esound_delegate,IGame_Level::_esound_delegate>::to_storage_type_ptr
PUBLIC	?erase@?$vector@U_esound_delegate@IGame_Level@@V?$xalloc@U_esound_delegate@IGame_Level@@@@@stlp_std@@QAEPAU_esound_delegate@IGame_Level@@PAU34@0@Z ; stlp_std::vector<IGame_Level::_esound_delegate,xalloc<IGame_Level::_esound_delegate> >::erase
PUBLIC	??$__find_if@PAU_esound_delegate@IGame_Level@@Urem_pred@?1??SoundEvent_OnDestDestroy@2@QAEXPAVSound@Feel@@@Z@@priv@stlp_std@@YAPAU_esound_delegate@IGame_Level@@PAU23@0Urem_pred@?1??SoundEvent_OnDestDestroy@3@QAEXPAVSound@Feel@@@Z@ABUrandom_access_iterator_tag@1@@Z ; stlp_std::priv::__find_if<IGame_Level::_esound_delegate *,`IGame_Level::SoundEvent_OnDestDestroy'::`2'::rem_pred>
PUBLIC	??$find_if@PAU_esound_delegate@IGame_Level@@Urem_pred@?1??SoundEvent_OnDestDestroy@2@QAEXPAVSound@Feel@@@Z@@stlp_std@@YAPAU_esound_delegate@IGame_Level@@PAU12@0Urem_pred@?1??SoundEvent_OnDestDestroy@2@QAEXPAVSound@Feel@@@Z@@Z ; stlp_std::find_if<IGame_Level::_esound_delegate *,`IGame_Level::SoundEvent_OnDestDestroy'::`2'::rem_pred>
PUBLIC	??$remove_copy_if@PAU_esound_delegate@IGame_Level@@PAU12@Urem_pred@?1??SoundEvent_OnDestDestroy@2@QAEXPAVSound@Feel@@@Z@@stlp_std@@YAPAU_esound_delegate@IGame_Level@@PAU12@00Urem_pred@?1??SoundEvent_OnDestDestroy@2@QAEXPAVSound@Feel@@@Z@@Z ; stlp_std::remove_copy_if<IGame_Level::_esound_delegate *,IGame_Level::_esound_delegate *,`IGame_Level::SoundEvent_OnDestDestroy'::`2'::rem_pred>
PUBLIC	??$remove_if@PAU_esound_delegate@IGame_Level@@Urem_pred@?1??SoundEvent_OnDestDestroy@2@QAEXPAVSound@Feel@@@Z@@stlp_std@@YAPAU_esound_delegate@IGame_Level@@PAU12@0Urem_pred@?1??SoundEvent_OnDestDestroy@2@QAEXPAVSound@Feel@@@Z@@Z ; stlp_std::remove_if<IGame_Level::_esound_delegate *,`IGame_Level::SoundEvent_OnDestDestroy'::`2'::rem_pred>
PUBLIC	?g_pGameLevel@@3PAVIGame_Level@@A		; g_pGameLevel
PUBLIC	??_C@_0BF@HKOHJHAP@?9nes_texture_storing?$AA@	; `string'
PUBLIC	??_C@_0BK@CKAMLFKI@?$CK?5?$FL?5D3D?5?$FN?3?5textures?$FL?$CFd?5K?$FN?$AA@ ; `string'
PUBLIC	??_C@_0CK@IADIALMF@Can?8t?5find?5level?5configuration?5f@ ; `string'
PUBLIC	??_C@_0BC@MJBOKOMM@IGame_Level?3?3Load?$AA@	; `string'
PUBLIC	??_C@_0DE@IBGLDKLK@D?3?2CLEARSKY?2sources?2engine?2xrEng@ ; `string'
PUBLIC	??_C@_0BM@OFBFCCHI@Incompatible?5level?5version?4?$AA@ ; `string'
PUBLIC	??_C@_0CI@DDCDOLLD@XRCL_PRODUCTION_VERSION?$DN?$DNH?4XRLC_@ ; `string'
PUBLIC	??_C@_0BL@OGFKIFBJ@Load_GameSpecific_Before?$CI?$CJ?$AA@ ; `string'
PUBLIC	?psNET_DedicatedSleep@@3HA			; psNET_DedicatedSleep
PUBLIC	??_C@_03MHLONNLM@?5?$DN?5?$AA@			; `string'
PUBLIC	??_7CCameraManager@@6B@				; CCameraManager::`vftable'
PUBLIC	??_7CCustomHUD@@6BDLL_Pure@@@			; CCustomHUD::`vftable'
PUBLIC	??_7CCustomHUD@@6BIEventReceiver@@@		; CCustomHUD::`vftable'
PUBLIC	??_7CCustomHUD@@6BpureScreenResolutionChanged@@@ ; CCustomHUD::`vftable'
PUBLIC	??_7Sound@Feel@@6B@				; Feel::Sound::`vftable'
PUBLIC	??_7IGame_Level@@6BDLL_Pure@@@			; IGame_Level::`vftable'
PUBLIC	??_7IGame_Level@@6BIInputReceiver@@@		; IGame_Level::`vftable'
PUBLIC	??_7IGame_Level@@6BpureRender@@@		; IGame_Level::`vftable'
PUBLIC	??_7IGame_Level@@6BpureFrame@@@			; IGame_Level::`vftable'
PUBLIC	??_7IGame_Level@@6BIEventReceiver@@@		; IGame_Level::`vftable'
PUBLIC	??_7SBaseEffector@@6B@				; SBaseEffector::`vftable'
EXTRN	__imp_??0CObjectSpace@@QAE@XZ:PROC
EXTRN	__imp_??1CObjectSpace@@QAE@XZ:PROC
EXTRN	__imp_?r_chunk_safe@?$IReaderBase@VIReader@@@@QAEHIPAXI@Z:PROC
EXTRN	__imp_?r_open@CLocatorAPI@@QAEPAVIReader@@PBD0@Z:PROC
EXTRN	__imp_?r_close@CLocatorAPI@@QAEXAAPAVIReader@@@Z:PROC
EXTRN	__imp_?exist@CLocatorAPI@@QAEPBUfile@1@AAY0CAI@DPBD1@Z:PROC
EXTRN	__imp_?Load@CObjectSpace@@QAEXP6GXPAU?$_vector3@M@@HPAVTRI@CDB@@HPAX@Z@Z:PROC
EXTRN	__imp_?GetStaticModel@CObjectSpace@@QAEPAVMODEL@CDB@@XZ:PROC
EXTRN	__imp_?q_box@ISpatial_DB@@QAEXAAV?$xr_vector@PAVISpatial@@V?$xalloc@PAVISpatial@@@@@@IIABU?$_vector3@M@@1@Z:PROC
?g_pGameLevel@@3PAVIGame_Level@@A DD 01H DUP (?)	; g_pGameLevel
;	COMDAT ?ignore_always@?7??Load@IGame_Level@@UAEHI@Z@4_NA
_BSS	SEGMENT
?ignore_always@?7??Load@IGame_Level@@UAEHI@Z@4_NA DB 01H DUP (?) ; `IGame_Level::Load'::`8'::ignore_always
_BSS	ENDS
;	COMDAT ?ignore_always@?O@??Load@IGame_Level@@UAEHI@Z@4_NA
_BSS	SEGMENT
?ignore_always@?O@??Load@IGame_Level@@UAEHI@Z@4_NA DB 01H DUP (?) ; `IGame_Level::Load'::`14'::ignore_always
;	COMDAT ??_7SBaseEffector@@6B@
CONST	SEGMENT
??_7SBaseEffector@@6B@ DD FLAT:??_R4SBaseEffector@@6B@	; SBaseEffector::`vftable'
	DD	FLAT:??_ESBaseEffector@@UAEPAXI@Z
CONST	ENDS
;	COMDAT ??_R4SBaseEffector@@6B@
rdata$r	SEGMENT
??_R4SBaseEffector@@6B@ DD 00H				; SBaseEffector::`RTTI Complete Object Locator'
	DD	00H
	DD	00H
	DD	FLAT:??_R0?AUSBaseEffector@@@8
	DD	FLAT:??_R3SBaseEffector@@8
rdata$r	ENDS
;	COMDAT ??_R3SBaseEffector@@8
rdata$r	SEGMENT
??_R3SBaseEffector@@8 DD 00H				; SBaseEffector::`RTTI Class Hierarchy Descriptor'
	DD	00H
	DD	01H
	DD	FLAT:??_R2SBaseEffector@@8
rdata$r	ENDS
;	COMDAT ??_R2SBaseEffector@@8
rdata$r	SEGMENT
??_R2SBaseEffector@@8 DD FLAT:??_R1A@?0A@EA@SBaseEffector@@8 ; SBaseEffector::`RTTI Base Class Array'
rdata$r	ENDS
;	COMDAT ??_R1A@?0A@EA@SBaseEffector@@8
rdata$r	SEGMENT
??_R1A@?0A@EA@SBaseEffector@@8 DD FLAT:??_R0?AUSBaseEffector@@@8 ; SBaseEffector::`RTTI Base Class Descriptor at (0,-1,0,64)'
	DD	00H
	DD	00H
	DD	0ffffffffH
	DD	00H
	DD	040H
	DD	FLAT:??_R3SBaseEffector@@8
rdata$r	ENDS
;	COMDAT ??_R0?AUSBaseEffector@@@8
_DATA	SEGMENT
??_R0?AUSBaseEffector@@@8 DD FLAT:??_7type_info@@6B@	; SBaseEffector `RTTI Type Descriptor'
	DD	00H
	DB	'.?AUSBaseEffector@@', 00H
_DATA	ENDS
;	COMDAT ??_7IGame_Level@@6BIEventReceiver@@@
CONST	SEGMENT
??_7IGame_Level@@6BIEventReceiver@@@ DD FLAT:??_R4IGame_Level@@6BIEventReceiver@@@ ; IGame_Level::`vftable'
	DD	FLAT:__purecall
CONST	ENDS
;	COMDAT ??_R4IGame_Level@@6BIEventReceiver@@@
rdata$r	SEGMENT
??_R4IGame_Level@@6BIEventReceiver@@@ DD 00H		; IGame_Level::`RTTI Complete Object Locator'
	DD	01cH
	DD	00H
	DD	FLAT:??_R0?AVIGame_Level@@@8
	DD	FLAT:??_R3IGame_Level@@8
rdata$r	ENDS
;	COMDAT ??_7IGame_Level@@6BpureFrame@@@
CONST	SEGMENT
??_7IGame_Level@@6BpureFrame@@@ DD FLAT:??_R4IGame_Level@@6BpureFrame@@@ ; IGame_Level::`vftable'
	DD	FLAT:?OnFrame@IGame_Level@@UAGXXZ
CONST	ENDS
;	COMDAT ??_R4IGame_Level@@6BpureFrame@@@
rdata$r	SEGMENT
??_R4IGame_Level@@6BpureFrame@@@ DD 00H			; IGame_Level::`RTTI Complete Object Locator'
	DD	018H
	DD	00H
	DD	FLAT:??_R0?AVIGame_Level@@@8
	DD	FLAT:??_R3IGame_Level@@8
rdata$r	ENDS
;	COMDAT ??_7IGame_Level@@6BpureRender@@@
CONST	SEGMENT
??_7IGame_Level@@6BpureRender@@@ DD FLAT:??_R4IGame_Level@@6BpureRender@@@ ; IGame_Level::`vftable'
	DD	FLAT:?OnRender@IGame_Level@@UAEXXZ
CONST	ENDS
;	COMDAT ??_R4IGame_Level@@6BpureRender@@@
rdata$r	SEGMENT
??_R4IGame_Level@@6BpureRender@@@ DD 00H		; IGame_Level::`RTTI Complete Object Locator'
	DD	014H
	DD	00H
	DD	FLAT:??_R0?AVIGame_Level@@@8
	DD	FLAT:??_R3IGame_Level@@8
rdata$r	ENDS
;	COMDAT ??_7IGame_Level@@6BIInputReceiver@@@
CONST	SEGMENT
??_7IGame_Level@@6BIInputReceiver@@@ DD FLAT:??_R4IGame_Level@@6BIInputReceiver@@@ ; IGame_Level::`vftable'
	DD	FLAT:?IR_OnDeactivate@IInputReceiver@@UAEXXZ
	DD	FLAT:?IR_OnActivate@IInputReceiver@@UAEXXZ
	DD	FLAT:?IR_OnMousePress@IInputReceiver@@UAEXH@Z
	DD	FLAT:?IR_OnMouseRelease@IInputReceiver@@UAEXH@Z
	DD	FLAT:?IR_OnMouseHold@IInputReceiver@@UAEXH@Z
	DD	FLAT:?IR_OnMouseWheel@IInputReceiver@@UAEXH@Z
	DD	FLAT:?IR_OnMouseMove@IInputReceiver@@UAEXHH@Z
	DD	FLAT:?IR_OnMouseStop@IInputReceiver@@UAEXHH@Z
	DD	FLAT:?IR_OnKeyboardPress@IInputReceiver@@UAEXH@Z
	DD	FLAT:?IR_OnKeyboardRelease@IInputReceiver@@UAEXH@Z
	DD	FLAT:?IR_OnKeyboardHold@IInputReceiver@@UAEXH@Z
CONST	ENDS
;	COMDAT ??_R4IGame_Level@@6BIInputReceiver@@@
rdata$r	SEGMENT
??_R4IGame_Level@@6BIInputReceiver@@@ DD 00H		; IGame_Level::`RTTI Complete Object Locator'
	DD	010H
	DD	00H
	DD	FLAT:??_R0?AVIGame_Level@@@8
	DD	FLAT:??_R3IGame_Level@@8
rdata$r	ENDS
;	COMDAT ??_7IGame_Level@@6BDLL_Pure@@@
CONST	SEGMENT
??_7IGame_Level@@6BDLL_Pure@@@ DD FLAT:??_R4IGame_Level@@6BDLL_Pure@@@ ; IGame_Level::`vftable'
	DD	FLAT:?_construct@DLL_Pure@@UAEPAV1@XZ
	DD	FLAT:??_EIGame_Level@@UAEPAXI@Z
	DD	FLAT:__purecall
	DD	FLAT:__purecall
	DD	FLAT:__purecall
	DD	FLAT:__purecall
	DD	FLAT:__purecall
	DD	FLAT:?net_Stop@IGame_Level@@UAEXXZ
	DD	FLAT:__purecall
	DD	FLAT:?Load@IGame_Level@@UAEHI@Z
	DD	FLAT:?Load_GameSpecific_Before@IGame_Level@@UAEHXZ
	DD	FLAT:?Load_GameSpecific_After@IGame_Level@@UAEHXZ
	DD	FLAT:__purecall
	DD	FLAT:__purecall
	DD	FLAT:__purecall
	DD	FLAT:__purecall
CONST	ENDS
;	COMDAT ??_R4IGame_Level@@6BDLL_Pure@@@
rdata$r	SEGMENT
??_R4IGame_Level@@6BDLL_Pure@@@ DD 00H			; IGame_Level::`RTTI Complete Object Locator'
	DD	00H
	DD	00H
	DD	FLAT:??_R0?AVIGame_Level@@@8
	DD	FLAT:??_R3IGame_Level@@8
rdata$r	ENDS
;	COMDAT ??_R3IGame_Level@@8
rdata$r	SEGMENT
??_R3IGame_Level@@8 DD 00H				; IGame_Level::`RTTI Class Hierarchy Descriptor'
	DD	01H
	DD	06H
	DD	FLAT:??_R2IGame_Level@@8
rdata$r	ENDS
;	COMDAT ??_R2IGame_Level@@8
rdata$r	SEGMENT
??_R2IGame_Level@@8 DD FLAT:??_R1A@?0A@EA@IGame_Level@@8 ; IGame_Level::`RTTI Base Class Array'
	DD	FLAT:??_R1A@?0A@EA@DLL_Pure@@8
	DD	FLAT:??_R1BA@?0A@EA@IInputReceiver@@8
	DD	FLAT:??_R1BE@?0A@EA@pureRender@@8
	DD	FLAT:??_R1BI@?0A@EA@pureFrame@@8
	DD	FLAT:??_R1BM@?0A@EA@IEventReceiver@@8
rdata$r	ENDS
;	COMDAT ??_R1BM@?0A@EA@IEventReceiver@@8
rdata$r	SEGMENT
??_R1BM@?0A@EA@IEventReceiver@@8 DD FLAT:??_R0?AVIEventReceiver@@@8 ; IEventReceiver::`RTTI Base Class Descriptor at (28,-1,0,64)'
	DD	00H
	DD	01cH
	DD	0ffffffffH
	DD	00H
	DD	040H
	DD	FLAT:??_R3IEventReceiver@@8
rdata$r	ENDS
;	COMDAT ??_R1BI@?0A@EA@pureFrame@@8
rdata$r	SEGMENT
??_R1BI@?0A@EA@pureFrame@@8 DD FLAT:??_R0?AVpureFrame@@@8 ; pureFrame::`RTTI Base Class Descriptor at (24,-1,0,64)'
	DD	00H
	DD	018H
	DD	0ffffffffH
	DD	00H
	DD	040H
	DD	FLAT:??_R3pureFrame@@8
rdata$r	ENDS
;	COMDAT ??_R1BE@?0A@EA@pureRender@@8
rdata$r	SEGMENT
??_R1BE@?0A@EA@pureRender@@8 DD FLAT:??_R0?AVpureRender@@@8 ; pureRender::`RTTI Base Class Descriptor at (20,-1,0,64)'
	DD	00H
	DD	014H
	DD	0ffffffffH
	DD	00H
	DD	040H
	DD	FLAT:??_R3pureRender@@8
rdata$r	ENDS
;	COMDAT ??_R1BA@?0A@EA@IInputReceiver@@8
rdata$r	SEGMENT
??_R1BA@?0A@EA@IInputReceiver@@8 DD FLAT:??_R0?AVIInputReceiver@@@8 ; IInputReceiver::`RTTI Base Class Descriptor at (16,-1,0,64)'
	DD	00H
	DD	010H
	DD	0ffffffffH
	DD	00H
	DD	040H
	DD	FLAT:??_R3IInputReceiver@@8
rdata$r	ENDS
;	COMDAT ??_R1A@?0A@EA@IGame_Level@@8
rdata$r	SEGMENT
??_R1A@?0A@EA@IGame_Level@@8 DD FLAT:??_R0?AVIGame_Level@@@8 ; IGame_Level::`RTTI Base Class Descriptor at (0,-1,0,64)'
	DD	05H
	DD	00H
	DD	0ffffffffH
	DD	00H
	DD	040H
	DD	FLAT:??_R3IGame_Level@@8
rdata$r	ENDS
;	COMDAT ??_R0?AVIGame_Level@@@8
_DATA	SEGMENT
??_R0?AVIGame_Level@@@8 DD FLAT:??_7type_info@@6B@	; IGame_Level `RTTI Type Descriptor'
	DD	00H
	DB	'.?AVIGame_Level@@', 00H
_DATA	ENDS
;	COMDAT ??_7Sound@Feel@@6B@
CONST	SEGMENT
??_7Sound@Feel@@6B@ DD FLAT:??_R4Sound@Feel@@6B@	; Feel::Sound::`vftable'
	DD	FLAT:?feel_sound_new@Sound@Feel@@UAEXPAVCObject@@HV?$resptr_core@VCSound_UserData@@V?$resptr_base@VCSound_UserData@@@@@@ABU?$_vector3@M@@M@Z
CONST	ENDS
;	COMDAT ??_R4Sound@Feel@@6B@
rdata$r	SEGMENT
??_R4Sound@Feel@@6B@ DD 00H				; Feel::Sound::`RTTI Complete Object Locator'
	DD	00H
	DD	00H
	DD	FLAT:??_R0?AVSound@Feel@@@8
	DD	FLAT:??_R3Sound@Feel@@8
rdata$r	ENDS
;	COMDAT ??_R3Sound@Feel@@8
rdata$r	SEGMENT
??_R3Sound@Feel@@8 DD 00H				; Feel::Sound::`RTTI Class Hierarchy Descriptor'
	DD	00H
	DD	01H
	DD	FLAT:??_R2Sound@Feel@@8
rdata$r	ENDS
;	COMDAT ??_R2Sound@Feel@@8
rdata$r	SEGMENT
??_R2Sound@Feel@@8 DD FLAT:??_R1A@?0A@EA@Sound@Feel@@8	; Feel::Sound::`RTTI Base Class Array'
rdata$r	ENDS
;	COMDAT ??_R1A@?0A@EA@Sound@Feel@@8
rdata$r	SEGMENT
??_R1A@?0A@EA@Sound@Feel@@8 DD FLAT:??_R0?AVSound@Feel@@@8 ; Feel::Sound::`RTTI Base Class Descriptor at (0,-1,0,64)'
	DD	00H
	DD	00H
	DD	0ffffffffH
	DD	00H
	DD	040H
	DD	FLAT:??_R3Sound@Feel@@8
rdata$r	ENDS
;	COMDAT ??_R0?AVSound@Feel@@@8
_DATA	SEGMENT
??_R0?AVSound@Feel@@@8 DD FLAT:??_7type_info@@6B@	; Feel::Sound `RTTI Type Descriptor'
	DD	00H
	DB	'.?AVSound@Feel@@', 00H
_DATA	ENDS
;	COMDAT ??_7CCustomHUD@@6BpureScreenResolutionChanged@@@
CONST	SEGMENT
??_7CCustomHUD@@6BpureScreenResolutionChanged@@@ DD FLAT:??_R4CCustomHUD@@6BpureScreenResolutionChanged@@@ ; CCustomHUD::`vftable'
	DD	FLAT:__purecall
CONST	ENDS
;	COMDAT ??_R4CCustomHUD@@6BpureScreenResolutionChanged@@@
rdata$r	SEGMENT
??_R4CCustomHUD@@6BpureScreenResolutionChanged@@@ DD 00H ; CCustomHUD::`RTTI Complete Object Locator'
	DD	014H
	DD	00H
	DD	FLAT:??_R0?AVCCustomHUD@@@8
	DD	FLAT:??_R3CCustomHUD@@8
rdata$r	ENDS
;	COMDAT ??_7CCustomHUD@@6BIEventReceiver@@@
CONST	SEGMENT
??_7CCustomHUD@@6BIEventReceiver@@@ DD FLAT:??_R4CCustomHUD@@6BIEventReceiver@@@ ; CCustomHUD::`vftable'
	DD	FLAT:?OnEvent@CCustomHUD@@UAEXPAVCEvent@@_K1@Z
CONST	ENDS
;	COMDAT ??_R4CCustomHUD@@6BIEventReceiver@@@
rdata$r	SEGMENT
??_R4CCustomHUD@@6BIEventReceiver@@@ DD 00H		; CCustomHUD::`RTTI Complete Object Locator'
	DD	010H
	DD	00H
	DD	FLAT:??_R0?AVCCustomHUD@@@8
	DD	FLAT:??_R3CCustomHUD@@8
rdata$r	ENDS
;	COMDAT ??_7CCustomHUD@@6BDLL_Pure@@@
CONST	SEGMENT
??_7CCustomHUD@@6BDLL_Pure@@@ DD FLAT:??_R4CCustomHUD@@6BDLL_Pure@@@ ; CCustomHUD::`vftable'
	DD	FLAT:?_construct@DLL_Pure@@UAEPAV1@XZ
	DD	FLAT:??_ECCustomHUD@@UAEPAXI@Z
	DD	FLAT:?Render_First@CCustomHUD@@UAEXXZ
	DD	FLAT:?Render_Last@CCustomHUD@@UAEXXZ
	DD	FLAT:?OnFrame@CCustomHUD@@UAEXXZ
	DD	FLAT:?Load@CCustomHUD@@UAEXXZ
	DD	FLAT:__purecall
	DD	FLAT:__purecall
	DD	FLAT:__purecall
	DD	FLAT:__purecall
	DD	FLAT:__purecall
CONST	ENDS
;	COMDAT ??_R4CCustomHUD@@6BDLL_Pure@@@
rdata$r	SEGMENT
??_R4CCustomHUD@@6BDLL_Pure@@@ DD 00H			; CCustomHUD::`RTTI Complete Object Locator'
	DD	00H
	DD	00H
	DD	FLAT:??_R0?AVCCustomHUD@@@8
	DD	FLAT:??_R3CCustomHUD@@8
rdata$r	ENDS
;	COMDAT ??_R3CCustomHUD@@8
rdata$r	SEGMENT
??_R3CCustomHUD@@8 DD 00H				; CCustomHUD::`RTTI Class Hierarchy Descriptor'
	DD	01H
	DD	04H
	DD	FLAT:??_R2CCustomHUD@@8
rdata$r	ENDS
;	COMDAT ??_R2CCustomHUD@@8
rdata$r	SEGMENT
??_R2CCustomHUD@@8 DD FLAT:??_R1A@?0A@EA@CCustomHUD@@8	; CCustomHUD::`RTTI Base Class Array'
	DD	FLAT:??_R1A@?0A@EA@DLL_Pure@@8
	DD	FLAT:??_R1BA@?0A@EA@IEventReceiver@@8
	DD	FLAT:??_R1BE@?0A@EA@pureScreenResolutionChanged@@8
rdata$r	ENDS
;	COMDAT ??_R1BE@?0A@EA@pureScreenResolutionChanged@@8
rdata$r	SEGMENT
??_R1BE@?0A@EA@pureScreenResolutionChanged@@8 DD FLAT:??_R0?AVpureScreenResolutionChanged@@@8 ; pureScreenResolutionChanged::`RTTI Base Class Descriptor at (20,-1,0,64)'
	DD	00H
	DD	014H
	DD	0ffffffffH
	DD	00H
	DD	040H
	DD	FLAT:??_R3pureScreenResolutionChanged@@8
rdata$r	ENDS
;	COMDAT ??_R1BA@?0A@EA@IEventReceiver@@8
rdata$r	SEGMENT
??_R1BA@?0A@EA@IEventReceiver@@8 DD FLAT:??_R0?AVIEventReceiver@@@8 ; IEventReceiver::`RTTI Base Class Descriptor at (16,-1,0,64)'
	DD	00H
	DD	010H
	DD	0ffffffffH
	DD	00H
	DD	040H
	DD	FLAT:??_R3IEventReceiver@@8
rdata$r	ENDS
;	COMDAT ??_R1A@?0A@EA@CCustomHUD@@8
rdata$r	SEGMENT
??_R1A@?0A@EA@CCustomHUD@@8 DD FLAT:??_R0?AVCCustomHUD@@@8 ; CCustomHUD::`RTTI Base Class Descriptor at (0,-1,0,64)'
	DD	03H
	DD	00H
	DD	0ffffffffH
	DD	00H
	DD	040H
	DD	FLAT:??_R3CCustomHUD@@8
rdata$r	ENDS
;	COMDAT ??_R0?AVCCustomHUD@@@8
_DATA	SEGMENT
??_R0?AVCCustomHUD@@@8 DD FLAT:??_7type_info@@6B@	; CCustomHUD `RTTI Type Descriptor'
	DD	00H
	DB	'.?AVCCustomHUD@@', 00H
_DATA	ENDS
;	COMDAT ??_7CCameraManager@@6B@
CONST	SEGMENT
??_7CCameraManager@@6B@ DD FLAT:??_R4CCameraManager@@6B@ ; CCameraManager::`vftable'
	DD	FLAT:?UpdateCamEffectors@CCameraManager@@MAEXXZ
	DD	FLAT:?UpdatePPEffectors@CCameraManager@@MAEXXZ
	DD	FLAT:?ProcessCameraEffector@CCameraManager@@MAE_NPAVCEffectorCam@@@Z
	DD	FLAT:??_ECCameraManager@@UAEPAXI@Z
CONST	ENDS
;	COMDAT ??_R4CCameraManager@@6B@
rdata$r	SEGMENT
??_R4CCameraManager@@6B@ DD 00H				; CCameraManager::`RTTI Complete Object Locator'
	DD	00H
	DD	00H
	DD	FLAT:??_R0?AVCCameraManager@@@8
	DD	FLAT:??_R3CCameraManager@@8
rdata$r	ENDS
;	COMDAT ??_R3CCameraManager@@8
rdata$r	SEGMENT
??_R3CCameraManager@@8 DD 00H				; CCameraManager::`RTTI Class Hierarchy Descriptor'
	DD	00H
	DD	01H
	DD	FLAT:??_R2CCameraManager@@8
rdata$r	ENDS
;	COMDAT ??_R2CCameraManager@@8
rdata$r	SEGMENT
??_R2CCameraManager@@8 DD FLAT:??_R1A@?0A@EA@CCameraManager@@8 ; CCameraManager::`RTTI Base Class Array'
rdata$r	ENDS
;	COMDAT ??_R1A@?0A@EA@CCameraManager@@8
rdata$r	SEGMENT
??_R1A@?0A@EA@CCameraManager@@8 DD FLAT:??_R0?AVCCameraManager@@@8 ; CCameraManager::`RTTI Base Class Descriptor at (0,-1,0,64)'
	DD	00H
	DD	00H
	DD	0ffffffffH
	DD	00H
	DD	040H
	DD	FLAT:??_R3CCameraManager@@8
rdata$r	ENDS
;	COMDAT ??_R0?AVCCameraManager@@@8
_DATA	SEGMENT
??_R0?AVCCameraManager@@@8 DD FLAT:??_7type_info@@6B@	; CCameraManager `RTTI Type Descriptor'
	DD	00H
	DB	'.?AVCCameraManager@@', 00H
_DATA	ENDS
;	COMDAT ??_C@_03MHLONNLM@?5?$DN?5?$AA@
CONST	SEGMENT
??_C@_03MHLONNLM@?5?$DN?5?$AA@ DB ' = ', 00H		; `string'
CONST	ENDS
;	COMDAT ??_C@_0BL@OGFKIFBJ@Load_GameSpecific_Before?$CI?$CJ?$AA@
CONST	SEGMENT
??_C@_0BL@OGFKIFBJ@Load_GameSpecific_Before?$CI?$CJ?$AA@ DB 'Load_GameSpe'
	DB	'cific_Before()', 00H			; `string'
CONST	ENDS
;	COMDAT ??_C@_0CI@DDCDOLLD@XRCL_PRODUCTION_VERSION?$DN?$DNH?4XRLC_@
CONST	SEGMENT
??_C@_0CI@DDCDOLLD@XRCL_PRODUCTION_VERSION?$DN?$DNH?4XRLC_@ DB 'XRCL_PROD'
	DB	'UCTION_VERSION==H.XRLC_version', 00H	; `string'
CONST	ENDS
;	COMDAT ??_C@_0BM@OFBFCCHI@Incompatible?5level?5version?4?$AA@
CONST	SEGMENT
??_C@_0BM@OFBFCCHI@Incompatible?5level?5version?4?$AA@ DB 'Incompatible l'
	DB	'evel version.', 00H				; `string'
CONST	ENDS
;	COMDAT ??_C@_0DE@IBGLDKLK@D?3?2CLEARSKY?2sources?2engine?2xrEng@
CONST	SEGMENT
??_C@_0DE@IBGLDKLK@D?3?2CLEARSKY?2sources?2engine?2xrEng@ DB 'D:\CLEARSKY'
	DB	'\sources\engine\xrEngine\IGame_Level.cpp', 00H ; `string'
CONST	ENDS
;	COMDAT ??_C@_0BC@MJBOKOMM@IGame_Level?3?3Load?$AA@
CONST	SEGMENT
??_C@_0BC@MJBOKOMM@IGame_Level?3?3Load?$AA@ DB 'IGame_Level::Load', 00H ; `string'
CONST	ENDS
;	COMDAT ??_C@_0CK@IADIALMF@Can?8t?5find?5level?5configuration?5f@
CONST	SEGMENT
??_C@_0CK@IADIALMF@Can?8t?5find?5level?5configuration?5f@ DB 'Can''t find'
	DB	' level configuration file ''%s''.', 00H	; `string'
CONST	ENDS
;	COMDAT ??_C@_0BK@CKAMLFKI@?$CK?5?$FL?5D3D?5?$FN?3?5textures?$FL?$CFd?5K?$FN?$AA@
CONST	SEGMENT
??_C@_0BK@CKAMLFKI@?$CK?5?$FL?5D3D?5?$FN?3?5textures?$FL?$CFd?5K?$FN?$AA@ DB '*'
	DB	' [ D3D ]: textures[%d K]', 00H		; `string'
CONST	ENDS
;	COMDAT ??_C@_0BF@HKOHJHAP@?9nes_texture_storing?$AA@
CONST	SEGMENT
??_C@_0BF@HKOHJHAP@?9nes_texture_storing?$AA@ DB '-nes_texture_storing', 00H ; `string'
?psNET_DedicatedSleep@@3HA DD 05H			; psNET_DedicatedSleep
	ORG $+5
_MACRO_ADD DB	0ecH
	DB	0afH
	DB	0caH
	DB	036H
	DB	0b7H
	DB	0dH
	DB	059H
	DB	0c1H
	DB	0faH
	DB	0a7H
	DB	071H
	DB	0b1H
	DB	023H
	DB	0c5H
	DB	08eH
	DB	065H
	DB	0d1H
	DB	036H
	DB	03H
	DB	012H
	DB	07aH
	DB	02cH
	DB	031H
	DB	03aH
	DB	03eH
	DB	014H
	DB	05dH
	DB	0d2H
	DB	0cH
	DB	051H
	DB	066H
	DB	0c7H
	DB	0e1H
	DB	060H
	DB	098H
	DB	06aH
	DB	016H
	DB	09dH
	DB	0a8H
	DB	080H
	DB	0e4H
	DB	07aH
	DB	094H
	DB	0b2H
	DB	0a2H
	DB	0f5H
	DB	06eH
	DB	027H
	DB	0f5H
	DB	0aH
	DB	03fH
	DB	0c5H
	DB	0ffH
	DB	020H
	DB	04cH
	DB	0b8H
	DB	0c5H
	DB	072H
	DB	071H
	DB	09aH
	DB	0a9H
	DB	0a0H
	DB	0ddH
	DB	04fH
	DB	068H
	DB	053H
	DB	0b1H
	DB	0faH
	DB	026H
	DB	014H
	DB	085H
	DB	094H
	DB	021H
	DB	014H
	DB	080H
	DB	05cH
	DB	070H
	DB	0baH
	DB	0c5H
	DB	0f6H
	DB	058H
	DB	0dbH
	DB	0aeH
	DB	0e5H
	DB	08dH
	DB	0cdH
	DB	0dcH
	DB	06aH
	DB	09cH
	DB	011H
	DB	0fcH
	DB	06dH
	DB	033H
	DB	017H
	DB	0fbH
	DB	0f2H
	DB	030H
	DB	0f2H
	DB	0e0H
	DB	0d3H
	DB	0e3H
	DB	092H
	DB	0acH
	DB	046H
	DB	0c7H
	DB	086H
	DB	09bH
	DB	06eH
	DB	074H
	DB	05dH
	DB	0b1H
	DB	05H
	DB	0b9H
	DB	0faH
	DB	075H
	DB	09fH
	DB	084H
	DB	057H
	DB	02aH
	DB	040H
	DB	072H
	DB	0e7H
	DB	0c9H
	DB	0cbH
_MACRO_SUB DB	0ecH
	DB	0afH
	DB	0caH
	DB	036H
	DB	0b7H
	DB	0dH
	DB	059H
	DB	0c1H
	DB	0faH
	DB	0a7H
	DB	071H
	DB	0b1H
	DB	023H
	DB	0c5H
	DB	08eH
	DB	065H
	DB	0d1H
	DB	036H
	DB	03H
	DB	012H
	DB	07aH
	DB	02cH
	DB	031H
	DB	03aH
	DB	03eH
	DB	014H
	DB	05dH
	DB	0d2H
	DB	0cH
	DB	051H
	DB	066H
	DB	0c7H
	DB	0e1H
	DB	060H
	DB	098H
	DB	06aH
	DB	016H
	DB	09dH
	DB	0a8H
	DB	080H
	DB	0e4H
	DB	07aH
	DB	094H
	DB	0b2H
	DB	0a2H
	DB	0f5H
	DB	06eH
	DB	027H
	DB	0f5H
	DB	0aH
	DB	03fH
	DB	0c5H
	DB	0ffH
	DB	020H
	DB	04cH
	DB	0b8H
	DB	0c5H
	DB	072H
	DB	071H
	DB	09aH
	DB	0a9H
	DB	0a0H
	DB	0ddH
	DB	04fH
	DB	068H
	DB	053H
	DB	0b1H
	DB	0faH
	DB	026H
	DB	014H
	DB	085H
	DB	094H
	DB	021H
	DB	014H
	DB	080H
	DB	05cH
	DB	070H
	DB	0baH
	DB	0c5H
	DB	0f6H
	DB	058H
	DB	0dbH
	DB	0aeH
	DB	0e5H
	DB	08dH
	DB	0cdH
	DB	0dcH
	DB	06aH
	DB	09cH
	DB	011H
	DB	0fcH
	DB	06dH
	DB	033H
	DB	017H
	DB	0fbH
	DB	0f2H
	DB	022H
	DB	0ecH
	DB	0b5H
	DB	0fdH
	DB	075H
	DB	0caH
	DB	02bH
	DB	055H
	DB	0ccH
	DB	02bH
	DB	0beH
	DB	0fcH
	DB	0c6H
	DB	073H
	DB	03cH
	DB	0efH
	DB	0fdH
	DB	0d7H
	DB	08bH
	DB	086H
	DB	069H
	DB	04aH
	DB	06aH
	DB	080H
	DB	0f0H
	DB	06eH
	DB	0a7H
	DB	09H
_MACRO_IF_EQL DB 0ecH
	DB	0afH
	DB	0aaH
	DB	093H
	DB	02dH
	DB	04H
	DB	0a3H
	DB	08fH
	DB	08aH
	DB	010H
	DB	067H
	DB	091H
	DB	0c9H
	DB	0e1H
	DB	0daH
	DB	02cH
	DB	031H
	DB	01dH
	DB	082H
	DB	0e2H
	DB	07H
	DB	0f9H
	DB	0e8H
	DB	024H
	DB	075H
	DB	0e9H
	DB	09dH
	DB	054H
	DB	070H
	DB	036H
	DB	04fH
	DB	0ffH
	DB	0ddH
	DB	04aH
	DB	082H
	DB	014H
	DB	088H
	DB	048H
	DB	074H
	DB	051H
	DB	03fH
	DB	0baH
	DB	051H
	DB	098H
	DB	0e9H
	DB	01dH
	DB	027H
	DB	0b1H
	DB	07bH
	DB	097H
	DB	027H
	DB	046H
	DB	09aH
	DB	046H
	DB	064H
	DB	0d4H
	DB	0efH
	DB	092H
	DB	0f0H
	DB	05H
	DB	05eH
	DB	079H
	DB	0edH
	DB	08dH
	DB	034H
	DB	052H
	DB	08aH
	DB	090H
	DB	0e9H
	DB	0baH
	DB	03cH
	DB	0beH
	DB	08bH
	DB	0e5H
	DB	0caH
	DB	028H
	DB	0b0H
	DB	092H
	DB	0deH
	DB	04cH
	DB	0d8H
	DB	031H
	DB	0ceH
	DB	0ceH
	DB	08eH
	DB	022H
	DB	078H
	DB	0f8H
	DB	07cH
	DB	0ceH
	DB	0f6H
	DB	04eH
	DB	084H
	DB	0d0H
	DB	0eeH
	DB	0b5H
	DB	0bH
	DB	08eH
	DB	053H
	DB	0d5H
	DB	0ceH
	DB	07cH
	DB	04fH
	DB	02fH
	DB	0faH
	DB	0f6H
	DB	0bfH
	DB	0c8H
	DB	070H
	DB	05aH
	DB	0eH
	DB	00H
	DB	0dbH
	DB	093H
	DB	044H
	DB	083H
	DB	0f4H
	DB	0fcH
	DB	0ebH
	DB	02fH
	DB	031H
	DB	01dH
	DB	02H
	DB	023H
	DB	09eH
	DB	08aH
	DB	0b5H
	DB	013H
	DB	068H
	DB	048H
	DB	03dH
	DB	076H
	DB	01H
	DB	0feH
	DB	040H
	DB	078H
	DB	02cH
	DB	0b7H
	DB	09H
	DB	039H
	DB	0cfH
	DB	0a4H
	DB	058H
	DB	087H
	DB	072H
	DB	0f8H
	DB	0a0H
	DB	0bcH
	DB	0e9H
	DB	0a3H
	DB	0d0H
	DB	0c0H
	DB	078H
	DB	080H
	DB	0faH
	DB	0dcH
	DB	05H
	DB	09aH
	DB	0cH
	DB	040H
	DB	09cH
	DB	0b6H
	DB	062H
	DB	0d4H
	DB	06eH
	DB	0a0H
	DB	018H
	DB	09aH
	DB	0eeH
	DB	085H
	DB	04aH
	DB	0b0H
	DB	063H
	DB	0d3H
	DB	02aH
	DB	084H
	DB	0caH
	DB	03cH
	DB	055H
	DB	0a9H
	DB	0d2H
	DB	018H
	DB	0aeH
	DB	04dH
	DB	040H
	DB	080H
	DB	0e5H
	DB	07aH
	DB	095H
	DB	033H
	DB	090H
	DB	0f2H
	DB	0f6H
	DB	06H
	DB	0d9H
	DB	065H
	DB	04dH
	DB	02bH
	DB	095H
	DB	029H
	DB	02H
	DB	0b9H
	DB	0f9H
	DB	0a6H
	DB	05H
	DB	056H
	DB	013H
	DB	02bH
	DB	09fH
	DB	069H
	DB	0faH
	DB	0f1H
	DB	0bbH
	DB	028H
	DB	0a6H
	DB	071H
	DB	040H
	DB	011H
	DB	0d7H
	DB	086H
	DB	04H
	DB	0eeH
	DB	0b6H
	DB	0eeH
	DB	0baH
	DB	0c6H
	DB	045H
	DB	07H
	DB	075H
	DB	0ecH
	DB	0c5H
	DB	0d0H
	DB	07dH
	DB	08cH
	DB	0c5H
	DB	051H
	DB	063H
	DB	0b4H
	DB	0eaH
	DB	051H
	DB	063H
	DB	0b4H
	DB	0eaH
	DB	0d6H
	DB	061H
	DB	0b1H
	DB	0e1H
	DB	0bfH
	DB	0d4H
	DB	05eH
	DB	0adH
	DB	07dH
	DB	0d5H
	DB	03H
	DB	053H
	DB	050H
	DB	09cH
	DB	068H
	DB	01bH
	DB	0a5H
	DB	0b4H
	DB	0f8H
	DB	066H
	DB	01eH
	DB	0c6H
	DB	076H
	DB	019H
	DB	0a9H
	DB	02fH
	DB	054H
	DB	0e6H
	DB	0c1H
	DB	041H
	DB	047H
	DB	0f1H
	DB	01aH
	DB	037H
	DB	047H
	DB	078H
	DB	0c5H
	DB	040H
	DB	07aH
	DB	028H
	DB	0a6H
	DB	0f1H
	DB	044H
	DB	014H
	DB	08eH
	DB	088H
	DB	015H
	DB	0aeH
	DB	0f0H
	DB	091H
	DB	0fH
	DB	06aH
	DB	0e3H
	DB	09dH
	DB	09bH
	DB	071H
	DB	099H
	DB	02H
	DB	034H
	DB	0e8H
	DB	05fH
	DB	02H
	DB	0b5H
	DB	06fH
	DB	045H
	DB	02aH
	DB	05aH
	DB	0efH
	DB	04bH
	DB	0d2H
	DB	07aH
	DB	0efH
	DB	04bH
	DB	053H
	DB	058H
	DB	073H
	DB	0a4H
	DB	01aH
	DB	01bH
	DB	015H
	DB	0e8H
	DB	04H
	DB	0c2H
	DB	0c3H
	DB	065H
	DB	0a5H
	DB	0bH
	DB	016H
	DB	0ccH
	DB	026H
	DB	0f0H
	DB	026H
	DB	0dbH
	DB	0caH
	DB	04aH
	DB	037H
	DB	03H
	DB	079H
	DB	064H
	DB	0dH
	DB	02aH
	DB	0baH
	DB	057H
	DB	061H
	DB	0bdH
	DB	0fcH
	DB	0e7H
	DB	0dH
	DB	0cdH
	DB	072H
	DB	0f9H
	DB	0deH
	DB	0abH
	DB	087H
	DB	054H
	DB	08fH
	DB	0eH
	DB	026H
	DB	0d5H
	DB	08aH
	DB	078H
	DB	015H
	DB	06cH
	DB	04bH
	DB	0dbH
	DB	015H
	DB	06cH
	DB	04bH
	DB	0dbH
	DB	015H
	DB	06cH
	DB	04bH
	DB	0dbH
	DB	095H
	DB	012H
	DB	0f0H
	DB	0f9H
	DB	01dH
	DB	010H
	DB	09fH
	DB	0c3H
	DB	0a8H
	DB	084H
	DB	0b0H
	DB	047H
	DB	058H
	DB	067H
	DB	094H
	DB	058H
	DB	06dH
	DB	08aH
	DB	0feH
	DB	064H
	DB	0daH
	DB	071H
	DB	0cfH
	DB	02dH
	DB	0daH
	DB	0d3H
	DB	06dH
	DB	083H
	DB	0e2H
	DB	07H
	DB	01fH
	DB	047H
	DB	0b7H
	DB	01bH
	DB	0afH
	DB	088H
	DB	021H
	DB	0deH
	DB	08cH
	DB	098H
	DB	052H
	DB	0a8H
	DB	070H
	DB	032H
	DB	092H
	DB	080H
	DB	01bH
	DB	00H
	DB	0fdH
	DB	049H
	DB	032H
	DB	0f0H
	DB	01eH
	DB	0b8H
	DB	0dbH
	DB	065H
	DB	033H
	DB	093H
	DB	093H
	DB	08eH
	DB	0a0H
	DB	097H
	DB	0efH
	DB	0a7H
	DB	0e3H
	DB	0d2H
	DB	084H
	DB	049H
	DB	02cH
	DB	0e0H
	DB	0d9H
	DB	0c0H
	DB	059H
	DB	0f8H
	DB	0cdH
	DB	062H
	DB	083H
	DB	0efH
	DB	07bH
	DB	055H
	DB	05dH
	DB	06bH
	DB	07fH
_EPS_S	DD	033d6bf95r			; 1e-007
_PI	DD	040490fdbr			; 3.14159
_PI_MUL_2 DD	040c90fdbr			; 6.28319
; Function compile flags: /Ogtpy
; File d:\clearsky\sources\engine\xrcore\xr_resource.h
;	COMDAT ??C?$resptr_core@Vref_sound_data@@V?$resptr_base@Vref_sound_data@@@@@@QBEPAVref_sound_data@@XZ
_TEXT	SEGMENT
??C?$resptr_core@Vref_sound_data@@V?$resptr_base@Vref_sound_data@@@@@@QBEPAVref_sound_data@@XZ PROC ; resptr_core<ref_sound_data,resptr_base<ref_sound_data> >::operator->, COMDAT
; _this$ = eax

; 71   : 	T *					operator->() const												{	return p_;	}

	mov	eax, DWORD PTR [eax]
	ret	0
??C?$resptr_core@Vref_sound_data@@V?$resptr_base@Vref_sound_data@@@@@@QBEPAVref_sound_data@@XZ ENDP ; resptr_core<ref_sound_data,resptr_base<ref_sound_data> >::operator->
; Function compile flags: /Ogtpy
; File d:\clearsky\sources\engine\xrsound\sound.h
_TEXT	ENDS
;	COMDAT ?play_at_pos@ref_sound@@QAEXPAVCObject@@ABU?$_vector3@M@@IM@Z
_TEXT	SEGMENT
_this$ = 8						; size = 4
_pos$ = 12						; size = 4
?play_at_pos@ref_sound@@QAEXPAVCObject@@ABU?$_vector3@M@@IM@Z PROC ; ref_sound::play_at_pos, COMDAT

; 306  : IC void	ref_sound::play_at_pos					( CObject* O, const Fvector &pos,	u32 flags, float d)	{	VERIFY(!::Sound->i_locked()); 	::Sound->play_at_pos(*this,O,pos,flags,d);										}

	mov	eax, DWORD PTR __imp_?Sound@@3PAVCSound_manager_interface@@A
	fldz
	mov	ecx, DWORD PTR [eax]
	mov	eax, DWORD PTR _pos$[esp-4]
	mov	edx, DWORD PTR [ecx]
	mov	edx, DWORD PTR [edx+56]
	push	ecx
	fstp	DWORD PTR [esp]
	push	0
	push	eax
	mov	eax, DWORD PTR _this$[esp+8]
	push	0
	push	eax
	call	edx
	ret	8
?play_at_pos@ref_sound@@QAEXPAVCObject@@ABU?$_vector3@M@@IM@Z ENDP ; ref_sound::play_at_pos
; Function compile flags: /Ogtpy
; File d:\clearsky\sources\engine\xrcore\xr_resource.h
_TEXT	ENDS
;	COMDAT ?_inc@?$resptr_base@VCSound_UserData@@@@IAEXXZ
_TEXT	SEGMENT
?_inc@?$resptr_base@VCSound_UserData@@@@IAEXXZ PROC	; resptr_base<CSound_UserData>::_inc, COMDAT
; _this$ = eax

; 43   : 	void				_inc	()									{	if (0==p_) return;	p_->dwReference++;														}

	mov	eax, DWORD PTR [eax]
	test	eax, eax
	je	SHORT $LN2@inc
	add	DWORD PTR [eax+4], 1
$LN2@inc:
	ret	0
?_inc@?$resptr_base@VCSound_UserData@@@@IAEXXZ ENDP	; resptr_base<CSound_UserData>::_inc
; Function compile flags: /Ogtpy
_TEXT	ENDS
;	COMDAT ??0?$resptr_core@VCSound_UserData@@V?$resptr_base@VCSound_UserData@@@@@@QAE@ABV0@@Z
_TEXT	SEGMENT
??0?$resptr_core@VCSound_UserData@@V?$resptr_base@VCSound_UserData@@@@@@QAE@ABV0@@Z PROC ; resptr_core<CSound_UserData,resptr_base<CSound_UserData> >::resptr_core<CSound_UserData,resptr_base<CSound_UserData> >, COMDAT
; _this$ = eax
; _rhs$ = ecx

; 63   : 						resptr_core		(const self & rhs)								{	p_ = rhs.p_; _inc();		}

	mov	ecx, DWORD PTR [ecx]
	test	ecx, ecx
	mov	DWORD PTR [eax], ecx
	je	SHORT $LN4@resptr_cor
	add	DWORD PTR [ecx+4], 1
$LN4@resptr_cor:
	ret	0
??0?$resptr_core@VCSound_UserData@@V?$resptr_base@VCSound_UserData@@@@@@QAE@ABV0@@Z ENDP ; resptr_core<CSound_UserData,resptr_base<CSound_UserData> >::resptr_core<CSound_UserData,resptr_base<CSound_UserData> >
; Function compile flags: /Ogtpy
; File j:\msvs8\vc\include\math.h
_TEXT	ENDS
;	COMDAT _cosf
_TEXT	SEGMENT
__X$ = 8						; size = 4
_cosf	PROC						; COMDAT

; 399  :         {return ((float)cos((double)_X)); }

	push	ebp
	mov	ebp, esp
	and	esp, -8					; fffffff8H
	fld	DWORD PTR __X$[ebp]
	fcos
	mov	esp, ebp
	pop	ebp
	ret	0
_cosf	ENDP
; Function compile flags: /Ogtpy
; File d:\clearsky\sources\engine\xrcore\_std_extensions.h
_TEXT	ENDS
;	COMDAT ?_cos@@YAMM@Z
_TEXT	SEGMENT
_x$ = 8							; size = 4
?_cos@@YAMM@Z PROC					; _cos, COMDAT

; 102  : IC float	_cos	(float x)		{ return cosf(x); }

	fld	DWORD PTR _x$[esp-4]
	push	ecx
	fstp	DWORD PTR [esp]
	call	_cosf
	add	esp, 4
	ret	0
?_cos@@YAMM@Z ENDP					; _cos
; Function compile flags: /Ogtpy
; File d:\clearsky\sources\engine\xrcore\_random.h
_TEXT	ENDS
;	COMDAT ?maxF@CRandom@@QAEMXZ
_TEXT	SEGMENT
?maxF@CRandom@@QAEMXZ PROC				; CRandom::maxF, COMDAT

; 38   : 	IC 	float	maxF	()							{ return 32767.f;	}

	movss	xmm0, DWORD PTR _KEY_Quant
	ret	0
?maxF@CRandom@@QAEMXZ ENDP				; CRandom::maxF
; Function compile flags: /Ogtpy
; File j:\msvs8\vc\include\math.h
_TEXT	ENDS
;	COMDAT _sinf
_TEXT	SEGMENT
__X$ = 8						; size = 4
_sinf	PROC						; COMDAT

; 419  :         {return ((float)sin((double)_X)); }

	push	ebp
	mov	ebp, esp
	and	esp, -8					; fffffff8H
	fld	DWORD PTR __X$[ebp]
	fsin
	mov	esp, ebp
	pop	ebp
	ret	0
_sinf	ENDP
; Function compile flags: /Ogtpy
; File d:\clearsky\sources\engine\xrcore\_std_extensions.h
_TEXT	ENDS
;	COMDAT ?_sin@@YAMM@Z
_TEXT	SEGMENT
_x$ = 8							; size = 4
?_sin@@YAMM@Z PROC					; _sin, COMDAT

; 101  : IC float	_sin	(float x)		{ return sinf(x); }

	fld	DWORD PTR _x$[esp-4]
	push	ecx
	fstp	DWORD PTR [esp]
	call	_sinf
	add	esp, 4
	ret	0
?_sin@@YAMM@Z ENDP					; _sin
; Function compile flags: /Ogtpy
; File d:\clearsky\sources\sdk\include\stlport\stl\_list.h
_TEXT	ENDS
;	COMDAT ??0_List_iterator_base@priv@stlp_std@@QAE@PAU_List_node_base@12@@Z
_TEXT	SEGMENT
??0_List_iterator_base@priv@stlp_std@@QAE@PAU_List_node_base@12@@Z PROC ; stlp_std::priv::_List_iterator_base::_List_iterator_base, COMDAT
; _this$ = eax
; ___x$ = ecx

; 89   :   _List_iterator_base(_List_node_base* __x) : _M_node(__x) {}

	mov	DWORD PTR [eax], ecx
	ret	0
??0_List_iterator_base@priv@stlp_std@@QAE@PAU_List_node_base@12@@Z ENDP ; stlp_std::priv::_List_iterator_base::_List_iterator_base
; Function compile flags: /Ogtpy
_TEXT	ENDS
;	COMDAT ?_M_incr@_List_iterator_base@priv@stlp_std@@QAEXXZ
_TEXT	SEGMENT
?_M_incr@_List_iterator_base@priv@stlp_std@@QAEXXZ PROC	; stlp_std::priv::_List_iterator_base::_M_incr, COMDAT
; _this$ = eax

; 91   :   void _M_incr() { _M_node = _M_node->_M_next; }

	mov	ecx, DWORD PTR [eax]
	mov	edx, DWORD PTR [ecx]
	mov	DWORD PTR [eax], edx
	ret	0
?_M_incr@_List_iterator_base@priv@stlp_std@@QAEXXZ ENDP	; stlp_std::priv::_List_iterator_base::_M_incr
; Function compile flags: /Ogtpy
_TEXT	ENDS
;	COMDAT ??E?$_List_iterator@PAXU?$_Nonconst_traits@PAX@stlp_std@@@priv@stlp_std@@QAEAAU012@XZ
_TEXT	SEGMENT
??E?$_List_iterator@PAXU?$_Nonconst_traits@PAX@stlp_std@@@priv@stlp_std@@QAEAAU012@XZ PROC ; stlp_std::priv::_List_iterator<void *,stlp_std::_Nonconst_traits<void *> >::operator++, COMDAT
; _this$ = eax

; 123  :     this->_M_incr();

	mov	ecx, DWORD PTR [eax]
	mov	edx, DWORD PTR [ecx]
	mov	DWORD PTR [eax], edx

; 124  :     return *this;
; 125  :   }

	ret	0
??E?$_List_iterator@PAXU?$_Nonconst_traits@PAX@stlp_std@@@priv@stlp_std@@QAEAAU012@XZ ENDP ; stlp_std::priv::_List_iterator<void *,stlp_std::_Nonconst_traits<void *> >::operator++
; Function compile flags: /Ogtpy
; File d:\clearsky\sources\sdk\include\stlport\stl\_list.c
_TEXT	ENDS
;	COMDAT ?_Transfer@?$_List_global@_N@priv@stlp_std@@SAXPAU_List_node_base@23@00@Z
_TEXT	SEGMENT
?_Transfer@?$_List_global@_N@priv@stlp_std@@SAXPAU_List_node_base@23@00@Z PROC ; stlp_std::priv::_List_global<bool>::_Transfer, COMDAT
; ___position$ = ecx
; ___first$ = edx
; ___last$ = eax

; 50   :   if (__position != __last) {

	cmp	ecx, eax
	je	SHORT $LN1@Transfer
	push	esi

; 51   :     // Remove [first, last) from its old position.
; 52   :     __last->_M_prev->_M_next     = __position;

	mov	esi, DWORD PTR [eax+4]
	mov	DWORD PTR [esi], ecx

; 53   :     __first->_M_prev->_M_next    = __last;

	mov	esi, DWORD PTR [edx+4]
	mov	DWORD PTR [esi], eax

; 54   :     __position->_M_prev->_M_next = __first;

	mov	esi, DWORD PTR [ecx+4]
	mov	DWORD PTR [esi], edx

; 55   : 
; 56   :     // Splice [first, last) into its new position.
; 57   :     _Node_base* __tmp = __position->_M_prev;

	mov	esi, DWORD PTR [ecx+4]
	push	edi

; 58   :     __position->_M_prev = __last->_M_prev;

	mov	edi, DWORD PTR [eax+4]
	mov	DWORD PTR [ecx+4], edi

; 59   :     __last->_M_prev     = __first->_M_prev;

	mov	ecx, DWORD PTR [edx+4]
	mov	DWORD PTR [eax+4], ecx
	pop	edi

; 60   :     __first->_M_prev    = __tmp;

	mov	DWORD PTR [edx+4], esi
	pop	esi
$LN1@Transfer:

; 61   :   }
; 62   : }

	ret	0
?_Transfer@?$_List_global@_N@priv@stlp_std@@SAXPAU_List_node_base@23@00@Z ENDP ; stlp_std::priv::_List_global<bool>::_Transfer
; Function compile flags: /Ogtpy
; File d:\clearsky\sources\engine\xrcore\_stl_extensions.h
_TEXT	ENDS
;	COMDAT ??$?8PAXPAX@@YA_NABV?$xalloc@PAX@@0@Z
_TEXT	SEGMENT
??$?8PAXPAX@@YA_NABV?$xalloc@PAX@@0@Z PROC		; operator==<void *,void *>, COMDAT

; 101  : template<class _Ty,	class _Other>	inline	bool operator==(const xalloc<_Ty>&, const xalloc<_Other>&)		{	return (true);							}

	mov	al, 1
	ret	0
??$?8PAXPAX@@YA_NABV?$xalloc@PAX@@0@Z ENDP		; operator==<void *,void *>
; Function compile flags: /Ogtpy
; File d:\clearsky\sources\sdk\include\stlport\stl\_list.h
_TEXT	ENDS
;	COMDAT ?empty@?$_List_base@PAXV?$xalloc@PAX@@@priv@stlp_std@@QBE_NXZ
_TEXT	SEGMENT
?empty@?$_List_base@PAXV?$xalloc@PAX@@@priv@stlp_std@@QBE_NXZ PROC ; stlp_std::priv::_List_base<void *,xalloc<void *> >::empty, COMDAT
; _this$ = eax

; 205  :   bool empty() const { return _M_node._M_data._M_next == &_M_node._M_data; }

	xor	ecx, ecx
	cmp	DWORD PTR [eax], eax
	sete	cl
	mov	al, cl
	ret	0
?empty@?$_List_base@PAXV?$xalloc@PAX@@@priv@stlp_std@@QBE_NXZ ENDP ; stlp_std::priv::_List_base<void *,xalloc<void *> >::empty
; Function compile flags: /Ogtpy
; File d:\clearsky\sources\engine\xrcore\xrmemory.h
_TEXT	ENDS
;	COMDAT ??$xr_alloc@V?$_List_node@PAX@priv@stlp_std@@@@YAPAV?$_List_node@PAX@priv@stlp_std@@I@Z
_TEXT	SEGMENT
??$xr_alloc@V?$_List_node@PAX@priv@stlp_std@@@@YAPAV?$_List_node@PAX@priv@stlp_std@@I@Z PROC ; xr_alloc<stlp_std::priv::_List_node<void *> >, COMDAT

; 109  : 	IC T*		xr_alloc	(u32 count)				{	return  (T*)Memory.mem_alloc(count*sizeof(T));	}

	mov	ecx, DWORD PTR __imp_?Memory@@3VxrMemory@@A
	push	12					; 0000000cH
	call	DWORD PTR __imp_?mem_alloc@xrMemory@@QAEPAXI@Z
	ret	0
??$xr_alloc@V?$_List_node@PAX@priv@stlp_std@@@@YAPAV?$_List_node@PAX@priv@stlp_std@@I@Z ENDP ; xr_alloc<stlp_std::priv::_List_node<void *> >
; Function compile flags: /Ogtpy
; File d:\clearsky\sources\engine\xrcore\_stl_extensions.h
_TEXT	ENDS
;	COMDAT ?allocate@?$xalloc@V?$_List_node@PAX@priv@stlp_std@@@@QBEPAV?$_List_node@PAX@priv@stlp_std@@IPBX@Z
_TEXT	SEGMENT
?allocate@?$xalloc@V?$_List_node@PAX@priv@stlp_std@@@@QBEPAV?$_List_node@PAX@priv@stlp_std@@IPBX@Z PROC ; xalloc<stlp_std::priv::_List_node<void *> >::allocate, COMDAT

; 81   : 							pointer					allocate		(size_type n, const void* p=0) const	{	return xr_alloc<T>((u32)n);	}

	mov	ecx, DWORD PTR __imp_?Memory@@3VxrMemory@@A
	push	12					; 0000000cH
	call	DWORD PTR __imp_?mem_alloc@xrMemory@@QAEPAXI@Z
	ret	0
?allocate@?$xalloc@V?$_List_node@PAX@priv@stlp_std@@@@QBEPAV?$_List_node@PAX@priv@stlp_std@@IPBX@Z ENDP ; xalloc<stlp_std::priv::_List_node<void *> >::allocate
; Function compile flags: /Ogtpy
; File d:\clearsky\sources\sdk\include\stlport\stl\_alloc.h
_TEXT	ENDS
;	COMDAT ?allocate@?$_STLP_alloc_proxy@U_List_node_base@priv@stlp_std@@V?$_List_node@PAX@23@V?$xalloc@V?$_List_node@PAX@priv@stlp_std@@@@@priv@stlp_std@@QAEPAV?$_List_node@PAX@23@I@Z
_TEXT	SEGMENT
?allocate@?$_STLP_alloc_proxy@U_List_node_base@priv@stlp_std@@V?$_List_node@PAX@23@V?$xalloc@V?$_List_node@PAX@priv@stlp_std@@@@@priv@stlp_std@@QAEPAV?$_List_node@PAX@23@I@Z PROC ; stlp_std::priv::_STLP_alloc_proxy<stlp_std::priv::_List_node_base,stlp_std::priv::_List_node<void *>,xalloc<stlp_std::priv::_List_node<void *> > >::allocate, COMDAT

; 633  :   { return _Base::allocate(__n); }

	mov	ecx, DWORD PTR __imp_?Memory@@3VxrMemory@@A
	push	12					; 0000000cH
	call	DWORD PTR __imp_?mem_alloc@xrMemory@@QAEPAXI@Z
	ret	0
?allocate@?$_STLP_alloc_proxy@U_List_node_base@priv@stlp_std@@V?$_List_node@PAX@23@V?$xalloc@V?$_List_node@PAX@priv@stlp_std@@@@@priv@stlp_std@@QAEPAV?$_List_node@PAX@23@I@Z ENDP ; stlp_std::priv::_STLP_alloc_proxy<stlp_std::priv::_List_node_base,stlp_std::priv::_List_node<void *>,xalloc<stlp_std::priv::_List_node<void *> > >::allocate
; Function compile flags: /Ogtpy
; File d:\clearsky\sources\sdk\include\stlport\stl\_list.h
_TEXT	ENDS
;	COMDAT ??E?$_List_iterator@PAXU?$_Const_traits@PAX@stlp_std@@@priv@stlp_std@@QAEAAU012@XZ
_TEXT	SEGMENT
??E?$_List_iterator@PAXU?$_Const_traits@PAX@stlp_std@@@priv@stlp_std@@QAEAAU012@XZ PROC ; stlp_std::priv::_List_iterator<void *,stlp_std::_Const_traits<void *> >::operator++, COMDAT
; _this$ = eax

; 123  :     this->_M_incr();

	mov	ecx, DWORD PTR [eax]
	mov	edx, DWORD PTR [ecx]
	mov	DWORD PTR [eax], edx

; 124  :     return *this;
; 125  :   }

	ret	0
??E?$_List_iterator@PAXU?$_Const_traits@PAX@stlp_std@@@priv@stlp_std@@QAEAAU012@XZ ENDP ; stlp_std::priv::_List_iterator<void *,stlp_std::_Const_traits<void *> >::operator++
; Function compile flags: /Ogtpy
; File d:\clearsky\sources\engine\xrcore\xrmemory.h
_TEXT	ENDS
;	COMDAT ??$xr_free@V?$_List_node@PAX@priv@stlp_std@@@@YAXAAPAV?$_List_node@PAX@priv@stlp_std@@@Z
_TEXT	SEGMENT
??$xr_free@V?$_List_node@PAX@priv@stlp_std@@@@YAXAAPAV?$_List_node@PAX@priv@stlp_std@@@Z PROC ; xr_free<stlp_std::priv::_List_node<void *> >, COMDAT
; _P$ = esi

; 111  : 	IC void		xr_free		(T* &P)					{	if (P) { Memory.mem_free((void*)P); P=NULL;	};	}

	mov	eax, DWORD PTR [esi]
	test	eax, eax
	je	SHORT $LN1@xr_free@31
	mov	ecx, DWORD PTR __imp_?Memory@@3VxrMemory@@A
	push	eax
	call	DWORD PTR __imp_?mem_free@xrMemory@@QAEXPAX@Z
	mov	DWORD PTR [esi], 0
$LN1@xr_free@31:
	ret	0
??$xr_free@V?$_List_node@PAX@priv@stlp_std@@@@YAXAAPAV?$_List_node@PAX@priv@stlp_std@@@Z ENDP ; xr_free<stlp_std::priv::_List_node<void *> >
; Function compile flags: /Ogtpy
; File d:\clearsky\sources\engine\xrcore\xrmemory_subst_msvc.h
_TEXT	ENDS
;	COMDAT ??R?$xr_special_free@$00VCCameraManager@@@@QAEXAAPAVCCameraManager@@@Z
_TEXT	SEGMENT
??R?$xr_special_free@$00VCCameraManager@@@@QAEXAAPAVCCameraManager@@@Z PROC ; xr_special_free<1,CCameraManager>::operator(), COMDAT
; _ptr$ = esi

; 132  : 		void*	_real_ptr	= dynamic_cast<void*>(ptr);

	mov	eax, DWORD PTR [esi]
	push	edi
	push	eax
	call	___RTCastToVoid

; 133  : 		ptr->~T			();

	mov	ecx, DWORD PTR [esi]
	mov	edx, DWORD PTR [ecx]
	add	esp, 4
	mov	edi, eax
	mov	eax, DWORD PTR [edx+12]
	push	0
	call	eax

; 134  : 		Memory.mem_free	(_real_ptr);

	mov	ecx, DWORD PTR __imp_?Memory@@3VxrMemory@@A
	push	edi
	call	DWORD PTR __imp_?mem_free@xrMemory@@QAEXPAX@Z
	pop	edi

; 135  : 	}

	ret	0
??R?$xr_special_free@$00VCCameraManager@@@@QAEXAAPAVCCameraManager@@@Z ENDP ; xr_special_free<1,CCameraManager>::operator()
; Function compile flags: /Ogtpy
; File d:\clearsky\sources\sdk\include\stlport\stl\_list.h
_TEXT	ENDS
;	COMDAT ??9?$_List_iterator@PAXU?$_Const_traits@PAX@stlp_std@@@priv@stlp_std@@QBE_NU012@@Z
_TEXT	SEGMENT
___y$ = 8						; size = 4
??9?$_List_iterator@PAXU?$_Const_traits@PAX@stlp_std@@@priv@stlp_std@@QBE_NU012@@Z PROC ; stlp_std::priv::_List_iterator<void *,stlp_std::_Const_traits<void *> >::operator!=, COMDAT
; _this$ = ecx

; 144  :     return this->_M_node != __y._M_node;

	mov	edx, DWORD PTR [ecx]
	xor	eax, eax
	cmp	edx, DWORD PTR ___y$[esp-4]
	setne	al

; 145  :   }

	ret	4
??9?$_List_iterator@PAXU?$_Const_traits@PAX@stlp_std@@@priv@stlp_std@@QBE_NU012@@Z ENDP ; stlp_std::priv::_List_iterator<void *,stlp_std::_Const_traits<void *> >::operator!=
; Function compile flags: /Ogtpy
_TEXT	ENDS
;	COMDAT ??8?$_List_iterator@PAXU?$_Const_traits@PAX@stlp_std@@@priv@stlp_std@@QBE_NU012@@Z
_TEXT	SEGMENT
___y$ = 8						; size = 4
??8?$_List_iterator@PAXU?$_Const_traits@PAX@stlp_std@@@priv@stlp_std@@QBE_NU012@@Z PROC ; stlp_std::priv::_List_iterator<void *,stlp_std::_Const_traits<void *> >::operator==, COMDAT
; _this$ = ecx

; 141  :     return this->_M_node == __y._M_node;

	mov	edx, DWORD PTR [ecx]
	xor	eax, eax
	cmp	edx, DWORD PTR ___y$[esp-4]
	sete	al

; 142  :   }

	ret	4
??8?$_List_iterator@PAXU?$_Const_traits@PAX@stlp_std@@@priv@stlp_std@@QBE_NU012@@Z ENDP ; stlp_std::priv::_List_iterator<void *,stlp_std::_Const_traits<void *> >::operator==
; Function compile flags: /Ogtpy
_TEXT	ENDS
;	COMDAT ??E?$_List_iterator@PAXU?$_Const_traits@PAX@stlp_std@@@priv@stlp_std@@QAE?AU012@H@Z
_TEXT	SEGMENT
??E?$_List_iterator@PAXU?$_Const_traits@PAX@stlp_std@@@priv@stlp_std@@QAE?AU012@H@Z PROC ; stlp_std::priv::_List_iterator<void *,stlp_std::_Const_traits<void *> >::operator++, COMDAT
; _this$ = edx
; ___$ReturnUdt$ = eax

; 127  :     _Self __tmp = *this;

	mov	ecx, DWORD PTR [edx]
	mov	DWORD PTR [eax], ecx

; 128  :     this->_M_incr();

	mov	ecx, DWORD PTR [ecx]
	mov	DWORD PTR [edx], ecx

; 129  :     return __tmp;
; 130  :   }

	ret	0
??E?$_List_iterator@PAXU?$_Const_traits@PAX@stlp_std@@@priv@stlp_std@@QAE?AU012@H@Z ENDP ; stlp_std::priv::_List_iterator<void *,stlp_std::_Const_traits<void *> >::operator++
; Function compile flags: /Ogtpy
_TEXT	ENDS
;	COMDAT ??D?$_List_iterator@PAXU?$_Const_traits@PAX@stlp_std@@@priv@stlp_std@@QBEABQAXXZ
_TEXT	SEGMENT
??D?$_List_iterator@PAXU?$_Const_traits@PAX@stlp_std@@@priv@stlp_std@@QBEABQAXXZ PROC ; stlp_std::priv::_List_iterator<void *,stlp_std::_Const_traits<void *> >::operator*, COMDAT
; _this$ = eax

; 118  :   reference operator*() const { return __STATIC_CAST(_Node*, this->_M_node)->_M_data; }

	mov	eax, DWORD PTR [eax]
	add	eax, 8
	ret	0
??D?$_List_iterator@PAXU?$_Const_traits@PAX@stlp_std@@@priv@stlp_std@@QBEABQAXXZ ENDP ; stlp_std::priv::_List_iterator<void *,stlp_std::_Const_traits<void *> >::operator*
; Function compile flags: /Ogtpy
_TEXT	ENDS
;	COMDAT ??0?$_List_iterator@PAXU?$_Const_traits@PAX@stlp_std@@@priv@stlp_std@@QAE@ABU?$_List_iterator@PAXU?$_Nonconst_traits@PAX@stlp_std@@@12@@Z
_TEXT	SEGMENT
??0?$_List_iterator@PAXU?$_Const_traits@PAX@stlp_std@@@priv@stlp_std@@QAE@ABU?$_List_iterator@PAXU?$_Nonconst_traits@PAX@stlp_std@@@12@@Z PROC ; stlp_std::priv::_List_iterator<void *,stlp_std::_Const_traits<void *> >::_List_iterator<void *,stlp_std::_Const_traits<void *> >, COMDAT
; _this$ = eax
; ___x$ = ecx

; 116  :   _List_iterator(const iterator& __x) :  _List_iterator_base(__x._M_node) {}

	mov	edx, DWORD PTR [ecx]
	mov	DWORD PTR [eax], edx
	ret	0
??0?$_List_iterator@PAXU?$_Const_traits@PAX@stlp_std@@@priv@stlp_std@@QAE@ABU?$_List_iterator@PAXU?$_Nonconst_traits@PAX@stlp_std@@@12@@Z ENDP ; stlp_std::priv::_List_iterator<void *,stlp_std::_Const_traits<void *> >::_List_iterator<void *,stlp_std::_Const_traits<void *> >
; Function compile flags: /Ogtpy
_TEXT	ENDS
;	COMDAT ??9?$_List_iterator@PAXU?$_Nonconst_traits@PAX@stlp_std@@@priv@stlp_std@@QBE_NU?$_List_iterator@PAXU?$_Const_traits@PAX@stlp_std@@@12@@Z
_TEXT	SEGMENT
___y$ = 8						; size = 4
??9?$_List_iterator@PAXU?$_Nonconst_traits@PAX@stlp_std@@@priv@stlp_std@@QBE_NU?$_List_iterator@PAXU?$_Const_traits@PAX@stlp_std@@@12@@Z PROC ; stlp_std::priv::_List_iterator<void *,stlp_std::_Nonconst_traits<void *> >::operator!=, COMDAT
; _this$ = ecx

; 144  :     return this->_M_node != __y._M_node;

	mov	edx, DWORD PTR [ecx]
	xor	eax, eax
	cmp	edx, DWORD PTR ___y$[esp-4]
	setne	al

; 145  :   }

	ret	4
??9?$_List_iterator@PAXU?$_Nonconst_traits@PAX@stlp_std@@@priv@stlp_std@@QBE_NU?$_List_iterator@PAXU?$_Const_traits@PAX@stlp_std@@@12@@Z ENDP ; stlp_std::priv::_List_iterator<void *,stlp_std::_Nonconst_traits<void *> >::operator!=
; Function compile flags: /Ogtpy
_TEXT	ENDS
;	COMDAT ??D?$_List_iterator@PAXU?$_Nonconst_traits@PAX@stlp_std@@@priv@stlp_std@@QBEAAPAXXZ
_TEXT	SEGMENT
??D?$_List_iterator@PAXU?$_Nonconst_traits@PAX@stlp_std@@@priv@stlp_std@@QBEAAPAXXZ PROC ; stlp_std::priv::_List_iterator<void *,stlp_std::_Nonconst_traits<void *> >::operator*, COMDAT
; _this$ = eax

; 118  :   reference operator*() const { return __STATIC_CAST(_Node*, this->_M_node)->_M_data; }

	mov	eax, DWORD PTR [eax]
	add	eax, 8
	ret	0
??D?$_List_iterator@PAXU?$_Nonconst_traits@PAX@stlp_std@@@priv@stlp_std@@QBEAAPAXXZ ENDP ; stlp_std::priv::_List_iterator<void *,stlp_std::_Nonconst_traits<void *> >::operator*
; Function compile flags: /Ogtpy
_TEXT	ENDS
;	COMDAT ??0?$_List_iterator@PAXU?$_Nonconst_traits@PAX@stlp_std@@@priv@stlp_std@@QAE@ABU012@@Z
_TEXT	SEGMENT
??0?$_List_iterator@PAXU?$_Nonconst_traits@PAX@stlp_std@@@priv@stlp_std@@QAE@ABU012@@Z PROC ; stlp_std::priv::_List_iterator<void *,stlp_std::_Nonconst_traits<void *> >::_List_iterator<void *,stlp_std::_Nonconst_traits<void *> >, COMDAT
; _this$ = eax
; ___x$ = ecx

; 116  :   _List_iterator(const iterator& __x) :  _List_iterator_base(__x._M_node) {}

	mov	edx, DWORD PTR [ecx]
	mov	DWORD PTR [eax], edx
	ret	0
??0?$_List_iterator@PAXU?$_Nonconst_traits@PAX@stlp_std@@@priv@stlp_std@@QAE@ABU012@@Z ENDP ; stlp_std::priv::_List_iterator<void *,stlp_std::_Nonconst_traits<void *> >::_List_iterator<void *,stlp_std::_Nonconst_traits<void *> >
; Function compile flags: /Ogtpy
; File d:\clearsky\sources\engine\xrcore\_stl_extensions.h
_TEXT	ENDS
;	COMDAT ?deallocate@?$xalloc@V?$_List_node@PAX@priv@stlp_std@@@@QBEXPAV?$_List_node@PAX@priv@stlp_std@@I@Z
_TEXT	SEGMENT
?deallocate@?$xalloc@V?$_List_node@PAX@priv@stlp_std@@@@QBEXPAV?$_List_node@PAX@priv@stlp_std@@I@Z PROC ; xalloc<stlp_std::priv::_List_node<void *> >::deallocate, COMDAT
; _p$ = eax

; 83   : 							void					deallocate		(pointer p, size_type n) const			{	xr_free	(p);				}

	test	eax, eax
	je	SHORT $LN3@deallocate@23
	mov	ecx, DWORD PTR __imp_?Memory@@3VxrMemory@@A
	push	eax
	call	DWORD PTR __imp_?mem_free@xrMemory@@QAEXPAX@Z
$LN3@deallocate@23:
	ret	0
?deallocate@?$xalloc@V?$_List_node@PAX@priv@stlp_std@@@@QBEXPAV?$_List_node@PAX@priv@stlp_std@@I@Z ENDP ; xalloc<stlp_std::priv::_List_node<void *> >::deallocate
; Function compile flags: /Ogtpy
; File d:\clearsky\sources\sdk\include\stlport\stl\_vector.h
_TEXT	ENDS
;	COMDAT ?_M_set@?$_Impl_vector@U_esound_delegate@IGame_Level@@V?$xalloc@U_esound_delegate@IGame_Level@@@@@priv@stlp_std@@AAEXPAU_esound_delegate@IGame_Level@@00@Z
_TEXT	SEGMENT
___e$ = 8						; size = 4
?_M_set@?$_Impl_vector@U_esound_delegate@IGame_Level@@V?$xalloc@U_esound_delegate@IGame_Level@@@@@priv@stlp_std@@AAEXPAU_esound_delegate@IGame_Level@@00@Z PROC ; stlp_std::priv::_Impl_vector<IGame_Level::_esound_delegate,xalloc<IGame_Level::_esound_delegate> >::_M_set, COMDAT
; _this$ = eax
; ___s$ = ecx
; ___f$ = edx

; 626  :     this->_M_start = __s;

	mov	DWORD PTR [eax], ecx

; 627  :     this->_M_finish = __f;
; 628  :     this->_M_end_of_storage._M_data = __e;

	mov	ecx, DWORD PTR ___e$[esp-4]
	mov	DWORD PTR [eax+4], edx
	mov	DWORD PTR [eax+8], ecx

; 629  :   }

	ret	4
?_M_set@?$_Impl_vector@U_esound_delegate@IGame_Level@@V?$xalloc@U_esound_delegate@IGame_Level@@@@@priv@stlp_std@@AAEXPAU_esound_delegate@IGame_Level@@00@Z ENDP ; stlp_std::priv::_Impl_vector<IGame_Level::_esound_delegate,xalloc<IGame_Level::_esound_delegate> >::_M_set
; Function compile flags: /Ogtpy
; File d:\clearsky\sources\engine\xrcore\_stl_extensions.h
_TEXT	ENDS
;	COMDAT ??$?0PAX@?$xalloc@V?$_List_node@PAX@priv@stlp_std@@@@QAE@ABV?$xalloc@PAX@@@Z
_TEXT	SEGMENT
??$?0PAX@?$xalloc@V?$_List_node@PAX@priv@stlp_std@@@@QAE@ABV?$xalloc@PAX@@@Z PROC ; xalloc<stlp_std::priv::_List_node<void *> >::xalloc<stlp_std::priv::_List_node<void *> ><void *>, COMDAT
; _this$ = eax

; 79   : 	template<class _Other>							xalloc			(const xalloc<_Other>&)					{	}

	ret	0
??$?0PAX@?$xalloc@V?$_List_node@PAX@priv@stlp_std@@@@QAE@ABV?$xalloc@PAX@@@Z ENDP ; xalloc<stlp_std::priv::_List_node<void *> >::xalloc<stlp_std::priv::_List_node<void *> ><void *>
; Function compile flags: /Ogtpy
_TEXT	ENDS
;	COMDAT ??$?0V?$_List_node@PAX@priv@stlp_std@@@?$xalloc@PAX@@QAE@ABV?$xalloc@V?$_List_node@PAX@priv@stlp_std@@@@@Z
_TEXT	SEGMENT
??$?0V?$_List_node@PAX@priv@stlp_std@@@?$xalloc@PAX@@QAE@ABV?$xalloc@V?$_List_node@PAX@priv@stlp_std@@@@@Z PROC ; xalloc<void *>::xalloc<void *><stlp_std::priv::_List_node<void *> >, COMDAT
; _this$ = eax

; 79   : 	template<class _Other>							xalloc			(const xalloc<_Other>&)					{	}

	ret	0
??$?0V?$_List_node@PAX@priv@stlp_std@@@?$xalloc@PAX@@QAE@ABV?$xalloc@V?$_List_node@PAX@priv@stlp_std@@@@@Z ENDP ; xalloc<void *>::xalloc<void *><stlp_std::priv::_List_node<void *> >
; Function compile flags: /Ogtpy
_TEXT	ENDS
;	COMDAT ??$?0PAVISpatial@@@?$xalloc@PAX@@QAE@ABV?$xalloc@PAVISpatial@@@@@Z
_TEXT	SEGMENT
??$?0PAVISpatial@@@?$xalloc@PAX@@QAE@ABV?$xalloc@PAVISpatial@@@@@Z PROC ; xalloc<void *>::xalloc<void *><ISpatial *>, COMDAT
; _this$ = eax

; 79   : 	template<class _Other>							xalloc			(const xalloc<_Other>&)					{	}

	ret	0
??$?0PAVISpatial@@@?$xalloc@PAX@@QAE@ABV?$xalloc@PAVISpatial@@@@@Z ENDP ; xalloc<void *>::xalloc<void *><ISpatial *>
; Function compile flags: /Ogtpy
; File d:\clearsky\sources\engine\xrcore\_std_extensions.h
_TEXT	ENDS
;	COMDAT ??$_min@M@@YAMMM@Z
_TEXT	SEGMENT
??$_min@M@@YAMMM@Z PROC					; _min<float>, COMDAT
; _a$ = xmm1s
; _b$ = xmm0s

; 94   : template <class T>	IC T		_min	(T a, T b)	{ return a<b?a:b;	}

	comiss	xmm0, xmm1
	jbe	SHORT $LN4@min@2
	movaps	xmm0, xmm1
$LN4@min@2:
	ret	0
??$_min@M@@YAMMM@Z ENDP					; _min<float>
; Function compile flags: /Ogtpy
; File d:\clearsky\sources\engine\xrcore\xrmemory_subst_msvc.h
_TEXT	ENDS
;	COMDAT ??$xr_delete@VCCameraManager@@@@YAXAAPAVCCameraManager@@@Z
_TEXT	SEGMENT
??$xr_delete@VCCameraManager@@@@YAXAAPAVCCameraManager@@@Z PROC ; xr_delete<CCameraManager>, COMDAT
; _ptr$ = esi

; 151  : 	if (ptr) 

	mov	eax, DWORD PTR [esi]
	test	eax, eax
	je	SHORT $LN1@xr_delete@16
	push	edi

; 152  : 	{
; 153  : 		xr_special_free<is_polymorphic<T>::result,T>()(ptr);

	push	eax
	call	___RTCastToVoid
	mov	ecx, DWORD PTR [esi]
	mov	edi, eax
	mov	eax, DWORD PTR [ecx]
	mov	edx, DWORD PTR [eax+12]
	add	esp, 4
	push	0
	call	edx
	mov	ecx, DWORD PTR __imp_?Memory@@3VxrMemory@@A
	push	edi
	call	DWORD PTR __imp_?mem_free@xrMemory@@QAEXPAX@Z

; 154  : 		ptr = NULL;

	mov	DWORD PTR [esi], 0
	pop	edi
$LN1@xr_delete@16:

; 155  : 	}
; 156  : }

	ret	0
??$xr_delete@VCCameraManager@@@@YAXAAPAVCCameraManager@@@Z ENDP ; xr_delete<CCameraManager>
; Function compile flags: /Ogtpy
; File d:\clearsky\sources\engine\xrcore\_stl_extensions.h
_TEXT	ENDS
;	COMDAT ??0?$xalloc@U_esound_delegate@IGame_Level@@@@QAE@ABV0@@Z
_TEXT	SEGMENT
??0?$xalloc@U_esound_delegate@IGame_Level@@@@QAE@ABV0@@Z PROC ; xalloc<IGame_Level::_esound_delegate>::xalloc<IGame_Level::_esound_delegate>, COMDAT
; _this$ = eax

; 78   : 													xalloc			(const xalloc<T>&)						{	}

	ret	0
??0?$xalloc@U_esound_delegate@IGame_Level@@@@QAE@ABV0@@Z ENDP ; xalloc<IGame_Level::_esound_delegate>::xalloc<IGame_Level::_esound_delegate>
; Function compile flags: /Ogtpy
_TEXT	ENDS
;	COMDAT ??0?$xalloc@Uref_sound@@@@QAE@ABV0@@Z
_TEXT	SEGMENT
??0?$xalloc@Uref_sound@@@@QAE@ABV0@@Z PROC		; xalloc<ref_sound>::xalloc<ref_sound>, COMDAT
; _this$ = eax

; 78   : 													xalloc			(const xalloc<T>&)						{	}

	ret	0
??0?$xalloc@Uref_sound@@@@QAE@ABV0@@Z ENDP		; xalloc<ref_sound>::xalloc<ref_sound>
; Function compile flags: /Ogtpy
_TEXT	ENDS
;	COMDAT ??0?$xalloc@V?$_List_node@PAX@priv@stlp_std@@@@QAE@ABV0@@Z
_TEXT	SEGMENT
??0?$xalloc@V?$_List_node@PAX@priv@stlp_std@@@@QAE@ABV0@@Z PROC ; xalloc<stlp_std::priv::_List_node<void *> >::xalloc<stlp_std::priv::_List_node<void *> >, COMDAT
; _this$ = eax

; 78   : 													xalloc			(const xalloc<T>&)						{	}

	ret	0
??0?$xalloc@V?$_List_node@PAX@priv@stlp_std@@@@QAE@ABV0@@Z ENDP ; xalloc<stlp_std::priv::_List_node<void *> >::xalloc<stlp_std::priv::_List_node<void *> >
; Function compile flags: /Ogtpy
; File d:\clearsky\sources\sdk\include\stlport\stl\_alloc.h
_TEXT	ENDS
;	COMDAT ??0?$_STLP_alloc_proxy@PAU_esound_delegate@IGame_Level@@U12@V?$xalloc@U_esound_delegate@IGame_Level@@@@@priv@stlp_std@@QAE@ABV?$xalloc@U_esound_delegate@IGame_Level@@@@PAU_esound_delegate@IGame_Level@@@Z
_TEXT	SEGMENT
??0?$_STLP_alloc_proxy@PAU_esound_delegate@IGame_Level@@U12@V?$xalloc@U_esound_delegate@IGame_Level@@@@@priv@stlp_std@@QAE@ABV?$xalloc@U_esound_delegate@IGame_Level@@@@PAU_esound_delegate@IGame_Level@@@Z PROC ; stlp_std::priv::_STLP_alloc_proxy<IGame_Level::_esound_delegate *,IGame_Level::_esound_delegate,xalloc<IGame_Level::_esound_delegate> >::_STLP_alloc_proxy<IGame_Level::_esound_delegate *,IGame_Level::_esound_delegate,xalloc<IGame_Level::_esound_delegate> >, COMDAT
; _this$ = eax

; 571  :     _MaybeReboundAlloc(__a), _M_data(__p) {}

	mov	DWORD PTR [eax], 0
	ret	0
??0?$_STLP_alloc_proxy@PAU_esound_delegate@IGame_Level@@U12@V?$xalloc@U_esound_delegate@IGame_Level@@@@@priv@stlp_std@@QAE@ABV?$xalloc@U_esound_delegate@IGame_Level@@@@PAU_esound_delegate@IGame_Level@@@Z ENDP ; stlp_std::priv::_STLP_alloc_proxy<IGame_Level::_esound_delegate *,IGame_Level::_esound_delegate,xalloc<IGame_Level::_esound_delegate> >::_STLP_alloc_proxy<IGame_Level::_esound_delegate *,IGame_Level::_esound_delegate,xalloc<IGame_Level::_esound_delegate> >
; Function compile flags: /Ogtpy
_TEXT	ENDS
;	COMDAT ??0?$_STLP_alloc_proxy@PAUref_sound@@U1@V?$xalloc@Uref_sound@@@@@priv@stlp_std@@QAE@ABV?$xalloc@Uref_sound@@@@PAUref_sound@@@Z
_TEXT	SEGMENT
??0?$_STLP_alloc_proxy@PAUref_sound@@U1@V?$xalloc@Uref_sound@@@@@priv@stlp_std@@QAE@ABV?$xalloc@Uref_sound@@@@PAUref_sound@@@Z PROC ; stlp_std::priv::_STLP_alloc_proxy<ref_sound *,ref_sound,xalloc<ref_sound> >::_STLP_alloc_proxy<ref_sound *,ref_sound,xalloc<ref_sound> >, COMDAT
; _this$ = eax

; 571  :     _MaybeReboundAlloc(__a), _M_data(__p) {}

	mov	DWORD PTR [eax], 0
	ret	0
??0?$_STLP_alloc_proxy@PAUref_sound@@U1@V?$xalloc@Uref_sound@@@@@priv@stlp_std@@QAE@ABV?$xalloc@Uref_sound@@@@PAUref_sound@@@Z ENDP ; stlp_std::priv::_STLP_alloc_proxy<ref_sound *,ref_sound,xalloc<ref_sound> >::_STLP_alloc_proxy<ref_sound *,ref_sound,xalloc<ref_sound> >
; Function compile flags: /Ogtpy
; File d:\clearsky\sources\sdk\include\stlport\stl\_list.h
_TEXT	ENDS
;	COMDAT ??0?$_List_iterator@PAXU?$_Const_traits@PAX@stlp_std@@@priv@stlp_std@@QAE@PAU_List_node_base@12@@Z
_TEXT	SEGMENT
??0?$_List_iterator@PAXU?$_Const_traits@PAX@stlp_std@@@priv@stlp_std@@QAE@PAU_List_node_base@12@@Z PROC ; stlp_std::priv::_List_iterator<void *,stlp_std::_Const_traits<void *> >::_List_iterator<void *,stlp_std::_Const_traits<void *> >, COMDAT
; _this$ = eax
; ___x$ = ecx

; 113  :   explicit _List_iterator(_List_node_base* __x) : _List_iterator_base(__x) {}

	mov	DWORD PTR [eax], ecx
	ret	0
??0?$_List_iterator@PAXU?$_Const_traits@PAX@stlp_std@@@priv@stlp_std@@QAE@PAU_List_node_base@12@@Z ENDP ; stlp_std::priv::_List_iterator<void *,stlp_std::_Const_traits<void *> >::_List_iterator<void *,stlp_std::_Const_traits<void *> >
; Function compile flags: /Ogtpy
_TEXT	ENDS
;	COMDAT ??0?$_List_iterator@PAXU?$_Nonconst_traits@PAX@stlp_std@@@priv@stlp_std@@QAE@PAU_List_node_base@12@@Z
_TEXT	SEGMENT
??0?$_List_iterator@PAXU?$_Nonconst_traits@PAX@stlp_std@@@priv@stlp_std@@QAE@PAU_List_node_base@12@@Z PROC ; stlp_std::priv::_List_iterator<void *,stlp_std::_Nonconst_traits<void *> >::_List_iterator<void *,stlp_std::_Nonconst_traits<void *> >, COMDAT
; _this$ = eax
; ___x$ = ecx

; 113  :   explicit _List_iterator(_List_node_base* __x) : _List_iterator_base(__x) {}

	mov	DWORD PTR [eax], ecx
	ret	0
??0?$_List_iterator@PAXU?$_Nonconst_traits@PAX@stlp_std@@@priv@stlp_std@@QAE@PAU_List_node_base@12@@Z ENDP ; stlp_std::priv::_List_iterator<void *,stlp_std::_Nonconst_traits<void *> >::_List_iterator<void *,stlp_std::_Nonconst_traits<void *> >
; Function compile flags: /Ogtpy
; File d:\clearsky\sources\sdk\include\stlport\stl\_alloc.h
_TEXT	ENDS
;	COMDAT ??0?$_STLP_alloc_proxy@U_List_node_base@priv@stlp_std@@V?$_List_node@PAX@23@V?$xalloc@V?$_List_node@PAX@priv@stlp_std@@@@@priv@stlp_std@@QAE@ABV?$xalloc@V?$_List_node@PAX@priv@stlp_std@@@@U_List_node_base@12@@Z
_TEXT	SEGMENT
___p$ = 8						; size = 8
??0?$_STLP_alloc_proxy@U_List_node_base@priv@stlp_std@@V?$_List_node@PAX@23@V?$xalloc@V?$_List_node@PAX@priv@stlp_std@@@@@priv@stlp_std@@QAE@ABV?$xalloc@V?$_List_node@PAX@priv@stlp_std@@@@U_List_node_base@12@@Z PROC ; stlp_std::priv::_STLP_alloc_proxy<stlp_std::priv::_List_node_base,stlp_std::priv::_List_node<void *>,xalloc<stlp_std::priv::_List_node<void *> > >::_STLP_alloc_proxy<stlp_std::priv::_List_node_base,stlp_std::priv::_List_node<void *>,xalloc<stlp_std::priv::_List_node<void *> > >, COMDAT
; _this$ = eax

; 571  :     _MaybeReboundAlloc(__a), _M_data(__p) {}

	mov	ecx, DWORD PTR ___p$[esp-4]
	mov	edx, DWORD PTR ___p$[esp]
	mov	DWORD PTR [eax], ecx
	mov	DWORD PTR [eax+4], edx
	ret	8
??0?$_STLP_alloc_proxy@U_List_node_base@priv@stlp_std@@V?$_List_node@PAX@23@V?$xalloc@V?$_List_node@PAX@priv@stlp_std@@@@@priv@stlp_std@@QAE@ABV?$xalloc@V?$_List_node@PAX@priv@stlp_std@@@@U_List_node_base@12@@Z ENDP ; stlp_std::priv::_STLP_alloc_proxy<stlp_std::priv::_List_node_base,stlp_std::priv::_List_node<void *>,xalloc<stlp_std::priv::_List_node<void *> > >::_STLP_alloc_proxy<stlp_std::priv::_List_node_base,stlp_std::priv::_List_node<void *>,xalloc<stlp_std::priv::_List_node<void *> > >
; Function compile flags: /Ogtpy
; File d:\clearsky\sources\sdk\include\stlport\stl\_list.h
_TEXT	ENDS
;	COMDAT ?_M_empty_initialize@?$_List_base@PAXV?$xalloc@PAX@@@priv@stlp_std@@QAEXXZ
_TEXT	SEGMENT
?_M_empty_initialize@?$_List_base@PAXV?$xalloc@PAX@@@priv@stlp_std@@QAEXXZ PROC ; stlp_std::priv::_List_base<void *,xalloc<void *> >::_M_empty_initialize, COMDAT
; _this$ = eax

; 208  :     _M_node._M_data._M_next = &_M_node._M_data;

	mov	DWORD PTR [eax], eax

; 209  :     _M_node._M_data._M_prev = _M_node._M_data._M_next;

	mov	DWORD PTR [eax+4], eax

; 210  :   }

	ret	0
?_M_empty_initialize@?$_List_base@PAXV?$xalloc@PAX@@@priv@stlp_std@@QAEXXZ ENDP ; stlp_std::priv::_List_base<void *,xalloc<void *> >::_M_empty_initialize
; Function compile flags: /Ogtpy
; File d:\clearsky\sources\sdk\include\stlport\stl\_vector.h
_TEXT	ENDS
;	COMDAT ??0?$_Vector_base@U_esound_delegate@IGame_Level@@V?$xalloc@U_esound_delegate@IGame_Level@@@@@priv@stlp_std@@QAE@ABV?$xalloc@U_esound_delegate@IGame_Level@@@@@Z
_TEXT	SEGMENT
??0?$_Vector_base@U_esound_delegate@IGame_Level@@V?$xalloc@U_esound_delegate@IGame_Level@@@@@priv@stlp_std@@QAE@ABV?$xalloc@U_esound_delegate@IGame_Level@@@@@Z PROC ; stlp_std::priv::_Vector_base<IGame_Level::_esound_delegate,xalloc<IGame_Level::_esound_delegate> >::_Vector_base<IGame_Level::_esound_delegate,xalloc<IGame_Level::_esound_delegate> >, COMDAT
; _this$ = eax

; 67   :     : _M_start(0), _M_finish(0), _M_end_of_storage(__a, 0) {}

	xor	ecx, ecx
	mov	DWORD PTR [eax], ecx
	mov	DWORD PTR [eax+4], ecx
	mov	DWORD PTR [eax+8], ecx
	ret	0
??0?$_Vector_base@U_esound_delegate@IGame_Level@@V?$xalloc@U_esound_delegate@IGame_Level@@@@@priv@stlp_std@@QAE@ABV?$xalloc@U_esound_delegate@IGame_Level@@@@@Z ENDP ; stlp_std::priv::_Vector_base<IGame_Level::_esound_delegate,xalloc<IGame_Level::_esound_delegate> >::_Vector_base<IGame_Level::_esound_delegate,xalloc<IGame_Level::_esound_delegate> >
; Function compile flags: /Ogtpy
_TEXT	ENDS
;	COMDAT ??0?$_Vector_base@Uref_sound@@V?$xalloc@Uref_sound@@@@@priv@stlp_std@@QAE@ABV?$xalloc@Uref_sound@@@@@Z
_TEXT	SEGMENT
??0?$_Vector_base@Uref_sound@@V?$xalloc@Uref_sound@@@@@priv@stlp_std@@QAE@ABV?$xalloc@Uref_sound@@@@@Z PROC ; stlp_std::priv::_Vector_base<ref_sound,xalloc<ref_sound> >::_Vector_base<ref_sound,xalloc<ref_sound> >, COMDAT
; _this$ = eax

; 67   :     : _M_start(0), _M_finish(0), _M_end_of_storage(__a, 0) {}

	xor	ecx, ecx
	mov	DWORD PTR [eax], ecx
	mov	DWORD PTR [eax+4], ecx
	mov	DWORD PTR [eax+8], ecx
	ret	0
??0?$_Vector_base@Uref_sound@@V?$xalloc@Uref_sound@@@@@priv@stlp_std@@QAE@ABV?$xalloc@Uref_sound@@@@@Z ENDP ; stlp_std::priv::_Vector_base<ref_sound,xalloc<ref_sound> >::_Vector_base<ref_sound,xalloc<ref_sound> >
; Function compile flags: /Ogtpy
; File d:\clearsky\sources\sdk\include\stlport\stl\pointers\_tools.h
_TEXT	ENDS
;	COMDAT ?to_value_type_ptr@?$_CastTraits@Uref_sound@@U1@@priv@stlp_std@@SAPAUref_sound@@PAU4@@Z
_TEXT	SEGMENT
?to_value_type_ptr@?$_CastTraits@Uref_sound@@U1@@priv@stlp_std@@SAPAUref_sound@@PAU4@@Z PROC ; stlp_std::priv::_CastTraits<ref_sound,ref_sound>::to_value_type_ptr, COMDAT
; ___ptr$ = eax

; 237  :   { return __ptr; }

	ret	0
?to_value_type_ptr@?$_CastTraits@Uref_sound@@U1@@priv@stlp_std@@SAPAUref_sound@@PAU4@@Z ENDP ; stlp_std::priv::_CastTraits<ref_sound,ref_sound>::to_value_type_ptr
; Function compile flags: /Ogtpy
; File d:\clearsky\sources\sdk\include\stlport\stl\_list.h
_TEXT	ENDS
;	COMDAT ??0?$_List_base@PAXV?$xalloc@PAX@@@priv@stlp_std@@QAE@ABV?$xalloc@PAX@@@Z
_TEXT	SEGMENT
??0?$_List_base@PAXV?$xalloc@PAX@@@priv@stlp_std@@QAE@ABV?$xalloc@PAX@@@Z PROC ; stlp_std::priv::_List_base<void *,xalloc<void *> >::_List_base<void *,xalloc<void *> >, COMDAT
; _this$ = eax

; 189  :   { _M_empty_initialize(); }

	push	ebp
	mov	ebp, esp
	and	esp, -8					; fffffff8H
	mov	DWORD PTR [eax], eax
	mov	DWORD PTR [eax+4], eax
	mov	esp, ebp
	pop	ebp
	ret	0
??0?$_List_base@PAXV?$xalloc@PAX@@@priv@stlp_std@@QAE@ABV?$xalloc@PAX@@@Z ENDP ; stlp_std::priv::_List_base<void *,xalloc<void *> >::_List_base<void *,xalloc<void *> >
; Function compile flags: /Ogtpy
_TEXT	ENDS
;	COMDAT ?get_allocator@?$_List_base@PAXV?$xalloc@PAX@@@priv@stlp_std@@QBE?AV?$xalloc@PAX@@XZ
_TEXT	SEGMENT
?get_allocator@?$_List_base@PAXV?$xalloc@PAX@@@priv@stlp_std@@QBE?AV?$xalloc@PAX@@XZ PROC ; stlp_std::priv::_List_base<void *,xalloc<void *> >::get_allocator, COMDAT
; ___$ReturnUdt$ = eax

; 186  :   { return _STLP_CONVERT_ALLOCATOR((const _Node_allocator_type&)_M_node, _Tp); }

	ret	0
?get_allocator@?$_List_base@PAXV?$xalloc@PAX@@@priv@stlp_std@@QBE?AV?$xalloc@PAX@@XZ ENDP ; stlp_std::priv::_List_base<void *,xalloc<void *> >::get_allocator
; Function compile flags: /Ogtpy
_TEXT	ENDS
;	COMDAT ?end@?$_Impl_list@PAXV?$xalloc@PAX@@@priv@stlp_std@@QBE?AU?$_List_iterator@PAXU?$_Const_traits@PAX@stlp_std@@@23@XZ
_TEXT	SEGMENT
?end@?$_Impl_list@PAXV?$xalloc@PAX@@@priv@stlp_std@@QBE?AU?$_List_iterator@PAXU?$_Const_traits@PAX@stlp_std@@@23@XZ PROC ; stlp_std::priv::_Impl_list<void *,xalloc<void *> >::end, COMDAT
; _this$ = ecx
; ___$ReturnUdt$ = eax

; 366  :   const_iterator end() const            { return const_iterator(__CONST_CAST(_Node_base*, &this->_M_node._M_data)); }

	mov	DWORD PTR [eax], ecx
	ret	0
?end@?$_Impl_list@PAXV?$xalloc@PAX@@@priv@stlp_std@@QBE?AU?$_List_iterator@PAXU?$_Const_traits@PAX@stlp_std@@@23@XZ ENDP ; stlp_std::priv::_Impl_list<void *,xalloc<void *> >::end
; Function compile flags: /Ogtpy
_TEXT	ENDS
;	COMDAT ?begin@?$_Impl_list@PAXV?$xalloc@PAX@@@priv@stlp_std@@QBE?AU?$_List_iterator@PAXU?$_Const_traits@PAX@stlp_std@@@23@XZ
_TEXT	SEGMENT
?begin@?$_Impl_list@PAXV?$xalloc@PAX@@@priv@stlp_std@@QBE?AU?$_List_iterator@PAXU?$_Const_traits@PAX@stlp_std@@@23@XZ PROC ; stlp_std::priv::_Impl_list<void *,xalloc<void *> >::begin, COMDAT
; _this$ = ecx
; ___$ReturnUdt$ = eax

; 363  :   const_iterator begin() const          { return const_iterator(this->_M_node._M_data._M_next); }

	mov	edx, DWORD PTR [ecx]
	mov	DWORD PTR [eax], edx
	ret	0
?begin@?$_Impl_list@PAXV?$xalloc@PAX@@@priv@stlp_std@@QBE?AU?$_List_iterator@PAXU?$_Const_traits@PAX@stlp_std@@@23@XZ ENDP ; stlp_std::priv::_Impl_list<void *,xalloc<void *> >::begin
; Function compile flags: /Ogtpy
_TEXT	ENDS
;	COMDAT ?begin@?$_Impl_list@PAXV?$xalloc@PAX@@@priv@stlp_std@@QAE?AU?$_List_iterator@PAXU?$_Nonconst_traits@PAX@stlp_std@@@23@XZ
_TEXT	SEGMENT
?begin@?$_Impl_list@PAXV?$xalloc@PAX@@@priv@stlp_std@@QAE?AU?$_List_iterator@PAXU?$_Nonconst_traits@PAX@stlp_std@@@23@XZ PROC ; stlp_std::priv::_Impl_list<void *,xalloc<void *> >::begin, COMDAT
; _this$ = ecx
; ___$ReturnUdt$ = eax

; 362  :   iterator begin()                      { return iterator(this->_M_node._M_data._M_next); }

	mov	edx, DWORD PTR [ecx]
	mov	DWORD PTR [eax], edx
	ret	0
?begin@?$_Impl_list@PAXV?$xalloc@PAX@@@priv@stlp_std@@QAE?AU?$_List_iterator@PAXU?$_Nonconst_traits@PAX@stlp_std@@@23@XZ ENDP ; stlp_std::priv::_Impl_list<void *,xalloc<void *> >::begin
; Function compile flags: /Ogtpy
; File d:\clearsky\sources\engine\xrengine\pure.h
_TEXT	ENDS
;	COMDAT ?_REG_Compare@?$CRegistrator@VpureRender@@@@CAHPBX0@Z
_TEXT	SEGMENT
_e1$ = 8						; size = 4
_e2$ = 12						; size = 4
?_REG_Compare@?$CRegistrator@VpureRender@@@@CAHPBX0@Z PROC ; CRegistrator<pureRender>::_REG_Compare, COMDAT

; 42   : 	_REG_INFO *p1 = (_REG_INFO *)e1;
; 43   : 	_REG_INFO *p2 = (_REG_INFO *)e2;
; 44   : 	return (p2->Prio - p1->Prio);

	mov	eax, DWORD PTR _e2$[esp-4]
	mov	eax, DWORD PTR [eax+4]
	mov	ecx, DWORD PTR _e1$[esp-4]
	sub	eax, DWORD PTR [ecx+4]

; 45   : }

	ret	0
?_REG_Compare@?$CRegistrator@VpureRender@@@@CAHPBX0@Z ENDP ; CRegistrator<pureRender>::_REG_Compare
; Function compile flags: /Ogtpy
; File d:\clearsky\sources\sdk\include\stlport\stl\pointers\_tools.h
_TEXT	ENDS
;	COMDAT ?to_storage_type_cref@?$_CastTraits@U_esound_delegate@IGame_Level@@U12@@priv@stlp_std@@SAABU_esound_delegate@IGame_Level@@ABU45@@Z
_TEXT	SEGMENT
?to_storage_type_cref@?$_CastTraits@U_esound_delegate@IGame_Level@@U12@@priv@stlp_std@@SAABU_esound_delegate@IGame_Level@@ABU45@@Z PROC ; stlp_std::priv::_CastTraits<IGame_Level::_esound_delegate,IGame_Level::_esound_delegate>::to_storage_type_cref, COMDAT
; ___ref$ = eax

; 254  :   { return __ref; }

	ret	0
?to_storage_type_cref@?$_CastTraits@U_esound_delegate@IGame_Level@@U12@@priv@stlp_std@@SAABU_esound_delegate@IGame_Level@@ABU45@@Z ENDP ; stlp_std::priv::_CastTraits<IGame_Level::_esound_delegate,IGame_Level::_esound_delegate>::to_storage_type_cref
; Function compile flags: /Ogtpy
_TEXT	ENDS
;	COMDAT ?to_storage_type_ptr@?$_CastTraits@U_esound_delegate@IGame_Level@@U12@@priv@stlp_std@@SAPAU_esound_delegate@IGame_Level@@PAU45@@Z
_TEXT	SEGMENT
?to_storage_type_ptr@?$_CastTraits@U_esound_delegate@IGame_Level@@U12@@priv@stlp_std@@SAPAU_esound_delegate@IGame_Level@@PAU45@@Z PROC ; stlp_std::priv::_CastTraits<IGame_Level::_esound_delegate,IGame_Level::_esound_delegate>::to_storage_type_ptr, COMDAT
; ___ptr$ = eax

; 248  :   { return __ptr; }

	ret	0
?to_storage_type_ptr@?$_CastTraits@U_esound_delegate@IGame_Level@@U12@@priv@stlp_std@@SAPAU_esound_delegate@IGame_Level@@PAU45@@Z ENDP ; stlp_std::priv::_CastTraits<IGame_Level::_esound_delegate,IGame_Level::_esound_delegate>::to_storage_type_ptr
; Function compile flags: /Ogtpy
_TEXT	ENDS
;	COMDAT ?to_value_type_ref@?$_CastTraits@U_esound_delegate@IGame_Level@@U12@@priv@stlp_std@@SAAAU_esound_delegate@IGame_Level@@AAU45@@Z
_TEXT	SEGMENT
?to_value_type_ref@?$_CastTraits@U_esound_delegate@IGame_Level@@U12@@priv@stlp_std@@SAAAU_esound_delegate@IGame_Level@@AAU45@@Z PROC ; stlp_std::priv::_CastTraits<IGame_Level::_esound_delegate,IGame_Level::_esound_delegate>::to_value_type_ref, COMDAT
; ___ref$ = eax

; 243  :   { return __ref; }

	ret	0
?to_value_type_ref@?$_CastTraits@U_esound_delegate@IGame_Level@@U12@@priv@stlp_std@@SAAAU_esound_delegate@IGame_Level@@AAU45@@Z ENDP ; stlp_std::priv::_CastTraits<IGame_Level::_esound_delegate,IGame_Level::_esound_delegate>::to_value_type_ref
; Function compile flags: /Ogtpy
_TEXT	ENDS
;	COMDAT ?to_value_type_ptr@?$_CastTraits@U_esound_delegate@IGame_Level@@U12@@priv@stlp_std@@SAPAU_esound_delegate@IGame_Level@@PAU45@@Z
_TEXT	SEGMENT
?to_value_type_ptr@?$_CastTraits@U_esound_delegate@IGame_Level@@U12@@priv@stlp_std@@SAPAU_esound_delegate@IGame_Level@@PAU45@@Z PROC ; stlp_std::priv::_CastTraits<IGame_Level::_esound_delegate,IGame_Level::_esound_delegate>::to_value_type_ptr, COMDAT
; ___ptr$ = eax

; 237  :   { return __ptr; }

	ret	0
?to_value_type_ptr@?$_CastTraits@U_esound_delegate@IGame_Level@@U12@@priv@stlp_std@@SAPAU_esound_delegate@IGame_Level@@PAU45@@Z ENDP ; stlp_std::priv::_CastTraits<IGame_Level::_esound_delegate,IGame_Level::_esound_delegate>::to_value_type_ptr
; Function compile flags: /Ogtpy
; File d:\clearsky\sources\sdk\include\stlport\stl\_vector.h
_TEXT	ENDS
;	COMDAT ?empty@?$_Impl_vector@U_esound_delegate@IGame_Level@@V?$xalloc@U_esound_delegate@IGame_Level@@@@@priv@stlp_std@@QBE_NXZ
_TEXT	SEGMENT
?empty@?$_Impl_vector@U_esound_delegate@IGame_Level@@V?$xalloc@U_esound_delegate@IGame_Level@@@@@priv@stlp_std@@QBE_NXZ PROC ; stlp_std::priv::_Impl_vector<IGame_Level::_esound_delegate,xalloc<IGame_Level::_esound_delegate> >::empty, COMDAT
; _this$ = eax

; 188  :   bool empty() const            { return this->_M_start == this->_M_finish; }

	mov	ecx, DWORD PTR [eax]
	xor	edx, edx
	cmp	ecx, DWORD PTR [eax+4]
	sete	dl
	mov	al, dl
	ret	0
?empty@?$_Impl_vector@U_esound_delegate@IGame_Level@@V?$xalloc@U_esound_delegate@IGame_Level@@@@@priv@stlp_std@@QBE_NXZ ENDP ; stlp_std::priv::_Impl_vector<IGame_Level::_esound_delegate,xalloc<IGame_Level::_esound_delegate> >::empty
; Function compile flags: /Ogtpy
; File d:\clearsky\sources\engine\xrcore\_stl_extensions.h
_TEXT	ENDS
;	COMDAT ??0?$xalloc@U_esound_delegate@IGame_Level@@@@QAE@XZ
_TEXT	SEGMENT
??0?$xalloc@U_esound_delegate@IGame_Level@@@@QAE@XZ PROC ; xalloc<IGame_Level::_esound_delegate>::xalloc<IGame_Level::_esound_delegate>, COMDAT
; _this$ = eax

; 77   : 													xalloc			()										{	}

	ret	0
??0?$xalloc@U_esound_delegate@IGame_Level@@@@QAE@XZ ENDP ; xalloc<IGame_Level::_esound_delegate>::xalloc<IGame_Level::_esound_delegate>
; Function compile flags: /Ogtpy
_TEXT	ENDS
;	COMDAT ??0?$xalloc@Uref_sound@@@@QAE@XZ
_TEXT	SEGMENT
??0?$xalloc@Uref_sound@@@@QAE@XZ PROC			; xalloc<ref_sound>::xalloc<ref_sound>, COMDAT
; _this$ = eax

; 77   : 													xalloc			()										{	}

	ret	0
??0?$xalloc@Uref_sound@@@@QAE@XZ ENDP			; xalloc<ref_sound>::xalloc<ref_sound>
; Function compile flags: /Ogtpy
_TEXT	ENDS
;	COMDAT ??0?$xalloc@PAVISpatial@@@@QAE@XZ
_TEXT	SEGMENT
??0?$xalloc@PAVISpatial@@@@QAE@XZ PROC			; xalloc<ISpatial *>::xalloc<ISpatial *>, COMDAT
; _this$ = eax

; 77   : 													xalloc			()										{	}

	ret	0
??0?$xalloc@PAVISpatial@@@@QAE@XZ ENDP			; xalloc<ISpatial *>::xalloc<ISpatial *>
; Function compile flags: /Ogtpy
; File d:\clearsky\sources\sdk\include\stlport\stl\pointers\_vector.h
_TEXT	ENDS
;	COMDAT ?empty@?$vector@U_esound_delegate@IGame_Level@@V?$xalloc@U_esound_delegate@IGame_Level@@@@@stlp_std@@QBE_NXZ
_TEXT	SEGMENT
?empty@?$vector@U_esound_delegate@IGame_Level@@V?$xalloc@U_esound_delegate@IGame_Level@@@@@stlp_std@@QBE_NXZ PROC ; stlp_std::vector<IGame_Level::_esound_delegate,xalloc<IGame_Level::_esound_delegate> >::empty, COMDAT
; _this$ = eax

; 93   :   bool empty() const            { return _M_impl.empty(); }

	mov	ecx, DWORD PTR [eax]
	xor	edx, edx
	cmp	ecx, DWORD PTR [eax+4]
	sete	dl
	mov	al, dl
	ret	0
?empty@?$vector@U_esound_delegate@IGame_Level@@V?$xalloc@U_esound_delegate@IGame_Level@@@@@stlp_std@@QBE_NXZ ENDP ; stlp_std::vector<IGame_Level::_esound_delegate,xalloc<IGame_Level::_esound_delegate> >::empty
; Function compile flags: /Ogtpy
; File d:\clearsky\sources\engine\xrcore\fixedvector.h
_TEXT	ENDS
;	COMDAT ?push_back@?$svector@USItem_ServerInfo@CServerInfo@@$0P@@@QAEXUSItem_ServerInfo@CServerInfo@@@Z
_TEXT	SEGMENT
_e$ = 8							; size = 132
?push_back@?$svector@USItem_ServerInfo@CServerInfo@@$0P@@@QAEXUSItem_ServerInfo@CServerInfo@@@Z PROC ; svector<CServerInfo::SItem_ServerInfo,15>::push_back, COMDAT
; _this$ = eax

; 35   : 	IC void		push_back(value_type e)		{ VERIFY(count<dim); array[count++]=e;	}

	push	esi
	push	edi
	mov	edi, DWORD PTR [eax+1980]
	imul	edi, 132				; 00000084H
	add	edi, eax
	mov	ecx, 33					; 00000021H
	lea	esi, DWORD PTR _e$[esp+4]
	rep movsd
	add	DWORD PTR [eax+1980], 1
	pop	edi
	pop	esi
	ret	132					; 00000084H
?push_back@?$svector@USItem_ServerInfo@CServerInfo@@$0P@@@QAEXUSItem_ServerInfo@CServerInfo@@@Z ENDP ; svector<CServerInfo::SItem_ServerInfo,15>::push_back
; Function compile flags: /Ogtpy
; File d:\clearsky\sources\engine\xrcore\xrmemory_subst_msvc.h
_TEXT	ENDS
;	COMDAT ??R?$xr_special_free@$00VCSound_UserData@@@@QAEXAAPAVCSound_UserData@@@Z
_TEXT	SEGMENT
??R?$xr_special_free@$00VCSound_UserData@@@@QAEXAAPAVCSound_UserData@@@Z PROC ; xr_special_free<1,CSound_UserData>::operator(), COMDAT
; _ptr$ = esi

; 132  : 		void*	_real_ptr	= dynamic_cast<void*>(ptr);

	mov	eax, DWORD PTR [esi]
	push	edi
	push	eax
	call	___RTCastToVoid

; 133  : 		ptr->~T			();

	mov	ecx, DWORD PTR [esi]
	mov	edx, DWORD PTR [ecx]
	add	esp, 4
	mov	edi, eax
	mov	eax, DWORD PTR [edx]
	push	0
	call	eax

; 134  : 		Memory.mem_free	(_real_ptr);

	mov	ecx, DWORD PTR __imp_?Memory@@3VxrMemory@@A
	push	edi
	call	DWORD PTR __imp_?mem_free@xrMemory@@QAEXPAX@Z
	pop	edi

; 135  : 	}

	ret	0
??R?$xr_special_free@$00VCSound_UserData@@@@QAEXAAPAVCSound_UserData@@@Z ENDP ; xr_special_free<1,CSound_UserData>::operator()
; Function compile flags: /Ogtpy
; File d:\clearsky\sources\engine\xrcore\xr_resource.h
_TEXT	ENDS
;	COMDAT ??7?$resptr_core@Vref_sound_data@@V?$resptr_base@Vref_sound_data@@@@@@QBE_NXZ
_TEXT	SEGMENT
??7?$resptr_core@Vref_sound_data@@V?$resptr_base@Vref_sound_data@@@@@@QBE_NXZ PROC ; resptr_core<ref_sound_data,resptr_base<ref_sound_data> >::operator!, COMDAT
; _this$ = ecx

; 76   : 						bool operator!	() const										{	return p_ == 0;	}

	xor	eax, eax
	cmp	DWORD PTR [ecx], eax
	sete	al
	ret	0
??7?$resptr_core@Vref_sound_data@@V?$resptr_base@Vref_sound_data@@@@@@QBE_NXZ ENDP ; resptr_core<ref_sound_data,resptr_base<ref_sound_data> >::operator!
; Function compile flags: /Ogtpy
; File d:\clearsky\sources\engine\xrcore\_vector3d.h
_TEXT	ENDS
;	COMDAT ?mul@?$_vector3@M@@QAEAAU1@M@Z
_TEXT	SEGMENT
?mul@?$_vector3@M@@QAEAAU1@M@Z PROC			; _vector3<float>::mul, COMDAT
; _this$ = eax
; _s$ = xmm0s

; 40   : 	ICF SelfRef	mul(T s)								{ x*=s;		y*=s;		z*=s;			return *this;	};

	movss	xmm1, DWORD PTR [eax]
	mulss	xmm1, xmm0
	movss	DWORD PTR [eax], xmm1
	movss	xmm1, DWORD PTR [eax+4]
	mulss	xmm1, xmm0
	movss	DWORD PTR [eax+4], xmm1
	movss	xmm1, DWORD PTR [eax+8]
	mulss	xmm1, xmm0
	movss	DWORD PTR [eax+8], xmm1
	ret	0
?mul@?$_vector3@M@@QAEAAU1@M@Z ENDP			; _vector3<float>::mul
; Function compile flags: /Ogtpy
_TEXT	ENDS
;	COMDAT ?add@?$_vector3@M@@QAEAAU1@ABU1@@Z
_TEXT	SEGMENT
?add@?$_vector3@M@@QAEAAU1@ABU1@@Z PROC			; _vector3<float>::add, COMDAT
; _this$ = eax
; _v$ = ecx

; 29   : 	ICF	SelfRef	add(const Self &v)						{ x+=v.x;	y+=v.y;		z+=v.z;			return *this;	};

	movss	xmm0, DWORD PTR [ecx]
	addss	xmm0, DWORD PTR [eax]
	movss	DWORD PTR [eax], xmm0
	movss	xmm0, DWORD PTR [ecx+4]
	addss	xmm0, DWORD PTR [eax+4]
	movss	DWORD PTR [eax+4], xmm0
	movss	xmm0, DWORD PTR [ecx+8]
	addss	xmm0, DWORD PTR [eax+8]
	movss	DWORD PTR [eax+8], xmm0
	ret	0
?add@?$_vector3@M@@QAEAAU1@ABU1@@Z ENDP			; _vector3<float>::add
_TEXT	ENDS
PUBLIC	??Rrem_pred@?1??SoundEvent_OnDestDestroy@IGame_Level@@QAEXPAVSound@Feel@@@Z@QAE_NABU_esound_delegate@2@@Z ; `IGame_Level::SoundEvent_OnDestDestroy'::`2'::rem_pred::operator()
; Function compile flags: /Ogtpy
; File d:\clearsky\sources\engine\xrengine\igame_level.cpp
;	COMDAT ??Rrem_pred@?1??SoundEvent_OnDestDestroy@IGame_Level@@QAEXPAVSound@Feel@@@Z@QAE_NABU_esound_delegate@2@@Z
_TEXT	SEGMENT
??Rrem_pred@?1??SoundEvent_OnDestDestroy@IGame_Level@@QAEXPAVSound@Feel@@@Z@QAE_NABU_esound_delegate@2@@Z PROC ; `IGame_Level::SoundEvent_OnDestDestroy'::`2'::rem_pred::operator(), COMDAT
; _this$ = edx
; _d$ = eax

; 320  : 			return d.dest == m_obj;

	mov	ecx, DWORD PTR [eax]
	xor	eax, eax
	cmp	ecx, DWORD PTR [edx]
	sete	al

; 321  : 		}

	ret	0
??Rrem_pred@?1??SoundEvent_OnDestDestroy@IGame_Level@@QAEXPAVSound@Feel@@@Z@QAE_NABU_esound_delegate@2@@Z ENDP ; `IGame_Level::SoundEvent_OnDestDestroy'::`2'::rem_pred::operator()
_TEXT	ENDS
PUBLIC	??0rem_pred@?1??SoundEvent_OnDestDestroy@IGame_Level@@QAEXPAVSound@Feel@@@Z@QAE@0@Z ; `IGame_Level::SoundEvent_OnDestDestroy'::`2'::rem_pred::rem_pred
; Function compile flags: /Ogtpy
;	COMDAT ??0rem_pred@?1??SoundEvent_OnDestDestroy@IGame_Level@@QAEXPAVSound@Feel@@@Z@QAE@0@Z
_TEXT	SEGMENT
??0rem_pred@?1??SoundEvent_OnDestDestroy@IGame_Level@@QAEXPAVSound@Feel@@@Z@QAE@0@Z PROC ; `IGame_Level::SoundEvent_OnDestDestroy'::`2'::rem_pred::rem_pred, COMDAT
; _this$ = eax
; _obj$ = ecx

; 316  : 		rem_pred(Feel::Sound* obj) : m_obj(obj) {}

	mov	DWORD PTR [eax], ecx
	ret	0
??0rem_pred@?1??SoundEvent_OnDestDestroy@IGame_Level@@QAEXPAVSound@Feel@@@Z@QAE@0@Z ENDP ; `IGame_Level::SoundEvent_OnDestDestroy'::`2'::rem_pred::rem_pred
_TEXT	ENDS
PUBLIC	?SetViewEntity@IGame_Level@@QAEXPAVCObject@@@Z	; IGame_Level::SetViewEntity
; Function compile flags: /Ogtpy
;	COMDAT ?SetViewEntity@IGame_Level@@QAEXPAVCObject@@@Z
_TEXT	SEGMENT
_O$ = 8							; size = 4
?SetViewEntity@IGame_Level@@QAEXPAVCObject@@@Z PROC	; IGame_Level::SetViewEntity, COMDAT
; _this$ = ecx

; 226  : {

	push	esi
	push	edi
	mov	edi, ecx

; 227  : 	if (pCurrentViewEntity)

	mov	ecx, DWORD PTR [edi+36]
	test	ecx, ecx
	je	SHORT $LN2@SetViewEnt

; 228  : 		pCurrentViewEntity->On_LostEntity();

	mov	eax, DWORD PTR [ecx]
	mov	edx, DWORD PTR [eax+116]
	call	edx
$LN2@SetViewEnt:

; 229  : 
; 230  : 	if (O)

	mov	esi, DWORD PTR _O$[esp+4]
	test	esi, esi
	je	SHORT $LN5@SetViewEnt

; 231  : 		O->On_SetEntity();

	mov	eax, DWORD PTR [esi]
	mov	edx, DWORD PTR [eax+112]
	mov	ecx, esi
	call	edx
$LN5@SetViewEnt:

; 232  : 
; 233  : 	pCurrentViewEntity=O;

	mov	DWORD PTR [edi+36], esi
	pop	edi
	pop	esi

; 234  : }

	ret	4
?SetViewEntity@IGame_Level@@QAEXPAVCObject@@@Z ENDP	; IGame_Level::SetViewEntity
_TEXT	ENDS
PUBLIC	?SetEntity@IGame_Level@@QAEXPAVCObject@@@Z	; IGame_Level::SetEntity
; Function compile flags: /Ogtpy
;	COMDAT ?SetEntity@IGame_Level@@QAEXPAVCObject@@@Z
_TEXT	SEGMENT
_O$ = 8							; size = 4
?SetEntity@IGame_Level@@QAEXPAVCObject@@@Z PROC		; IGame_Level::SetEntity, COMDAT
; _this$ = ecx

; 215  : {

	push	esi
	push	edi
	mov	edi, ecx

; 216  : 	if (pCurrentEntity)

	mov	ecx, DWORD PTR [edi+32]
	test	ecx, ecx
	je	SHORT $LN2@SetEntity

; 217  : 		pCurrentEntity->On_LostEntity();

	mov	eax, DWORD PTR [ecx]
	mov	edx, DWORD PTR [eax+116]
	call	edx
$LN2@SetEntity:

; 218  : 	
; 219  : 	if (O)

	mov	esi, DWORD PTR _O$[esp+4]
	test	esi, esi
	je	SHORT $LN5@SetEntity

; 220  : 		O->On_SetEntity();

	mov	eax, DWORD PTR [esi]
	mov	edx, DWORD PTR [eax+112]
	mov	ecx, esi
	call	edx
$LN5@SetEntity:

; 221  : 
; 222  : 	pCurrentEntity=pCurrentViewEntity=O;

	mov	DWORD PTR [edi+32], esi
	mov	DWORD PTR [edi+36], esi
	pop	edi
	pop	esi

; 223  : }

	ret	4
?SetEntity@IGame_Level@@QAEXPAVCObject@@@Z ENDP		; IGame_Level::SetEntity
; Function compile flags: /Ogtpy
_TEXT	ENDS
;	COMDAT ?OnRender@IGame_Level@@UAEXXZ
_TEXT	SEGMENT
?OnRender@IGame_Level@@UAEXXZ PROC			; IGame_Level::OnRender, COMDAT
; _this$ = ecx

; 148  : #ifndef DEDICATED_SERVER
; 149  : //	if (_abs(Device.fTimeDelta)<EPS_S) return;
; 150  : 
; 151  : 	// Level render, only when no client output required
; 152  : 	if (!g_dedicated_server)	{

	cmp	BYTE PTR ?g_dedicated_server@@3_NA, 0	; g_dedicated_server
	jne	SHORT $LN2@OnRender

; 153  : 		Render->Calculate			();

	mov	eax, DWORD PTR __imp_?Render@@3PAVIRender_interface@@A
	mov	ecx, DWORD PTR [eax]
	mov	edx, DWORD PTR [ecx]
	mov	eax, DWORD PTR [edx+184]
	call	eax

; 154  : 		Render->Render				();

	mov	ecx, DWORD PTR __imp_?Render@@3PAVIRender_interface@@A
	mov	ecx, DWORD PTR [ecx]
	mov	edx, DWORD PTR [ecx]
	mov	eax, DWORD PTR [edx+188]
	jmp	eax
$LN2@OnRender:

; 155  : 	} else {
; 156  : 		Sleep						(psNET_DedicatedSleep);

	mov	ecx, DWORD PTR ?psNET_DedicatedSleep@@3HA ; psNET_DedicatedSleep
	push	ecx
	call	DWORD PTR __imp__Sleep@4

; 157  : 	}
; 158  : 
; 159  : 	// Font
; 160  : //	pApp->pFontSystem->SetSizeI(0.023f);
; 161  : //	pApp->pFontSystem->OnRender	();
; 162  : #endif
; 163  : }

	ret	0
?OnRender@IGame_Level@@UAEXXZ ENDP			; IGame_Level::OnRender
; Function compile flags: /Ogtpy
_TEXT	ENDS
;	COMDAT ?build_callback@@YGXPAU?$_vector3@M@@HPAVTRI@CDB@@HPAX@Z
_TEXT	SEGMENT
_V$ = 8							; size = 4
_Vcnt$ = 12						; size = 4
_T$ = 16						; size = 4
_Tcnt$ = 20						; size = 4
_params$ = 24						; size = 4
?build_callback@@YGXPAU?$_vector3@M@@HPAVTRI@CDB@@HPAX@Z PROC ; build_callback, COMDAT

; 79   : 	g_pGameLevel->Load_GameSpecific_CFORM( T, Tcnt );

	mov	edx, DWORD PTR _Tcnt$[esp-4]
	mov	ecx, DWORD PTR ?g_pGameLevel@@3PAVIGame_Level@@A ; g_pGameLevel
	mov	eax, DWORD PTR [ecx]
	mov	eax, DWORD PTR [eax+48]
	push	edx
	mov	edx, DWORD PTR _T$[esp]
	push	edx
	call	eax

; 80   : }

	ret	20					; 00000014H
?build_callback@@YGXPAU?$_vector3@M@@HPAVTRI@CDB@@HPAX@Z ENDP ; build_callback
_TEXT	ENDS
PUBLIC	??4Sound@Feel@@QAEAAV01@ABV01@@Z		; Feel::Sound::operator=
; Function compile flags: /Ogtpy
;	COMDAT ??4Sound@Feel@@QAEAAV01@ABV01@@Z
_TEXT	SEGMENT
___that$ = 8						; size = 4
??4Sound@Feel@@QAEAAV01@ABV01@@Z PROC			; Feel::Sound::operator=, COMDAT
; _this$ = ecx
	mov	eax, ecx
	ret	4
??4Sound@Feel@@QAEAAV01@ABV01@@Z ENDP			; Feel::Sound::operator=
_TEXT	ENDS
PUBLIC	??0Sound@Feel@@QAE@ABV01@@Z			; Feel::Sound::Sound
; Function compile flags: /Ogtpy
;	COMDAT ??0Sound@Feel@@QAE@ABV01@@Z
_TEXT	SEGMENT
___that$ = 8						; size = 4
??0Sound@Feel@@QAE@ABV01@@Z PROC			; Feel::Sound::Sound, COMDAT
; _this$ = ecx
	mov	eax, ecx
	mov	DWORD PTR [eax], OFFSET ??_7Sound@Feel@@6B@
	ret	4
??0Sound@Feel@@QAE@ABV01@@Z ENDP			; Feel::Sound::Sound
_TEXT	ENDS
PUBLIC	??0Sound@Feel@@QAE@XZ				; Feel::Sound::Sound
; Function compile flags: /Ogtpy
;	COMDAT ??0Sound@Feel@@QAE@XZ
_TEXT	SEGMENT
??0Sound@Feel@@QAE@XZ PROC				; Feel::Sound::Sound, COMDAT
; _this$ = ecx
	mov	eax, ecx
	mov	DWORD PTR [eax], OFFSET ??_7Sound@Feel@@6B@
	ret	0
??0Sound@Feel@@QAE@XZ ENDP				; Feel::Sound::Sound
_TEXT	ENDS
PUBLIC	?Aspect@CCameraManager@@QBEMXZ			; CCameraManager::Aspect
; Function compile flags: /Ogtpy
; File d:\clearsky\sources\engine\xrengine\cameramanager.h
;	COMDAT ?Aspect@CCameraManager@@QBEMXZ
_TEXT	SEGMENT
?Aspect@CCameraManager@@QBEMXZ PROC			; CCameraManager::Aspect, COMDAT
; _this$ = ecx

; 121  : 	IC float				Aspect					()	const { return m_cam_info.fAspect; }

	fld	DWORD PTR [ecx+60]
	ret	0
?Aspect@CCameraManager@@QBEMXZ ENDP			; CCameraManager::Aspect
_TEXT	ENDS
PUBLIC	?Fov@CCameraManager@@QBEMXZ			; CCameraManager::Fov
; Function compile flags: /Ogtpy
;	COMDAT ?Fov@CCameraManager@@QBEMXZ
_TEXT	SEGMENT
?Fov@CCameraManager@@QBEMXZ PROC			; CCameraManager::Fov, COMDAT
; _this$ = ecx

; 120  : 	IC float				Fov						()	const { return m_cam_info.fFov; }

	fld	DWORD PTR [ecx+52]
	ret	0
?Fov@CCameraManager@@QBEMXZ ENDP			; CCameraManager::Fov
_TEXT	ENDS
PUBLIC	?Right@CCameraManager@@QBE?AU?$_vector3@M@@XZ	; CCameraManager::Right
; Function compile flags: /Ogtpy
;	COMDAT ?Right@CCameraManager@@QBE?AU?$_vector3@M@@XZ
_TEXT	SEGMENT
___$ReturnUdt$ = 8					; size = 4
?Right@CCameraManager@@QBE?AU?$_vector3@M@@XZ PROC	; CCameraManager::Right, COMDAT
; _this$ = ecx

; 119  : 	IC Fvector				Right					()	const { return m_cam_info.r;	}

	mov	edx, DWORD PTR [ecx+40]
	mov	eax, DWORD PTR ___$ReturnUdt$[esp-4]
	mov	DWORD PTR [eax], edx
	mov	edx, DWORD PTR [ecx+44]
	mov	ecx, DWORD PTR [ecx+48]
	mov	DWORD PTR [eax+4], edx
	mov	DWORD PTR [eax+8], ecx
	ret	4
?Right@CCameraManager@@QBE?AU?$_vector3@M@@XZ ENDP	; CCameraManager::Right
_TEXT	ENDS
PUBLIC	?Up@CCameraManager@@QBE?AU?$_vector3@M@@XZ	; CCameraManager::Up
; Function compile flags: /Ogtpy
;	COMDAT ?Up@CCameraManager@@QBE?AU?$_vector3@M@@XZ
_TEXT	SEGMENT
___$ReturnUdt$ = 8					; size = 4
?Up@CCameraManager@@QBE?AU?$_vector3@M@@XZ PROC		; CCameraManager::Up, COMDAT
; _this$ = ecx

; 118  : 	IC Fvector				Up						()	const { return m_cam_info.n;	}

	mov	edx, DWORD PTR [ecx+28]
	mov	eax, DWORD PTR ___$ReturnUdt$[esp-4]
	mov	DWORD PTR [eax], edx
	mov	edx, DWORD PTR [ecx+32]
	mov	ecx, DWORD PTR [ecx+36]
	mov	DWORD PTR [eax+4], edx
	mov	DWORD PTR [eax+8], ecx
	ret	4
?Up@CCameraManager@@QBE?AU?$_vector3@M@@XZ ENDP		; CCameraManager::Up
_TEXT	ENDS
PUBLIC	?Direction@CCameraManager@@QBE?AU?$_vector3@M@@XZ ; CCameraManager::Direction
; Function compile flags: /Ogtpy
;	COMDAT ?Direction@CCameraManager@@QBE?AU?$_vector3@M@@XZ
_TEXT	SEGMENT
___$ReturnUdt$ = 8					; size = 4
?Direction@CCameraManager@@QBE?AU?$_vector3@M@@XZ PROC	; CCameraManager::Direction, COMDAT
; _this$ = ecx

; 117  : 	IC Fvector				Direction				()	const { return m_cam_info.d;}

	mov	edx, DWORD PTR [ecx+16]
	mov	eax, DWORD PTR ___$ReturnUdt$[esp-4]
	mov	DWORD PTR [eax], edx
	mov	edx, DWORD PTR [ecx+20]
	mov	ecx, DWORD PTR [ecx+24]
	mov	DWORD PTR [eax+4], edx
	mov	DWORD PTR [eax+8], ecx
	ret	4
?Direction@CCameraManager@@QBE?AU?$_vector3@M@@XZ ENDP	; CCameraManager::Direction
_TEXT	ENDS
PUBLIC	?Position@CCameraManager@@QBE?AU?$_vector3@M@@XZ ; CCameraManager::Position
; Function compile flags: /Ogtpy
;	COMDAT ?Position@CCameraManager@@QBE?AU?$_vector3@M@@XZ
_TEXT	SEGMENT
___$ReturnUdt$ = 8					; size = 4
?Position@CCameraManager@@QBE?AU?$_vector3@M@@XZ PROC	; CCameraManager::Position, COMDAT
; _this$ = ecx

; 116  : 	IC Fvector				Position				()	const { return m_cam_info.p;	}

	mov	edx, DWORD PTR [ecx+4]
	mov	eax, DWORD PTR ___$ReturnUdt$[esp-4]
	mov	DWORD PTR [eax], edx
	mov	edx, DWORD PTR [ecx+8]
	mov	ecx, DWORD PTR [ecx+12]
	mov	DWORD PTR [eax+4], edx
	mov	DWORD PTR [eax+8], ecx
	ret	4
?Position@CCameraManager@@QBE?AU?$_vector3@M@@XZ ENDP	; CCameraManager::Position
_TEXT	ENDS
PUBLIC	??4SCamEffectorInfo@@QAEAAU0@ABU0@@Z		; SCamEffectorInfo::operator=
; Function compile flags: /Ogtpy
; File d:\clearsky\sources\engine\xrengine\cameradefs.h
;	COMDAT ??4SCamEffectorInfo@@QAEAAU0@ABU0@@Z
_TEXT	SEGMENT
_other$ = 8						; size = 4
??4SCamEffectorInfo@@QAEAAU0@ABU0@@Z PROC		; SCamEffectorInfo::operator=, COMDAT
; _this$ = ecx

; 26   : 	{

	mov	eax, ecx

; 27   : 		p					= other.p; 

	mov	ecx, DWORD PTR _other$[esp-4]
	mov	edx, DWORD PTR [ecx]
	mov	DWORD PTR [eax], edx
	mov	edx, DWORD PTR [ecx+4]
	mov	DWORD PTR [eax+4], edx
	mov	edx, DWORD PTR [ecx+8]
	mov	DWORD PTR [eax+8], edx

; 28   : 		d					= other.d; 

	mov	edx, DWORD PTR [ecx+12]
	mov	DWORD PTR [eax+12], edx
	mov	edx, DWORD PTR [ecx+16]
	mov	DWORD PTR [eax+16], edx
	mov	edx, DWORD PTR [ecx+20]
	mov	DWORD PTR [eax+20], edx

; 29   : 		n					= other.n;

	mov	edx, DWORD PTR [ecx+24]
	mov	DWORD PTR [eax+24], edx
	mov	edx, DWORD PTR [ecx+28]
	mov	DWORD PTR [eax+28], edx
	mov	edx, DWORD PTR [ecx+32]
	mov	DWORD PTR [eax+32], edx

; 30   : 		r					= other.r;

	mov	edx, DWORD PTR [ecx+36]
	mov	DWORD PTR [eax+36], edx
	mov	edx, DWORD PTR [ecx+40]
	mov	DWORD PTR [eax+40], edx
	mov	edx, DWORD PTR [ecx+44]
	mov	DWORD PTR [eax+44], edx

; 31   : 		fFov				= other.fFov; 

	fld	DWORD PTR [ecx+48]
	fstp	DWORD PTR [eax+48]

; 32   : 		fFar				= other.fFar; 

	fld	DWORD PTR [ecx+52]
	fstp	DWORD PTR [eax+52]

; 33   : 		fAspect				= other.fAspect; 

	fld	DWORD PTR [ecx+56]
	fstp	DWORD PTR [eax+56]

; 34   : 		dont_apply			= other.dont_apply;

	mov	dl, BYTE PTR [ecx+60]
	mov	BYTE PTR [eax+60], dl

; 35   : 		affected_on_hud		= other.affected_on_hud;

	mov	cl, BYTE PTR [ecx+61]
	mov	BYTE PTR [eax+61], cl

; 36   : 		return				*this;
; 37   : 	}

	ret	4
??4SCamEffectorInfo@@QAEAAU0@ABU0@@Z ENDP		; SCamEffectorInfo::operator=
_TEXT	ENDS
PUBLIC	??1SBaseEffector@@UAE@XZ			; SBaseEffector::~SBaseEffector
; Function compile flags: /Ogtpy
;	COMDAT ??1SBaseEffector@@UAE@XZ
_TEXT	SEGMENT
??1SBaseEffector@@UAE@XZ PROC				; SBaseEffector::~SBaseEffector, COMDAT
; _this$ = ecx

; 10   : 	virtual ~SBaseEffector(){}

	mov	DWORD PTR [ecx], OFFSET ??_7SBaseEffector@@6B@
	ret	0
??1SBaseEffector@@UAE@XZ ENDP				; SBaseEffector::~SBaseEffector
; Function compile flags: /Ogtpy
; File d:\clearsky\sources\engine\xrengine\customhud.h
_TEXT	ENDS
;	COMDAT ?Load@CCustomHUD@@UAEXXZ
_TEXT	SEGMENT
?Load@CCustomHUD@@UAEXXZ PROC				; CCustomHUD::Load, COMDAT
; _this$ = ecx

; 39   : 	virtual		void		Load					(){;}

	ret	0
?Load@CCustomHUD@@UAEXXZ ENDP				; CCustomHUD::Load
; Function compile flags: /Ogtpy
_TEXT	ENDS
;	COMDAT ?OnEvent@CCustomHUD@@UAEXPAVCEvent@@_K1@Z
_TEXT	SEGMENT
_E$ = 8							; size = 4
_P1$ = 12						; size = 8
_P2$ = 20						; size = 8
?OnEvent@CCustomHUD@@UAEXPAVCEvent@@_K1@Z PROC		; CCustomHUD::OnEvent, COMDAT
; _this$ = ecx

; 37   : 	virtual		void		OnEvent					(EVENT E, u64 P1, u64 P2){;}

	ret	20					; 00000014H
?OnEvent@CCustomHUD@@UAEXPAVCEvent@@_K1@Z ENDP		; CCustomHUD::OnEvent
; Function compile flags: /Ogtpy
_TEXT	ENDS
;	COMDAT ?OnFrame@CCustomHUD@@UAEXXZ
_TEXT	SEGMENT
?OnFrame@CCustomHUD@@UAEXXZ PROC			; CCustomHUD::OnFrame, COMDAT
; _this$ = ecx

; 36   : 	virtual		void		OnFrame					(){;}

	ret	0
?OnFrame@CCustomHUD@@UAEXXZ ENDP			; CCustomHUD::OnFrame
; Function compile flags: /Ogtpy
_TEXT	ENDS
;	COMDAT ?Render_Last@CCustomHUD@@UAEXXZ
_TEXT	SEGMENT
?Render_Last@CCustomHUD@@UAEXXZ PROC			; CCustomHUD::Render_Last, COMDAT
; _this$ = ecx

; 32   : 	virtual		void		Render_Last				(){;}

	ret	0
?Render_Last@CCustomHUD@@UAEXXZ ENDP			; CCustomHUD::Render_Last
; Function compile flags: /Ogtpy
_TEXT	ENDS
;	COMDAT ?Render_First@CCustomHUD@@UAEXXZ
_TEXT	SEGMENT
?Render_First@CCustomHUD@@UAEXXZ PROC			; CCustomHUD::Render_First, COMDAT
; _this$ = ecx

; 31   : 	virtual		void		Render_First			(){;}

	ret	0
?Render_First@CCustomHUD@@UAEXXZ ENDP			; CCustomHUD::Render_First
; Function compile flags: /Ogtpy
; File d:\clearsky\sources\engine\xrcore\xrmemory_subst_msvc.h
;	COMDAT ??$xr_delete@VCSound_UserData@@@@YAXAAPAVCSound_UserData@@@Z
_TEXT	SEGMENT
??$xr_delete@VCSound_UserData@@@@YAXAAPAVCSound_UserData@@@Z PROC ; xr_delete<CSound_UserData>, COMDAT
; _ptr$ = esi

; 151  : 	if (ptr) 

	mov	eax, DWORD PTR [esi]
	test	eax, eax
	je	SHORT $LN1@xr_delete@25
	push	edi

; 152  : 	{
; 153  : 		xr_special_free<is_polymorphic<T>::result,T>()(ptr);

	push	eax
	call	___RTCastToVoid
	mov	ecx, DWORD PTR [esi]
	mov	edi, eax
	mov	eax, DWORD PTR [ecx]
	mov	edx, DWORD PTR [eax]
	add	esp, 4
	push	0
	call	edx
	mov	ecx, DWORD PTR __imp_?Memory@@3VxrMemory@@A
	push	edi
	call	DWORD PTR __imp_?mem_free@xrMemory@@QAEXPAX@Z

; 154  : 		ptr = NULL;

	mov	DWORD PTR [esi], 0
	pop	edi
$LN1@xr_delete@25:

; 155  : 	}
; 156  : }

	ret	0
??$xr_delete@VCSound_UserData@@@@YAXAAPAVCSound_UserData@@@Z ENDP ; xr_delete<CSound_UserData>
; Function compile flags: /Ogtpy
; File d:\clearsky\sources\engine\xrcore\xr_resource.h
_TEXT	ENDS
;	COMDAT ?_dec@?$resptr_base@VCSound_UserData@@@@IAEXXZ
_TEXT	SEGMENT
?_dec@?$resptr_base@VCSound_UserData@@@@IAEXXZ PROC	; resptr_base<CSound_UserData>::_dec, COMDAT
; _this$ = esi

; 44   : 	void				_dec	()									{	if (0==p_) return;	p_->dwReference--; if (0==p_->dwReference) xr_delete(p_);				}

	mov	eax, DWORD PTR [esi]
	test	eax, eax
	je	SHORT $LN5@dec@7
	add	DWORD PTR [eax+4], -1
	mov	eax, DWORD PTR [esi]
	cmp	DWORD PTR [eax+4], 0
	jne	SHORT $LN5@dec@7
	test	eax, eax
	je	SHORT $LN5@dec@7
	push	edi
	push	eax
	call	___RTCastToVoid
	mov	ecx, DWORD PTR [esi]
	mov	edi, eax
	mov	eax, DWORD PTR [ecx]
	mov	edx, DWORD PTR [eax]
	add	esp, 4
	push	0
	call	edx
	mov	ecx, DWORD PTR __imp_?Memory@@3VxrMemory@@A
	push	edi
	call	DWORD PTR __imp_?mem_free@xrMemory@@QAEXPAX@Z
	mov	DWORD PTR [esi], 0
	pop	edi
$LN5@dec@7:
	ret	0
?_dec@?$resptr_base@VCSound_UserData@@@@IAEXXZ ENDP	; resptr_base<CSound_UserData>::_dec
; Function compile flags: /Ogtpy
_TEXT	ENDS
;	COMDAT ??1?$resptr_core@VCSound_UserData@@V?$resptr_base@VCSound_UserData@@@@@@QAE@XZ
_TEXT	SEGMENT
??1?$resptr_core@VCSound_UserData@@V?$resptr_base@VCSound_UserData@@@@@@QAE@XZ PROC ; resptr_core<CSound_UserData,resptr_base<CSound_UserData> >::~resptr_core<CSound_UserData,resptr_base<CSound_UserData> >, COMDAT
; _this$ = esi

; 64   : 						~resptr_core	()												{	_dec();						}

	mov	eax, DWORD PTR [esi]
	test	eax, eax
	je	SHORT $LN7@resptr_cor@5
	add	DWORD PTR [eax+4], -1
	mov	eax, DWORD PTR [esi]
	cmp	DWORD PTR [eax+4], 0
	jne	SHORT $LN7@resptr_cor@5
	test	eax, eax
	je	SHORT $LN7@resptr_cor@5
	push	edi
	push	eax
	call	___RTCastToVoid
	mov	ecx, DWORD PTR [esi]
	mov	edi, eax
	mov	eax, DWORD PTR [ecx]
	mov	edx, DWORD PTR [eax]
	add	esp, 4
	push	0
	call	edx
	mov	ecx, DWORD PTR __imp_?Memory@@3VxrMemory@@A
	push	edi
	call	DWORD PTR __imp_?mem_free@xrMemory@@QAEXPAX@Z
	mov	DWORD PTR [esi], 0
	pop	edi
$LN7@resptr_cor@5:
	ret	0
??1?$resptr_core@VCSound_UserData@@V?$resptr_base@VCSound_UserData@@@@@@QAE@XZ ENDP ; resptr_core<CSound_UserData,resptr_base<CSound_UserData> >::~resptr_core<CSound_UserData,resptr_base<CSound_UserData> >
; Function compile flags: /Ogtpy
_TEXT	ENDS
;	COMDAT ??B?$resptr_core@Vref_sound_data@@V?$resptr_base@Vref_sound_data@@@@@@QBEP80@BEPAVref_sound_data@@XZXZ
_TEXT	SEGMENT
??B?$resptr_core@Vref_sound_data@@V?$resptr_base@Vref_sound_data@@@@@@QBEP80@BEPAVref_sound_data@@XZXZ PROC ; resptr_core<ref_sound_data,resptr_base<ref_sound_data> >::operator ref_sound_data * (__thiscall resptr_core<ref_sound_data,resptr_base<ref_sound_data> >::*)(void)const , COMDAT
; _this$ = eax

; 75   : 						operator unspecified_bool_type () const							{	return p_ == 0? 0: &resptr_core::_get;	}

	mov	eax, DWORD PTR [eax]
	neg	eax
	sbb	eax, eax
	and	eax, OFFSET ?_get@?$resptr_base@Vref_sound_data@@@@QBEPAVref_sound_data@@XZ ; resptr_base<ref_sound_data>::_get
	ret	0
??B?$resptr_core@Vref_sound_data@@V?$resptr_base@Vref_sound_data@@@@@@QBEP80@BEPAVref_sound_data@@XZXZ ENDP ; resptr_core<ref_sound_data,resptr_base<ref_sound_data> >::operator ref_sound_data * (__thiscall resptr_core<ref_sound_data,resptr_base<ref_sound_data> >::*)(void)const 
; Function compile flags: /Ogtpy
; File d:\clearsky\sources\engine\xrsound\sound.h
_TEXT	ENDS
;	COMDAT ?_feedback@ref_sound@@QAEPAVCSound_emitter@@XZ
_TEXT	SEGMENT
?_feedback@ref_sound@@QAEPAVCSound_emitter@@XZ PROC	; ref_sound::_feedback, COMDAT
; _this$ = eax

; 120  : 	IC CSound_emitter*		_feedback				()						{return _p?_p->feedback:0;}

	mov	eax, DWORD PTR [eax]
	mov	ecx, eax
	neg	ecx
	sbb	ecx, ecx
	test	ecx, OFFSET ?_get@?$resptr_base@Vref_sound_data@@@@QBEPAVref_sound_data@@XZ ; resptr_base<ref_sound_data>::_get
	je	SHORT $LN3@feedback
	mov	eax, DWORD PTR [eax+12]
	ret	0
$LN3@feedback:
	xor	eax, eax
	ret	0
?_feedback@ref_sound@@QAEPAVCSound_emitter@@XZ ENDP	; ref_sound::_feedback
; Function compile flags: /Ogtpy
_TEXT	ENDS
;	COMDAT ?set_range@ref_sound@@QAEXMM@Z
_TEXT	SEGMENT
_min$ = 8						; size = 4
_max$ = 12						; size = 4
?set_range@ref_sound@@QAEXMM@Z PROC			; ref_sound::set_range, COMDAT
; _this$ = eax

; 310  : IC void	ref_sound::set_range					( float min, float max )								{	VERIFY(!::Sound->i_locked()); 	if (_feedback())	_feedback()->set_range(min,max);							}

	mov	eax, DWORD PTR [eax]
	mov	ecx, eax
	neg	ecx
	sbb	ecx, ecx
	test	ecx, OFFSET ?_get@?$resptr_base@Vref_sound_data@@@@QBEPAVref_sound_data@@XZ ; resptr_base<ref_sound_data>::_get
	je	SHORT $LN1@set_range
	mov	ecx, DWORD PTR [eax+12]
	test	ecx, ecx
	je	SHORT $LN1@set_range
	fld	DWORD PTR _max$[esp-4]
	mov	edx, DWORD PTR [ecx]
	mov	eax, DWORD PTR [edx+20]
	sub	esp, 8
	fstp	DWORD PTR [esp+4]
	fld	DWORD PTR _min$[esp+4]
	fstp	DWORD PTR [esp]
	call	eax
$LN1@set_range:
	ret	8
?set_range@ref_sound@@QAEXMM@Z ENDP			; ref_sound::set_range
_TEXT	ENDS
PUBLIC	__real@38000100
;	COMDAT __real@38000100
; File d:\clearsky\sources\engine\xrcore\_random.h
CONST	SEGMENT
__real@38000100 DD 038000100r			; 3.05185e-005
; Function compile flags: /Ogtpy
CONST	ENDS
;	COMDAT ?randF@CRandom@@QAEMXZ
_TEXT	SEGMENT
?randF@CRandom@@QAEMXZ PROC				; CRandom::randF, COMDAT
; _this$ = eax

; 39   : 	IC 	float	randF	()							{ return float(randI())/maxF();	}

	call	?randI@CRandom@@QAEHXZ			; CRandom::randI
	cvtsi2ss xmm0, eax
	mulss	xmm0, DWORD PTR __real@38000100
	ret	0
?randF@CRandom@@QAEMXZ ENDP				; CRandom::randF
; Function compile flags: /Ogtpy
_TEXT	ENDS
;	COMDAT ?randF@CRandom@@QAEMM@Z
_TEXT	SEGMENT
_max$ = 8						; size = 4
?randF@CRandom@@QAEMM@Z PROC				; CRandom::randF, COMDAT
; _this$ = eax

; 40   : 	IC 	float	randF	(float max)					{ return randF()*max; }

	call	?randI@CRandom@@QAEHXZ			; CRandom::randI
	cvtsi2ss xmm0, eax
	mulss	xmm0, DWORD PTR _max$[esp-4]
	mulss	xmm0, DWORD PTR __real@38000100
	ret	4
?randF@CRandom@@QAEMM@Z ENDP				; CRandom::randF
; Function compile flags: /Ogtpy
; File d:\clearsky\sources\sdk\include\stlport\stl\_list.h
_TEXT	ENDS
;	COMDAT ??$insert@U?$_List_iterator@PAXU?$_Nonconst_traits@PAX@stlp_std@@@priv@stlp_std@@@?$_Impl_list@PAXV?$xalloc@PAX@@@priv@stlp_std@@QAEXU?$_List_iterator@PAXU?$_Nonconst_traits@PAX@stlp_std@@@12@00@Z
_TEXT	SEGMENT
$T259543 = -1						; size = 1
_this$ = 8						; size = 4
___pos$ = 12						; size = 4
___first$ = 16						; size = 4
___last$ = 20						; size = 4
??$insert@U?$_List_iterator@PAXU?$_Nonconst_traits@PAX@stlp_std@@@priv@stlp_std@@@?$_Impl_list@PAXV?$xalloc@PAX@@@priv@stlp_std@@QAEXU?$_List_iterator@PAXU?$_Nonconst_traits@PAX@stlp_std@@@12@00@Z PROC ; stlp_std::priv::_Impl_list<void *,xalloc<void *> >::insert<stlp_std::priv::_List_iterator<void *,stlp_std::_Nonconst_traits<void *> > >, COMDAT

; 459  :   void insert(iterator __pos, _InputIterator __first, _InputIterator __last) {

	push	ecx

; 460  :     typedef typename _IsIntegral<_InputIterator>::_Ret _Integral;
; 461  :     _M_splice_insert_dispatch(__pos, __first, __last, _Integral());

	mov	edx, DWORD PTR ___first$[esp]
	lea	eax, DWORD PTR $T259543[esp+4]
	push	eax
	push	ecx
	mov	ecx, DWORD PTR ___last$[esp+8]
	mov	eax, esp
	push	ecx
	mov	BYTE PTR $T259543[esp+16], 0
	mov	DWORD PTR [eax], ecx
	mov	eax, esp
	push	ecx
	mov	ecx, DWORD PTR ___pos$[esp+16]
	mov	DWORD PTR [eax], edx
	mov	eax, esp
	mov	DWORD PTR [eax], ecx
	mov	ecx, DWORD PTR _this$[esp+16]
	call	??$_M_splice_insert_dispatch@U?$_List_iterator@PAXU?$_Nonconst_traits@PAX@stlp_std@@@priv@stlp_std@@@?$_Impl_list@PAXV?$xalloc@PAX@@@priv@stlp_std@@AAEXU?$_List_iterator@PAXU?$_Nonconst_traits@PAX@stlp_std@@@12@00ABU__false_type@2@@Z ; stlp_std::priv::_Impl_list<void *,xalloc<void *> >::_M_splice_insert_dispatch<stlp_std::priv::_List_iterator<void *,stlp_std::_Nonconst_traits<void *> > >

; 462  :   }

	pop	ecx
	ret	16					; 00000010H
??$insert@U?$_List_iterator@PAXU?$_Nonconst_traits@PAX@stlp_std@@@priv@stlp_std@@@?$_Impl_list@PAXV?$xalloc@PAX@@@priv@stlp_std@@QAEXU?$_List_iterator@PAXU?$_Nonconst_traits@PAX@stlp_std@@@12@00@Z ENDP ; stlp_std::priv::_Impl_list<void *,xalloc<void *> >::insert<stlp_std::priv::_List_iterator<void *,stlp_std::_Nonconst_traits<void *> > >
; Function compile flags: /Ogtpy
; File d:\clearsky\sources\sdk\include\stlport\stl\_algobase.c
_TEXT	ENDS
;	COMDAT ??$__find_if@PAU_esound_delegate@IGame_Level@@Urem_pred@?1??SoundEvent_OnDestDestroy@2@QAEXPAVSound@Feel@@@Z@@priv@stlp_std@@YAPAU_esound_delegate@IGame_Level@@PAU23@0Urem_pred@?1??SoundEvent_OnDestDestroy@3@QAEXPAVSound@Feel@@@Z@ABUrandom_access_iterator_tag@1@@Z
_TEXT	SEGMENT
___pred$ = 8						; size = 4
??$__find_if@PAU_esound_delegate@IGame_Level@@Urem_pred@?1??SoundEvent_OnDestDestroy@2@QAEXPAVSound@Feel@@@Z@@priv@stlp_std@@YAPAU_esound_delegate@IGame_Level@@PAU23@0Urem_pred@?1??SoundEvent_OnDestDestroy@3@QAEXPAVSound@Feel@@@Z@ABUrandom_access_iterator_tag@1@@Z PROC ; stlp_std::priv::__find_if<IGame_Level::_esound_delegate *,`IGame_Level::SoundEvent_OnDestDestroy'::`2'::rem_pred>, COMDAT
; ___first$ = ecx
; ___last$ = edi

; 155  :   _STLP_DIFFERENCE_TYPE(_RandomAccessIter) __trip_count = (__last - __first) >> 2;

	mov	edx, edi
	sub	edx, ecx
	mov	eax, 715827883				; 2aaaaaabH
	imul	edx
	sar	edx, 1
	mov	eax, edx
	shr	eax, 31					; 0000001fH
	add	eax, edx
	sar	eax, 2

; 156  : 
; 157  :   for ( ; __trip_count > 0 ; --__trip_count) {

	test	eax, eax
	push	esi
	mov	esi, DWORD PTR ___pred$[esp]
	jle	SHORT $LN14@find_if@3
$LL16@find_if@3:

; 158  :     if (__pred(*__first)) return __first;

	cmp	DWORD PTR [ecx], esi
	je	SHORT $LN34@find_if@3

; 159  :     ++__first;

	add	ecx, 12					; 0000000cH

; 160  : 
; 161  :     if (__pred(*__first)) return __first;

	cmp	DWORD PTR [ecx], esi
	je	SHORT $LN34@find_if@3

; 162  :     ++__first;

	add	ecx, 12					; 0000000cH

; 163  : 
; 164  :     if (__pred(*__first)) return __first;

	cmp	DWORD PTR [ecx], esi
	je	SHORT $LN34@find_if@3

; 165  :     ++__first;

	add	ecx, 12					; 0000000cH

; 166  : 
; 167  :     if (__pred(*__first)) return __first;

	cmp	DWORD PTR [ecx], esi
	je	SHORT $LN34@find_if@3
	sub	eax, 1

; 168  :     ++__first;

	add	ecx, 12					; 0000000cH
	test	eax, eax
	jg	SHORT $LL16@find_if@3
$LN14@find_if@3:

; 169  :   }
; 170  : 
; 171  :   switch(__last - __first) {

	mov	edx, edi
	sub	edx, ecx
	mov	eax, 715827883				; 2aaaaaabH
	imul	edx
	sar	edx, 1
	mov	eax, edx
	shr	eax, 31					; 0000001fH
	add	eax, edx
	sub	eax, 1
	je	SHORT $LN3@find_if@3
	sub	eax, 1
	je	SHORT $LN5@find_if@3
	sub	eax, 1
	jne	SHORT $LN2@find_if@3

; 172  :   case 3:
; 173  :     if (__pred(*__first)) return __first;

	cmp	DWORD PTR [ecx], esi
	je	SHORT $LN34@find_if@3

; 174  :     ++__first;

	add	ecx, 12					; 0000000cH
$LN5@find_if@3:

; 175  :   case 2:
; 176  :     if (__pred(*__first)) return __first;

	cmp	DWORD PTR [ecx], esi
	je	SHORT $LN34@find_if@3

; 177  :     ++__first;

	add	ecx, 12					; 0000000cH
$LN3@find_if@3:

; 178  :   case 1:
; 179  :     if (__pred(*__first)) return __first;

	cmp	DWORD PTR [ecx], esi
	mov	eax, ecx
	je	SHORT $LN8@find_if@3
$LN2@find_if@3:

; 180  :       //++__first;
; 181  :   case 0:
; 182  :   default:
; 183  :     return __last;

	mov	eax, edi
$LN8@find_if@3:
	pop	esi

; 184  :   }
; 185  : }

	ret	0
$LN34@find_if@3:

; 158  :     if (__pred(*__first)) return __first;

	mov	eax, ecx
	pop	esi

; 184  :   }
; 185  : }

	ret	0
??$__find_if@PAU_esound_delegate@IGame_Level@@Urem_pred@?1??SoundEvent_OnDestDestroy@2@QAEXPAVSound@Feel@@@Z@@priv@stlp_std@@YAPAU_esound_delegate@IGame_Level@@PAU23@0Urem_pred@?1??SoundEvent_OnDestDestroy@3@QAEXPAVSound@Feel@@@Z@ABUrandom_access_iterator_tag@1@@Z ENDP ; stlp_std::priv::__find_if<IGame_Level::_esound_delegate *,`IGame_Level::SoundEvent_OnDestDestroy'::`2'::rem_pred>
; Function compile flags: /Ogtpy
; File d:\clearsky\sources\sdk\include\stlport\stl\_iterator_base.h
_TEXT	ENDS
;	COMDAT ??$__distance@U?$_List_iterator@PAXU?$_Const_traits@PAX@stlp_std@@@priv@stlp_std@@@stlp_std@@YAHABU?$_List_iterator@PAXU?$_Const_traits@PAX@stlp_std@@@priv@0@0ABUinput_iterator_tag@0@@Z
_TEXT	SEGMENT
??$__distance@U?$_List_iterator@PAXU?$_Const_traits@PAX@stlp_std@@@priv@stlp_std@@@stlp_std@@YAHABU?$_List_iterator@PAXU?$_Const_traits@PAX@stlp_std@@@priv@0@0ABUinput_iterator_tag@0@@Z PROC ; stlp_std::__distance<stlp_std::priv::_List_iterator<void *,stlp_std::_Const_traits<void *> > >, COMDAT
; ___first$ = ecx
; ___last$ = edx

; 331  :   _STLP_DIFFERENCE_TYPE(_InputIterator) __n = 0;
; 332  :   _InputIterator __it(__first);

	mov	ecx, DWORD PTR [ecx]
	mov	edx, DWORD PTR [edx]
	xor	eax, eax

; 333  :   while (__it != __last) {

	cmp	ecx, edx
	je	SHORT $LN1@distance@3
	npad	6
$LL2@distance@3:

; 334  :     ++__it; ++__n;

	mov	ecx, DWORD PTR [ecx]
	add	eax, 1
	cmp	ecx, edx
	jne	SHORT $LL2@distance@3
$LN1@distance@3:

; 335  :   }
; 336  :   return __n;
; 337  : }

	ret	0
??$__distance@U?$_List_iterator@PAXU?$_Const_traits@PAX@stlp_std@@@priv@stlp_std@@@stlp_std@@YAHABU?$_List_iterator@PAXU?$_Const_traits@PAX@stlp_std@@@priv@0@0ABUinput_iterator_tag@0@@Z ENDP ; stlp_std::__distance<stlp_std::priv::_List_iterator<void *,stlp_std::_Const_traits<void *> > >
; Function compile flags: /Ogtpy
; File d:\clearsky\sources\sdk\include\stlport\stl\_algobase.c
_TEXT	ENDS
;	COMDAT ??$find_if@PAU_esound_delegate@IGame_Level@@Urem_pred@?1??SoundEvent_OnDestDestroy@2@QAEXPAVSound@Feel@@@Z@@stlp_std@@YAPAU_esound_delegate@IGame_Level@@PAU12@0Urem_pred@?1??SoundEvent_OnDestDestroy@2@QAEXPAVSound@Feel@@@Z@@Z
_TEXT	SEGMENT
___pred$ = 8						; size = 4
??$find_if@PAU_esound_delegate@IGame_Level@@Urem_pred@?1??SoundEvent_OnDestDestroy@2@QAEXPAVSound@Feel@@@Z@@stlp_std@@YAPAU_esound_delegate@IGame_Level@@PAU12@0Urem_pred@?1??SoundEvent_OnDestDestroy@2@QAEXPAVSound@Feel@@@Z@@Z PROC ; stlp_std::find_if<IGame_Level::_esound_delegate *,`IGame_Level::SoundEvent_OnDestDestroy'::`2'::rem_pred>, COMDAT
; ___first$ = ecx
; ___last$ = edi

; 209  :   _STLP_DEBUG_CHECK(_STLP_PRIV __check_range(__first, __last))
; 210  :   return _STLP_PRIV __find_if(__first, __last, __pred, _STLP_ITERATOR_CATEGORY(__first, _InputIter));

	jmp	??$__find_if@PAU_esound_delegate@IGame_Level@@Urem_pred@?1??SoundEvent_OnDestDestroy@2@QAEXPAVSound@Feel@@@Z@@priv@stlp_std@@YAPAU_esound_delegate@IGame_Level@@PAU23@0Urem_pred@?1??SoundEvent_OnDestDestroy@3@QAEXPAVSound@Feel@@@Z@ABUrandom_access_iterator_tag@1@@Z ; stlp_std::priv::__find_if<IGame_Level::_esound_delegate *,`IGame_Level::SoundEvent_OnDestDestroy'::`2'::rem_pred>
??$find_if@PAU_esound_delegate@IGame_Level@@Urem_pred@?1??SoundEvent_OnDestDestroy@2@QAEXPAVSound@Feel@@@Z@@stlp_std@@YAPAU_esound_delegate@IGame_Level@@PAU12@0Urem_pred@?1??SoundEvent_OnDestDestroy@2@QAEXPAVSound@Feel@@@Z@@Z ENDP ; stlp_std::find_if<IGame_Level::_esound_delegate *,`IGame_Level::SoundEvent_OnDestDestroy'::`2'::rem_pred>
; Function compile flags: /Ogtpy
; File d:\clearsky\sources\sdk\include\stlport\stl\_list.h
_TEXT	ENDS
;	COMDAT ?erase@?$_Impl_list@PAXV?$xalloc@PAX@@@priv@stlp_std@@QAE?AU?$_List_iterator@PAXU?$_Nonconst_traits@PAX@stlp_std@@@23@U423@@Z
_TEXT	SEGMENT
___pos$ = 8						; size = 4
?erase@?$_Impl_list@PAXV?$xalloc@PAX@@@priv@stlp_std@@QAE?AU?$_List_iterator@PAXU?$_Nonconst_traits@PAX@stlp_std@@@23@U423@@Z PROC ; stlp_std::priv::_Impl_list<void *,xalloc<void *> >::erase, COMDAT
; ___$ReturnUdt$ = ebx

; 508  :   iterator erase(iterator __pos) {

	push	esi

; 509  :     _Node_base* __next_node = __pos._M_node->_M_next;

	mov	esi, DWORD PTR ___pos$[esp]

; 510  :     _Node_base* __prev_node = __pos._M_node->_M_prev;

	mov	eax, DWORD PTR [esi+4]
	push	edi
	mov	edi, DWORD PTR [esi]

; 511  :     _Node* __n = __STATIC_CAST(_Node*, __pos._M_node);
; 512  :     __prev_node->_M_next = __next_node;

	mov	DWORD PTR [eax], edi

; 513  :     __next_node->_M_prev = __prev_node;

	mov	DWORD PTR [edi+4], eax

; 514  :     _STLP_STD::_Destroy(&__n->_M_data);

	lea	eax, DWORD PTR [esi+8]
	push	eax
	call	??$_Destroy@PAX@stlp_std@@YAXPAPAX@Z	; stlp_std::_Destroy<void *>

; 515  :     this->_M_node.deallocate(__n, 1);

	mov	ecx, DWORD PTR __imp_?Memory@@3VxrMemory@@A
	add	esp, 4
	push	esi
	call	DWORD PTR __imp_?mem_free@xrMemory@@QAEXPAX@Z

; 516  :     return iterator(__next_node);

	mov	DWORD PTR [ebx], edi
	pop	edi
	mov	eax, ebx
	pop	esi

; 517  :   }

	ret	4
?erase@?$_Impl_list@PAXV?$xalloc@PAX@@@priv@stlp_std@@QAE?AU?$_List_iterator@PAXU?$_Nonconst_traits@PAX@stlp_std@@@23@U423@@Z ENDP ; stlp_std::priv::_Impl_list<void *,xalloc<void *> >::erase
; Function compile flags: /Ogtpy
_TEXT	ENDS
;	COMDAT ??E?$_List_iterator@PAXU?$_Nonconst_traits@PAX@stlp_std@@@priv@stlp_std@@QAE?AU012@H@Z
_TEXT	SEGMENT
??E?$_List_iterator@PAXU?$_Nonconst_traits@PAX@stlp_std@@@priv@stlp_std@@QAE?AU012@H@Z PROC ; stlp_std::priv::_List_iterator<void *,stlp_std::_Nonconst_traits<void *> >::operator++, COMDAT
; _this$ = edx
; ___$ReturnUdt$ = eax

; 127  :     _Self __tmp = *this;

	mov	ecx, DWORD PTR [edx]
	mov	DWORD PTR [eax], ecx

; 128  :     this->_M_incr();

	mov	ecx, DWORD PTR [ecx]
	mov	DWORD PTR [edx], ecx

; 129  :     return __tmp;
; 130  :   }

	ret	0
??E?$_List_iterator@PAXU?$_Nonconst_traits@PAX@stlp_std@@@priv@stlp_std@@QAE?AU012@H@Z ENDP ; stlp_std::priv::_List_iterator<void *,stlp_std::_Nonconst_traits<void *> >::operator++
; Function compile flags: /Ogtpy
_TEXT	ENDS
;	COMDAT ?erase@?$_Impl_list@PAXV?$xalloc@PAX@@@priv@stlp_std@@QAE?AU?$_List_iterator@PAXU?$_Nonconst_traits@PAX@stlp_std@@@23@U423@0@Z
_TEXT	SEGMENT
___$ReturnUdt$ = 8					; size = 4
___first$ = 12						; size = 4
___last$ = 16						; size = 4
?erase@?$_Impl_list@PAXV?$xalloc@PAX@@@priv@stlp_std@@QAE?AU?$_List_iterator@PAXU?$_Nonconst_traits@PAX@stlp_std@@@23@U423@0@Z PROC ; stlp_std::priv::_Impl_list<void *,xalloc<void *> >::erase, COMDAT

; 519  :   iterator erase(iterator __first, iterator __last) {

	push	ebx

; 520  :     while (__first != __last)

	mov	ebx, DWORD PTR ___last$[esp]
	push	edi
	mov	edi, DWORD PTR ___first$[esp+4]
	cmp	edi, ebx
	setne	al
	test	al, al
	je	SHORT $LN40@erase@21
	push	ebp
	mov	ebp, DWORD PTR __imp_?mem_free@xrMemory@@QAEXPAX@Z
	push	esi
	npad	5
$LL2@erase@21:

; 521  :       erase(__first++);

	mov	esi, edi
	mov	eax, DWORD PTR [esi]
	mov	ecx, DWORD PTR [esi+4]
	mov	edi, DWORD PTR [edi]
	mov	DWORD PTR [ecx], eax
	mov	DWORD PTR [eax+4], ecx
	lea	eax, DWORD PTR [esi+8]
	push	eax
	call	??$_Destroy@PAX@stlp_std@@YAXPAPAX@Z	; stlp_std::_Destroy<void *>
	mov	ecx, DWORD PTR __imp_?Memory@@3VxrMemory@@A
	add	esp, 4
	push	esi
	call	ebp
	cmp	edi, ebx
	setne	al
	test	al, al
	jne	SHORT $LL2@erase@21
	pop	esi
	pop	ebp
$LN40@erase@21:

; 522  :     return __last;

	mov	eax, DWORD PTR ___$ReturnUdt$[esp+4]
	pop	edi
	mov	DWORD PTR [eax], ebx
	pop	ebx

; 523  :   }

	ret	12					; 0000000cH
?erase@?$_Impl_list@PAXV?$xalloc@PAX@@@priv@stlp_std@@QAE?AU?$_List_iterator@PAXU?$_Nonconst_traits@PAX@stlp_std@@@23@U423@0@Z ENDP ; stlp_std::priv::_Impl_list<void *,xalloc<void *> >::erase
; Function compile flags: /Ogtpy
_TEXT	ENDS
;	COMDAT ?end@?$_Impl_list@PAXV?$xalloc@PAX@@@priv@stlp_std@@QAE?AU?$_List_iterator@PAXU?$_Nonconst_traits@PAX@stlp_std@@@23@XZ
_TEXT	SEGMENT
?end@?$_Impl_list@PAXV?$xalloc@PAX@@@priv@stlp_std@@QAE?AU?$_List_iterator@PAXU?$_Nonconst_traits@PAX@stlp_std@@@23@XZ PROC ; stlp_std::priv::_Impl_list<void *,xalloc<void *> >::end, COMDAT
; _this$ = ecx
; ___$ReturnUdt$ = eax

; 365  :   iterator end()                        { return iterator(&this->_M_node._M_data); }

	mov	DWORD PTR [eax], ecx
	ret	0
?end@?$_Impl_list@PAXV?$xalloc@PAX@@@priv@stlp_std@@QAE?AU?$_List_iterator@PAXU?$_Nonconst_traits@PAX@stlp_std@@@23@XZ ENDP ; stlp_std::priv::_Impl_list<void *,xalloc<void *> >::end
; Function compile flags: /Ogtpy
; File d:\clearsky\sources\sdk\include\stlport\stl\_iterator_base.h
_TEXT	ENDS
;	COMDAT ??$distance@U?$_List_iterator@PAXU?$_Const_traits@PAX@stlp_std@@@priv@stlp_std@@@stlp_std@@YAHU?$_List_iterator@PAXU?$_Const_traits@PAX@stlp_std@@@priv@0@0@Z
_TEXT	SEGMENT
___first$ = 8						; size = 4
___last$ = 12						; size = 4
??$distance@U?$_List_iterator@PAXU?$_Const_traits@PAX@stlp_std@@@priv@stlp_std@@@stlp_std@@YAHU?$_List_iterator@PAXU?$_Const_traits@PAX@stlp_std@@@priv@0@0@Z PROC ; stlp_std::distance<stlp_std::priv::_List_iterator<void *,stlp_std::_Const_traits<void *> > >, COMDAT

; 378  :   return __distance(__first, __last, _STLP_ITERATOR_CATEGORY(__first, _InputIterator));

	mov	ecx, DWORD PTR ___first$[esp-4]
	mov	edx, DWORD PTR ___last$[esp-4]
	xor	eax, eax
	cmp	ecx, edx
	je	SHORT $LN3@distance@4
	npad	2
$LL4@distance@4:
	mov	ecx, DWORD PTR [ecx]
	add	eax, 1
	cmp	ecx, edx
	jne	SHORT $LL4@distance@4
$LN3@distance@4:

; 379  : }

	ret	0
??$distance@U?$_List_iterator@PAXU?$_Const_traits@PAX@stlp_std@@@priv@stlp_std@@@stlp_std@@YAHU?$_List_iterator@PAXU?$_Const_traits@PAX@stlp_std@@@priv@0@0@Z ENDP ; stlp_std::distance<stlp_std::priv::_List_iterator<void *,stlp_std::_Const_traits<void *> > >
; Function compile flags: /Ogtpy
; File d:\clearsky\sources\engine\xrcore\_std_extensions.h
_TEXT	ENDS
;	COMDAT ??$xr_strcat@$0IA@@@YAHAAY0IA@DPBD@Z
_TEXT	SEGMENT
??$xr_strcat@$0IA@@@YAHAAY0IA@DPBD@Z PROC		; xr_strcat<128>, COMDAT
; _destination$ = edx
; _source$ = ecx

; 262  : {

	push	esi

; 263  : 	return						xr_strcat( destination, count, source );

	mov	eax, edx
	lea	esi, DWORD PTR [eax+1]
	push	ebx
$LL13@xr_strcat@3:
	mov	bl, BYTE PTR [eax]
	add	eax, 1
	test	bl, bl
	jne	SHORT $LL13@xr_strcat@3
	sub	eax, esi
	add	eax, edx
	lea	esi, DWORD PTR [edx+127]
	cmp	eax, esi
	pop	ebx
	ja	SHORT $LN14@xr_strcat@3
	cmp	BYTE PTR [ecx], 0
	je	SHORT $LN3@xr_strcat@3
	sub	ecx, eax
$LL5@xr_strcat@3:
	cmp	eax, esi
	je	SHORT $LN3@xr_strcat@3
	mov	dl, BYTE PTR [ecx+eax]
	mov	BYTE PTR [eax], dl
	add	eax, 1
	cmp	BYTE PTR [ecx+eax], 0
	jne	SHORT $LL5@xr_strcat@3
$LN3@xr_strcat@3:
	mov	BYTE PTR [eax], 0
$LN14@xr_strcat@3:
	xor	eax, eax
	pop	esi

; 264  : }

	ret	0
??$xr_strcat@$0IA@@@YAHAAY0IA@DPBD@Z ENDP		; xr_strcat<128>
; Function compile flags: /Ogtpy
_TEXT	ENDS
;	COMDAT ??$xr_strcpy@$0IA@@@YAHAAY0IA@DPBD@Z
_TEXT	SEGMENT
??$xr_strcpy@$0IA@@@YAHAAY0IA@DPBD@Z PROC		; xr_strcpy<128>, COMDAT
; _destination$ = ecx
; _source$ = eax

; 257  : 	return						xr_strcpy( destination, count, source );

	push	128					; 00000080H
	push	eax
	push	128					; 00000080H
	push	ecx
	call	DWORD PTR __imp__strncpy_s
	add	esp, 16					; 00000010H

; 258  : }

	ret	0
??$xr_strcpy@$0IA@@@YAHAAY0IA@DPBD@Z ENDP		; xr_strcpy<128>
; Function compile flags: /Ogtpy
; File d:\clearsky\sources\sdk\include\stlport\stl\_list.c
_TEXT	ENDS
;	COMDAT ?clear@?$_List_base@PAXV?$xalloc@PAX@@@priv@stlp_std@@QAEXXZ
_TEXT	SEGMENT
?clear@?$_List_base@PAXV?$xalloc@PAX@@@priv@stlp_std@@QAEXXZ PROC ; stlp_std::priv::_List_base<void *,xalloc<void *> >::clear, COMDAT
; _this$ = ebx

; 66   : void _List_base<_Tp,_Alloc>::clear() {

	push	esi

; 67   :   _Node* __cur = __STATIC_CAST(_Node*, _M_node._M_data._M_next);

	mov	esi, DWORD PTR [ebx]

; 68   :   while (__cur != &(_M_node._M_data)) {

	cmp	esi, ebx
	je	SHORT $LN15@clear@17
	push	ebp
	mov	ebp, DWORD PTR __imp_?mem_free@xrMemory@@QAEXPAX@Z
	push	edi
	npad	1
$LL2@clear@17:

; 69   :     _Node* __tmp = __cur;

	mov	edi, esi

; 70   :     __cur = __STATIC_CAST(_Node*, __cur->_M_next);

	mov	esi, DWORD PTR [esi]

; 71   :     _STLP_STD::_Destroy(&__tmp->_M_data);

	lea	eax, DWORD PTR [edi+8]
	push	eax
	call	??$_Destroy@PAX@stlp_std@@YAXPAPAX@Z	; stlp_std::_Destroy<void *>

; 72   :     this->_M_node.deallocate(__tmp, 1);

	mov	ecx, DWORD PTR __imp_?Memory@@3VxrMemory@@A
	add	esp, 4
	push	edi
	call	ebp
	cmp	esi, ebx
	jne	SHORT $LL2@clear@17
	pop	edi
	pop	ebp
$LN15@clear@17:

; 73   :   }
; 74   :   _M_node._M_data._M_next = &_M_node._M_data;
; 75   :   _M_node._M_data._M_prev = &_M_node._M_data;

	mov	DWORD PTR [ebx+4], ebx
	mov	DWORD PTR [ebx], ebx
	pop	esi

; 76   : }

	ret	0
?clear@?$_List_base@PAXV?$xalloc@PAX@@@priv@stlp_std@@QAEXXZ ENDP ; stlp_std::priv::_List_base<void *,xalloc<void *> >::clear
; Function compile flags: /Ogtpy
; File d:\clearsky\sources\sdk\include\stlport\stl\pointers\_tools.h
_TEXT	ENDS
;	COMDAT ?to_storage_type_ptr@?$_CastTraits@PAXPAVISpatial@@@priv@stlp_std@@SAPAPAXPAPAVISpatial@@@Z
_TEXT	SEGMENT
?to_storage_type_ptr@?$_CastTraits@PAXPAVISpatial@@@priv@stlp_std@@SAPAPAXPAPAVISpatial@@@Z PROC ; stlp_std::priv::_CastTraits<void *,ISpatial *>::to_storage_type_ptr, COMDAT
; ___ptr$ = eax

; 218  :   { return cv_traits::uncv_ptr(__REINTERPRET_CAST(void_cv_type *, __ptr)); }

	ret	0
?to_storage_type_ptr@?$_CastTraits@PAXPAVISpatial@@@priv@stlp_std@@SAPAPAXPAPAVISpatial@@@Z ENDP ; stlp_std::priv::_CastTraits<void *,ISpatial *>::to_storage_type_ptr
; Function compile flags: /Ogtpy
; File d:\clearsky\sources\sdk\include\stlport\stl\_list.h
_TEXT	ENDS
;	COMDAT ?size@?$_Impl_list@PAXV?$xalloc@PAX@@@priv@stlp_std@@QBEIXZ
_TEXT	SEGMENT
?size@?$_Impl_list@PAXV?$xalloc@PAX@@@priv@stlp_std@@QBEIXZ PROC ; stlp_std::priv::_Impl_list<void *,xalloc<void *> >::size, COMDAT
; _this$ = edx

; 375  :     size_type __result = distance(begin(), end());

	mov	ecx, DWORD PTR [edx]
	xor	eax, eax
	cmp	ecx, edx
	je	SHORT $LN17@size@8
$LL18@size@8:
	mov	ecx, DWORD PTR [ecx]
	add	eax, 1
	cmp	ecx, edx
	jne	SHORT $LL18@size@8
$LN17@size@8:

; 376  :     return __result;
; 377  :   }

	ret	0
?size@?$_Impl_list@PAXV?$xalloc@PAX@@@priv@stlp_std@@QBEIXZ ENDP ; stlp_std::priv::_Impl_list<void *,xalloc<void *> >::size
; Function compile flags: /Ogtpy
; File d:\clearsky\sources\sdk\include\stlport\stl\pointers\_tools.h
_TEXT	ENDS
;	COMDAT ?to_value_type_ptr@?$_CastTraits@PAXPAVISpatial@@@priv@stlp_std@@SAPAPAVISpatial@@PAPAX@Z
_TEXT	SEGMENT
?to_value_type_ptr@?$_CastTraits@PAXPAVISpatial@@@priv@stlp_std@@SAPAPAVISpatial@@PAPAX@Z PROC ; stlp_std::priv::_CastTraits<void *,ISpatial *>::to_value_type_ptr, COMDAT
; ___ptr$ = eax

; 207  :   { return __REINTERPRET_CAST(value_type *, cv_traits::cv_ptr(__ptr)); }

	push	eax
	call	?cv_ptr@?$_VoidCastTraitsAux@PAXPAX@priv@stlp_std@@SAPAPAXPAPAX@Z ; stlp_std::priv::_VoidCastTraitsAux<void *,void *>::cv_ptr
	add	esp, 4
	ret	0
?to_value_type_ptr@?$_CastTraits@PAXPAVISpatial@@@priv@stlp_std@@SAPAPAVISpatial@@PAPAX@Z ENDP ; stlp_std::priv::_CastTraits<void *,ISpatial *>::to_value_type_ptr
; Function compile flags: /Ogtpy
; File d:\clearsky\sources\sdk\include\stlport\stl\_list.h
_TEXT	ENDS
;	COMDAT ??1?$_List_base@PAXV?$xalloc@PAX@@@priv@stlp_std@@QAE@XZ
_TEXT	SEGMENT
??1?$_List_base@PAXV?$xalloc@PAX@@@priv@stlp_std@@QAE@XZ PROC ; stlp_std::priv::_List_base<void *,xalloc<void *> >::~_List_base<void *,xalloc<void *> >, COMDAT
; _this$ = ebx

; 202  :   { clear(); }

	jmp	?clear@?$_List_base@PAXV?$xalloc@PAX@@@priv@stlp_std@@QAEXXZ ; stlp_std::priv::_List_base<void *,xalloc<void *> >::clear
??1?$_List_base@PAXV?$xalloc@PAX@@@priv@stlp_std@@QAE@XZ ENDP ; stlp_std::priv::_List_base<void *,xalloc<void *> >::~_List_base<void *,xalloc<void *> >
; Function compile flags: /Ogtpy
; File d:\clearsky\sources\sdk\include\stlport\stl\pointers\_list.h
_TEXT	ENDS
;	COMDAT ?size@?$list@PAVCEffectorCam@@V?$xalloc@PAVCEffectorCam@@@@@stlp_std@@QBEIXZ
_TEXT	SEGMENT
?size@?$list@PAVCEffectorCam@@V?$xalloc@PAVCEffectorCam@@@@@stlp_std@@QBEIXZ PROC ; stlp_std::list<CEffectorCam *,xalloc<CEffectorCam *> >::size, COMDAT
; _this$ = edx

; 163  :   size_type size() const     { return _M_impl.size(); }

	mov	ecx, DWORD PTR [edx]
	xor	eax, eax
	cmp	ecx, edx
	je	SHORT $LN19@size@9
$LL20@size@9:
	mov	ecx, DWORD PTR [ecx]
	add	eax, 1
	cmp	ecx, edx
	jne	SHORT $LL20@size@9
$LN19@size@9:
	ret	0
?size@?$list@PAVCEffectorCam@@V?$xalloc@PAVCEffectorCam@@@@@stlp_std@@QBEIXZ ENDP ; stlp_std::list<CEffectorCam *,xalloc<CEffectorCam *> >::size
; Function compile flags: /Ogtpy
; File d:\clearsky\sources\sdk\include\stlport\stl\_vector.h
_TEXT	ENDS
;	COMDAT ??1?$_Vector_base@U_esound_delegate@IGame_Level@@V?$xalloc@U_esound_delegate@IGame_Level@@@@@priv@stlp_std@@QAE@XZ
_TEXT	SEGMENT
??1?$_Vector_base@U_esound_delegate@IGame_Level@@V?$xalloc@U_esound_delegate@IGame_Level@@@@@priv@stlp_std@@QAE@XZ PROC ; stlp_std::priv::_Vector_base<IGame_Level::_esound_delegate,xalloc<IGame_Level::_esound_delegate> >::~_Vector_base<IGame_Level::_esound_delegate,xalloc<IGame_Level::_esound_delegate> >, COMDAT
; _this$ = eax

; 84   :   ~_Vector_base() {

	push	esi

; 85   :     if (_M_start != _STLP_DEFAULT_CONSTRUCTED(pointer))

	mov	esi, DWORD PTR [eax]
	test	esi, esi
	je	SHORT $LN1@Vector_bas@32

; 86   :       _M_end_of_storage.deallocate(_M_start, _M_end_of_storage._M_data - _M_start);

	mov	edx, DWORD PTR [eax+8]
	lea	ecx, DWORD PTR [eax+8]
	sub	edx, esi
	mov	eax, 715827883				; 2aaaaaabH
	imul	edx
	sar	edx, 1
	mov	eax, edx
	shr	eax, 31					; 0000001fH
	add	eax, edx
	push	eax
	push	esi
	call	?deallocate@?$xalloc@U_esound_delegate@IGame_Level@@@@QBEXPAU_esound_delegate@IGame_Level@@I@Z ; xalloc<IGame_Level::_esound_delegate>::deallocate
$LN1@Vector_bas@32:
	pop	esi

; 87   :   }

	ret	0
??1?$_Vector_base@U_esound_delegate@IGame_Level@@V?$xalloc@U_esound_delegate@IGame_Level@@@@@priv@stlp_std@@QAE@XZ ENDP ; stlp_std::priv::_Vector_base<IGame_Level::_esound_delegate,xalloc<IGame_Level::_esound_delegate> >::~_Vector_base<IGame_Level::_esound_delegate,xalloc<IGame_Level::_esound_delegate> >
; Function compile flags: /Ogtpy
_TEXT	ENDS
;	COMDAT ?back@?$_Impl_vector@U_esound_delegate@IGame_Level@@V?$xalloc@U_esound_delegate@IGame_Level@@@@@priv@stlp_std@@QAEAAU_esound_delegate@IGame_Level@@XZ
_TEXT	SEGMENT
?back@?$_Impl_vector@U_esound_delegate@IGame_Level@@V?$xalloc@U_esound_delegate@IGame_Level@@@@@priv@stlp_std@@QAEAAU_esound_delegate@IGame_Level@@XZ PROC ; stlp_std::priv::_Impl_vector<IGame_Level::_esound_delegate,xalloc<IGame_Level::_esound_delegate> >::back, COMDAT
; _this$ = ecx

; 195  :   reference back()              { return *(end() - 1); }

	call	?end@?$_Impl_vector@U_esound_delegate@IGame_Level@@V?$xalloc@U_esound_delegate@IGame_Level@@@@@priv@stlp_std@@QAEPAU_esound_delegate@IGame_Level@@XZ ; stlp_std::priv::_Impl_vector<IGame_Level::_esound_delegate,xalloc<IGame_Level::_esound_delegate> >::end
	sub	eax, 12					; 0000000cH
	ret	0
?back@?$_Impl_vector@U_esound_delegate@IGame_Level@@V?$xalloc@U_esound_delegate@IGame_Level@@@@@priv@stlp_std@@QAEAAU_esound_delegate@IGame_Level@@XZ ENDP ; stlp_std::priv::_Impl_vector<IGame_Level::_esound_delegate,xalloc<IGame_Level::_esound_delegate> >::back
; Function compile flags: /Ogtpy
_TEXT	ENDS
;	COMDAT ??1?$_Vector_base@Uref_sound@@V?$xalloc@Uref_sound@@@@@priv@stlp_std@@QAE@XZ
_TEXT	SEGMENT
??1?$_Vector_base@Uref_sound@@V?$xalloc@Uref_sound@@@@@priv@stlp_std@@QAE@XZ PROC ; stlp_std::priv::_Vector_base<ref_sound,xalloc<ref_sound> >::~_Vector_base<ref_sound,xalloc<ref_sound> >, COMDAT
; _this$ = ecx

; 85   :     if (_M_start != _STLP_DEFAULT_CONSTRUCTED(pointer))

	mov	eax, DWORD PTR [ecx]
	test	eax, eax
	je	SHORT $LN1@Vector_bas@33

; 86   :       _M_end_of_storage.deallocate(_M_start, _M_end_of_storage._M_data - _M_start);

	mov	edx, DWORD PTR [ecx+8]
	add	ecx, 8
	sub	edx, eax
	sar	edx, 2
	push	edx
	push	eax
	call	?deallocate@?$xalloc@Uref_sound@@@@QBEXPAUref_sound@@I@Z ; xalloc<ref_sound>::deallocate
$LN1@Vector_bas@33:

; 87   :   }

	ret	0
??1?$_Vector_base@Uref_sound@@V?$xalloc@Uref_sound@@@@@priv@stlp_std@@QAE@XZ ENDP ; stlp_std::priv::_Vector_base<ref_sound,xalloc<ref_sound> >::~_Vector_base<ref_sound,xalloc<ref_sound> >
; Function compile flags: /Ogtpy
; File d:\clearsky\sources\sdk\include\stlport\stl\pointers\_vector.h
_TEXT	ENDS
;	COMDAT ?size@?$vector@Uref_sound@@V?$xalloc@Uref_sound@@@@@stlp_std@@QBEIXZ
_TEXT	SEGMENT
?size@?$vector@Uref_sound@@V?$xalloc@Uref_sound@@@@@stlp_std@@QBEIXZ PROC ; stlp_std::vector<ref_sound,xalloc<ref_sound> >::size, COMDAT
; _this$ = ecx

; 89   :   size_type size() const        { return _M_impl.size(); }

	jmp	?size@?$_Impl_vector@Uref_sound@@V?$xalloc@Uref_sound@@@@@priv@stlp_std@@QBEIXZ ; stlp_std::priv::_Impl_vector<ref_sound,xalloc<ref_sound> >::size
?size@?$vector@Uref_sound@@V?$xalloc@Uref_sound@@@@@stlp_std@@QBEIXZ ENDP ; stlp_std::vector<ref_sound,xalloc<ref_sound> >::size
; Function compile flags: /Ogtpy
_TEXT	ENDS
;	COMDAT ?begin@?$vector@Uref_sound@@V?$xalloc@Uref_sound@@@@@stlp_std@@QAEPAUref_sound@@XZ
_TEXT	SEGMENT
?begin@?$vector@Uref_sound@@V?$xalloc@Uref_sound@@@@@stlp_std@@QAEPAUref_sound@@XZ PROC ; stlp_std::vector<ref_sound,xalloc<ref_sound> >::begin, COMDAT
; _this$ = ecx

; 79   :   iterator begin()             { return cast_traits::to_value_type_ptr(_M_impl.begin()); }

	jmp	?begin@?$_Impl_vector@Uref_sound@@V?$xalloc@Uref_sound@@@@@priv@stlp_std@@QAEPAUref_sound@@XZ ; stlp_std::priv::_Impl_vector<ref_sound,xalloc<ref_sound> >::begin
?begin@?$vector@Uref_sound@@V?$xalloc@Uref_sound@@@@@stlp_std@@QAEPAUref_sound@@XZ ENDP ; stlp_std::vector<ref_sound,xalloc<ref_sound> >::begin
; Function compile flags: /Ogtpy
; File d:\clearsky\sources\engine\xrcore\fastdelegate.h
_TEXT	ENDS
;	COMDAT ?clear@?$FastDelegate0@X@fastdelegate@@QAEXXZ
_TEXT	SEGMENT
?clear@?$FastDelegate0@X@fastdelegate@@QAEXXZ PROC	; fastdelegate::FastDelegate0<void>::clear, COMDAT
; _this$ = eax

; 936  : 	void clear() { m_Closure.clear();}

	mov	DWORD PTR [eax], 0
	mov	DWORD PTR [eax+4], 0
	ret	0
?clear@?$FastDelegate0@X@fastdelegate@@QAEXXZ ENDP	; fastdelegate::FastDelegate0<void>::clear
; Function compile flags: /Ogtpy
; File d:\clearsky\sources\sdk\include\stlport\stl\_list.h
_TEXT	ENDS
;	COMDAT ??1?$_Impl_list@PAXV?$xalloc@PAX@@@priv@stlp_std@@QAE@XZ
_TEXT	SEGMENT
??1?$_Impl_list@PAXV?$xalloc@PAX@@@priv@stlp_std@@QAE@XZ PROC ; stlp_std::priv::_Impl_list<void *,xalloc<void *> >::~_Impl_list<void *,xalloc<void *> >, COMDAT
; _this$ = ebx

; 358  :   ~list() {}

	jmp	?clear@?$_List_base@PAXV?$xalloc@PAX@@@priv@stlp_std@@QAEXXZ ; stlp_std::priv::_List_base<void *,xalloc<void *> >::clear
??1?$_Impl_list@PAXV?$xalloc@PAX@@@priv@stlp_std@@QAE@XZ ENDP ; stlp_std::priv::_Impl_list<void *,xalloc<void *> >::~_Impl_list<void *,xalloc<void *> >
; Function compile flags: /Ogtpy
; File d:\clearsky\sources\engine\xrcore\_stl_extensions.h
_TEXT	ENDS
;	COMDAT ?size@?$xr_list@PAVCEffectorCam@@V?$xalloc@PAVCEffectorCam@@@@@@QBEIXZ
_TEXT	SEGMENT
?size@?$xr_list@PAVCEffectorCam@@V?$xalloc@PAVCEffectorCam@@@@@@QBEIXZ PROC ; xr_list<CEffectorCam *,xalloc<CEffectorCam *> >::size, COMDAT
; _this$ = edx

; 200  : template	<typename T, typename allocator = xalloc<T> >									class	xr_list 		: public std::list<T,allocator>			{ public: u32 size() const {return (u32)__super::size(); } };

	mov	ecx, DWORD PTR [edx]
	xor	eax, eax
	cmp	ecx, edx
	je	SHORT $LN21@size@10
$LL22@size@10:
	mov	ecx, DWORD PTR [ecx]
	add	eax, 1
	cmp	ecx, edx
	jne	SHORT $LL22@size@10
$LN21@size@10:
	ret	0
?size@?$xr_list@PAVCEffectorCam@@V?$xalloc@PAVCEffectorCam@@@@@@QBEIXZ ENDP ; xr_list<CEffectorCam *,xalloc<CEffectorCam *> >::size
; Function compile flags: /Ogtpy
; File d:\clearsky\sources\sdk\include\stlport\stl\pointers\_vector.h
_TEXT	ENDS
;	COMDAT ?back@?$vector@U_esound_delegate@IGame_Level@@V?$xalloc@U_esound_delegate@IGame_Level@@@@@stlp_std@@QAEAAU_esound_delegate@IGame_Level@@XZ
_TEXT	SEGMENT
?back@?$vector@U_esound_delegate@IGame_Level@@V?$xalloc@U_esound_delegate@IGame_Level@@@@@stlp_std@@QAEAAU_esound_delegate@IGame_Level@@XZ PROC ; stlp_std::vector<IGame_Level::_esound_delegate,xalloc<IGame_Level::_esound_delegate> >::back, COMDAT
; _this$ = ecx

; 100  :   reference back()              { return cast_traits::to_value_type_ref(_M_impl.back()); }

	call	?end@?$_Impl_vector@U_esound_delegate@IGame_Level@@V?$xalloc@U_esound_delegate@IGame_Level@@@@@priv@stlp_std@@QAEPAU_esound_delegate@IGame_Level@@XZ ; stlp_std::priv::_Impl_vector<IGame_Level::_esound_delegate,xalloc<IGame_Level::_esound_delegate> >::end
	sub	eax, 12					; 0000000cH
	ret	0
?back@?$vector@U_esound_delegate@IGame_Level@@V?$xalloc@U_esound_delegate@IGame_Level@@@@@stlp_std@@QAEAAU_esound_delegate@IGame_Level@@XZ ENDP ; stlp_std::vector<IGame_Level::_esound_delegate,xalloc<IGame_Level::_esound_delegate> >::back
; Function compile flags: /Ogtpy
_TEXT	ENDS
;	COMDAT ?end@?$vector@U_esound_delegate@IGame_Level@@V?$xalloc@U_esound_delegate@IGame_Level@@@@@stlp_std@@QAEPAU_esound_delegate@IGame_Level@@XZ
_TEXT	SEGMENT
?end@?$vector@U_esound_delegate@IGame_Level@@V?$xalloc@U_esound_delegate@IGame_Level@@@@@stlp_std@@QAEPAU_esound_delegate@IGame_Level@@XZ PROC ; stlp_std::vector<IGame_Level::_esound_delegate,xalloc<IGame_Level::_esound_delegate> >::end, COMDAT
; _this$ = ecx

; 81   :   iterator end()               { return cast_traits::to_value_type_ptr(_M_impl.end()); }

	jmp	?end@?$_Impl_vector@U_esound_delegate@IGame_Level@@V?$xalloc@U_esound_delegate@IGame_Level@@@@@priv@stlp_std@@QAEPAU_esound_delegate@IGame_Level@@XZ ; stlp_std::priv::_Impl_vector<IGame_Level::_esound_delegate,xalloc<IGame_Level::_esound_delegate> >::end
?end@?$vector@U_esound_delegate@IGame_Level@@V?$xalloc@U_esound_delegate@IGame_Level@@@@@stlp_std@@QAEPAU_esound_delegate@IGame_Level@@XZ ENDP ; stlp_std::vector<IGame_Level::_esound_delegate,xalloc<IGame_Level::_esound_delegate> >::end
; Function compile flags: /Ogtpy
_TEXT	ENDS
;	COMDAT ?begin@?$vector@U_esound_delegate@IGame_Level@@V?$xalloc@U_esound_delegate@IGame_Level@@@@@stlp_std@@QAEPAU_esound_delegate@IGame_Level@@XZ
_TEXT	SEGMENT
?begin@?$vector@U_esound_delegate@IGame_Level@@V?$xalloc@U_esound_delegate@IGame_Level@@@@@stlp_std@@QAEPAU_esound_delegate@IGame_Level@@XZ PROC ; stlp_std::vector<IGame_Level::_esound_delegate,xalloc<IGame_Level::_esound_delegate> >::begin, COMDAT
; _this$ = ecx

; 79   :   iterator begin()             { return cast_traits::to_value_type_ptr(_M_impl.begin()); }

	jmp	?begin@?$_Impl_vector@U_esound_delegate@IGame_Level@@V?$xalloc@U_esound_delegate@IGame_Level@@@@@priv@stlp_std@@QAEPAU_esound_delegate@IGame_Level@@XZ ; stlp_std::priv::_Impl_vector<IGame_Level::_esound_delegate,xalloc<IGame_Level::_esound_delegate> >::begin
?begin@?$vector@U_esound_delegate@IGame_Level@@V?$xalloc@U_esound_delegate@IGame_Level@@@@@stlp_std@@QAEPAU_esound_delegate@IGame_Level@@XZ ENDP ; stlp_std::vector<IGame_Level::_esound_delegate,xalloc<IGame_Level::_esound_delegate> >::begin
; Function compile flags: /Ogtpy
; File d:\clearsky\sources\engine\xrcore\_stl_extensions.h
_TEXT	ENDS
;	COMDAT ??A?$xr_vector@Uref_sound@@V?$xalloc@Uref_sound@@@@@@QAEAAUref_sound@@I@Z
_TEXT	SEGMENT
__Pos$ = 8						; size = 4
??A?$xr_vector@Uref_sound@@V?$xalloc@Uref_sound@@@@@@QAEAAUref_sound@@I@Z PROC ; xr_vector<ref_sound,xalloc<ref_sound> >::operator[], COMDAT
; _this$ = ecx

; 139  : 	reference operator[]		(size_type _Pos)					{ {VERIFY2(_Pos<size(),make_string("index is out of range: index requested[%d], size of container[%d]", _Pos, size()).c_str());} return (*(begin() + _Pos)); }

	call	?begin@?$_Impl_vector@Uref_sound@@V?$xalloc@Uref_sound@@@@@priv@stlp_std@@QAEPAUref_sound@@XZ ; stlp_std::priv::_Impl_vector<ref_sound,xalloc<ref_sound> >::begin
	mov	ecx, DWORD PTR __Pos$[esp-4]
	lea	eax, DWORD PTR [eax+ecx*4]
	ret	4
??A?$xr_vector@Uref_sound@@V?$xalloc@Uref_sound@@@@@@QAEAAUref_sound@@I@Z ENDP ; xr_vector<ref_sound,xalloc<ref_sound> >::operator[]
; Function compile flags: /Ogtpy
_TEXT	ENDS
;	COMDAT ?size@?$xr_vector@Uref_sound@@V?$xalloc@Uref_sound@@@@@@QBEIXZ
_TEXT	SEGMENT
?size@?$xr_vector@Uref_sound@@V?$xalloc@Uref_sound@@@@@@QBEIXZ PROC ; xr_vector<ref_sound,xalloc<ref_sound> >::size, COMDAT
; _this$ = ecx

; 126  : 	u32		size				() const							{ return (u32)inherited::size();} 

	jmp	?size@?$_Impl_vector@Uref_sound@@V?$xalloc@Uref_sound@@@@@priv@stlp_std@@QBEIXZ ; stlp_std::priv::_Impl_vector<ref_sound,xalloc<ref_sound> >::size
?size@?$xr_vector@Uref_sound@@V?$xalloc@Uref_sound@@@@@@QBEIXZ ENDP ; xr_vector<ref_sound,xalloc<ref_sound> >::size
; Function compile flags: /Ogtpy
; File d:\clearsky\sources\sdk\include\stlport\stl\pointers\_vector.h
_TEXT	ENDS
;	COMDAT ?end@?$vector@PAVISpatial@@V?$xalloc@PAVISpatial@@@@@stlp_std@@QAEPAPAVISpatial@@XZ
_TEXT	SEGMENT
?end@?$vector@PAVISpatial@@V?$xalloc@PAVISpatial@@@@@stlp_std@@QAEPAPAVISpatial@@XZ PROC ; stlp_std::vector<ISpatial *,xalloc<ISpatial *> >::end, COMDAT
; _this$ = eax

; 81   :   iterator end()               { return cast_traits::to_value_type_ptr(_M_impl.end()); }

	mov	eax, DWORD PTR [eax+4]
	push	eax
	call	?cv_ptr@?$_VoidCastTraitsAux@PAXPAX@priv@stlp_std@@SAPAPAXPAPAX@Z ; stlp_std::priv::_VoidCastTraitsAux<void *,void *>::cv_ptr
	add	esp, 4
	ret	0
?end@?$vector@PAVISpatial@@V?$xalloc@PAVISpatial@@@@@stlp_std@@QAEPAPAVISpatial@@XZ ENDP ; stlp_std::vector<ISpatial *,xalloc<ISpatial *> >::end
; Function compile flags: /Ogtpy
_TEXT	ENDS
;	COMDAT ?begin@?$vector@PAVISpatial@@V?$xalloc@PAVISpatial@@@@@stlp_std@@QAEPAPAVISpatial@@XZ
_TEXT	SEGMENT
?begin@?$vector@PAVISpatial@@V?$xalloc@PAVISpatial@@@@@stlp_std@@QAEPAPAVISpatial@@XZ PROC ; stlp_std::vector<ISpatial *,xalloc<ISpatial *> >::begin, COMDAT
; _this$ = eax

; 79   :   iterator begin()             { return cast_traits::to_value_type_ptr(_M_impl.begin()); }

	mov	eax, DWORD PTR [eax]
	push	eax
	call	?cv_ptr@?$_VoidCastTraitsAux@PAXPAX@priv@stlp_std@@SAPAPAXPAPAX@Z ; stlp_std::priv::_VoidCastTraitsAux<void *,void *>::cv_ptr
	add	esp, 4
	ret	0
?begin@?$vector@PAVISpatial@@V?$xalloc@PAVISpatial@@@@@stlp_std@@QAEPAPAVISpatial@@XZ ENDP ; stlp_std::vector<ISpatial *,xalloc<ISpatial *> >::begin
; Function compile flags: /Ogtpy
; File d:\clearsky\sources\engine\xrcore\_matrix.h
_TEXT	ENDS
;	COMDAT ?set@?$_matrix@M@@QAEAAU1@ABU?$_vector3@M@@000@Z
_TEXT	SEGMENT
_this$ = 8						; size = 4
?set@?$_matrix@M@@QAEAAU1@ABU?$_vector3@M@@000@Z PROC	; _matrix<float>::set, COMDAT
; _R$ = edi
; _N$ = esi
; _D$ = edx
; _C$ = ecx

; 63   : 	{

	mov	eax, DWORD PTR _this$[esp-4]

; 64   : 		i.set(R); _14_=0;

	fld	DWORD PTR [edi]
	xorps	xmm0, xmm0
	fstp	DWORD PTR [eax]
	fld	DWORD PTR [edi+4]
	fstp	DWORD PTR [eax+4]
	fld	DWORD PTR [edi+8]
	movss	DWORD PTR [eax+12], xmm0
	fstp	DWORD PTR [eax+8]

; 65   : 		j.set(N); _24_=0;

	fld	DWORD PTR [esi]
	fstp	DWORD PTR [eax+16]
	fld	DWORD PTR [esi+4]
	fstp	DWORD PTR [eax+20]
	fld	DWORD PTR [esi+8]
	fstp	DWORD PTR [eax+24]
	movss	DWORD PTR [eax+28], xmm0

; 66   : 		k.set(D); _34_=0;

	fld	DWORD PTR [edx]
	fstp	DWORD PTR [eax+32]
	fld	DWORD PTR [edx+4]
	fstp	DWORD PTR [eax+36]
	fld	DWORD PTR [edx+8]
	fstp	DWORD PTR [eax+40]
	movss	DWORD PTR [eax+44], xmm0

; 67   : 		c.set(C); _44_=1;

	fld	DWORD PTR [ecx]
	movss	xmm0, DWORD PTR __real@3f800000
	fstp	DWORD PTR [eax+48]
	fld	DWORD PTR [ecx+4]
	fstp	DWORD PTR [eax+52]
	fld	DWORD PTR [ecx+8]
	fstp	DWORD PTR [eax+56]
	movss	DWORD PTR [eax+60], xmm0

; 68   : 		return *this;
; 69   : 	}

	ret	4
?set@?$_matrix@M@@QAEAAU1@ABU?$_vector3@M@@000@Z ENDP	; _matrix<float>::set
_TEXT	ENDS
PUBLIC	__real@3949116d
PUBLIC	__real@38c9116d
;	COMDAT __real@3949116d
; File j:\msvs8\vc\include\math.h
CONST	SEGMENT
__real@3949116d DD 03949116dr			; 0.000191753
CONST	ENDS
;	COMDAT __real@38c9116d
CONST	SEGMENT
__real@38c9116d DD 038c9116dr			; 9.58767e-005
; Function compile flags: /Ogtpy
; File d:\clearsky\sources\engine\xrcore\_vector3d.h
CONST	ENDS
;	COMDAT ?random_dir@?$_vector3@M@@QAEAAU1@AAVCRandom@@@Z
_TEXT	SEGMENT
_a$ = -8						; size = 4
tv177 = -4						; size = 4
_r$ = -4						; size = 4
?random_dir@?$_vector3@M@@QAEAAU1@AAVCRandom@@@Z PROC	; _vector3<float>::random_dir, COMDAT
; _this$ = esi
; _R$ = edi

; 233  : 	{

	sub	esp, 8

; 234  : 		//z	= R.randF(-1,1);
; 235  : 		z	= _cos(R.randF(PI));

	mov	eax, edi
	call	?randI@CRandom@@QAEHXZ			; CRandom::randI
	cvtsi2ss xmm0, eax
	mulss	xmm0, DWORD PTR __real@38c9116d
	push	ecx
	movss	DWORD PTR [esp], xmm0
	call	_cosf
	fstp	DWORD PTR [esi+8]
	add	esp, 4

; 236  : 		T a = R.randF(PI_MUL_2);

	mov	eax, edi
	call	?randI@CRandom@@QAEHXZ			; CRandom::randI

; 237  : 		T r = _sqrt(1-z*z);

	movss	xmm0, DWORD PTR [esi+8]
	mov	DWORD PTR tv177[esp+8], eax
	fild	DWORD PTR tv177[esp+8]
	movaps	xmm1, xmm0
	mulss	xmm1, xmm0
	movss	xmm0, DWORD PTR __real@3f800000
	fmul	DWORD PTR __real@3949116d
	push	ecx
	subss	xmm0, xmm1
	movss	DWORD PTR [esp], xmm0
	fstp	DWORD PTR _a$[esp+12]
	call	_sqrtf
	fstp	DWORD PTR _r$[esp+12]

; 238  : 		T sa= _sin (a);
; 239  : 		T ca= _cos (a);

	fld	DWORD PTR _a$[esp+12]
	fstp	DWORD PTR [esp]
	call	_cosf

; 240  : 		x	= r * ca;

	fmul	DWORD PTR _r$[esp+12]
	fstp	DWORD PTR [esi]
	fld	DWORD PTR _a$[esp+12]
	fstp	DWORD PTR [esp]
	call	_sinf

; 241  : 		y	= r * sa;

	fmul	DWORD PTR _r$[esp+12]

; 242  : 		return *this;	

	mov	eax, esi
	fstp	DWORD PTR [esi+4]

; 243  : 	};

	add	esp, 12					; 0000000cH
	ret	0
?random_dir@?$_vector3@M@@QAEAAU1@AAVCRandom@@@Z ENDP	; _vector3<float>::random_dir
; Function compile flags: /Ogtpy
_TEXT	ENDS
;	COMDAT ?normalize@?$_vector3@M@@QAEAAU1@XZ
_TEXT	SEGMENT
_mag$ = -16						; size = 4
tv138 = -12						; size = 4
tv134 = -8						; size = 4
tv130 = -4						; size = 4
?normalize@?$_vector3@M@@QAEAAU1@XZ PROC		; _vector3<float>::normalize, COMDAT
; _this$ = esi

; 188  : 	{

	sub	esp, 20					; 00000014H

; 189  : 		VERIFY(square_magnitude() > std::numeric_limits<T>::min());
; 190  : 		T mag=_sqrt(T(1)/(x*x + y*y + z*z));

	movss	xmm2, DWORD PTR [esi]
	movss	xmm1, DWORD PTR [esi+4]
	movss	xmm0, DWORD PTR [esi+8]
	movaps	xmm3, xmm2
	mulss	xmm3, xmm2
	movss	DWORD PTR tv138[esp+20], xmm2
	movaps	xmm2, xmm1
	mulss	xmm2, xmm1
	movss	DWORD PTR tv134[esp+20], xmm1
	movaps	xmm1, xmm0
	mulss	xmm1, xmm0
	movss	DWORD PTR tv130[esp+20], xmm0
	movss	xmm0, DWORD PTR __real@3f800000
	addss	xmm3, xmm2
	addss	xmm3, xmm1
	push	ecx
	divss	xmm0, xmm3
	movss	DWORD PTR [esp], xmm0
	call	_sqrtf
	fstp	DWORD PTR _mag$[esp+24]

; 191  : 		x *= mag;

	movss	xmm1, DWORD PTR _mag$[esp+24]
	movss	xmm0, DWORD PTR tv138[esp+24]
	mulss	xmm0, xmm1
	movss	DWORD PTR [esi], xmm0

; 192  : 		y *= mag;

	movss	xmm0, DWORD PTR tv134[esp+24]
	mulss	xmm0, xmm1
	movss	DWORD PTR [esi+4], xmm0

; 193  : 		z *= mag;

	movss	xmm0, DWORD PTR tv130[esp+24]
	mulss	xmm0, xmm1
	movss	DWORD PTR [esi+8], xmm0

; 194  : 		return *this;	

	mov	eax, esi

; 195  : 	}

	add	esp, 24					; 00000018H
	ret	0
?normalize@?$_vector3@M@@QAEAAU1@XZ ENDP		; _vector3<float>::normalize
_TEXT	ENDS
PUBLIC	?AddItem@CServerInfo@@QAEXAAVshared_str@@PBDI@Z	; CServerInfo::AddItem
; Function compile flags: /Ogtpy
; File d:\clearsky\sources\engine\xrengine\igame_level.cpp
;	COMDAT ?AddItem@CServerInfo@@QAEXAAVshared_str@@PBDI@Z
_TEXT	SEGMENT
_it$ = -272						; size = 132
$T260766 = -132						; size = 132
_name_$ = 8						; size = 4
_value_$ = 12						; size = 4
_color_$ = 16						; size = 4
?AddItem@CServerInfo@@QAEXAAVshared_str@@PBDI@Z PROC	; CServerInfo::AddItem, COMDAT
; _this$ = ecx

; 198  : {

	push	ebp
	mov	ebp, esp
	and	esp, -8					; fffffff8H

; 199  : 	SItem_ServerInfo it;
; 200  : 	//	shared_str s_name = CStringTable().translate( name_ );
; 201  : 
; 202  : 	//	xr_strcpy( it.name, s_name.c_str() );
; 203  : 	xr_strcpy( it.name, name_.c_str() );

	mov	eax, DWORD PTR _name_$[ebp]
	mov	eax, DWORD PTR [eax]
	sub	esp, 276				; 00000114H
	test	eax, eax
	push	ebx
	push	esi
	push	edi
	mov	ebx, ecx
	je	SHORT $LN6@AddItem
	add	eax, 16					; 00000010H
	jmp	SHORT $LN7@AddItem
$LN6@AddItem:
	xor	eax, eax
$LN7@AddItem:
	push	128					; 00000080H
	push	eax
	lea	ecx, DWORD PTR _it$[esp+296]
	push	128					; 00000080H
	push	ecx
	call	DWORD PTR __imp__strncpy_s

; 204  : 	xr_strcat( it.name, " = " );

	lea	eax, DWORD PTR _it$[esp+304]
	add	esp, 16					; 00000010H
	lea	edx, DWORD PTR [eax+1]
$LL43@AddItem:
	mov	cl, BYTE PTR [eax]
	add	eax, 1
	test	cl, cl
	jne	SHORT $LL43@AddItem
	sub	eax, edx
	lea	eax, DWORD PTR _it$[esp+eax+288]
	lea	edx, DWORD PTR _it$[esp+415]
	cmp	eax, edx
	ja	SHORT $LN18@AddItem
	mov	ecx, OFFSET ??_C@_03MHLONNLM@?5?$DN?5?$AA@
	sub	ecx, eax
$LL16@AddItem:
	lea	edx, DWORD PTR _it$[esp+415]
	cmp	eax, edx
	je	SHORT $LN14@AddItem
	mov	dl, BYTE PTR [ecx+eax]
	mov	BYTE PTR [eax], dl
	add	eax, 1
	cmp	BYTE PTR [ecx+eax], 0
	jne	SHORT $LL16@AddItem
$LN14@AddItem:
	mov	BYTE PTR [eax], 0
$LN18@AddItem:

; 205  : 	xr_strcat( it.name, value_ );

	lea	eax, DWORD PTR _it$[esp+288]
	lea	edx, DWORD PTR [eax+1]
$LL44@AddItem:
	mov	cl, BYTE PTR [eax]
	add	eax, 1
	test	cl, cl
	jne	SHORT $LL44@AddItem
	sub	eax, edx
	lea	eax, DWORD PTR _it$[esp+eax+288]
	lea	ecx, DWORD PTR _it$[esp+415]
	cmp	eax, ecx
	ja	SHORT $LN28@AddItem
	mov	ecx, DWORD PTR _value_$[ebp]
	cmp	BYTE PTR [ecx], 0
	je	SHORT $LN24@AddItem
	sub	ecx, eax
	npad	7
$LL26@AddItem:
	lea	edx, DWORD PTR _it$[esp+415]
	cmp	eax, edx
	je	SHORT $LN24@AddItem
	mov	dl, BYTE PTR [ecx+eax]
	mov	BYTE PTR [eax], dl
	add	eax, 1
	cmp	BYTE PTR [ecx+eax], 0
	jne	SHORT $LL26@AddItem
$LN24@AddItem:
	mov	BYTE PTR [eax], 0
$LN28@AddItem:

; 206  : 	it.color = color_;

	mov	eax, DWORD PTR _color_$[ebp]

; 207  : 
; 208  : 	if ( data.size() < max_item )

	mov	ecx, ebx
	mov	DWORD PTR _it$[esp+416], eax
	call	?size@?$svector@USItem_ServerInfo@CServerInfo@@$0P@@@QBEIXZ ; svector<CServerInfo::SItem_ServerInfo,15>::size
	cmp	eax, 15					; 0000000fH
	jae	SHORT $LN37@AddItem

; 209  : 	{
; 210  : 		data.push_back( it );

	mov	ecx, 33					; 00000021H
	lea	esi, DWORD PTR _it$[esp+288]
	lea	edi, DWORD PTR $T260766[esp+288]
	rep movsd
	mov	edi, DWORD PTR [ebx+1980]
	imul	edi, 132				; 00000084H
	add	edi, ebx
	mov	ecx, 33					; 00000021H
	lea	esi, DWORD PTR $T260766[esp+288]
	rep movsd
	add	DWORD PTR [ebx+1980], 1
$LN37@AddItem:

; 211  : 	}
; 212  : }

	pop	edi
	pop	esi
	pop	ebx
	mov	esp, ebp
	pop	ebp
	ret	12					; 0000000cH
?AddItem@CServerInfo@@QAEXAAVshared_str@@PBDI@Z ENDP	; CServerInfo::AddItem
; Function compile flags: /Ogtpy
; File d:\clearsky\sources\engine\xrengine\feel_sound.h
_TEXT	ENDS
;	COMDAT ?feel_sound_new@Sound@Feel@@UAEXPAVCObject@@HV?$resptr_core@VCSound_UserData@@V?$resptr_base@VCSound_UserData@@@@@@ABU?$_vector3@M@@M@Z
_TEXT	SEGMENT
_who$ = 8						; size = 4
_type$ = 12						; size = 4
_user_data$ = 16					; size = 4
_Position$ = 20						; size = 4
_power$ = 24						; size = 4
?feel_sound_new@Sound@Feel@@UAEXPAVCObject@@HV?$resptr_core@VCSound_UserData@@V?$resptr_base@VCSound_UserData@@@@@@ABU?$_vector3@M@@M@Z PROC ; Feel::Sound::feel_sound_new, COMDAT
; _this$ = ecx

; 10   : 		virtual		void			feel_sound_new		(CObject* who, int type, CSound_UserDataPtr user_data, const Fvector& Position, float power) {};

	push	esi
	mov	esi, DWORD PTR _user_data$[esp]
	test	esi, esi
	je	SHORT $LN9@feel_sound
	add	DWORD PTR [esi+4], -1
	jne	SHORT $LN9@feel_sound
	push	edi
	push	esi
	call	___RTCastToVoid
	mov	edi, eax
	mov	eax, DWORD PTR [esi]
	mov	edx, DWORD PTR [eax]
	add	esp, 4
	push	0
	mov	ecx, esi
	call	edx
	mov	ecx, DWORD PTR __imp_?Memory@@3VxrMemory@@A
	push	edi
	call	DWORD PTR __imp_?mem_free@xrMemory@@QAEXPAX@Z
	pop	edi
$LN9@feel_sound:
	pop	esi
	ret	20					; 00000014H
?feel_sound_new@Sound@Feel@@UAEXPAVCObject@@HV?$resptr_core@VCSound_UserData@@V?$resptr_base@VCSound_UserData@@@@@@ABU?$_vector3@M@@M@Z ENDP ; Feel::Sound::feel_sound_new
; Function compile flags: /Ogtpy
_TEXT	ENDS
;	COMDAT ??1?$list@PAVCEffectorCam@@V?$xalloc@PAVCEffectorCam@@@@@stlp_std@@QAE@XZ
_TEXT	SEGMENT
??1?$list@PAVCEffectorCam@@V?$xalloc@PAVCEffectorCam@@@@@stlp_std@@QAE@XZ PROC ; stlp_std::list<CEffectorCam *,xalloc<CEffectorCam *> >::~list<CEffectorCam *,xalloc<CEffectorCam *> >, COMDAT
; _this$ = ebx
	jmp	?clear@?$_List_base@PAXV?$xalloc@PAX@@@priv@stlp_std@@QAEXXZ ; stlp_std::priv::_List_base<void *,xalloc<void *> >::clear
??1?$list@PAVCEffectorCam@@V?$xalloc@PAVCEffectorCam@@@@@stlp_std@@QAE@XZ ENDP ; stlp_std::list<CEffectorCam *,xalloc<CEffectorCam *> >::~list<CEffectorCam *,xalloc<CEffectorCam *> >
; Function compile flags: /Ogtpy
_TEXT	ENDS
;	COMDAT ??1?$xr_list@PAVCEffectorCam@@V?$xalloc@PAVCEffectorCam@@@@@@QAE@XZ
_TEXT	SEGMENT
??1?$xr_list@PAVCEffectorCam@@V?$xalloc@PAVCEffectorCam@@@@@@QAE@XZ PROC ; xr_list<CEffectorCam *,xalloc<CEffectorCam *> >::~xr_list<CEffectorCam *,xalloc<CEffectorCam *> >, COMDAT
; _this$ = ebx
	jmp	?clear@?$_List_base@PAXV?$xalloc@PAX@@@priv@stlp_std@@QAEXXZ ; stlp_std::priv::_List_base<void *,xalloc<void *> >::clear
??1?$xr_list@PAVCEffectorCam@@V?$xalloc@PAVCEffectorCam@@@@@@QAE@XZ ENDP ; xr_list<CEffectorCam *,xalloc<CEffectorCam *> >::~xr_list<CEffectorCam *,xalloc<CEffectorCam *> >
_TEXT	ENDS
PUBLIC	?camera_Matrix@CCameraManager@@QAEXAAU?$_matrix@M@@@Z ; CCameraManager::camera_Matrix
; Function compile flags: /Ogtpy
; File d:\clearsky\sources\engine\xrengine\cameramanager.h
;	COMDAT ?camera_Matrix@CCameraManager@@QAEXAAU?$_matrix@M@@@Z
_TEXT	SEGMENT
_M$ = 8							; size = 4
?camera_Matrix@CCameraManager@@QAEXAAU?$_matrix@M@@@Z PROC ; CCameraManager::camera_Matrix, COMDAT
; _this$ = ecx

; 123  : 	IC void					camera_Matrix			(Fmatrix& M){M.set(m_cam_info.r,m_cam_info.n,m_cam_info.d,m_cam_info.p);}

	fld	DWORD PTR [ecx+40]
	mov	eax, DWORD PTR _M$[esp-4]
	xorps	xmm0, xmm0
	fstp	DWORD PTR [eax]
	fld	DWORD PTR [ecx+44]
	fstp	DWORD PTR [eax+4]
	fld	DWORD PTR [ecx+48]
	movss	DWORD PTR [eax+12], xmm0
	fstp	DWORD PTR [eax+8]
	fld	DWORD PTR [ecx+28]
	fstp	DWORD PTR [eax+16]
	fld	DWORD PTR [ecx+32]
	fstp	DWORD PTR [eax+20]
	fld	DWORD PTR [ecx+36]
	fstp	DWORD PTR [eax+24]
	movss	DWORD PTR [eax+28], xmm0
	fld	DWORD PTR [ecx+16]
	fstp	DWORD PTR [eax+32]
	fld	DWORD PTR [ecx+20]
	fstp	DWORD PTR [eax+36]
	fld	DWORD PTR [ecx+24]
	fstp	DWORD PTR [eax+40]
	movss	DWORD PTR [eax+44], xmm0
	fld	DWORD PTR [ecx+4]
	movss	xmm0, DWORD PTR __real@3f800000
	fstp	DWORD PTR [eax+48]
	fld	DWORD PTR [ecx+8]
	fstp	DWORD PTR [eax+52]
	fld	DWORD PTR [ecx+12]
	fstp	DWORD PTR [eax+56]
	movss	DWORD PTR [eax+60], xmm0
	ret	4
?camera_Matrix@CCameraManager@@QAEXAAU?$_matrix@M@@@Z ENDP ; CCameraManager::camera_Matrix
_TEXT	ENDS
PUBLIC	?Count@CCameraManager@@QAEIXZ			; CCameraManager::Count
; Function compile flags: /Ogtpy
;	COMDAT ?Count@CCameraManager@@QAEIXZ
_TEXT	SEGMENT
?Count@CCameraManager@@QAEIXZ PROC			; CCameraManager::Count, COMDAT
; _this$ = ecx

; 105  : 	u32						Count					()	{return m_EffectorsCam.size()+m_EffectorsCam_added_deffered.size();}

	mov	eax, DWORD PTR [ecx+68]
	lea	edx, DWORD PTR [ecx+68]
	push	esi
	xor	esi, esi
	cmp	eax, edx
	je	SHORT $LN23@Count
	npad	3
$LL24@Count:
	mov	eax, DWORD PTR [eax]
	add	esi, 1
	cmp	eax, edx
	jne	SHORT $LL24@Count
$LN23@Count:
	mov	eax, DWORD PTR [ecx+76]
	add	ecx, 76					; 0000004cH
	xor	edx, edx
	cmp	eax, ecx
	je	SHORT $LN67@Count
$LL54@Count:
	mov	eax, DWORD PTR [eax]
	add	edx, 1
	cmp	eax, ecx
	jne	SHORT $LL54@Count
$LN67@Count:
	lea	eax, DWORD PTR [edx+esi]
	pop	esi
	ret	0
?Count@CCameraManager@@QAEIXZ ENDP			; CCameraManager::Count
_TEXT	ENDS
PUBLIC	??_GSBaseEffector@@UAEPAXI@Z			; SBaseEffector::`scalar deleting destructor'
; Function compile flags: /Ogtpy
;	COMDAT ??_GSBaseEffector@@UAEPAXI@Z
_TEXT	SEGMENT
___flags$ = 8						; size = 4
??_GSBaseEffector@@UAEPAXI@Z PROC			; SBaseEffector::`scalar deleting destructor', COMDAT
; _this$ = ecx
	test	BYTE PTR ___flags$[esp-4], 1
	push	esi
	mov	esi, ecx
	mov	DWORD PTR [esi], OFFSET ??_7SBaseEffector@@6B@
	je	SHORT $LN11@scalar@7
	mov	ecx, DWORD PTR __imp_?Memory@@3VxrMemory@@A
	push	esi
	call	DWORD PTR __imp_?mem_free@xrMemory@@QAEXPAX@Z
$LN11@scalar@7:
	mov	eax, esi
	pop	esi
	ret	4
??_GSBaseEffector@@UAEPAXI@Z ENDP			; SBaseEffector::`scalar deleting destructor'
_TEXT	ENDS
PUBLIC	??4CCustomHUD@@QAEAAV0@ABV0@@Z			; CCustomHUD::operator=
; Function compile flags: /Ogtpy
;	COMDAT ??4CCustomHUD@@QAEAAV0@ABV0@@Z
_TEXT	SEGMENT
___that$ = 8						; size = 4
??4CCustomHUD@@QAEAAV0@ABV0@@Z PROC			; CCustomHUD::operator=, COMDAT
; _this$ = ecx
	mov	eax, ecx
	mov	ecx, DWORD PTR ___that$[esp-4]
	mov	edx, DWORD PTR [ecx+8]
	mov	DWORD PTR [eax+8], edx
	mov	ecx, DWORD PTR [ecx+12]
	mov	DWORD PTR [eax+12], ecx
	ret	4
??4CCustomHUD@@QAEAAV0@ABV0@@Z ENDP			; CCustomHUD::operator=
_TEXT	ENDS
PUBLIC	??0CCustomHUD@@QAE@ABV0@@Z			; CCustomHUD::CCustomHUD
; Function compile flags: /Ogtpy
;	COMDAT ??0CCustomHUD@@QAE@ABV0@@Z
_TEXT	SEGMENT
___that$ = 8						; size = 4
??0CCustomHUD@@QAE@ABV0@@Z PROC				; CCustomHUD::CCustomHUD, COMDAT
; _this$ = ecx
	mov	eax, ecx
	mov	ecx, DWORD PTR ___that$[esp-4]
	mov	DWORD PTR [eax], OFFSET ??_7DLL_Pure@@6B@
	mov	edx, DWORD PTR [ecx+8]
	mov	DWORD PTR [eax+8], edx
	mov	ecx, DWORD PTR [ecx+12]
	mov	DWORD PTR [eax+12], ecx
	mov	DWORD PTR [eax+16], OFFSET ??_7IEventReceiver@@6B@
	mov	DWORD PTR [eax+20], OFFSET ??_7pureScreenResolutionChanged@@6B@
	mov	DWORD PTR [eax], OFFSET ??_7CCustomHUD@@6BDLL_Pure@@@
	mov	DWORD PTR [eax+16], OFFSET ??_7CCustomHUD@@6BIEventReceiver@@@
	mov	DWORD PTR [eax+20], OFFSET ??_7CCustomHUD@@6BpureScreenResolutionChanged@@@
	ret	4
??0CCustomHUD@@QAE@ABV0@@Z ENDP				; CCustomHUD::CCustomHUD
; Function compile flags: /Ogtpy
; File d:\clearsky\sources\engine\xrcore\_random.h
;	COMDAT ?randF@CRandom@@QAEMMM@Z
_TEXT	SEGMENT
_min$ = 8						; size = 4
_max$ = 12						; size = 4
?randF@CRandom@@QAEMMM@Z PROC				; CRandom::randF, COMDAT
; _this$ = eax

; 41   : 	IC 	float	randF	(float min,float max)		{ return min+randF(max-min); }

	call	?randI@CRandom@@QAEHXZ			; CRandom::randI
	movss	xmm1, DWORD PTR _min$[esp-4]
	movss	xmm2, DWORD PTR _max$[esp-4]
	cvtsi2ss xmm0, eax
	subss	xmm2, xmm1
	mulss	xmm0, xmm2
	mulss	xmm0, DWORD PTR __real@38000100
	addss	xmm0, xmm1
	ret	8
?randF@CRandom@@QAEMMM@Z ENDP				; CRandom::randF
; Function compile flags: /Ogtpy
; File d:\clearsky\sources\engine\xrsound\sound.h
_TEXT	ENDS
;	COMDAT ?set_volume@ref_sound@@QAEXM@Z
_TEXT	SEGMENT
_vol$ = 8						; size = 4
?set_volume@ref_sound@@QAEXM@Z PROC			; ref_sound::set_volume, COMDAT
; _this$ = eax

; 311  : IC void	ref_sound::set_volume					( float vol )											{	VERIFY(!::Sound->i_locked()); 	if (_feedback())	_feedback()->set_volume(vol);								}

	mov	eax, DWORD PTR [eax]
	mov	ecx, eax
	neg	ecx
	sbb	ecx, ecx
	test	ecx, OFFSET ?_get@?$resptr_base@Vref_sound_data@@@@QBEPAVref_sound_data@@XZ ; resptr_base<ref_sound_data>::_get
	je	SHORT $LN1@set_volume
	mov	ecx, DWORD PTR [eax+12]
	test	ecx, ecx
	je	SHORT $LN1@set_volume
	mov	edx, DWORD PTR [ecx]
	fld	DWORD PTR _vol$[esp-4]
	mov	eax, DWORD PTR [edx+24]
	push	ecx
	fstp	DWORD PTR [esp]
	call	eax
$LN1@set_volume:
	ret	4
?set_volume@ref_sound@@QAEXM@Z ENDP			; ref_sound::set_volume
; Function compile flags: /Ogtpy
; File d:\clearsky\sources\sdk\include\stlport\stl\_uninitialized.h
_TEXT	ENDS
;	COMDAT ??$__ucopy@PAU_esound_delegate@IGame_Level@@PAU12@H@priv@stlp_std@@YAPAU_esound_delegate@IGame_Level@@PAU23@00ABUrandom_access_iterator_tag@1@PAH@Z
_TEXT	SEGMENT
??$__ucopy@PAU_esound_delegate@IGame_Level@@PAU12@H@priv@stlp_std@@YAPAU_esound_delegate@IGame_Level@@PAU23@00ABUrandom_access_iterator_tag@1@PAH@Z PROC ; stlp_std::priv::__ucopy<IGame_Level::_esound_delegate *,IGame_Level::_esound_delegate *,int>, COMDAT
; ___first$ = ecx
; ___last$ = eax
; ___result$ = edx

; 83   :                            _OutputIter __result, const random_access_iterator_tag &, _Distance*) {

	push	ebx
	mov	ebx, ecx

; 84   :   _OutputIter __cur = __result;
; 85   :   _STLP_TRY {
; 86   :     for (_Distance __n = __last - __first; __n > 0; --__n) {

	sub	eax, ebx
	push	esi
	mov	ecx, eax
	push	edi
	mov	edi, edx
	mov	eax, 715827883				; 2aaaaaabH
	imul	ecx
	sar	edx, 1
	mov	esi, edx
	shr	esi, 31					; 0000001fH
	add	esi, edx
	test	esi, esi
	jle	SHORT $LN8@ucopy@11
	npad	1
$LL3@ucopy@11:

; 87   :       _Param_Construct(&*__cur, *__first);

	push	ebx
	push	edi
	call	??$_Param_Construct@U_esound_delegate@IGame_Level@@U12@@stlp_std@@YAXPAU_esound_delegate@IGame_Level@@ABU12@@Z ; stlp_std::_Param_Construct<IGame_Level::_esound_delegate,IGame_Level::_esound_delegate>
	sub	esi, 1
	add	esp, 8

; 88   :       ++__first;

	add	ebx, 12					; 0000000cH

; 89   :       ++__cur;

	add	edi, 12					; 0000000cH
	test	esi, esi
	jg	SHORT $LL3@ucopy@11
$LN8@ucopy@11:

; 90   :     }
; 91   :     return __cur;

	mov	eax, edi
	pop	edi
	pop	esi
	pop	ebx

; 92   :   }
; 93   :   _STLP_UNWIND(_STLP_STD::_Destroy_Range(__result, __cur))
; 94   :   _STLP_RET_AFTER_THROW(__cur)
; 95   : }

	ret	0
??$__ucopy@PAU_esound_delegate@IGame_Level@@PAU12@H@priv@stlp_std@@YAPAU_esound_delegate@IGame_Level@@PAU23@00ABUrandom_access_iterator_tag@1@PAH@Z ENDP ; stlp_std::priv::__ucopy<IGame_Level::_esound_delegate *,IGame_Level::_esound_delegate *,int>
; Function compile flags: /Ogtpy
; File d:\clearsky\sources\sdk\include\stlport\stl\_list.h
_TEXT	ENDS
;	COMDAT ?splice@?$_Impl_list@PAXV?$xalloc@PAX@@@priv@stlp_std@@QAEXU?$_List_iterator@PAXU?$_Nonconst_traits@PAX@stlp_std@@@23@AAV123@@Z
_TEXT	SEGMENT
___pos$ = 8						; size = 4
?splice@?$_Impl_list@PAXV?$xalloc@PAX@@@priv@stlp_std@@QAEXU?$_List_iterator@PAXU?$_Nonconst_traits@PAX@stlp_std@@@23@AAV123@@Z PROC ; stlp_std::priv::_Impl_list<void *,xalloc<void *> >::splice, COMDAT
; ___x$ = eax

; 590  :     if (!__x.empty()) {

	mov	ecx, DWORD PTR [eax]
	cmp	ecx, eax
	push	esi
	push	edi
	je	SHORT $LN30@splice

; 591  :       if (this->get_allocator() == __x.get_allocator()) {
; 592  :         _STLP_PRIV _List_global_inst::_Transfer(__pos._M_node, __x.begin()._M_node, __x.end()._M_node);

	mov	edx, DWORD PTR ___pos$[esp+4]
	cmp	edx, eax
	je	SHORT $LN30@splice
	mov	esi, DWORD PTR [eax+4]
	mov	DWORD PTR [esi], edx
	mov	esi, DWORD PTR [ecx+4]
	mov	DWORD PTR [esi], eax
	mov	esi, DWORD PTR [edx+4]
	mov	DWORD PTR [esi], ecx
	mov	esi, DWORD PTR [edx+4]
	mov	edi, DWORD PTR [eax+4]
	mov	DWORD PTR [edx+4], edi
	mov	edx, DWORD PTR [ecx+4]
	mov	DWORD PTR [eax+4], edx
	mov	DWORD PTR [ecx+4], esi
$LN30@splice:

; 593  :       }
; 594  :       else {
; 595  :         insert(__pos, __x.begin(), __x.end());
; 596  :         __x.clear();
; 597  :       }
; 598  :     }
; 599  :   }

	pop	edi
	pop	esi
	ret	4
?splice@?$_Impl_list@PAXV?$xalloc@PAX@@@priv@stlp_std@@QAEXU?$_List_iterator@PAXU?$_Nonconst_traits@PAX@stlp_std@@@23@AAV123@@Z ENDP ; stlp_std::priv::_Impl_list<void *,xalloc<void *> >::splice
; Function compile flags: /Ogtpy
; File d:\clearsky\sources\sdk\include\stlport\stl\_construct.h
_TEXT	ENDS
;	COMDAT ??$__destroy_mv_srcs@V?$reverse_iterator@PAU_esound_delegate@IGame_Level@@@stlp_std@@U_esound_delegate@IGame_Level@@@stlp_std@@YAXV?$reverse_iterator@PAU_esound_delegate@IGame_Level@@@0@0PAU_esound_delegate@IGame_Level@@@Z
_TEXT	SEGMENT
$T318993 = -1						; size = 1
___first$ = 8						; size = 4
___last$ = 12						; size = 4
??$__destroy_mv_srcs@V?$reverse_iterator@PAU_esound_delegate@IGame_Level@@@stlp_std@@U_esound_delegate@IGame_Level@@@stlp_std@@YAXV?$reverse_iterator@PAU_esound_delegate@IGame_Level@@@0@0PAU_esound_delegate@IGame_Level@@@Z PROC ; stlp_std::__destroy_mv_srcs<stlp_std::reverse_iterator<IGame_Level::_esound_delegate *>,IGame_Level::_esound_delegate>, COMDAT

; 192  : __destroy_mv_srcs(_ForwardIterator __first, _ForwardIterator __last, _Tp *__ptr) {

	push	ecx

; 193  :   typedef typename __move_traits<_Tp>::complete _CompleteMove;
; 194  :   __destroy_range_aux(__first, __last, __ptr, _CompleteMove());

	lea	eax, DWORD PTR $T318993[esp+4]
	push	eax
	push	0
	push	ecx
	lea	edx, DWORD PTR ___last$[esp+12]
	mov	ecx, esp
	push	edx
	mov	BYTE PTR $T318993[esp+20], 0
	call	??0?$reverse_iterator@PAU_esound_delegate@IGame_Level@@@stlp_std@@QAE@ABV01@@Z ; stlp_std::reverse_iterator<IGame_Level::_esound_delegate *>::reverse_iterator<IGame_Level::_esound_delegate *>
	push	ecx
	lea	eax, DWORD PTR ___first$[esp+16]
	mov	ecx, esp
	push	eax
	call	??0?$reverse_iterator@PAU_esound_delegate@IGame_Level@@@stlp_std@@QAE@ABV01@@Z ; stlp_std::reverse_iterator<IGame_Level::_esound_delegate *>::reverse_iterator<IGame_Level::_esound_delegate *>
	call	??$__destroy_range_aux@V?$reverse_iterator@PAU_esound_delegate@IGame_Level@@@stlp_std@@U_esound_delegate@IGame_Level@@@stlp_std@@YAXV?$reverse_iterator@PAU_esound_delegate@IGame_Level@@@0@0PAU_esound_delegate@IGame_Level@@ABU__false_type@0@@Z ; stlp_std::__destroy_range_aux<stlp_std::reverse_iterator<IGame_Level::_esound_delegate *>,IGame_Level::_esound_delegate>

; 195  : }

	add	esp, 20					; 00000014H
	ret	0
??$__destroy_mv_srcs@V?$reverse_iterator@PAU_esound_delegate@IGame_Level@@@stlp_std@@U_esound_delegate@IGame_Level@@@stlp_std@@YAXV?$reverse_iterator@PAU_esound_delegate@IGame_Level@@@0@0PAU_esound_delegate@IGame_Level@@@Z ENDP ; stlp_std::__destroy_mv_srcs<stlp_std::reverse_iterator<IGame_Level::_esound_delegate *>,IGame_Level::_esound_delegate>
; Function compile flags: /Ogtpy
; File d:\clearsky\sources\sdk\include\stlport\stl\_uninitialized.h
_TEXT	ENDS
;	COMDAT ??$__ufill@PAU_esound_delegate@IGame_Level@@U12@H@priv@stlp_std@@YAXPAU_esound_delegate@IGame_Level@@0ABU23@ABUrandom_access_iterator_tag@1@PAH@Z
_TEXT	SEGMENT
??$__ufill@PAU_esound_delegate@IGame_Level@@U12@H@priv@stlp_std@@YAXPAU_esound_delegate@IGame_Level@@0ABU23@ABUrandom_access_iterator_tag@1@PAH@Z PROC ; stlp_std::priv::__ufill<IGame_Level::_esound_delegate *,IGame_Level::_esound_delegate,int>, COMDAT
; ___first$ = ecx
; ___last$ = eax
; ___x$ = ebx

; 246  :                     const _Tp& __x, const random_access_iterator_tag &, _Distance*) {

	push	esi
	push	edi
	mov	edi, ecx

; 247  :   _ForwardIter __cur = __first;
; 248  :   _STLP_TRY {
; 249  :     for (_Distance __n = __last - __first; __n > 0; --__n, ++__cur)

	sub	eax, edi
	mov	ecx, eax
	mov	eax, 715827883				; 2aaaaaabH
	imul	ecx
	sar	edx, 1
	mov	esi, edx
	shr	esi, 31					; 0000001fH
	add	esi, edx
	test	esi, esi
	jle	SHORT $LN1@ufill@11
	npad	4
$LL3@ufill@11:

; 250  :       _Param_Construct(&*__cur, __x);

	push	ebx
	push	edi
	call	??$_Param_Construct@U_esound_delegate@IGame_Level@@U12@@stlp_std@@YAXPAU_esound_delegate@IGame_Level@@ABU12@@Z ; stlp_std::_Param_Construct<IGame_Level::_esound_delegate,IGame_Level::_esound_delegate>
	sub	esi, 1
	add	esp, 8
	add	edi, 12					; 0000000cH
	test	esi, esi
	jg	SHORT $LL3@ufill@11
$LN1@ufill@11:
	pop	edi
	pop	esi

; 251  :   }
; 252  :   _STLP_UNWIND(_STLP_STD::_Destroy_Range(__first, __cur))
; 253  : }

	ret	0
??$__ufill@PAU_esound_delegate@IGame_Level@@U12@H@priv@stlp_std@@YAXPAU_esound_delegate@IGame_Level@@0ABU23@ABUrandom_access_iterator_tag@1@PAH@Z ENDP ; stlp_std::priv::__ufill<IGame_Level::_esound_delegate *,IGame_Level::_esound_delegate,int>
; Function compile flags: /Ogtpy
_TEXT	ENDS
;	COMDAT ??$__ucopy_ptrs@PAU_esound_delegate@IGame_Level@@PAU12@@priv@stlp_std@@YAPAU_esound_delegate@IGame_Level@@PAU23@00ABU__false_type@1@@Z
_TEXT	SEGMENT
??$__ucopy_ptrs@PAU_esound_delegate@IGame_Level@@PAU12@@priv@stlp_std@@YAPAU_esound_delegate@IGame_Level@@PAU23@00ABU__false_type@1@@Z PROC ; stlp_std::priv::__ucopy_ptrs<IGame_Level::_esound_delegate *,IGame_Level::_esound_delegate *>, COMDAT
; ___first$ = edx
; ___last$ = eax
; ___result$ = ecx

; 113  : { return __ucopy(__first, __last, __result, random_access_iterator_tag(), (ptrdiff_t*)0); }

	push	ebx
	push	esi
	mov	ebx, edx
	sub	eax, ebx
	push	edi
	mov	edi, ecx
	mov	ecx, eax
	mov	eax, 715827883				; 2aaaaaabH
	imul	ecx
	sar	edx, 1
	mov	esi, edx
	shr	esi, 31					; 0000001fH
	add	esi, edx
	test	esi, esi
	jle	SHORT $LN10@ucopy_ptrs@27
	sub	ebx, edi
$LL5@ucopy_ptrs@27:
	lea	eax, DWORD PTR [ebx+edi]
	push	eax
	push	edi
	call	??$_Param_Construct@U_esound_delegate@IGame_Level@@U12@@stlp_std@@YAXPAU_esound_delegate@IGame_Level@@ABU12@@Z ; stlp_std::_Param_Construct<IGame_Level::_esound_delegate,IGame_Level::_esound_delegate>
	sub	esi, 1
	add	esp, 8
	add	edi, 12					; 0000000cH
	test	esi, esi
	jg	SHORT $LL5@ucopy_ptrs@27
$LN10@ucopy_ptrs@27:
	mov	eax, edi
	pop	edi
	pop	esi
	pop	ebx
	ret	0
??$__ucopy_ptrs@PAU_esound_delegate@IGame_Level@@PAU12@@priv@stlp_std@@YAPAU_esound_delegate@IGame_Level@@PAU23@00ABU__false_type@1@@Z ENDP ; stlp_std::priv::__ucopy_ptrs<IGame_Level::_esound_delegate *,IGame_Level::_esound_delegate *>
; Function compile flags: /Ogtpy
; File d:\clearsky\sources\sdk\include\stlport\stl\_list.h
_TEXT	ENDS
;	COMDAT ?_M_create_node@?$_Impl_list@PAXV?$xalloc@PAX@@@priv@stlp_std@@IAEPAU_List_node_base@23@ABQAX@Z
_TEXT	SEGMENT
___x$ = 8						; size = 4
?_M_create_node@?$_Impl_list@PAXV?$xalloc@PAX@@@priv@stlp_std@@IAEPAU_List_node_base@23@ABQAX@Z PROC ; stlp_std::priv::_Impl_list<void *,xalloc<void *> >::_M_create_node, COMDAT

; 279  : #else
; 280  :   _Node_base* _M_create_node(const_reference __x) {
; 281  : #endif /*!_STLP_DONT_SUP_DFLT_PARAM*/
; 282  :     _Node* __p = this->_M_node.allocate(1);

	mov	ecx, DWORD PTR __imp_?Memory@@3VxrMemory@@A
	push	esi
	push	12					; 0000000cH
	call	DWORD PTR __imp_?mem_alloc@xrMemory@@QAEPAXI@Z
	mov	esi, eax

; 283  :     _STLP_TRY {
; 284  :       _Copy_Construct(&__p->_M_data, __x);

	mov	eax, DWORD PTR ___x$[esp]
	push	eax
	lea	ecx, DWORD PTR [esi+8]
	push	ecx
	call	??$_Copy_Construct@PAX@stlp_std@@YAXPAPAXABQAX@Z ; stlp_std::_Copy_Construct<void *>
	add	esp, 8

; 285  :     }
; 286  :     _STLP_UNWIND(this->_M_node.deallocate(__p, 1))
; 287  :     return __p;

	mov	eax, esi
	pop	esi

; 288  :   }

	ret	4
?_M_create_node@?$_Impl_list@PAXV?$xalloc@PAX@@@priv@stlp_std@@IAEPAU_List_node_base@23@ABQAX@Z ENDP ; stlp_std::priv::_Impl_list<void *,xalloc<void *> >::_M_create_node
; Function compile flags: /Ogtpy
_TEXT	ENDS
;	COMDAT ?insert@?$_Impl_list@PAXV?$xalloc@PAX@@@priv@stlp_std@@QAE?AU?$_List_iterator@PAXU?$_Nonconst_traits@PAX@stlp_std@@@23@U423@ABQAX@Z
_TEXT	SEGMENT
___pos$ = 8						; size = 4
___x$ = 12						; size = 4
?insert@?$_Impl_list@PAXV?$xalloc@PAX@@@priv@stlp_std@@QAE?AU?$_List_iterator@PAXU?$_Nonconst_traits@PAX@stlp_std@@@23@U423@ABQAX@Z PROC ; stlp_std::priv::_Impl_list<void *,xalloc<void *> >::insert, COMDAT
; ___$ReturnUdt$ = edi

; 415  : #endif /*!_STLP_DONT_SUP_DFLT_PARAM && !_STLP_NO_ANACHRONISMS*/
; 416  :     _Node_base* __tmp = _M_create_node(__x);

	mov	ecx, DWORD PTR __imp_?Memory@@3VxrMemory@@A
	push	esi
	push	12					; 0000000cH
	call	DWORD PTR __imp_?mem_alloc@xrMemory@@QAEPAXI@Z
	mov	esi, eax
	mov	eax, DWORD PTR ___x$[esp]
	push	eax
	lea	ecx, DWORD PTR [esi+8]
	push	ecx
	call	??$_Copy_Construct@PAX@stlp_std@@YAXPAPAXABQAX@Z ; stlp_std::_Copy_Construct<void *>

; 417  :     _Node_base* __n = __pos._M_node;
; 418  :     _Node_base* __p = __n->_M_prev;

	mov	eax, DWORD PTR ___pos$[esp+8]
	mov	ecx, DWORD PTR [eax+4]

; 419  :     __tmp->_M_next = __n;

	mov	DWORD PTR [esi], eax

; 420  :     __tmp->_M_prev = __p;

	mov	DWORD PTR [esi+4], ecx

; 421  :     __p->_M_next = __tmp;

	mov	DWORD PTR [ecx], esi
	add	esp, 8

; 422  :     __n->_M_prev = __tmp;

	mov	DWORD PTR [eax+4], esi

; 423  :     return iterator(__tmp);

	mov	DWORD PTR [edi], esi
	mov	eax, edi
	pop	esi

; 424  :   }

	ret	8
?insert@?$_Impl_list@PAXV?$xalloc@PAX@@@priv@stlp_std@@QAE?AU?$_List_iterator@PAXU?$_Nonconst_traits@PAX@stlp_std@@@23@U423@ABQAX@Z ENDP ; stlp_std::priv::_Impl_list<void *,xalloc<void *> >::insert
; Function compile flags: /Ogtpy
; File d:\clearsky\sources\sdk\include\stlport\stl\_construct.h
_TEXT	ENDS
;	COMDAT ??$_Destroy_Moved_Range@V?$reverse_iterator@PAU_esound_delegate@IGame_Level@@@stlp_std@@@stlp_std@@YAXV?$reverse_iterator@PAU_esound_delegate@IGame_Level@@@0@0@Z
_TEXT	SEGMENT
$T319102 = -9						; size = 1
$T319105 = -8						; size = 4
$T319106 = -4						; size = 4
___first$ = 8						; size = 4
___last$ = 12						; size = 4
??$_Destroy_Moved_Range@V?$reverse_iterator@PAU_esound_delegate@IGame_Level@@@stlp_std@@@stlp_std@@YAXV?$reverse_iterator@PAU_esound_delegate@IGame_Level@@@0@0@Z PROC ; stlp_std::_Destroy_Moved_Range<stlp_std::reverse_iterator<IGame_Level::_esound_delegate *> >, COMDAT

; 198  : inline void _Destroy_Moved_Range(_ForwardIterator __first, _ForwardIterator __last) {

	sub	esp, 12					; 0000000cH

; 199  :   __destroy_mv_srcs(__first, __last, _STLP_VALUE_TYPE(__first, _ForwardIterator));

	lea	eax, DWORD PTR ___last$[esp+8]
	push	eax
	lea	ecx, DWORD PTR $T319105[esp+16]
	call	??0?$reverse_iterator@PAU_esound_delegate@IGame_Level@@@stlp_std@@QAE@ABV01@@Z ; stlp_std::reverse_iterator<IGame_Level::_esound_delegate *>::reverse_iterator<IGame_Level::_esound_delegate *>
	lea	ecx, DWORD PTR ___first$[esp+8]
	push	ecx
	lea	ecx, DWORD PTR $T319106[esp+16]
	call	??0?$reverse_iterator@PAU_esound_delegate@IGame_Level@@@stlp_std@@QAE@ABV01@@Z ; stlp_std::reverse_iterator<IGame_Level::_esound_delegate *>::reverse_iterator<IGame_Level::_esound_delegate *>
	lea	edx, DWORD PTR $T319102[esp+12]
	push	edx
	push	0
	push	ecx
	lea	eax, DWORD PTR $T319105[esp+24]
	mov	ecx, esp
	push	eax
	mov	BYTE PTR $T319102[esp+28], 0
	call	??0?$reverse_iterator@PAU_esound_delegate@IGame_Level@@@stlp_std@@QAE@ABV01@@Z ; stlp_std::reverse_iterator<IGame_Level::_esound_delegate *>::reverse_iterator<IGame_Level::_esound_delegate *>
	push	ecx
	lea	edx, DWORD PTR $T319106[esp+28]
	mov	ecx, esp
	push	edx
	call	??0?$reverse_iterator@PAU_esound_delegate@IGame_Level@@@stlp_std@@QAE@ABV01@@Z ; stlp_std::reverse_iterator<IGame_Level::_esound_delegate *>::reverse_iterator<IGame_Level::_esound_delegate *>
	call	??$__destroy_range_aux@V?$reverse_iterator@PAU_esound_delegate@IGame_Level@@@stlp_std@@U_esound_delegate@IGame_Level@@@stlp_std@@YAXV?$reverse_iterator@PAU_esound_delegate@IGame_Level@@@0@0PAU_esound_delegate@IGame_Level@@ABU__false_type@0@@Z ; stlp_std::__destroy_range_aux<stlp_std::reverse_iterator<IGame_Level::_esound_delegate *>,IGame_Level::_esound_delegate>

; 200  : }

	add	esp, 28					; 0000001cH
	ret	0
??$_Destroy_Moved_Range@V?$reverse_iterator@PAU_esound_delegate@IGame_Level@@@stlp_std@@@stlp_std@@YAXV?$reverse_iterator@PAU_esound_delegate@IGame_Level@@@0@0@Z ENDP ; stlp_std::_Destroy_Moved_Range<stlp_std::reverse_iterator<IGame_Level::_esound_delegate *> >
; Function compile flags: /Ogtpy
; File d:\clearsky\sources\sdk\include\stlport\stl\_algobase.h
_TEXT	ENDS
;	COMDAT ??$__copy@PAU_esound_delegate@IGame_Level@@PAU12@H@priv@stlp_std@@YAPAU_esound_delegate@IGame_Level@@PAU23@00ABUrandom_access_iterator_tag@1@PAH@Z
_TEXT	SEGMENT
??$__copy@PAU_esound_delegate@IGame_Level@@PAU12@H@priv@stlp_std@@YAPAU_esound_delegate@IGame_Level@@PAU23@00ABUrandom_access_iterator_tag@1@PAH@Z PROC ; stlp_std::priv::__copy<IGame_Level::_esound_delegate *,IGame_Level::_esound_delegate *,int>, COMDAT
; ___first$ = edx
; ___last$ = eax
; ___result$ = ecx

; 200  :        _OutputIter __result, const random_access_iterator_tag &, _Distance*) {

	push	ebx
	push	esi
	push	edi
	mov	edi, edx

; 201  :   for (_Distance __n = __last - __first; __n > 0; --__n) {

	sub	eax, edi
	mov	ebx, ecx
	mov	ecx, eax
	mov	eax, 715827883				; 2aaaaaabH
	imul	ecx
	sar	edx, 1
	mov	esi, edx
	shr	esi, 31					; 0000001fH
	add	esi, edx
	test	esi, esi
	jle	SHORT $LN28@copy@15
	npad	1
$LL3@copy@15:

; 202  :     *__result = *__first;

	push	edi
	mov	ecx, ebx
	call	??4_esound_delegate@IGame_Level@@QAEAAU01@ABU01@@Z
	sub	esi, 1

; 203  :     ++__first;

	add	edi, 12					; 0000000cH

; 204  :     ++__result;

	add	ebx, 12					; 0000000cH
	test	esi, esi
	jg	SHORT $LL3@copy@15
$LN28@copy@15:
	pop	edi
	pop	esi

; 205  :   }
; 206  :   return __result;

	mov	eax, ebx
	pop	ebx

; 207  : }

	ret	0
??$__copy@PAU_esound_delegate@IGame_Level@@PAU12@H@priv@stlp_std@@YAPAU_esound_delegate@IGame_Level@@PAU23@00ABUrandom_access_iterator_tag@1@PAH@Z ENDP ; stlp_std::priv::__copy<IGame_Level::_esound_delegate *,IGame_Level::_esound_delegate *,int>
; Function compile flags: /Ogtpy
; File d:\clearsky\sources\sdk\include\stlport\stl\_list.h
_TEXT	ENDS
;	COMDAT ??$_M_insert_dispatch@U?$_List_iterator@PAXU?$_Const_traits@PAX@stlp_std@@@priv@stlp_std@@@?$_Impl_list@PAXV?$xalloc@PAX@@@priv@stlp_std@@AAEXU?$_List_iterator@PAXU?$_Nonconst_traits@PAX@stlp_std@@@12@U?$_List_iterator@PAXU?$_Const_traits@PAX@stlp_std@@@12@1ABU__false_type@2@@Z
_TEXT	SEGMENT
___pos$ = 8						; size = 4
___first$ = 12						; size = 4
___last$ = 16						; size = 4
??$_M_insert_dispatch@U?$_List_iterator@PAXU?$_Const_traits@PAX@stlp_std@@@priv@stlp_std@@@?$_Impl_list@PAXV?$xalloc@PAX@@@priv@stlp_std@@AAEXU?$_List_iterator@PAXU?$_Nonconst_traits@PAX@stlp_std@@@12@U?$_List_iterator@PAXU?$_Const_traits@PAX@stlp_std@@@12@1ABU__false_type@2@@Z PROC ; stlp_std::priv::_Impl_list<void *,xalloc<void *> >::_M_insert_dispatch<stlp_std::priv::_List_iterator<void *,stlp_std::_Const_traits<void *> > >, COMDAT

; 441  :   void _M_insert_dispatch(iterator __pos,

	push	ebx
	push	ebp

; 442  :                           _InputIter __first, _InputIter __last,
; 443  :                           const __false_type& /*_IsIntegral*/) {
; 444  : #else /* _STLP_MEMBER_TEMPLATES */
; 445  :   void _M_insert(iterator __pos, const value_type* __first, const value_type* __last) {
; 446  :     for (; __first != __last; ++__first)
; 447  :       insert(__pos, *__first);
; 448  :   }
; 449  :   void _M_insert(iterator __pos, const_iterator __first, const_iterator __last) {
; 450  : #endif /* _STLP_MEMBER_TEMPLATES */
; 451  :     //We use a temporary list to avoid the auto reference troubles (infinite loop)
; 452  :     for (; __first != __last; ++__first)

	mov	ebp, DWORD PTR ___last$[esp+4]
	push	esi
	push	edi
	mov	edi, DWORD PTR ___first$[esp+12]
	cmp	edi, ebp
	je	SHORT $LN1@M_insert_d@2
	mov	ebx, DWORD PTR ___pos$[esp+12]
	npad	12
$LL8@M_insert_d@2:

; 453  :       insert(__pos, *__first);

	mov	ecx, DWORD PTR __imp_?Memory@@3VxrMemory@@A
	push	12					; 0000000cH
	call	DWORD PTR __imp_?mem_alloc@xrMemory@@QAEPAXI@Z
	mov	esi, eax
	lea	eax, DWORD PTR [edi+8]
	push	eax
	lea	ecx, DWORD PTR [esi+8]
	push	ecx
	call	??$_Copy_Construct@PAX@stlp_std@@YAXPAPAXABQAX@Z ; stlp_std::_Copy_Construct<void *>
	mov	eax, DWORD PTR [ebx+4]
	mov	DWORD PTR [esi], ebx
	mov	DWORD PTR [esi+4], eax
	mov	DWORD PTR [eax], esi
	mov	DWORD PTR [ebx+4], esi
	mov	edi, DWORD PTR [edi]
	add	esp, 8
	cmp	edi, ebp
	jne	SHORT $LL8@M_insert_d@2
$LN1@M_insert_d@2:

; 454  :   }

	pop	edi
	pop	esi
	pop	ebp
	pop	ebx
	ret	12					; 0000000cH
??$_M_insert_dispatch@U?$_List_iterator@PAXU?$_Const_traits@PAX@stlp_std@@@priv@stlp_std@@@?$_Impl_list@PAXV?$xalloc@PAX@@@priv@stlp_std@@AAEXU?$_List_iterator@PAXU?$_Nonconst_traits@PAX@stlp_std@@@12@U?$_List_iterator@PAXU?$_Const_traits@PAX@stlp_std@@@12@1ABU__false_type@2@@Z ENDP ; stlp_std::priv::_Impl_list<void *,xalloc<void *> >::_M_insert_dispatch<stlp_std::priv::_List_iterator<void *,stlp_std::_Const_traits<void *> > >
; Function compile flags: /Ogtpy
; File d:\clearsky\sources\sdk\include\stlport\stl\_algo.h
_TEXT	ENDS
;	COMDAT ??$remove_copy_if@PAU_esound_delegate@IGame_Level@@PAU12@Urem_pred@?1??SoundEvent_OnDestDestroy@2@QAEXPAVSound@Feel@@@Z@@stlp_std@@YAPAU_esound_delegate@IGame_Level@@PAU12@00Urem_pred@?1??SoundEvent_OnDestDestroy@2@QAEXPAVSound@Feel@@@Z@@Z
_TEXT	SEGMENT
___pred$ = 8						; size = 4
??$remove_copy_if@PAU_esound_delegate@IGame_Level@@PAU12@Urem_pred@?1??SoundEvent_OnDestDestroy@2@QAEXPAVSound@Feel@@@Z@@stlp_std@@YAPAU_esound_delegate@IGame_Level@@PAU12@00Urem_pred@?1??SoundEvent_OnDestDestroy@2@QAEXPAVSound@Feel@@@Z@@Z PROC ; stlp_std::remove_copy_if<IGame_Level::_esound_delegate *,IGame_Level::_esound_delegate *,`IGame_Level::SoundEvent_OnDestDestroy'::`2'::rem_pred>, COMDAT
; ___first$ = ecx
; ___last$ = ebx
; ___result$ = eax

; 253  : remove_copy_if(_InputIter __first, _InputIter __last, _OutputIter __result, _Predicate __pred) {

	push	esi
	mov	esi, ecx

; 254  :   _STLP_DEBUG_CHECK(_STLP_PRIV __check_range(__first, __last))
; 255  :   for ( ; __first != __last; ++__first) {

	cmp	esi, ebx
	push	edi
	mov	edi, eax
	je	SHORT $LN2@remove_cop@4
	push	ebp
	mov	ebp, DWORD PTR ___pred$[esp+8]
	npad	1
$LL4@remove_cop@4:

; 256  :     if (!__pred(*__first)) {

	cmp	DWORD PTR [esi], ebp
	je	SHORT $LN3@remove_cop@4

; 257  :       *__result = *__first;

	push	esi
	mov	ecx, edi
	call	??4_esound_delegate@IGame_Level@@QAEAAU01@ABU01@@Z

; 258  :       ++__result;

	add	edi, 12					; 0000000cH
$LN3@remove_cop@4:
	add	esi, 12					; 0000000cH
	cmp	esi, ebx
	jne	SHORT $LL4@remove_cop@4

; 259  :     }
; 260  :   }
; 261  :   return __result;

	mov	eax, edi
	pop	ebp
$LN2@remove_cop@4:
	pop	edi
	pop	esi

; 262  : }

	ret	0
??$remove_copy_if@PAU_esound_delegate@IGame_Level@@PAU12@Urem_pred@?1??SoundEvent_OnDestDestroy@2@QAEXPAVSound@Feel@@@Z@@stlp_std@@YAPAU_esound_delegate@IGame_Level@@PAU12@00Urem_pred@?1??SoundEvent_OnDestDestroy@2@QAEXPAVSound@Feel@@@Z@@Z ENDP ; stlp_std::remove_copy_if<IGame_Level::_esound_delegate *,IGame_Level::_esound_delegate *,`IGame_Level::SoundEvent_OnDestDestroy'::`2'::rem_pred>
; Function compile flags: /Ogtpy
; File d:\clearsky\sources\sdk\include\stlport\stl\_uninitialized.h
_TEXT	ENDS
;	COMDAT ??$__uninitialized_fill_n@PAU_esound_delegate@IGame_Level@@IU12@@priv@stlp_std@@YAPAU_esound_delegate@IGame_Level@@PAU23@IABU23@@Z
_TEXT	SEGMENT
___x$ = 8						; size = 4
??$__uninitialized_fill_n@PAU_esound_delegate@IGame_Level@@IU12@@priv@stlp_std@@YAPAU_esound_delegate@IGame_Level@@PAU23@IABU23@@Z PROC ; stlp_std::priv::__uninitialized_fill_n<IGame_Level::_esound_delegate *,unsigned int,IGame_Level::_esound_delegate>, COMDAT
; ___first$ = ecx
; ___n$ = eax

; 313  : inline _ForwardIter __uninitialized_fill_n(_ForwardIter __first, _Size __n, const _Tp& __x) {

	push	ebx
	push	ebp
	push	esi
	mov	ebp, DWORD PTR ___x$[esp+8]

; 314  :   _ForwardIter __last = __first + __n;

	lea	eax, DWORD PTR [eax+eax*2]
	push	edi
	mov	edi, ecx
	lea	ebx, DWORD PTR [edi+eax*4]

; 315  :   __ufill(__first, __last, __x, random_access_iterator_tag(), (ptrdiff_t*)0);

	mov	ecx, ebx
	sub	ecx, edi
	mov	eax, 715827883				; 2aaaaaabH
	imul	ecx
	sar	edx, 1
	mov	esi, edx
	shr	esi, 31					; 0000001fH
	add	esi, edx
	test	esi, esi
	jle	SHORT $LN10@uninitiali@23
$LL5@uninitiali@23:
	push	ebp
	push	edi
	call	??$_Param_Construct@U_esound_delegate@IGame_Level@@U12@@stlp_std@@YAXPAU_esound_delegate@IGame_Level@@ABU12@@Z ; stlp_std::_Param_Construct<IGame_Level::_esound_delegate,IGame_Level::_esound_delegate>
	sub	esi, 1
	add	esp, 8
	add	edi, 12					; 0000000cH
	test	esi, esi
	jg	SHORT $LL5@uninitiali@23
$LN10@uninitiali@23:
	pop	edi
	pop	esi
	pop	ebp

; 316  :   return __last;

	mov	eax, ebx
	pop	ebx

; 317  : }

	ret	0
??$__uninitialized_fill_n@PAU_esound_delegate@IGame_Level@@IU12@@priv@stlp_std@@YAPAU_esound_delegate@IGame_Level@@PAU23@IABU23@@Z ENDP ; stlp_std::priv::__uninitialized_fill_n<IGame_Level::_esound_delegate *,unsigned int,IGame_Level::_esound_delegate>
; Function compile flags: /Ogtpy
_TEXT	ENDS
;	COMDAT ??$__uninitialized_move@PAU_esound_delegate@IGame_Level@@PAU12@U__false_type@stlp_std@@@priv@stlp_std@@YAPAU_esound_delegate@IGame_Level@@PAU23@00U__false_type@1@ABU41@@Z
_TEXT	SEGMENT
___trivial_ucpy$ = 8					; size = 1
??$__uninitialized_move@PAU_esound_delegate@IGame_Level@@PAU12@U__false_type@stlp_std@@@priv@stlp_std@@YAPAU_esound_delegate@IGame_Level@@PAU23@00U__false_type@1@ABU41@@Z PROC ; stlp_std::priv::__uninitialized_move<IGame_Level::_esound_delegate *,IGame_Level::_esound_delegate *,stlp_std::__false_type>, COMDAT
; ___first$ = edx
; ___last$ = eax
; ___result$ = ecx

; 414  : { return __ucopy_ptrs(__first, __last, __result, __trivial_ucpy); }

	push	ebx
	push	esi
	mov	ebx, edx
	sub	eax, ebx
	push	edi
	mov	edi, ecx
	mov	ecx, eax
	mov	eax, 715827883				; 2aaaaaabH
	imul	ecx
	sar	edx, 1
	mov	esi, edx
	shr	esi, 31					; 0000001fH
	add	esi, edx
	test	esi, esi
	jle	SHORT $LN12@uninitiali@24
	sub	ebx, edi
$LL7@uninitiali@24:
	lea	eax, DWORD PTR [ebx+edi]
	push	eax
	push	edi
	call	??$_Param_Construct@U_esound_delegate@IGame_Level@@U12@@stlp_std@@YAXPAU_esound_delegate@IGame_Level@@ABU12@@Z ; stlp_std::_Param_Construct<IGame_Level::_esound_delegate,IGame_Level::_esound_delegate>
	sub	esi, 1
	add	esp, 8
	add	edi, 12					; 0000000cH
	test	esi, esi
	jg	SHORT $LL7@uninitiali@24
$LN12@uninitiali@24:
	mov	eax, edi
	pop	edi
	pop	esi
	pop	ebx
	ret	0
??$__uninitialized_move@PAU_esound_delegate@IGame_Level@@PAU12@U__false_type@stlp_std@@@priv@stlp_std@@YAPAU_esound_delegate@IGame_Level@@PAU23@00U__false_type@1@ABU41@@Z ENDP ; stlp_std::priv::__uninitialized_move<IGame_Level::_esound_delegate *,IGame_Level::_esound_delegate *,stlp_std::__false_type>
; Function compile flags: /Ogtpy
; File d:\clearsky\sources\sdk\include\stlport\stl\_vector.h
_TEXT	ENDS
;	COMDAT ?_M_clear_after_move@?$_Impl_vector@U_esound_delegate@IGame_Level@@V?$xalloc@U_esound_delegate@IGame_Level@@@@@priv@stlp_std@@AAEXXZ
_TEXT	SEGMENT
$T319392 = -17						; size = 1
$T319395 = -16						; size = 4
$T319396 = -12						; size = 4
$T319384 = -8						; size = 4
$T319385 = -4						; size = 4
?_M_clear_after_move@?$_Impl_vector@U_esound_delegate@IGame_Level@@V?$xalloc@U_esound_delegate@IGame_Level@@@@@priv@stlp_std@@AAEXXZ PROC ; stlp_std::priv::_Impl_vector<IGame_Level::_esound_delegate,xalloc<IGame_Level::_esound_delegate> >::_M_clear_after_move, COMDAT
; _this$ = eax

; 620  :   void _M_clear_after_move() {

	sub	esp, 20					; 00000014H
	push	esi
	mov	esi, eax

; 621  :     _STLP_STD::_Destroy_Moved_Range(rbegin(), rend());

	lea	eax, DWORD PTR $T319395[esp+24]
	push	eax
	mov	ecx, esi
	call	?rend@?$_Impl_vector@U_esound_delegate@IGame_Level@@V?$xalloc@U_esound_delegate@IGame_Level@@@@@priv@stlp_std@@QAE?AV?$reverse_iterator@PAU_esound_delegate@IGame_Level@@@3@XZ ; stlp_std::priv::_Impl_vector<IGame_Level::_esound_delegate,xalloc<IGame_Level::_esound_delegate> >::rend
	lea	ecx, DWORD PTR $T319396[esp+24]
	push	ecx
	mov	ecx, esi
	call	?rbegin@?$_Impl_vector@U_esound_delegate@IGame_Level@@V?$xalloc@U_esound_delegate@IGame_Level@@@@@priv@stlp_std@@QAE?AV?$reverse_iterator@PAU_esound_delegate@IGame_Level@@@3@XZ ; stlp_std::priv::_Impl_vector<IGame_Level::_esound_delegate,xalloc<IGame_Level::_esound_delegate> >::rbegin
	lea	edx, DWORD PTR $T319395[esp+24]
	push	edx
	lea	ecx, DWORD PTR $T319384[esp+28]
	call	??0?$reverse_iterator@PAU_esound_delegate@IGame_Level@@@stlp_std@@QAE@ABV01@@Z ; stlp_std::reverse_iterator<IGame_Level::_esound_delegate *>::reverse_iterator<IGame_Level::_esound_delegate *>
	lea	eax, DWORD PTR $T319396[esp+24]
	push	eax
	lea	ecx, DWORD PTR $T319385[esp+28]
	call	??0?$reverse_iterator@PAU_esound_delegate@IGame_Level@@@stlp_std@@QAE@ABV01@@Z ; stlp_std::reverse_iterator<IGame_Level::_esound_delegate *>::reverse_iterator<IGame_Level::_esound_delegate *>
	lea	ecx, DWORD PTR $T319392[esp+24]
	push	ecx
	push	0
	push	ecx
	lea	edx, DWORD PTR $T319384[esp+36]
	mov	ecx, esp
	push	edx
	mov	BYTE PTR $T319392[esp+40], 0
	call	??0?$reverse_iterator@PAU_esound_delegate@IGame_Level@@@stlp_std@@QAE@ABV01@@Z ; stlp_std::reverse_iterator<IGame_Level::_esound_delegate *>::reverse_iterator<IGame_Level::_esound_delegate *>
	push	ecx
	lea	eax, DWORD PTR $T319385[esp+40]
	mov	ecx, esp
	push	eax
	call	??0?$reverse_iterator@PAU_esound_delegate@IGame_Level@@@stlp_std@@QAE@ABV01@@Z ; stlp_std::reverse_iterator<IGame_Level::_esound_delegate *>::reverse_iterator<IGame_Level::_esound_delegate *>
	call	??$__destroy_range_aux@V?$reverse_iterator@PAU_esound_delegate@IGame_Level@@@stlp_std@@U_esound_delegate@IGame_Level@@@stlp_std@@YAXV?$reverse_iterator@PAU_esound_delegate@IGame_Level@@@0@0PAU_esound_delegate@IGame_Level@@ABU__false_type@0@@Z ; stlp_std::__destroy_range_aux<stlp_std::reverse_iterator<IGame_Level::_esound_delegate *>,IGame_Level::_esound_delegate>

; 622  :     this->_M_end_of_storage.deallocate(this->_M_start, this->_M_end_of_storage._M_data - this->_M_start);

	mov	edx, DWORD PTR [esi+8]
	lea	ecx, DWORD PTR [esi+8]
	mov	esi, DWORD PTR [esi]
	sub	edx, esi
	mov	eax, 715827883				; 2aaaaaabH
	imul	edx
	sar	edx, 1
	mov	eax, edx
	shr	eax, 31					; 0000001fH
	add	esp, 16					; 00000010H
	add	eax, edx
	push	eax
	push	esi
	call	?deallocate@?$xalloc@U_esound_delegate@IGame_Level@@@@QBEXPAU_esound_delegate@IGame_Level@@I@Z ; xalloc<IGame_Level::_esound_delegate>::deallocate

; 623  :   }

	pop	esi
	add	esp, 20					; 00000014H
	ret	0
?_M_clear_after_move@?$_Impl_vector@U_esound_delegate@IGame_Level@@V?$xalloc@U_esound_delegate@IGame_Level@@@@@priv@stlp_std@@AAEXXZ ENDP ; stlp_std::priv::_Impl_vector<IGame_Level::_esound_delegate,xalloc<IGame_Level::_esound_delegate> >::_M_clear_after_move
; Function compile flags: /Ogtpy
; File d:\clearsky\sources\sdk\include\stlport\stl\_algobase.h
_TEXT	ENDS
;	COMDAT ??$__copy_ptrs@PAU_esound_delegate@IGame_Level@@PAU12@@priv@stlp_std@@YAPAU_esound_delegate@IGame_Level@@PAU23@00ABU__false_type@1@@Z
_TEXT	SEGMENT
??$__copy_ptrs@PAU_esound_delegate@IGame_Level@@PAU12@@priv@stlp_std@@YAPAU_esound_delegate@IGame_Level@@PAU23@00ABU__false_type@1@@Z PROC ; stlp_std::priv::__copy_ptrs<IGame_Level::_esound_delegate *,IGame_Level::_esound_delegate *>, COMDAT
; ___first$ = edx
; ___last$ = eax
; ___result$ = ecx

; 249  :                                const __false_type& /*IsOKToMemCpy*/) {

	push	ebx
	push	esi
	mov	ebx, edx

; 250  :   return __copy(__first, __last, __result, random_access_iterator_tag(), (ptrdiff_t*)0);

	sub	eax, ebx
	push	edi
	mov	edi, ecx
	mov	ecx, eax
	mov	eax, 715827883				; 2aaaaaabH
	imul	ecx
	sar	edx, 1
	mov	esi, edx
	shr	esi, 31					; 0000001fH
	add	esi, edx
	test	esi, esi
	jle	SHORT $LN30@copy_ptrs@40
	sub	ebx, edi
$LL5@copy_ptrs@40:
	lea	eax, DWORD PTR [ebx+edi]
	push	eax
	mov	ecx, edi
	call	??4_esound_delegate@IGame_Level@@QAEAAU01@ABU01@@Z
	sub	esi, 1
	add	edi, 12					; 0000000cH
	test	esi, esi
	jg	SHORT $LL5@copy_ptrs@40
$LN30@copy_ptrs@40:
	mov	eax, edi
	pop	edi
	pop	esi
	pop	ebx

; 251  : }

	ret	0
??$__copy_ptrs@PAU_esound_delegate@IGame_Level@@PAU12@@priv@stlp_std@@YAPAU_esound_delegate@IGame_Level@@PAU23@00ABU__false_type@1@@Z ENDP ; stlp_std::priv::__copy_ptrs<IGame_Level::_esound_delegate *,IGame_Level::_esound_delegate *>
; Function compile flags: /Ogtpy
; File d:\clearsky\sources\sdk\include\stlport\stl\_list.h
_TEXT	ENDS
;	COMDAT ??$_M_insert@U?$_List_iterator@PAXU?$_Const_traits@PAX@stlp_std@@@priv@stlp_std@@@?$_Impl_list@PAXV?$xalloc@PAX@@@priv@stlp_std@@AAEXU?$_List_iterator@PAXU?$_Nonconst_traits@PAX@stlp_std@@@12@U?$_List_iterator@PAXU?$_Const_traits@PAX@stlp_std@@@12@1@Z
_TEXT	SEGMENT
___pos$ = 8						; size = 4
___first$ = 12						; size = 4
___last$ = 16						; size = 4
??$_M_insert@U?$_List_iterator@PAXU?$_Const_traits@PAX@stlp_std@@@priv@stlp_std@@@?$_Impl_list@PAXV?$xalloc@PAX@@@priv@stlp_std@@AAEXU?$_List_iterator@PAXU?$_Nonconst_traits@PAX@stlp_std@@@12@U?$_List_iterator@PAXU?$_Const_traits@PAX@stlp_std@@@12@1@Z PROC ; stlp_std::priv::_Impl_list<void *,xalloc<void *> >::_M_insert<stlp_std::priv::_List_iterator<void *,stlp_std::_Const_traits<void *> > >, COMDAT

; 430  :     typedef typename _IsIntegral<_InputIterator>::_Ret _Integral;
; 431  :     _M_insert_dispatch(__pos, __first, __last, _Integral());

	mov	eax, DWORD PTR ___last$[esp-4]
	mov	ecx, DWORD PTR ___first$[esp-4]
	mov	edx, DWORD PTR ___pos$[esp-4]
	push	eax
	push	ecx
	push	ecx
	mov	eax, esp
	mov	DWORD PTR [eax], edx
	call	??$_M_insert_dispatch@U?$_List_iterator@PAXU?$_Const_traits@PAX@stlp_std@@@priv@stlp_std@@@?$_Impl_list@PAXV?$xalloc@PAX@@@priv@stlp_std@@AAEXU?$_List_iterator@PAXU?$_Nonconst_traits@PAX@stlp_std@@@12@U?$_List_iterator@PAXU?$_Const_traits@PAX@stlp_std@@@12@1ABU__false_type@2@@Z ; stlp_std::priv::_Impl_list<void *,xalloc<void *> >::_M_insert_dispatch<stlp_std::priv::_List_iterator<void *,stlp_std::_Const_traits<void *> > >

; 432  :   }

	ret	12					; 0000000cH
??$_M_insert@U?$_List_iterator@PAXU?$_Const_traits@PAX@stlp_std@@@priv@stlp_std@@@?$_Impl_list@PAXV?$xalloc@PAX@@@priv@stlp_std@@AAEXU?$_List_iterator@PAXU?$_Nonconst_traits@PAX@stlp_std@@@12@U?$_List_iterator@PAXU?$_Const_traits@PAX@stlp_std@@@12@1@Z ENDP ; stlp_std::priv::_Impl_list<void *,xalloc<void *> >::_M_insert<stlp_std::priv::_List_iterator<void *,stlp_std::_Const_traits<void *> > >
; Function compile flags: /Ogtpy
; File d:\clearsky\sources\sdk\include\stlport\stl\_construct.h
_TEXT	ENDS
;	COMDAT ??$_Destroy@U_esound_delegate@IGame_Level@@@stlp_std@@YAXPAU_esound_delegate@IGame_Level@@@Z
_TEXT	SEGMENT
$T319483 = -1						; size = 1
??$_Destroy@U_esound_delegate@IGame_Level@@@stlp_std@@YAXPAU_esound_delegate@IGame_Level@@@Z PROC ; stlp_std::_Destroy<IGame_Level::_esound_delegate>, COMDAT
; ___pointer$ = ecx

; 59   : inline void _Destroy(_Tp* __pointer) {

	push	ecx

; 60   : #if defined (_STLP_MSVC) && (_STLP_MSVC <= 1010)
; 61   :   __pointer;
; 62   : #endif
; 63   :   typedef typename __type_traits<_Tp>::has_trivial_destructor _Trivial_destructor;
; 64   :   __destroy_aux(__pointer, _Trivial_destructor());

	lea	eax, DWORD PTR $T319483[esp+4]
	push	eax
	push	ecx
	mov	BYTE PTR $T319483[esp+12], 0
	call	??$__destroy_aux@U_esound_delegate@IGame_Level@@@stlp_std@@YAXPAU_esound_delegate@IGame_Level@@ABU__false_type@0@@Z ; stlp_std::__destroy_aux<IGame_Level::_esound_delegate>

; 65   : #if defined (_STLP_DEBUG_UNINITIALIZED)
; 66   :   memset(__REINTERPRET_CAST(char*, __pointer), _STLP_SHRED_BYTE, sizeof(_Tp));
; 67   : #endif
; 68   : }

	add	esp, 12					; 0000000cH
	ret	0
??$_Destroy@U_esound_delegate@IGame_Level@@@stlp_std@@YAXPAU_esound_delegate@IGame_Level@@@Z ENDP ; stlp_std::_Destroy<IGame_Level::_esound_delegate>
; Function compile flags: /Ogtpy
_TEXT	ENDS
;	COMDAT ??$_Copy_Construct@U_esound_delegate@IGame_Level@@@stlp_std@@YAXPAU_esound_delegate@IGame_Level@@ABU12@@Z
_TEXT	SEGMENT
??$_Copy_Construct@U_esound_delegate@IGame_Level@@@stlp_std@@YAXPAU_esound_delegate@IGame_Level@@ABU12@@Z PROC ; stlp_std::_Copy_Construct<IGame_Level::_esound_delegate>, COMDAT
; ___p$ = ecx
; ___val$ = eax

; 110  : #if defined (_STLP_DEBUG_UNINITIALIZED)
; 111  :   memset((char*)__p, _STLP_SHRED_BYTE, sizeof(_Tp));
; 112  : #endif
; 113  :   _STLP_PLACEMENT_NEW (__p) _Tp(__val);

	test	ecx, ecx
	je	SHORT $LN3@Copy_Const@24
	push	eax
	call	??0_esound_delegate@IGame_Level@@QAE@ABU01@@Z
$LN3@Copy_Const@24:

; 114  : }

	ret	0
??$_Copy_Construct@U_esound_delegate@IGame_Level@@@stlp_std@@YAXPAU_esound_delegate@IGame_Level@@ABU12@@Z ENDP ; stlp_std::_Copy_Construct<IGame_Level::_esound_delegate>
; Function compile flags: /Ogtpy
; File d:\clearsky\sources\sdk\include\stlport\stl\_algo.h
_TEXT	ENDS
;	COMDAT ??$remove_if@PAU_esound_delegate@IGame_Level@@Urem_pred@?1??SoundEvent_OnDestDestroy@2@QAEXPAVSound@Feel@@@Z@@stlp_std@@YAPAU_esound_delegate@IGame_Level@@PAU12@0Urem_pred@?1??SoundEvent_OnDestDestroy@2@QAEXPAVSound@Feel@@@Z@@Z
_TEXT	SEGMENT
___pred$ = 8						; size = 4
??$remove_if@PAU_esound_delegate@IGame_Level@@Urem_pred@?1??SoundEvent_OnDestDestroy@2@QAEXPAVSound@Feel@@@Z@@stlp_std@@YAPAU_esound_delegate@IGame_Level@@PAU12@0Urem_pred@?1??SoundEvent_OnDestDestroy@2@QAEXPAVSound@Feel@@@Z@@Z PROC ; stlp_std::remove_if<IGame_Level::_esound_delegate *,`IGame_Level::SoundEvent_OnDestDestroy'::`2'::rem_pred>, COMDAT
; ___first$ = ecx
; ___last$ = eax

; 279  : remove_if(_ForwardIter __first, _ForwardIter __last, _Predicate __pred) {

	push	ebp

; 280  :   _STLP_DEBUG_CHECK(_STLP_PRIV __check_range(__first, __last))
; 281  :   __first = find_if(__first, __last, __pred);

	mov	ebp, DWORD PTR ___pred$[esp]
	push	edi
	mov	edi, eax
	push	ebp
	call	??$__find_if@PAU_esound_delegate@IGame_Level@@Urem_pred@?1??SoundEvent_OnDestDestroy@2@QAEXPAVSound@Feel@@@Z@@priv@stlp_std@@YAPAU_esound_delegate@IGame_Level@@PAU23@0Urem_pred@?1??SoundEvent_OnDestDestroy@3@QAEXPAVSound@Feel@@@Z@ABUrandom_access_iterator_tag@1@@Z ; stlp_std::priv::__find_if<IGame_Level::_esound_delegate *,`IGame_Level::SoundEvent_OnDestDestroy'::`2'::rem_pred>
	add	esp, 4

; 282  :   if ( __first == __last )

	cmp	eax, edi

; 283  :     return __first;

	je	SHORT $LN1@remove_if@3
	push	ebx
	push	esi

; 284  :   else {
; 285  :     _ForwardIter __next = __first;
; 286  :     return remove_copy_if(++__next, __last, __first, __pred);

	lea	esi, DWORD PTR [eax+12]
	cmp	esi, edi
	mov	ebx, eax
	je	SHORT $LN8@remove_if@3
$LL10@remove_if@3:
	cmp	DWORD PTR [esi], ebp
	je	SHORT $LN9@remove_if@3
	push	esi
	mov	ecx, ebx
	call	??4_esound_delegate@IGame_Level@@QAEAAU01@ABU01@@Z
	add	ebx, 12					; 0000000cH
$LN9@remove_if@3:
	add	esi, 12					; 0000000cH
	cmp	esi, edi
	jne	SHORT $LL10@remove_if@3
$LN8@remove_if@3:
	pop	esi
	mov	eax, ebx
	pop	ebx
$LN1@remove_if@3:
	pop	edi
	pop	ebp

; 287  :   }
; 288  : }

	ret	0
??$remove_if@PAU_esound_delegate@IGame_Level@@Urem_pred@?1??SoundEvent_OnDestDestroy@2@QAEXPAVSound@Feel@@@Z@@stlp_std@@YAPAU_esound_delegate@IGame_Level@@PAU12@0Urem_pred@?1??SoundEvent_OnDestDestroy@2@QAEXPAVSound@Feel@@@Z@@Z ENDP ; stlp_std::remove_if<IGame_Level::_esound_delegate *,`IGame_Level::SoundEvent_OnDestDestroy'::`2'::rem_pred>
; Function compile flags: /Ogtpy
; File d:\clearsky\sources\engine\xrcore\xrmemory_subst_msvc.h
_TEXT	ENDS
;	COMDAT ??$xr_new@VCInifile@@$$BY0CAI@D@@YAPAVCInifile@@AAY0CAI@$$CBD@Z
_TEXT	SEGMENT
_p1$ = 8						; size = 4
??$xr_new@VCInifile@@$$BY0CAI@D@@YAPAVCInifile@@AAY0CAI@$$CBD@Z PROC ; xr_new<CInifile,char [520]>, COMDAT

; 74   : 	T* ptr	= (T*)Memory.mem_alloc(sizeof(T));

	mov	ecx, DWORD PTR __imp_?Memory@@3VxrMemory@@A
	push	esi
	push	540					; 0000021cH
	call	DWORD PTR __imp_?mem_alloc@xrMemory@@QAEPAXI@Z

; 75   : 	return new (ptr) T(p1);

	mov	esi, eax
	test	esi, esi
	je	SHORT $LN3@xr_new@12
	sub	esp, 8
	mov	ecx, esp
	call	??0?$FastDelegate@$$A6A_NPBD@Z@fastdelegate@@QAE@XZ ; fastdelegate::FastDelegate<bool __cdecl(char const *)>::FastDelegate<bool __cdecl(char const *)>
	mov	eax, DWORD PTR _p1$[esp+8]
	push	0
	push	1
	push	1
	push	1
	push	eax
	mov	ecx, esi
	call	DWORD PTR __imp_??0CInifile@@QAE@PBDHHHIV?$FastDelegate@$$A6A_NPBD@Z@fastdelegate@@@Z

; 76   : }

	pop	esi
	ret	0
$LN3@xr_new@12:

; 75   : 	return new (ptr) T(p1);

	xor	eax, eax

; 76   : }

	pop	esi
	ret	0
??$xr_new@VCInifile@@$$BY0CAI@D@@YAPAVCInifile@@AAY0CAI@$$CBD@Z ENDP ; xr_new<CInifile,char [520]>
; Function compile flags: /Ogtpy
; File d:\clearsky\sources\sdk\include\stlport\stl\_vector.c
_TEXT	ENDS
;	COMDAT ?_M_insert_overflow_aux@?$_Impl_vector@U_esound_delegate@IGame_Level@@V?$xalloc@U_esound_delegate@IGame_Level@@@@@priv@stlp_std@@AAEXPAU_esound_delegate@IGame_Level@@ABU45@ABU__false_type@3@I_N@Z
_TEXT	SEGMENT
___fill_len$ = -16					; size = 4
___len$ = -12						; size = 4
___new_start$ = -8					; size = 4
tv227 = -4						; size = 4
___old_size$ = 8					; size = 4
_this$ = 8						; size = 4
___x$ = 12						; size = 4
?_M_insert_overflow_aux@?$_Impl_vector@U_esound_delegate@IGame_Level@@V?$xalloc@U_esound_delegate@IGame_Level@@@@@priv@stlp_std@@AAEXPAU_esound_delegate@IGame_Level@@ABU45@ABU__false_type@3@I_N@Z PROC ; stlp_std::priv::_Impl_vector<IGame_Level::_esound_delegate,xalloc<IGame_Level::_esound_delegate> >::_M_insert_overflow_aux, COMDAT
; ___pos$ = eax

; 84   :                                                  size_type __fill_len, bool __atend ) {

	sub	esp, 16					; 00000010H
	push	ebx
	push	ebp
	mov	ebp, DWORD PTR _this$[esp+20]
	push	esi
	push	edi

; 85   :   const size_type __old_size = size();

	mov	ecx, ebp
	mov	esi, eax
	mov	DWORD PTR ___fill_len$[esp+32], 1
	call	?size@?$_Impl_vector@U_esound_delegate@IGame_Level@@V?$xalloc@U_esound_delegate@IGame_Level@@@@@priv@stlp_std@@QBEIXZ ; stlp_std::priv::_Impl_vector<IGame_Level::_esound_delegate,xalloc<IGame_Level::_esound_delegate> >::size
	mov	DWORD PTR ___old_size$[esp+28], eax

; 86   :   size_type __len = __old_size + (max)(__old_size, __fill_len);

	lea	eax, DWORD PTR ___fill_len$[esp+32]
	push	eax
	lea	ecx, DWORD PTR ___old_size$[esp+32]
	push	ecx
	call	??$max@I@stlp_std@@YAABIABI0@Z		; stlp_std::max<unsigned int>
	mov	eax, DWORD PTR [eax]
	add	eax, DWORD PTR ___old_size$[esp+36]
	add	esp, 8

; 87   : 
; 88   :   pointer __new_start = this->_M_end_of_storage.allocate(__len, __len);

	lea	edx, DWORD PTR ___len$[esp+32]
	push	edx
	lea	ecx, DWORD PTR [ebp+8]
	push	eax
	mov	DWORD PTR ___len$[esp+40], eax
	mov	DWORD PTR tv227[esp+40], ecx
	call	?allocate@?$_STLP_alloc_proxy@PAU_esound_delegate@IGame_Level@@U12@V?$xalloc@U_esound_delegate@IGame_Level@@@@@priv@stlp_std@@QAEPAU_esound_delegate@IGame_Level@@IAAI@Z ; stlp_std::priv::_STLP_alloc_proxy<IGame_Level::_esound_delegate *,IGame_Level::_esound_delegate,xalloc<IGame_Level::_esound_delegate> >::allocate

; 89   :   pointer __new_finish = __new_start;
; 90   :   _STLP_TRY {
; 91   :     __new_finish = _STLP_PRIV __uninitialized_move(this->_M_start, __pos, __new_start, _TrivialUCopy(), _Movable());

	mov	edi, DWORD PTR [ebp]
	sub	esi, edi
	mov	DWORD PTR ___new_start$[esp+32], eax
	mov	ebx, eax
	mov	eax, 715827883				; 2aaaaaabH
	imul	esi
	sar	edx, 1
	mov	esi, edx
	shr	esi, 31					; 0000001fH
	add	esi, edx
	test	esi, esi
	jle	SHORT $LN26@M_insert_o@5
	npad	3
$LL28@M_insert_o@5:
	push	edi
	push	ebx
	call	??$_Param_Construct@U_esound_delegate@IGame_Level@@U12@@stlp_std@@YAXPAU_esound_delegate@IGame_Level@@ABU12@@Z ; stlp_std::_Param_Construct<IGame_Level::_esound_delegate,IGame_Level::_esound_delegate>
	sub	esi, 1
	add	esp, 8
	add	edi, 12					; 0000000cH
	add	ebx, 12					; 0000000cH
	test	esi, esi
	jg	SHORT $LL28@M_insert_o@5
$LN26@M_insert_o@5:

; 92   :     // handle insertion
; 93   :     if (__fill_len == 1) {

	mov	eax, DWORD PTR ___fill_len$[esp+32]
	cmp	eax, 1
	jne	SHORT $LN3@M_insert_o@5

; 94   :       _Copy_Construct(__new_finish, __x);

	test	ebx, ebx
	je	SHORT $LN33@M_insert_o@5
	mov	eax, DWORD PTR ___x$[esp+28]
	push	eax
	mov	ecx, ebx
	call	??0_esound_delegate@IGame_Level@@QAE@ABU01@@Z
$LN33@M_insert_o@5:

; 95   :       ++__new_finish;

	lea	esi, DWORD PTR [ebx+12]

; 96   :     } else

	jmp	SHORT $LN1@M_insert_o@5
$LN3@M_insert_o@5:

; 97   :       __new_finish = _STLP_PRIV __uninitialized_fill_n(__new_finish, __fill_len, __x);

	mov	ecx, DWORD PTR ___x$[esp+28]
	push	ecx
	mov	ecx, ebx
	call	??$__uninitialized_fill_n@PAU_esound_delegate@IGame_Level@@IU12@@priv@stlp_std@@YAPAU_esound_delegate@IGame_Level@@PAU23@IABU23@@Z ; stlp_std::priv::__uninitialized_fill_n<IGame_Level::_esound_delegate *,unsigned int,IGame_Level::_esound_delegate>
	add	esp, 4
	mov	esi, eax
$LN1@M_insert_o@5:

; 98   :     if (!__atend)
; 99   :       __new_finish = _STLP_PRIV __uninitialized_move(__pos, this->_M_finish, __new_finish, _TrivialUCopy(), _Movable()); // copy remainder
; 100  :   }
; 101  :   _STLP_UNWIND((_STLP_STD::_Destroy_Range(__new_start,__new_finish),
; 102  :                this->_M_end_of_storage.deallocate(__new_start,__len)))
; 103  :   _M_clear_after_move();

	mov	eax, ebp
	call	?_M_clear_after_move@?$_Impl_vector@U_esound_delegate@IGame_Level@@V?$xalloc@U_esound_delegate@IGame_Level@@@@@priv@stlp_std@@AAEXXZ ; stlp_std::priv::_Impl_vector<IGame_Level::_esound_delegate,xalloc<IGame_Level::_esound_delegate> >::_M_clear_after_move

; 104  :   _M_set(__new_start, __new_finish, __new_start + __len);

	mov	eax, DWORD PTR ___len$[esp+32]
	mov	ecx, DWORD PTR ___new_start$[esp+32]
	pop	edi
	mov	DWORD PTR [ebp+4], esi
	lea	edx, DWORD PTR [eax+eax*2]
	pop	esi
	mov	DWORD PTR [ebp], ecx
	lea	eax, DWORD PTR [ecx+edx*4]
	mov	ecx, DWORD PTR tv227[esp+24]
	pop	ebp
	mov	DWORD PTR [ecx], eax
	pop	ebx

; 105  : }

	add	esp, 16					; 00000010H
	ret	8
?_M_insert_overflow_aux@?$_Impl_vector@U_esound_delegate@IGame_Level@@V?$xalloc@U_esound_delegate@IGame_Level@@@@@priv@stlp_std@@AAEXPAU_esound_delegate@IGame_Level@@ABU45@ABU__false_type@3@I_N@Z ENDP ; stlp_std::priv::_Impl_vector<IGame_Level::_esound_delegate,xalloc<IGame_Level::_esound_delegate> >::_M_insert_overflow_aux
; Function compile flags: /Ogtpy
; File d:\clearsky\sources\sdk\include\stlport\stl\_vector.h
_TEXT	ENDS
;	COMDAT ?_M_erase@?$_Impl_vector@PAXV?$xalloc@PAX@@@priv@stlp_std@@AAEPAPAXPAPAX0ABU__false_type@3@@Z
_TEXT	SEGMENT
?_M_erase@?$_Impl_vector@PAXV?$xalloc@PAX@@@priv@stlp_std@@AAEPAPAXPAPAX0ABU__false_type@3@@Z PROC ; stlp_std::priv::_Impl_vector<void *,xalloc<void *> >::_M_erase, COMDAT
; _this$ = ebx
; ___first$ = edi
; ___last$ = eax

; 578  :   iterator _M_erase(iterator __first, iterator __last, const __false_type& /*_Movable*/) {

	push	esi

; 579  :     pointer __i = _STLP_PRIV __copy_ptrs(__last, this->_M_finish, __first, _TrivialCopy());

	mov	esi, DWORD PTR [ebx+4]
	sub	esi, eax
	je	SHORT $LN7@M_erase@27
	push	esi
	push	eax
	push	edi
	call	DWORD PTR __imp__memmove
	add	esp, 12					; 0000000cH
	add	eax, esi

; 580  :     _STLP_STD::_Destroy_Range(__i, this->_M_finish);
; 581  :     this->_M_finish = __i;

	mov	DWORD PTR [ebx+4], eax

; 582  :     return __first;

	mov	eax, edi
	pop	esi

; 583  :   }

	ret	0

; 579  :     pointer __i = _STLP_PRIV __copy_ptrs(__last, this->_M_finish, __first, _TrivialCopy());

$LN7@M_erase@27:

; 580  :     _STLP_STD::_Destroy_Range(__i, this->_M_finish);
; 581  :     this->_M_finish = __i;

	mov	DWORD PTR [ebx+4], edi

; 582  :     return __first;

	mov	eax, edi
	pop	esi

; 583  :   }

	ret	0
?_M_erase@?$_Impl_vector@PAXV?$xalloc@PAX@@@priv@stlp_std@@AAEPAPAXPAPAX0ABU__false_type@3@@Z ENDP ; stlp_std::priv::_Impl_vector<void *,xalloc<void *> >::_M_erase
; Function compile flags: /Ogtpy
_TEXT	ENDS
;	COMDAT ?_M_erase@?$_Impl_vector@U_esound_delegate@IGame_Level@@V?$xalloc@U_esound_delegate@IGame_Level@@@@@priv@stlp_std@@AAEPAU_esound_delegate@IGame_Level@@PAU45@0ABU__false_type@3@@Z
_TEXT	SEGMENT
_this$ = 8						; size = 4
___first$ = 12						; size = 4
?_M_erase@?$_Impl_vector@U_esound_delegate@IGame_Level@@V?$xalloc@U_esound_delegate@IGame_Level@@@@@priv@stlp_std@@AAEPAU_esound_delegate@IGame_Level@@PAU45@0ABU__false_type@3@@Z PROC ; stlp_std::priv::_Impl_vector<IGame_Level::_esound_delegate,xalloc<IGame_Level::_esound_delegate> >::_M_erase, COMDAT
; ___last$ = eax

; 578  :   iterator _M_erase(iterator __first, iterator __last, const __false_type& /*_Movable*/) {

	push	ebx
	mov	ebx, eax

; 579  :     pointer __i = _STLP_PRIV __copy_ptrs(__last, this->_M_finish, __first, _TrivialCopy());

	mov	eax, DWORD PTR _this$[esp]
	mov	ecx, DWORD PTR [eax+4]
	sub	ecx, ebx
	mov	eax, 715827883				; 2aaaaaabH
	imul	ecx
	push	ebp
	mov	ebp, DWORD PTR ___first$[esp+4]
	push	esi
	sar	edx, 1
	mov	esi, edx
	shr	esi, 31					; 0000001fH
	add	esi, edx
	test	esi, esi
	push	edi
	mov	edi, ebp
	jle	SHORT $LN5@M_erase@28
	sub	ebx, ebp
	npad	5
$LL7@M_erase@28:
	lea	ecx, DWORD PTR [ebx+edi]
	push	ecx
	mov	ecx, edi
	call	??4_esound_delegate@IGame_Level@@QAEAAU01@ABU01@@Z
	sub	esi, 1
	add	edi, 12					; 0000000cH
	test	esi, esi
	jg	SHORT $LL7@M_erase@28
$LN5@M_erase@28:

; 580  :     _STLP_STD::_Destroy_Range(__i, this->_M_finish);

	mov	esi, DWORD PTR _this$[esp+12]
	mov	edx, DWORD PTR [esi+4]
	push	edx
	push	edi
	call	??$_Destroy_Range@PAU_esound_delegate@IGame_Level@@@stlp_std@@YAXPAU_esound_delegate@IGame_Level@@0@Z ; stlp_std::_Destroy_Range<IGame_Level::_esound_delegate *>
	add	esp, 8

; 581  :     this->_M_finish = __i;

	mov	DWORD PTR [esi+4], edi
	pop	edi
	pop	esi

; 582  :     return __first;

	mov	eax, ebp
	pop	ebp
	pop	ebx

; 583  :   }

	ret	8
?_M_erase@?$_Impl_vector@U_esound_delegate@IGame_Level@@V?$xalloc@U_esound_delegate@IGame_Level@@@@@priv@stlp_std@@AAEPAU_esound_delegate@IGame_Level@@PAU45@0ABU__false_type@3@@Z ENDP ; stlp_std::priv::_Impl_vector<IGame_Level::_esound_delegate,xalloc<IGame_Level::_esound_delegate> >::_M_erase
; Function compile flags: /Ogtpy
_TEXT	ENDS
;	COMDAT ??0?$_Impl_vector@U_esound_delegate@IGame_Level@@V?$xalloc@U_esound_delegate@IGame_Level@@@@@priv@stlp_std@@QAE@ABV?$xalloc@U_esound_delegate@IGame_Level@@@@@Z
_TEXT	SEGMENT
??0?$_Impl_vector@U_esound_delegate@IGame_Level@@V?$xalloc@U_esound_delegate@IGame_Level@@@@@priv@stlp_std@@QAE@ABV?$xalloc@U_esound_delegate@IGame_Level@@@@@Z PROC ; stlp_std::priv::_Impl_vector<IGame_Level::_esound_delegate,xalloc<IGame_Level::_esound_delegate> >::_Impl_vector<IGame_Level::_esound_delegate,xalloc<IGame_Level::_esound_delegate> >, COMDAT
; _this$ = eax

; 208  :     : _STLP_PRIV _Vector_base<_Tp, _Alloc>(__a) {}

	xor	ecx, ecx
	mov	DWORD PTR [eax], ecx
	mov	DWORD PTR [eax+4], ecx
	mov	DWORD PTR [eax+8], ecx
	ret	0
??0?$_Impl_vector@U_esound_delegate@IGame_Level@@V?$xalloc@U_esound_delegate@IGame_Level@@@@@priv@stlp_std@@QAE@ABV?$xalloc@U_esound_delegate@IGame_Level@@@@@Z ENDP ; stlp_std::priv::_Impl_vector<IGame_Level::_esound_delegate,xalloc<IGame_Level::_esound_delegate> >::_Impl_vector<IGame_Level::_esound_delegate,xalloc<IGame_Level::_esound_delegate> >
; Function compile flags: /Ogtpy
_TEXT	ENDS
;	COMDAT ?_M_insert_overflow@?$_Impl_vector@U_esound_delegate@IGame_Level@@V?$xalloc@U_esound_delegate@IGame_Level@@@@@priv@stlp_std@@AAEXPAU_esound_delegate@IGame_Level@@ABU45@ABU__false_type@3@I_N@Z
_TEXT	SEGMENT
___pos$ = 8						; size = 4
?_M_insert_overflow@?$_Impl_vector@U_esound_delegate@IGame_Level@@V?$xalloc@U_esound_delegate@IGame_Level@@@@@priv@stlp_std@@AAEXPAU_esound_delegate@IGame_Level@@ABU45@ABU__false_type@3@I_N@Z PROC ; stlp_std::priv::_Impl_vector<IGame_Level::_esound_delegate,xalloc<IGame_Level::_esound_delegate> >::_M_insert_overflow, COMDAT
; _this$ = ecx
; ___x$ = eax

; 161  :   { _M_insert_overflow_aux(__pos, __x, _Movable(), __fill_len, __atend); }

	push	eax
	mov	eax, DWORD PTR ___pos$[esp]
	push	ecx
	call	?_M_insert_overflow_aux@?$_Impl_vector@U_esound_delegate@IGame_Level@@V?$xalloc@U_esound_delegate@IGame_Level@@@@@priv@stlp_std@@AAEXPAU_esound_delegate@IGame_Level@@ABU45@ABU__false_type@3@I_N@Z ; stlp_std::priv::_Impl_vector<IGame_Level::_esound_delegate,xalloc<IGame_Level::_esound_delegate> >::_M_insert_overflow_aux
	ret	4
?_M_insert_overflow@?$_Impl_vector@U_esound_delegate@IGame_Level@@V?$xalloc@U_esound_delegate@IGame_Level@@@@@priv@stlp_std@@AAEXPAU_esound_delegate@IGame_Level@@ABU45@ABU__false_type@3@I_N@Z ENDP ; stlp_std::priv::_Impl_vector<IGame_Level::_esound_delegate,xalloc<IGame_Level::_esound_delegate> >::_M_insert_overflow
; Function compile flags: /Ogtpy
_TEXT	ENDS
;	COMDAT ??0?$_Impl_vector@Uref_sound@@V?$xalloc@Uref_sound@@@@@priv@stlp_std@@QAE@ABV?$xalloc@Uref_sound@@@@@Z
_TEXT	SEGMENT
??0?$_Impl_vector@Uref_sound@@V?$xalloc@Uref_sound@@@@@priv@stlp_std@@QAE@ABV?$xalloc@Uref_sound@@@@@Z PROC ; stlp_std::priv::_Impl_vector<ref_sound,xalloc<ref_sound> >::_Impl_vector<ref_sound,xalloc<ref_sound> >, COMDAT
; _this$ = eax

; 208  :     : _STLP_PRIV _Vector_base<_Tp, _Alloc>(__a) {}

	xor	ecx, ecx
	mov	DWORD PTR [eax], ecx
	mov	DWORD PTR [eax+4], ecx
	mov	DWORD PTR [eax+8], ecx
	ret	0
??0?$_Impl_vector@Uref_sound@@V?$xalloc@Uref_sound@@@@@priv@stlp_std@@QAE@ABV?$xalloc@Uref_sound@@@@@Z ENDP ; stlp_std::priv::_Impl_vector<ref_sound,xalloc<ref_sound> >::_Impl_vector<ref_sound,xalloc<ref_sound> >
; Function compile flags: /Ogtpy
_TEXT	ENDS
;	COMDAT ?erase@?$_Impl_vector@PAXV?$xalloc@PAX@@@priv@stlp_std@@QAEPAPAXPAPAX0@Z
_TEXT	SEGMENT
?erase@?$_Impl_vector@PAXV?$xalloc@PAX@@@priv@stlp_std@@QAEPAPAXPAPAX0@Z PROC ; stlp_std::priv::_Impl_vector<void *,xalloc<void *> >::erase, COMDAT
; _this$ = ebx
; ___first$ = edi
; ___last$ = eax

; 590  :     if (__first == __last)

	cmp	edi, eax

; 591  :       return __first;

	je	SHORT $LN12@erase@42
	push	esi

; 592  :     return _M_erase(__first, __last, _Movable());

	mov	esi, DWORD PTR [ebx+4]
	sub	esi, eax
	je	SHORT $LN10@erase@42
	push	esi
	push	eax
	push	edi
	call	DWORD PTR __imp__memmove
	add	esp, 12					; 0000000cH
	add	eax, esi
	mov	DWORD PTR [ebx+4], eax
	pop	esi
	mov	eax, edi

; 593  :   }

	ret	0

; 592  :     return _M_erase(__first, __last, _Movable());

$LN10@erase@42:
	mov	eax, edi
	mov	DWORD PTR [ebx+4], eax
	pop	esi
$LN12@erase@42:
	mov	eax, edi

; 593  :   }

	ret	0
?erase@?$_Impl_vector@PAXV?$xalloc@PAX@@@priv@stlp_std@@QAEPAPAXPAPAX0@Z ENDP ; stlp_std::priv::_Impl_vector<void *,xalloc<void *> >::erase
; Function compile flags: /Ogtpy
; File d:\clearsky\sources\sdk\include\stlport\stl\_list.h
_TEXT	ENDS
;	COMDAT ??0?$_Impl_list@PAXV?$xalloc@PAX@@@priv@stlp_std@@QAE@ABV012@@Z
_TEXT	SEGMENT
??0?$_Impl_list@PAXV?$xalloc@PAX@@@priv@stlp_std@@QAE@ABV012@@Z PROC ; stlp_std::priv::_Impl_list<void *,xalloc<void *> >::_Impl_list<void *,xalloc<void *> >, COMDAT
; _this$ = esi
; ___x$ = ecx

; 353  :   { _M_insert(begin(), __x.begin(), __x.end()); }

	push	ebp
	mov	ebp, esp
	and	esp, -8					; fffffff8H
	mov	DWORD PTR [esi], esi
	mov	DWORD PTR [esi+4], esi
	mov	eax, DWORD PTR [ecx]
	push	ecx
	push	eax
	push	ecx
	mov	eax, esp
	mov	DWORD PTR [eax], esi
	call	??$_M_insert_dispatch@U?$_List_iterator@PAXU?$_Const_traits@PAX@stlp_std@@@priv@stlp_std@@@?$_Impl_list@PAXV?$xalloc@PAX@@@priv@stlp_std@@AAEXU?$_List_iterator@PAXU?$_Nonconst_traits@PAX@stlp_std@@@12@U?$_List_iterator@PAXU?$_Const_traits@PAX@stlp_std@@@12@1ABU__false_type@2@@Z ; stlp_std::priv::_Impl_list<void *,xalloc<void *> >::_M_insert_dispatch<stlp_std::priv::_List_iterator<void *,stlp_std::_Const_traits<void *> > >
	mov	eax, esi
	mov	esp, ebp
	pop	ebp
	ret	0
??0?$_Impl_list@PAXV?$xalloc@PAX@@@priv@stlp_std@@QAE@ABV012@@Z ENDP ; stlp_std::priv::_Impl_list<void *,xalloc<void *> >::_Impl_list<void *,xalloc<void *> >
; Function compile flags: /Ogtpy
; File d:\clearsky\sources\sdk\include\stlport\stl\_vector.h
_TEXT	ENDS
;	COMDAT ?erase@?$_Impl_vector@U_esound_delegate@IGame_Level@@V?$xalloc@U_esound_delegate@IGame_Level@@@@@priv@stlp_std@@QAEPAU_esound_delegate@IGame_Level@@PAU45@0@Z
_TEXT	SEGMENT
_this$ = 8						; size = 4
?erase@?$_Impl_vector@U_esound_delegate@IGame_Level@@V?$xalloc@U_esound_delegate@IGame_Level@@@@@priv@stlp_std@@QAEPAU_esound_delegate@IGame_Level@@PAU45@0@Z PROC ; stlp_std::priv::_Impl_vector<IGame_Level::_esound_delegate,xalloc<IGame_Level::_esound_delegate> >::erase, COMDAT
; ___first$ = eax
; ___last$ = ecx

; 590  :     if (__first == __last)

	cmp	eax, ecx

; 591  :       return __first;

	je	SHORT $LN2@erase@43

; 592  :     return _M_erase(__first, __last, _Movable());

	push	eax
	mov	eax, DWORD PTR _this$[esp]
	push	eax
	mov	eax, ecx
	call	?_M_erase@?$_Impl_vector@U_esound_delegate@IGame_Level@@V?$xalloc@U_esound_delegate@IGame_Level@@@@@priv@stlp_std@@AAEPAU_esound_delegate@IGame_Level@@PAU45@0ABU__false_type@3@@Z ; stlp_std::priv::_Impl_vector<IGame_Level::_esound_delegate,xalloc<IGame_Level::_esound_delegate> >::_M_erase
$LN2@erase@43:

; 593  :   }

	ret	4
?erase@?$_Impl_vector@U_esound_delegate@IGame_Level@@V?$xalloc@U_esound_delegate@IGame_Level@@@@@priv@stlp_std@@QAEPAU_esound_delegate@IGame_Level@@PAU45@0@Z ENDP ; stlp_std::priv::_Impl_vector<IGame_Level::_esound_delegate,xalloc<IGame_Level::_esound_delegate> >::erase
; Function compile flags: /Ogtpy
_TEXT	ENDS
;	COMDAT ?pop_back@?$_Impl_vector@U_esound_delegate@IGame_Level@@V?$xalloc@U_esound_delegate@IGame_Level@@@@@priv@stlp_std@@QAEXXZ
_TEXT	SEGMENT
$T320096 = -1						; size = 1
?pop_back@?$_Impl_vector@U_esound_delegate@IGame_Level@@V?$xalloc@U_esound_delegate@IGame_Level@@@@@priv@stlp_std@@QAEXXZ PROC ; stlp_std::priv::_Impl_vector<IGame_Level::_esound_delegate,xalloc<IGame_Level::_esound_delegate> >::pop_back, COMDAT
; _this$ = eax

; 531  :   void pop_back() {

	push	ecx

; 532  :     --this->_M_finish;

	add	DWORD PTR [eax+4], -12			; fffffff4H
	mov	eax, DWORD PTR [eax+4]

; 533  :     _STLP_STD::_Destroy(this->_M_finish);

	lea	ecx, DWORD PTR $T320096[esp+4]
	push	ecx
	push	eax
	mov	BYTE PTR $T320096[esp+12], 0
	call	??$__destroy_aux@U_esound_delegate@IGame_Level@@@stlp_std@@YAXPAU_esound_delegate@IGame_Level@@ABU__false_type@0@@Z ; stlp_std::__destroy_aux<IGame_Level::_esound_delegate>

; 534  :   }

	add	esp, 12					; 0000000cH
	ret	0
?pop_back@?$_Impl_vector@U_esound_delegate@IGame_Level@@V?$xalloc@U_esound_delegate@IGame_Level@@@@@priv@stlp_std@@QAEXXZ ENDP ; stlp_std::priv::_Impl_vector<IGame_Level::_esound_delegate,xalloc<IGame_Level::_esound_delegate> >::pop_back
; Function compile flags: /Ogtpy
_TEXT	ENDS
;	COMDAT ?push_back@?$_Impl_vector@U_esound_delegate@IGame_Level@@V?$xalloc@U_esound_delegate@IGame_Level@@@@@priv@stlp_std@@QAEXABU_esound_delegate@IGame_Level@@@Z
_TEXT	SEGMENT
?push_back@?$_Impl_vector@U_esound_delegate@IGame_Level@@V?$xalloc@U_esound_delegate@IGame_Level@@@@@priv@stlp_std@@QAEXABU_esound_delegate@IGame_Level@@@Z PROC ; stlp_std::priv::_Impl_vector<IGame_Level::_esound_delegate,xalloc<IGame_Level::_esound_delegate> >::push_back, COMDAT
; _this$ = esi
; ___x$ = ecx

; 361  : #endif /*!_STLP_DONT_SUP_DFLT_PARAM && !_STLP_NO_ANACHRONISMS*/
; 362  :     if (this->_M_finish != this->_M_end_of_storage._M_data) {

	mov	eax, DWORD PTR [esi+4]
	cmp	eax, DWORD PTR [esi+8]
	je	SHORT $LN2@push_back@13

; 363  :       _Copy_Construct(this->_M_finish, __x);

	test	eax, eax
	je	SHORT $LN7@push_back@13
	push	ecx
	mov	ecx, eax
	call	??0_esound_delegate@IGame_Level@@QAE@ABU01@@Z
$LN7@push_back@13:

; 364  :       ++this->_M_finish;

	add	DWORD PTR [esi+4], 12			; 0000000cH

; 368  :   }

	ret	0
$LN2@push_back@13:

; 365  :     }
; 366  :     else
; 367  :       _M_insert_overflow(this->_M_finish, __x, _TrivialCopy(), 1UL, true);

	push	ecx
	push	esi
	call	?_M_insert_overflow_aux@?$_Impl_vector@U_esound_delegate@IGame_Level@@V?$xalloc@U_esound_delegate@IGame_Level@@@@@priv@stlp_std@@AAEXPAU_esound_delegate@IGame_Level@@ABU45@ABU__false_type@3@I_N@Z ; stlp_std::priv::_Impl_vector<IGame_Level::_esound_delegate,xalloc<IGame_Level::_esound_delegate> >::_M_insert_overflow_aux

; 368  :   }

	ret	0
?push_back@?$_Impl_vector@U_esound_delegate@IGame_Level@@V?$xalloc@U_esound_delegate@IGame_Level@@@@@priv@stlp_std@@QAEXABU_esound_delegate@IGame_Level@@@Z ENDP ; stlp_std::priv::_Impl_vector<IGame_Level::_esound_delegate,xalloc<IGame_Level::_esound_delegate> >::push_back
; Function compile flags: /Ogtpy
; File d:\clearsky\sources\sdk\include\stlport\stl\pointers\_vector.h
_TEXT	ENDS
;	COMDAT ?erase@?$vector@PAVISpatial@@V?$xalloc@PAVISpatial@@@@@stlp_std@@QAEPAPAVISpatial@@PAPAV3@0@Z
_TEXT	SEGMENT
?erase@?$vector@PAVISpatial@@V?$xalloc@PAVISpatial@@@@@stlp_std@@QAEPAPAVISpatial@@PAPAV3@0@Z PROC ; stlp_std::vector<ISpatial *,xalloc<ISpatial *> >::erase, COMDAT
; _this$ = ebx
; ___first$ = edi
; ___last$ = eax

; 208  :     return cast_traits::to_value_type_ptr(_M_impl.erase(cast_traits::to_storage_type_ptr(__first),
; 209  :                                                         cast_traits::to_storage_type_ptr(__last)));

	cmp	edi, eax
	je	SHORT $LN12@erase@44
	push	esi
	mov	esi, DWORD PTR [ebx+4]
	sub	esi, eax
	je	SHORT $LN20@erase@44
	push	esi
	push	eax
	push	edi
	call	DWORD PTR __imp__memmove
	add	esp, 12					; 0000000cH
	add	eax, esi
	pop	esi
	push	edi
	mov	DWORD PTR [ebx+4], eax
	call	?cv_ptr@?$_VoidCastTraitsAux@PAXPAX@priv@stlp_std@@SAPAPAXPAPAX@Z ; stlp_std::priv::_VoidCastTraitsAux<void *,void *>::cv_ptr
	add	esp, 4

; 210  :   }

	ret	0

; 208  :     return cast_traits::to_value_type_ptr(_M_impl.erase(cast_traits::to_storage_type_ptr(__first),
; 209  :                                                         cast_traits::to_storage_type_ptr(__last)));

$LN20@erase@44:
	mov	eax, edi
	mov	DWORD PTR [ebx+4], eax
	pop	esi
$LN12@erase@44:
	push	edi
	call	?cv_ptr@?$_VoidCastTraitsAux@PAXPAX@priv@stlp_std@@SAPAPAXPAPAX@Z ; stlp_std::priv::_VoidCastTraitsAux<void *,void *>::cv_ptr
	add	esp, 4

; 210  :   }

	ret	0
?erase@?$vector@PAVISpatial@@V?$xalloc@PAVISpatial@@@@@stlp_std@@QAEPAPAVISpatial@@PAPAV3@0@Z ENDP ; stlp_std::vector<ISpatial *,xalloc<ISpatial *> >::erase
; Function compile flags: /Ogtpy
_TEXT	ENDS
;	COMDAT ??0?$vector@PAVISpatial@@V?$xalloc@PAVISpatial@@@@@stlp_std@@QAE@ABV?$xalloc@PAVISpatial@@@@@Z
_TEXT	SEGMENT
??0?$vector@PAVISpatial@@V?$xalloc@PAVISpatial@@@@@stlp_std@@QAE@ABV?$xalloc@PAVISpatial@@@@@Z PROC ; stlp_std::vector<ISpatial *,xalloc<ISpatial *> >::vector<ISpatial *,xalloc<ISpatial *> >, COMDAT
; _this$ = eax

; 106  :   explicit vector(const allocator_type& __a = allocator_type())

	xor	ecx, ecx
	mov	DWORD PTR [eax], ecx
	mov	DWORD PTR [eax+4], ecx
	mov	DWORD PTR [eax+8], ecx
	ret	0
??0?$vector@PAVISpatial@@V?$xalloc@PAVISpatial@@@@@stlp_std@@QAE@ABV?$xalloc@PAVISpatial@@@@@Z ENDP ; stlp_std::vector<ISpatial *,xalloc<ISpatial *> >::vector<ISpatial *,xalloc<ISpatial *> >
; Function compile flags: /Ogtpy
; File d:\clearsky\sources\engine\xrengine\pure.h
_TEXT	ENDS
;	COMDAT ?Resort@?$CRegistrator@VpureRender@@@@QAEXXZ
_TEXT	SEGMENT
?Resort@?$CRegistrator@VpureRender@@@@QAEXXZ PROC	; CRegistrator<pureRender>::Resort, COMDAT
; _this$ = esi

; 96   : 		qsort	(&*R.begin(),R.size(),sizeof(_REG_INFO),_REG_Compare);

	push	OFFSET ?_REG_Compare@?$CRegistrator@VpureRender@@@@CAHPBX0@Z ; CRegistrator<pureRender>::_REG_Compare
	push	12					; 0000000cH
	mov	ecx, esi
	call	?size@?$xr_vector@U_REG_INFO@@V?$xalloc@U_REG_INFO@@@@@@QBEIXZ ; xr_vector<_REG_INFO,xalloc<_REG_INFO> >::size
	push	eax
	mov	ecx, esi
	call	?begin@?$vector@U_REG_INFO@@V?$xalloc@U_REG_INFO@@@@@stlp_std@@QAEPAU_REG_INFO@@XZ ; stlp_std::vector<_REG_INFO,xalloc<_REG_INFO> >::begin
	push	eax
	call	DWORD PTR __imp__qsort
	add	esp, 16					; 00000010H

; 97   : 		while	((R.size()) && (R[R.size()-1].Prio==REG_PRIORITY_INVALID)) R.pop_back();

	mov	ecx, esi
	call	?size@?$xr_vector@U_REG_INFO@@V?$xalloc@U_REG_INFO@@@@@@QBEIXZ ; xr_vector<_REG_INFO,xalloc<_REG_INFO> >::size
	test	eax, eax
	je	SHORT $LN2@Resort@6
	npad	5
$LL3@Resort@6:
	mov	ecx, esi
	call	?size@?$xr_vector@U_REG_INFO@@V?$xalloc@U_REG_INFO@@@@@@QBEIXZ ; xr_vector<_REG_INFO,xalloc<_REG_INFO> >::size
	sub	eax, 1
	push	eax
	mov	ecx, esi
	call	??A?$xr_vector@U_REG_INFO@@V?$xalloc@U_REG_INFO@@@@@@QAEAAU_REG_INFO@@I@Z ; xr_vector<_REG_INFO,xalloc<_REG_INFO> >::operator[]
	cmp	DWORD PTR [eax+4], -1
	jne	SHORT $LN2@Resort@6
	mov	ecx, esi
