; Listing generated by Microsoft (R) Optimizing Compiler Version 14.00.50727.762 

	TITLE	D:\CLEARSKY\sources\engine\xrEngine\LightAnimLibrary.cpp
	.686P
	.XMM
	include listing.inc
	.model	flat

INCLUDELIB OLDNAMES

PUBLIC	??0?$_Rb_tree@HU?$less@H@stlp_std@@U?$pair@$$CBHI@2@U?$_Select1st@U?$pair@$$CBHI@stlp_std@@@priv@2@U?$_MapTraitsT@U?$pair@$$CBHI@stlp_std@@@52@V?$xalloc@U?$pair@HI@stlp_std@@@@@priv@stlp_std@@QAE@ABU?$less@H@2@ABV?$xalloc@U?$pair@$$CBHI@stlp_std@@@@@Z ; stlp_std::priv::_Rb_tree<int,stlp_std::less<int>,stlp_std::pair<int const ,unsigned int>,stlp_std::priv::_Select1st<stlp_std::pair<int const ,unsigned int> >,stlp_std::priv::_MapTraitsT<stlp_std::pair<int const ,unsigned int> >,xalloc<stlp_std::pair<int,unsigned int> > >::_Rb_tree<int,stlp_std::less<int>,stlp_std::pair<int const ,unsigned int>,stlp_std::priv::_Select1st<stlp_std::pair<int const ,unsigned int> >,stlp_std::priv::_MapTraitsT<stlp_std::pair<int const ,unsigned int> >,xalloc<stlp_std::pair<int,unsigned int> > >
PUBLIC	??0?$xalloc@U?$pair@$$CBHI@stlp_std@@@@QAE@XZ	; xalloc<stlp_std::pair<int const ,unsigned int> >::xalloc<stlp_std::pair<int const ,unsigned int> >
PUBLIC	??0?$map@HIU?$less@H@stlp_std@@V?$xalloc@U?$pair@HI@stlp_std@@@@@stlp_std@@QAE@XZ ; stlp_std::map<int,unsigned int,stlp_std::less<int>,xalloc<stlp_std::pair<int,unsigned int> > >::map<int,unsigned int,stlp_std::less<int>,xalloc<stlp_std::pair<int,unsigned int> > >
PUBLIC	??0?$xr_map@HIU?$less@H@stlp_std@@V?$xalloc@U?$pair@HI@stlp_std@@@@@@QAE@XZ ; xr_map<int,unsigned int,stlp_std::less<int>,xalloc<stlp_std::pair<int,unsigned int> > >::xr_map<int,unsigned int,stlp_std::less<int>,xalloc<stlp_std::pair<int,unsigned int> > >
PUBLIC	?erase@?$map@HIU?$less@H@stlp_std@@V?$xalloc@U?$pair@HI@stlp_std@@@@@stlp_std@@QAEXU?$_Rb_tree_iterator@U?$pair@$$CBHI@stlp_std@@U?$_MapTraitsT@U?$pair@$$CBHI@stlp_std@@@priv@2@@priv@2@@Z ; stlp_std::map<int,unsigned int,stlp_std::less<int>,xalloc<stlp_std::pair<int,unsigned int> > >::erase
PUBLIC	?key_comp@?$_Rb_tree@HU?$less@H@stlp_std@@U?$pair@$$CBHI@2@U?$_Select1st@U?$pair@$$CBHI@stlp_std@@@priv@2@U?$_MapTraitsT@U?$pair@$$CBHI@stlp_std@@@52@V?$xalloc@U?$pair@HI@stlp_std@@@@@priv@stlp_std@@QBE?AU?$less@H@3@XZ ; stlp_std::priv::_Rb_tree<int,stlp_std::less<int>,stlp_std::pair<int const ,unsigned int>,stlp_std::priv::_Select1st<stlp_std::pair<int const ,unsigned int> >,stlp_std::priv::_MapTraitsT<stlp_std::pair<int const ,unsigned int> >,xalloc<stlp_std::pair<int,unsigned int> > >::key_comp
PUBLIC	?key_comp@?$map@HIU?$less@H@stlp_std@@V?$xalloc@U?$pair@HI@stlp_std@@@@@stlp_std@@QBE?AU?$less@H@2@XZ ; stlp_std::map<int,unsigned int,stlp_std::less<int>,xalloc<stlp_std::pair<int,unsigned int> > >::key_comp
PUBLIC	?empty@?$_Rb_tree@HU?$less@H@stlp_std@@U?$pair@$$CBHI@2@U?$_Select1st@U?$pair@$$CBHI@stlp_std@@@priv@2@U?$_MapTraitsT@U?$pair@$$CBHI@stlp_std@@@52@V?$xalloc@U?$pair@HI@stlp_std@@@@@priv@stlp_std@@QBE_NXZ ; stlp_std::priv::_Rb_tree<int,stlp_std::less<int>,stlp_std::pair<int const ,unsigned int>,stlp_std::priv::_Select1st<stlp_std::pair<int const ,unsigned int> >,stlp_std::priv::_MapTraitsT<stlp_std::pair<int const ,unsigned int> >,xalloc<stlp_std::pair<int,unsigned int> > >::empty
PUBLIC	?_M_insert@?$_Rb_tree@HU?$less@H@stlp_std@@U?$pair@$$CBHI@2@U?$_Select1st@U?$pair@$$CBHI@stlp_std@@@priv@2@U?$_MapTraitsT@U?$pair@$$CBHI@stlp_std@@@52@V?$xalloc@U?$pair@HI@stlp_std@@@@@priv@stlp_std@@AAE?AU?$_Rb_tree_iterator@U?$pair@$$CBHI@stlp_std@@U?$_MapTraitsT@U?$pair@$$CBHI@stlp_std@@@priv@2@@23@PAU_Rb_tree_node_base@23@ABU?$pair@$$CBHI@3@00@Z ; stlp_std::priv::_Rb_tree<int,stlp_std::less<int>,stlp_std::pair<int const ,unsigned int>,stlp_std::priv::_Select1st<stlp_std::pair<int const ,unsigned int> >,stlp_std::priv::_MapTraitsT<stlp_std::pair<int const ,unsigned int> >,xalloc<stlp_std::pair<int,unsigned int> > >::_M_insert
PUBLIC	??0?$pair@U?$_Rb_tree_iterator@U?$pair@$$CBHI@stlp_std@@U?$_MapTraitsT@U?$pair@$$CBHI@stlp_std@@@priv@2@@priv@stlp_std@@_N@stlp_std@@QAE@ABU?$_Rb_tree_iterator@U?$pair@$$CBHI@stlp_std@@U?$_MapTraitsT@U?$pair@$$CBHI@stlp_std@@@priv@2@@priv@1@AB_N@Z ; stlp_std::pair<stlp_std::priv::_Rb_tree_iterator<stlp_std::pair<int const ,unsigned int>,stlp_std::priv::_MapTraitsT<stlp_std::pair<int const ,unsigned int> > >,bool>::pair<stlp_std::priv::_Rb_tree_iterator<stlp_std::pair<int const ,unsigned int>,stlp_std::priv::_MapTraitsT<stlp_std::pair<int const ,unsigned int> > >,bool>
PUBLIC	?insert_unique@?$_Rb_tree@HU?$less@H@stlp_std@@U?$pair@$$CBHI@2@U?$_Select1st@U?$pair@$$CBHI@stlp_std@@@priv@2@U?$_MapTraitsT@U?$pair@$$CBHI@stlp_std@@@52@V?$xalloc@U?$pair@HI@stlp_std@@@@@priv@stlp_std@@QAE?AU?$pair@U?$_Rb_tree_iterator@U?$pair@$$CBHI@stlp_std@@U?$_MapTraitsT@U?$pair@$$CBHI@stlp_std@@@priv@2@@priv@stlp_std@@_N@3@ABU?$pair@$$CBHI@3@@Z ; stlp_std::priv::_Rb_tree<int,stlp_std::less<int>,stlp_std::pair<int const ,unsigned int>,stlp_std::priv::_Select1st<stlp_std::pair<int const ,unsigned int> >,stlp_std::priv::_MapTraitsT<stlp_std::pair<int const ,unsigned int> >,xalloc<stlp_std::pair<int,unsigned int> > >::insert_unique
PUBLIC	?insert_unique@?$_Rb_tree@HU?$less@H@stlp_std@@U?$pair@$$CBHI@2@U?$_Select1st@U?$pair@$$CBHI@stlp_std@@@priv@2@U?$_MapTraitsT@U?$pair@$$CBHI@stlp_std@@@52@V?$xalloc@U?$pair@HI@stlp_std@@@@@priv@stlp_std@@QAE?AU?$_Rb_tree_iterator@U?$pair@$$CBHI@stlp_std@@U?$_MapTraitsT@U?$pair@$$CBHI@stlp_std@@@priv@2@@23@U423@ABU?$pair@$$CBHI@3@@Z ; stlp_std::priv::_Rb_tree<int,stlp_std::less<int>,stlp_std::pair<int const ,unsigned int>,stlp_std::priv::_Select1st<stlp_std::pair<int const ,unsigned int> >,stlp_std::priv::_MapTraitsT<stlp_std::pair<int const ,unsigned int> >,xalloc<stlp_std::pair<int,unsigned int> > >::insert_unique
PUBLIC	?insert@?$map@HIU?$less@H@stlp_std@@V?$xalloc@U?$pair@HI@stlp_std@@@@@stlp_std@@QAE?AU?$_Rb_tree_iterator@U?$pair@$$CBHI@stlp_std@@U?$_MapTraitsT@U?$pair@$$CBHI@stlp_std@@@priv@2@@priv@2@U342@ABU?$pair@$$CBHI@2@@Z ; stlp_std::map<int,unsigned int,stlp_std::less<int>,xalloc<stlp_std::pair<int,unsigned int> > >::insert
PUBLIC	??0?$pair@$$CBHI@stlp_std@@QAE@ABHABI@Z		; stlp_std::pair<int const ,unsigned int>::pair<int const ,unsigned int>
PUBLIC	??$?AH@?$map@HIU?$less@H@stlp_std@@V?$xalloc@U?$pair@HI@stlp_std@@@@@stlp_std@@QAEAAIABH@Z ; stlp_std::map<int,unsigned int,stlp_std::less<int>,xalloc<stlp_std::pair<int,unsigned int> > >::operator[]<int>
PUBLIC	?erase@?$_Rb_tree@HU?$less@H@stlp_std@@U?$pair@$$CBHI@2@U?$_Select1st@U?$pair@$$CBHI@stlp_std@@@priv@2@U?$_MapTraitsT@U?$pair@$$CBHI@stlp_std@@@52@V?$xalloc@U?$pair@HI@stlp_std@@@@@priv@stlp_std@@QAEXU?$_Rb_tree_iterator@U?$pair@$$CBHI@stlp_std@@U?$_MapTraitsT@U?$pair@$$CBHI@stlp_std@@@priv@2@@23@@Z ; stlp_std::priv::_Rb_tree<int,stlp_std::less<int>,stlp_std::pair<int const ,unsigned int>,stlp_std::priv::_Select1st<stlp_std::pair<int const ,unsigned int> >,stlp_std::priv::_MapTraitsT<stlp_std::pair<int const ,unsigned int> >,xalloc<stlp_std::pair<int,unsigned int> > >::erase
PUBLIC	?erase@?$_Rb_tree@HU?$less@H@stlp_std@@U?$pair@$$CBHI@2@U?$_Select1st@U?$pair@$$CBHI@stlp_std@@@priv@2@U?$_MapTraitsT@U?$pair@$$CBHI@stlp_std@@@52@V?$xalloc@U?$pair@HI@stlp_std@@@@@priv@stlp_std@@QAEXU?$_Rb_tree_iterator@U?$pair@$$CBHI@stlp_std@@U?$_MapTraitsT@U?$pair@$$CBHI@stlp_std@@@priv@2@@23@0@Z ; stlp_std::priv::_Rb_tree<int,stlp_std::less<int>,stlp_std::pair<int const ,unsigned int>,stlp_std::priv::_Select1st<stlp_std::pair<int const ,unsigned int> >,stlp_std::priv::_MapTraitsT<stlp_std::pair<int const ,unsigned int> >,xalloc<stlp_std::pair<int,unsigned int> > >::erase
PUBLIC	?erase@?$map@HIU?$less@H@stlp_std@@V?$xalloc@U?$pair@HI@stlp_std@@@@@stlp_std@@QAEXU?$_Rb_tree_iterator@U?$pair@$$CBHI@stlp_std@@U?$_MapTraitsT@U?$pair@$$CBHI@stlp_std@@@priv@2@@priv@2@0@Z ; stlp_std::map<int,unsigned int,stlp_std::less<int>,xalloc<stlp_std::pair<int,unsigned int> > >::erase
PUBLIC	?color_argb_f@@YAIMMMM@Z			; color_argb_f
PUBLIC	?color_rgba_f@@YAIMMMM@Z			; color_rgba_f
PUBLIC	?get@?$_color@M@@QBEIXZ				; _color<float>::get
PUBLIC	?lerp@?$_color@M@@QAEAAU1@ABU1@0M@Z		; _color<float>::lerp
PUBLIC	?size@?$_Rb_tree@HU?$less@H@stlp_std@@U?$pair@$$CBHI@2@U?$_Select1st@U?$pair@$$CBHI@stlp_std@@@priv@2@U?$_MapTraitsT@U?$pair@$$CBHI@stlp_std@@@52@V?$xalloc@U?$pair@HI@stlp_std@@@@@priv@stlp_std@@QBEIXZ ; stlp_std::priv::_Rb_tree<int,stlp_std::less<int>,stlp_std::pair<int const ,unsigned int>,stlp_std::priv::_Select1st<stlp_std::pair<int const ,unsigned int> >,stlp_std::priv::_MapTraitsT<stlp_std::pair<int const ,unsigned int> >,xalloc<stlp_std::pair<int,unsigned int> > >::size
PUBLIC	?size@?$map@HIU?$less@H@stlp_std@@V?$xalloc@U?$pair@HI@stlp_std@@@@@stlp_std@@QBEIXZ ; stlp_std::map<int,unsigned int,stlp_std::less<int>,xalloc<stlp_std::pair<int,unsigned int> > >::size
PUBLIC	?size@?$xr_map@HIU?$less@H@stlp_std@@V?$xalloc@U?$pair@HI@stlp_std@@@@@@QBEIXZ ; xr_map<int,unsigned int,stlp_std::less<int>,xalloc<stlp_std::pair<int,unsigned int> > >::size
PUBLIC	??0?$_Rb_tree_iterator@U?$pair@$$CBHI@stlp_std@@U?$_MapTraitsT@U?$pair@$$CBHI@stlp_std@@@priv@2@@priv@stlp_std@@QAE@XZ ; stlp_std::priv::_Rb_tree_iterator<stlp_std::pair<int const ,unsigned int>,stlp_std::priv::_MapTraitsT<stlp_std::pair<int const ,unsigned int> > >::_Rb_tree_iterator<stlp_std::pair<int const ,unsigned int>,stlp_std::priv::_MapTraitsT<stlp_std::pair<int const ,unsigned int> > >
PUBLIC	??8?$_Rb_tree_iterator@U?$pair@$$CBHI@stlp_std@@U?$_MapTraitsT@U?$pair@$$CBHI@stlp_std@@@priv@2@@priv@stlp_std@@QBE_NU?$_Rb_tree_iterator@U?$pair@$$CBHI@stlp_std@@U?$_ConstMapTraitsT@U?$pair@$$CBHI@stlp_std@@@priv@2@@12@@Z ; stlp_std::priv::_Rb_tree_iterator<stlp_std::pair<int const ,unsigned int>,stlp_std::priv::_MapTraitsT<stlp_std::pair<int const ,unsigned int> > >::operator==
PUBLIC	_fmodf
PUBLIC	??F?$_Rb_tree_iterator@U?$pair@$$CBHI@stlp_std@@U?$_MapTraitsT@U?$pair@$$CBHI@stlp_std@@@priv@2@@priv@stlp_std@@QAE?AU012@H@Z ; stlp_std::priv::_Rb_tree_iterator<stlp_std::pair<int const ,unsigned int>,stlp_std::priv::_MapTraitsT<stlp_std::pair<int const ,unsigned int> > >::operator--
PUBLIC	??$_M_lower_bound@H@?$_Rb_tree@HU?$less@H@stlp_std@@U?$pair@$$CBHI@2@U?$_Select1st@U?$pair@$$CBHI@stlp_std@@@priv@2@U?$_MapTraitsT@U?$pair@$$CBHI@stlp_std@@@52@V?$xalloc@U?$pair@HI@stlp_std@@@@@priv@stlp_std@@ABEPAU_Rb_tree_node_base@12@ABH@Z ; stlp_std::priv::_Rb_tree<int,stlp_std::less<int>,stlp_std::pair<int const ,unsigned int>,stlp_std::priv::_Select1st<stlp_std::pair<int const ,unsigned int> >,stlp_std::priv::_MapTraitsT<stlp_std::pair<int const ,unsigned int> >,xalloc<stlp_std::pair<int,unsigned int> > >::_M_lower_bound<int>
PUBLIC	??$lower_bound@H@?$_Rb_tree@HU?$less@H@stlp_std@@U?$pair@$$CBHI@2@U?$_Select1st@U?$pair@$$CBHI@stlp_std@@@priv@2@U?$_MapTraitsT@U?$pair@$$CBHI@stlp_std@@@52@V?$xalloc@U?$pair@HI@stlp_std@@@@@priv@stlp_std@@QAE?AU?$_Rb_tree_iterator@U?$pair@$$CBHI@stlp_std@@U?$_MapTraitsT@U?$pair@$$CBHI@stlp_std@@@priv@2@@12@ABH@Z ; stlp_std::priv::_Rb_tree<int,stlp_std::less<int>,stlp_std::pair<int const ,unsigned int>,stlp_std::priv::_Select1st<stlp_std::pair<int const ,unsigned int> >,stlp_std::priv::_MapTraitsT<stlp_std::pair<int const ,unsigned int> >,xalloc<stlp_std::pair<int,unsigned int> > >::lower_bound<int>
PUBLIC	??$lower_bound@H@?$map@HIU?$less@H@stlp_std@@V?$xalloc@U?$pair@HI@stlp_std@@@@@stlp_std@@QAE?AU?$_Rb_tree_iterator@U?$pair@$$CBHI@stlp_std@@U?$_MapTraitsT@U?$pair@$$CBHI@stlp_std@@@priv@2@@priv@1@ABH@Z ; stlp_std::map<int,unsigned int,stlp_std::less<int>,xalloc<stlp_std::pair<int,unsigned int> > >::lower_bound<int>
PUBLIC	??$_M_upper_bound@H@?$_Rb_tree@HU?$less@H@stlp_std@@U?$pair@$$CBHI@2@U?$_Select1st@U?$pair@$$CBHI@stlp_std@@@priv@2@U?$_MapTraitsT@U?$pair@$$CBHI@stlp_std@@@52@V?$xalloc@U?$pair@HI@stlp_std@@@@@priv@stlp_std@@ABEPAU_Rb_tree_node_base@12@ABH@Z ; stlp_std::priv::_Rb_tree<int,stlp_std::less<int>,stlp_std::pair<int const ,unsigned int>,stlp_std::priv::_Select1st<stlp_std::pair<int const ,unsigned int> >,stlp_std::priv::_MapTraitsT<stlp_std::pair<int const ,unsigned int> >,xalloc<stlp_std::pair<int,unsigned int> > >::_M_upper_bound<int>
PUBLIC	??$upper_bound@H@?$_Rb_tree@HU?$less@H@stlp_std@@U?$pair@$$CBHI@2@U?$_Select1st@U?$pair@$$CBHI@stlp_std@@@priv@2@U?$_MapTraitsT@U?$pair@$$CBHI@stlp_std@@@52@V?$xalloc@U?$pair@HI@stlp_std@@@@@priv@stlp_std@@QAE?AU?$_Rb_tree_iterator@U?$pair@$$CBHI@stlp_std@@U?$_MapTraitsT@U?$pair@$$CBHI@stlp_std@@@priv@2@@12@ABH@Z ; stlp_std::priv::_Rb_tree<int,stlp_std::less<int>,stlp_std::pair<int const ,unsigned int>,stlp_std::priv::_Select1st<stlp_std::pair<int const ,unsigned int> >,stlp_std::priv::_MapTraitsT<stlp_std::pair<int const ,unsigned int> >,xalloc<stlp_std::pair<int,unsigned int> > >::upper_bound<int>
PUBLIC	??$upper_bound@H@?$map@HIU?$less@H@stlp_std@@V?$xalloc@U?$pair@HI@stlp_std@@@@@stlp_std@@QAE?AU?$_Rb_tree_iterator@U?$pair@$$CBHI@stlp_std@@U?$_MapTraitsT@U?$pair@$$CBHI@stlp_std@@@priv@2@@priv@1@ABH@Z ; stlp_std::map<int,unsigned int,stlp_std::less<int>,xalloc<stlp_std::pair<int,unsigned int> > >::upper_bound<int>
PUBLIC	??0?$xalloc@PAVCLAItem@@@@QAE@XZ		; xalloc<CLAItem *>::xalloc<CLAItem *>
PUBLIC	??$?0PAVCLAItem@@@?$xalloc@PAX@@QAE@ABV?$xalloc@PAVCLAItem@@@@@Z ; xalloc<void *>::xalloc<void *><CLAItem *>
PUBLIC	??0?$vector@PAVCLAItem@@V?$xalloc@PAVCLAItem@@@@@stlp_std@@QAE@ABV?$xalloc@PAVCLAItem@@@@@Z ; stlp_std::vector<CLAItem *,xalloc<CLAItem *> >::vector<CLAItem *,xalloc<CLAItem *> >
PUBLIC	??0?$xr_vector@PAVCLAItem@@V?$xalloc@PAVCLAItem@@@@@@QAE@XZ ; xr_vector<CLAItem *,xalloc<CLAItem *> >::xr_vector<CLAItem *,xalloc<CLAItem *> >
PUBLIC	?clear@?$vector@PAVCLAItem@@V?$xalloc@PAVCLAItem@@@@@stlp_std@@QAEXXZ ; stlp_std::vector<CLAItem *,xalloc<CLAItem *> >::clear
PUBLIC	?clear_and_free@?$xr_vector@PAVCLAItem@@V?$xalloc@PAVCLAItem@@@@@@QAEXXZ ; xr_vector<CLAItem *,xalloc<CLAItem *> >::clear_and_free
PUBLIC	?clear@?$xr_vector@PAVCLAItem@@V?$xalloc@PAVCLAItem@@@@@@QAEXXZ ; xr_vector<CLAItem *,xalloc<CLAItem *> >::clear
PUBLIC	??_GCLAItem@@QAEPAXI@Z				; CLAItem::`scalar deleting destructor'
PUBLIC	??R?$xr_special_free@$0A@VCLAItem@@@@QAEXAAPAVCLAItem@@@Z ; xr_special_free<0,CLAItem>::operator()
PUBLIC	??$xr_delete@VCLAItem@@@@YAXAAPAVCLAItem@@@Z	; xr_delete<CLAItem>
PUBLIC	?color_get_A@@YAII@Z				; color_get_A
PUBLIC	?subst_alpha@@YAIII@Z				; subst_alpha
PUBLIC	?bgr2rgb@@YAII@Z				; bgr2rgb
PUBLIC	?begin@?$map@HIU?$less@H@stlp_std@@V?$xalloc@U?$pair@HI@stlp_std@@@@@stlp_std@@QAE?AU?$_Rb_tree_iterator@U?$pair@$$CBHI@stlp_std@@U?$_MapTraitsT@U?$pair@$$CBHI@stlp_std@@@priv@2@@priv@2@XZ ; stlp_std::map<int,unsigned int,stlp_std::less<int>,xalloc<stlp_std::pair<int,unsigned int> > >::begin
PUBLIC	??E?$_Rb_tree_iterator@U?$pair@$$CBHI@stlp_std@@U?$_MapTraitsT@U?$pair@$$CBHI@stlp_std@@@priv@2@@priv@stlp_std@@QAEAAU012@XZ ; stlp_std::priv::_Rb_tree_iterator<stlp_std::pair<int const ,unsigned int>,stlp_std::priv::_MapTraitsT<stlp_std::pair<int const ,unsigned int> > >::operator++
PUBLIC	??E?$_Rb_tree_iterator@U?$pair@$$CBHI@stlp_std@@U?$_MapTraitsT@U?$pair@$$CBHI@stlp_std@@@priv@2@@priv@stlp_std@@QAE?AU012@H@Z ; stlp_std::priv::_Rb_tree_iterator<stlp_std::pair<int const ,unsigned int>,stlp_std::priv::_MapTraitsT<stlp_std::pair<int const ,unsigned int> > >::operator++
PUBLIC	?to_storage_type_cref@?$_CastTraits@PAXPAVCLAItem@@@priv@stlp_std@@SAABQAXABQAVCLAItem@@@Z ; stlp_std::priv::_CastTraits<void *,CLAItem *>::to_storage_type_cref
PUBLIC	?push_back@?$vector@PAVCLAItem@@V?$xalloc@PAVCLAItem@@@@@stlp_std@@QAEXABQAVCLAItem@@@Z ; stlp_std::vector<CLAItem *,xalloc<CLAItem *> >::push_back
PUBLIC	??$xr_new@VCLAItem@@@@YAPAVCLAItem@@XZ		; xr_new<CLAItem>
PUBLIC	?xr_strcmp@@YAHABVshared_str@@PBD@Z		; xr_strcmp
PUBLIC	?begin@?$vector@PAVCLAItem@@V?$xalloc@PAVCLAItem@@@@@stlp_std@@QAEPAPAVCLAItem@@XZ ; stlp_std::vector<CLAItem *,xalloc<CLAItem *> >::begin
PUBLIC	?to_value_type_ptr@?$_CastTraits@PAXPAVCLAItem@@@priv@stlp_std@@SAPAPAVCLAItem@@PAPAX@Z ; stlp_std::priv::_CastTraits<void *,CLAItem *>::to_value_type_ptr
PUBLIC	?end@?$vector@PAVCLAItem@@V?$xalloc@PAVCLAItem@@@@@stlp_std@@QAEPAPAVCLAItem@@XZ ; stlp_std::vector<CLAItem *,xalloc<CLAItem *> >::end
PUBLIC	??_C@_0O@IPOAHHKK@CLAItem?3?3Load?$AA@		; `string'
PUBLIC	??_C@_0DJ@LHCNLGNK@D?3?2CLEARSKY?2sources?2engine?2xrEng@ ; `string'
PUBLIC	??_C@_0CA@MNAOHIBM@F?4find_chunk?$CICHUNK_ITEM_COMMON?$CJ?$AA@ ; `string'
PUBLIC	??_C@_0BO@GFDGFNAI@F?4find_chunk?$CICHUNK_ITEM_KEYS?$CJ?$AA@ ; `string'
PUBLIC	??_C@_0BD@GHBFHFO@CLAItem?3?3InsertKey?$AA@	; `string'
PUBLIC	??_C@_0BD@MALKJDA@frame?$DM?$DNiFrameCount?$AA@	; `string'
PUBLIC	??_C@_0BD@FPJIDMJL@CLAItem?3?3DeleteKey?$AA@	; `string'
PUBLIC	??_C@_0BB@HHGNKDF@CLAItem?3?3MoveKey?$AA@	; `string'
PUBLIC	??_C@_0BC@GOKBJODO@from?$DM?$DNiFrameCount?$AA@	; `string'
PUBLIC	??_C@_0BA@KIEEJEPF@to?$DM?$DNiFrameCount?$AA@	; `string'
PUBLIC	??_C@_0BI@CFJEJJFO@CLAItem?3?3InterpolateRGB?$AA@ ; `string'
PUBLIC	??_C@_0O@GOCGIBMI@Keys?4size?$CI?$CJ?$DO1?$AA@	; `string'
PUBLIC	??_C@_09EKOHCBCF@lanims?4xr?$AA@		; `string'
PUBLIC	??_C@_0BO@DCNPJICB@?$CBCan?8t?5save?5color?5animations?3?$AA@ ; `string'
;	COMDAT ?ignore_always@?3??Load@CLAItem@@QAEXAAVIReader@@@Z@4_NA
_BSS	SEGMENT
?ignore_always@?3??Load@CLAItem@@QAEXAAVIReader@@@Z@4_NA DB 01H DUP (?) ; `CLAItem::Load'::`4'::ignore_always
_BSS	ENDS
;	COMDAT ?ignore_always@?7??Load@CLAItem@@QAEXAAVIReader@@@Z@4_NA
_BSS	SEGMENT
?ignore_always@?7??Load@CLAItem@@QAEXAAVIReader@@@Z@4_NA DB 01H DUP (?) ; `CLAItem::Load'::`8'::ignore_always
_BSS	ENDS
;	COMDAT ?ignore_always@?3??InsertKey@CLAItem@@QAEXHI@Z@4_NA
_BSS	SEGMENT
?ignore_always@?3??InsertKey@CLAItem@@QAEXHI@Z@4_NA DB 01H DUP (?) ; `CLAItem::InsertKey'::`4'::ignore_always
_BSS	ENDS
;	COMDAT ?ignore_always@?3??DeleteKey@CLAItem@@QAEXH@Z@4_NA
_BSS	SEGMENT
?ignore_always@?3??DeleteKey@CLAItem@@QAEXH@Z@4_NA DB 01H DUP (?) ; `CLAItem::DeleteKey'::`4'::ignore_always
_BSS	ENDS
;	COMDAT ?ignore_always@?3??MoveKey@CLAItem@@QAEXHH@Z@4_NA
_BSS	SEGMENT
?ignore_always@?3??MoveKey@CLAItem@@QAEXHH@Z@4_NA DB 01H DUP (?) ; `CLAItem::MoveKey'::`4'::ignore_always
_BSS	ENDS
;	COMDAT ?ignore_always@?7??MoveKey@CLAItem@@QAEXHH@Z@4_NA
_BSS	SEGMENT
?ignore_always@?7??MoveKey@CLAItem@@QAEXHH@Z@4_NA DB 01H DUP (?) ; `CLAItem::MoveKey'::`8'::ignore_always
_BSS	ENDS
;	COMDAT ?ignore_always@?3??InterpolateRGB@CLAItem@@QAEIH@Z@4_NA
_BSS	SEGMENT
?ignore_always@?3??InterpolateRGB@CLAItem@@QAEIH@Z@4_NA DB 01H DUP (?) ; `CLAItem::InterpolateRGB'::`4'::ignore_always
_BSS	ENDS
;	COMDAT ?ignore_always@?BA@??InterpolateRGB@CLAItem@@QAEIH@Z@4_NA
_BSS	SEGMENT
?ignore_always@?BA@??InterpolateRGB@CLAItem@@QAEIH@Z@4_NA DB 01H DUP (?) ; `CLAItem::InterpolateRGB'::`16'::ignore_always
;	COMDAT ??_C@_0BO@DCNPJICB@?$CBCan?8t?5save?5color?5animations?3?$AA@
CONST	SEGMENT
??_C@_0BO@DCNPJICB@?$CBCan?8t?5save?5color?5animations?3?$AA@ DB '!Can''t'
	DB	' save color animations:', 00H		; `string'
CONST	ENDS
;	COMDAT ??_C@_09EKOHCBCF@lanims?4xr?$AA@
CONST	SEGMENT
??_C@_09EKOHCBCF@lanims?4xr?$AA@ DB 'lanims.xr', 00H	; `string'
CONST	ENDS
;	COMDAT ??_C@_0O@GOCGIBMI@Keys?4size?$CI?$CJ?$DO1?$AA@
CONST	SEGMENT
??_C@_0O@GOCGIBMI@Keys?4size?$CI?$CJ?$DO1?$AA@ DB 'Keys.size()>1', 00H ; `string'
CONST	ENDS
;	COMDAT ??_C@_0BI@CFJEJJFO@CLAItem?3?3InterpolateRGB?$AA@
CONST	SEGMENT
??_C@_0BI@CFJEJJFO@CLAItem?3?3InterpolateRGB?$AA@ DB 'CLAItem::Interpolat'
	DB	'eRGB', 00H					; `string'
CONST	ENDS
;	COMDAT ??_C@_0BA@KIEEJEPF@to?$DM?$DNiFrameCount?$AA@
CONST	SEGMENT
??_C@_0BA@KIEEJEPF@to?$DM?$DNiFrameCount?$AA@ DB 'to<=iFrameCount', 00H ; `string'
CONST	ENDS
;	COMDAT ??_C@_0BC@GOKBJODO@from?$DM?$DNiFrameCount?$AA@
CONST	SEGMENT
??_C@_0BC@GOKBJODO@from?$DM?$DNiFrameCount?$AA@ DB 'from<=iFrameCount', 00H ; `string'
CONST	ENDS
;	COMDAT ??_C@_0BB@HHGNKDF@CLAItem?3?3MoveKey?$AA@
CONST	SEGMENT
??_C@_0BB@HHGNKDF@CLAItem?3?3MoveKey?$AA@ DB 'CLAItem::MoveKey', 00H ; `string'
CONST	ENDS
;	COMDAT ??_C@_0BD@FPJIDMJL@CLAItem?3?3DeleteKey?$AA@
CONST	SEGMENT
??_C@_0BD@FPJIDMJL@CLAItem?3?3DeleteKey?$AA@ DB 'CLAItem::DeleteKey', 00H ; `string'
CONST	ENDS
;	COMDAT ??_C@_0BD@MALKJDA@frame?$DM?$DNiFrameCount?$AA@
CONST	SEGMENT
??_C@_0BD@MALKJDA@frame?$DM?$DNiFrameCount?$AA@ DB 'frame<=iFrameCount', 00H ; `string'
CONST	ENDS
;	COMDAT ??_C@_0BD@GHBFHFO@CLAItem?3?3InsertKey?$AA@
CONST	SEGMENT
??_C@_0BD@GHBFHFO@CLAItem?3?3InsertKey?$AA@ DB 'CLAItem::InsertKey', 00H ; `string'
CONST	ENDS
;	COMDAT ??_C@_0BO@GFDGFNAI@F?4find_chunk?$CICHUNK_ITEM_KEYS?$CJ?$AA@
CONST	SEGMENT
??_C@_0BO@GFDGFNAI@F?4find_chunk?$CICHUNK_ITEM_KEYS?$CJ?$AA@ DB 'F.find_c'
	DB	'hunk(CHUNK_ITEM_KEYS)', 00H			; `string'
CONST	ENDS
;	COMDAT ??_C@_0CA@MNAOHIBM@F?4find_chunk?$CICHUNK_ITEM_COMMON?$CJ?$AA@
CONST	SEGMENT
??_C@_0CA@MNAOHIBM@F?4find_chunk?$CICHUNK_ITEM_COMMON?$CJ?$AA@ DB 'F.find'
	DB	'_chunk(CHUNK_ITEM_COMMON)', 00H		; `string'
CONST	ENDS
;	COMDAT ??_C@_0DJ@LHCNLGNK@D?3?2CLEARSKY?2sources?2engine?2xrEng@
CONST	SEGMENT
??_C@_0DJ@LHCNLGNK@D?3?2CLEARSKY?2sources?2engine?2xrEng@ DB 'D:\CLEARSKY'
	DB	'\sources\engine\xrEngine\LightAnimLibrary.cpp', 00H ; `string'
CONST	ENDS
;	COMDAT ??_C@_0O@IPOAHHKK@CLAItem?3?3Load?$AA@
CONST	SEGMENT
??_C@_0O@IPOAHHKK@CLAItem?3?3Load?$AA@ DB 'CLAItem::Load', 00H ; `string'
; Function compile flags: /Ogtpy
; File d:\clearsky\sources\engine\xrcore\_color.h
;	COMDAT ?color_get_A@@YAII@Z
_TEXT	SEGMENT
?color_get_A@@YAII@Z PROC				; color_get_A, COMDAT
; _rgba$ = eax

; 20   : ICF	u32 color_get_A (u32 rgba)						{	return ((rgba) >> 24);			}

	shr	eax, 24					; 00000018H
	ret	0
?color_get_A@@YAII@Z ENDP				; color_get_A
_TEXT	ENDS
EXTRN	__CIfmod:PROC
; Function compile flags: /Ogtpy
; File j:\msvs8\vc\include\math.h
;	COMDAT _fmodf
_TEXT	SEGMENT
__X$ = 8						; size = 4
__Y$ = 12						; size = 4
_fmodf	PROC						; COMDAT

; 407  :         {return ((float)fmod((double)_X, (double)_Y)); }

	push	ebp
	mov	ebp, esp
	and	esp, -8					; fffffff8H
	fld	DWORD PTR __X$[ebp]
	fld	DWORD PTR __Y$[ebp]
	call	__CIfmod
	mov	esp, ebp
	pop	ebp
	ret	0
_fmodf	ENDP
; Function compile flags: /Ogtpy
; File d:\clearsky\sources\sdk\include\stlport\stl\_tree.h
_TEXT	ENDS
;	COMDAT ?empty@?$_Rb_tree@HU?$less@H@stlp_std@@U?$pair@$$CBHI@2@U?$_Select1st@U?$pair@$$CBHI@stlp_std@@@priv@2@U?$_MapTraitsT@U?$pair@$$CBHI@stlp_std@@@52@V?$xalloc@U?$pair@HI@stlp_std@@@@@priv@stlp_std@@QBE_NXZ
_TEXT	SEGMENT
?empty@?$_Rb_tree@HU?$less@H@stlp_std@@U?$pair@$$CBHI@2@U?$_Select1st@U?$pair@$$CBHI@stlp_std@@@priv@2@U?$_MapTraitsT@U?$pair@$$CBHI@stlp_std@@@52@V?$xalloc@U?$pair@HI@stlp_std@@@@@priv@stlp_std@@QBE_NXZ PROC ; stlp_std::priv::_Rb_tree<int,stlp_std::less<int>,stlp_std::pair<int const ,unsigned int>,stlp_std::priv::_Select1st<stlp_std::pair<int const ,unsigned int> >,stlp_std::priv::_MapTraitsT<stlp_std::pair<int const ,unsigned int> >,xalloc<stlp_std::pair<int,unsigned int> > >::empty, COMDAT
; _this$ = ecx

; 427  :   bool empty() const { return _M_node_count == 0; }

	xor	eax, eax
	cmp	DWORD PTR [ecx+16], eax
	sete	al
	ret	0
?empty@?$_Rb_tree@HU?$less@H@stlp_std@@U?$pair@$$CBHI@2@U?$_Select1st@U?$pair@$$CBHI@stlp_std@@@priv@2@U?$_MapTraitsT@U?$pair@$$CBHI@stlp_std@@@52@V?$xalloc@U?$pair@HI@stlp_std@@@@@priv@stlp_std@@QBE_NXZ ENDP ; stlp_std::priv::_Rb_tree<int,stlp_std::less<int>,stlp_std::pair<int const ,unsigned int>,stlp_std::priv::_Select1st<stlp_std::pair<int const ,unsigned int> >,stlp_std::priv::_MapTraitsT<stlp_std::pair<int const ,unsigned int> >,xalloc<stlp_std::pair<int,unsigned int> > >::empty
; Function compile flags: /Ogtpy
_TEXT	ENDS
;	COMDAT ?key_comp@?$_Rb_tree@HU?$less@H@stlp_std@@U?$pair@$$CBHI@2@U?$_Select1st@U?$pair@$$CBHI@stlp_std@@@priv@2@U?$_MapTraitsT@U?$pair@$$CBHI@stlp_std@@@52@V?$xalloc@U?$pair@HI@stlp_std@@@@@priv@stlp_std@@QBE?AU?$less@H@3@XZ
_TEXT	SEGMENT
?key_comp@?$_Rb_tree@HU?$less@H@stlp_std@@U?$pair@$$CBHI@2@U?$_Select1st@U?$pair@$$CBHI@stlp_std@@@priv@2@U?$_MapTraitsT@U?$pair@$$CBHI@stlp_std@@@52@V?$xalloc@U?$pair@HI@stlp_std@@@@@priv@stlp_std@@QBE?AU?$less@H@3@XZ PROC ; stlp_std::priv::_Rb_tree<int,stlp_std::less<int>,stlp_std::pair<int const ,unsigned int>,stlp_std::priv::_Select1st<stlp_std::pair<int const ,unsigned int> >,stlp_std::priv::_MapTraitsT<stlp_std::pair<int const ,unsigned int> >,xalloc<stlp_std::pair<int,unsigned int> > >::key_comp, COMDAT
; _this$ = ecx
; ___$ReturnUdt$ = eax

; 414  :   _Compare key_comp() const { return _M_key_compare; }

	mov	dl, BYTE PTR [ecx+20]
	mov	BYTE PTR [eax], dl
	ret	0
?key_comp@?$_Rb_tree@HU?$less@H@stlp_std@@U?$pair@$$CBHI@2@U?$_Select1st@U?$pair@$$CBHI@stlp_std@@@priv@2@U?$_MapTraitsT@U?$pair@$$CBHI@stlp_std@@@52@V?$xalloc@U?$pair@HI@stlp_std@@@@@priv@stlp_std@@QBE?AU?$less@H@3@XZ ENDP ; stlp_std::priv::_Rb_tree<int,stlp_std::less<int>,stlp_std::pair<int const ,unsigned int>,stlp_std::priv::_Select1st<stlp_std::pair<int const ,unsigned int> >,stlp_std::priv::_MapTraitsT<stlp_std::pair<int const ,unsigned int> >,xalloc<stlp_std::pair<int,unsigned int> > >::key_comp
; Function compile flags: /Ogtpy
; File d:\clearsky\sources\sdk\include\stlport\stl\_pair.h
_TEXT	ENDS
;	COMDAT ??0?$pair@$$CBHI@stlp_std@@QAE@ABHABI@Z
_TEXT	SEGMENT
___b$ = 8						; size = 4
??0?$pair@$$CBHI@stlp_std@@QAE@ABHABI@Z PROC		; stlp_std::pair<int const ,unsigned int>::pair<int const ,unsigned int>, COMDAT
; _this$ = eax
; ___a$ = ecx

; 56   :   pair(const _T1& __a, const _T2& __b) : first(__a), second(__b) {}

	mov	edx, DWORD PTR [ecx]
	mov	ecx, DWORD PTR ___b$[esp-4]
	mov	DWORD PTR [eax], edx
	mov	edx, DWORD PTR [ecx]
	mov	DWORD PTR [eax+4], edx
	ret	4
??0?$pair@$$CBHI@stlp_std@@QAE@ABHABI@Z ENDP		; stlp_std::pair<int const ,unsigned int>::pair<int const ,unsigned int>
; Function compile flags: /Ogtpy
; File d:\clearsky\sources\sdk\include\stlport\stl\_map.h
_TEXT	ENDS
;	COMDAT ?key_comp@?$map@HIU?$less@H@stlp_std@@V?$xalloc@U?$pair@HI@stlp_std@@@@@stlp_std@@QBE?AU?$less@H@2@XZ
_TEXT	SEGMENT
?key_comp@?$map@HIU?$less@H@stlp_std@@V?$xalloc@U?$pair@HI@stlp_std@@@@@stlp_std@@QBE?AU?$less@H@2@XZ PROC ; stlp_std::map<int,unsigned int,stlp_std::less<int>,xalloc<stlp_std::pair<int,unsigned int> > >::key_comp, COMDAT
; _this$ = ecx
; ___$ReturnUdt$ = eax

; 157  :   key_compare key_comp() const { return _M_t.key_comp(); }

	mov	dl, BYTE PTR [ecx+20]
	mov	BYTE PTR [eax], dl
	ret	0
?key_comp@?$map@HIU?$less@H@stlp_std@@V?$xalloc@U?$pair@HI@stlp_std@@@@@stlp_std@@QBE?AU?$less@H@2@XZ ENDP ; stlp_std::map<int,unsigned int,stlp_std::less<int>,xalloc<stlp_std::pair<int,unsigned int> > >::key_comp
; Function compile flags: /Ogtpy
; File d:\clearsky\sources\engine\xrcore\_stl_extensions.h
_TEXT	ENDS
;	COMDAT ??$?0PAVCLAItem@@@?$xalloc@PAX@@QAE@ABV?$xalloc@PAVCLAItem@@@@@Z
_TEXT	SEGMENT
??$?0PAVCLAItem@@@?$xalloc@PAX@@QAE@ABV?$xalloc@PAVCLAItem@@@@@Z PROC ; xalloc<void *>::xalloc<void *><CLAItem *>, COMDAT
; _this$ = eax

; 79   : 	template<class _Other>							xalloc			(const xalloc<_Other>&)					{	}

	ret	0
??$?0PAVCLAItem@@@?$xalloc@PAX@@QAE@ABV?$xalloc@PAVCLAItem@@@@@Z ENDP ; xalloc<void *>::xalloc<void *><CLAItem *>
; Function compile flags: /Ogtpy
; File d:\clearsky\sources\sdk\include\stlport\stl\_tree.h
_TEXT	ENDS
;	COMDAT ?size@?$_Rb_tree@HU?$less@H@stlp_std@@U?$pair@$$CBHI@2@U?$_Select1st@U?$pair@$$CBHI@stlp_std@@@priv@2@U?$_MapTraitsT@U?$pair@$$CBHI@stlp_std@@@52@V?$xalloc@U?$pair@HI@stlp_std@@@@@priv@stlp_std@@QBEIXZ
_TEXT	SEGMENT
?size@?$_Rb_tree@HU?$less@H@stlp_std@@U?$pair@$$CBHI@2@U?$_Select1st@U?$pair@$$CBHI@stlp_std@@@priv@2@U?$_MapTraitsT@U?$pair@$$CBHI@stlp_std@@@52@V?$xalloc@U?$pair@HI@stlp_std@@@@@priv@stlp_std@@QBEIXZ PROC ; stlp_std::priv::_Rb_tree<int,stlp_std::less<int>,stlp_std::pair<int const ,unsigned int>,stlp_std::priv::_Select1st<stlp_std::pair<int const ,unsigned int> >,stlp_std::priv::_MapTraitsT<stlp_std::pair<int const ,unsigned int> >,xalloc<stlp_std::pair<int,unsigned int> > >::size, COMDAT
; _this$ = eax

; 428  :   size_type size() const { return _M_node_count; }

	mov	eax, DWORD PTR [eax+16]
	ret	0
?size@?$_Rb_tree@HU?$less@H@stlp_std@@U?$pair@$$CBHI@2@U?$_Select1st@U?$pair@$$CBHI@stlp_std@@@priv@2@U?$_MapTraitsT@U?$pair@$$CBHI@stlp_std@@@52@V?$xalloc@U?$pair@HI@stlp_std@@@@@priv@stlp_std@@QBEIXZ ENDP ; stlp_std::priv::_Rb_tree<int,stlp_std::less<int>,stlp_std::pair<int const ,unsigned int>,stlp_std::priv::_Select1st<stlp_std::pair<int const ,unsigned int> >,stlp_std::priv::_MapTraitsT<stlp_std::pair<int const ,unsigned int> >,xalloc<stlp_std::pair<int,unsigned int> > >::size
; Function compile flags: /Ogtpy
; File d:\clearsky\sources\engine\xrcore\_stl_extensions.h
_TEXT	ENDS
;	COMDAT ??0?$xalloc@U?$pair@$$CBHI@stlp_std@@@@QAE@XZ
_TEXT	SEGMENT
??0?$xalloc@U?$pair@$$CBHI@stlp_std@@@@QAE@XZ PROC	; xalloc<stlp_std::pair<int const ,unsigned int> >::xalloc<stlp_std::pair<int const ,unsigned int> >, COMDAT
; _this$ = eax

; 77   : 													xalloc			()										{	}

	ret	0
??0?$xalloc@U?$pair@$$CBHI@stlp_std@@@@QAE@XZ ENDP	; xalloc<stlp_std::pair<int const ,unsigned int> >::xalloc<stlp_std::pair<int const ,unsigned int> >
; Function compile flags: /Ogtpy
_TEXT	ENDS
;	COMDAT ??0?$xalloc@PAVCLAItem@@@@QAE@XZ
_TEXT	SEGMENT
??0?$xalloc@PAVCLAItem@@@@QAE@XZ PROC			; xalloc<CLAItem *>::xalloc<CLAItem *>, COMDAT
; _this$ = eax

; 77   : 													xalloc			()										{	}

	ret	0
??0?$xalloc@PAVCLAItem@@@@QAE@XZ ENDP			; xalloc<CLAItem *>::xalloc<CLAItem *>
; Function compile flags: /Ogtpy
; File d:\clearsky\sources\sdk\include\stlport\stl\_map.h
_TEXT	ENDS
;	COMDAT ?size@?$map@HIU?$less@H@stlp_std@@V?$xalloc@U?$pair@HI@stlp_std@@@@@stlp_std@@QBEIXZ
_TEXT	SEGMENT
?size@?$map@HIU?$less@H@stlp_std@@V?$xalloc@U?$pair@HI@stlp_std@@@@@stlp_std@@QBEIXZ PROC ; stlp_std::map<int,unsigned int,stlp_std::less<int>,xalloc<stlp_std::pair<int,unsigned int> > >::size, COMDAT
; _this$ = eax

; 170  :   size_type size() const { return _M_t.size(); }

	mov	eax, DWORD PTR [eax+16]
	ret	0
?size@?$map@HIU?$less@H@stlp_std@@V?$xalloc@U?$pair@HI@stlp_std@@@@@stlp_std@@QBEIXZ ENDP ; stlp_std::map<int,unsigned int,stlp_std::less<int>,xalloc<stlp_std::pair<int,unsigned int> > >::size
; Function compile flags: /Ogtpy
; File d:\clearsky\sources\sdk\include\stlport\stl\_tree.h
_TEXT	ENDS
;	COMDAT ??8?$_Rb_tree_iterator@U?$pair@$$CBHI@stlp_std@@U?$_MapTraitsT@U?$pair@$$CBHI@stlp_std@@@priv@2@@priv@stlp_std@@QBE_NU?$_Rb_tree_iterator@U?$pair@$$CBHI@stlp_std@@U?$_ConstMapTraitsT@U?$pair@$$CBHI@stlp_std@@@priv@2@@12@@Z
_TEXT	SEGMENT
___rhs$ = 8						; size = 4
??8?$_Rb_tree_iterator@U?$pair@$$CBHI@stlp_std@@U?$_MapTraitsT@U?$pair@$$CBHI@stlp_std@@@priv@2@@priv@stlp_std@@QBE_NU?$_Rb_tree_iterator@U?$pair@$$CBHI@stlp_std@@U?$_ConstMapTraitsT@U?$pair@$$CBHI@stlp_std@@@priv@2@@12@@Z PROC ; stlp_std::priv::_Rb_tree_iterator<stlp_std::pair<int const ,unsigned int>,stlp_std::priv::_MapTraitsT<stlp_std::pair<int const ,unsigned int> > >::operator==, COMDAT
; _this$ = ecx

; 197  :     return _M_node == __rhs._M_node;

	mov	edx, DWORD PTR [ecx]
	xor	eax, eax
	cmp	edx, DWORD PTR ___rhs$[esp-4]
	sete	al

; 198  :   }

	ret	4
??8?$_Rb_tree_iterator@U?$pair@$$CBHI@stlp_std@@U?$_MapTraitsT@U?$pair@$$CBHI@stlp_std@@@priv@2@@priv@stlp_std@@QBE_NU?$_Rb_tree_iterator@U?$pair@$$CBHI@stlp_std@@U?$_ConstMapTraitsT@U?$pair@$$CBHI@stlp_std@@@priv@2@@12@@Z ENDP ; stlp_std::priv::_Rb_tree_iterator<stlp_std::pair<int const ,unsigned int>,stlp_std::priv::_MapTraitsT<stlp_std::pair<int const ,unsigned int> > >::operator==
; Function compile flags: /Ogtpy
; File d:\clearsky\sources\engine\xrcore\_stl_extensions.h
_TEXT	ENDS
;	COMDAT ?size@?$xr_map@HIU?$less@H@stlp_std@@V?$xalloc@U?$pair@HI@stlp_std@@@@@@QBEIXZ
_TEXT	SEGMENT
?size@?$xr_map@HIU?$less@H@stlp_std@@V?$xalloc@U?$pair@HI@stlp_std@@@@@@QBEIXZ PROC ; xr_map<int,unsigned int,stlp_std::less<int>,xalloc<stlp_std::pair<int,unsigned int> > >::size, COMDAT
; _this$ = eax

; 203  : template	<typename K, class V, class P=std::less<K>, typename allocator = xalloc<std::pair<K,V> > >	class	xr_map 			: public std::map<K,V,P,allocator>		{ public: u32 size() const {return (u32)__super::size(); } };

	mov	eax, DWORD PTR [eax+16]
	ret	0
?size@?$xr_map@HIU?$less@H@stlp_std@@V?$xalloc@U?$pair@HI@stlp_std@@@@@@QBEIXZ ENDP ; xr_map<int,unsigned int,stlp_std::less<int>,xalloc<stlp_std::pair<int,unsigned int> > >::size
; Function compile flags: /Ogtpy
; File d:\clearsky\sources\engine\xrcore\_color.h
_TEXT	ENDS
;	COMDAT ?lerp@?$_color@M@@QAEAAU1@ABU1@0M@Z
_TEXT	SEGMENT
?lerp@?$_color@M@@QAEAAU1@ABU1@0M@Z PROC		; _color<float>::lerp, COMDAT
; _this$ = eax
; _c1$ = edx
; _c2$ = ecx
; _t$ = xmm1s

; 218  : 		T invt = 1.f-t;
; 219  : 		r = c1.r*invt + c2.r*t;

	movss	xmm2, DWORD PTR [edx]
	movss	xmm3, DWORD PTR [ecx]
	movss	xmm0, DWORD PTR __real@3f800000
	subss	xmm0, xmm1
	mulss	xmm2, xmm0
	mulss	xmm3, xmm1
	addss	xmm2, xmm3
	movss	DWORD PTR [eax], xmm2

; 220  : 		g = c1.g*invt + c2.g*t;

	movss	xmm2, DWORD PTR [edx+4]
	movss	xmm3, DWORD PTR [ecx+4]
	mulss	xmm2, xmm0
	mulss	xmm3, xmm1
	addss	xmm2, xmm3
	movss	DWORD PTR [eax+4], xmm2

; 221  : 		b = c1.b*invt + c2.b*t;

	movss	xmm2, DWORD PTR [edx+8]
	movss	xmm3, DWORD PTR [ecx+8]
	mulss	xmm2, xmm0
	mulss	xmm3, xmm1
	addss	xmm2, xmm3
	movss	DWORD PTR [eax+8], xmm2

; 222  : 		a = c1.a*invt + c2.a*t;

	movss	xmm2, DWORD PTR [edx+12]
	mulss	xmm2, xmm0
	movss	xmm0, DWORD PTR [ecx+12]
	mulss	xmm0, xmm1
	addss	xmm2, xmm0
	movss	DWORD PTR [eax+12], xmm2

; 223  : 		return *this;
; 224  : 	}

	ret	0
?lerp@?$_color@M@@QAEAAU1@ABU1@0M@Z ENDP		; _color<float>::lerp
; Function compile flags: /Ogtpy
;	COMDAT ?subst_alpha@@YAIII@Z
_TEXT	SEGMENT
?subst_alpha@@YAIII@Z PROC				; subst_alpha, COMDAT
; _rgba$ = eax
; _a$ = ecx

; 21   : ICF u32 subst_alpha	(u32 rgba, u32 a)				{	return rgba&~color_rgba(0,0,0,0xff)|color_rgba(0,0,0,a);}

	and	eax, 16777215				; 00ffffffH
	shl	ecx, 24					; 00000018H
	or	eax, ecx
	ret	0
?subst_alpha@@YAIII@Z ENDP				; subst_alpha
; Function compile flags: /Ogtpy
_TEXT	ENDS
;	COMDAT ?bgr2rgb@@YAII@Z
_TEXT	SEGMENT
?bgr2rgb@@YAII@Z PROC					; bgr2rgb, COMDAT
; _bgr$ = ecx

; 22   : ICF u32 bgr2rgb		(u32 bgr)						{	return color_rgba(color_get_B(bgr),color_get_G(bgr),color_get_R(bgr),0);}

	mov	eax, ecx
	movzx	edx, cl
	shr	eax, 16					; 00000010H
	and	eax, 255				; 000000ffH
	shl	edx, 16					; 00000010H
	or	eax, edx
	and	ecx, 65280				; 0000ff00H
	or	eax, ecx
	ret	0
?bgr2rgb@@YAII@Z ENDP					; bgr2rgb
; Function compile flags: /Ogtpy
; File d:\clearsky\sources\engine\xrcore\xrstring.h
_TEXT	ENDS
;	COMDAT ?xr_strcmp@@YAHABVshared_str@@PBD@Z
_TEXT	SEGMENT
?xr_strcmp@@YAHABVshared_str@@PBD@Z PROC		; xr_strcmp, COMDAT
; _a$ = eax
; _b$ = ecx

; 116  : IC int	xr_strcmp		(const shared_str & a, const char* b)				{ return xr_strcmp(*a,b);	}

	mov	eax, DWORD PTR [eax]
	test	eax, eax
	je	SHORT $LN5@xr_strcmp@2
	add	eax, 16					; 00000010H
	jmp	SHORT $LL9@xr_strcmp@2
$LN5@xr_strcmp@2:
	xor	eax, eax
	npad	3
$LL9@xr_strcmp@2:
	mov	dl, BYTE PTR [eax]
	cmp	dl, BYTE PTR [ecx]
	jne	SHORT $LN10@xr_strcmp@2
	test	dl, dl
	je	SHORT $LN11@xr_strcmp@2
	mov	dl, BYTE PTR [eax+1]
	cmp	dl, BYTE PTR [ecx+1]
	jne	SHORT $LN10@xr_strcmp@2
	add	eax, 2
	add	ecx, 2
	test	dl, dl
	jne	SHORT $LL9@xr_strcmp@2
$LN11@xr_strcmp@2:
	xor	eax, eax
	ret	0
$LN10@xr_strcmp@2:
	sbb	eax, eax
	sbb	eax, -1
	ret	0
?xr_strcmp@@YAHABVshared_str@@PBD@Z ENDP		; xr_strcmp
_TEXT	ENDS
PUBLIC	__real@437f0000
;	COMDAT __real@437f0000
; File d:\clearsky\sources\engine\xrcore\_color.h
CONST	SEGMENT
__real@437f0000 DD 0437f0000r			; 255
; Function compile flags: /Ogtpy
CONST	ENDS
;	COMDAT ?color_argb_f@@YAIMMMM@Z
_TEXT	SEGMENT
_a$239967 = -4						; size = 4
__r$ = -4						; size = 4
_a$ = 8							; size = 4
_a$239982 = 12						; size = 4
__g$ = 12						; size = 4
_g$ = 12						; size = 4
_a$240012 = 16						; size = 4
_a$239997 = 16						; size = 4
_b$ = 16						; size = 4
?color_argb_f@@YAIMMMM@Z PROC				; color_argb_f, COMDAT
; _r$ = xmm1s

; 8    : {

	push	ecx

; 9    : 	s32	 _r = clampr(iFloor(r*255.f),0,255);

	movss	xmm0, DWORD PTR __real@437f0000
	push	ebx
	mulss	xmm1, xmm0
	push	esi
	movss	DWORD PTR _a$239967[esp+12], xmm1
	mov	esi, DWORD PTR _a$239967[esp+12]
	mov	eax, esi
	sar	eax, 23					; 00000017H
	and	eax, 255				; 000000ffH
	mov	edx, esi
	or	edx, -8388608				; ff800000H
	shl	edx, 8
	mov	ecx, 158				; 0000009eH
	sub	ecx, eax
	shr	edx, cl
	sub	ecx, 96					; 00000060H
	mov	eax, 1
	shl	eax, cl
	sub	eax, 1
	sar	eax, 8
	and	eax, esi
	neg	eax
	sbb	eax, eax
	add	eax, 1
	sar	esi, 31					; 0000001fH
	and	eax, esi
	add	ecx, 64					; 00000040H
	sub	edx, eax
	sar	ecx, 31					; 0000001fH
	and	edx, ecx
	xor	edx, esi
	jge	SHORT $LN8@color_argb
	mov	DWORD PTR __r$[esp+12], 0
	jmp	SHORT $LN5@color_argb
$LN8@color_argb:
	cmp	edx, 255				; 000000ffH
	mov	DWORD PTR __r$[esp+12], 255		; 000000ffH
	jg	SHORT $LN5@color_argb
	mov	DWORD PTR __r$[esp+12], edx
$LN5@color_argb:

; 10   : 	s32	 _g = clampr(iFloor(g*255.f),0,255);

	movss	xmm1, DWORD PTR _g$[esp+8]
	mulss	xmm1, xmm0
	movss	DWORD PTR _a$239982[esp+8], xmm1
	mov	esi, DWORD PTR _a$239982[esp+8]
	mov	edx, esi
	sar	edx, 23					; 00000017H
	and	edx, 255				; 000000ffH
	mov	ecx, 158				; 0000009eH
	sub	ecx, edx
	mov	edx, esi
	or	edx, -8388608				; ff800000H
	shl	edx, 8
	shr	edx, cl
	sub	ecx, 96					; 00000060H
	mov	eax, 1
	shl	eax, cl
	sub	eax, 1
	sar	eax, 8
	and	eax, esi
	neg	eax
	sbb	eax, eax
	add	eax, 1
	sar	esi, 31					; 0000001fH
	and	eax, esi
	add	ecx, 64					; 00000040H
	sub	edx, eax
	sar	ecx, 31					; 0000001fH
	and	edx, ecx
	xor	edx, esi
	jge	SHORT $LN16@color_argb
	mov	DWORD PTR __g$[esp+8], 0
	jmp	SHORT $LN13@color_argb
$LN16@color_argb:
	cmp	edx, 255				; 000000ffH
	mov	DWORD PTR __g$[esp+8], 255		; 000000ffH
	jg	SHORT $LN13@color_argb
	mov	DWORD PTR __g$[esp+8], edx
$LN13@color_argb:

; 11   : 	s32	 _b = clampr(iFloor(b*255.f),0,255);

	movss	xmm1, DWORD PTR _b$[esp+8]
	mulss	xmm1, xmm0
	movss	DWORD PTR _a$239997[esp+8], xmm1
	mov	esi, DWORD PTR _a$239997[esp+8]
	mov	eax, esi
	sar	eax, 23					; 00000017H
	and	eax, 255				; 000000ffH
	mov	edx, esi
	or	edx, -8388608				; ff800000H
	shl	edx, 8
	mov	ecx, 158				; 0000009eH
	sub	ecx, eax
	shr	edx, cl
	sub	ecx, 96					; 00000060H
	mov	eax, 1
	shl	eax, cl
	sub	eax, 1
	sar	eax, 8
	and	eax, esi
	neg	eax
	sbb	eax, eax
	add	eax, 1
	sar	esi, 31					; 0000001fH
	and	eax, esi
	add	ecx, 64					; 00000040H
	sub	edx, eax
	sar	ecx, 31					; 0000001fH
	and	edx, ecx
	xor	edx, esi
	jge	SHORT $LN24@color_argb
	xor	ebx, ebx
	jmp	SHORT $LN21@color_argb
$LN24@color_argb:
	cmp	edx, 255				; 000000ffH
	mov	ebx, 255				; 000000ffH
	jg	SHORT $LN21@color_argb
	mov	ebx, edx
$LN21@color_argb:

; 12   : 	s32	 _a = clampr(iFloor(a*255.f),0,255);

	movss	xmm1, DWORD PTR _a$[esp+8]
	mulss	xmm1, xmm0
	movss	DWORD PTR _a$240012[esp+8], xmm1
	mov	esi, DWORD PTR _a$240012[esp+8]
	mov	edx, esi
	sar	edx, 23					; 00000017H
	and	edx, 255				; 000000ffH
	mov	ecx, 158				; 0000009eH
	sub	ecx, edx
	mov	edx, esi
	or	edx, -8388608				; ff800000H
	shl	edx, 8
	shr	edx, cl
	sub	ecx, 96					; 00000060H
	mov	eax, 1
	shl	eax, cl
	sub	eax, 1
	sar	eax, 8
	and	eax, esi
	neg	eax
	sbb	eax, eax
	add	eax, 1
	sar	esi, 31					; 0000001fH
	add	ecx, 64					; 00000040H
	and	eax, esi
	sar	ecx, 31					; 0000001fH
	sub	edx, eax
	and	edx, ecx
	xor	edx, esi
	mov	ecx, edx
	jge	SHORT $LN32@color_argb
	xor	ecx, ecx
	jmp	SHORT $LN30@color_argb
$LN32@color_argb:
	cmp	ecx, 255				; 000000ffH
	jle	SHORT $LN30@color_argb
	mov	ecx, 255				; 000000ffH
$LN30@color_argb:

; 13   : 	return color_argb(_a,_r,_g,_b);

	movzx	eax, BYTE PTR __r$[esp+12]
	shl	ecx, 8
	or	eax, ecx
	movzx	ecx, BYTE PTR __g$[esp+8]
	shl	eax, 8
	or	eax, ecx
	movzx	edx, bl
	shl	eax, 8
	pop	esi
	or	eax, edx
	pop	ebx

; 14   : }

	pop	ecx
	ret	0
?color_argb_f@@YAIMMMM@Z ENDP				; color_argb_f
; Function compile flags: /Ogtpy
_TEXT	ENDS
;	COMDAT ?color_rgba_f@@YAIMMMM@Z
_TEXT	SEGMENT
_a$240123 = -4						; size = 4
__r$240173 = -4						; size = 4
_a$240135 = 8						; size = 4
__g$240174 = 8						; size = 4
_g$ = 8							; size = 4
_a$240159 = 12						; size = 4
_a$240147 = 12						; size = 4
_b$ = 12						; size = 4
_a$ = 16						; size = 4
?color_rgba_f@@YAIMMMM@Z PROC				; color_rgba_f, COMDAT
; _r$ = xmm1s

; 15   : ICF u32	color_rgba_f(f32 r, f32 g, f32 b, f32 a)	{	return color_argb_f(a,r,g,b);	}

	push	ecx
	movss	xmm0, DWORD PTR __real@437f0000
	push	ebx
	mulss	xmm1, xmm0
	push	esi
	movss	DWORD PTR _a$240123[esp+12], xmm1
	mov	esi, DWORD PTR _a$240123[esp+12]
	mov	eax, esi
	sar	eax, 23					; 00000017H
	and	eax, 255				; 000000ffH
	mov	edx, esi
	or	edx, -8388608				; ff800000H
	shl	edx, 8
	mov	ecx, 158				; 0000009eH
	sub	ecx, eax
	shr	edx, cl
	sub	ecx, 96					; 00000060H
	mov	eax, 1
	shl	eax, cl
	sub	eax, 1
	sar	eax, 8
	and	eax, esi
	neg	eax
	sbb	eax, eax
	add	eax, 1
	sar	esi, 31					; 0000001fH
	and	eax, esi
	add	ecx, 64					; 00000040H
	sub	edx, eax
	sar	ecx, 31					; 0000001fH
	and	edx, ecx
	xor	edx, esi
	jge	SHORT $LN10@color_rgba
	mov	DWORD PTR __r$240173[esp+12], 0
	jmp	SHORT $LN7@color_rgba
$LN10@color_rgba:
	cmp	edx, 255				; 000000ffH
	mov	DWORD PTR __r$240173[esp+12], 255	; 000000ffH
	jg	SHORT $LN7@color_rgba
	mov	DWORD PTR __r$240173[esp+12], edx
$LN7@color_rgba:
	movss	xmm1, DWORD PTR _g$[esp+8]
	mulss	xmm1, xmm0
	movss	DWORD PTR _a$240135[esp+8], xmm1
	mov	esi, DWORD PTR _a$240135[esp+8]
	mov	edx, esi
	sar	edx, 23					; 00000017H
	and	edx, 255				; 000000ffH
	mov	ecx, 158				; 0000009eH
	sub	ecx, edx
	mov	edx, esi
	or	edx, -8388608				; ff800000H
	shl	edx, 8
	shr	edx, cl
	sub	ecx, 96					; 00000060H
	mov	eax, 1
	shl	eax, cl
	sub	eax, 1
	sar	eax, 8
	and	eax, esi
	neg	eax
	sbb	eax, eax
	add	eax, 1
	sar	esi, 31					; 0000001fH
	and	eax, esi
	add	ecx, 64					; 00000040H
	sub	edx, eax
	sar	ecx, 31					; 0000001fH
	and	edx, ecx
	xor	edx, esi
	jge	SHORT $LN18@color_rgba
	mov	DWORD PTR __g$240174[esp+8], 0
	jmp	SHORT $LN15@color_rgba
$LN18@color_rgba:
	cmp	edx, 255				; 000000ffH
	mov	DWORD PTR __g$240174[esp+8], 255	; 000000ffH
	jg	SHORT $LN15@color_rgba
	mov	DWORD PTR __g$240174[esp+8], edx
$LN15@color_rgba:
	movss	xmm1, DWORD PTR _b$[esp+8]
	mulss	xmm1, xmm0
	movss	DWORD PTR _a$240147[esp+8], xmm1
	mov	esi, DWORD PTR _a$240147[esp+8]
	mov	eax, esi
	sar	eax, 23					; 00000017H
	and	eax, 255				; 000000ffH
	mov	edx, esi
	or	edx, -8388608				; ff800000H
	shl	edx, 8
	mov	ecx, 158				; 0000009eH
	sub	ecx, eax
	shr	edx, cl
	sub	ecx, 96					; 00000060H
	mov	eax, 1
	shl	eax, cl
	sub	eax, 1
	sar	eax, 8
	and	eax, esi
	neg	eax
	sbb	eax, eax
	add	eax, 1
	sar	esi, 31					; 0000001fH
	and	eax, esi
	add	ecx, 64					; 00000040H
	sub	edx, eax
	sar	ecx, 31					; 0000001fH
	and	edx, ecx
	xor	edx, esi
	jge	SHORT $LN26@color_rgba
	xor	ebx, ebx
	jmp	SHORT $LN23@color_rgba
$LN26@color_rgba:
	cmp	edx, 255				; 000000ffH
	mov	ebx, 255				; 000000ffH
	jg	SHORT $LN23@color_rgba
	mov	ebx, edx
$LN23@color_rgba:
	movss	xmm1, DWORD PTR _a$[esp+8]
	mulss	xmm1, xmm0
	movss	DWORD PTR _a$240159[esp+8], xmm1
	mov	esi, DWORD PTR _a$240159[esp+8]
	mov	edx, esi
	sar	edx, 23					; 00000017H
	and	edx, 255				; 000000ffH
	mov	ecx, 158				; 0000009eH
	sub	ecx, edx
	mov	edx, esi
	or	edx, -8388608				; ff800000H
	shl	edx, 8
	shr	edx, cl
	sub	ecx, 96					; 00000060H
	mov	eax, 1
	shl	eax, cl
	sub	eax, 1
	sar	eax, 8
	and	eax, esi
	neg	eax
	sbb	eax, eax
	add	eax, 1
	sar	esi, 31					; 0000001fH
	add	ecx, 64					; 00000040H
	and	eax, esi
	sar	ecx, 31					; 0000001fH
	sub	edx, eax
	and	edx, ecx
	xor	edx, esi
	mov	ecx, edx
	jge	SHORT $LN34@color_rgba
	xor	ecx, ecx
	jmp	SHORT $LN32@color_rgba
$LN34@color_rgba:
	cmp	ecx, 255				; 000000ffH
	jle	SHORT $LN32@color_rgba
	mov	ecx, 255				; 000000ffH
$LN32@color_rgba:
	movzx	eax, BYTE PTR __r$240173[esp+12]
	shl	ecx, 8
	or	eax, ecx
	movzx	ecx, BYTE PTR __g$240174[esp+8]
	shl	eax, 8
	or	eax, ecx
	movzx	edx, bl
	shl	eax, 8
	pop	esi
	or	eax, edx
	pop	ebx
	pop	ecx
	ret	0
?color_rgba_f@@YAIMMMM@Z ENDP				; color_rgba_f
; Function compile flags: /Ogtpy
; File d:\clearsky\sources\sdk\include\stlport\stl\_pair.h
_TEXT	ENDS
;	COMDAT ??0?$pair@U?$_Rb_tree_iterator@U?$pair@$$CBHI@stlp_std@@U?$_MapTraitsT@U?$pair@$$CBHI@stlp_std@@@priv@2@@priv@stlp_std@@_N@stlp_std@@QAE@ABU?$_Rb_tree_iterator@U?$pair@$$CBHI@stlp_std@@U?$_MapTraitsT@U?$pair@$$CBHI@stlp_std@@@priv@2@@priv@1@AB_N@Z
_TEXT	SEGMENT
___b$ = 8						; size = 4
??0?$pair@U?$_Rb_tree_iterator@U?$pair@$$CBHI@stlp_std@@U?$_MapTraitsT@U?$pair@$$CBHI@stlp_std@@@priv@2@@priv@stlp_std@@_N@stlp_std@@QAE@ABU?$_Rb_tree_iterator@U?$pair@$$CBHI@stlp_std@@U?$_MapTraitsT@U?$pair@$$CBHI@stlp_std@@@priv@2@@priv@1@AB_N@Z PROC ; stlp_std::pair<stlp_std::priv::_Rb_tree_iterator<stlp_std::pair<int const ,unsigned int>,stlp_std::priv::_MapTraitsT<stlp_std::pair<int const ,unsigned int> > >,bool>::pair<stlp_std::priv::_Rb_tree_iterator<stlp_std::pair<int const ,unsigned int>,stlp_std::priv::_MapTraitsT<stlp_std::pair<int const ,unsigned int> > >,bool>, COMDAT
; _this$ = esi
; ___a$ = eax

; 56   :   pair(const _T1& __a, const _T2& __b) : first(__a), second(__b) {}

	push	eax
	mov	ecx, esi
	call	??0?$_Rb_tree_iterator@U?$pair@$$CBHI@stlp_std@@U?$_MapTraitsT@U?$pair@$$CBHI@stlp_std@@@priv@2@@priv@stlp_std@@QAE@ABU012@@Z ; stlp_std::priv::_Rb_tree_iterator<stlp_std::pair<int const ,unsigned int>,stlp_std::priv::_MapTraitsT<stlp_std::pair<int const ,unsigned int> > >::_Rb_tree_iterator<stlp_std::pair<int const ,unsigned int>,stlp_std::priv::_MapTraitsT<stlp_std::pair<int const ,unsigned int> > >
	mov	ecx, DWORD PTR ___b$[esp-4]
	mov	dl, BYTE PTR [ecx]
	mov	BYTE PTR [esi+4], dl
	mov	eax, esi
	ret	4
??0?$pair@U?$_Rb_tree_iterator@U?$pair@$$CBHI@stlp_std@@U?$_MapTraitsT@U?$pair@$$CBHI@stlp_std@@@priv@2@@priv@stlp_std@@_N@stlp_std@@QAE@ABU?$_Rb_tree_iterator@U?$pair@$$CBHI@stlp_std@@U?$_MapTraitsT@U?$pair@$$CBHI@stlp_std@@@priv@2@@priv@1@AB_N@Z ENDP ; stlp_std::pair<stlp_std::priv::_Rb_tree_iterator<stlp_std::pair<int const ,unsigned int>,stlp_std::priv::_MapTraitsT<stlp_std::pair<int const ,unsigned int> > >,bool>::pair<stlp_std::priv::_Rb_tree_iterator<stlp_std::pair<int const ,unsigned int>,stlp_std::priv::_MapTraitsT<stlp_std::pair<int const ,unsigned int> > >,bool>
; Function compile flags: /Ogtpy
; File d:\clearsky\sources\sdk\include\stlport\stl\pointers\_tools.h
_TEXT	ENDS
;	COMDAT ?to_storage_type_cref@?$_CastTraits@PAXPAVCLAItem@@@priv@stlp_std@@SAABQAXABQAVCLAItem@@@Z
_TEXT	SEGMENT
?to_storage_type_cref@?$_CastTraits@PAXPAVCLAItem@@@priv@stlp_std@@SAABQAXABQAVCLAItem@@@Z PROC ; stlp_std::priv::_CastTraits<void *,CLAItem *>::to_storage_type_cref, COMDAT
; ___ref$ = eax

; 224  :   { return cv_traits::uncv_cref(__REINTERPRET_CAST(void_cv_type const&, __ref)); }

	ret	0
?to_storage_type_cref@?$_CastTraits@PAXPAVCLAItem@@@priv@stlp_std@@SAABQAXABQAVCLAItem@@@Z ENDP ; stlp_std::priv::_CastTraits<void *,CLAItem *>::to_storage_type_cref
; Function compile flags: /Ogtpy
_TEXT	ENDS
;	COMDAT ?to_value_type_ptr@?$_CastTraits@PAXPAVCLAItem@@@priv@stlp_std@@SAPAPAVCLAItem@@PAPAX@Z
_TEXT	SEGMENT
?to_value_type_ptr@?$_CastTraits@PAXPAVCLAItem@@@priv@stlp_std@@SAPAPAVCLAItem@@PAPAX@Z PROC ; stlp_std::priv::_CastTraits<void *,CLAItem *>::to_value_type_ptr, COMDAT
; ___ptr$ = eax

; 207  :   { return __REINTERPRET_CAST(value_type *, cv_traits::cv_ptr(__ptr)); }

	push	eax
	call	?cv_ptr@?$_VoidCastTraitsAux@PAXPAX@priv@stlp_std@@SAPAPAXPAPAX@Z ; stlp_std::priv::_VoidCastTraitsAux<void *,void *>::cv_ptr
	add	esp, 4
	ret	0
?to_value_type_ptr@?$_CastTraits@PAXPAVCLAItem@@@priv@stlp_std@@SAPAPAVCLAItem@@PAPAX@Z ENDP ; stlp_std::priv::_CastTraits<void *,CLAItem *>::to_value_type_ptr
; Function compile flags: /Ogtpy
; File d:\clearsky\sources\sdk\include\stlport\stl\_tree.h
_TEXT	ENDS
;	COMDAT ??0?$_Rb_tree@HU?$less@H@stlp_std@@U?$pair@$$CBHI@2@U?$_Select1st@U?$pair@$$CBHI@stlp_std@@@priv@2@U?$_MapTraitsT@U?$pair@$$CBHI@stlp_std@@@52@V?$xalloc@U?$pair@HI@stlp_std@@@@@priv@stlp_std@@QAE@ABU?$less@H@2@ABV?$xalloc@U?$pair@$$CBHI@stlp_std@@@@@Z
_TEXT	SEGMENT
___comp$ = 8						; size = 4
??0?$_Rb_tree@HU?$less@H@stlp_std@@U?$pair@$$CBHI@2@U?$_Select1st@U?$pair@$$CBHI@stlp_std@@@priv@2@U?$_MapTraitsT@U?$pair@$$CBHI@stlp_std@@@52@V?$xalloc@U?$pair@HI@stlp_std@@@@@priv@stlp_std@@QAE@ABU?$less@H@2@ABV?$xalloc@U?$pair@$$CBHI@stlp_std@@@@@Z PROC ; stlp_std::priv::_Rb_tree<int,stlp_std::less<int>,stlp_std::pair<int const ,unsigned int>,stlp_std::priv::_Select1st<stlp_std::pair<int const ,unsigned int> >,stlp_std::priv::_MapTraitsT<stlp_std::pair<int const ,unsigned int> >,xalloc<stlp_std::pair<int,unsigned int> > >::_Rb_tree<int,stlp_std::less<int>,stlp_std::pair<int const ,unsigned int>,stlp_std::priv::_Select1st<stlp_std::pair<int const ,unsigned int> >,stlp_std::priv::_MapTraitsT<stlp_std::pair<int const ,unsigned int> >,xalloc<stlp_std::pair<int,unsigned int> > >, COMDAT
; _this$ = esi
; ___a$ = eax

; 388  :     {}

	push	eax
	mov	ecx, esi
	call	??0?$_Rb_tree_base@U?$pair@$$CBHI@stlp_std@@V?$xalloc@U?$pair@HI@stlp_std@@@@@priv@stlp_std@@IAE@ABV?$xalloc@U?$pair@$$CBHI@stlp_std@@@@@Z ; stlp_std::priv::_Rb_tree_base<stlp_std::pair<int const ,unsigned int>,xalloc<stlp_std::pair<int,unsigned int> > >::_Rb_tree_base<stlp_std::pair<int const ,unsigned int>,xalloc<stlp_std::pair<int,unsigned int> > >
	mov	ecx, DWORD PTR ___comp$[esp-4]
	mov	DWORD PTR [esi+16], 0
	mov	dl, BYTE PTR [ecx]
	mov	BYTE PTR [esi+20], dl
	mov	eax, esi
	ret	4
??0?$_Rb_tree@HU?$less@H@stlp_std@@U?$pair@$$CBHI@2@U?$_Select1st@U?$pair@$$CBHI@stlp_std@@@priv@2@U?$_MapTraitsT@U?$pair@$$CBHI@stlp_std@@@52@V?$xalloc@U?$pair@HI@stlp_std@@@@@priv@stlp_std@@QAE@ABU?$less@H@2@ABV?$xalloc@U?$pair@$$CBHI@stlp_std@@@@@Z ENDP ; stlp_std::priv::_Rb_tree<int,stlp_std::less<int>,stlp_std::pair<int const ,unsigned int>,stlp_std::priv::_Select1st<stlp_std::pair<int const ,unsigned int> >,stlp_std::priv::_MapTraitsT<stlp_std::pair<int const ,unsigned int> >,xalloc<stlp_std::pair<int,unsigned int> > >::_Rb_tree<int,stlp_std::less<int>,stlp_std::pair<int const ,unsigned int>,stlp_std::priv::_Select1st<stlp_std::pair<int const ,unsigned int> >,stlp_std::priv::_MapTraitsT<stlp_std::pair<int const ,unsigned int> >,xalloc<stlp_std::pair<int,unsigned int> > >
; Function compile flags: /Ogtpy
; File d:\clearsky\sources\sdk\include\stlport\stl\pointers\_vector.h
_TEXT	ENDS
;	COMDAT ?end@?$vector@PAVCLAItem@@V?$xalloc@PAVCLAItem@@@@@stlp_std@@QAEPAPAVCLAItem@@XZ
_TEXT	SEGMENT
?end@?$vector@PAVCLAItem@@V?$xalloc@PAVCLAItem@@@@@stlp_std@@QAEPAPAVCLAItem@@XZ PROC ; stlp_std::vector<CLAItem *,xalloc<CLAItem *> >::end, COMDAT
; _this$ = eax

; 81   :   iterator end()               { return cast_traits::to_value_type_ptr(_M_impl.end()); }

	mov	eax, DWORD PTR [eax+4]
	push	eax
	call	?cv_ptr@?$_VoidCastTraitsAux@PAXPAX@priv@stlp_std@@SAPAPAXPAPAX@Z ; stlp_std::priv::_VoidCastTraitsAux<void *,void *>::cv_ptr
	add	esp, 4
	ret	0
?end@?$vector@PAVCLAItem@@V?$xalloc@PAVCLAItem@@@@@stlp_std@@QAEPAPAVCLAItem@@XZ ENDP ; stlp_std::vector<CLAItem *,xalloc<CLAItem *> >::end
; Function compile flags: /Ogtpy
_TEXT	ENDS
;	COMDAT ?begin@?$vector@PAVCLAItem@@V?$xalloc@PAVCLAItem@@@@@stlp_std@@QAEPAPAVCLAItem@@XZ
_TEXT	SEGMENT
?begin@?$vector@PAVCLAItem@@V?$xalloc@PAVCLAItem@@@@@stlp_std@@QAEPAPAVCLAItem@@XZ PROC ; stlp_std::vector<CLAItem *,xalloc<CLAItem *> >::begin, COMDAT
; _this$ = eax

; 79   :   iterator begin()             { return cast_traits::to_value_type_ptr(_M_impl.begin()); }

	mov	eax, DWORD PTR [eax]
	push	eax
	call	?cv_ptr@?$_VoidCastTraitsAux@PAXPAX@priv@stlp_std@@SAPAPAXPAPAX@Z ; stlp_std::priv::_VoidCastTraitsAux<void *,void *>::cv_ptr
	add	esp, 4
	ret	0
?begin@?$vector@PAVCLAItem@@V?$xalloc@PAVCLAItem@@@@@stlp_std@@QAEPAPAVCLAItem@@XZ ENDP ; stlp_std::vector<CLAItem *,xalloc<CLAItem *> >::begin
; Function compile flags: /Ogtpy
; File d:\clearsky\sources\sdk\include\stlport\stl\_tree.h
_TEXT	ENDS
;	COMDAT ??F?$_Rb_tree_iterator@U?$pair@$$CBHI@stlp_std@@U?$_MapTraitsT@U?$pair@$$CBHI@stlp_std@@@priv@2@@priv@stlp_std@@QAE?AU012@H@Z
_TEXT	SEGMENT
??F?$_Rb_tree_iterator@U?$pair@$$CBHI@stlp_std@@U?$_MapTraitsT@U?$pair@$$CBHI@stlp_std@@@priv@2@@priv@stlp_std@@QAE?AU012@H@Z PROC ; stlp_std::priv::_Rb_tree_iterator<stlp_std::pair<int const ,unsigned int>,stlp_std::priv::_MapTraitsT<stlp_std::pair<int const ,unsigned int> > >::operator--, COMDAT
; _this$ = edi
; ___$ReturnUdt$ = esi

; 191  :     _Self __tmp = *this;

	push	edi
	mov	ecx, esi
	call	??0?$_Rb_tree_iterator@U?$pair@$$CBHI@stlp_std@@U?$_MapTraitsT@U?$pair@$$CBHI@stlp_std@@@priv@2@@priv@stlp_std@@QAE@ABU012@@Z ; stlp_std::priv::_Rb_tree_iterator<stlp_std::pair<int const ,unsigned int>,stlp_std::priv::_MapTraitsT<stlp_std::pair<int const ,unsigned int> > >::_Rb_tree_iterator<stlp_std::pair<int const ,unsigned int>,stlp_std::priv::_MapTraitsT<stlp_std::pair<int const ,unsigned int> > >

; 192  :     --(*this);

	mov	ecx, edi
	call	??F?$_Rb_tree_iterator@U?$pair@$$CBHI@stlp_std@@U?$_MapTraitsT@U?$pair@$$CBHI@stlp_std@@@priv@2@@priv@stlp_std@@QAEAAU012@XZ ; stlp_std::priv::_Rb_tree_iterator<stlp_std::pair<int const ,unsigned int>,stlp_std::priv::_MapTraitsT<stlp_std::pair<int const ,unsigned int> > >::operator--

; 193  :     return __tmp;

	mov	eax, esi

; 194  :   }

	ret	0
??F?$_Rb_tree_iterator@U?$pair@$$CBHI@stlp_std@@U?$_MapTraitsT@U?$pair@$$CBHI@stlp_std@@@priv@2@@priv@stlp_std@@QAE?AU012@H@Z ENDP ; stlp_std::priv::_Rb_tree_iterator<stlp_std::pair<int const ,unsigned int>,stlp_std::priv::_MapTraitsT<stlp_std::pair<int const ,unsigned int> > >::operator--
; Function compile flags: /Ogtpy
_TEXT	ENDS
;	COMDAT ??0?$_Rb_tree_iterator@U?$pair@$$CBHI@stlp_std@@U?$_MapTraitsT@U?$pair@$$CBHI@stlp_std@@@priv@2@@priv@stlp_std@@QAE@XZ
_TEXT	SEGMENT
??0?$_Rb_tree_iterator@U?$pair@$$CBHI@stlp_std@@U?$_MapTraitsT@U?$pair@$$CBHI@stlp_std@@@priv@2@@priv@stlp_std@@QAE@XZ PROC ; stlp_std::priv::_Rb_tree_iterator<stlp_std::pair<int const ,unsigned int>,stlp_std::priv::_MapTraitsT<stlp_std::pair<int const ,unsigned int> > >::_Rb_tree_iterator<stlp_std::pair<int const ,unsigned int>,stlp_std::priv::_MapTraitsT<stlp_std::pair<int const ,unsigned int> > >, COMDAT
; _this$ = eax

; 159  :   _Rb_tree_iterator() {}

	mov	DWORD PTR [eax], 0
	ret	0
??0?$_Rb_tree_iterator@U?$pair@$$CBHI@stlp_std@@U?$_MapTraitsT@U?$pair@$$CBHI@stlp_std@@@priv@2@@priv@stlp_std@@QAE@XZ ENDP ; stlp_std::priv::_Rb_tree_iterator<stlp_std::pair<int const ,unsigned int>,stlp_std::priv::_MapTraitsT<stlp_std::pair<int const ,unsigned int> > >::_Rb_tree_iterator<stlp_std::pair<int const ,unsigned int>,stlp_std::priv::_MapTraitsT<stlp_std::pair<int const ,unsigned int> > >
; Function compile flags: /Ogtpy
; File d:\clearsky\sources\sdk\include\stlport\stl\_map.h
_TEXT	ENDS
;	COMDAT ??0?$map@HIU?$less@H@stlp_std@@V?$xalloc@U?$pair@HI@stlp_std@@@@@stlp_std@@QAE@XZ
_TEXT	SEGMENT
$T240239 = -1						; size = 1
$T240238 = -1						; size = 1
??0?$map@HIU?$less@H@stlp_std@@V?$xalloc@U?$pair@HI@stlp_std@@@@@stlp_std@@QAE@XZ PROC ; stlp_std::map<int,unsigned int,stlp_std::less<int>,xalloc<stlp_std::pair<int,unsigned int> > >::map<int,unsigned int,stlp_std::less<int>,xalloc<stlp_std::pair<int,unsigned int> > >, COMDAT
; _this$ = esi

; 99   :   map() : _M_t(_Compare(), allocator_type()) {}

	push	ecx
	lea	eax, DWORD PTR $T240238[esp+4]
	push	eax
	mov	ecx, esi
	call	??0?$_Rb_tree_base@U?$pair@$$CBHI@stlp_std@@V?$xalloc@U?$pair@HI@stlp_std@@@@@priv@stlp_std@@IAE@ABV?$xalloc@U?$pair@$$CBHI@stlp_std@@@@@Z ; stlp_std::priv::_Rb_tree_base<stlp_std::pair<int const ,unsigned int>,xalloc<stlp_std::pair<int,unsigned int> > >::_Rb_tree_base<stlp_std::pair<int const ,unsigned int>,xalloc<stlp_std::pair<int,unsigned int> > >
	mov	cl, BYTE PTR $T240239[esp+4]
	mov	DWORD PTR [esi+16], 0
	mov	BYTE PTR [esi+20], cl
	mov	eax, esi
	pop	ecx
	ret	0
??0?$map@HIU?$less@H@stlp_std@@V?$xalloc@U?$pair@HI@stlp_std@@@@@stlp_std@@QAE@XZ ENDP ; stlp_std::map<int,unsigned int,stlp_std::less<int>,xalloc<stlp_std::pair<int,unsigned int> > >::map<int,unsigned int,stlp_std::less<int>,xalloc<stlp_std::pair<int,unsigned int> > >
; Function compile flags: /Ogtpy
; File d:\clearsky\sources\engine\xrcore\_color.h
_TEXT	ENDS
;	COMDAT ?get@?$_color@M@@QBEIXZ
_TEXT	SEGMENT
__r$240422 = -12					; size = 4
_a$240424 = -8						; size = 4
_a$240410 = -8						; size = 4
__g$240431 = -8						; size = 4
_a$240451 = -4						; size = 4
_a$240438 = -4						; size = 4
?get@?$_color@M@@QBEIXZ PROC				; _color<float>::get, COMDAT
; _this$ = eax

; 53   : 	ICF	u32		get( )	const	{ return color_rgba_f(r,g,b,a); }

	sub	esp, 12					; 0000000cH
	movss	xmm4, DWORD PTR [eax]
	movss	xmm0, DWORD PTR [eax+4]
	movss	xmm2, DWORD PTR [eax+8]
	movss	xmm3, DWORD PTR [eax+12]
	movss	xmm1, DWORD PTR __real@437f0000
	push	ebx
	mulss	xmm4, xmm1
	push	esi
	movss	DWORD PTR _a$240410[esp+20], xmm4
	mov	esi, DWORD PTR _a$240410[esp+20]
	mov	eax, esi
	sar	eax, 23					; 00000017H
	and	eax, 255				; 000000ffH
	mov	edx, esi
	or	edx, -8388608				; ff800000H
	shl	edx, 8
	mov	ecx, 158				; 0000009eH
	sub	ecx, eax
	shr	edx, cl
	sub	ecx, 96					; 00000060H
	mov	eax, 1
	shl	eax, cl
	sub	eax, 1
	sar	eax, 8
	and	eax, esi
	neg	eax
	sbb	eax, eax
	add	eax, 1
	sar	esi, 31					; 0000001fH
	and	eax, esi
	add	ecx, 64					; 00000040H
	sub	edx, eax
	sar	ecx, 31					; 0000001fH
	and	edx, ecx
	xor	edx, esi
	jge	SHORT $LN12@get
	mov	DWORD PTR __r$240422[esp+20], 0
	jmp	SHORT $LN9@get
$LN12@get:
	cmp	edx, 255				; 000000ffH
	mov	DWORD PTR __r$240422[esp+20], 255	; 000000ffH
	jg	SHORT $LN9@get
	mov	DWORD PTR __r$240422[esp+20], edx
$LN9@get:
	mulss	xmm0, xmm1
	movss	DWORD PTR _a$240424[esp+20], xmm0
	mov	esi, DWORD PTR _a$240424[esp+20]
	mov	edx, esi
	sar	edx, 23					; 00000017H
	and	edx, 255				; 000000ffH
	mov	ecx, 158				; 0000009eH
	sub	ecx, edx
	mov	edx, esi
	or	edx, -8388608				; ff800000H
	shl	edx, 8
	shr	edx, cl
	sub	ecx, 96					; 00000060H
	mov	eax, 1
	shl	eax, cl
	sub	eax, 1
	sar	eax, 8
	and	eax, esi
	neg	eax
	sbb	eax, eax
	add	eax, 1
	sar	esi, 31					; 0000001fH
	and	eax, esi
	add	ecx, 64					; 00000040H
	sub	edx, eax
	sar	ecx, 31					; 0000001fH
	and	edx, ecx
	xor	edx, esi
	jge	SHORT $LN20@get
	mov	DWORD PTR __g$240431[esp+20], 0
	jmp	SHORT $LN17@get
$LN20@get:
	cmp	edx, 255				; 000000ffH
	mov	DWORD PTR __g$240431[esp+20], 255	; 000000ffH
	jg	SHORT $LN17@get
	mov	DWORD PTR __g$240431[esp+20], edx
$LN17@get:
	mulss	xmm2, xmm1
	movss	DWORD PTR _a$240438[esp+20], xmm2
	mov	esi, DWORD PTR _a$240438[esp+20]
	mov	eax, esi
	sar	eax, 23					; 00000017H
	and	eax, 255				; 000000ffH
	mov	edx, esi
	or	edx, -8388608				; ff800000H
	shl	edx, 8
	mov	ecx, 158				; 0000009eH
	sub	ecx, eax
	shr	edx, cl
	sub	ecx, 96					; 00000060H
	mov	eax, 1
	shl	eax, cl
	sub	eax, 1
	sar	eax, 8
	and	eax, esi
	neg	eax
	sbb	eax, eax
	add	eax, 1
	sar	esi, 31					; 0000001fH
	and	eax, esi
	add	ecx, 64					; 00000040H
	sub	edx, eax
	sar	ecx, 31					; 0000001fH
	and	edx, ecx
	xor	edx, esi
	jge	SHORT $LN28@get
	xor	ebx, ebx
	jmp	SHORT $LN25@get
$LN28@get:
	cmp	edx, 255				; 000000ffH
	mov	ebx, 255				; 000000ffH
	jg	SHORT $LN25@get
	mov	ebx, edx
$LN25@get:
	mulss	xmm3, xmm1
	movss	DWORD PTR _a$240451[esp+20], xmm3
	mov	esi, DWORD PTR _a$240451[esp+20]
	mov	edx, esi
	sar	edx, 23					; 00000017H
	and	edx, 255				; 000000ffH
	mov	ecx, 158				; 0000009eH
	sub	ecx, edx
	mov	edx, esi
	or	edx, -8388608				; ff800000H
	shl	edx, 8
	shr	edx, cl
	sub	ecx, 96					; 00000060H
	mov	eax, 1
	shl	eax, cl
	sub	eax, 1
	sar	eax, 8
	and	eax, esi
	neg	eax
	sbb	eax, eax
	add	eax, 1
	sar	esi, 31					; 0000001fH
	add	ecx, 64					; 00000040H
	and	eax, esi
	sar	ecx, 31					; 0000001fH
	sub	edx, eax
	and	edx, ecx
	xor	edx, esi
	mov	ecx, edx
	jge	SHORT $LN36@get
	xor	ecx, ecx
	jmp	SHORT $LN34@get
$LN36@get:
	cmp	ecx, 255				; 000000ffH
	jle	SHORT $LN34@get
	mov	ecx, 255				; 000000ffH
$LN34@get:
	movzx	eax, BYTE PTR __r$240422[esp+20]
	shl	ecx, 8
	or	eax, ecx
	movzx	ecx, BYTE PTR __g$240431[esp+20]
	shl	eax, 8
	or	eax, ecx
	movzx	edx, bl
	shl	eax, 8
	pop	esi
	or	eax, edx
	pop	ebx
	add	esp, 12					; 0000000cH
	ret	0
?get@?$_color@M@@QBEIXZ ENDP				; _color<float>::get
_TEXT	ENDS
PUBLIC	?FindItemI@ELightAnimLibrary@@QAEPAPAVCLAItem@@PBD@Z ; ELightAnimLibrary::FindItemI
; Function compile flags: /Ogtpy
; File d:\clearsky\sources\engine\xrengine\lightanimlibrary.cpp
;	COMDAT ?FindItemI@ELightAnimLibrary@@QAEPAPAVCLAItem@@PBD@Z
_TEXT	SEGMENT
_name$ = 8						; size = 4
?FindItemI@ELightAnimLibrary@@QAEPAPAVCLAItem@@PBD@Z PROC ; ELightAnimLibrary::FindItemI, COMDAT
; _this$ = ecx

; 260  : {

	push	ebx

; 261  : 	if (name&&name[0])

	mov	ebx, DWORD PTR _name$[esp]
	test	ebx, ebx
	push	esi
	push	edi
	mov	edi, ecx
	je	SHORT $LN2@FindItemI
	cmp	BYTE PTR [ebx], 0
	je	SHORT $LN2@FindItemI

; 262  : 		for (LAItemIt it=Items.begin(); it!=Items.end(); it++)

	mov	eax, DWORD PTR [edi]
	push	eax
	call	?cv_ptr@?$_VoidCastTraitsAux@PAXPAX@priv@stlp_std@@SAPAPAXPAPAX@Z ; stlp_std::priv::_VoidCastTraitsAux<void *,void *>::cv_ptr
	mov	esi, eax
	mov	eax, DWORD PTR [edi+4]
	push	eax
	call	?cv_ptr@?$_VoidCastTraitsAux@PAXPAX@priv@stlp_std@@SAPAPAXPAPAX@Z ; stlp_std::priv::_VoidCastTraitsAux<void *,void *>::cv_ptr
	add	esp, 8
	cmp	esi, eax
	je	SHORT $LN2@FindItemI
	npad	4
$LL4@FindItemI:

; 263  : 			if (0==xr_strcmp((*it)->cName,name)) return it;

	mov	eax, DWORD PTR [esi]
	mov	eax, DWORD PTR [eax]
	test	eax, eax
	je	SHORT $LN28@FindItemI
	add	eax, 16					; 00000010H
	jmp	SHORT $LN29@FindItemI
$LN28@FindItemI:
	xor	eax, eax
$LN29@FindItemI:
	mov	ecx, ebx
$LL43@FindItemI:
	mov	dl, BYTE PTR [eax]
	cmp	dl, BYTE PTR [ecx]
	jne	SHORT $LN44@FindItemI
	test	dl, dl
	je	SHORT $LN45@FindItemI
	mov	dl, BYTE PTR [eax+1]
	cmp	dl, BYTE PTR [ecx+1]
	jne	SHORT $LN44@FindItemI
	add	eax, 2
	add	ecx, 2
	test	dl, dl
	jne	SHORT $LL43@FindItemI
$LN45@FindItemI:
	xor	eax, eax
	jmp	SHORT $LN46@FindItemI
$LN44@FindItemI:
	sbb	eax, eax
	sbb	eax, -1
$LN46@FindItemI:
	test	eax, eax
	je	SHORT $LN41@FindItemI
	mov	eax, DWORD PTR [edi+4]
	push	eax
	add	esi, 4
	call	?cv_ptr@?$_VoidCastTraitsAux@PAXPAX@priv@stlp_std@@SAPAPAXPAPAX@Z ; stlp_std::priv::_VoidCastTraitsAux<void *,void *>::cv_ptr
	add	esp, 4
	cmp	esi, eax
	jne	SHORT $LL4@FindItemI
$LN2@FindItemI:

; 264  : 	return Items.end();

	mov	eax, DWORD PTR [edi+4]
	push	eax
	call	?cv_ptr@?$_VoidCastTraitsAux@PAXPAX@priv@stlp_std@@SAPAPAXPAPAX@Z ; stlp_std::priv::_VoidCastTraitsAux<void *,void *>::cv_ptr
	add	esp, 4
	pop	edi
	pop	esi
	pop	ebx

; 265  : }

	ret	4
$LN41@FindItemI:
	pop	edi

; 263  : 			if (0==xr_strcmp((*it)->cName,name)) return it;

	mov	eax, esi
	pop	esi
	pop	ebx

; 265  : }

	ret	4
?FindItemI@ELightAnimLibrary@@QAEPAPAVCLAItem@@PBD@Z ENDP ; ELightAnimLibrary::FindItemI
; Function compile flags: /Ogtpy
_TEXT	ENDS
;	COMDAT ??0?$xr_map@HIU?$less@H@stlp_std@@V?$xalloc@U?$pair@HI@stlp_std@@@@@@QAE@XZ
_TEXT	SEGMENT
$T240559 = -1						; size = 1
$T240558 = -1						; size = 1
??0?$xr_map@HIU?$less@H@stlp_std@@V?$xalloc@U?$pair@HI@stlp_std@@@@@@QAE@XZ PROC ; xr_map<int,unsigned int,stlp_std::less<int>,xalloc<stlp_std::pair<int,unsigned int> > >::xr_map<int,unsigned int,stlp_std::less<int>,xalloc<stlp_std::pair<int,unsigned int> > >, COMDAT
; _this$ = esi
	push	ecx
	lea	eax, DWORD PTR $T240558[esp+4]
	push	eax
	mov	ecx, esi
	call	??0?$_Rb_tree_base@U?$pair@$$CBHI@stlp_std@@V?$xalloc@U?$pair@HI@stlp_std@@@@@priv@stlp_std@@IAE@ABV?$xalloc@U?$pair@$$CBHI@stlp_std@@@@@Z ; stlp_std::priv::_Rb_tree_base<stlp_std::pair<int const ,unsigned int>,xalloc<stlp_std::pair<int,unsigned int> > >::_Rb_tree_base<stlp_std::pair<int const ,unsigned int>,xalloc<stlp_std::pair<int,unsigned int> > >
	mov	cl, BYTE PTR $T240559[esp+4]
	mov	DWORD PTR [esi+16], 0
	mov	BYTE PTR [esi+20], cl
	mov	eax, esi
	pop	ecx
	ret	0
??0?$xr_map@HIU?$less@H@stlp_std@@V?$xalloc@U?$pair@HI@stlp_std@@@@@@QAE@XZ ENDP ; xr_map<int,unsigned int,stlp_std::less<int>,xalloc<stlp_std::pair<int,unsigned int> > >::xr_map<int,unsigned int,stlp_std::less<int>,xalloc<stlp_std::pair<int,unsigned int> > >
; Function compile flags: /Ogtpy
; File d:\clearsky\sources\sdk\include\stlport\stl\_tree.h
;	COMDAT ??$_M_lower_bound@H@?$_Rb_tree@HU?$less@H@stlp_std@@U?$pair@$$CBHI@2@U?$_Select1st@U?$pair@$$CBHI@stlp_std@@@priv@2@U?$_MapTraitsT@U?$pair@$$CBHI@stlp_std@@@52@V?$xalloc@U?$pair@HI@stlp_std@@@@@priv@stlp_std@@ABEPAU_Rb_tree_node_base@12@ABH@Z
_TEXT	SEGMENT
___k$ = 8						; size = 4
??$_M_lower_bound@H@?$_Rb_tree@HU?$less@H@stlp_std@@U?$pair@$$CBHI@2@U?$_Select1st@U?$pair@$$CBHI@stlp_std@@@priv@2@U?$_MapTraitsT@U?$pair@$$CBHI@stlp_std@@@52@V?$xalloc@U?$pair@HI@stlp_std@@@@@priv@stlp_std@@ABEPAU_Rb_tree_node_base@12@ABH@Z PROC ; stlp_std::priv::_Rb_tree<int,stlp_std::less<int>,stlp_std::pair<int const ,unsigned int>,stlp_std::priv::_Select1st<stlp_std::pair<int const ,unsigned int> >,stlp_std::priv::_MapTraitsT<stlp_std::pair<int const ,unsigned int> >,xalloc<stlp_std::pair<int,unsigned int> > >::_M_lower_bound<int>, COMDAT
; _this$ = eax

; 562  :   _Base_ptr _M_lower_bound(const _KT& __k) const {

	push	ebp
	mov	ebp, DWORD PTR ___k$[esp]
	push	esi
	push	edi
	mov	edi, eax

; 563  :     _Base_ptr __y = __CONST_CAST(_Base_ptr, &this->_M_header._M_data); /* Last node which is not less than __k. */
; 564  :     _Base_ptr __x = _M_root(); /* Current node. */

	mov	ecx, edi
	call	?_M_root@?$_Rb_tree@HU?$less@H@stlp_std@@U?$pair@$$CBHI@2@U?$_Select1st@U?$pair@$$CBHI@stlp_std@@@priv@2@U?$_MapTraitsT@U?$pair@$$CBHI@stlp_std@@@52@V?$xalloc@U?$pair@HI@stlp_std@@@@@priv@stlp_std@@IBEPAU_Rb_tree_node_base@23@XZ ; stlp_std::priv::_Rb_tree<int,stlp_std::less<int>,stlp_std::pair<int const ,unsigned int>,stlp_std::priv::_Select1st<stlp_std::pair<int const ,unsigned int> >,stlp_std::priv::_MapTraitsT<stlp_std::pair<int const ,unsigned int> >,xalloc<stlp_std::pair<int,unsigned int> > >::_M_root
	mov	esi, eax

; 565  : 
; 566  :     while (__x != 0)

	test	esi, esi
	je	SHORT $LN22@M_lower_bo@3
	push	ebx
	lea	ebx, DWORD PTR [edi+20]
	npad	6
$LL4@M_lower_bo@3:

; 567  :       if (!_M_key_compare(_S_key(__x), __k))

	push	ebp
	push	esi
	call	?_S_key@?$_Rb_tree@HU?$less@H@stlp_std@@U?$pair@$$CBHI@2@U?$_Select1st@U?$pair@$$CBHI@stlp_std@@@priv@2@U?$_MapTraitsT@U?$pair@$$CBHI@stlp_std@@@52@V?$xalloc@U?$pair@HI@stlp_std@@@@@priv@stlp_std@@KAABHPAU_Rb_tree_node_base@23@@Z ; stlp_std::priv::_Rb_tree<int,stlp_std::less<int>,stlp_std::pair<int const ,unsigned int>,stlp_std::priv::_Select1st<stlp_std::pair<int const ,unsigned int> >,stlp_std::priv::_MapTraitsT<stlp_std::pair<int const ,unsigned int> >,xalloc<stlp_std::pair<int,unsigned int> > >::_S_key
	add	esp, 4
	push	eax
	mov	ecx, ebx
	call	??R?$less@H@stlp_std@@QBE_NABH0@Z	; stlp_std::less<int>::operator()
	test	al, al

; 568  :         __y = __x, __x = _S_left(__x);

	push	esi
	jne	SHORT $LN2@M_lower_bo@3
	mov	edi, esi
	call	?_S_left@?$_Rb_tree@HU?$less@H@stlp_std@@U?$pair@$$CBHI@2@U?$_Select1st@U?$pair@$$CBHI@stlp_std@@@priv@2@U?$_MapTraitsT@U?$pair@$$CBHI@stlp_std@@@52@V?$xalloc@U?$pair@HI@stlp_std@@@@@priv@stlp_std@@KAAAPAU_Rb_tree_node_base@23@PAU423@@Z ; stlp_std::priv::_Rb_tree<int,stlp_std::less<int>,stlp_std::pair<int const ,unsigned int>,stlp_std::priv::_Select1st<stlp_std::pair<int const ,unsigned int> >,stlp_std::priv::_MapTraitsT<stlp_std::pair<int const ,unsigned int> >,xalloc<stlp_std::pair<int,unsigned int> > >::_S_left

; 569  :       else

	jmp	SHORT $LN23@M_lower_bo@3
$LN2@M_lower_bo@3:

; 570  :         __x = _S_right(__x);

	call	?_S_right@?$_Rb_tree@HU?$less@H@stlp_std@@U?$pair@$$CBHI@2@U?$_Select1st@U?$pair@$$CBHI@stlp_std@@@priv@2@U?$_MapTraitsT@U?$pair@$$CBHI@stlp_std@@@52@V?$xalloc@U?$pair@HI@stlp_std@@@@@priv@stlp_std@@KAAAPAU_Rb_tree_node_base@23@PAU423@@Z ; stlp_std::priv::_Rb_tree<int,stlp_std::less<int>,stlp_std::pair<int const ,unsigned int>,stlp_std::priv::_Select1st<stlp_std::pair<int const ,unsigned int> >,stlp_std::priv::_MapTraitsT<stlp_std::pair<int const ,unsigned int> >,xalloc<stlp_std::pair<int,unsigned int> > >::_S_right
$LN23@M_lower_bo@3:
	mov	esi, DWORD PTR [eax]
	add	esp, 4
	test	esi, esi
	jne	SHORT $LL4@M_lower_bo@3
	pop	ebx
$LN22@M_lower_bo@3:

; 571  : 
; 572  :     return __y;

	mov	eax, edi
	pop	edi
	pop	esi
	pop	ebp

; 573  :   }

	ret	4
??$_M_lower_bound@H@?$_Rb_tree@HU?$less@H@stlp_std@@U?$pair@$$CBHI@2@U?$_Select1st@U?$pair@$$CBHI@stlp_std@@@priv@2@U?$_MapTraitsT@U?$pair@$$CBHI@stlp_std@@@52@V?$xalloc@U?$pair@HI@stlp_std@@@@@priv@stlp_std@@ABEPAU_Rb_tree_node_base@12@ABH@Z ENDP ; stlp_std::priv::_Rb_tree<int,stlp_std::less<int>,stlp_std::pair<int const ,unsigned int>,stlp_std::priv::_Select1st<stlp_std::pair<int const ,unsigned int> >,stlp_std::priv::_MapTraitsT<stlp_std::pair<int const ,unsigned int> >,xalloc<stlp_std::pair<int,unsigned int> > >::_M_lower_bound<int>
; Function compile flags: /Ogtpy
_TEXT	ENDS
;	COMDAT ??$_M_upper_bound@H@?$_Rb_tree@HU?$less@H@stlp_std@@U?$pair@$$CBHI@2@U?$_Select1st@U?$pair@$$CBHI@stlp_std@@@priv@2@U?$_MapTraitsT@U?$pair@$$CBHI@stlp_std@@@52@V?$xalloc@U?$pair@HI@stlp_std@@@@@priv@stlp_std@@ABEPAU_Rb_tree_node_base@12@ABH@Z
_TEXT	SEGMENT
___k$ = 8						; size = 4
??$_M_upper_bound@H@?$_Rb_tree@HU?$less@H@stlp_std@@U?$pair@$$CBHI@2@U?$_Select1st@U?$pair@$$CBHI@stlp_std@@@priv@2@U?$_MapTraitsT@U?$pair@$$CBHI@stlp_std@@@52@V?$xalloc@U?$pair@HI@stlp_std@@@@@priv@stlp_std@@ABEPAU_Rb_tree_node_base@12@ABH@Z PROC ; stlp_std::priv::_Rb_tree<int,stlp_std::less<int>,stlp_std::pair<int const ,unsigned int>,stlp_std::priv::_Select1st<stlp_std::pair<int const ,unsigned int> >,stlp_std::priv::_MapTraitsT<stlp_std::pair<int const ,unsigned int> >,xalloc<stlp_std::pair<int,unsigned int> > >::_M_upper_bound<int>, COMDAT
; _this$ = eax

; 576  :   _Base_ptr _M_upper_bound(const _KT& __k) const {

	push	ebp
	mov	ebp, DWORD PTR ___k$[esp]
	push	esi
	push	edi
	mov	edi, eax

; 577  :     _Base_ptr __y = __CONST_CAST(_Base_ptr, &this->_M_header._M_data); /* Last node which is greater than __k. */
; 578  :     _Base_ptr __x = _M_root(); /* Current node. */

	mov	ecx, edi
	call	?_M_root@?$_Rb_tree@HU?$less@H@stlp_std@@U?$pair@$$CBHI@2@U?$_Select1st@U?$pair@$$CBHI@stlp_std@@@priv@2@U?$_MapTraitsT@U?$pair@$$CBHI@stlp_std@@@52@V?$xalloc@U?$pair@HI@stlp_std@@@@@priv@stlp_std@@IBEPAU_Rb_tree_node_base@23@XZ ; stlp_std::priv::_Rb_tree<int,stlp_std::less<int>,stlp_std::pair<int const ,unsigned int>,stlp_std::priv::_Select1st<stlp_std::pair<int const ,unsigned int> >,stlp_std::priv::_MapTraitsT<stlp_std::pair<int const ,unsigned int> >,xalloc<stlp_std::pair<int,unsigned int> > >::_M_root
	mov	esi, eax

; 579  : 
; 580  :     while (__x != 0)

	test	esi, esi
	je	SHORT $LN22@M_upper_bo
	push	ebx
	lea	ebx, DWORD PTR [edi+20]
	npad	6
$LL4@M_upper_bo:

; 581  :       if (_M_key_compare(__k, _S_key(__x)))

	push	esi
	call	?_S_key@?$_Rb_tree@HU?$less@H@stlp_std@@U?$pair@$$CBHI@2@U?$_Select1st@U?$pair@$$CBHI@stlp_std@@@priv@2@U?$_MapTraitsT@U?$pair@$$CBHI@stlp_std@@@52@V?$xalloc@U?$pair@HI@stlp_std@@@@@priv@stlp_std@@KAABHPAU_Rb_tree_node_base@23@@Z ; stlp_std::priv::_Rb_tree<int,stlp_std::less<int>,stlp_std::pair<int const ,unsigned int>,stlp_std::priv::_Select1st<stlp_std::pair<int const ,unsigned int> >,stlp_std::priv::_MapTraitsT<stlp_std::pair<int const ,unsigned int> >,xalloc<stlp_std::pair<int,unsigned int> > >::_S_key
	add	esp, 4
	push	eax
	push	ebp
	mov	ecx, ebx
	call	??R?$less@H@stlp_std@@QBE_NABH0@Z	; stlp_std::less<int>::operator()
	test	al, al

; 582  :         __y = __x, __x = _S_left(__x);

	push	esi
	je	SHORT $LN2@M_upper_bo
	mov	edi, esi
	call	?_S_left@?$_Rb_tree@HU?$less@H@stlp_std@@U?$pair@$$CBHI@2@U?$_Select1st@U?$pair@$$CBHI@stlp_std@@@priv@2@U?$_MapTraitsT@U?$pair@$$CBHI@stlp_std@@@52@V?$xalloc@U?$pair@HI@stlp_std@@@@@priv@stlp_std@@KAAAPAU_Rb_tree_node_base@23@PAU423@@Z ; stlp_std::priv::_Rb_tree<int,stlp_std::less<int>,stlp_std::pair<int const ,unsigned int>,stlp_std::priv::_Select1st<stlp_std::pair<int const ,unsigned int> >,stlp_std::priv::_MapTraitsT<stlp_std::pair<int const ,unsigned int> >,xalloc<stlp_std::pair<int,unsigned int> > >::_S_left

; 583  :       else

	jmp	SHORT $LN23@M_upper_bo
$LN2@M_upper_bo:

; 584  :         __x = _S_right(__x);

	call	?_S_right@?$_Rb_tree@HU?$less@H@stlp_std@@U?$pair@$$CBHI@2@U?$_Select1st@U?$pair@$$CBHI@stlp_std@@@priv@2@U?$_MapTraitsT@U?$pair@$$CBHI@stlp_std@@@52@V?$xalloc@U?$pair@HI@stlp_std@@@@@priv@stlp_std@@KAAAPAU_Rb_tree_node_base@23@PAU423@@Z ; stlp_std::priv::_Rb_tree<int,stlp_std::less<int>,stlp_std::pair<int const ,unsigned int>,stlp_std::priv::_Select1st<stlp_std::pair<int const ,unsigned int> >,stlp_std::priv::_MapTraitsT<stlp_std::pair<int const ,unsigned int> >,xalloc<stlp_std::pair<int,unsigned int> > >::_S_right
$LN23@M_upper_bo:
	mov	esi, DWORD PTR [eax]
	add	esp, 4
	test	esi, esi
	jne	SHORT $LL4@M_upper_bo
	pop	ebx
$LN22@M_upper_bo:

; 585  : 
; 586  :     return __y;

	mov	eax, edi
	pop	edi
	pop	esi
	pop	ebp

; 587  :   }

	ret	4
??$_M_upper_bound@H@?$_Rb_tree@HU?$less@H@stlp_std@@U?$pair@$$CBHI@2@U?$_Select1st@U?$pair@$$CBHI@stlp_std@@@priv@2@U?$_MapTraitsT@U?$pair@$$CBHI@stlp_std@@@52@V?$xalloc@U?$pair@HI@stlp_std@@@@@priv@stlp_std@@ABEPAU_Rb_tree_node_base@12@ABH@Z ENDP ; stlp_std::priv::_Rb_tree<int,stlp_std::less<int>,stlp_std::pair<int const ,unsigned int>,stlp_std::priv::_Select1st<stlp_std::pair<int const ,unsigned int> >,stlp_std::priv::_MapTraitsT<stlp_std::pair<int const ,unsigned int> >,xalloc<stlp_std::pair<int,unsigned int> > >::_M_upper_bound<int>
; Function compile flags: /Ogtpy
; File d:\clearsky\sources\sdk\include\stlport\stl\_tree.c
_TEXT	ENDS
;	COMDAT ?_M_insert@?$_Rb_tree@HU?$less@H@stlp_std@@U?$pair@$$CBHI@2@U?$_Select1st@U?$pair@$$CBHI@stlp_std@@@priv@2@U?$_MapTraitsT@U?$pair@$$CBHI@stlp_std@@@52@V?$xalloc@U?$pair@HI@stlp_std@@@@@priv@stlp_std@@AAE?AU?$_Rb_tree_iterator@U?$pair@$$CBHI@stlp_std@@U?$_MapTraitsT@U?$pair@$$CBHI@stlp_std@@@priv@2@@23@PAU_Rb_tree_node_base@23@ABU?$pair@$$CBHI@3@00@Z
_TEXT	SEGMENT
$T292408 = 8						; size = 1
___$ReturnUdt$ = 8					; size = 4
___on_left$ = 12					; size = 4
___on_right$ = 16					; size = 4
?_M_insert@?$_Rb_tree@HU?$less@H@stlp_std@@U?$pair@$$CBHI@2@U?$_Select1st@U?$pair@$$CBHI@stlp_std@@@priv@2@U?$_MapTraitsT@U?$pair@$$CBHI@stlp_std@@@52@V?$xalloc@U?$pair@HI@stlp_std@@@@@priv@stlp_std@@AAE?AU?$_Rb_tree_iterator@U?$pair@$$CBHI@stlp_std@@U?$_MapTraitsT@U?$pair@$$CBHI@stlp_std@@@priv@2@@23@PAU_Rb_tree_node_base@23@ABU?$pair@$$CBHI@3@00@Z PROC ; stlp_std::priv::_Rb_tree<int,stlp_std::less<int>,stlp_std::pair<int const ,unsigned int>,stlp_std::priv::_Select1st<stlp_std::pair<int const ,unsigned int> >,stlp_std::priv::_MapTraitsT<stlp_std::pair<int const ,unsigned int> >,xalloc<stlp_std::pair<int,unsigned int> > >::_M_insert, COMDAT
; _this$ = ebx
; ___parent$ = ecx
; ___val$ = eax

; 353  :                                                                       _Rb_tree_node_base * __on_right) {

	push	ebp
	mov	ebp, DWORD PTR ___$ReturnUdt$[esp]
	push	esi
	push	edi
	mov	edi, ecx

; 354  :   // We do not create the node here as, depending on tests, we might call
; 355  :   // _M_key_compare that can throw an exception.
; 356  :   _Base_ptr __new_node;
; 357  : 
; 358  :   if ( __parent == &this->_M_header._M_data ) {

	cmp	edi, ebx
	mov	esi, eax
	jne	SHORT $LN7@M_insert@2

; 359  :     __new_node = _M_create_node(__val);

	push	esi
	mov	ecx, ebx
	call	?_M_create_node@?$_Rb_tree@HU?$less@H@stlp_std@@U?$pair@$$CBHI@2@U?$_Select1st@U?$pair@$$CBHI@stlp_std@@@priv@2@U?$_MapTraitsT@U?$pair@$$CBHI@stlp_std@@@52@V?$xalloc@U?$pair@HI@stlp_std@@@@@priv@stlp_std@@IAEPAU_Rb_tree_node_base@23@ABU?$pair@$$CBHI@3@@Z ; stlp_std::priv::_Rb_tree<int,stlp_std::less<int>,stlp_std::pair<int const ,unsigned int>,stlp_std::priv::_Select1st<stlp_std::pair<int const ,unsigned int> >,stlp_std::priv::_MapTraitsT<stlp_std::pair<int const ,unsigned int> >,xalloc<stlp_std::pair<int,unsigned int> > >::_M_create_node

; 360  :     _S_left(__parent) = __new_node;   // also makes _M_leftmost() = __new_node

	push	edi
	mov	esi, eax
	call	?_S_left@?$_Rb_tree@HU?$less@H@stlp_std@@U?$pair@$$CBHI@2@U?$_Select1st@U?$pair@$$CBHI@stlp_std@@@priv@2@U?$_MapTraitsT@U?$pair@$$CBHI@stlp_std@@@52@V?$xalloc@U?$pair@HI@stlp_std@@@@@priv@stlp_std@@KAAAPAU_Rb_tree_node_base@23@PAU423@@Z ; stlp_std::priv::_Rb_tree<int,stlp_std::less<int>,stlp_std::pair<int const ,unsigned int>,stlp_std::priv::_Select1st<stlp_std::pair<int const ,unsigned int> >,stlp_std::priv::_MapTraitsT<stlp_std::pair<int const ,unsigned int> >,xalloc<stlp_std::pair<int,unsigned int> > >::_S_left
	add	esp, 4

; 361  :     _M_root() = __new_node;

	mov	ecx, ebx
	mov	DWORD PTR [eax], esi
	call	?_M_root@?$_Rb_tree@HU?$less@H@stlp_std@@U?$pair@$$CBHI@2@U?$_Select1st@U?$pair@$$CBHI@stlp_std@@@priv@2@U?$_MapTraitsT@U?$pair@$$CBHI@stlp_std@@@52@V?$xalloc@U?$pair@HI@stlp_std@@@@@priv@stlp_std@@IAEAAPAU_Rb_tree_node_base@23@XZ ; stlp_std::priv::_Rb_tree<int,stlp_std::less<int>,stlp_std::pair<int const ,unsigned int>,stlp_std::priv::_Select1st<stlp_std::pair<int const ,unsigned int> >,stlp_std::priv::_MapTraitsT<stlp_std::pair<int const ,unsigned int> >,xalloc<stlp_std::pair<int,unsigned int> > >::_M_root
	mov	DWORD PTR [eax], esi

; 362  :     _M_rightmost() = __new_node;
; 363  :   }
; 364  :   else if ( __on_right == 0 &&     // If __on_right != 0, the remainder fails to false

	jmp	SHORT $LN44@M_insert@2
$LN7@M_insert@2:

; 365  :            ( __on_left != 0 ||     // If __on_left != 0, the remainder succeeds to true
; 366  :              _M_key_compare( _KeyOfValue()(__val), _S_key(__parent) ) ) ) {

	cmp	DWORD PTR ___on_right$[esp+8], 0
	jne	SHORT $LN5@M_insert@2
	cmp	DWORD PTR ___on_left$[esp+8], 0
	jne	SHORT $LN4@M_insert@2
	push	edi
	call	?_S_key@?$_Rb_tree@HU?$less@H@stlp_std@@U?$pair@$$CBHI@2@U?$_Select1st@U?$pair@$$CBHI@stlp_std@@@priv@2@U?$_MapTraitsT@U?$pair@$$CBHI@stlp_std@@@52@V?$xalloc@U?$pair@HI@stlp_std@@@@@priv@stlp_std@@KAABHPAU_Rb_tree_node_base@23@@Z ; stlp_std::priv::_Rb_tree<int,stlp_std::less<int>,stlp_std::pair<int const ,unsigned int>,stlp_std::priv::_Select1st<stlp_std::pair<int const ,unsigned int> >,stlp_std::priv::_MapTraitsT<stlp_std::pair<int const ,unsigned int> >,xalloc<stlp_std::pair<int,unsigned int> > >::_S_key
	add	esp, 4
	push	eax
	push	esi
	lea	ecx, DWORD PTR $T292408[esp+16]
	call	??R?$_Select1st@U?$pair@$$CBHI@stlp_std@@@priv@stlp_std@@QBEABHABU?$pair@$$CBHI@2@@Z ; stlp_std::priv::_Select1st<stlp_std::pair<int const ,unsigned int> >::operator()
	push	eax
	lea	ecx, DWORD PTR [ebx+20]
	call	??R?$less@H@stlp_std@@QBE_NABH0@Z	; stlp_std::less<int>::operator()
	test	al, al
	je	SHORT $LN5@M_insert@2
$LN4@M_insert@2:

; 367  :     __new_node = _M_create_node(__val);

	push	esi
	mov	ecx, ebx
	call	?_M_create_node@?$_Rb_tree@HU?$less@H@stlp_std@@U?$pair@$$CBHI@2@U?$_Select1st@U?$pair@$$CBHI@stlp_std@@@priv@2@U?$_MapTraitsT@U?$pair@$$CBHI@stlp_std@@@52@V?$xalloc@U?$pair@HI@stlp_std@@@@@priv@stlp_std@@IAEPAU_Rb_tree_node_base@23@ABU?$pair@$$CBHI@3@@Z ; stlp_std::priv::_Rb_tree<int,stlp_std::less<int>,stlp_std::pair<int const ,unsigned int>,stlp_std::priv::_Select1st<stlp_std::pair<int const ,unsigned int> >,stlp_std::priv::_MapTraitsT<stlp_std::pair<int const ,unsigned int> >,xalloc<stlp_std::pair<int,unsigned int> > >::_M_create_node

; 368  :     _S_left(__parent) = __new_node;

	push	edi
	mov	esi, eax
	call	?_S_left@?$_Rb_tree@HU?$less@H@stlp_std@@U?$pair@$$CBHI@2@U?$_Select1st@U?$pair@$$CBHI@stlp_std@@@priv@2@U?$_MapTraitsT@U?$pair@$$CBHI@stlp_std@@@52@V?$xalloc@U?$pair@HI@stlp_std@@@@@priv@stlp_std@@KAAAPAU_Rb_tree_node_base@23@PAU423@@Z ; stlp_std::priv::_Rb_tree<int,stlp_std::less<int>,stlp_std::pair<int const ,unsigned int>,stlp_std::priv::_Select1st<stlp_std::pair<int const ,unsigned int> >,stlp_std::priv::_MapTraitsT<stlp_std::pair<int const ,unsigned int> >,xalloc<stlp_std::pair<int,unsigned int> > >::_S_left
	add	esp, 4

; 369  :     if (__parent == _M_leftmost())

	mov	ecx, ebx
	mov	DWORD PTR [eax], esi
	call	?_M_leftmost@?$_Rb_tree@HU?$less@H@stlp_std@@U?$pair@$$CBHI@2@U?$_Select1st@U?$pair@$$CBHI@stlp_std@@@priv@2@U?$_MapTraitsT@U?$pair@$$CBHI@stlp_std@@@52@V?$xalloc@U?$pair@HI@stlp_std@@@@@priv@stlp_std@@IAEAAPAU_Rb_tree_node_base@23@XZ ; stlp_std::priv::_Rb_tree<int,stlp_std::less<int>,stlp_std::pair<int const ,unsigned int>,stlp_std::priv::_Select1st<stlp_std::pair<int const ,unsigned int> >,stlp_std::priv::_MapTraitsT<stlp_std::pair<int const ,unsigned int> >,xalloc<stlp_std::pair<int,unsigned int> > >::_M_leftmost
	cmp	edi, DWORD PTR [eax]
	jne	SHORT $LN1@M_insert@2

; 370  :       _M_leftmost() = __new_node;   // maintain _M_leftmost() pointing to min node

	mov	ecx, ebx
	call	?_M_leftmost@?$_Rb_tree@HU?$less@H@stlp_std@@U?$pair@$$CBHI@2@U?$_Select1st@U?$pair@$$CBHI@stlp_std@@@priv@2@U?$_MapTraitsT@U?$pair@$$CBHI@stlp_std@@@52@V?$xalloc@U?$pair@HI@stlp_std@@@@@priv@stlp_std@@IAEAAPAU_Rb_tree_node_base@23@XZ ; stlp_std::priv::_Rb_tree<int,stlp_std::less<int>,stlp_std::pair<int const ,unsigned int>,stlp_std::priv::_Select1st<stlp_std::pair<int const ,unsigned int> >,stlp_std::priv::_MapTraitsT<stlp_std::pair<int const ,unsigned int> >,xalloc<stlp_std::pair<int,unsigned int> > >::_M_leftmost

; 371  :   }
; 372  :   else {

	jmp	SHORT $LN45@M_insert@2
$LN5@M_insert@2:

; 373  :     __new_node = _M_create_node(__val);

	push	esi
	mov	ecx, ebx
	call	?_M_create_node@?$_Rb_tree@HU?$less@H@stlp_std@@U?$pair@$$CBHI@2@U?$_Select1st@U?$pair@$$CBHI@stlp_std@@@priv@2@U?$_MapTraitsT@U?$pair@$$CBHI@stlp_std@@@52@V?$xalloc@U?$pair@HI@stlp_std@@@@@priv@stlp_std@@IAEPAU_Rb_tree_node_base@23@ABU?$pair@$$CBHI@3@@Z ; stlp_std::priv::_Rb_tree<int,stlp_std::less<int>,stlp_std::pair<int const ,unsigned int>,stlp_std::priv::_Select1st<stlp_std::pair<int const ,unsigned int> >,stlp_std::priv::_MapTraitsT<stlp_std::pair<int const ,unsigned int> >,xalloc<stlp_std::pair<int,unsigned int> > >::_M_create_node

; 374  :     _S_right(__parent) = __new_node;

	push	edi
	mov	esi, eax
	call	?_S_right@?$_Rb_tree@HU?$less@H@stlp_std@@U?$pair@$$CBHI@2@U?$_Select1st@U?$pair@$$CBHI@stlp_std@@@priv@2@U?$_MapTraitsT@U?$pair@$$CBHI@stlp_std@@@52@V?$xalloc@U?$pair@HI@stlp_std@@@@@priv@stlp_std@@KAAAPAU_Rb_tree_node_base@23@PAU423@@Z ; stlp_std::priv::_Rb_tree<int,stlp_std::less<int>,stlp_std::pair<int const ,unsigned int>,stlp_std::priv::_Select1st<stlp_std::pair<int const ,unsigned int> >,stlp_std::priv::_MapTraitsT<stlp_std::pair<int const ,unsigned int> >,xalloc<stlp_std::pair<int,unsigned int> > >::_S_right
	add	esp, 4

; 375  :     if (__parent == _M_rightmost())

	mov	ecx, ebx
	mov	DWORD PTR [eax], esi
	call	?_M_rightmost@?$_Rb_tree@HU?$less@H@stlp_std@@U?$pair@$$CBHI@2@U?$_Select1st@U?$pair@$$CBHI@stlp_std@@@priv@2@U?$_MapTraitsT@U?$pair@$$CBHI@stlp_std@@@52@V?$xalloc@U?$pair@HI@stlp_std@@@@@priv@stlp_std@@IAEAAPAU_Rb_tree_node_base@23@XZ ; stlp_std::priv::_Rb_tree<int,stlp_std::less<int>,stlp_std::pair<int const ,unsigned int>,stlp_std::priv::_Select1st<stlp_std::pair<int const ,unsigned int> >,stlp_std::priv::_MapTraitsT<stlp_std::pair<int const ,unsigned int> >,xalloc<stlp_std::pair<int,unsigned int> > >::_M_rightmost
	cmp	edi, DWORD PTR [eax]
	jne	SHORT $LN1@M_insert@2
$LN44@M_insert@2:

; 376  :       _M_rightmost() = __new_node;  // maintain _M_rightmost() pointing to max node

	mov	ecx, ebx
	call	?_M_rightmost@?$_Rb_tree@HU?$less@H@stlp_std@@U?$pair@$$CBHI@2@U?$_Select1st@U?$pair@$$CBHI@stlp_std@@@priv@2@U?$_MapTraitsT@U?$pair@$$CBHI@stlp_std@@@52@V?$xalloc@U?$pair@HI@stlp_std@@@@@priv@stlp_std@@IAEAAPAU_Rb_tree_node_base@23@XZ ; stlp_std::priv::_Rb_tree<int,stlp_std::less<int>,stlp_std::pair<int const ,unsigned int>,stlp_std::priv::_Select1st<stlp_std::pair<int const ,unsigned int> >,stlp_std::priv::_MapTraitsT<stlp_std::pair<int const ,unsigned int> >,xalloc<stlp_std::pair<int,unsigned int> > >::_M_rightmost
$LN45@M_insert@2:
	mov	DWORD PTR [eax], esi
$LN1@M_insert@2:

; 377  :   }
; 378  :   _S_parent(__new_node) = __parent;

	push	esi
	call	?_S_parent@?$_Rb_tree@HU?$less@H@stlp_std@@U?$pair@$$CBHI@2@U?$_Select1st@U?$pair@$$CBHI@stlp_std@@@priv@2@U?$_MapTraitsT@U?$pair@$$CBHI@stlp_std@@@52@V?$xalloc@U?$pair@HI@stlp_std@@@@@priv@stlp_std@@KAAAPAU_Rb_tree_node_base@23@PAU423@@Z ; stlp_std::priv::_Rb_tree<int,stlp_std::less<int>,stlp_std::pair<int const ,unsigned int>,stlp_std::priv::_Select1st<stlp_std::pair<int const ,unsigned int> >,stlp_std::priv::_MapTraitsT<stlp_std::pair<int const ,unsigned int> >,xalloc<stlp_std::pair<int,unsigned int> > >::_S_parent
	mov	DWORD PTR [eax], edi
	add	esp, 4

; 379  :   _Rb_global_inst::_Rebalance(__new_node, this->_M_header._M_data._M_parent);

	lea	edi, DWORD PTR [ebx+4]
	mov	eax, esi
	call	?_Rebalance@?$_Rb_global@_N@priv@stlp_std@@SAXPAU_Rb_tree_node_base@23@AAPAU423@@Z ; stlp_std::priv::_Rb_global<bool>::_Rebalance

; 380  :   ++_M_node_count;

	add	DWORD PTR [ebx+16], 1

; 381  :   return iterator(__new_node);

	push	esi
	mov	ecx, ebp
	call	??0?$_Rb_tree_iterator@U?$pair@$$CBHI@stlp_std@@U?$_MapTraitsT@U?$pair@$$CBHI@stlp_std@@@priv@2@@priv@stlp_std@@QAE@PAU_Rb_tree_node_base@12@@Z ; stlp_std::priv::_Rb_tree_iterator<stlp_std::pair<int const ,unsigned int>,stlp_std::priv::_MapTraitsT<stlp_std::pair<int const ,unsigned int> > >::_Rb_tree_iterator<stlp_std::pair<int const ,unsigned int>,stlp_std::priv::_MapTraitsT<stlp_std::pair<int const ,unsigned int> > >
	pop	edi
	pop	esi
	mov	eax, ebp
	pop	ebp

; 382  : }

	ret	12					; 0000000cH
?_M_insert@?$_Rb_tree@HU?$less@H@stlp_std@@U?$pair@$$CBHI@2@U?$_Select1st@U?$pair@$$CBHI@stlp_std@@@priv@2@U?$_MapTraitsT@U?$pair@$$CBHI@stlp_std@@@52@V?$xalloc@U?$pair@HI@stlp_std@@@@@priv@stlp_std@@AAE?AU?$_Rb_tree_iterator@U?$pair@$$CBHI@stlp_std@@U?$_MapTraitsT@U?$pair@$$CBHI@stlp_std@@@priv@2@@23@PAU_Rb_tree_node_base@23@ABU?$pair@$$CBHI@3@00@Z ENDP ; stlp_std::priv::_Rb_tree<int,stlp_std::less<int>,stlp_std::pair<int const ,unsigned int>,stlp_std::priv::_Select1st<stlp_std::pair<int const ,unsigned int> >,stlp_std::priv::_MapTraitsT<stlp_std::pair<int const ,unsigned int> >,xalloc<stlp_std::pair<int,unsigned int> > >::_M_insert
; Function compile flags: /Ogtpy
; File d:\clearsky\sources\sdk\include\stlport\stl\_tree.h
_TEXT	ENDS
;	COMDAT ??$lower_bound@H@?$_Rb_tree@HU?$less@H@stlp_std@@U?$pair@$$CBHI@2@U?$_Select1st@U?$pair@$$CBHI@stlp_std@@@priv@2@U?$_MapTraitsT@U?$pair@$$CBHI@stlp_std@@@52@V?$xalloc@U?$pair@HI@stlp_std@@@@@priv@stlp_std@@QAE?AU?$_Rb_tree_iterator@U?$pair@$$CBHI@stlp_std@@U?$_MapTraitsT@U?$pair@$$CBHI@stlp_std@@@priv@2@@12@ABH@Z
_TEXT	SEGMENT
_this$ = 8						; size = 4
??$lower_bound@H@?$_Rb_tree@HU?$less@H@stlp_std@@U?$pair@$$CBHI@2@U?$_Select1st@U?$pair@$$CBHI@stlp_std@@@priv@2@U?$_MapTraitsT@U?$pair@$$CBHI@stlp_std@@@52@V?$xalloc@U?$pair@HI@stlp_std@@@@@priv@stlp_std@@QAE?AU?$_Rb_tree_iterator@U?$pair@$$CBHI@stlp_std@@U?$_MapTraitsT@U?$pair@$$CBHI@stlp_std@@@priv@2@@12@ABH@Z PROC ; stlp_std::priv::_Rb_tree<int,stlp_std::less<int>,stlp_std::pair<int const ,unsigned int>,stlp_std::priv::_Select1st<stlp_std::pair<int const ,unsigned int> >,stlp_std::priv::_MapTraitsT<stlp_std::pair<int const ,unsigned int> >,xalloc<stlp_std::pair<int,unsigned int> > >::lower_bound<int>, COMDAT
; ___$ReturnUdt$ = esi
; ___x$ = eax

; 596  :   iterator lower_bound(const _KT& __x) { return iterator(_M_lower_bound(__x)); }

	push	eax
	mov	eax, DWORD PTR _this$[esp]
	call	??$_M_lower_bound@H@?$_Rb_tree@HU?$less@H@stlp_std@@U?$pair@$$CBHI@2@U?$_Select1st@U?$pair@$$CBHI@stlp_std@@@priv@2@U?$_MapTraitsT@U?$pair@$$CBHI@stlp_std@@@52@V?$xalloc@U?$pair@HI@stlp_std@@@@@priv@stlp_std@@ABEPAU_Rb_tree_node_base@12@ABH@Z ; stlp_std::priv::_Rb_tree<int,stlp_std::less<int>,stlp_std::pair<int const ,unsigned int>,stlp_std::priv::_Select1st<stlp_std::pair<int const ,unsigned int> >,stlp_std::priv::_MapTraitsT<stlp_std::pair<int const ,unsigned int> >,xalloc<stlp_std::pair<int,unsigned int> > >::_M_lower_bound<int>
	push	eax
	mov	ecx, esi
	call	??0?$_Rb_tree_iterator@U?$pair@$$CBHI@stlp_std@@U?$_MapTraitsT@U?$pair@$$CBHI@stlp_std@@@priv@2@@priv@stlp_std@@QAE@PAU_Rb_tree_node_base@12@@Z ; stlp_std::priv::_Rb_tree_iterator<stlp_std::pair<int const ,unsigned int>,stlp_std::priv::_MapTraitsT<stlp_std::pair<int const ,unsigned int> > >::_Rb_tree_iterator<stlp_std::pair<int const ,unsigned int>,stlp_std::priv::_MapTraitsT<stlp_std::pair<int const ,unsigned int> > >
	mov	eax, esi
	ret	4
??$lower_bound@H@?$_Rb_tree@HU?$less@H@stlp_std@@U?$pair@$$CBHI@2@U?$_Select1st@U?$pair@$$CBHI@stlp_std@@@priv@2@U?$_MapTraitsT@U?$pair@$$CBHI@stlp_std@@@52@V?$xalloc@U?$pair@HI@stlp_std@@@@@priv@stlp_std@@QAE?AU?$_Rb_tree_iterator@U?$pair@$$CBHI@stlp_std@@U?$_MapTraitsT@U?$pair@$$CBHI@stlp_std@@@priv@2@@12@ABH@Z ENDP ; stlp_std::priv::_Rb_tree<int,stlp_std::less<int>,stlp_std::pair<int const ,unsigned int>,stlp_std::priv::_Select1st<stlp_std::pair<int const ,unsigned int> >,stlp_std::priv::_MapTraitsT<stlp_std::pair<int const ,unsigned int> >,xalloc<stlp_std::pair<int,unsigned int> > >::lower_bound<int>
; Function compile flags: /Ogtpy
_TEXT	ENDS
;	COMDAT ??$upper_bound@H@?$_Rb_tree@HU?$less@H@stlp_std@@U?$pair@$$CBHI@2@U?$_Select1st@U?$pair@$$CBHI@stlp_std@@@priv@2@U?$_MapTraitsT@U?$pair@$$CBHI@stlp_std@@@52@V?$xalloc@U?$pair@HI@stlp_std@@@@@priv@stlp_std@@QAE?AU?$_Rb_tree_iterator@U?$pair@$$CBHI@stlp_std@@U?$_MapTraitsT@U?$pair@$$CBHI@stlp_std@@@priv@2@@12@ABH@Z
_TEXT	SEGMENT
_this$ = 8						; size = 4
??$upper_bound@H@?$_Rb_tree@HU?$less@H@stlp_std@@U?$pair@$$CBHI@2@U?$_Select1st@U?$pair@$$CBHI@stlp_std@@@priv@2@U?$_MapTraitsT@U?$pair@$$CBHI@stlp_std@@@52@V?$xalloc@U?$pair@HI@stlp_std@@@@@priv@stlp_std@@QAE?AU?$_Rb_tree_iterator@U?$pair@$$CBHI@stlp_std@@U?$_MapTraitsT@U?$pair@$$CBHI@stlp_std@@@priv@2@@12@ABH@Z PROC ; stlp_std::priv::_Rb_tree<int,stlp_std::less<int>,stlp_std::pair<int const ,unsigned int>,stlp_std::priv::_Select1st<stlp_std::pair<int const ,unsigned int> >,stlp_std::priv::_MapTraitsT<stlp_std::pair<int const ,unsigned int> >,xalloc<stlp_std::pair<int,unsigned int> > >::upper_bound<int>, COMDAT
; ___$ReturnUdt$ = esi
; ___x$ = eax

; 600  :   iterator upper_bound(const _KT& __x) { return iterator(_M_upper_bound(__x)); }

	push	eax
	mov	eax, DWORD PTR _this$[esp]
	call	??$_M_upper_bound@H@?$_Rb_tree@HU?$less@H@stlp_std@@U?$pair@$$CBHI@2@U?$_Select1st@U?$pair@$$CBHI@stlp_std@@@priv@2@U?$_MapTraitsT@U?$pair@$$CBHI@stlp_std@@@52@V?$xalloc@U?$pair@HI@stlp_std@@@@@priv@stlp_std@@ABEPAU_Rb_tree_node_base@12@ABH@Z ; stlp_std::priv::_Rb_tree<int,stlp_std::less<int>,stlp_std::pair<int const ,unsigned int>,stlp_std::priv::_Select1st<stlp_std::pair<int const ,unsigned int> >,stlp_std::priv::_MapTraitsT<stlp_std::pair<int const ,unsigned int> >,xalloc<stlp_std::pair<int,unsigned int> > >::_M_upper_bound<int>
	push	eax
	mov	ecx, esi
	call	??0?$_Rb_tree_iterator@U?$pair@$$CBHI@stlp_std@@U?$_MapTraitsT@U?$pair@$$CBHI@stlp_std@@@priv@2@@priv@stlp_std@@QAE@PAU_Rb_tree_node_base@12@@Z ; stlp_std::priv::_Rb_tree_iterator<stlp_std::pair<int const ,unsigned int>,stlp_std::priv::_MapTraitsT<stlp_std::pair<int const ,unsigned int> > >::_Rb_tree_iterator<stlp_std::pair<int const ,unsigned int>,stlp_std::priv::_MapTraitsT<stlp_std::pair<int const ,unsigned int> > >
	mov	eax, esi
	ret	4
??$upper_bound@H@?$_Rb_tree@HU?$less@H@stlp_std@@U?$pair@$$CBHI@2@U?$_Select1st@U?$pair@$$CBHI@stlp_std@@@priv@2@U?$_MapTraitsT@U?$pair@$$CBHI@stlp_std@@@52@V?$xalloc@U?$pair@HI@stlp_std@@@@@priv@stlp_std@@QAE?AU?$_Rb_tree_iterator@U?$pair@$$CBHI@stlp_std@@U?$_MapTraitsT@U?$pair@$$CBHI@stlp_std@@@priv@2@@12@ABH@Z ENDP ; stlp_std::priv::_Rb_tree<int,stlp_std::less<int>,stlp_std::pair<int const ,unsigned int>,stlp_std::priv::_Select1st<stlp_std::pair<int const ,unsigned int> >,stlp_std::priv::_MapTraitsT<stlp_std::pair<int const ,unsigned int> >,xalloc<stlp_std::pair<int,unsigned int> > >::upper_bound<int>
; Function compile flags: /Ogtpy
; File d:\clearsky\sources\sdk\include\stlport\stl\_map.h
_TEXT	ENDS
;	COMDAT ??$lower_bound@H@?$map@HIU?$less@H@stlp_std@@V?$xalloc@U?$pair@HI@stlp_std@@@@@stlp_std@@QAE?AU?$_Rb_tree_iterator@U?$pair@$$CBHI@stlp_std@@U?$_MapTraitsT@U?$pair@$$CBHI@stlp_std@@@priv@2@@priv@1@ABH@Z
_TEXT	SEGMENT
_this$ = 8						; size = 4
??$lower_bound@H@?$map@HIU?$less@H@stlp_std@@V?$xalloc@U?$pair@HI@stlp_std@@@@@stlp_std@@QAE?AU?$_Rb_tree_iterator@U?$pair@$$CBHI@stlp_std@@U?$_MapTraitsT@U?$pair@$$CBHI@stlp_std@@@priv@2@@priv@1@ABH@Z PROC ; stlp_std::map<int,unsigned int,stlp_std::less<int>,xalloc<stlp_std::pair<int,unsigned int> > >::lower_bound<int>, COMDAT
; ___$ReturnUdt$ = esi
; ___x$ = eax

; 211  :   iterator lower_bound(const _KT& __x) { return _M_t.lower_bound(__x); }

	push	eax
	mov	eax, DWORD PTR _this$[esp]
	call	??$_M_lower_bound@H@?$_Rb_tree@HU?$less@H@stlp_std@@U?$pair@$$CBHI@2@U?$_Select1st@U?$pair@$$CBHI@stlp_std@@@priv@2@U?$_MapTraitsT@U?$pair@$$CBHI@stlp_std@@@52@V?$xalloc@U?$pair@HI@stlp_std@@@@@priv@stlp_std@@ABEPAU_Rb_tree_node_base@12@ABH@Z ; stlp_std::priv::_Rb_tree<int,stlp_std::less<int>,stlp_std::pair<int const ,unsigned int>,stlp_std::priv::_Select1st<stlp_std::pair<int const ,unsigned int> >,stlp_std::priv::_MapTraitsT<stlp_std::pair<int const ,unsigned int> >,xalloc<stlp_std::pair<int,unsigned int> > >::_M_lower_bound<int>
	push	eax
	mov	ecx, esi
	call	??0?$_Rb_tree_iterator@U?$pair@$$CBHI@stlp_std@@U?$_MapTraitsT@U?$pair@$$CBHI@stlp_std@@@priv@2@@priv@stlp_std@@QAE@PAU_Rb_tree_node_base@12@@Z ; stlp_std::priv::_Rb_tree_iterator<stlp_std::pair<int const ,unsigned int>,stlp_std::priv::_MapTraitsT<stlp_std::pair<int const ,unsigned int> > >::_Rb_tree_iterator<stlp_std::pair<int const ,unsigned int>,stlp_std::priv::_MapTraitsT<stlp_std::pair<int const ,unsigned int> > >
	mov	eax, esi
	ret	4
??$lower_bound@H@?$map@HIU?$less@H@stlp_std@@V?$xalloc@U?$pair@HI@stlp_std@@@@@stlp_std@@QAE?AU?$_Rb_tree_iterator@U?$pair@$$CBHI@stlp_std@@U?$_MapTraitsT@U?$pair@$$CBHI@stlp_std@@@priv@2@@priv@1@ABH@Z ENDP ; stlp_std::map<int,unsigned int,stlp_std::less<int>,xalloc<stlp_std::pair<int,unsigned int> > >::lower_bound<int>
; Function compile flags: /Ogtpy
_TEXT	ENDS
;	COMDAT ??$upper_bound@H@?$map@HIU?$less@H@stlp_std@@V?$xalloc@U?$pair@HI@stlp_std@@@@@stlp_std@@QAE?AU?$_Rb_tree_iterator@U?$pair@$$CBHI@stlp_std@@U?$_MapTraitsT@U?$pair@$$CBHI@stlp_std@@@priv@2@@priv@1@ABH@Z
_TEXT	SEGMENT
_this$ = 8						; size = 4
??$upper_bound@H@?$map@HIU?$less@H@stlp_std@@V?$xalloc@U?$pair@HI@stlp_std@@@@@stlp_std@@QAE?AU?$_Rb_tree_iterator@U?$pair@$$CBHI@stlp_std@@U?$_MapTraitsT@U?$pair@$$CBHI@stlp_std@@@priv@2@@priv@1@ABH@Z PROC ; stlp_std::map<int,unsigned int,stlp_std::less<int>,xalloc<stlp_std::pair<int,unsigned int> > >::upper_bound<int>, COMDAT
; ___$ReturnUdt$ = esi
; ___x$ = eax

; 215  :   iterator upper_bound(const _KT& __x) { return _M_t.upper_bound(__x); }

	push	eax
	mov	eax, DWORD PTR _this$[esp]
	call	??$_M_upper_bound@H@?$_Rb_tree@HU?$less@H@stlp_std@@U?$pair@$$CBHI@2@U?$_Select1st@U?$pair@$$CBHI@stlp_std@@@priv@2@U?$_MapTraitsT@U?$pair@$$CBHI@stlp_std@@@52@V?$xalloc@U?$pair@HI@stlp_std@@@@@priv@stlp_std@@ABEPAU_Rb_tree_node_base@12@ABH@Z ; stlp_std::priv::_Rb_tree<int,stlp_std::less<int>,stlp_std::pair<int const ,unsigned int>,stlp_std::priv::_Select1st<stlp_std::pair<int const ,unsigned int> >,stlp_std::priv::_MapTraitsT<stlp_std::pair<int const ,unsigned int> >,xalloc<stlp_std::pair<int,unsigned int> > >::_M_upper_bound<int>
	push	eax
	mov	ecx, esi
	call	??0?$_Rb_tree_iterator@U?$pair@$$CBHI@stlp_std@@U?$_MapTraitsT@U?$pair@$$CBHI@stlp_std@@@priv@2@@priv@stlp_std@@QAE@PAU_Rb_tree_node_base@12@@Z ; stlp_std::priv::_Rb_tree_iterator<stlp_std::pair<int const ,unsigned int>,stlp_std::priv::_MapTraitsT<stlp_std::pair<int const ,unsigned int> > >::_Rb_tree_iterator<stlp_std::pair<int const ,unsigned int>,stlp_std::priv::_MapTraitsT<stlp_std::pair<int const ,unsigned int> > >
	mov	eax, esi
	ret	4
??$upper_bound@H@?$map@HIU?$less@H@stlp_std@@V?$xalloc@U?$pair@HI@stlp_std@@@@@stlp_std@@QAE?AU?$_Rb_tree_iterator@U?$pair@$$CBHI@stlp_std@@U?$_MapTraitsT@U?$pair@$$CBHI@stlp_std@@@priv@2@@priv@1@ABH@Z ENDP ; stlp_std::map<int,unsigned int,stlp_std::less<int>,xalloc<stlp_std::pair<int,unsigned int> > >::upper_bound<int>
; Function compile flags: /Ogtpy
; File d:\clearsky\sources\sdk\include\stlport\stl\pointers\_vector.h
_TEXT	ENDS
;	COMDAT ??0?$vector@PAVCLAItem@@V?$xalloc@PAVCLAItem@@@@@stlp_std@@QAE@ABV?$xalloc@PAVCLAItem@@@@@Z
_TEXT	SEGMENT
??0?$vector@PAVCLAItem@@V?$xalloc@PAVCLAItem@@@@@stlp_std@@QAE@ABV?$xalloc@PAVCLAItem@@@@@Z PROC ; stlp_std::vector<CLAItem *,xalloc<CLAItem *> >::vector<CLAItem *,xalloc<CLAItem *> >, COMDAT
; _this$ = eax

; 106  :   explicit vector(const allocator_type& __a = allocator_type())

	xor	ecx, ecx
	mov	DWORD PTR [eax], ecx
	mov	DWORD PTR [eax+4], ecx
	mov	DWORD PTR [eax+8], ecx
	ret	0
??0?$vector@PAVCLAItem@@V?$xalloc@PAVCLAItem@@@@@stlp_std@@QAE@ABV?$xalloc@PAVCLAItem@@@@@Z ENDP ; stlp_std::vector<CLAItem *,xalloc<CLAItem *> >::vector<CLAItem *,xalloc<CLAItem *> >
; Function compile flags: /Ogtpy
; File d:\clearsky\sources\sdk\include\stlport\stl\_tree.h
_TEXT	ENDS
;	COMDAT ??E?$_Rb_tree_iterator@U?$pair@$$CBHI@stlp_std@@U?$_MapTraitsT@U?$pair@$$CBHI@stlp_std@@@priv@2@@priv@stlp_std@@QAEAAU012@XZ
_TEXT	SEGMENT
??E?$_Rb_tree_iterator@U?$pair@$$CBHI@stlp_std@@U?$_MapTraitsT@U?$pair@$$CBHI@stlp_std@@@priv@2@@priv@stlp_std@@QAEAAU012@XZ PROC ; stlp_std::priv::_Rb_tree_iterator<stlp_std::pair<int const ,unsigned int>,stlp_std::priv::_MapTraitsT<stlp_std::pair<int const ,unsigned int> > >::operator++, COMDAT
; _this$ = eax

; 177  :     _M_node = _Rb_global_inst::_M_increment(_M_node);

	mov	ecx, DWORD PTR [eax]
	mov	edx, DWORD PTR [ecx+12]
	test	edx, edx
	je	SHORT $LN7@operator@43
	mov	ecx, DWORD PTR [edx+8]
	test	ecx, ecx
	je	SHORT $LN10@operator@43
$LL11@operator@43:
	mov	edx, ecx
	mov	ecx, DWORD PTR [edx+8]
	test	ecx, ecx
	jne	SHORT $LL11@operator@43
$LN10@operator@43:
	mov	DWORD PTR [eax], edx

; 178  :     return *this;
; 179  :   }

	ret	0

; 177  :     _M_node = _Rb_global_inst::_M_increment(_M_node);

$LN7@operator@43:
	mov	edx, DWORD PTR [ecx+4]
	cmp	ecx, DWORD PTR [edx+12]
	jne	SHORT $LN4@operator@43
$LL5@operator@43:
	mov	ecx, edx
	mov	edx, DWORD PTR [edx+4]
	cmp	ecx, DWORD PTR [edx+12]
	je	SHORT $LL5@operator@43
$LN4@operator@43:
	cmp	DWORD PTR [ecx+12], edx
	jne	SHORT $LN10@operator@43
	mov	DWORD PTR [eax], ecx

; 178  :     return *this;
; 179  :   }

	ret	0
??E?$_Rb_tree_iterator@U?$pair@$$CBHI@stlp_std@@U?$_MapTraitsT@U?$pair@$$CBHI@stlp_std@@@priv@2@@priv@stlp_std@@QAEAAU012@XZ ENDP ; stlp_std::priv::_Rb_tree_iterator<stlp_std::pair<int const ,unsigned int>,stlp_std::priv::_MapTraitsT<stlp_std::pair<int const ,unsigned int> > >::operator++
; Function compile flags: /Ogtpy
_TEXT	ENDS
;	COMDAT ?erase@?$_Rb_tree@HU?$less@H@stlp_std@@U?$pair@$$CBHI@2@U?$_Select1st@U?$pair@$$CBHI@stlp_std@@@priv@2@U?$_MapTraitsT@U?$pair@$$CBHI@stlp_std@@@52@V?$xalloc@U?$pair@HI@stlp_std@@@@@priv@stlp_std@@QAEXU?$_Rb_tree_iterator@U?$pair@$$CBHI@stlp_std@@U?$_MapTraitsT@U?$pair@$$CBHI@stlp_std@@@priv@2@@23@@Z
_TEXT	SEGMENT
___pos$ = 8						; size = 4
?erase@?$_Rb_tree@HU?$less@H@stlp_std@@U?$pair@$$CBHI@2@U?$_Select1st@U?$pair@$$CBHI@stlp_std@@@priv@2@U?$_MapTraitsT@U?$pair@$$CBHI@stlp_std@@@52@V?$xalloc@U?$pair@HI@stlp_std@@@@@priv@stlp_std@@QAEXU?$_Rb_tree_iterator@U?$pair@$$CBHI@stlp_std@@U?$_MapTraitsT@U?$pair@$$CBHI@stlp_std@@@priv@2@@23@@Z PROC ; stlp_std::priv::_Rb_tree<int,stlp_std::less<int>,stlp_std::pair<int const ,unsigned int>,stlp_std::priv::_Select1st<stlp_std::pair<int const ,unsigned int> >,stlp_std::priv::_MapTraitsT<stlp_std::pair<int const ,unsigned int> >,xalloc<stlp_std::pair<int,unsigned int> > >::erase, COMDAT
; _this$ = esi

; 488  :     _Base_ptr __x = _Rb_global_inst::_Rebalance_for_erase(__pos._M_node,
; 489  :                                                           this->_M_header._M_data._M_parent,
; 490  :                                                           this->_M_header._M_data._M_left,
; 491  :                                                           this->_M_header._M_data._M_right);

	lea	ecx, DWORD PTR [esi+4]
	push	edi
	push	ecx
	mov	ecx, DWORD PTR ___pos$[esp+4]
	lea	eax, DWORD PTR [esi+12]
	lea	edx, DWORD PTR [esi+8]
	call	?_Rebalance_for_erase@?$_Rb_global@_N@priv@stlp_std@@SAPAU_Rb_tree_node_base@23@PAU423@AAPAU423@11@Z ; stlp_std::priv::_Rb_global<bool>::_Rebalance_for_erase
	mov	edi, eax

; 492  :     _STLP_STD::_Destroy(&_S_value(__x));

	push	edi
	call	?_S_value@?$_Rb_tree@HU?$less@H@stlp_std@@U?$pair@$$CBHI@2@U?$_Select1st@U?$pair@$$CBHI@stlp_std@@@priv@2@U?$_MapTraitsT@U?$pair@$$CBHI@stlp_std@@@52@V?$xalloc@U?$pair@HI@stlp_std@@@@@priv@stlp_std@@KAAAU?$pair@$$CBHI@3@PAU_Rb_tree_node_base@23@@Z ; stlp_std::priv::_Rb_tree<int,stlp_std::less<int>,stlp_std::pair<int const ,unsigned int>,stlp_std::priv::_Select1st<stlp_std::pair<int const ,unsigned int> >,stlp_std::priv::_MapTraitsT<stlp_std::pair<int const ,unsigned int> >,xalloc<stlp_std::pair<int,unsigned int> > >::_S_value
	push	eax
	call	??$_Destroy@U?$pair@$$CBHI@stlp_std@@@stlp_std@@YAXPAU?$pair@$$CBHI@0@@Z ; stlp_std::_Destroy<stlp_std::pair<int const ,unsigned int> >
	add	esp, 12					; 0000000cH

; 493  :     this->_M_header.deallocate(__STATIC_CAST(_Link_type, __x), 1);

	push	1
	push	edi
	mov	ecx, esi
	call	?deallocate@?$xalloc@U?$_Rb_tree_node@U?$pair@$$CBHI@stlp_std@@@priv@stlp_std@@@@QBEXPAU?$_Rb_tree_node@U?$pair@$$CBHI@stlp_std@@@priv@stlp_std@@I@Z ; xalloc<stlp_std::priv::_Rb_tree_node<stlp_std::pair<int const ,unsigned int> > >::deallocate

; 494  :     --_M_node_count;

	add	DWORD PTR [esi+16], -1
	pop	edi

; 495  :   }

	ret	4
?erase@?$_Rb_tree@HU?$less@H@stlp_std@@U?$pair@$$CBHI@2@U?$_Select1st@U?$pair@$$CBHI@stlp_std@@@priv@2@U?$_MapTraitsT@U?$pair@$$CBHI@stlp_std@@@52@V?$xalloc@U?$pair@HI@stlp_std@@@@@priv@stlp_std@@QAEXU?$_Rb_tree_iterator@U?$pair@$$CBHI@stlp_std@@U?$_MapTraitsT@U?$pair@$$CBHI@stlp_std@@@priv@2@@23@@Z ENDP ; stlp_std::priv::_Rb_tree<int,stlp_std::less<int>,stlp_std::pair<int const ,unsigned int>,stlp_std::priv::_Select1st<stlp_std::pair<int const ,unsigned int> >,stlp_std::priv::_MapTraitsT<stlp_std::pair<int const ,unsigned int> >,xalloc<stlp_std::pair<int,unsigned int> > >::erase
; Function compile flags: /Ogtpy
_TEXT	ENDS
;	COMDAT ??E?$_Rb_tree_iterator@U?$pair@$$CBHI@stlp_std@@U?$_MapTraitsT@U?$pair@$$CBHI@stlp_std@@@priv@2@@priv@stlp_std@@QAE?AU012@H@Z
_TEXT	SEGMENT
??E?$_Rb_tree_iterator@U?$pair@$$CBHI@stlp_std@@U?$_MapTraitsT@U?$pair@$$CBHI@stlp_std@@@priv@2@@priv@stlp_std@@QAE?AU012@H@Z PROC ; stlp_std::priv::_Rb_tree_iterator<stlp_std::pair<int const ,unsigned int>,stlp_std::priv::_MapTraitsT<stlp_std::pair<int const ,unsigned int> > >::operator++, COMDAT
; _this$ = esi
; ___$ReturnUdt$ = edi

; 181  :     _Self __tmp = *this;

	push	esi
	mov	ecx, edi
	call	??0?$_Rb_tree_iterator@U?$pair@$$CBHI@stlp_std@@U?$_MapTraitsT@U?$pair@$$CBHI@stlp_std@@@priv@2@@priv@stlp_std@@QAE@ABU012@@Z ; stlp_std::priv::_Rb_tree_iterator<stlp_std::pair<int const ,unsigned int>,stlp_std::priv::_MapTraitsT<stlp_std::pair<int const ,unsigned int> > >::_Rb_tree_iterator<stlp_std::pair<int const ,unsigned int>,stlp_std::priv::_MapTraitsT<stlp_std::pair<int const ,unsigned int> > >

; 182  :     ++(*this);

	mov	eax, DWORD PTR [esi]
	mov	ecx, DWORD PTR [eax+12]
	test	ecx, ecx
	je	SHORT $LN13@operator@44
	mov	eax, DWORD PTR [ecx+8]
	test	eax, eax
	je	SHORT $LN16@operator@44
$LL17@operator@44:
	mov	ecx, eax
	mov	eax, DWORD PTR [ecx+8]
	test	eax, eax
	jne	SHORT $LL17@operator@44
$LN16@operator@44:
	mov	DWORD PTR [esi], ecx

; 183  :     return __tmp;

	mov	eax, edi

; 184  :   }

	ret	0

; 182  :     ++(*this);

$LN13@operator@44:
	mov	ecx, DWORD PTR [eax+4]
	cmp	eax, DWORD PTR [ecx+12]
	jne	SHORT $LN10@operator@44
	npad	2
$LL11@operator@44:
	mov	eax, ecx
	mov	ecx, DWORD PTR [ecx+4]
	cmp	eax, DWORD PTR [ecx+12]
	je	SHORT $LL11@operator@44
$LN10@operator@44:
	cmp	DWORD PTR [eax+12], ecx
	jne	SHORT $LN16@operator@44
	mov	DWORD PTR [esi], eax

; 183  :     return __tmp;

	mov	eax, edi

; 184  :   }

	ret	0
??E?$_Rb_tree_iterator@U?$pair@$$CBHI@stlp_std@@U?$_MapTraitsT@U?$pair@$$CBHI@stlp_std@@@priv@2@@priv@stlp_std@@QAE?AU012@H@Z ENDP ; stlp_std::priv::_Rb_tree_iterator<stlp_std::pair<int const ,unsigned int>,stlp_std::priv::_MapTraitsT<stlp_std::pair<int const ,unsigned int> > >::operator++
; Function compile flags: /Ogtpy
; File d:\clearsky\sources\sdk\include\stlport\stl\_map.h
_TEXT	ENDS
;	COMDAT ?erase@?$map@HIU?$less@H@stlp_std@@V?$xalloc@U?$pair@HI@stlp_std@@@@@stlp_std@@QAEXU?$_Rb_tree_iterator@U?$pair@$$CBHI@stlp_std@@U?$_MapTraitsT@U?$pair@$$CBHI@stlp_std@@@priv@2@@priv@2@@Z
_TEXT	SEGMENT
$T292602 = -4						; size = 4
___pos$ = 8						; size = 4
?erase@?$map@HIU?$less@H@stlp_std@@V?$xalloc@U?$pair@HI@stlp_std@@@@@stlp_std@@QAEXU?$_Rb_tree_iterator@U?$pair@$$CBHI@stlp_std@@U?$_MapTraitsT@U?$pair@$$CBHI@stlp_std@@@priv@2@@priv@2@@Z PROC ; stlp_std::map<int,unsigned int,stlp_std::less<int>,xalloc<stlp_std::pair<int,unsigned int> > >::erase, COMDAT
; _this$ = esi

; 198  :   void erase(iterator __pos) { _M_t.erase(__pos); }

	push	ecx
	push	edi
	lea	eax, DWORD PTR ___pos$[esp+4]
	push	eax
	lea	ecx, DWORD PTR $T292602[esp+12]
	call	??0?$_Rb_tree_iterator@U?$pair@$$CBHI@stlp_std@@U?$_MapTraitsT@U?$pair@$$CBHI@stlp_std@@@priv@2@@priv@stlp_std@@QAE@ABU012@@Z ; stlp_std::priv::_Rb_tree_iterator<stlp_std::pair<int const ,unsigned int>,stlp_std::priv::_MapTraitsT<stlp_std::pair<int const ,unsigned int> > >::_Rb_tree_iterator<stlp_std::pair<int const ,unsigned int>,stlp_std::priv::_MapTraitsT<stlp_std::pair<int const ,unsigned int> > >
	lea	ecx, DWORD PTR [esi+4]
	push	ecx
	mov	ecx, DWORD PTR $T292602[esp+12]
	lea	eax, DWORD PTR [esi+12]
	lea	edx, DWORD PTR [esi+8]
	call	?_Rebalance_for_erase@?$_Rb_global@_N@priv@stlp_std@@SAPAU_Rb_tree_node_base@23@PAU423@AAPAU423@11@Z ; stlp_std::priv::_Rb_global<bool>::_Rebalance_for_erase
	mov	edi, eax
	push	edi
	call	?_S_value@?$_Rb_tree@HU?$less@H@stlp_std@@U?$pair@$$CBHI@2@U?$_Select1st@U?$pair@$$CBHI@stlp_std@@@priv@2@U?$_MapTraitsT@U?$pair@$$CBHI@stlp_std@@@52@V?$xalloc@U?$pair@HI@stlp_std@@@@@priv@stlp_std@@KAAAU?$pair@$$CBHI@3@PAU_Rb_tree_node_base@23@@Z ; stlp_std::priv::_Rb_tree<int,stlp_std::less<int>,stlp_std::pair<int const ,unsigned int>,stlp_std::priv::_Select1st<stlp_std::pair<int const ,unsigned int> >,stlp_std::priv::_MapTraitsT<stlp_std::pair<int const ,unsigned int> >,xalloc<stlp_std::pair<int,unsigned int> > >::_S_value
	push	eax
	call	??$_Destroy@U?$pair@$$CBHI@stlp_std@@@stlp_std@@YAXPAU?$pair@$$CBHI@0@@Z ; stlp_std::_Destroy<stlp_std::pair<int const ,unsigned int> >
	add	esp, 12					; 0000000cH
	push	1
	push	edi
	mov	ecx, esi
	call	?deallocate@?$xalloc@U?$_Rb_tree_node@U?$pair@$$CBHI@stlp_std@@@priv@stlp_std@@@@QBEXPAU?$_Rb_tree_node@U?$pair@$$CBHI@stlp_std@@@priv@stlp_std@@I@Z ; xalloc<stlp_std::priv::_Rb_tree_node<stlp_std::pair<int const ,unsigned int> > >::deallocate
	add	DWORD PTR [esi+16], -1
	pop	edi
	pop	ecx
	ret	4
?erase@?$map@HIU?$less@H@stlp_std@@V?$xalloc@U?$pair@HI@stlp_std@@@@@stlp_std@@QAEXU?$_Rb_tree_iterator@U?$pair@$$CBHI@stlp_std@@U?$_MapTraitsT@U?$pair@$$CBHI@stlp_std@@@priv@2@@priv@2@@Z ENDP ; stlp_std::map<int,unsigned int,stlp_std::less<int>,xalloc<stlp_std::pair<int,unsigned int> > >::erase
; Function compile flags: /Ogtpy
_TEXT	ENDS
;	COMDAT ?begin@?$map@HIU?$less@H@stlp_std@@V?$xalloc@U?$pair@HI@stlp_std@@@@@stlp_std@@QAE?AU?$_Rb_tree_iterator@U?$pair@$$CBHI@stlp_std@@U?$_MapTraitsT@U?$pair@$$CBHI@stlp_std@@@priv@2@@priv@2@XZ
_TEXT	SEGMENT
?begin@?$map@HIU?$less@H@stlp_std@@V?$xalloc@U?$pair@HI@stlp_std@@@@@stlp_std@@QAE?AU?$_Rb_tree_iterator@U?$pair@$$CBHI@stlp_std@@U?$_MapTraitsT@U?$pair@$$CBHI@stlp_std@@@priv@2@@priv@2@XZ PROC ; stlp_std::map<int,unsigned int,stlp_std::less<int>,xalloc<stlp_std::pair<int,unsigned int> > >::begin, COMDAT
; _this$ = ecx
; ___$ReturnUdt$ = esi

; 161  :   iterator begin() { return _M_t.begin(); }

	push	esi
	call	?begin@?$_Rb_tree@HU?$less@H@stlp_std@@U?$pair@$$CBHI@2@U?$_Select1st@U?$pair@$$CBHI@stlp_std@@@priv@2@U?$_MapTraitsT@U?$pair@$$CBHI@stlp_std@@@52@V?$xalloc@U?$pair@HI@stlp_std@@@@@priv@stlp_std@@QAE?AU?$_Rb_tree_iterator@U?$pair@$$CBHI@stlp_std@@U?$_MapTraitsT@U?$pair@$$CBHI@stlp_std@@@priv@2@@23@XZ ; stlp_std::priv::_Rb_tree<int,stlp_std::less<int>,stlp_std::pair<int const ,unsigned int>,stlp_std::priv::_Select1st<stlp_std::pair<int const ,unsigned int> >,stlp_std::priv::_MapTraitsT<stlp_std::pair<int const ,unsigned int> >,xalloc<stlp_std::pair<int,unsigned int> > >::begin
	mov	eax, esi
	ret	0
?begin@?$map@HIU?$less@H@stlp_std@@V?$xalloc@U?$pair@HI@stlp_std@@@@@stlp_std@@QAE?AU?$_Rb_tree_iterator@U?$pair@$$CBHI@stlp_std@@U?$_MapTraitsT@U?$pair@$$CBHI@stlp_std@@@priv@2@@priv@2@XZ ENDP ; stlp_std::map<int,unsigned int,stlp_std::less<int>,xalloc<stlp_std::pair<int,unsigned int> > >::begin
_TEXT	ENDS
PUBLIC	?FindItem@ELightAnimLibrary@@QAEPAVCLAItem@@PBD@Z ; ELightAnimLibrary::FindItem
; Function compile flags: /Ogtpy
; File d:\clearsky\sources\engine\xrengine\lightanimlibrary.cpp
;	COMDAT ?FindItem@ELightAnimLibrary@@QAEPAVCLAItem@@PBD@Z
_TEXT	SEGMENT
_name$ = 8						; size = 4
?FindItem@ELightAnimLibrary@@QAEPAVCLAItem@@PBD@Z PROC	; ELightAnimLibrary::FindItem, COMDAT
; _this$ = ecx

; 269  : 	LAItemIt it=FindItemI(name);

	mov	eax, DWORD PTR _name$[esp-4]
	push	esi
	push	edi
	push	eax
	mov	esi, ecx
	call	?FindItemI@ELightAnimLibrary@@QAEPAPAVCLAItem@@PBD@Z ; ELightAnimLibrary::FindItemI

; 270  : 	return (it!=Items.end())?*it:0;

	mov	esi, DWORD PTR [esi+4]
	push	esi
	mov	edi, eax
	call	?cv_ptr@?$_VoidCastTraitsAux@PAXPAX@priv@stlp_std@@SAPAPAXPAPAX@Z ; stlp_std::priv::_VoidCastTraitsAux<void *,void *>::cv_ptr
	add	esp, 4
	cmp	edi, eax
	je	SHORT $LN3@FindItem
	mov	eax, DWORD PTR [edi]
	pop	edi
	pop	esi

; 271  : }

	ret	4
$LN3@FindItem:
	pop	edi

; 270  : 	return (it!=Items.end())?*it:0;

	xor	eax, eax
	pop	esi

; 271  : }

	ret	4
?FindItem@ELightAnimLibrary@@QAEPAVCLAItem@@PBD@Z ENDP	; ELightAnimLibrary::FindItem
_TEXT	ENDS
PUBLIC	?NextKeyFrame@CLAItem@@QAEHH@Z			; CLAItem::NextKeyFrame
; Function compile flags: /Ogtpy
;	COMDAT ?NextKeyFrame@CLAItem@@QAEHH@Z
_TEXT	SEGMENT
_A$ = -8						; size = 4
$T292637 = -4						; size = 4
$T292636 = -4						; size = 4
_frame$ = 8						; size = 4
?NextKeyFrame@CLAItem@@QAEHH@Z PROC			; CLAItem::NextKeyFrame, COMDAT
; _this$ = ecx

; 163  : {

	sub	esp, 8
	push	esi

; 164  :     KeyPairIt A=Keys.upper_bound(frame);

	lea	eax, DWORD PTR _frame$[esp+8]
	lea	esi, DWORD PTR [ecx+8]
	push	eax
	mov	eax, esi
	call	??$_M_upper_bound@H@?$_Rb_tree@HU?$less@H@stlp_std@@U?$pair@$$CBHI@2@U?$_Select1st@U?$pair@$$CBHI@stlp_std@@@priv@2@U?$_MapTraitsT@U?$pair@$$CBHI@stlp_std@@@52@V?$xalloc@U?$pair@HI@stlp_std@@@@@priv@stlp_std@@ABEPAU_Rb_tree_node_base@12@ABH@Z ; stlp_std::priv::_Rb_tree<int,stlp_std::less<int>,stlp_std::pair<int const ,unsigned int>,stlp_std::priv::_Select1st<stlp_std::pair<int const ,unsigned int> >,stlp_std::priv::_MapTraitsT<stlp_std::pair<int const ,unsigned int> >,xalloc<stlp_std::pair<int,unsigned int> > >::_M_upper_bound<int>
	push	eax
	lea	ecx, DWORD PTR _A$[esp+16]
	call	??0?$_Rb_tree_iterator@U?$pair@$$CBHI@stlp_std@@U?$_MapTraitsT@U?$pair@$$CBHI@stlp_std@@@priv@2@@priv@stlp_std@@QAE@PAU_Rb_tree_node_base@12@@Z ; stlp_std::priv::_Rb_tree_iterator<stlp_std::pair<int const ,unsigned int>,stlp_std::priv::_MapTraitsT<stlp_std::pair<int const ,unsigned int> > >::_Rb_tree_iterator<stlp_std::pair<int const ,unsigned int>,stlp_std::priv::_MapTraitsT<stlp_std::pair<int const ,unsigned int> > >

; 165  :     if (A!=Keys.end()){

	lea	ecx, DWORD PTR $T292636[esp+12]
	push	ecx
	mov	ecx, esi
	call	?end@?$map@HIU?$less@H@stlp_std@@V?$xalloc@U?$pair@HI@stlp_std@@@@@stlp_std@@QAE?AU?$_Rb_tree_iterator@U?$pair@$$CBHI@stlp_std@@U?$_MapTraitsT@U?$pair@$$CBHI@stlp_std@@@priv@2@@priv@2@XZ ; stlp_std::map<int,unsigned int,stlp_std::less<int>,xalloc<stlp_std::pair<int,unsigned int> > >::end
	push	ecx
	mov	ecx, esp
	push	eax
	call	??0?$_Rb_tree_iterator@U?$pair@$$CBHI@stlp_std@@U?$_ConstMapTraitsT@U?$pair@$$CBHI@stlp_std@@@priv@2@@priv@stlp_std@@QAE@ABU?$_Rb_tree_iterator@U?$pair@$$CBHI@stlp_std@@U?$_MapTraitsT@U?$pair@$$CBHI@stlp_std@@@priv@2@@12@@Z ; stlp_std::priv::_Rb_tree_iterator<stlp_std::pair<int const ,unsigned int>,stlp_std::priv::_ConstMapTraitsT<stlp_std::pair<int const ,unsigned int> > >::_Rb_tree_iterator<stlp_std::pair<int const ,unsigned int>,stlp_std::priv::_ConstMapTraitsT<stlp_std::pair<int const ,unsigned int> > >
	lea	ecx, DWORD PTR _A$[esp+16]
	call	??9?$_Rb_tree_iterator@U?$pair@$$CBHI@stlp_std@@U?$_MapTraitsT@U?$pair@$$CBHI@stlp_std@@@priv@2@@priv@stlp_std@@QBE_NU?$_Rb_tree_iterator@U?$pair@$$CBHI@stlp_std@@U?$_ConstMapTraitsT@U?$pair@$$CBHI@stlp_std@@@priv@2@@12@@Z ; stlp_std::priv::_Rb_tree_iterator<stlp_std::pair<int const ,unsigned int>,stlp_std::priv::_MapTraitsT<stlp_std::pair<int const ,unsigned int> > >::operator!=
	test	al, al
	je	SHORT $LN2@NextKeyFra

; 166  :         return A->first;

	lea	ecx, DWORD PTR _A$[esp+12]
	call	??C?$_Rb_tree_iterator@U?$pair@$$CBHI@stlp_std@@U?$_MapTraitsT@U?$pair@$$CBHI@stlp_std@@@priv@2@@priv@stlp_std@@QBEPAU?$pair@$$CBHI@2@XZ ; stlp_std::priv::_Rb_tree_iterator<stlp_std::pair<int const ,unsigned int>,stlp_std::priv::_MapTraitsT<stlp_std::pair<int const ,unsigned int> > >::operator->

; 167  :     }else{
; 168  :     	return Keys.rbegin()->first;

	mov	eax, DWORD PTR [eax]

; 169  :     }
; 170  : }

	pop	esi
	add	esp, 8
	ret	4
$LN2@NextKeyFra:

; 167  :     }else{
; 168  :     	return Keys.rbegin()->first;

	lea	edx, DWORD PTR $T292637[esp+12]
	push	edx
	mov	ecx, esi
	call	?rbegin@?$map@HIU?$less@H@stlp_std@@V?$xalloc@U?$pair@HI@stlp_std@@@@@stlp_std@@QAE?AV?$reverse_iterator@U?$_Rb_tree_iterator@U?$pair@$$CBHI@stlp_std@@U?$_MapTraitsT@U?$pair@$$CBHI@stlp_std@@@priv@2@@priv@stlp_std@@@2@XZ ; stlp_std::map<int,unsigned int,stlp_std::less<int>,xalloc<stlp_std::pair<int,unsigned int> > >::rbegin
	mov	ecx, eax
	call	??C?$reverse_iterator@U?$_Rb_tree_iterator@U?$pair@$$CBHI@stlp_std@@U?$_MapTraitsT@U?$pair@$$CBHI@stlp_std@@@priv@2@@priv@stlp_std@@@stlp_std@@QBEPAU?$pair@$$CBHI@1@XZ ; stlp_std::reverse_iterator<stlp_std::priv::_Rb_tree_iterator<stlp_std::pair<int const ,unsigned int>,stlp_std::priv::_MapTraitsT<stlp_std::pair<int const ,unsigned int> > > >::operator->
	mov	eax, DWORD PTR [eax]

; 169  :     }
; 170  : }

	pop	esi
	add	esp, 8
	ret	4
?NextKeyFrame@CLAItem@@QAEHH@Z ENDP			; CLAItem::NextKeyFrame
_TEXT	ENDS
PUBLIC	?PrevKeyFrame@CLAItem@@QAEHH@Z			; CLAItem::PrevKeyFrame
; Function compile flags: /Ogtpy
;	COMDAT ?PrevKeyFrame@CLAItem@@QAEHH@Z
_TEXT	SEGMENT
_B$116483 = -12						; size = 4
$T292691 = -12						; size = 4
_A$ = -8						; size = 4
$T292695 = -4						; size = 4
$T292694 = -4						; size = 4
$T292692 = -4						; size = 4
_frame$ = 8						; size = 4
?PrevKeyFrame@CLAItem@@QAEHH@Z PROC			; CLAItem::PrevKeyFrame, COMDAT
; _this$ = ecx

; 151  : {

	sub	esp, 12					; 0000000cH
	push	esi

; 152  :     KeyPairIt A=Keys.lower_bound(frame);

	lea	eax, DWORD PTR _frame$[esp+12]
	lea	esi, DWORD PTR [ecx+8]
	push	eax
	mov	eax, esi
	call	??$_M_lower_bound@H@?$_Rb_tree@HU?$less@H@stlp_std@@U?$pair@$$CBHI@2@U?$_Select1st@U?$pair@$$CBHI@stlp_std@@@priv@2@U?$_MapTraitsT@U?$pair@$$CBHI@stlp_std@@@52@V?$xalloc@U?$pair@HI@stlp_std@@@@@priv@stlp_std@@ABEPAU_Rb_tree_node_base@12@ABH@Z ; stlp_std::priv::_Rb_tree<int,stlp_std::less<int>,stlp_std::pair<int const ,unsigned int>,stlp_std::priv::_Select1st<stlp_std::pair<int const ,unsigned int> >,stlp_std::priv::_MapTraitsT<stlp_std::pair<int const ,unsigned int> >,xalloc<stlp_std::pair<int,unsigned int> > >::_M_lower_bound<int>
	push	eax
	lea	ecx, DWORD PTR _A$[esp+20]
	call	??0?$_Rb_tree_iterator@U?$pair@$$CBHI@stlp_std@@U?$_MapTraitsT@U?$pair@$$CBHI@stlp_std@@@priv@2@@priv@stlp_std@@QAE@PAU_Rb_tree_node_base@12@@Z ; stlp_std::priv::_Rb_tree_iterator<stlp_std::pair<int const ,unsigned int>,stlp_std::priv::_MapTraitsT<stlp_std::pair<int const ,unsigned int> > >::_Rb_tree_iterator<stlp_std::pair<int const ,unsigned int>,stlp_std::priv::_MapTraitsT<stlp_std::pair<int const ,unsigned int> > >

; 153  :     if (A!=Keys.end()){

	lea	ecx, DWORD PTR $T292691[esp+16]
	push	ecx
	mov	ecx, esi
	call	?end@?$map@HIU?$less@H@stlp_std@@V?$xalloc@U?$pair@HI@stlp_std@@@@@stlp_std@@QAE?AU?$_Rb_tree_iterator@U?$pair@$$CBHI@stlp_std@@U?$_MapTraitsT@U?$pair@$$CBHI@stlp_std@@@priv@2@@priv@2@XZ ; stlp_std::map<int,unsigned int,stlp_std::less<int>,xalloc<stlp_std::pair<int,unsigned int> > >::end
	push	ecx
	mov	ecx, esp
	push	eax
	call	??0?$_Rb_tree_iterator@U?$pair@$$CBHI@stlp_std@@U?$_ConstMapTraitsT@U?$pair@$$CBHI@stlp_std@@@priv@2@@priv@stlp_std@@QAE@ABU?$_Rb_tree_iterator@U?$pair@$$CBHI@stlp_std@@U?$_MapTraitsT@U?$pair@$$CBHI@stlp_std@@@priv@2@@12@@Z ; stlp_std::priv::_Rb_tree_iterator<stlp_std::pair<int const ,unsigned int>,stlp_std::priv::_ConstMapTraitsT<stlp_std::pair<int const ,unsigned int> > >::_Rb_tree_iterator<stlp_std::pair<int const ,unsigned int>,stlp_std::priv::_ConstMapTraitsT<stlp_std::pair<int const ,unsigned int> > >
	lea	ecx, DWORD PTR _A$[esp+20]
	call	??9?$_Rb_tree_iterator@U?$pair@$$CBHI@stlp_std@@U?$_MapTraitsT@U?$pair@$$CBHI@stlp_std@@@priv@2@@priv@stlp_std@@QBE_NU?$_Rb_tree_iterator@U?$pair@$$CBHI@stlp_std@@U?$_ConstMapTraitsT@U?$pair@$$CBHI@stlp_std@@@priv@2@@12@@Z ; stlp_std::priv::_Rb_tree_iterator<stlp_std::pair<int const ,unsigned int>,stlp_std::priv::_MapTraitsT<stlp_std::pair<int const ,unsigned int> > >::operator!=
	test	al, al
	je	SHORT $LN3@PrevKeyFra

; 154  :     	KeyPairIt B=A; B--;

	lea	edx, DWORD PTR _A$[esp+16]
	push	edx
	lea	ecx, DWORD PTR _B$116483[esp+20]
	call	??0?$_Rb_tree_iterator@U?$pair@$$CBHI@stlp_std@@U?$_MapTraitsT@U?$pair@$$CBHI@stlp_std@@@priv@2@@priv@stlp_std@@QAE@ABU012@@Z ; stlp_std::priv::_Rb_tree_iterator<stlp_std::pair<int const ,unsigned int>,stlp_std::priv::_MapTraitsT<stlp_std::pair<int const ,unsigned int> > >::_Rb_tree_iterator<stlp_std::pair<int const ,unsigned int>,stlp_std::priv::_MapTraitsT<stlp_std::pair<int const ,unsigned int> > >
	lea	eax, DWORD PTR _B$116483[esp+16]
	push	eax
	lea	ecx, DWORD PTR $T292692[esp+20]
	call	??0?$_Rb_tree_iterator@U?$pair@$$CBHI@stlp_std@@U?$_MapTraitsT@U?$pair@$$CBHI@stlp_std@@@priv@2@@priv@stlp_std@@QAE@ABU012@@Z ; stlp_std::priv::_Rb_tree_iterator<stlp_std::pair<int const ,unsigned int>,stlp_std::priv::_MapTraitsT<stlp_std::pair<int const ,unsigned int> > >::_Rb_tree_iterator<stlp_std::pair<int const ,unsigned int>,stlp_std::priv::_MapTraitsT<stlp_std::pair<int const ,unsigned int> > >
	lea	ecx, DWORD PTR _B$116483[esp+16]
	call	??F?$_Rb_tree_iterator@U?$pair@$$CBHI@stlp_std@@U?$_MapTraitsT@U?$pair@$$CBHI@stlp_std@@@priv@2@@priv@stlp_std@@QAEAAU012@XZ ; stlp_std::priv::_Rb_tree_iterator<stlp_std::pair<int const ,unsigned int>,stlp_std::priv::_MapTraitsT<stlp_std::pair<int const ,unsigned int> > >::operator--

; 155  :         if (B!=Keys.end()) return B->first;

	lea	ecx, DWORD PTR $T292694[esp+16]
	push	ecx
	mov	ecx, esi
	call	?end@?$map@HIU?$less@H@stlp_std@@V?$xalloc@U?$pair@HI@stlp_std@@@@@stlp_std@@QAE?AU?$_Rb_tree_iterator@U?$pair@$$CBHI@stlp_std@@U?$_MapTraitsT@U?$pair@$$CBHI@stlp_std@@@priv@2@@priv@2@XZ ; stlp_std::map<int,unsigned int,stlp_std::less<int>,xalloc<stlp_std::pair<int,unsigned int> > >::end
	push	ecx
	mov	ecx, esp
	push	eax
	call	??0?$_Rb_tree_iterator@U?$pair@$$CBHI@stlp_std@@U?$_ConstMapTraitsT@U?$pair@$$CBHI@stlp_std@@@priv@2@@priv@stlp_std@@QAE@ABU?$_Rb_tree_iterator@U?$pair@$$CBHI@stlp_std@@U?$_MapTraitsT@U?$pair@$$CBHI@stlp_std@@@priv@2@@12@@Z ; stlp_std::priv::_Rb_tree_iterator<stlp_std::pair<int const ,unsigned int>,stlp_std::priv::_ConstMapTraitsT<stlp_std::pair<int const ,unsigned int> > >::_Rb_tree_iterator<stlp_std::pair<int const ,unsigned int>,stlp_std::priv::_ConstMapTraitsT<stlp_std::pair<int const ,unsigned int> > >
	lea	ecx, DWORD PTR _B$116483[esp+20]
	call	??9?$_Rb_tree_iterator@U?$pair@$$CBHI@stlp_std@@U?$_MapTraitsT@U?$pair@$$CBHI@stlp_std@@@priv@2@@priv@stlp_std@@QBE_NU?$_Rb_tree_iterator@U?$pair@$$CBHI@stlp_std@@U?$_ConstMapTraitsT@U?$pair@$$CBHI@stlp_std@@@priv@2@@12@@Z ; stlp_std::priv::_Rb_tree_iterator<stlp_std::pair<int const ,unsigned int>,stlp_std::priv::_MapTraitsT<stlp_std::pair<int const ,unsigned int> > >::operator!=
	test	al, al
	je	SHORT $LN2@PrevKeyFra
	lea	ecx, DWORD PTR _B$116483[esp+16]
	call	??C?$_Rb_tree_iterator@U?$pair@$$CBHI@stlp_std@@U?$_MapTraitsT@U?$pair@$$CBHI@stlp_std@@@priv@2@@priv@stlp_std@@QBEPAU?$pair@$$CBHI@2@XZ ; stlp_std::priv::_Rb_tree_iterator<stlp_std::pair<int const ,unsigned int>,stlp_std::priv::_MapTraitsT<stlp_std::pair<int const ,unsigned int> > >::operator->

; 157  :     }else{
; 158  :     	return Keys.rbegin()->first;

	mov	eax, DWORD PTR [eax]

; 159  :     }
; 160  : }

	pop	esi
	add	esp, 12					; 0000000cH
	ret	4
$LN2@PrevKeyFra:

; 156  :         return A->first;

	lea	ecx, DWORD PTR _A$[esp+16]
	call	??C?$_Rb_tree_iterator@U?$pair@$$CBHI@stlp_std@@U?$_MapTraitsT@U?$pair@$$CBHI@stlp_std@@@priv@2@@priv@stlp_std@@QBEPAU?$pair@$$CBHI@2@XZ ; stlp_std::priv::_Rb_tree_iterator<stlp_std::pair<int const ,unsigned int>,stlp_std::priv::_MapTraitsT<stlp_std::pair<int const ,unsigned int> > >::operator->

; 157  :     }else{
; 158  :     	return Keys.rbegin()->first;

	mov	eax, DWORD PTR [eax]

; 159  :     }
; 160  : }

	pop	esi
	add	esp, 12					; 0000000cH
	ret	4
$LN3@PrevKeyFra:

; 157  :     }else{
; 158  :     	return Keys.rbegin()->first;

	lea	edx, DWORD PTR $T292695[esp+16]
	push	edx
	mov	ecx, esi
	call	?rbegin@?$map@HIU?$less@H@stlp_std@@V?$xalloc@U?$pair@HI@stlp_std@@@@@stlp_std@@QAE?AV?$reverse_iterator@U?$_Rb_tree_iterator@U?$pair@$$CBHI@stlp_std@@U?$_MapTraitsT@U?$pair@$$CBHI@stlp_std@@@priv@2@@priv@stlp_std@@@2@XZ ; stlp_std::map<int,unsigned int,stlp_std::less<int>,xalloc<stlp_std::pair<int,unsigned int> > >::rbegin
	mov	ecx, eax
	call	??C?$reverse_iterator@U?$_Rb_tree_iterator@U?$pair@$$CBHI@stlp_std@@U?$_MapTraitsT@U?$pair@$$CBHI@stlp_std@@@priv@2@@priv@stlp_std@@@stlp_std@@QBEPAU?$pair@$$CBHI@1@XZ ; stlp_std::reverse_iterator<stlp_std::priv::_Rb_tree_iterator<stlp_std::pair<int const ,unsigned int>,stlp_std::priv::_MapTraitsT<stlp_std::pair<int const ,unsigned int> > > >::operator->
	mov	eax, DWORD PTR [eax]

; 159  :     }
; 160  : }

	pop	esi
	add	esp, 12					; 0000000cH
	ret	4
?PrevKeyFrame@CLAItem@@QAEHH@Z ENDP			; CLAItem::PrevKeyFrame
_TEXT	ENDS
PUBLIC	?InterpolateRGB@CLAItem@@QAEIH@Z		; CLAItem::InterpolateRGB
; Function compile flags: /Ogtpy
;	COMDAT ?InterpolateRGB@CLAItem@@QAEIH@Z
_TEXT	SEGMENT
__g$293181 = -52					; size = 4
_A$ = -52						; size = 4
__r$293180 = -48					; size = 4
_B$ = -48						; size = 4
tv799 = -44						; size = 4
tv798 = -44						; size = 4
tv797 = -44						; size = 4
tv796 = -44						; size = 4
tv794 = -44						; size = 4
tv793 = -44						; size = 4
tv792 = -44						; size = 4
tv791 = -44						; size = 4
$T292836 = -44						; size = 4
$T292777 = -44						; size = 4
_a0$ = -40						; size = 4
_a$293167 = -36						; size = 4
_a$293155 = -36						; size = 4
_a$293143 = -36						; size = 4
_a$293131 = -36						; size = 4
_a1$ = -36						; size = 4
$T292781 = -36						; size = 4
$T292780 = -36						; size = 4
$T292779 = -36						; size = 4
$T292776 = -36						; size = 4
_c0$ = -32						; size = 16
_c1$ = -16						; size = 16
_frame$ = 8						; size = 4
?InterpolateRGB@CLAItem@@QAEIH@Z PROC			; CLAItem::InterpolateRGB, COMDAT
; _this$ = ecx

; 103  : {

	push	ebp
	mov	ebp, esp
	and	esp, -8					; fffffff8H
	sub	esp, 52					; 00000034H

; 104  :     R_ASSERT(frame<=iFrameCount);

	cmp	BYTE PTR ?ignore_always@?3??InterpolateRGB@CLAItem@@QAEIH@Z@4_NA, 0
	push	ebx
	mov	ebx, DWORD PTR __imp_?fail@xrDebug@@QAEXPBD0H0AA_N@Z
	push	esi
	push	edi
	mov	edi, ecx
	jne	SHORT $LN10@Interpolat
	mov	eax, DWORD PTR _frame$[ebp]
	cmp	eax, DWORD PTR [edi+32]
	jle	SHORT $LN10@Interpolat
	mov	ecx, DWORD PTR __imp_?Debug@@3VxrDebug@@A
	push	OFFSET ?ignore_always@?3??InterpolateRGB@CLAItem@@QAEIH@Z@4_NA
	push	OFFSET ??_C@_0BI@CFJEJJFO@CLAItem?3?3InterpolateRGB?$AA@
	push	104					; 00000068H
	push	OFFSET ??_C@_0DJ@LHCNLGNK@D?3?2CLEARSKY?2sources?2engine?2xrEng@
	push	OFFSET ??_C@_0BD@MALKJDA@frame?$DM?$DNiFrameCount?$AA@
	call	ebx
$LN10@Interpolat:

; 105  : 
; 106  :     KeyPairIt A=Keys.find(frame);

	lea	ecx, DWORD PTR _frame$[ebp]
	push	ecx
	lea	edx, DWORD PTR _A$[esp+68]
	lea	esi, DWORD PTR [edi+8]
	push	edx
	mov	ecx, esi
	call	??$find@H@?$map@HIU?$less@H@stlp_std@@V?$xalloc@U?$pair@HI@stlp_std@@@@@stlp_std@@QAE?AU?$_Rb_tree_iterator@U?$pair@$$CBHI@stlp_std@@U?$_MapTraitsT@U?$pair@$$CBHI@stlp_std@@@priv@2@@priv@1@ABH@Z ; stlp_std::map<int,unsigned int,stlp_std::less<int>,xalloc<stlp_std::pair<int,unsigned int> > >::find<int>

; 107  :     KeyPairIt B;
; 108  :     if (A!=Keys.end()){  			//  -   

	lea	eax, DWORD PTR $T292776[esp+64]
	push	eax
	mov	ecx, esi
	mov	DWORD PTR _B$[esp+68], 0
	call	?end@?$map@HIU?$less@H@stlp_std@@V?$xalloc@U?$pair@HI@stlp_std@@@@@stlp_std@@QAE?AU?$_Rb_tree_iterator@U?$pair@$$CBHI@stlp_std@@U?$_MapTraitsT@U?$pair@$$CBHI@stlp_std@@@priv@2@@priv@2@XZ ; stlp_std::map<int,unsigned int,stlp_std::less<int>,xalloc<stlp_std::pair<int,unsigned int> > >::end
	push	ecx
	mov	ecx, esp
	push	eax
	call	??0?$_Rb_tree_iterator@U?$pair@$$CBHI@stlp_std@@U?$_ConstMapTraitsT@U?$pair@$$CBHI@stlp_std@@@priv@2@@priv@stlp_std@@QAE@ABU?$_Rb_tree_iterator@U?$pair@$$CBHI@stlp_std@@U?$_MapTraitsT@U?$pair@$$CBHI@stlp_std@@@priv@2@@12@@Z ; stlp_std::priv::_Rb_tree_iterator<stlp_std::pair<int const ,unsigned int>,stlp_std::priv::_ConstMapTraitsT<stlp_std::pair<int const ,unsigned int> > >::_Rb_tree_iterator<stlp_std::pair<int const ,unsigned int>,stlp_std::priv::_ConstMapTraitsT<stlp_std::pair<int const ,unsigned int> > >
	lea	ecx, DWORD PTR _A$[esp+68]
	call	??9?$_Rb_tree_iterator@U?$pair@$$CBHI@stlp_std@@U?$_MapTraitsT@U?$pair@$$CBHI@stlp_std@@@priv@2@@priv@stlp_std@@QBE_NU?$_Rb_tree_iterator@U?$pair@$$CBHI@stlp_std@@U?$_ConstMapTraitsT@U?$pair@$$CBHI@stlp_std@@@priv@2@@12@@Z ; stlp_std::priv::_Rb_tree_iterator<stlp_std::pair<int const ,unsigned int>,stlp_std::priv::_MapTraitsT<stlp_std::pair<int const ,unsigned int> > >::operator!=
	test	al, al
	je	SHORT $LN7@Interpolat

; 109  :     	return A->second;

	lea	ecx, DWORD PTR _A$[esp+64]
	call	??C?$_Rb_tree_iterator@U?$pair@$$CBHI@stlp_std@@U?$_MapTraitsT@U?$pair@$$CBHI@stlp_std@@@priv@2@@priv@stlp_std@@QBEPAU?$pair@$$CBHI@2@XZ ; stlp_std::priv::_Rb_tree_iterator<stlp_std::pair<int const ,unsigned int>,stlp_std::priv::_MapTraitsT<stlp_std::pair<int const ,unsigned int> > >::operator->
	mov	eax, DWORD PTR [eax+4]

; 130  : }

	pop	edi
	pop	esi
	pop	ebx
	mov	esp, ebp
	pop	ebp
	ret	4
$LN7@Interpolat:

; 110  :     }else{							//  
; 111  :     	B=Keys.upper_bound(frame);  //   

	lea	ecx, DWORD PTR _frame$[ebp]
	push	ecx
	mov	eax, esi
	call	??$_M_upper_bound@H@?$_Rb_tree@HU?$less@H@stlp_std@@U?$pair@$$CBHI@2@U?$_Select1st@U?$pair@$$CBHI@stlp_std@@@priv@2@U?$_MapTraitsT@U?$pair@$$CBHI@stlp_std@@@52@V?$xalloc@U?$pair@HI@stlp_std@@@@@priv@stlp_std@@ABEPAU_Rb_tree_node_base@12@ABH@Z ; stlp_std::priv::_Rb_tree<int,stlp_std::less<int>,stlp_std::pair<int const ,unsigned int>,stlp_std::priv::_Select1st<stlp_std::pair<int const ,unsigned int> >,stlp_std::priv::_MapTraitsT<stlp_std::pair<int const ,unsigned int> >,xalloc<stlp_std::pair<int,unsigned int> > >::_M_upper_bound<int>
	push	eax
	lea	ecx, DWORD PTR $T292777[esp+68]
	call	??0?$_Rb_tree_iterator@U?$pair@$$CBHI@stlp_std@@U?$_MapTraitsT@U?$pair@$$CBHI@stlp_std@@@priv@2@@priv@stlp_std@@QAE@PAU_Rb_tree_node_base@12@@Z ; stlp_std::priv::_Rb_tree_iterator<stlp_std::pair<int const ,unsigned int>,stlp_std::priv::_MapTraitsT<stlp_std::pair<int const ,unsigned int> > >::_Rb_tree_iterator<stlp_std::pair<int const ,unsigned int>,stlp_std::priv::_MapTraitsT<stlp_std::pair<int const ,unsigned int> > >
	mov	edx, DWORD PTR $T292777[esp+64]

; 112  :         if (B==Keys.end()){			//       

	lea	eax, DWORD PTR $T292779[esp+64]
	push	eax
	mov	ecx, esi
	mov	DWORD PTR _B$[esp+68], edx
	call	?end@?$map@HIU?$less@H@stlp_std@@V?$xalloc@U?$pair@HI@stlp_std@@@@@stlp_std@@QAE?AU?$_Rb_tree_iterator@U?$pair@$$CBHI@stlp_std@@U?$_MapTraitsT@U?$pair@$$CBHI@stlp_std@@@priv@2@@priv@2@XZ ; stlp_std::map<int,unsigned int,stlp_std::less<int>,xalloc<stlp_std::pair<int,unsigned int> > >::end
	push	eax
	lea	ecx, DWORD PTR $T292836[esp+68]
	call	??0?$_Rb_tree_iterator@U?$pair@$$CBHI@stlp_std@@U?$_ConstMapTraitsT@U?$pair@$$CBHI@stlp_std@@@priv@2@@priv@stlp_std@@QAE@ABU?$_Rb_tree_iterator@U?$pair@$$CBHI@stlp_std@@U?$_MapTraitsT@U?$pair@$$CBHI@stlp_std@@@priv@2@@12@@Z ; stlp_std::priv::_Rb_tree_iterator<stlp_std::pair<int const ,unsigned int>,stlp_std::priv::_ConstMapTraitsT<stlp_std::pair<int const ,unsigned int> > >::_Rb_tree_iterator<stlp_std::pair<int const ,unsigned int>,stlp_std::priv::_ConstMapTraitsT<stlp_std::pair<int const ,unsigned int> > >
	mov	eax, DWORD PTR _B$[esp+64]
	cmp	eax, DWORD PTR $T292836[esp+64]
	jne	SHORT $LN5@Interpolat

; 113  : 	    	B--;

	lea	ecx, DWORD PTR _B$[esp+64]
	push	ecx
	lea	ecx, DWORD PTR $T292780[esp+68]
	call	??0?$_Rb_tree_iterator@U?$pair@$$CBHI@stlp_std@@U?$_MapTraitsT@U?$pair@$$CBHI@stlp_std@@@priv@2@@priv@stlp_std@@QAE@ABU012@@Z ; stlp_std::priv::_Rb_tree_iterator<stlp_std::pair<int const ,unsigned int>,stlp_std::priv::_MapTraitsT<stlp_std::pair<int const ,unsigned int> > >::_Rb_tree_iterator<stlp_std::pair<int const ,unsigned int>,stlp_std::priv::_MapTraitsT<stlp_std::pair<int const ,unsigned int> > >
	lea	ecx, DWORD PTR _B$[esp+64]
	call	??F?$_Rb_tree_iterator@U?$pair@$$CBHI@stlp_std@@U?$_MapTraitsT@U?$pair@$$CBHI@stlp_std@@@priv@2@@priv@stlp_std@@QAEAAU012@XZ ; stlp_std::priv::_Rb_tree_iterator<stlp_std::pair<int const ,unsigned int>,stlp_std::priv::_MapTraitsT<stlp_std::pair<int const ,unsigned int> > >::operator--

; 114  :         	return B->second;

	lea	ecx, DWORD PTR _B$[esp+64]
	call	??C?$_Rb_tree_iterator@U?$pair@$$CBHI@stlp_std@@U?$_MapTraitsT@U?$pair@$$CBHI@stlp_std@@@priv@2@@priv@stlp_std@@QBEPAU?$pair@$$CBHI@2@XZ ; stlp_std::priv::_Rb_tree_iterator<stlp_std::pair<int const ,unsigned int>,stlp_std::priv::_MapTraitsT<stlp_std::pair<int const ,unsigned int> > >::operator->
	mov	eax, DWORD PTR [eax+4]

; 130  : }

	pop	edi
	pop	esi
	pop	ebx
	mov	esp, ebp
	pop	ebp
	ret	4
$LN5@Interpolat:

; 115  :         }
; 116  :     	A=B;        				//   A   
; 117  :         A--;

	lea	edx, DWORD PTR _A$[esp+64]
	push	edx
	lea	ecx, DWORD PTR $T292781[esp+68]
	mov	DWORD PTR _A$[esp+68], eax
	call	??0?$_Rb_tree_iterator@U?$pair@$$CBHI@stlp_std@@U?$_MapTraitsT@U?$pair@$$CBHI@stlp_std@@@priv@2@@priv@stlp_std@@QAE@ABU012@@Z ; stlp_std::priv::_Rb_tree_iterator<stlp_std::pair<int const ,unsigned int>,stlp_std::priv::_MapTraitsT<stlp_std::pair<int const ,unsigned int> > >::_Rb_tree_iterator<stlp_std::pair<int const ,unsigned int>,stlp_std::priv::_MapTraitsT<stlp_std::pair<int const ,unsigned int> > >
	lea	ecx, DWORD PTR _A$[esp+64]
	call	??F?$_Rb_tree_iterator@U?$pair@$$CBHI@stlp_std@@U?$_MapTraitsT@U?$pair@$$CBHI@stlp_std@@@priv@2@@priv@stlp_std@@QAEAAU012@XZ ; stlp_std::priv::_Rb_tree_iterator<stlp_std::pair<int const ,unsigned int>,stlp_std::priv::_MapTraitsT<stlp_std::pair<int const ,unsigned int> > >::operator--

; 118  :     }
; 119  : 
; 120  :     R_ASSERT(Keys.size()>1);

	cmp	BYTE PTR ?ignore_always@?BA@??InterpolateRGB@CLAItem@@QAEIH@Z@4_NA, 0
	jne	SHORT $LN3@Interpolat
	cmp	DWORD PTR [edi+24], 1
	ja	SHORT $LN3@Interpolat
	mov	ecx, DWORD PTR __imp_?Debug@@3VxrDebug@@A
	push	OFFSET ?ignore_always@?BA@??InterpolateRGB@CLAItem@@QAEIH@Z@4_NA
	push	OFFSET ??_C@_0BI@CFJEJJFO@CLAItem?3?3InterpolateRGB?$AA@
	push	120					; 00000078H
	push	OFFSET ??_C@_0DJ@LHCNLGNK@D?3?2CLEARSKY?2sources?2engine?2xrEng@
	push	OFFSET ??_C@_0O@GOCGIBMI@Keys?4size?$CI?$CJ?$DO1?$AA@
	call	ebx
$LN3@Interpolat:

; 121  :     //  
; 122  :     Fcolor c, c0, c1;
; 123  :     float a0=(float)A->first;

	lea	ecx, DWORD PTR _A$[esp+64]
	call	??C?$_Rb_tree_iterator@U?$pair@$$CBHI@stlp_std@@U?$_MapTraitsT@U?$pair@$$CBHI@stlp_std@@@priv@2@@priv@stlp_std@@QBEPAU?$pair@$$CBHI@2@XZ ; stlp_std::priv::_Rb_tree_iterator<stlp_std::pair<int const ,unsigned int>,stlp_std::priv::_MapTraitsT<stlp_std::pair<int const ,unsigned int> > >::operator->
	cvtsi2ss xmm0, DWORD PTR [eax]

; 124  :     float a1=(float)B->first;

	lea	ecx, DWORD PTR _B$[esp+64]
	movss	DWORD PTR _a0$[esp+64], xmm0
	call	??C?$_Rb_tree_iterator@U?$pair@$$CBHI@stlp_std@@U?$_MapTraitsT@U?$pair@$$CBHI@stlp_std@@@priv@2@@priv@stlp_std@@QBEPAU?$pair@$$CBHI@2@XZ ; stlp_std::priv::_Rb_tree_iterator<stlp_std::pair<int const ,unsigned int>,stlp_std::priv::_MapTraitsT<stlp_std::pair<int const ,unsigned int> > >::operator->
	cvtsi2ss xmm0, DWORD PTR [eax]

; 125  :     c0.set(A->second);

	lea	ecx, DWORD PTR _A$[esp+64]
	movss	DWORD PTR _a1$[esp+64], xmm0
	call	??C?$_Rb_tree_iterator@U?$pair@$$CBHI@stlp_std@@U?$_MapTraitsT@U?$pair@$$CBHI@stlp_std@@@priv@2@@priv@stlp_std@@QBEPAU?$pair@$$CBHI@2@XZ ; stlp_std::priv::_Rb_tree_iterator<stlp_std::pair<int const ,unsigned int>,stlp_std::priv::_MapTraitsT<stlp_std::pair<int const ,unsigned int> > >::operator->
	mov	eax, DWORD PTR [eax+4]
	mov	ecx, eax
	shr	ecx, 24					; 00000018H
	test	ecx, ecx
	mov	DWORD PTR tv799[esp+64], ecx
	fild	DWORD PTR tv799[esp+64]
	jge	SHORT $LN155@Interpolat
	fadd	DWORD PTR __real@4f800000
$LN155@Interpolat:
	fld	DWORD PTR __real@3b808081
	mov	edx, eax
	fmul	ST(1), ST(0)
	shr	edx, 16					; 00000010H
	mov	edi, 255				; 000000ffH
	fxch	ST(1)
	and	edx, edi
	fstp	DWORD PTR _c0$[esp+76]
	mov	DWORD PTR tv798[esp+64], edx
	fild	DWORD PTR tv798[esp+64]
	mov	ecx, eax
	shr	ecx, 8
	and	ecx, edi
	fmul	ST(0), ST(1)
	mov	DWORD PTR tv797[esp+64], ecx
	movzx	edx, al

; 126  :     c1.set(B->second);

	lea	ecx, DWORD PTR _B$[esp+64]
	fstp	DWORD PTR _c0$[esp+64]
	fild	DWORD PTR tv797[esp+64]
	mov	DWORD PTR tv796[esp+64], edx
	fmul	ST(0), ST(1)
	fstp	DWORD PTR _c0$[esp+68]
	fimul	DWORD PTR tv796[esp+64]
	fstp	DWORD PTR _c0$[esp+72]
	call	??C?$_Rb_tree_iterator@U?$pair@$$CBHI@stlp_std@@U?$_MapTraitsT@U?$pair@$$CBHI@stlp_std@@@priv@2@@priv@stlp_std@@QBEPAU?$pair@$$CBHI@2@XZ ; stlp_std::priv::_Rb_tree_iterator<stlp_std::pair<int const ,unsigned int>,stlp_std::priv::_MapTraitsT<stlp_std::pair<int const ,unsigned int> > >::operator->
	mov	eax, DWORD PTR [eax+4]
	mov	ecx, eax
	shr	ecx, 24					; 00000018H
	test	ecx, ecx
	mov	DWORD PTR tv794[esp+64], ecx
	fild	DWORD PTR tv794[esp+64]
	jge	SHORT $LN156@Interpolat
	fadd	DWORD PTR __real@4f800000
$LN156@Interpolat:
	fld	DWORD PTR __real@3b808081
	mov	edx, eax
	shr	edx, 16					; 00000010H
	fmul	ST(1), ST(0)

; 127  :     float t = float(frame-a0)/float(a1-a0);

	movss	xmm2, DWORD PTR _a0$[esp+64]
	fxch	ST(1)
	movss	xmm0, DWORD PTR _a1$[esp+64]
	and	edx, edi
	fstp	DWORD PTR _c1$[esp+76]
	cvtsi2ss xmm1, DWORD PTR _frame$[ebp]
	mov	DWORD PTR tv793[esp+64], edx
	fild	DWORD PTR tv793[esp+64]
	mov	ecx, eax
	shr	ecx, 8
	and	ecx, edi
	fmul	ST(0), ST(1)
	mov	DWORD PTR tv792[esp+64], ecx
	movzx	edx, al
	fstp	DWORD PTR _c1$[esp+64]

; 128  :     c.lerp(c0,c1,t);

	movss	xmm3, DWORD PTR _c1$[esp+64]
	fild	DWORD PTR tv792[esp+64]
	mov	DWORD PTR tv791[esp+64], edx
	subss	xmm0, xmm2
	subss	xmm1, xmm2
	fmul	ST(0), ST(1)
	divss	xmm1, xmm0
	movss	xmm0, DWORD PTR __real@3f800000
	subss	xmm0, xmm1
	fstp	DWORD PTR _c1$[esp+68]
	mulss	xmm3, xmm1
	movss	xmm4, DWORD PTR _c1$[esp+68]
	fimul	DWORD PTR tv791[esp+64]
	movaps	xmm2, xmm0
	mulss	xmm2, DWORD PTR _c0$[esp+64]
	addss	xmm2, xmm3
	movss	xmm3, DWORD PTR _c0$[esp+68]
	mulss	xmm4, xmm1
	mulss	xmm3, xmm0
	addss	xmm3, xmm4
	movss	xmm4, DWORD PTR _c0$[esp+72]
	fstp	DWORD PTR _c1$[esp+72]
	movss	xmm5, DWORD PTR _c1$[esp+72]
	mulss	xmm5, xmm1
	mulss	xmm4, xmm0
	addss	xmm4, xmm5
	movss	xmm5, DWORD PTR _c1$[esp+76]
	mulss	xmm5, xmm1

; 129  :     return c.get();

	movss	xmm1, DWORD PTR __real@437f0000
	mulss	xmm2, xmm1
	movss	DWORD PTR _a$293131[esp+64], xmm2
	mov	esi, DWORD PTR _a$293131[esp+64]
	mov	eax, esi
	sar	eax, 23					; 00000017H
	and	eax, edi
	mov	edx, esi
	or	edx, -8388608				; ff800000H
	shl	edx, 8
	mulss	xmm0, DWORD PTR _c0$[esp+76]
	mov	ecx, 158				; 0000009eH
	sub	ecx, eax
	shr	edx, cl
	sub	ecx, 96					; 00000060H
	mov	eax, 1
	shl	eax, cl
	addss	xmm0, xmm5
	sub	eax, 1
	sar	eax, 8
	and	eax, esi
	neg	eax
	sbb	eax, eax
	add	eax, 1
	sar	esi, 31					; 0000001fH
	and	eax, esi
	add	ecx, 64					; 00000040H
	sub	edx, eax
	sar	ecx, 31					; 0000001fH
	and	edx, ecx
	xor	edx, esi
	jge	SHORT $LN125@Interpolat
	mov	DWORD PTR __r$293180[esp+64], 0
	jmp	SHORT $LN122@Interpolat
$LN125@Interpolat:
	cmp	edx, edi
	mov	DWORD PTR __r$293180[esp+64], edi
	jg	SHORT $LN122@Interpolat
	mov	DWORD PTR __r$293180[esp+64], edx
$LN122@Interpolat:
	mulss	xmm3, xmm1
	movss	DWORD PTR _a$293143[esp+64], xmm3
	mov	esi, DWORD PTR _a$293143[esp+64]
	mov	edx, esi
	sar	edx, 23					; 00000017H
	and	edx, edi
	mov	ecx, 158				; 0000009eH
	sub	ecx, edx
	mov	edx, esi
	or	edx, -8388608				; ff800000H
	shl	edx, 8
	shr	edx, cl
	sub	ecx, 96					; 00000060H
	mov	eax, 1
	shl	eax, cl
	sub	eax, 1
	sar	eax, 8
	and	eax, esi
	neg	eax
	sbb	eax, eax
	add	eax, 1
	sar	esi, 31					; 0000001fH
	and	eax, esi
	add	ecx, 64					; 00000040H
	sub	edx, eax
	sar	ecx, 31					; 0000001fH
	and	edx, ecx
	xor	edx, esi
	jge	SHORT $LN133@Interpolat
	mov	DWORD PTR __g$293181[esp+64], 0
	jmp	SHORT $LN130@Interpolat
$LN133@Interpolat:
	cmp	edx, edi
	mov	DWORD PTR __g$293181[esp+64], edi
	jg	SHORT $LN130@Interpolat
	mov	DWORD PTR __g$293181[esp+64], edx
$LN130@Interpolat:
	mulss	xmm4, xmm1
	movss	DWORD PTR _a$293155[esp+64], xmm4
	mov	esi, DWORD PTR _a$293155[esp+64]
	mov	eax, esi
	sar	eax, 23					; 00000017H
	and	eax, edi
	mov	edx, esi
	or	edx, -8388608				; ff800000H
	shl	edx, 8
	mov	ecx, 158				; 0000009eH
	sub	ecx, eax
	shr	edx, cl
	sub	ecx, 96					; 00000060H
	mov	eax, 1
	shl	eax, cl
	sub	eax, 1
	sar	eax, 8
	and	eax, esi
	neg	eax
	sbb	eax, eax
	add	eax, 1
	sar	esi, 31					; 0000001fH
	and	eax, esi
	add	ecx, 64					; 00000040H
	sub	edx, eax
	sar	ecx, 31					; 0000001fH
	and	edx, ecx
	xor	edx, esi
	jge	SHORT $LN141@Interpolat
	xor	ebx, ebx
	jmp	SHORT $LN138@Interpolat
$LN141@Interpolat:
	cmp	edx, edi
	mov	ebx, edi
	jg	SHORT $LN138@Interpolat
	mov	ebx, edx
$LN138@Interpolat:
	mulss	xmm0, xmm1
	movss	DWORD PTR _a$293167[esp+64], xmm0
	mov	esi, DWORD PTR _a$293167[esp+64]
	mov	edx, esi
	sar	edx, 23					; 00000017H
	and	edx, edi
	mov	ecx, 158				; 0000009eH
	sub	ecx, edx
	mov	edx, esi
	or	edx, -8388608				; ff800000H
	shl	edx, 8
	shr	edx, cl
	sub	ecx, 96					; 00000060H
	mov	eax, 1
	shl	eax, cl
	sub	eax, 1
	sar	eax, 8
	and	eax, esi
	neg	eax
	sbb	eax, eax
	add	eax, 1
	sar	esi, 31					; 0000001fH
	add	ecx, 64					; 00000040H
	and	eax, esi
	sar	ecx, 31					; 0000001fH
	sub	edx, eax
	and	edx, ecx
	xor	edx, esi
	mov	ecx, edx
	jge	SHORT $LN149@Interpolat
	xor	ecx, ecx
	jmp	SHORT $LN147@Interpolat
$LN149@Interpolat:
	cmp	ecx, edi
	jle	SHORT $LN147@Interpolat
	mov	ecx, edi
$LN147@Interpolat:
	movzx	eax, BYTE PTR __r$293180[esp+64]
	shl	ecx, 8
	or	eax, ecx
	movzx	ecx, BYTE PTR __g$293181[esp+64]
	shl	eax, 8
	or	eax, ecx
	movzx	edx, bl

; 130  : }

	pop	edi
	shl	eax, 8
	pop	esi
	or	eax, edx
	pop	ebx
	mov	esp, ebp
	pop	ebp
	ret	4
?InterpolateRGB@CLAItem@@QAEIH@Z ENDP			; CLAItem::InterpolateRGB
_TEXT	ENDS
PUBLIC	?DeleteKey@CLAItem@@QAEXH@Z			; CLAItem::DeleteKey
; Function compile flags: /Ogtpy
;	COMDAT ?DeleteKey@CLAItem@@QAEXH@Z
_TEXT	SEGMENT
_it$ = -8						; size = 4
$T293192 = -4						; size = 4
_frame$ = 8						; size = 4
?DeleteKey@CLAItem@@QAEXH@Z PROC			; CLAItem::DeleteKey, COMDAT
; _this$ = ecx

; 68   : {

	sub	esp, 8

; 69   : 	R_ASSERT(frame<=iFrameCount);

	cmp	BYTE PTR ?ignore_always@?3??DeleteKey@CLAItem@@QAEXH@Z@4_NA, 0
	push	esi
	mov	esi, ecx
	jne	SHORT $LN5@DeleteKey
	mov	eax, DWORD PTR _frame$[esp+8]
	cmp	eax, DWORD PTR [esi+32]
	jle	SHORT $LN5@DeleteKey
	mov	ecx, DWORD PTR __imp_?Debug@@3VxrDebug@@A
	push	OFFSET ?ignore_always@?3??DeleteKey@CLAItem@@QAEXH@Z@4_NA
	push	OFFSET ??_C@_0BD@FPJIDMJL@CLAItem?3?3DeleteKey?$AA@
	push	69					; 00000045H
	push	OFFSET ??_C@_0DJ@LHCNLGNK@D?3?2CLEARSKY?2sources?2engine?2xrEng@
	push	OFFSET ??_C@_0BD@MALKJDA@frame?$DM?$DNiFrameCount?$AA@
	call	DWORD PTR __imp_?fail@xrDebug@@QAEXPBD0H0AA_N@Z
$LN5@DeleteKey:

; 70   :     if (0==frame) return;

	cmp	DWORD PTR _frame$[esp+8], 0
	je	SHORT $LN1@DeleteKey

; 71   : 	KeyPairIt it=Keys.find(frame);

	lea	ecx, DWORD PTR _frame$[esp+8]
	push	ecx
	lea	edx, DWORD PTR _it$[esp+16]
	add	esi, 8
	push	edx
	mov	ecx, esi
	call	??$find@H@?$map@HIU?$less@H@stlp_std@@V?$xalloc@U?$pair@HI@stlp_std@@@@@stlp_std@@QAE?AU?$_Rb_tree_iterator@U?$pair@$$CBHI@stlp_std@@U?$_MapTraitsT@U?$pair@$$CBHI@stlp_std@@@priv@2@@priv@1@ABH@Z ; stlp_std::map<int,unsigned int,stlp_std::less<int>,xalloc<stlp_std::pair<int,unsigned int> > >::find<int>

; 72   :     if (it!=Keys.end()) Keys.erase(it);

	lea	eax, DWORD PTR $T293192[esp+12]
	push	eax
	mov	ecx, esi
	call	?end@?$map@HIU?$less@H@stlp_std@@V?$xalloc@U?$pair@HI@stlp_std@@@@@stlp_std@@QAE?AU?$_Rb_tree_iterator@U?$pair@$$CBHI@stlp_std@@U?$_MapTraitsT@U?$pair@$$CBHI@stlp_std@@@priv@2@@priv@2@XZ ; stlp_std::map<int,unsigned int,stlp_std::less<int>,xalloc<stlp_std::pair<int,unsigned int> > >::end
	push	ecx
	mov	ecx, esp
	push	eax
	call	??0?$_Rb_tree_iterator@U?$pair@$$CBHI@stlp_std@@U?$_ConstMapTraitsT@U?$pair@$$CBHI@stlp_std@@@priv@2@@priv@stlp_std@@QAE@ABU?$_Rb_tree_iterator@U?$pair@$$CBHI@stlp_std@@U?$_MapTraitsT@U?$pair@$$CBHI@stlp_std@@@priv@2@@12@@Z ; stlp_std::priv::_Rb_tree_iterator<stlp_std::pair<int const ,unsigned int>,stlp_std::priv::_ConstMapTraitsT<stlp_std::pair<int const ,unsigned int> > >::_Rb_tree_iterator<stlp_std::pair<int const ,unsigned int>,stlp_std::priv::_ConstMapTraitsT<stlp_std::pair<int const ,unsigned int> > >
	lea	ecx, DWORD PTR _it$[esp+16]
	call	??9?$_Rb_tree_iterator@U?$pair@$$CBHI@stlp_std@@U?$_MapTraitsT@U?$pair@$$CBHI@stlp_std@@@priv@2@@priv@stlp_std@@QBE_NU?$_Rb_tree_iterator@U?$pair@$$CBHI@stlp_std@@U?$_ConstMapTraitsT@U?$pair@$$CBHI@stlp_std@@@priv@2@@12@@Z ; stlp_std::priv::_Rb_tree_iterator<stlp_std::pair<int const ,unsigned int>,stlp_std::priv::_MapTraitsT<stlp_std::pair<int const ,unsigned int> > >::operator!=
	test	al, al
	je	SHORT $LN1@DeleteKey
	push	ecx
	lea	edx, DWORD PTR _it$[esp+16]
	mov	ecx, esp
	push	edx
	call	??0?$_Rb_tree_iterator@U?$pair@$$CBHI@stlp_std@@U?$_MapTraitsT@U?$pair@$$CBHI@stlp_std@@@priv@2@@priv@stlp_std@@QAE@ABU012@@Z ; stlp_std::priv::_Rb_tree_iterator<stlp_std::pair<int const ,unsigned int>,stlp_std::priv::_MapTraitsT<stlp_std::pair<int const ,unsigned int> > >::_Rb_tree_iterator<stlp_std::pair<int const ,unsigned int>,stlp_std::priv::_MapTraitsT<stlp_std::pair<int const ,unsigned int> > >
	call	?erase@?$map@HIU?$less@H@stlp_std@@V?$xalloc@U?$pair@HI@stlp_std@@@@@stlp_std@@QAEXU?$_Rb_tree_iterator@U?$pair@$$CBHI@stlp_std@@U?$_MapTraitsT@U?$pair@$$CBHI@stlp_std@@@priv@2@@priv@2@@Z ; stlp_std::map<int,unsigned int,stlp_std::less<int>,xalloc<stlp_std::pair<int,unsigned int> > >::erase
$LN1@DeleteKey:

; 73   : }

	pop	esi
	add	esp, 8
	ret	4
?DeleteKey@CLAItem@@QAEXH@Z ENDP			; CLAItem::DeleteKey
_TEXT	ENDS
PUBLIC	?Save@CLAItem@@QAEXAAVIWriter@@@Z		; CLAItem::Save
; Function compile flags: /Ogtpy
;	COMDAT ?Save@CLAItem@@QAEXAAVIWriter@@@Z
_TEXT	SEGMENT
$T293223 = -8						; size = 4
$T293221 = -4						; size = 4
_it$116323 = 8						; size = 4
_F$ = 8							; size = 4
?Save@CLAItem@@QAEXAAVIWriter@@@Z PROC			; CLAItem::Save, COMDAT
; _this$ = ecx

; 45   : {

	sub	esp, 8
	push	ebx

; 46   :     F.open_chunk	(CHUNK_ITEM_COMMON);

	mov	ebx, DWORD PTR __imp_?open_chunk@IWriter@@QAEXI@Z
	push	ebp
	push	esi
	mov	esi, DWORD PTR _F$[esp+16]
	push	edi
	mov	edi, ecx
	push	1
	mov	ecx, esi
	call	ebx

; 47   :     F.w_stringZ		(cName);

	push	edi
	mov	ecx, esi
	call	DWORD PTR __imp_?w_stringZ@IWriter@@QAEXAAVshared_str@@@Z

; 48   :     F.w_float		(fFPS);

	fld	DWORD PTR [edi+4]
	push	ecx
	mov	ecx, esi
	fstp	DWORD PTR [esp]
	call	DWORD PTR __imp_?w_float@IWriter@@QAEXM@Z

; 49   :     F.w_u32		(iFrameCount);

	mov	eax, DWORD PTR [edi+32]
	push	eax
	mov	ecx, esi
	call	DWORD PTR __imp_?w_u32@IWriter@@QAEXI@Z

; 50   : 	F.close_chunk	();

	mov	ebp, DWORD PTR __imp_?close_chunk@IWriter@@QAEXXZ
	mov	ecx, esi
	call	ebp

; 51   : 
; 52   :     F.open_chunk	(CHUNK_ITEM_KEYS);

	push	2
	mov	ecx, esi
	call	ebx

; 53   :     F.w_u32		(Keys.size());

	mov	ecx, DWORD PTR [edi+24]
	push	ecx
	mov	ecx, esi
	call	DWORD PTR __imp_?w_u32@IWriter@@QAEXI@Z

; 54   :     for (KeyPairIt it=Keys.begin(); it!=Keys.end(); it++){

	add	edi, 8
	lea	edx, DWORD PTR _it$116323[esp+20]
	push	edx
	mov	ecx, edi
	call	?begin@?$_Rb_tree@HU?$less@H@stlp_std@@U?$pair@$$CBHI@2@U?$_Select1st@U?$pair@$$CBHI@stlp_std@@@priv@2@U?$_MapTraitsT@U?$pair@$$CBHI@stlp_std@@@52@V?$xalloc@U?$pair@HI@stlp_std@@@@@priv@stlp_std@@QAE?AU?$_Rb_tree_iterator@U?$pair@$$CBHI@stlp_std@@U?$_MapTraitsT@U?$pair@$$CBHI@stlp_std@@@priv@2@@23@XZ ; stlp_std::priv::_Rb_tree<int,stlp_std::less<int>,stlp_std::pair<int const ,unsigned int>,stlp_std::priv::_Select1st<stlp_std::pair<int const ,unsigned int> >,stlp_std::priv::_MapTraitsT<stlp_std::pair<int const ,unsigned int> >,xalloc<stlp_std::pair<int,unsigned int> > >::begin
$LL28@Save@6:
	lea	eax, DWORD PTR $T293223[esp+24]
	push	eax
	mov	ecx, edi
	call	?end@?$map@HIU?$less@H@stlp_std@@V?$xalloc@U?$pair@HI@stlp_std@@@@@stlp_std@@QAE?AU?$_Rb_tree_iterator@U?$pair@$$CBHI@stlp_std@@U?$_MapTraitsT@U?$pair@$$CBHI@stlp_std@@@priv@2@@priv@2@XZ ; stlp_std::map<int,unsigned int,stlp_std::less<int>,xalloc<stlp_std::pair<int,unsigned int> > >::end
	push	ecx
	mov	ecx, esp
	push	eax
	call	??0?$_Rb_tree_iterator@U?$pair@$$CBHI@stlp_std@@U?$_ConstMapTraitsT@U?$pair@$$CBHI@stlp_std@@@priv@2@@priv@stlp_std@@QAE@ABU?$_Rb_tree_iterator@U?$pair@$$CBHI@stlp_std@@U?$_MapTraitsT@U?$pair@$$CBHI@stlp_std@@@priv@2@@12@@Z ; stlp_std::priv::_Rb_tree_iterator<stlp_std::pair<int const ,unsigned int>,stlp_std::priv::_ConstMapTraitsT<stlp_std::pair<int const ,unsigned int> > >::_Rb_tree_iterator<stlp_std::pair<int const ,unsigned int>,stlp_std::priv::_ConstMapTraitsT<stlp_std::pair<int const ,unsigned int> > >
	lea	ecx, DWORD PTR _it$116323[esp+24]
	call	??9?$_Rb_tree_iterator@U?$pair@$$CBHI@stlp_std@@U?$_MapTraitsT@U?$pair@$$CBHI@stlp_std@@@priv@2@@priv@stlp_std@@QBE_NU?$_Rb_tree_iterator@U?$pair@$$CBHI@stlp_std@@U?$_ConstMapTraitsT@U?$pair@$$CBHI@stlp_std@@@priv@2@@12@@Z ; stlp_std::priv::_Rb_tree_iterator<stlp_std::pair<int const ,unsigned int>,stlp_std::priv::_MapTraitsT<stlp_std::pair<int const ,unsigned int> > >::operator!=
	test	al, al
	je	$LN1@Save@6

; 55   : 		F.w_u32	(it->first);

	lea	ecx, DWORD PTR _it$116323[esp+20]
	call	??C?$_Rb_tree_iterator@U?$pair@$$CBHI@stlp_std@@U?$_MapTraitsT@U?$pair@$$CBHI@stlp_std@@@priv@2@@priv@stlp_std@@QBEPAU?$pair@$$CBHI@2@XZ ; stlp_std::priv::_Rb_tree_iterator<stlp_std::pair<int const ,unsigned int>,stlp_std::priv::_MapTraitsT<stlp_std::pair<int const ,unsigned int> > >::operator->
	mov	ecx, DWORD PTR [eax]
	push	ecx
	mov	ecx, esi
	call	DWORD PTR __imp_?w_u32@IWriter@@QAEXI@Z

; 56   : 		F.w_u32	(it->second);

	lea	ecx, DWORD PTR _it$116323[esp+20]
	call	??C?$_Rb_tree_iterator@U?$pair@$$CBHI@stlp_std@@U?$_MapTraitsT@U?$pair@$$CBHI@stlp_std@@@priv@2@@priv@stlp_std@@QBEPAU?$pair@$$CBHI@2@XZ ; stlp_std::priv::_Rb_tree_iterator<stlp_std::pair<int const ,unsigned int>,stlp_std::priv::_MapTraitsT<stlp_std::pair<int const ,unsigned int> > >::operator->
	mov	edx, DWORD PTR [eax+4]
	push	edx
	mov	ecx, esi
	call	DWORD PTR __imp_?w_u32@IWriter@@QAEXI@Z
	lea	eax, DWORD PTR _it$116323[esp+20]
	push	eax
	lea	ecx, DWORD PTR $T293221[esp+28]
	call	??0?$_Rb_tree_iterator@U?$pair@$$CBHI@stlp_std@@U?$_MapTraitsT@U?$pair@$$CBHI@stlp_std@@@priv@2@@priv@stlp_std@@QAE@ABU012@@Z ; stlp_std::priv::_Rb_tree_iterator<stlp_std::pair<int const ,unsigned int>,stlp_std::priv::_MapTraitsT<stlp_std::pair<int const ,unsigned int> > >::_Rb_tree_iterator<stlp_std::pair<int const ,unsigned int>,stlp_std::priv::_MapTraitsT<stlp_std::pair<int const ,unsigned int> > >
	mov	ecx, DWORD PTR _it$116323[esp+20]
	mov	eax, DWORD PTR [ecx+12]
	test	eax, eax
	je	SHORT $LN34@Save@6
	mov	ecx, eax
	mov	eax, DWORD PTR [ecx+8]
	test	eax, eax
	je	SHORT $LN30@Save@6
	npad	7

; 54   :     for (KeyPairIt it=Keys.begin(); it!=Keys.end(); it++){

$LL38@Save@6:
	mov	ecx, eax
	mov	eax, DWORD PTR [ecx+8]
	test	eax, eax
	jne	SHORT $LL38@Save@6
	mov	DWORD PTR _it$116323[esp+20], ecx
	jmp	$LL28@Save@6
$LN34@Save@6:
	mov	eax, DWORD PTR [ecx+4]
	cmp	ecx, DWORD PTR [eax+12]
	jne	SHORT $LN31@Save@6
	npad	6
$LL32@Save@6:
	mov	ecx, eax
	mov	eax, DWORD PTR [eax+4]
	cmp	ecx, DWORD PTR [eax+12]
	je	SHORT $LL32@Save@6
$LN31@Save@6:
	cmp	DWORD PTR [ecx+12], eax
	je	SHORT $LN30@Save@6
	mov	ecx, eax
$LN30@Save@6:
	mov	DWORD PTR _it$116323[esp+20], ecx
	jmp	$LL28@Save@6
$LN1@Save@6:

; 57   :     }
; 58   : 	F.close_chunk	();

	mov	ecx, esi
	call	ebp

; 59   : }

	pop	edi
	pop	esi
	pop	ebp
	pop	ebx
	add	esp, 8
	ret	4
?Save@CLAItem@@QAEXAAVIWriter@@@Z ENDP			; CLAItem::Save
_TEXT	ENDS
PUBLIC	??0CLAItem@@QAE@XZ				; CLAItem::CLAItem
; Function compile flags: /Ogtpy
;	COMDAT ??0CLAItem@@QAE@XZ
_TEXT	SEGMENT
$T293355 = -1						; size = 1
$T293354 = -1						; size = 1
??0CLAItem@@QAE@XZ PROC					; CLAItem::CLAItem, COMDAT
; _this$ = ecx

; 19   : {

	push	ecx
	push	esi
	mov	esi, ecx
	push	edi
	lea	eax, DWORD PTR $T293354[esp+12]
	lea	edi, DWORD PTR [esi+8]
	push	eax
	mov	ecx, edi
	mov	DWORD PTR [esi], 0
	call	??0?$_Rb_tree_base@U?$pair@$$CBHI@stlp_std@@V?$xalloc@U?$pair@HI@stlp_std@@@@@priv@stlp_std@@IAE@ABV?$xalloc@U?$pair@$$CBHI@stlp_std@@@@@Z ; stlp_std::priv::_Rb_tree_base<stlp_std::pair<int const ,unsigned int>,xalloc<stlp_std::pair<int,unsigned int> > >::_Rb_tree_base<stlp_std::pair<int const ,unsigned int>,xalloc<stlp_std::pair<int,unsigned int> > >
	mov	cl, BYTE PTR $T293355[esp+12]

; 20   : 	fFPS		= 15.f;

	movss	xmm0, DWORD PTR __real@41700000
	mov	DWORD PTR [edi+16], 0
	mov	BYTE PTR [edi+20], cl
	pop	edi
	movss	DWORD PTR [esi+4], xmm0

; 21   : 	iFrameCount	= 1;

	mov	DWORD PTR [esi+32], 1

; 22   : }

	mov	eax, esi
	pop	esi
	pop	ecx
	ret	0
??0CLAItem@@QAE@XZ ENDP					; CLAItem::CLAItem
; Function compile flags: /Ogtpy
; File d:\clearsky\sources\sdk\include\stlport\stl\_tree.c
;	COMDAT ?insert_unique@?$_Rb_tree@HU?$less@H@stlp_std@@U?$pair@$$CBHI@2@U?$_Select1st@U?$pair@$$CBHI@stlp_std@@@priv@2@U?$_MapTraitsT@U?$pair@$$CBHI@stlp_std@@@52@V?$xalloc@U?$pair@HI@stlp_std@@@@@priv@stlp_std@@QAE?AU?$pair@U?$_Rb_tree_iterator@U?$pair@$$CBHI@stlp_std@@U?$_MapTraitsT@U?$pair@$$CBHI@stlp_std@@@priv@2@@priv@stlp_std@@_N@3@ABU?$pair@$$CBHI@3@@Z
_TEXT	SEGMENT
___j$ = -4						; size = 4
$T368641 = 8						; size = 4
$T368610 = 8						; size = 1
$T368609 = 8						; size = 4
_this$ = 8						; size = 4
$T368607 = 12						; size = 4
$T368603 = 12						; size = 1
___$ReturnUdt$ = 12					; size = 4
___val$ = 16						; size = 4
?insert_unique@?$_Rb_tree@HU?$less@H@stlp_std@@U?$pair@$$CBHI@2@U?$_Select1st@U?$pair@$$CBHI@stlp_std@@@priv@2@U?$_MapTraitsT@U?$pair@$$CBHI@stlp_std@@@52@V?$xalloc@U?$pair@HI@stlp_std@@@@@priv@stlp_std@@QAE?AU?$pair@U?$_Rb_tree_iterator@U?$pair@$$CBHI@stlp_std@@U?$_MapTraitsT@U?$pair@$$CBHI@stlp_std@@@priv@2@@priv@stlp_std@@_N@3@ABU?$pair@$$CBHI@3@@Z PROC ; stlp_std::priv::_Rb_tree<int,stlp_std::less<int>,stlp_std::pair<int const ,unsigned int>,stlp_std::priv::_Select1st<stlp_std::pair<int const ,unsigned int> >,stlp_std::priv::_MapTraitsT<stlp_std::pair<int const ,unsigned int> >,xalloc<stlp_std::pair<int,unsigned int> > >::insert_unique, COMDAT

; 405  : _Rb_tree<_Key,_Compare,_Value,_KeyOfValue,_Traits,_Alloc> ::insert_unique(const _Value& __val) {

	push	ecx

; 406  :   _Base_ptr __y = &this->_M_header._M_data;

	mov	ecx, DWORD PTR _this$[esp]
	push	ebx
	push	ebp
	mov	ebp, DWORD PTR ___$ReturnUdt$[esp+8]
	push	esi
	push	edi
	mov	edi, ecx

; 407  :   _Base_ptr __x = _M_root();

	call	?_M_root@?$_Rb_tree@HU?$less@H@stlp_std@@U?$pair@$$CBHI@2@U?$_Select1st@U?$pair@$$CBHI@stlp_std@@@priv@2@U?$_MapTraitsT@U?$pair@$$CBHI@stlp_std@@@52@V?$xalloc@U?$pair@HI@stlp_std@@@@@priv@stlp_std@@IAEAAPAU_Rb_tree_node_base@23@XZ ; stlp_std::priv::_Rb_tree<int,stlp_std::less<int>,stlp_std::pair<int const ,unsigned int>,stlp_std::priv::_Select1st<stlp_std::pair<int const ,unsigned int> >,stlp_std::priv::_MapTraitsT<stlp_std::pair<int const ,unsigned int> >,xalloc<stlp_std::pair<int,unsigned int> > >::_M_root
	mov	esi, DWORD PTR [eax]

; 408  :   bool __comp = true;
; 409  :   while (__x != 0) {

	test	esi, esi
	mov	bl, 1
	je	SHORT $LN5@insert_uni@4
	npad	4
$LL6@insert_uni@4:

; 410  :     __y = __x;
; 411  :     __comp = _M_key_compare(_KeyOfValue()(__val), _S_key(__x));

	push	esi
	mov	edi, esi
	call	?_S_key@?$_Rb_tree@HU?$less@H@stlp_std@@U?$pair@$$CBHI@2@U?$_Select1st@U?$pair@$$CBHI@stlp_std@@@priv@2@U?$_MapTraitsT@U?$pair@$$CBHI@stlp_std@@@52@V?$xalloc@U?$pair@HI@stlp_std@@@@@priv@stlp_std@@KAABHPAU_Rb_tree_node_base@23@@Z ; stlp_std::priv::_Rb_tree<int,stlp_std::less<int>,stlp_std::pair<int const ,unsigned int>,stlp_std::priv::_Select1st<stlp_std::pair<int const ,unsigned int> >,stlp_std::priv::_MapTraitsT<stlp_std::pair<int const ,unsigned int> >,xalloc<stlp_std::pair<int,unsigned int> > >::_S_key
	add	esp, 4
	push	eax
	mov	eax, DWORD PTR ___val$[esp+20]
	push	eax
	lea	ecx, DWORD PTR $T368603[esp+24]
	call	??R?$_Select1st@U?$pair@$$CBHI@stlp_std@@@priv@stlp_std@@QBEABHABU?$pair@$$CBHI@2@@Z ; stlp_std::priv::_Select1st<stlp_std::pair<int const ,unsigned int> >::operator()
	mov	ecx, DWORD PTR _this$[esp+20]
	push	eax
	add	ecx, 20					; 00000014H
	call	??R?$less@H@stlp_std@@QBE_NABH0@Z	; stlp_std::less<int>::operator()
	mov	bl, al

; 412  :     __x = __comp ? _S_left(__x) : _S_right(__x);

	test	bl, bl
	push	esi
	je	SHORT $LN9@insert_uni@4
	call	?_S_left@?$_Rb_tree@HU?$less@H@stlp_std@@U?$pair@$$CBHI@2@U?$_Select1st@U?$pair@$$CBHI@stlp_std@@@priv@2@U?$_MapTraitsT@U?$pair@$$CBHI@stlp_std@@@52@V?$xalloc@U?$pair@HI@stlp_std@@@@@priv@stlp_std@@KAAAPAU_Rb_tree_node_base@23@PAU423@@Z ; stlp_std::priv::_Rb_tree<int,stlp_std::less<int>,stlp_std::pair<int const ,unsigned int>,stlp_std::priv::_Select1st<stlp_std::pair<int const ,unsigned int> >,stlp_std::priv::_MapTraitsT<stlp_std::pair<int const ,unsigned int> >,xalloc<stlp_std::pair<int,unsigned int> > >::_S_left
	jmp	SHORT $LN79@insert_uni@4
$LN9@insert_uni@4:
	call	?_S_right@?$_Rb_tree@HU?$less@H@stlp_std@@U?$pair@$$CBHI@2@U?$_Select1st@U?$pair@$$CBHI@stlp_std@@@priv@2@U?$_MapTraitsT@U?$pair@$$CBHI@stlp_std@@@52@V?$xalloc@U?$pair@HI@stlp_std@@@@@priv@stlp_std@@KAAAPAU_Rb_tree_node_base@23@PAU423@@Z ; stlp_std::priv::_Rb_tree<int,stlp_std::less<int>,stlp_std::pair<int const ,unsigned int>,stlp_std::priv::_Select1st<stlp_std::pair<int const ,unsigned int> >,stlp_std::priv::_MapTraitsT<stlp_std::pair<int const ,unsigned int> >,xalloc<stlp_std::pair<int,unsigned int> > >::_S_right
$LN79@insert_uni@4:
	mov	esi, DWORD PTR [eax]
	add	esp, 4
	test	esi, esi
	jne	SHORT $LL6@insert_uni@4
$LN5@insert_uni@4:

; 413  :   }
; 414  :   iterator __j = iterator(__y);

	push	edi
	lea	ecx, DWORD PTR ___j$[esp+24]
	call	??0?$_Rb_tree_iterator@U?$pair@$$CBHI@stlp_std@@U?$_MapTraitsT@U?$pair@$$CBHI@stlp_std@@@priv@2@@priv@stlp_std@@QAE@PAU_Rb_tree_node_base@12@@Z ; stlp_std::priv::_Rb_tree_iterator<stlp_std::pair<int const ,unsigned int>,stlp_std::priv::_MapTraitsT<stlp_std::pair<int const ,unsigned int> > >::_Rb_tree_iterator<stlp_std::pair<int const ,unsigned int>,stlp_std::priv::_MapTraitsT<stlp_std::pair<int const ,unsigned int> > >

; 415  :   if (__comp) {

	test	bl, bl

; 416  :     if (__j == begin())

	mov	ebx, DWORD PTR _this$[esp+16]
	je	SHORT $LN2@insert_uni@4
	lea	ecx, DWORD PTR $T368607[esp+16]
	push	ecx
	mov	ecx, ebx
	call	?begin@?$_Rb_tree@HU?$less@H@stlp_std@@U?$pair@$$CBHI@2@U?$_Select1st@U?$pair@$$CBHI@stlp_std@@@priv@2@U?$_MapTraitsT@U?$pair@$$CBHI@stlp_std@@@52@V?$xalloc@U?$pair@HI@stlp_std@@@@@priv@stlp_std@@QAE?AU?$_Rb_tree_iterator@U?$pair@$$CBHI@stlp_std@@U?$_MapTraitsT@U?$pair@$$CBHI@stlp_std@@@priv@2@@23@XZ ; stlp_std::priv::_Rb_tree<int,stlp_std::less<int>,stlp_std::pair<int const ,unsigned int>,stlp_std::priv::_Select1st<stlp_std::pair<int const ,unsigned int> >,stlp_std::priv::_MapTraitsT<stlp_std::pair<int const ,unsigned int> >,xalloc<stlp_std::pair<int,unsigned int> > >::begin
	push	eax
	lea	ecx, DWORD PTR $T368641[esp+20]
	call	??0?$_Rb_tree_iterator@U?$pair@$$CBHI@stlp_std@@U?$_ConstMapTraitsT@U?$pair@$$CBHI@stlp_std@@@priv@2@@priv@stlp_std@@QAE@ABU?$_Rb_tree_iterator@U?$pair@$$CBHI@stlp_std@@U?$_MapTraitsT@U?$pair@$$CBHI@stlp_std@@@priv@2@@12@@Z ; stlp_std::priv::_Rb_tree_iterator<stlp_std::pair<int const ,unsigned int>,stlp_std::priv::_ConstMapTraitsT<stlp_std::pair<int const ,unsigned int> > >::_Rb_tree_iterator<stlp_std::pair<int const ,unsigned int>,stlp_std::priv::_ConstMapTraitsT<stlp_std::pair<int const ,unsigned int> > >
	mov	edx, DWORD PTR ___j$[esp+20]
	cmp	edx, DWORD PTR $T368641[esp+16]
	jne	SHORT $LN3@insert_uni@4

; 417  :       return pair<iterator,bool>(_M_insert(__y, __val, /* __x*/ __y), true);

	push	0
	push	edi
$LN81@insert_uni@4:
	lea	eax, DWORD PTR $T368609[esp+24]
	push	eax
	mov	eax, DWORD PTR ___val$[esp+28]
	mov	ecx, edi
	call	?_M_insert@?$_Rb_tree@HU?$less@H@stlp_std@@U?$pair@$$CBHI@2@U?$_Select1st@U?$pair@$$CBHI@stlp_std@@@priv@2@U?$_MapTraitsT@U?$pair@$$CBHI@stlp_std@@@52@V?$xalloc@U?$pair@HI@stlp_std@@@@@priv@stlp_std@@AAE?AU?$_Rb_tree_iterator@U?$pair@$$CBHI@stlp_std@@U?$_MapTraitsT@U?$pair@$$CBHI@stlp_std@@@priv@2@@23@PAU_Rb_tree_node_base@23@ABU?$pair@$$CBHI@3@00@Z ; stlp_std::priv::_Rb_tree<int,stlp_std::less<int>,stlp_std::pair<int const ,unsigned int>,stlp_std::priv::_Select1st<stlp_std::pair<int const ,unsigned int> >,stlp_std::priv::_MapTraitsT<stlp_std::pair<int const ,unsigned int> >,xalloc<stlp_std::pair<int,unsigned int> > >::_M_insert
	push	eax
	mov	ecx, ebp
	call	??0?$_Rb_tree_iterator@U?$pair@$$CBHI@stlp_std@@U?$_MapTraitsT@U?$pair@$$CBHI@stlp_std@@@priv@2@@priv@stlp_std@@QAE@ABU012@@Z ; stlp_std::priv::_Rb_tree_iterator<stlp_std::pair<int const ,unsigned int>,stlp_std::priv::_MapTraitsT<stlp_std::pair<int const ,unsigned int> > >::_Rb_tree_iterator<stlp_std::pair<int const ,unsigned int>,stlp_std::priv::_MapTraitsT<stlp_std::pair<int const ,unsigned int> > >
	pop	edi
	pop	esi
	mov	BYTE PTR [ebp+4], 1

; 423  :   }
; 424  :   return pair<iterator,bool>(__j, false);

	mov	eax, ebp
	pop	ebp
	pop	ebx

; 425  : }

	pop	ecx
	ret	12					; 0000000cH
$LN3@insert_uni@4:

; 418  :     else
; 419  :       --__j;

	lea	ecx, DWORD PTR ___j$[esp+20]
	call	??F?$_Rb_tree_iterator@U?$pair@$$CBHI@stlp_std@@U?$_MapTraitsT@U?$pair@$$CBHI@stlp_std@@@priv@2@@priv@stlp_std@@QAEAAU012@XZ ; stlp_std::priv::_Rb_tree_iterator<stlp_std::pair<int const ,unsigned int>,stlp_std::priv::_MapTraitsT<stlp_std::pair<int const ,unsigned int> > >::operator--
$LN2@insert_uni@4:

; 420  :   }
; 421  :   if (_M_key_compare(_S_key(__j._M_node), _KeyOfValue()(__val))) {

	mov	ecx, DWORD PTR ___val$[esp+16]
	push	ecx
	lea	ecx, DWORD PTR $T368610[esp+20]
	call	??R?$_Select1st@U?$pair@$$CBHI@stlp_std@@@priv@stlp_std@@QBEABHABU?$pair@$$CBHI@2@@Z ; stlp_std::priv::_Select1st<stlp_std::pair<int const ,unsigned int> >::operator()
	mov	edx, DWORD PTR ___j$[esp+20]
	push	eax
	push	edx
	call	?_S_key@?$_Rb_tree@HU?$less@H@stlp_std@@U?$pair@$$CBHI@2@U?$_Select1st@U?$pair@$$CBHI@stlp_std@@@priv@2@U?$_MapTraitsT@U?$pair@$$CBHI@stlp_std@@@52@V?$xalloc@U?$pair@HI@stlp_std@@@@@priv@stlp_std@@KAABHPAU_Rb_tree_node_base@23@@Z ; stlp_std::priv::_Rb_tree<int,stlp_std::less<int>,stlp_std::pair<int const ,unsigned int>,stlp_std::priv::_Select1st<stlp_std::pair<int const ,unsigned int> >,stlp_std::priv::_MapTraitsT<stlp_std::pair<int const ,unsigned int> >,xalloc<stlp_std::pair<int,unsigned int> > >::_S_key
	add	esp, 4
	push	eax
	lea	ecx, DWORD PTR [ebx+20]
	call	??R?$less@H@stlp_std@@QBE_NABH0@Z	; stlp_std::less<int>::operator()
	test	al, al
	je	SHORT $LN1@insert_uni@4

; 422  :     return pair<iterator,bool>(_M_insert(__y, __val, __x), true);

	push	0
	push	esi
	jmp	SHORT $LN81@insert_uni@4
$LN1@insert_uni@4:

; 423  :   }
; 424  :   return pair<iterator,bool>(__j, false);

	lea	ecx, DWORD PTR ___j$[esp+20]
	push	ecx
	mov	ecx, ebp
	call	??0?$_Rb_tree_iterator@U?$pair@$$CBHI@stlp_std@@U?$_MapTraitsT@U?$pair@$$CBHI@stlp_std@@@priv@2@@priv@stlp_std@@QAE@ABU012@@Z ; stlp_std::priv::_Rb_tree_iterator<stlp_std::pair<int const ,unsigned int>,stlp_std::priv::_MapTraitsT<stlp_std::pair<int const ,unsigned int> > >::_Rb_tree_iterator<stlp_std::pair<int const ,unsigned int>,stlp_std::priv::_MapTraitsT<stlp_std::pair<int const ,unsigned int> > >
	pop	edi
	pop	esi
	mov	BYTE PTR [ebp+4], 0
	mov	eax, ebp
	pop	ebp
	pop	ebx

; 425  : }

	pop	ecx
	ret	12					; 0000000cH
?insert_unique@?$_Rb_tree@HU?$less@H@stlp_std@@U?$pair@$$CBHI@2@U?$_Select1st@U?$pair@$$CBHI@stlp_std@@@priv@2@U?$_MapTraitsT@U?$pair@$$CBHI@stlp_std@@@52@V?$xalloc@U?$pair@HI@stlp_std@@@@@priv@stlp_std@@QAE?AU?$pair@U?$_Rb_tree_iterator@U?$pair@$$CBHI@stlp_std@@U?$_MapTraitsT@U?$pair@$$CBHI@stlp_std@@@priv@2@@priv@stlp_std@@_N@3@ABU?$pair@$$CBHI@3@@Z ENDP ; stlp_std::priv::_Rb_tree<int,stlp_std::less<int>,stlp_std::pair<int const ,unsigned int>,stlp_std::priv::_Select1st<stlp_std::pair<int const ,unsigned int> >,stlp_std::priv::_MapTraitsT<stlp_std::pair<int const ,unsigned int> >,xalloc<stlp_std::pair<int,unsigned int> > >::insert_unique
; Function compile flags: /Ogtpy
_TEXT	ENDS
;	COMDAT ?insert_unique@?$_Rb_tree@HU?$less@H@stlp_std@@U?$pair@$$CBHI@2@U?$_Select1st@U?$pair@$$CBHI@stlp_std@@@priv@2@U?$_MapTraitsT@U?$pair@$$CBHI@stlp_std@@@52@V?$xalloc@U?$pair@HI@stlp_std@@@@@priv@stlp_std@@QAE?AU?$_Rb_tree_iterator@U?$pair@$$CBHI@stlp_std@@U?$_MapTraitsT@U?$pair@$$CBHI@stlp_std@@@priv@2@@23@U423@ABU?$pair@$$CBHI@3@@Z
_TEXT	SEGMENT
$T368694 = -26						; size = 1
___comp_pos_v$119723 = -26				; size = 1
$T368693 = -26						; size = 1
$T368695 = -25						; size = 1
___before$119712 = -24					; size = 4
___after$119693 = -24					; size = 4
___after$119722 = -20					; size = 4
$T368689 = -20						; size = 8
$T368685 = -20						; size = 8
$T368696 = -12						; size = 8
___position$ = 8					; size = 4
$T368692 = 12						; size = 1
___comp_v_pos$119713 = 12				; size = 1
$T368690 = 12						; size = 1
$T368688 = 12						; size = 1
$T368687 = 12						; size = 1
$T368686 = 12						; size = 1
___val$ = 12						; size = 4
?insert_unique@?$_Rb_tree@HU?$less@H@stlp_std@@U?$pair@$$CBHI@2@U?$_Select1st@U?$pair@$$CBHI@stlp_std@@@priv@2@U?$_MapTraitsT@U?$pair@$$CBHI@stlp_std@@@52@V?$xalloc@U?$pair@HI@stlp_std@@@@@priv@stlp_std@@QAE?AU?$_Rb_tree_iterator@U?$pair@$$CBHI@stlp_std@@U?$_MapTraitsT@U?$pair@$$CBHI@stlp_std@@@priv@2@@23@U423@ABU?$pair@$$CBHI@3@@Z PROC ; stlp_std::priv::_Rb_tree<int,stlp_std::less<int>,stlp_std::pair<int const ,unsigned int>,stlp_std::priv::_Select1st<stlp_std::pair<int const ,unsigned int> >,stlp_std::priv::_MapTraitsT<stlp_std::pair<int const ,unsigned int> >,xalloc<stlp_std::pair<int,unsigned int> > >::insert_unique, COMDAT
; _this$ = edi
; ___$ReturnUdt$ = esi

; 434  :   if (__position._M_node == this->_M_header._M_data._M_left) { // begin()

	mov	eax, DWORD PTR ___position$[esp-4]
	sub	esp, 28					; 0000001cH
	cmp	eax, DWORD PTR [edi+8]
	push	ebx
	push	ebp
	mov	ebp, DWORD PTR ___val$[esp+32]
	jne	$LN27@insert_uni@5

; 435  : 
; 436  :     // if the container is empty, fall back on insert_unique.
; 437  :     if (empty())

	cmp	DWORD PTR [edi+16], 0
	jne	SHORT $LN26@insert_uni@5
$LN15@insert_uni@5:

; 438  :       return insert_unique(__val).first;

	lea	eax, DWORD PTR $T368685[esp+36]
	jmp	$LN154@insert_uni@5
$LN26@insert_uni@5:

; 439  : 
; 440  :     if (_M_key_compare(_KeyOfValue()(__val), _S_key(__position._M_node))) {

	push	eax
	lea	ebx, DWORD PTR [edi+20]
	call	?_S_key@?$_Rb_tree@HU?$less@H@stlp_std@@U?$pair@$$CBHI@2@U?$_Select1st@U?$pair@$$CBHI@stlp_std@@@priv@2@U?$_MapTraitsT@U?$pair@$$CBHI@stlp_std@@@52@V?$xalloc@U?$pair@HI@stlp_std@@@@@priv@stlp_std@@KAABHPAU_Rb_tree_node_base@23@@Z ; stlp_std::priv::_Rb_tree<int,stlp_std::less<int>,stlp_std::pair<int const ,unsigned int>,stlp_std::priv::_Select1st<stlp_std::pair<int const ,unsigned int> >,stlp_std::priv::_MapTraitsT<stlp_std::pair<int const ,unsigned int> >,xalloc<stlp_std::pair<int,unsigned int> > >::_S_key
	add	esp, 4
	push	eax
	push	ebp
	lea	ecx, DWORD PTR $T368686[esp+40]
	call	??R?$_Select1st@U?$pair@$$CBHI@stlp_std@@@priv@stlp_std@@QBEABHABU?$pair@$$CBHI@2@@Z ; stlp_std::priv::_Select1st<stlp_std::pair<int const ,unsigned int> >::operator()
	push	eax
	mov	ecx, ebx
	call	??R?$less@H@stlp_std@@QBE_NABH0@Z	; stlp_std::less<int>::operator()
	test	al, al
	je	SHORT $LN25@insert_uni@5

; 441  :       return _M_insert(__position._M_node, __val, __position._M_node);

	mov	ecx, DWORD PTR ___position$[esp+32]
	push	0
	push	ecx
	push	esi
	mov	eax, ebp
	mov	ebx, edi
	call	?_M_insert@?$_Rb_tree@HU?$less@H@stlp_std@@U?$pair@$$CBHI@2@U?$_Select1st@U?$pair@$$CBHI@stlp_std@@@priv@2@U?$_MapTraitsT@U?$pair@$$CBHI@stlp_std@@@52@V?$xalloc@U?$pair@HI@stlp_std@@@@@priv@stlp_std@@AAE?AU?$_Rb_tree_iterator@U?$pair@$$CBHI@stlp_std@@U?$_MapTraitsT@U?$pair@$$CBHI@stlp_std@@@priv@2@@23@PAU_Rb_tree_node_base@23@ABU?$pair@$$CBHI@3@00@Z ; stlp_std::priv::_Rb_tree<int,stlp_std::less<int>,stlp_std::pair<int const ,unsigned int>,stlp_std::priv::_Select1st<stlp_std::pair<int const ,unsigned int> >,stlp_std::priv::_MapTraitsT<stlp_std::pair<int const ,unsigned int> >,xalloc<stlp_std::pair<int,unsigned int> > >::_M_insert

; 529  :         else
; 530  :           return insert_unique(__val).first;

	mov	eax, esi

; 531  :       }
; 532  :     }
; 533  :   }
; 534  : }

	pop	ebp
	pop	ebx
	add	esp, 28					; 0000001cH
	ret	8
$LN25@insert_uni@5:

; 442  :     }
; 443  :     // first argument just needs to be non-null
; 444  :     else {
; 445  :       bool __comp_pos_v = _M_key_compare( _S_key(__position._M_node), _KeyOfValue()(__val) );

	push	ebp
	lea	ecx, DWORD PTR $T368687[esp+36]
	call	??R?$_Select1st@U?$pair@$$CBHI@stlp_std@@@priv@stlp_std@@QBEABHABU?$pair@$$CBHI@2@@Z ; stlp_std::priv::_Select1st<stlp_std::pair<int const ,unsigned int> >::operator()
	mov	ecx, DWORD PTR ___position$[esp+32]
	push	eax
	push	ecx
	call	?_S_key@?$_Rb_tree@HU?$less@H@stlp_std@@U?$pair@$$CBHI@2@U?$_Select1st@U?$pair@$$CBHI@stlp_std@@@priv@2@U?$_MapTraitsT@U?$pair@$$CBHI@stlp_std@@@52@V?$xalloc@U?$pair@HI@stlp_std@@@@@priv@stlp_std@@KAABHPAU_Rb_tree_node_base@23@@Z ; stlp_std::priv::_Rb_tree<int,stlp_std::less<int>,stlp_std::pair<int const ,unsigned int>,stlp_std::priv::_Select1st<stlp_std::pair<int const ,unsigned int> >,stlp_std::priv::_MapTraitsT<stlp_std::pair<int const ,unsigned int> >,xalloc<stlp_std::pair<int,unsigned int> > >::_S_key
	add	esp, 4
	push	eax
	mov	ecx, ebx
	call	??R?$less@H@stlp_std@@QBE_NABH0@Z	; stlp_std::less<int>::operator()

; 446  : 
; 447  :       if (__comp_pos_v == false)  // compare > and compare < both false so compare equal

	test	al, al
	jne	SHORT $LN23@insert_uni@5
$LN152@insert_uni@5:

; 448  :         return __position;

	lea	edx, DWORD PTR ___position$[esp+32]
	push	edx

; 529  :         else
; 530  :           return insert_unique(__val).first;

	mov	ecx, esi
	call	??0?$_Rb_tree_iterator@U?$pair@$$CBHI@stlp_std@@U?$_MapTraitsT@U?$pair@$$CBHI@stlp_std@@@priv@2@@priv@stlp_std@@QAE@ABU012@@Z ; stlp_std::priv::_Rb_tree_iterator<stlp_std::pair<int const ,unsigned int>,stlp_std::priv::_MapTraitsT<stlp_std::pair<int const ,unsigned int> > >::_Rb_tree_iterator<stlp_std::pair<int const ,unsigned int>,stlp_std::priv::_MapTraitsT<stlp_std::pair<int const ,unsigned int> > >
	mov	eax, esi

; 531  :       }
; 532  :     }
; 533  :   }
; 534  : }

	pop	ebp
	pop	ebx
	add	esp, 28					; 0000001cH
	ret	8
$LN23@insert_uni@5:

; 449  :       //Below __comp_pos_v == true
; 450  : 
; 451  :       // Standard-conformance - does the insertion point fall immediately AFTER
; 452  :       // the hint?
; 453  :       iterator __after = __position;

	lea	eax, DWORD PTR ___position$[esp+32]
	push	eax
	lea	ecx, DWORD PTR ___after$119693[esp+40]
	call	??0?$_Rb_tree_iterator@U?$pair@$$CBHI@stlp_std@@U?$_MapTraitsT@U?$pair@$$CBHI@stlp_std@@@priv@2@@priv@stlp_std@@QAE@ABU012@@Z ; stlp_std::priv::_Rb_tree_iterator<stlp_std::pair<int const ,unsigned int>,stlp_std::priv::_MapTraitsT<stlp_std::pair<int const ,unsigned int> > >::_Rb_tree_iterator<stlp_std::pair<int const ,unsigned int>,stlp_std::priv::_MapTraitsT<stlp_std::pair<int const ,unsigned int> > >

; 454  :       ++__after;

	lea	eax, DWORD PTR ___after$119693[esp+36]
	call	??E?$_Rb_tree_iterator@U?$pair@$$CBHI@stlp_std@@U?$_MapTraitsT@U?$pair@$$CBHI@stlp_std@@@priv@2@@priv@stlp_std@@QAEAAU012@XZ ; stlp_std::priv::_Rb_tree_iterator<stlp_std::pair<int const ,unsigned int>,stlp_std::priv::_MapTraitsT<stlp_std::pair<int const ,unsigned int> > >::operator++

; 455  : 
; 456  :       // Check for only one member -- in that case, __position points to itself,
; 457  :       // and attempting to increment will cause an infinite loop.
; 458  :       if (__after._M_node == &this->_M_header._M_data)

	mov	eax, DWORD PTR ___after$119693[esp+36]
	cmp	eax, edi
	jne	SHORT $LN22@insert_uni@5

; 459  :         // Check guarantees exactly one member, so comparison was already
; 460  :         // performed and we know the result; skip repeating it in _M_insert
; 461  :         // by specifying a non-zero fourth argument.
; 462  :         return _M_insert(__position._M_node, __val, 0, __position._M_node);

	mov	ecx, DWORD PTR ___position$[esp+32]
	push	ecx
	push	0
	push	esi
	mov	eax, ebp
	mov	ebx, edi
	call	?_M_insert@?$_Rb_tree@HU?$less@H@stlp_std@@U?$pair@$$CBHI@2@U?$_Select1st@U?$pair@$$CBHI@stlp_std@@@priv@2@U?$_MapTraitsT@U?$pair@$$CBHI@stlp_std@@@52@V?$xalloc@U?$pair@HI@stlp_std@@@@@priv@stlp_std@@AAE?AU?$_Rb_tree_iterator@U?$pair@$$CBHI@stlp_std@@U?$_MapTraitsT@U?$pair@$$CBHI@stlp_std@@@priv@2@@23@PAU_Rb_tree_node_base@23@ABU?$pair@$$CBHI@3@00@Z ; stlp_std::priv::_Rb_tree<int,stlp_std::less<int>,stlp_std::pair<int const ,unsigned int>,stlp_std::priv::_Select1st<stlp_std::pair<int const ,unsigned int> >,stlp_std::priv::_MapTraitsT<stlp_std::pair<int const ,unsigned int> >,xalloc<stlp_std::pair<int,unsigned int> > >::_M_insert

; 529  :         else
; 530  :           return insert_unique(__val).first;

	mov	eax, esi

; 531  :       }
; 532  :     }
; 533  :   }
; 534  : }

	pop	ebp
	pop	ebx
	add	esp, 28					; 0000001cH
	ret	8
$LN22@insert_uni@5:

; 463  : 
; 464  :       // All other cases:
; 465  : 
; 466  :       // Optimization to catch insert-equivalent -- save comparison results,
; 467  :       // and we get this for free.
; 468  :       if (_M_key_compare( _KeyOfValue()(__val), _S_key(__after._M_node) )) {

	push	eax
	call	?_S_key@?$_Rb_tree@HU?$less@H@stlp_std@@U?$pair@$$CBHI@2@U?$_Select1st@U?$pair@$$CBHI@stlp_std@@@priv@2@U?$_MapTraitsT@U?$pair@$$CBHI@stlp_std@@@52@V?$xalloc@U?$pair@HI@stlp_std@@@@@priv@stlp_std@@KAABHPAU_Rb_tree_node_base@23@@Z ; stlp_std::priv::_Rb_tree<int,stlp_std::less<int>,stlp_std::pair<int const ,unsigned int>,stlp_std::priv::_Select1st<stlp_std::pair<int const ,unsigned int> >,stlp_std::priv::_MapTraitsT<stlp_std::pair<int const ,unsigned int> >,xalloc<stlp_std::pair<int,unsigned int> > >::_S_key
	add	esp, 4
	push	eax
	push	ebp
	lea	ecx, DWORD PTR $T368688[esp+40]
	call	??R?$_Select1st@U?$pair@$$CBHI@stlp_std@@@priv@stlp_std@@QBEABHABU?$pair@$$CBHI@2@@Z ; stlp_std::priv::_Select1st<stlp_std::pair<int const ,unsigned int> >::operator()
	push	eax
	mov	ecx, ebx
	call	??R?$less@H@stlp_std@@QBE_NABH0@Z	; stlp_std::less<int>::operator()
	test	al, al
	je	SHORT $LN21@insert_uni@5

; 469  :         if (_S_right(__position._M_node) == 0)

	mov	ecx, DWORD PTR ___position$[esp+32]
	push	ecx
	call	?_S_right@?$_Rb_tree@HU?$less@H@stlp_std@@U?$pair@$$CBHI@2@U?$_Select1st@U?$pair@$$CBHI@stlp_std@@@priv@2@U?$_MapTraitsT@U?$pair@$$CBHI@stlp_std@@@52@V?$xalloc@U?$pair@HI@stlp_std@@@@@priv@stlp_std@@KAAAPAU_Rb_tree_node_base@23@PAU423@@Z ; stlp_std::priv::_Rb_tree<int,stlp_std::less<int>,stlp_std::pair<int const ,unsigned int>,stlp_std::priv::_Select1st<stlp_std::pair<int const ,unsigned int> >,stlp_std::priv::_MapTraitsT<stlp_std::pair<int const ,unsigned int> >,xalloc<stlp_std::pair<int,unsigned int> > >::_S_right
	add	esp, 4
	cmp	DWORD PTR [eax], 0

; 470  :           return _M_insert(__position._M_node, __val, 0, __position._M_node);

	mov	ebx, edi
	mov	eax, ebp
	jne	SHORT $LN20@insert_uni@5
$LN158@insert_uni@5:
	mov	ecx, DWORD PTR ___position$[esp+32]
	push	ecx
	push	0
	push	esi
	call	?_M_insert@?$_Rb_tree@HU?$less@H@stlp_std@@U?$pair@$$CBHI@2@U?$_Select1st@U?$pair@$$CBHI@stlp_std@@@priv@2@U?$_MapTraitsT@U?$pair@$$CBHI@stlp_std@@@52@V?$xalloc@U?$pair@HI@stlp_std@@@@@priv@stlp_std@@AAE?AU?$_Rb_tree_iterator@U?$pair@$$CBHI@stlp_std@@U?$_MapTraitsT@U?$pair@$$CBHI@stlp_std@@@priv@2@@23@PAU_Rb_tree_node_base@23@ABU?$pair@$$CBHI@3@00@Z ; stlp_std::priv::_Rb_tree<int,stlp_std::less<int>,stlp_std::pair<int const ,unsigned int>,stlp_std::priv::_Select1st<stlp_std::pair<int const ,unsigned int> >,stlp_std::priv::_MapTraitsT<stlp_std::pair<int const ,unsigned int> >,xalloc<stlp_std::pair<int,unsigned int> > >::_M_insert

; 529  :         else
; 530  :           return insert_unique(__val).first;

	mov	eax, esi

; 531  :       }
; 532  :     }
; 533  :   }
; 534  : }

	pop	ebp
	pop	ebx
	add	esp, 28					; 0000001cH
	ret	8
$LN20@insert_uni@5:

; 471  :         else
; 472  :           return _M_insert(__after._M_node, __val, __after._M_node);

	mov	ecx, DWORD PTR ___after$119693[esp+36]
	push	0
	push	ecx
	push	esi
	call	?_M_insert@?$_Rb_tree@HU?$less@H@stlp_std@@U?$pair@$$CBHI@2@U?$_Select1st@U?$pair@$$CBHI@stlp_std@@@priv@2@U?$_MapTraitsT@U?$pair@$$CBHI@stlp_std@@@52@V?$xalloc@U?$pair@HI@stlp_std@@@@@priv@stlp_std@@AAE?AU?$_Rb_tree_iterator@U?$pair@$$CBHI@stlp_std@@U?$_MapTraitsT@U?$pair@$$CBHI@stlp_std@@@priv@2@@23@PAU_Rb_tree_node_base@23@ABU?$pair@$$CBHI@3@00@Z ; stlp_std::priv::_Rb_tree<int,stlp_std::less<int>,stlp_std::pair<int const ,unsigned int>,stlp_std::priv::_Select1st<stlp_std::pair<int const ,unsigned int> >,stlp_std::priv::_MapTraitsT<stlp_std::pair<int const ,unsigned int> >,xalloc<stlp_std::pair<int,unsigned int> > >::_M_insert

; 529  :         else
; 530  :           return insert_unique(__val).first;

	mov	eax, esi

; 531  :       }
; 532  :     }
; 533  :   }
; 534  : }

	pop	ebp
	pop	ebx
	add	esp, 28					; 0000001cH
	ret	8
$LN21@insert_uni@5:

; 473  :       }
; 474  :       else {
; 475  :         return insert_unique(__val).first;

	push	ebp
	lea	edx, DWORD PTR $T368689[esp+40]
	push	edx
	jmp	$LN157@insert_uni@5
$LN27@insert_uni@5:

; 476  :       }
; 477  :     }
; 478  :   }
; 479  :   else if (__position._M_node == &this->_M_header._M_data) { // end()

	cmp	eax, edi
	jne	SHORT $LN16@insert_uni@5

; 480  :     if (_M_key_compare(_S_key(_M_rightmost()), _KeyOfValue()(__val))) {

	mov	ecx, edi
	call	?_M_rightmost@?$_Rb_tree@HU?$less@H@stlp_std@@U?$pair@$$CBHI@2@U?$_Select1st@U?$pair@$$CBHI@stlp_std@@@priv@2@U?$_MapTraitsT@U?$pair@$$CBHI@stlp_std@@@52@V?$xalloc@U?$pair@HI@stlp_std@@@@@priv@stlp_std@@IAEAAPAU_Rb_tree_node_base@23@XZ ; stlp_std::priv::_Rb_tree<int,stlp_std::less<int>,stlp_std::pair<int const ,unsigned int>,stlp_std::priv::_Select1st<stlp_std::pair<int const ,unsigned int> >,stlp_std::priv::_MapTraitsT<stlp_std::pair<int const ,unsigned int> >,xalloc<stlp_std::pair<int,unsigned int> > >::_M_rightmost
	push	ebp
	lea	ecx, DWORD PTR $T368690[esp+36]
	mov	ebx, eax
	call	??R?$_Select1st@U?$pair@$$CBHI@stlp_std@@@priv@stlp_std@@QBEABHABU?$pair@$$CBHI@2@@Z ; stlp_std::priv::_Select1st<stlp_std::pair<int const ,unsigned int> >::operator()
	push	eax
	mov	eax, DWORD PTR [ebx]
	push	eax
	call	?_S_key@?$_Rb_tree@HU?$less@H@stlp_std@@U?$pair@$$CBHI@2@U?$_Select1st@U?$pair@$$CBHI@stlp_std@@@priv@2@U?$_MapTraitsT@U?$pair@$$CBHI@stlp_std@@@52@V?$xalloc@U?$pair@HI@stlp_std@@@@@priv@stlp_std@@KAABHPAU_Rb_tree_node_base@23@@Z ; stlp_std::priv::_Rb_tree<int,stlp_std::less<int>,stlp_std::pair<int const ,unsigned int>,stlp_std::priv::_Select1st<stlp_std::pair<int const ,unsigned int> >,stlp_std::priv::_MapTraitsT<stlp_std::pair<int const ,unsigned int> >,xalloc<stlp_std::pair<int,unsigned int> > >::_S_key
	add	esp, 4
	push	eax
	lea	ecx, DWORD PTR [edi+20]
	call	??R?$less@H@stlp_std@@QBE_NABH0@Z	; stlp_std::less<int>::operator()
	test	al, al
	je	$LN15@insert_uni@5

; 481  :         // pass along to _M_insert that it can skip comparing
; 482  :         // v, Key ; since compare Key, v was true, compare v, Key must be false.
; 483  :         return _M_insert(_M_rightmost(), __val, 0, __position._M_node); // Last argument only needs to be non-null

	mov	ecx, edi
	call	?_M_rightmost@?$_Rb_tree@HU?$less@H@stlp_std@@U?$pair@$$CBHI@2@U?$_Select1st@U?$pair@$$CBHI@stlp_std@@@priv@2@U?$_MapTraitsT@U?$pair@$$CBHI@stlp_std@@@52@V?$xalloc@U?$pair@HI@stlp_std@@@@@priv@stlp_std@@IAEAAPAU_Rb_tree_node_base@23@XZ ; stlp_std::priv::_Rb_tree<int,stlp_std::less<int>,stlp_std::pair<int const ,unsigned int>,stlp_std::priv::_Select1st<stlp_std::pair<int const ,unsigned int> >,stlp_std::priv::_MapTraitsT<stlp_std::pair<int const ,unsigned int> >,xalloc<stlp_std::pair<int,unsigned int> > >::_M_rightmost
	mov	edx, DWORD PTR ___position$[esp+32]
	push	edx
	mov	ecx, eax
	mov	ecx, DWORD PTR [ecx]
	push	0
	push	esi
	mov	eax, ebp
	mov	ebx, edi
	call	?_M_insert@?$_Rb_tree@HU?$less@H@stlp_std@@U?$pair@$$CBHI@2@U?$_Select1st@U?$pair@$$CBHI@stlp_std@@@priv@2@U?$_MapTraitsT@U?$pair@$$CBHI@stlp_std@@@52@V?$xalloc@U?$pair@HI@stlp_std@@@@@priv@stlp_std@@AAE?AU?$_Rb_tree_iterator@U?$pair@$$CBHI@stlp_std@@U?$_MapTraitsT@U?$pair@$$CBHI@stlp_std@@@priv@2@@23@PAU_Rb_tree_node_base@23@ABU?$pair@$$CBHI@3@00@Z ; stlp_std::priv::_Rb_tree<int,stlp_std::less<int>,stlp_std::pair<int const ,unsigned int>,stlp_std::priv::_Select1st<stlp_std::pair<int const ,unsigned int> >,stlp_std::priv::_MapTraitsT<stlp_std::pair<int const ,unsigned int> >,xalloc<stlp_std::pair<int,unsigned int> > >::_M_insert

; 529  :         else
; 530  :           return insert_unique(__val).first;

	mov	eax, esi

; 531  :       }
; 532  :     }
; 533  :   }
; 534  : }

	pop	ebp
	pop	ebx
	add	esp, 28					; 0000001cH
	ret	8
$LN16@insert_uni@5:

; 484  :     }
; 485  :     else
; 486  :       return insert_unique(__val).first;
; 487  :   }
; 488  :   else {
; 489  :     iterator __before = __position;

	lea	ecx, DWORD PTR ___position$[esp+32]
	push	ecx
	lea	ecx, DWORD PTR ___before$119712[esp+40]
	call	??0?$_Rb_tree_iterator@U?$pair@$$CBHI@stlp_std@@U?$_MapTraitsT@U?$pair@$$CBHI@stlp_std@@@priv@2@@priv@stlp_std@@QAE@ABU012@@Z ; stlp_std::priv::_Rb_tree_iterator<stlp_std::pair<int const ,unsigned int>,stlp_std::priv::_MapTraitsT<stlp_std::pair<int const ,unsigned int> > >::_Rb_tree_iterator<stlp_std::pair<int const ,unsigned int>,stlp_std::priv::_MapTraitsT<stlp_std::pair<int const ,unsigned int> > >

; 490  :     --__before;

	lea	ecx, DWORD PTR ___before$119712[esp+36]
	call	??F?$_Rb_tree_iterator@U?$pair@$$CBHI@stlp_std@@U?$_MapTraitsT@U?$pair@$$CBHI@stlp_std@@@priv@2@@priv@stlp_std@@QAEAAU012@XZ ; stlp_std::priv::_Rb_tree_iterator<stlp_std::pair<int const ,unsigned int>,stlp_std::priv::_MapTraitsT<stlp_std::pair<int const ,unsigned int> > >::operator--

; 491  : 
; 492  :     bool __comp_v_pos = _M_key_compare(_KeyOfValue()(__val), _S_key(__position._M_node));

	mov	edx, DWORD PTR ___position$[esp+32]
	push	edx
	lea	ebx, DWORD PTR [edi+20]
	call	?_S_key@?$_Rb_tree@HU?$less@H@stlp_std@@U?$pair@$$CBHI@2@U?$_Select1st@U?$pair@$$CBHI@stlp_std@@@priv@2@U?$_MapTraitsT@U?$pair@$$CBHI@stlp_std@@@52@V?$xalloc@U?$pair@HI@stlp_std@@@@@priv@stlp_std@@KAABHPAU_Rb_tree_node_base@23@@Z ; stlp_std::priv::_Rb_tree<int,stlp_std::less<int>,stlp_std::pair<int const ,unsigned int>,stlp_std::priv::_Select1st<stlp_std::pair<int const ,unsigned int> >,stlp_std::priv::_MapTraitsT<stlp_std::pair<int const ,unsigned int> >,xalloc<stlp_std::pair<int,unsigned int> > >::_S_key
	add	esp, 4
	push	eax
	push	ebp
	lea	ecx, DWORD PTR $T368692[esp+40]
	call	??R?$_Select1st@U?$pair@$$CBHI@stlp_std@@@priv@stlp_std@@QBEABHABU?$pair@$$CBHI@2@@Z ; stlp_std::priv::_Select1st<stlp_std::pair<int const ,unsigned int> >::operator()
	push	eax
	mov	ecx, ebx
	call	??R?$less@H@stlp_std@@QBE_NABH0@Z	; stlp_std::less<int>::operator()

; 493  : 
; 494  :     if (__comp_v_pos
; 495  :         && _M_key_compare( _S_key(__before._M_node), _KeyOfValue()(__val) )) {

	test	al, al
	mov	BYTE PTR ___comp_v_pos$119713[esp+32], al
	je	SHORT $LN12@insert_uni@5
	push	ebp
	lea	ecx, DWORD PTR $T368693[esp+40]
	call	??R?$_Select1st@U?$pair@$$CBHI@stlp_std@@@priv@stlp_std@@QBEABHABU?$pair@$$CBHI@2@@Z ; stlp_std::priv::_Select1st<stlp_std::pair<int const ,unsigned int> >::operator()
	push	eax
	mov	eax, DWORD PTR ___before$119712[esp+40]
	push	eax
	call	?_S_key@?$_Rb_tree@HU?$less@H@stlp_std@@U?$pair@$$CBHI@2@U?$_Select1st@U?$pair@$$CBHI@stlp_std@@@priv@2@U?$_MapTraitsT@U?$pair@$$CBHI@stlp_std@@@52@V?$xalloc@U?$pair@HI@stlp_std@@@@@priv@stlp_std@@KAABHPAU_Rb_tree_node_base@23@@Z ; stlp_std::priv::_Rb_tree<int,stlp_std::less<int>,stlp_std::pair<int const ,unsigned int>,stlp_std::priv::_Select1st<stlp_std::pair<int const ,unsigned int> >,stlp_std::priv::_MapTraitsT<stlp_std::pair<int const ,unsigned int> >,xalloc<stlp_std::pair<int,unsigned int> > >::_S_key
	add	esp, 4
	push	eax
	mov	ecx, ebx
	call	??R?$less@H@stlp_std@@QBE_NABH0@Z	; stlp_std::less<int>::operator()
	test	al, al
	je	SHORT $LN12@insert_uni@5

; 496  : 
; 497  :       if (_S_right(__before._M_node) == 0)

	mov	ecx, DWORD PTR ___before$119712[esp+36]
	push	ecx
	call	?_S_right@?$_Rb_tree@HU?$less@H@stlp_std@@U?$pair@$$CBHI@2@U?$_Select1st@U?$pair@$$CBHI@stlp_std@@@priv@2@U?$_MapTraitsT@U?$pair@$$CBHI@stlp_std@@@52@V?$xalloc@U?$pair@HI@stlp_std@@@@@priv@stlp_std@@KAAAPAU_Rb_tree_node_base@23@PAU423@@Z ; stlp_std::priv::_Rb_tree<int,stlp_std::less<int>,stlp_std::pair<int const ,unsigned int>,stlp_std::priv::_Select1st<stlp_std::pair<int const ,unsigned int> >,stlp_std::priv::_MapTraitsT<stlp_std::pair<int const ,unsigned int> >,xalloc<stlp_std::pair<int,unsigned int> > >::_S_right
	add	esp, 4
	cmp	DWORD PTR [eax], 0

; 498  :         return _M_insert(__before._M_node, __val, 0, __before._M_node); // Last argument only needs to be non-null

	mov	ebx, edi
	mov	eax, ebp
	jne	SHORT $LN11@insert_uni@5
	mov	ecx, DWORD PTR ___before$119712[esp+36]
	push	ecx
	push	0
	push	esi
	call	?_M_insert@?$_Rb_tree@HU?$less@H@stlp_std@@U?$pair@$$CBHI@2@U?$_Select1st@U?$pair@$$CBHI@stlp_std@@@priv@2@U?$_MapTraitsT@U?$pair@$$CBHI@stlp_std@@@52@V?$xalloc@U?$pair@HI@stlp_std@@@@@priv@stlp_std@@AAE?AU?$_Rb_tree_iterator@U?$pair@$$CBHI@stlp_std@@U?$_MapTraitsT@U?$pair@$$CBHI@stlp_std@@@priv@2@@23@PAU_Rb_tree_node_base@23@ABU?$pair@$$CBHI@3@00@Z ; stlp_std::priv::_Rb_tree<int,stlp_std::less<int>,stlp_std::pair<int const ,unsigned int>,stlp_std::priv::_Select1st<stlp_std::pair<int const ,unsigned int> >,stlp_std::priv::_MapTraitsT<stlp_std::pair<int const ,unsigned int> >,xalloc<stlp_std::pair<int,unsigned int> > >::_M_insert

; 529  :         else
; 530  :           return insert_unique(__val).first;

	mov	eax, esi

; 531  :       }
; 532  :     }
; 533  :   }
; 534  : }

	pop	ebp
	pop	ebx
	add	esp, 28					; 0000001cH
	ret	8
$LN11@insert_uni@5:

; 499  :       else
; 500  :         return _M_insert(__position._M_node, __val, __position._M_node);

	mov	ecx, DWORD PTR ___position$[esp+32]
	push	0
	push	ecx
	push	esi
	call	?_M_insert@?$_Rb_tree@HU?$less@H@stlp_std@@U?$pair@$$CBHI@2@U?$_Select1st@U?$pair@$$CBHI@stlp_std@@@priv@2@U?$_MapTraitsT@U?$pair@$$CBHI@stlp_std@@@52@V?$xalloc@U?$pair@HI@stlp_std@@@@@priv@stlp_std@@AAE?AU?$_Rb_tree_iterator@U?$pair@$$CBHI@stlp_std@@U?$_MapTraitsT@U?$pair@$$CBHI@stlp_std@@@priv@2@@23@PAU_Rb_tree_node_base@23@ABU?$pair@$$CBHI@3@00@Z ; stlp_std::priv::_Rb_tree<int,stlp_std::less<int>,stlp_std::pair<int const ,unsigned int>,stlp_std::priv::_Select1st<stlp_std::pair<int const ,unsigned int> >,stlp_std::priv::_MapTraitsT<stlp_std::pair<int const ,unsigned int> >,xalloc<stlp_std::pair<int,unsigned int> > >::_M_insert

; 529  :         else
; 530  :           return insert_unique(__val).first;

	mov	eax, esi

; 531  :       }
; 532  :     }
; 533  :   }
; 534  : }

	pop	ebp
	pop	ebx
	add	esp, 28					; 0000001cH
	ret	8
$LN12@insert_uni@5:

; 501  :       // first argument just needs to be non-null
; 502  :     }
; 503  :     else {
; 504  :       // Does the insertion point fall immediately AFTER the hint?
; 505  :       iterator __after = __position;

	lea	edx, DWORD PTR ___position$[esp+32]
	push	edx
	lea	ecx, DWORD PTR ___after$119722[esp+40]
	call	??0?$_Rb_tree_iterator@U?$pair@$$CBHI@stlp_std@@U?$_MapTraitsT@U?$pair@$$CBHI@stlp_std@@@priv@2@@priv@stlp_std@@QAE@ABU012@@Z ; stlp_std::priv::_Rb_tree_iterator<stlp_std::pair<int const ,unsigned int>,stlp_std::priv::_MapTraitsT<stlp_std::pair<int const ,unsigned int> > >::_Rb_tree_iterator<stlp_std::pair<int const ,unsigned int>,stlp_std::priv::_MapTraitsT<stlp_std::pair<int const ,unsigned int> > >

; 506  :       ++__after;

	lea	eax, DWORD PTR ___after$119722[esp+36]
	call	??E?$_Rb_tree_iterator@U?$pair@$$CBHI@stlp_std@@U?$_MapTraitsT@U?$pair@$$CBHI@stlp_std@@@priv@2@@priv@stlp_std@@QAEAAU012@XZ ; stlp_std::priv::_Rb_tree_iterator<stlp_std::pair<int const ,unsigned int>,stlp_std::priv::_MapTraitsT<stlp_std::pair<int const ,unsigned int> > >::operator++

; 507  :       // Optimization to catch equivalent cases and avoid unnecessary comparisons
; 508  :       bool __comp_pos_v = !__comp_v_pos;  // Stored this result earlier

	mov	al, BYTE PTR ___comp_v_pos$119713[esp+32]
	test	al, al
	sete	cl

; 509  :       // If the earlier comparison was true, this comparison doesn't need to be
; 510  :       // performed because it must be false.  However, if the earlier comparison
; 511  :       // was false, we need to perform this one because in the equal case, both will
; 512  :       // be false.
; 513  :       if (!__comp_v_pos) {

	test	al, al
	jne	$LN7@insert_uni@5

; 514  :         __comp_pos_v = _M_key_compare(_S_key(__position._M_node), _KeyOfValue()(__val));

	push	ebp
	lea	ecx, DWORD PTR $T368694[esp+40]
	call	??R?$_Select1st@U?$pair@$$CBHI@stlp_std@@@priv@stlp_std@@QBEABHABU?$pair@$$CBHI@2@@Z ; stlp_std::priv::_Select1st<stlp_std::pair<int const ,unsigned int> >::operator()
	push	eax
	mov	eax, DWORD PTR ___position$[esp+36]
	push	eax
	call	?_S_key@?$_Rb_tree@HU?$less@H@stlp_std@@U?$pair@$$CBHI@2@U?$_Select1st@U?$pair@$$CBHI@stlp_std@@@priv@2@U?$_MapTraitsT@U?$pair@$$CBHI@stlp_std@@@52@V?$xalloc@U?$pair@HI@stlp_std@@@@@priv@stlp_std@@KAABHPAU_Rb_tree_node_base@23@@Z ; stlp_std::priv::_Rb_tree<int,stlp_std::less<int>,stlp_std::pair<int const ,unsigned int>,stlp_std::priv::_Select1st<stlp_std::pair<int const ,unsigned int> >,stlp_std::priv::_MapTraitsT<stlp_std::pair<int const ,unsigned int> >,xalloc<stlp_std::pair<int,unsigned int> > >::_S_key
	add	esp, 4
	push	eax
	mov	ecx, ebx
	call	??R?$less@H@stlp_std@@QBE_NABH0@Z	; stlp_std::less<int>::operator()

; 515  :       }
; 516  : 
; 517  :       if ( (!__comp_v_pos) // comp_v_pos true implies comp_v_pos false
; 518  :           && __comp_pos_v
; 519  :           && (__after._M_node == &this->_M_header._M_data ||
; 520  :               _M_key_compare( _KeyOfValue()(__val), _S_key(__after._M_node) ))) {

	test	al, al
	mov	BYTE PTR ___comp_pos_v$119723[esp+36], al
	je	$LN152@insert_uni@5
	mov	eax, DWORD PTR ___after$119722[esp+36]
	cmp	eax, edi
	je	SHORT $LN6@insert_uni@5
	push	eax
	call	?_S_key@?$_Rb_tree@HU?$less@H@stlp_std@@U?$pair@$$CBHI@2@U?$_Select1st@U?$pair@$$CBHI@stlp_std@@@priv@2@U?$_MapTraitsT@U?$pair@$$CBHI@stlp_std@@@52@V?$xalloc@U?$pair@HI@stlp_std@@@@@priv@stlp_std@@KAABHPAU_Rb_tree_node_base@23@@Z ; stlp_std::priv::_Rb_tree<int,stlp_std::less<int>,stlp_std::pair<int const ,unsigned int>,stlp_std::priv::_Select1st<stlp_std::pair<int const ,unsigned int> >,stlp_std::priv::_MapTraitsT<stlp_std::pair<int const ,unsigned int> >,xalloc<stlp_std::pair<int,unsigned int> > >::_S_key
	add	esp, 4
	push	eax
	push	ebp
	lea	ecx, DWORD PTR $T368695[esp+44]
	call	??R?$_Select1st@U?$pair@$$CBHI@stlp_std@@@priv@stlp_std@@QBEABHABU?$pair@$$CBHI@2@@Z ; stlp_std::priv::_Select1st<stlp_std::pair<int const ,unsigned int> >::operator()
	push	eax
	mov	ecx, ebx
	call	??R?$less@H@stlp_std@@QBE_NABH0@Z	; stlp_std::less<int>::operator()
	test	al, al
	je	SHORT $LN153@insert_uni@5
$LN6@insert_uni@5:

; 521  :         if (_S_right(__position._M_node) == 0)

	mov	ecx, DWORD PTR ___position$[esp+32]
	push	ecx
	call	?_S_right@?$_Rb_tree@HU?$less@H@stlp_std@@U?$pair@$$CBHI@2@U?$_Select1st@U?$pair@$$CBHI@stlp_std@@@priv@2@U?$_MapTraitsT@U?$pair@$$CBHI@stlp_std@@@52@V?$xalloc@U?$pair@HI@stlp_std@@@@@priv@stlp_std@@KAAAPAU_Rb_tree_node_base@23@PAU423@@Z ; stlp_std::priv::_Rb_tree<int,stlp_std::less<int>,stlp_std::pair<int const ,unsigned int>,stlp_std::priv::_Select1st<stlp_std::pair<int const ,unsigned int> >,stlp_std::priv::_MapTraitsT<stlp_std::pair<int const ,unsigned int> >,xalloc<stlp_std::pair<int,unsigned int> > >::_S_right
	add	esp, 4
	cmp	DWORD PTR [eax], 0

; 522  :           return _M_insert(__position._M_node, __val, 0, __position._M_node);

	mov	ebx, edi
	mov	eax, ebp
	je	$LN158@insert_uni@5

; 523  :         else
; 524  :           return _M_insert(__after._M_node, __val, __after._M_node);

	mov	ecx, DWORD PTR ___after$119722[esp+36]
	push	0
	push	ecx
	push	esi
	call	?_M_insert@?$_Rb_tree@HU?$less@H@stlp_std@@U?$pair@$$CBHI@2@U?$_Select1st@U?$pair@$$CBHI@stlp_std@@@priv@2@U?$_MapTraitsT@U?$pair@$$CBHI@stlp_std@@@52@V?$xalloc@U?$pair@HI@stlp_std@@@@@priv@stlp_std@@AAE?AU?$_Rb_tree_iterator@U?$pair@$$CBHI@stlp_std@@U?$_MapTraitsT@U?$pair@$$CBHI@stlp_std@@@priv@2@@23@PAU_Rb_tree_node_base@23@ABU?$pair@$$CBHI@3@00@Z ; stlp_std::priv::_Rb_tree<int,stlp_std::less<int>,stlp_std::pair<int const ,unsigned int>,stlp_std::priv::_Select1st<stlp_std::pair<int const ,unsigned int> >,stlp_std::priv::_MapTraitsT<stlp_std::pair<int const ,unsigned int> >,xalloc<stlp_std::pair<int,unsigned int> > >::_M_insert

; 529  :         else
; 530  :           return insert_unique(__val).first;

	mov	eax, esi

; 531  :       }
; 532  :     }
; 533  :   }
; 534  : }

	pop	ebp
	pop	ebx
	add	esp, 28					; 0000001cH
	ret	8
$LN153@insert_uni@5:

; 523  :         else
; 524  :           return _M_insert(__after._M_node, __val, __after._M_node);

	mov	al, BYTE PTR ___comp_v_pos$119713[esp+32]
	mov	cl, BYTE PTR ___comp_pos_v$119723[esp+36]
$LN7@insert_uni@5:

; 525  :       } else {
; 526  :         // Test for equivalent case
; 527  :         if (__comp_v_pos == __comp_pos_v)

	cmp	al, cl

; 528  :           return __position;

	je	$LN152@insert_uni@5

; 529  :         else
; 530  :           return insert_unique(__val).first;

	lea	eax, DWORD PTR $T368696[esp+36]
$LN154@insert_uni@5:
	push	ebp
	push	eax
$LN157@insert_uni@5:
	push	edi
	call	?insert_unique@?$_Rb_tree@HU?$less@H@stlp_std@@U?$pair@$$CBHI@2@U?$_Select1st@U?$pair@$$CBHI@stlp_std@@@priv@2@U?$_MapTraitsT@U?$pair@$$CBHI@stlp_std@@@52@V?$xalloc@U?$pair@HI@stlp_std@@@@@priv@stlp_std@@QAE?AU?$pair@U?$_Rb_tree_iterator@U?$pair@$$CBHI@stlp_std@@U?$_MapTraitsT@U?$pair@$$CBHI@stlp_std@@@priv@2@@priv@stlp_std@@_N@3@ABU?$pair@$$CBHI@3@@Z ; stlp_std::priv::_Rb_tree<int,stlp_std::less<int>,stlp_std::pair<int const ,unsigned int>,stlp_std::priv::_Select1st<stlp_std::pair<int const ,unsigned int> >,stlp_std::priv::_MapTraitsT<stlp_std::pair<int const ,unsigned int> >,xalloc<stlp_std::pair<int,unsigned int> > >::insert_unique
	push	eax
	mov	ecx, esi
	call	??0?$_Rb_tree_iterator@U?$pair@$$CBHI@stlp_std@@U?$_MapTraitsT@U?$pair@$$CBHI@stlp_std@@@priv@2@@priv@stlp_std@@QAE@ABU012@@Z ; stlp_std::priv::_Rb_tree_iterator<stlp_std::pair<int const ,unsigned int>,stlp_std::priv::_MapTraitsT<stlp_std::pair<int const ,unsigned int> > >::_Rb_tree_iterator<stlp_std::pair<int const ,unsigned int>,stlp_std::priv::_MapTraitsT<stlp_std::pair<int const ,unsigned int> > >

; 531  :       }
; 532  :     }
; 533  :   }
; 534  : }

	pop	ebp
	mov	eax, esi
	pop	ebx
	add	esp, 28					; 0000001cH
	ret	8
?insert_unique@?$_Rb_tree@HU?$less@H@stlp_std@@U?$pair@$$CBHI@2@U?$_Select1st@U?$pair@$$CBHI@stlp_std@@@priv@2@U?$_MapTraitsT@U?$pair@$$CBHI@stlp_std@@@52@V?$xalloc@U?$pair@HI@stlp_std@@@@@priv@stlp_std@@QAE?AU?$_Rb_tree_iterator@U?$pair@$$CBHI@stlp_std@@U?$_MapTraitsT@U?$pair@$$CBHI@stlp_std@@@priv@2@@23@U423@ABU?$pair@$$CBHI@3@@Z ENDP ; stlp_std::priv::_Rb_tree<int,stlp_std::less<int>,stlp_std::pair<int const ,unsigned int>,stlp_std::priv::_Select1st<stlp_std::pair<int const ,unsigned int> >,stlp_std::priv::_MapTraitsT<stlp_std::pair<int const ,unsigned int> >,xalloc<stlp_std::pair<int,unsigned int> > >::insert_unique
; Function compile flags: /Ogtpy
_TEXT	ENDS
;	COMDAT ??_GCLAItem@@QAEPAXI@Z
_TEXT	SEGMENT
??_GCLAItem@@QAEPAXI@Z PROC				; CLAItem::`scalar deleting destructor', COMDAT
; _this$ = esi
	lea	ecx, DWORD PTR [esi+8]
	call	??1?$_Rb_tree@HU?$less@H@stlp_std@@U?$pair@$$CBHI@2@U?$_Select1st@U?$pair@$$CBHI@stlp_std@@@priv@2@U?$_MapTraitsT@U?$pair@$$CBHI@stlp_std@@@52@V?$xalloc@U?$pair@HI@stlp_std@@@@@priv@stlp_std@@QAE@XZ ; stlp_std::priv::_Rb_tree<int,stlp_std::less<int>,stlp_std::pair<int const ,unsigned int>,stlp_std::priv::_Select1st<stlp_std::pair<int const ,unsigned int> >,stlp_std::priv::_MapTraitsT<stlp_std::pair<int const ,unsigned int> >,xalloc<stlp_std::pair<int,unsigned int> > >::~_Rb_tree<int,stlp_std::less<int>,stlp_std::pair<int const ,unsigned int>,stlp_std::priv::_Select1st<stlp_std::pair<int const ,unsigned int> >,stlp_std::priv::_MapTraitsT<stlp_std::pair<int const ,unsigned int> >,xalloc<stlp_std::pair<int,unsigned int> > >
	mov	eax, DWORD PTR [esi]
	test	eax, eax
	je	SHORT $LN35@scalar@40
	add	DWORD PTR [eax], -1
	mov	eax, DWORD PTR [esi]
	cmp	DWORD PTR [eax], 0
	mov	eax, esi
	jne	SHORT $LN25@scalar@40
	mov	DWORD PTR [esi], 0
	ret	0
$LN35@scalar@40:
	mov	eax, esi
$LN25@scalar@40:
	ret	0
??_GCLAItem@@QAEPAXI@Z ENDP				; CLAItem::`scalar deleting destructor'
; Function compile flags: /Ogtpy
; File d:\clearsky\sources\engine\xrcore\xrmemory_subst_msvc.h
_TEXT	ENDS
;	COMDAT ??R?$xr_special_free@$0A@VCLAItem@@@@QAEXAAPAVCLAItem@@@Z
_TEXT	SEGMENT
??R?$xr_special_free@$0A@VCLAItem@@@@QAEXAAPAVCLAItem@@@Z PROC ; xr_special_free<0,CLAItem>::operator(), COMDAT
; _ptr$ = edi

; 142  : 	{

	push	esi

; 143  : 		ptr->~T			();

	mov	esi, DWORD PTR [edi]
	lea	ecx, DWORD PTR [esi+8]
	call	??1?$_Rb_tree@HU?$less@H@stlp_std@@U?$pair@$$CBHI@2@U?$_Select1st@U?$pair@$$CBHI@stlp_std@@@priv@2@U?$_MapTraitsT@U?$pair@$$CBHI@stlp_std@@@52@V?$xalloc@U?$pair@HI@stlp_std@@@@@priv@stlp_std@@QAE@XZ ; stlp_std::priv::_Rb_tree<int,stlp_std::less<int>,stlp_std::pair<int const ,unsigned int>,stlp_std::priv::_Select1st<stlp_std::pair<int const ,unsigned int> >,stlp_std::priv::_MapTraitsT<stlp_std::pair<int const ,unsigned int> >,xalloc<stlp_std::pair<int,unsigned int> > >::~_Rb_tree<int,stlp_std::less<int>,stlp_std::pair<int const ,unsigned int>,stlp_std::priv::_Select1st<stlp_std::pair<int const ,unsigned int> >,stlp_std::priv::_MapTraitsT<stlp_std::pair<int const ,unsigned int> >,xalloc<stlp_std::pair<int,unsigned int> > >
	mov	eax, DWORD PTR [esi]
	test	eax, eax
	je	SHORT $LN27@operator@81
	add	DWORD PTR [eax], -1
	mov	eax, DWORD PTR [esi]
	cmp	DWORD PTR [eax], 0
	jne	SHORT $LN27@operator@81
	mov	DWORD PTR [esi], 0
$LN27@operator@81:

; 144  : 		Memory.mem_free	(ptr);

	mov	ecx, DWORD PTR [edi]
	push	ecx
	mov	ecx, DWORD PTR __imp_?Memory@@3VxrMemory@@A
	call	DWORD PTR __imp_?mem_free@xrMemory@@QAEXPAX@Z
	pop	esi

; 145  : 	}

	ret	0
??R?$xr_special_free@$0A@VCLAItem@@@@QAEXAAPAVCLAItem@@@Z ENDP ; xr_special_free<0,CLAItem>::operator()
; Function compile flags: /Ogtpy
; File d:\clearsky\sources\sdk\include\stlport\stl\_map.h
_TEXT	ENDS
;	COMDAT ?insert@?$map@HIU?$less@H@stlp_std@@V?$xalloc@U?$pair@HI@stlp_std@@@@@stlp_std@@QAE?AU?$_Rb_tree_iterator@U?$pair@$$CBHI@stlp_std@@U?$_MapTraitsT@U?$pair@$$CBHI@stlp_std@@@priv@2@@priv@2@U342@ABU?$pair@$$CBHI@2@@Z
_TEXT	SEGMENT
___pos$ = 8						; size = 4
?insert@?$map@HIU?$less@H@stlp_std@@V?$xalloc@U?$pair@HI@stlp_std@@@@@stlp_std@@QAE?AU?$_Rb_tree_iterator@U?$pair@$$CBHI@stlp_std@@U?$_MapTraitsT@U?$pair@$$CBHI@stlp_std@@@priv@2@@priv@2@U342@ABU?$pair@$$CBHI@2@@Z PROC ; stlp_std::map<int,unsigned int,stlp_std::less<int>,xalloc<stlp_std::pair<int,unsigned int> > >::insert, COMDAT
; _this$ = edi
; ___$ReturnUdt$ = ecx
; ___x$ = eax

; 186  :   { return _M_t.insert_unique(__pos, __x); }

	push	ecx
	push	esi
	push	eax
	push	ecx
	mov	esi, ecx
	lea	edx, DWORD PTR ___pos$[esp+12]
	mov	ecx, esp
	push	edx
	call	??0?$_Rb_tree_iterator@U?$pair@$$CBHI@stlp_std@@U?$_MapTraitsT@U?$pair@$$CBHI@stlp_std@@@priv@2@@priv@stlp_std@@QAE@ABU012@@Z ; stlp_std::priv::_Rb_tree_iterator<stlp_std::pair<int const ,unsigned int>,stlp_std::priv::_MapTraitsT<stlp_std::pair<int const ,unsigned int> > >::_Rb_tree_iterator<stlp_std::pair<int const ,unsigned int>,stlp_std::priv::_MapTraitsT<stlp_std::pair<int const ,unsigned int> > >
	call	?insert_unique@?$_Rb_tree@HU?$less@H@stlp_std@@U?$pair@$$CBHI@2@U?$_Select1st@U?$pair@$$CBHI@stlp_std@@@priv@2@U?$_MapTraitsT@U?$pair@$$CBHI@stlp_std@@@52@V?$xalloc@U?$pair@HI@stlp_std@@@@@priv@stlp_std@@QAE?AU?$_Rb_tree_iterator@U?$pair@$$CBHI@stlp_std@@U?$_MapTraitsT@U?$pair@$$CBHI@stlp_std@@@priv@2@@23@U423@ABU?$pair@$$CBHI@3@@Z ; stlp_std::priv::_Rb_tree<int,stlp_std::less<int>,stlp_std::pair<int const ,unsigned int>,stlp_std::priv::_Select1st<stlp_std::pair<int const ,unsigned int> >,stlp_std::priv::_MapTraitsT<stlp_std::pair<int const ,unsigned int> >,xalloc<stlp_std::pair<int,unsigned int> > >::insert_unique
	mov	eax, esi
	pop	esi
	pop	ecx
	ret	4
?insert@?$map@HIU?$less@H@stlp_std@@V?$xalloc@U?$pair@HI@stlp_std@@@@@stlp_std@@QAE?AU?$_Rb_tree_iterator@U?$pair@$$CBHI@stlp_std@@U?$_MapTraitsT@U?$pair@$$CBHI@stlp_std@@@priv@2@@priv@2@U342@ABU?$pair@$$CBHI@2@@Z ENDP ; stlp_std::map<int,unsigned int,stlp_std::less<int>,xalloc<stlp_std::pair<int,unsigned int> > >::insert
; Function compile flags: /Ogtpy
; File d:\clearsky\sources\engine\xrcore\xrmemory_subst_msvc.h
_TEXT	ENDS
;	COMDAT ??$xr_new@VCLAItem@@@@YAPAVCLAItem@@XZ
_TEXT	SEGMENT
$T368984 = -1						; size = 1
$T368983 = -1						; size = 1
??$xr_new@VCLAItem@@@@YAPAVCLAItem@@XZ PROC		; xr_new<CLAItem>, COMDAT

; 67   : {

	push	ecx

; 68   : 	T* ptr	= (T*)Memory.mem_alloc(sizeof(T));

	mov	ecx, DWORD PTR __imp_?Memory@@3VxrMemory@@A
	push	esi
	push	36					; 00000024H
	call	DWORD PTR __imp_?mem_alloc@xrMemory@@QAEPAXI@Z

; 69   : 	return new (ptr) T();

	mov	esi, eax
	test	esi, esi
	je	SHORT $LN3@xr_new@16
	push	edi
	lea	eax, DWORD PTR $T368983[esp+12]
	lea	edi, DWORD PTR [esi+8]
	push	eax
	mov	ecx, edi
	mov	DWORD PTR [esi], 0
	call	??0?$_Rb_tree_base@U?$pair@$$CBHI@stlp_std@@V?$xalloc@U?$pair@HI@stlp_std@@@@@priv@stlp_std@@IAE@ABV?$xalloc@U?$pair@$$CBHI@stlp_std@@@@@Z ; stlp_std::priv::_Rb_tree_base<stlp_std::pair<int const ,unsigned int>,xalloc<stlp_std::pair<int,unsigned int> > >::_Rb_tree_base<stlp_std::pair<int const ,unsigned int>,xalloc<stlp_std::pair<int,unsigned int> > >
	mov	cl, BYTE PTR $T368984[esp+12]
	movss	xmm0, DWORD PTR __real@41700000
	mov	DWORD PTR [edi+16], 0
	mov	BYTE PTR [edi+20], cl
	pop	edi
	movss	DWORD PTR [esi+4], xmm0
	mov	DWORD PTR [esi+32], 1
	mov	eax, esi
	pop	esi

; 70   : }

	pop	ecx
	ret	0
$LN3@xr_new@16:

; 69   : 	return new (ptr) T();

	xor	eax, eax
	pop	esi

; 70   : }

	pop	ecx
	ret	0
??$xr_new@VCLAItem@@@@YAPAVCLAItem@@XZ ENDP		; xr_new<CLAItem>
; Function compile flags: /Ogtpy
_TEXT	ENDS
;	COMDAT ??$xr_delete@VCLAItem@@@@YAXAAPAVCLAItem@@@Z
_TEXT	SEGMENT
??$xr_delete@VCLAItem@@@@YAXAAPAVCLAItem@@@Z PROC	; xr_delete<CLAItem>, COMDAT
; _ptr$ = edi

; 150  : {

	push	esi

; 151  : 	if (ptr) 

	mov	esi, DWORD PTR [edi]
	test	esi, esi
	je	SHORT $LN1@xr_delete@31

; 152  : 	{
; 153  : 		xr_special_free<is_polymorphic<T>::result,T>()(ptr);

	lea	ecx, DWORD PTR [esi+8]
	call	??1?$_Rb_tree@HU?$less@H@stlp_std@@U?$pair@$$CBHI@2@U?$_Select1st@U?$pair@$$CBHI@stlp_std@@@priv@2@U?$_MapTraitsT@U?$pair@$$CBHI@stlp_std@@@52@V?$xalloc@U?$pair@HI@stlp_std@@@@@priv@stlp_std@@QAE@XZ ; stlp_std::priv::_Rb_tree<int,stlp_std::less<int>,stlp_std::pair<int const ,unsigned int>,stlp_std::priv::_Select1st<stlp_std::pair<int const ,unsigned int> >,stlp_std::priv::_MapTraitsT<stlp_std::pair<int const ,unsigned int> >,xalloc<stlp_std::pair<int,unsigned int> > >::~_Rb_tree<int,stlp_std::less<int>,stlp_std::pair<int const ,unsigned int>,stlp_std::priv::_Select1st<stlp_std::pair<int const ,unsigned int> >,stlp_std::priv::_MapTraitsT<stlp_std::pair<int const ,unsigned int> >,xalloc<stlp_std::pair<int,unsigned int> > >
	mov	eax, DWORD PTR [esi]
	test	eax, eax
	je	SHORT $LN30@xr_delete@31
	add	DWORD PTR [eax], -1
	mov	eax, DWORD PTR [esi]
	cmp	DWORD PTR [eax], 0
	jne	SHORT $LN30@xr_delete@31
	mov	DWORD PTR [esi], 0
$LN30@xr_delete@31:
	mov	ecx, DWORD PTR [edi]
	push	ecx
	mov	ecx, DWORD PTR __imp_?Memory@@3VxrMemory@@A
	call	DWORD PTR __imp_?mem_free@xrMemory@@QAEXPAX@Z

; 154  : 		ptr = NULL;

	mov	DWORD PTR [edi], 0
$LN1@xr_delete@31:
	pop	esi

; 155  : 	}
; 156  : }

	ret	0
??$xr_delete@VCLAItem@@@@YAXAAPAVCLAItem@@@Z ENDP	; xr_delete<CLAItem>
; Function compile flags: /Ogtpy
; File d:\clearsky\sources\sdk\include\stlport\stl\_map.h
_TEXT	ENDS
;	COMDAT ??$?AH@?$map@HIU?$less@H@stlp_std@@V?$xalloc@U?$pair@HI@stlp_std@@@@@stlp_std@@QAEAAIABH@Z
_TEXT	SEGMENT
$T369095 = -25						; size = 1
___i$ = -24						; size = 4
$T369155 = -20						; size = 4
$T369126 = -20						; size = 4
$T369099 = -16						; size = 4
$T369094 = -16						; size = 4
$T369096 = -12						; size = 8
??$?AH@?$map@HIU?$less@H@stlp_std@@V?$xalloc@U?$pair@HI@stlp_std@@@@@stlp_std@@QAEAAIABH@Z PROC ; stlp_std::map<int,unsigned int,stlp_std::less<int>,xalloc<stlp_std::pair<int,unsigned int> > >::operator[]<int>, COMDAT
; _this$ = ecx
; ___k$ = eax

; 173  :   _Tp& operator[](const _KT& __k) {

	sub	esp, 28					; 0000001cH
	push	esi
	push	edi
	mov	esi, eax
	mov	edi, ecx

; 174  :     iterator __i = lower_bound(__k);

	push	esi
	mov	eax, edi
	call	??$_M_lower_bound@H@?$_Rb_tree@HU?$less@H@stlp_std@@U?$pair@$$CBHI@2@U?$_Select1st@U?$pair@$$CBHI@stlp_std@@@priv@2@U?$_MapTraitsT@U?$pair@$$CBHI@stlp_std@@@52@V?$xalloc@U?$pair@HI@stlp_std@@@@@priv@stlp_std@@ABEPAU_Rb_tree_node_base@12@ABH@Z ; stlp_std::priv::_Rb_tree<int,stlp_std::less<int>,stlp_std::pair<int const ,unsigned int>,stlp_std::priv::_Select1st<stlp_std::pair<int const ,unsigned int> >,stlp_std::priv::_MapTraitsT<stlp_std::pair<int const ,unsigned int> >,xalloc<stlp_std::pair<int,unsigned int> > >::_M_lower_bound<int>
	push	eax
	lea	ecx, DWORD PTR ___i$[esp+40]
	call	??0?$_Rb_tree_iterator@U?$pair@$$CBHI@stlp_std@@U?$_MapTraitsT@U?$pair@$$CBHI@stlp_std@@@priv@2@@priv@stlp_std@@QAE@PAU_Rb_tree_node_base@12@@Z ; stlp_std::priv::_Rb_tree_iterator<stlp_std::pair<int const ,unsigned int>,stlp_std::priv::_MapTraitsT<stlp_std::pair<int const ,unsigned int> > >::_Rb_tree_iterator<stlp_std::pair<int const ,unsigned int>,stlp_std::priv::_MapTraitsT<stlp_std::pair<int const ,unsigned int> > >

; 175  :     // __i->first is greater than or equivalent to __k.
; 176  :     if (__i == end() || key_comp()(__k, (*__i).first))

	lea	eax, DWORD PTR $T369094[esp+36]
	push	eax
	mov	ecx, edi
	call	?end@?$map@HIU?$less@H@stlp_std@@V?$xalloc@U?$pair@HI@stlp_std@@@@@stlp_std@@QAE?AU?$_Rb_tree_iterator@U?$pair@$$CBHI@stlp_std@@U?$_MapTraitsT@U?$pair@$$CBHI@stlp_std@@@priv@2@@priv@2@XZ ; stlp_std::map<int,unsigned int,stlp_std::less<int>,xalloc<stlp_std::pair<int,unsigned int> > >::end
	push	eax
	lea	ecx, DWORD PTR $T369126[esp+40]
	call	??0?$_Rb_tree_iterator@U?$pair@$$CBHI@stlp_std@@U?$_ConstMapTraitsT@U?$pair@$$CBHI@stlp_std@@@priv@2@@priv@stlp_std@@QAE@ABU?$_Rb_tree_iterator@U?$pair@$$CBHI@stlp_std@@U?$_MapTraitsT@U?$pair@$$CBHI@stlp_std@@@priv@2@@12@@Z ; stlp_std::priv::_Rb_tree_iterator<stlp_std::pair<int const ,unsigned int>,stlp_std::priv::_ConstMapTraitsT<stlp_std::pair<int const ,unsigned int> > >::_Rb_tree_iterator<stlp_std::pair<int const ,unsigned int>,stlp_std::priv::_ConstMapTraitsT<stlp_std::pair<int const ,unsigned int> > >
	mov	ecx, DWORD PTR ___i$[esp+36]
	cmp	ecx, DWORD PTR $T369126[esp+36]
	je	SHORT $LN1@operator@82
	mov	dl, BYTE PTR [edi+20]
	lea	ecx, DWORD PTR ___i$[esp+36]
	mov	BYTE PTR $T369095[esp+36], dl
	call	??D?$_Rb_tree_iterator@U?$pair@$$CBHI@stlp_std@@U?$_MapTraitsT@U?$pair@$$CBHI@stlp_std@@@priv@2@@priv@stlp_std@@QBEAAU?$pair@$$CBHI@2@XZ ; stlp_std::priv::_Rb_tree_iterator<stlp_std::pair<int const ,unsigned int>,stlp_std::priv::_MapTraitsT<stlp_std::pair<int const ,unsigned int> > >::operator*
	push	eax
	push	esi
	lea	ecx, DWORD PTR $T369095[esp+44]
	call	??R?$less@H@stlp_std@@QBE_NABH0@Z	; stlp_std::less<int>::operator()
	test	al, al
	je	SHORT $LN2@operator@82
$LN1@operator@82:

; 177  :       __i = insert(__i, value_type(__k, _STLP_DEFAULT_CONSTRUCTED(_Tp)));

	mov	eax, DWORD PTR [esi]
	lea	ecx, DWORD PTR ___i$[esp+36]
	push	ecx
	lea	ecx, DWORD PTR $T369155[esp+40]
	mov	DWORD PTR $T369096[esp+40], eax
	mov	DWORD PTR $T369096[esp+44], 0
	call	??0?$_Rb_tree_iterator@U?$pair@$$CBHI@stlp_std@@U?$_MapTraitsT@U?$pair@$$CBHI@stlp_std@@@priv@2@@priv@stlp_std@@QAE@ABU012@@Z ; stlp_std::priv::_Rb_tree_iterator<stlp_std::pair<int const ,unsigned int>,stlp_std::priv::_MapTraitsT<stlp_std::pair<int const ,unsigned int> > >::_Rb_tree_iterator<stlp_std::pair<int const ,unsigned int>,stlp_std::priv::_MapTraitsT<stlp_std::pair<int const ,unsigned int> > >
	lea	edx, DWORD PTR $T369096[esp+36]
	push	edx
	push	ecx
	lea	eax, DWORD PTR $T369155[esp+44]
	mov	ecx, esp
	push	eax
	call	??0?$_Rb_tree_iterator@U?$pair@$$CBHI@stlp_std@@U?$_MapTraitsT@U?$pair@$$CBHI@stlp_std@@@priv@2@@priv@stlp_std@@QAE@ABU012@@Z ; stlp_std::priv::_Rb_tree_iterator<stlp_std::pair<int const ,unsigned int>,stlp_std::priv::_MapTraitsT<stlp_std::pair<int const ,unsigned int> > >::_Rb_tree_iterator<stlp_std::pair<int const ,unsigned int>,stlp_std::priv::_MapTraitsT<stlp_std::pair<int const ,unsigned int> > >
	lea	esi, DWORD PTR $T369099[esp+44]
	call	?insert_unique@?$_Rb_tree@HU?$less@H@stlp_std@@U?$pair@$$CBHI@2@U?$_Select1st@U?$pair@$$CBHI@stlp_std@@@priv@2@U?$_MapTraitsT@U?$pair@$$CBHI@stlp_std@@@52@V?$xalloc@U?$pair@HI@stlp_std@@@@@priv@stlp_std@@QAE?AU?$_Rb_tree_iterator@U?$pair@$$CBHI@stlp_std@@U?$_MapTraitsT@U?$pair@$$CBHI@stlp_std@@@priv@2@@23@U423@ABU?$pair@$$CBHI@3@@Z ; stlp_std::priv::_Rb_tree<int,stlp_std::less<int>,stlp_std::pair<int const ,unsigned int>,stlp_std::priv::_Select1st<stlp_std::pair<int const ,unsigned int> >,stlp_std::priv::_MapTraitsT<stlp_std::pair<int const ,unsigned int> >,xalloc<stlp_std::pair<int,unsigned int> > >::insert_unique
	mov	ecx, DWORD PTR $T369099[esp+36]
	mov	DWORD PTR ___i$[esp+36], ecx
$LN2@operator@82:

; 178  :     return (*__i).second;

	lea	ecx, DWORD PTR ___i$[esp+36]
	call	??D?$_Rb_tree_iterator@U?$pair@$$CBHI@stlp_std@@U?$_MapTraitsT@U?$pair@$$CBHI@stlp_std@@@priv@2@@priv@stlp_std@@QBEAAU?$pair@$$CBHI@2@XZ ; stlp_std::priv::_Rb_tree_iterator<stlp_std::pair<int const ,unsigned int>,stlp_std::priv::_MapTraitsT<stlp_std::pair<int const ,unsigned int> > >::operator*

; 179  :   }

	pop	edi
	add	eax, 4
	pop	esi
	add	esp, 28					; 0000001cH
	ret	0
??$?AH@?$map@HIU?$less@H@stlp_std@@V?$xalloc@U?$pair@HI@stlp_std@@@@@stlp_std@@QAEAAIABH@Z ENDP ; stlp_std::map<int,unsigned int,stlp_std::less<int>,xalloc<stlp_std::pair<int,unsigned int> > >::operator[]<int>
; Function compile flags: /Ogtpy
; File d:\clearsky\sources\sdk\include\stlport\stl\_tree.h
_TEXT	ENDS
;	COMDAT ?erase@?$_Rb_tree@HU?$less@H@stlp_std@@U?$pair@$$CBHI@2@U?$_Select1st@U?$pair@$$CBHI@stlp_std@@@priv@2@U?$_MapTraitsT@U?$pair@$$CBHI@stlp_std@@@52@V?$xalloc@U?$pair@HI@stlp_std@@@@@priv@stlp_std@@QAEXU?$_Rb_tree_iterator@U?$pair@$$CBHI@stlp_std@@U?$_MapTraitsT@U?$pair@$$CBHI@stlp_std@@@priv@2@@23@0@Z
_TEXT	SEGMENT
$T369237 = -4						; size = 4
___first$ = 8						; size = 4
___last$ = 12						; size = 4
?erase@?$_Rb_tree@HU?$less@H@stlp_std@@U?$pair@$$CBHI@2@U?$_Select1st@U?$pair@$$CBHI@stlp_std@@@priv@2@U?$_MapTraitsT@U?$pair@$$CBHI@stlp_std@@@52@V?$xalloc@U?$pair@HI@stlp_std@@@@@priv@stlp_std@@QAEXU?$_Rb_tree_iterator@U?$pair@$$CBHI@stlp_std@@U?$_MapTraitsT@U?$pair@$$CBHI@stlp_std@@@priv@2@@23@0@Z PROC ; stlp_std::priv::_Rb_tree<int,stlp_std::less<int>,stlp_std::pair<int const ,unsigned int>,stlp_std::priv::_Select1st<stlp_std::pair<int const ,unsigned int> >,stlp_std::priv::_MapTraitsT<stlp_std::pair<int const ,unsigned int> >,xalloc<stlp_std::pair<int,unsigned int> > >::erase, COMDAT
; _this$ = esi

; 513  :   void erase(iterator __first, iterator __last) {

	push	ecx

; 514  :     if (__first._M_node == this->_M_header._M_data._M_left && // begin()
; 515  :         __last._M_node == &this->_M_header._M_data)           // end()

	mov	eax, DWORD PTR ___first$[esp]
	cmp	eax, DWORD PTR [esi+8]
	push	ebx
	lea	ebx, DWORD PTR [esi+8]
	push	edi
	jne	SHORT $LL2@erase@49
	cmp	DWORD PTR ___last$[esp+8], esi
	jne	SHORT $LL2@erase@49

; 516  :       clear();

	mov	ecx, esi
	call	?clear@?$_Rb_tree@HU?$less@H@stlp_std@@U?$pair@$$CBHI@2@U?$_Select1st@U?$pair@$$CBHI@stlp_std@@@priv@2@U?$_MapTraitsT@U?$pair@$$CBHI@stlp_std@@@52@V?$xalloc@U?$pair@HI@stlp_std@@@@@priv@stlp_std@@QAEXXZ ; stlp_std::priv::_Rb_tree<int,stlp_std::less<int>,stlp_std::pair<int const ,unsigned int>,stlp_std::priv::_Select1st<stlp_std::pair<int const ,unsigned int> >,stlp_std::priv::_MapTraitsT<stlp_std::pair<int const ,unsigned int> >,xalloc<stlp_std::pair<int,unsigned int> > >::clear
$LN1@erase@49:

; 519  :   }

	pop	edi
	pop	ebx
	pop	ecx
	ret	8
$LL2@erase@49:

; 517  :     else
; 518  :       while (__first != __last) erase(__first++);

	push	ecx
	lea	edx, DWORD PTR ___last$[esp+12]
	mov	ecx, esp
	push	edx
	call	??0?$_Rb_tree_iterator@U?$pair@$$CBHI@stlp_std@@U?$_ConstMapTraitsT@U?$pair@$$CBHI@stlp_std@@@priv@2@@priv@stlp_std@@QAE@ABU?$_Rb_tree_iterator@U?$pair@$$CBHI@stlp_std@@U?$_MapTraitsT@U?$pair@$$CBHI@stlp_std@@@priv@2@@12@@Z ; stlp_std::priv::_Rb_tree_iterator<stlp_std::pair<int const ,unsigned int>,stlp_std::priv::_ConstMapTraitsT<stlp_std::pair<int const ,unsigned int> > >::_Rb_tree_iterator<stlp_std::pair<int const ,unsigned int>,stlp_std::priv::_ConstMapTraitsT<stlp_std::pair<int const ,unsigned int> > >
	lea	ecx, DWORD PTR ___first$[esp+12]
	call	??9?$_Rb_tree_iterator@U?$pair@$$CBHI@stlp_std@@U?$_MapTraitsT@U?$pair@$$CBHI@stlp_std@@@priv@2@@priv@stlp_std@@QBE_NU?$_Rb_tree_iterator@U?$pair@$$CBHI@stlp_std@@U?$_ConstMapTraitsT@U?$pair@$$CBHI@stlp_std@@@priv@2@@12@@Z ; stlp_std::priv::_Rb_tree_iterator<stlp_std::pair<int const ,unsigned int>,stlp_std::priv::_MapTraitsT<stlp_std::pair<int const ,unsigned int> > >::operator!=
	test	al, al
	je	SHORT $LN1@erase@49
	lea	eax, DWORD PTR ___first$[esp+8]
	push	eax
	lea	ecx, DWORD PTR $T369237[esp+16]
	call	??0?$_Rb_tree_iterator@U?$pair@$$CBHI@stlp_std@@U?$_MapTraitsT@U?$pair@$$CBHI@stlp_std@@@priv@2@@priv@stlp_std@@QAE@ABU012@@Z ; stlp_std::priv::_Rb_tree_iterator<stlp_std::pair<int const ,unsigned int>,stlp_std::priv::_MapTraitsT<stlp_std::pair<int const ,unsigned int> > >::_Rb_tree_iterator<stlp_std::pair<int const ,unsigned int>,stlp_std::priv::_MapTraitsT<stlp_std::pair<int const ,unsigned int> > >
	mov	ecx, DWORD PTR ___first$[esp+8]
	mov	eax, DWORD PTR [ecx+12]
	test	eax, eax
	je	SHORT $LN25@erase@49
	mov	ecx, eax
	mov	eax, DWORD PTR [ecx+8]
	test	eax, eax
	je	SHORT $LN21@erase@49
	npad	2
$LL29@erase@49:
	mov	ecx, eax
	mov	eax, DWORD PTR [ecx+8]
	test	eax, eax
	jne	SHORT $LL29@erase@49
	jmp	SHORT $LN21@erase@49
$LN25@erase@49:
	mov	eax, DWORD PTR [ecx+4]
	cmp	ecx, DWORD PTR [eax+12]
	jne	SHORT $LN22@erase@49
$LL23@erase@49:
	mov	ecx, eax
	mov	eax, DWORD PTR [eax+4]
	cmp	ecx, DWORD PTR [eax+12]
	je	SHORT $LL23@erase@49
$LN22@erase@49:
	cmp	DWORD PTR [ecx+12], eax
	je	SHORT $LN21@erase@49
	mov	ecx, eax
$LN21@erase@49:
	mov	DWORD PTR ___first$[esp+8], ecx
	lea	ecx, DWORD PTR [esi+4]
	push	ecx
	mov	ecx, DWORD PTR $T369237[esp+16]
	lea	eax, DWORD PTR [esi+12]
	mov	edx, ebx
	call	?_Rebalance_for_erase@?$_Rb_global@_N@priv@stlp_std@@SAPAU_Rb_tree_node_base@23@PAU423@AAPAU423@11@Z ; stlp_std::priv::_Rb_global<bool>::_Rebalance_for_erase
	mov	edi, eax
	push	edi
	call	?_S_value@?$_Rb_tree@HU?$less@H@stlp_std@@U?$pair@$$CBHI@2@U?$_Select1st@U?$pair@$$CBHI@stlp_std@@@priv@2@U?$_MapTraitsT@U?$pair@$$CBHI@stlp_std@@@52@V?$xalloc@U?$pair@HI@stlp_std@@@@@priv@stlp_std@@KAAAU?$pair@$$CBHI@3@PAU_Rb_tree_node_base@23@@Z ; stlp_std::priv::_Rb_tree<int,stlp_std::less<int>,stlp_std::pair<int const ,unsigned int>,stlp_std::priv::_Select1st<stlp_std::pair<int const ,unsigned int> >,stlp_std::priv::_MapTraitsT<stlp_std::pair<int const ,unsigned int> >,xalloc<stlp_std::pair<int,unsigned int> > >::_S_value
	push	eax
	call	??$_Destroy@U?$pair@$$CBHI@stlp_std@@@stlp_std@@YAXPAU?$pair@$$CBHI@0@@Z ; stlp_std::_Destroy<stlp_std::pair<int const ,unsigned int> >
	add	esp, 12					; 0000000cH
	push	1
	push	edi
	mov	ecx, esi
	call	?deallocate@?$xalloc@U?$_Rb_tree_node@U?$pair@$$CBHI@stlp_std@@@priv@stlp_std@@@@QBEXPAU?$_Rb_tree_node@U?$pair@$$CBHI@stlp_std@@@priv@stlp_std@@I@Z ; xalloc<stlp_std::priv::_Rb_tree_node<stlp_std::pair<int const ,unsigned int> > >::deallocate
	add	DWORD PTR [esi+16], -1
	jmp	$LL2@erase@49
?erase@?$_Rb_tree@HU?$less@H@stlp_std@@U?$pair@$$CBHI@2@U?$_Select1st@U?$pair@$$CBHI@stlp_std@@@priv@2@U?$_MapTraitsT@U?$pair@$$CBHI@stlp_std@@@52@V?$xalloc@U?$pair@HI@stlp_std@@@@@priv@stlp_std@@QAEXU?$_Rb_tree_iterator@U?$pair@$$CBHI@stlp_std@@U?$_MapTraitsT@U?$pair@$$CBHI@stlp_std@@@priv@2@@23@0@Z ENDP ; stlp_std::priv::_Rb_tree<int,stlp_std::less<int>,stlp_std::pair<int const ,unsigned int>,stlp_std::priv::_Select1st<stlp_std::pair<int const ,unsigned int> >,stlp_std::priv::_MapTraitsT<stlp_std::pair<int const ,unsigned int> >,xalloc<stlp_std::pair<int,unsigned int> > >::erase
; Function compile flags: /Ogtpy
; File d:\clearsky\sources\engine\xrcore\_stl_extensions.h
_TEXT	ENDS
;	COMDAT ??0?$xr_vector@PAVCLAItem@@V?$xalloc@PAVCLAItem@@@@@@QAE@XZ
_TEXT	SEGMENT
??0?$xr_vector@PAVCLAItem@@V?$xalloc@PAVCLAItem@@@@@@QAE@XZ PROC ; xr_vector<CLAItem *,xalloc<CLAItem *> >::xr_vector<CLAItem *,xalloc<CLAItem *> >, COMDAT
; _this$ = eax

; 123  : 			xr_vector			()									: inherited	()					{}

	xor	ecx, ecx
	mov	DWORD PTR [eax], ecx
	mov	DWORD PTR [eax+4], ecx
	mov	DWORD PTR [eax+8], ecx
	ret	0
??0?$xr_vector@PAVCLAItem@@V?$xalloc@PAVCLAItem@@@@@@QAE@XZ ENDP ; xr_vector<CLAItem *,xalloc<CLAItem *> >::xr_vector<CLAItem *,xalloc<CLAItem *> >
; Function compile flags: /Ogtpy
; File d:\clearsky\sources\sdk\include\stlport\stl\_map.h
_TEXT	ENDS
;	COMDAT ?erase@?$map@HIU?$less@H@stlp_std@@V?$xalloc@U?$pair@HI@stlp_std@@@@@stlp_std@@QAEXU?$_Rb_tree_iterator@U?$pair@$$CBHI@stlp_std@@U?$_MapTraitsT@U?$pair@$$CBHI@stlp_std@@@priv@2@@priv@2@0@Z
_TEXT	SEGMENT
___first$ = 8						; size = 4
___last$ = 12						; size = 4
?erase@?$map@HIU?$less@H@stlp_std@@V?$xalloc@U?$pair@HI@stlp_std@@@@@stlp_std@@QAEXU?$_Rb_tree_iterator@U?$pair@$$CBHI@stlp_std@@U?$_MapTraitsT@U?$pair@$$CBHI@stlp_std@@@priv@2@@priv@2@0@Z PROC ; stlp_std::map<int,unsigned int,stlp_std::less<int>,xalloc<stlp_std::pair<int,unsigned int> > >::erase, COMDAT
; _this$ = esi

; 200  :   void erase(iterator __first, iterator __last) { _M_t.erase(__first, __last); }

	push	ecx
	lea	eax, DWORD PTR ___last$[esp]
	mov	ecx, esp
	push	eax
	call	??0?$_Rb_tree_iterator@U?$pair@$$CBHI@stlp_std@@U?$_MapTraitsT@U?$pair@$$CBHI@stlp_std@@@priv@2@@priv@stlp_std@@QAE@ABU012@@Z ; stlp_std::priv::_Rb_tree_iterator<stlp_std::pair<int const ,unsigned int>,stlp_std::priv::_MapTraitsT<stlp_std::pair<int const ,unsigned int> > >::_Rb_tree_iterator<stlp_std::pair<int const ,unsigned int>,stlp_std::priv::_MapTraitsT<stlp_std::pair<int const ,unsigned int> > >
	push	ecx
	lea	edx, DWORD PTR ___first$[esp+4]
	mov	ecx, esp
	push	edx
	call	??0?$_Rb_tree_iterator@U?$pair@$$CBHI@stlp_std@@U?$_MapTraitsT@U?$pair@$$CBHI@stlp_std@@@priv@2@@priv@stlp_std@@QAE@ABU012@@Z ; stlp_std::priv::_Rb_tree_iterator<stlp_std::pair<int const ,unsigned int>,stlp_std::priv::_MapTraitsT<stlp_std::pair<int const ,unsigned int> > >::_Rb_tree_iterator<stlp_std::pair<int const ,unsigned int>,stlp_std::priv::_MapTraitsT<stlp_std::pair<int const ,unsigned int> > >
	call	?erase@?$_Rb_tree@HU?$less@H@stlp_std@@U?$pair@$$CBHI@2@U?$_Select1st@U?$pair@$$CBHI@stlp_std@@@priv@2@U?$_MapTraitsT@U?$pair@$$CBHI@stlp_std@@@52@V?$xalloc@U?$pair@HI@stlp_std@@@@@priv@stlp_std@@QAEXU?$_Rb_tree_iterator@U?$pair@$$CBHI@stlp_std@@U?$_MapTraitsT@U?$pair@$$CBHI@stlp_std@@@priv@2@@23@0@Z ; stlp_std::priv::_Rb_tree<int,stlp_std::less<int>,stlp_std::pair<int const ,unsigned int>,stlp_std::priv::_Select1st<stlp_std::pair<int const ,unsigned int> >,stlp_std::priv::_MapTraitsT<stlp_std::pair<int const ,unsigned int> >,xalloc<stlp_std::pair<int,unsigned int> > >::erase
	ret	8
?erase@?$map@HIU?$less@H@stlp_std@@V?$xalloc@U?$pair@HI@stlp_std@@@@@stlp_std@@QAEXU?$_Rb_tree_iterator@U?$pair@$$CBHI@stlp_std@@U?$_MapTraitsT@U?$pair@$$CBHI@stlp_std@@@priv@2@@priv@2@0@Z ENDP ; stlp_std::map<int,unsigned int,stlp_std::less<int>,xalloc<stlp_std::pair<int,unsigned int> > >::erase
_TEXT	ENDS
PUBLIC	?Save@ELightAnimLibrary@@QAEXXZ			; ELightAnimLibrary::Save
; Function compile flags: /Ogtpy
; File d:\clearsky\sources\engine\xrengine\lightanimlibrary.cpp
;	COMDAT ?Save@ELightAnimLibrary@@QAEXXZ
_TEXT	SEGMENT
_F$ = -556						; size = 36
_fn$ = -520						; size = 520
?Save@ELightAnimLibrary@@QAEXXZ PROC			; ELightAnimLibrary::Save, COMDAT
; _this$ = ecx

; 232  : {

	sub	esp, 556				; 0000022cH
	push	ebx
	push	ebp
	push	esi
	push	edi
	mov	edi, ecx

; 233  : 	CMemoryWriter F;

	lea	ecx, DWORD PTR _F$[esp+572]
	call	DWORD PTR __imp_??0CMemoryWriter@@QAE@XZ

; 234  :     F.open_chunk	(CHUNK_VERSION);

	mov	ebp, DWORD PTR __imp_?open_chunk@IWriter@@QAEXI@Z
	push	0
	lea	ecx, DWORD PTR _F$[esp+576]
	call	ebp

; 235  :     F.w_u16			(LANIM_VERSION);

	push	1
	lea	ecx, DWORD PTR _F$[esp+576]
	call	DWORD PTR __imp_?w_u16@IWriter@@QAEXG@Z

; 236  : 	F.close_chunk	();

	lea	ecx, DWORD PTR _F$[esp+572]
	call	DWORD PTR __imp_?close_chunk@IWriter@@QAEXXZ

; 237  :     F.open_chunk	(CHUNK_ITEM_LIST);

	push	1
	lea	ecx, DWORD PTR _F$[esp+576]
	call	ebp

; 238  :     int count = 0;
; 239  : 	for (LAItemIt it=Items.begin(); it!=Items.end(); it++){

	mov	eax, DWORD PTR [edi]
	push	eax
	xor	ebx, ebx
	call	?cv_ptr@?$_VoidCastTraitsAux@PAXPAX@priv@stlp_std@@SAPAPAXPAPAX@Z ; stlp_std::priv::_VoidCastTraitsAux<void *,void *>::cv_ptr
	mov	esi, eax
	mov	eax, DWORD PTR [edi+4]
	push	eax
	call	?cv_ptr@?$_VoidCastTraitsAux@PAXPAX@priv@stlp_std@@SAPAPAXPAPAX@Z ; stlp_std::priv::_VoidCastTraitsAux<void *,void *>::cv_ptr
	add	esp, 8
	cmp	esi, eax
	je	SHORT $LN2@Save@8
	npad	2
$LL4@Save@8:

; 240  :         F.open_chunk(count++);

	push	ebx
	lea	ecx, DWORD PTR _F$[esp+576]
	call	ebp

; 241  : 		(*it)->Save		(F);

	mov	ecx, DWORD PTR [esi]
	lea	eax, DWORD PTR _F$[esp+572]
	push	eax
	add	ebx, 1
	call	?Save@CLAItem@@QAEXAAVIWriter@@@Z	; CLAItem::Save

; 242  :         F.close_chunk();

	lea	ecx, DWORD PTR _F$[esp+572]
	call	DWORD PTR __imp_?close_chunk@IWriter@@QAEXXZ
	mov	eax, DWORD PTR [edi+4]
	push	eax
	add	esi, 4
	call	?cv_ptr@?$_VoidCastTraitsAux@PAXPAX@priv@stlp_std@@SAPAPAXPAPAX@Z ; stlp_std::priv::_VoidCastTraitsAux<void *,void *>::cv_ptr
	add	esp, 4
	cmp	esi, eax
	jne	SHORT $LL4@Save@8
$LN2@Save@8:

; 243  :     }
; 244  : 	F.close_chunk	();

	lea	ecx, DWORD PTR _F$[esp+572]
	call	DWORD PTR __imp_?close_chunk@IWriter@@QAEXXZ

; 245  : 
; 246  : 	string_path		fn;
; 247  :     FS.update_path	(fn,_game_data_,"lanims.xr");

	mov	edx, DWORD PTR __imp_?xr_FS@@3PAVCLocatorAPI@@A
	push	OFFSET ??_C@_09EKOHCBCF@lanims?4xr?$AA@
	push	OFFSET ??_C@_0M@FDPKAAFL@$game_data$?$AA@
	lea	ecx, DWORD PTR _fn$[esp+580]
	push	ecx
	mov	ecx, DWORD PTR [edx]
	call	DWORD PTR __imp_?update_path@CLocatorAPI@@QAEPBDAAY0CAI@DPBD1@Z

; 248  : 
; 249  :     if (!F.save_to(fn))

	lea	eax, DWORD PTR _fn$[esp+572]
	push	eax
	lea	ecx, DWORD PTR _F$[esp+576]
	call	DWORD PTR __imp_?save_to@CMemoryWriter@@QAE_NPBD@Z
	test	al, al
	pop	edi
	pop	esi
	pop	ebp
	pop	ebx
	jne	SHORT $LN1@Save@8

; 250  :         Log			("!Can't save color animations:",fn);

	lea	ecx, DWORD PTR _fn$[esp+556]
	push	ecx
	push	OFFSET ??_C@_0BO@DCNPJICB@?$CBCan?8t?5save?5color?5animations?3?$AA@
	call	DWORD PTR __imp_?Log@@YAXPBD0@Z
	add	esp, 8
$LN1@Save@8:

; 251  : }

	lea	ecx, DWORD PTR _F$[esp+556]
	call	DWORD PTR __imp_??1CMemoryWriter@@UAE@XZ
	add	esp, 556				; 0000022cH
	ret	0
?Save@ELightAnimLibrary@@QAEXXZ ENDP			; ELightAnimLibrary::Save
_TEXT	ENDS
PUBLIC	??1ELightAnimLibrary@@QAE@XZ			; ELightAnimLibrary::~ELightAnimLibrary
; Function compile flags: /Ogtpy
;	COMDAT ??1ELightAnimLibrary@@QAE@XZ
_TEXT	SEGMENT
??1ELightAnimLibrary@@QAE@XZ PROC			; ELightAnimLibrary::~ELightAnimLibrary, COMDAT
; _this$ = ecx

; 181  : }

	mov	eax, DWORD PTR [ecx]
	test	eax, eax
	je	SHORT $LN40@ELightAnim
	mov	ecx, DWORD PTR __imp_?Memory@@3VxrMemory@@A
	push	eax
	call	DWORD PTR __imp_?mem_free@xrMemory@@QAEXPAX@Z
$LN40@ELightAnim:
	ret	0
??1ELightAnimLibrary@@QAE@XZ ENDP			; ELightAnimLibrary::~ELightAnimLibrary
_TEXT	ENDS
PUBLIC	??0ELightAnimLibrary@@QAE@XZ			; ELightAnimLibrary::ELightAnimLibrary
; Function compile flags: /Ogtpy
;	COMDAT ??0ELightAnimLibrary@@QAE@XZ
_TEXT	SEGMENT
??0ELightAnimLibrary@@QAE@XZ PROC			; ELightAnimLibrary::ELightAnimLibrary, COMDAT
; _this$ = ecx

; 176  : {

	mov	eax, ecx
	xor	ecx, ecx
	mov	DWORD PTR [eax], ecx
	mov	DWORD PTR [eax+4], ecx
	mov	DWORD PTR [eax+8], ecx

; 177  : }

	ret	0
??0ELightAnimLibrary@@QAE@XZ ENDP			; ELightAnimLibrary::ELightAnimLibrary
_TEXT	ENDS
PUBLIC	?CalculateRGB@CLAItem@@QAEIMAAH@Z		; CLAItem::CalculateRGB
; Function compile flags: /Ogtpy
;	COMDAT ?CalculateRGB@CLAItem@@QAEIMAAH@Z
_TEXT	SEGMENT
tv163 = -4						; size = 4
_a$369688 = -4						; size = 4
_T$ = 8							; size = 4
_frame$ = 12						; size = 4
?CalculateRGB@CLAItem@@QAEIMAAH@Z PROC			; CLAItem::CalculateRGB, COMDAT
; _this$ = ecx

; 139  : {

	push	ebp
	mov	ebp, esp
	and	esp, -8					; fffffff8H
	sub	esp, 8
	push	esi
	push	edi
	mov	edi, ecx

; 140  :     frame	= iFloor(fmodf(T,float(iFrameCount)/fFPS)*fFPS);

	fld	DWORD PTR [edi+4]
	fst	DWORD PTR tv163[esp+16]
	fld	DWORD PTR _T$[ebp]
	fild	DWORD PTR [edi+32]
	fdivrp	ST(2), ST(0)
	fxch	ST(1)
	call	__CIfmod
	fmul	DWORD PTR tv163[esp+16]
	mov	ecx, 158				; 0000009eH
	fstp	DWORD PTR _a$369688[esp+16]
	mov	esi, DWORD PTR _a$369688[esp+16]
	mov	eax, esi
	sar	eax, 23					; 00000017H
	and	eax, 255				; 000000ffH
	sub	ecx, eax
	mov	edx, esi
	or	edx, -8388608				; ff800000H
	shl	edx, 8
	shr	edx, cl
	sub	ecx, 96					; 00000060H
	mov	eax, 1
	shl	eax, cl
	sub	eax, 1
	sar	eax, 8
	and	eax, esi
	neg	eax
	sbb	eax, eax
	sar	esi, 31					; 0000001fH
	add	eax, 1
	add	ecx, 64					; 00000040H
	and	eax, esi
	sar	ecx, 31					; 0000001fH
	sub	edx, eax
	and	edx, ecx
	mov	ecx, DWORD PTR _frame$[ebp]
	xor	edx, esi
	mov	DWORD PTR [ecx], edx

; 141  :     return InterpolateRGB(frame);

	push	edx
	mov	ecx, edi
	call	?InterpolateRGB@CLAItem@@QAEIH@Z	; CLAItem::InterpolateRGB

; 142  : }

	pop	edi
	pop	esi
	mov	esp, ebp
	pop	ebp
	ret	8
?CalculateRGB@CLAItem@@QAEIMAAH@Z ENDP			; CLAItem::CalculateRGB
_TEXT	ENDS
PUBLIC	?InterpolateBGR@CLAItem@@QAEIH@Z		; CLAItem::InterpolateBGR
; Function compile flags: /Ogtpy
;	COMDAT ?InterpolateBGR@CLAItem@@QAEIH@Z
_TEXT	SEGMENT
_frame$ = 8						; size = 4
?InterpolateBGR@CLAItem@@QAEIH@Z PROC			; CLAItem::InterpolateBGR, COMDAT
; _this$ = ecx

; 134  : 	u32 c 	= InterpolateRGB(frame);

	mov	eax, DWORD PTR _frame$[esp-4]
	push	eax
	call	?InterpolateRGB@CLAItem@@QAEIH@Z	; CLAItem::InterpolateRGB
	mov	ecx, eax

; 135  :     return color_rgba(color_get_B(c),color_get_G(c),color_get_R(c),color_get_A(c));

	movzx	edx, cl
	shr	eax, 16					; 00000010H
	and	eax, 255				; 000000ffH
	shl	edx, 16					; 00000010H
	or	eax, edx
	and	ecx, -16711936				; ff00ff00H
	or	eax, ecx

; 136  : }

	ret	4
?InterpolateBGR@CLAItem@@QAEIH@Z ENDP			; CLAItem::InterpolateBGR
_TEXT	ENDS
PUBLIC	?MoveKey@CLAItem@@QAEXHH@Z			; CLAItem::MoveKey
; Function compile flags: /Ogtpy
;	COMDAT ?MoveKey@CLAItem@@QAEXHH@Z
_TEXT	SEGMENT
_it$ = -12						; size = 4
$T369770 = -8						; size = 4
$T369763 = -4						; size = 4
$T369719 = -4						; size = 4
_from$ = 8						; size = 4
_to$ = 12						; size = 4
?MoveKey@CLAItem@@QAEXHH@Z PROC				; CLAItem::MoveKey, COMDAT
; _this$ = ecx

; 76   : {

	sub	esp, 12					; 0000000cH

; 77   : 	R_ASSERT(from<=iFrameCount);

	cmp	BYTE PTR ?ignore_always@?3??MoveKey@CLAItem@@QAEXHH@Z@4_NA, 0
	push	esi
	push	edi
	mov	edi, DWORD PTR __imp_?fail@xrDebug@@QAEXPBD0H0AA_N@Z
	mov	esi, ecx
	jne	SHORT $LN8@MoveKey
	mov	eax, DWORD PTR _from$[esp+16]
	cmp	eax, DWORD PTR [esi+32]
	jle	SHORT $LN8@MoveKey
	mov	ecx, DWORD PTR __imp_?Debug@@3VxrDebug@@A
	push	OFFSET ?ignore_always@?3??MoveKey@CLAItem@@QAEXHH@Z@4_NA
	push	OFFSET ??_C@_0BB@HHGNKDF@CLAItem?3?3MoveKey?$AA@
	push	77					; 0000004dH
	push	OFFSET ??_C@_0DJ@LHCNLGNK@D?3?2CLEARSKY?2sources?2engine?2xrEng@
	push	OFFSET ??_C@_0BC@GOKBJODO@from?$DM?$DNiFrameCount?$AA@
	call	edi
$LN8@MoveKey:

; 78   : 	R_ASSERT(to<=iFrameCount);

	cmp	BYTE PTR ?ignore_always@?7??MoveKey@CLAItem@@QAEXHH@Z@4_NA, 0
	jne	SHORT $LN4@MoveKey
	mov	ecx, DWORD PTR _to$[esp+16]
	cmp	ecx, DWORD PTR [esi+32]
	jle	SHORT $LN4@MoveKey
	mov	ecx, DWORD PTR __imp_?Debug@@3VxrDebug@@A
	push	OFFSET ?ignore_always@?7??MoveKey@CLAItem@@QAEXHH@Z@4_NA
	push	OFFSET ??_C@_0BB@HHGNKDF@CLAItem?3?3MoveKey?$AA@
	push	78					; 0000004eH
	push	OFFSET ??_C@_0DJ@LHCNLGNK@D?3?2CLEARSKY?2sources?2engine?2xrEng@
	push	OFFSET ??_C@_0BA@KIEEJEPF@to?$DM?$DNiFrameCount?$AA@
	call	edi
$LN4@MoveKey:

; 79   : 	KeyPairIt it=Keys.find(from);

	lea	edx, DWORD PTR _from$[esp+16]
	push	edx
	lea	eax, DWORD PTR _it$[esp+24]
	add	esi, 8
	push	eax
	mov	ecx, esi
	call	??$find@H@?$map@HIU?$less@H@stlp_std@@V?$xalloc@U?$pair@HI@stlp_std@@@@@stlp_std@@QAE?AU?$_Rb_tree_iterator@U?$pair@$$CBHI@stlp_std@@U?$_MapTraitsT@U?$pair@$$CBHI@stlp_std@@@priv@2@@priv@1@ABH@Z ; stlp_std::map<int,unsigned int,stlp_std::less<int>,xalloc<stlp_std::pair<int,unsigned int> > >::find<int>

; 80   :     if (it!=Keys.end()){

	lea	ecx, DWORD PTR $T369719[esp+20]
	push	ecx
	mov	ecx, esi
	call	?end@?$map@HIU?$less@H@stlp_std@@V?$xalloc@U?$pair@HI@stlp_std@@@@@stlp_std@@QAE?AU?$_Rb_tree_iterator@U?$pair@$$CBHI@stlp_std@@U?$_MapTraitsT@U?$pair@$$CBHI@stlp_std@@@priv@2@@priv@2@XZ ; stlp_std::map<int,unsigned int,stlp_std::less<int>,xalloc<stlp_std::pair<int,unsigned int> > >::end
	push	ecx
	mov	ecx, esp
	push	eax
	call	??0?$_Rb_tree_iterator@U?$pair@$$CBHI@stlp_std@@U?$_ConstMapTraitsT@U?$pair@$$CBHI@stlp_std@@@priv@2@@priv@stlp_std@@QAE@ABU?$_Rb_tree_iterator@U?$pair@$$CBHI@stlp_std@@U?$_MapTraitsT@U?$pair@$$CBHI@stlp_std@@@priv@2@@12@@Z ; stlp_std::priv::_Rb_tree_iterator<stlp_std::pair<int const ,unsigned int>,stlp_std::priv::_ConstMapTraitsT<stlp_std::pair<int const ,unsigned int> > >::_Rb_tree_iterator<stlp_std::pair<int const ,unsigned int>,stlp_std::priv::_ConstMapTraitsT<stlp_std::pair<int const ,unsigned int> > >
	lea	ecx, DWORD PTR _it$[esp+24]
	call	??9?$_Rb_tree_iterator@U?$pair@$$CBHI@stlp_std@@U?$_MapTraitsT@U?$pair@$$CBHI@stlp_std@@@priv@2@@priv@stlp_std@@QBE_NU?$_Rb_tree_iterator@U?$pair@$$CBHI@stlp_std@@U?$_ConstMapTraitsT@U?$pair@$$CBHI@stlp_std@@@priv@2@@12@@Z ; stlp_std::priv::_Rb_tree_iterator<stlp_std::pair<int const ,unsigned int>,stlp_std::priv::_MapTraitsT<stlp_std::pair<int const ,unsigned int> > >::operator!=
	test	al, al
	je	SHORT $LN48@MoveKey

; 81   :     	Keys[to]=it->second;

	lea	ecx, DWORD PTR _it$[esp+20]
	call	??C?$_Rb_tree_iterator@U?$pair@$$CBHI@stlp_std@@U?$_MapTraitsT@U?$pair@$$CBHI@stlp_std@@@priv@2@@priv@stlp_std@@QBEPAU?$pair@$$CBHI@2@XZ ; stlp_std::priv::_Rb_tree_iterator<stlp_std::pair<int const ,unsigned int>,stlp_std::priv::_MapTraitsT<stlp_std::pair<int const ,unsigned int> > >::operator->
	lea	edi, DWORD PTR [eax+4]
	lea	eax, DWORD PTR _to$[esp+16]
	mov	ecx, esi
	call	??$?AH@?$map@HIU?$less@H@stlp_std@@V?$xalloc@U?$pair@HI@stlp_std@@@@@stlp_std@@QAEAAIABH@Z ; stlp_std::map<int,unsigned int,stlp_std::less<int>,xalloc<stlp_std::pair<int,unsigned int> > >::operator[]<int>
	mov	edx, DWORD PTR [edi]
	mov	DWORD PTR [eax], edx

; 82   : 		Keys.erase(it);

	lea	eax, DWORD PTR _it$[esp+20]
	push	eax
	lea	ecx, DWORD PTR $T369770[esp+24]
	call	??0?$_Rb_tree_iterator@U?$pair@$$CBHI@stlp_std@@U?$_MapTraitsT@U?$pair@$$CBHI@stlp_std@@@priv@2@@priv@stlp_std@@QAE@ABU012@@Z ; stlp_std::priv::_Rb_tree_iterator<stlp_std::pair<int const ,unsigned int>,stlp_std::priv::_MapTraitsT<stlp_std::pair<int const ,unsigned int> > >::_Rb_tree_iterator<stlp_std::pair<int const ,unsigned int>,stlp_std::priv::_MapTraitsT<stlp_std::pair<int const ,unsigned int> > >
	lea	ecx, DWORD PTR $T369770[esp+20]
	push	ecx
	lea	ecx, DWORD PTR $T369763[esp+24]
	call	??0?$_Rb_tree_iterator@U?$pair@$$CBHI@stlp_std@@U?$_MapTraitsT@U?$pair@$$CBHI@stlp_std@@@priv@2@@priv@stlp_std@@QAE@ABU012@@Z ; stlp_std::priv::_Rb_tree_iterator<stlp_std::pair<int const ,unsigned int>,stlp_std::priv::_MapTraitsT<stlp_std::pair<int const ,unsigned int> > >::_Rb_tree_iterator<stlp_std::pair<int const ,unsigned int>,stlp_std::priv::_MapTraitsT<stlp_std::pair<int const ,unsigned int> > >
	lea	ecx, DWORD PTR [esi+4]
	push	ecx
	mov	ecx, DWORD PTR $T369763[esp+24]
	lea	eax, DWORD PTR [esi+12]
	lea	edx, DWORD PTR [esi+8]
	call	?_Rebalance_for_erase@?$_Rb_global@_N@priv@stlp_std@@SAPAU_Rb_tree_node_base@23@PAU423@AAPAU423@11@Z ; stlp_std::priv::_Rb_global<bool>::_Rebalance_for_erase
	mov	edi, eax
	push	edi
	call	?_S_value@?$_Rb_tree@HU?$less@H@stlp_std@@U?$pair@$$CBHI@2@U?$_Select1st@U?$pair@$$CBHI@stlp_std@@@priv@2@U?$_MapTraitsT@U?$pair@$$CBHI@stlp_std@@@52@V?$xalloc@U?$pair@HI@stlp_std@@@@@priv@stlp_std@@KAAAU?$pair@$$CBHI@3@PAU_Rb_tree_node_base@23@@Z ; stlp_std::priv::_Rb_tree<int,stlp_std::less<int>,stlp_std::pair<int const ,unsigned int>,stlp_std::priv::_Select1st<stlp_std::pair<int const ,unsigned int> >,stlp_std::priv::_MapTraitsT<stlp_std::pair<int const ,unsigned int> >,xalloc<stlp_std::pair<int,unsigned int> > >::_S_value
	push	eax
	call	??$_Destroy@U?$pair@$$CBHI@stlp_std@@@stlp_std@@YAXPAU?$pair@$$CBHI@0@@Z ; stlp_std::_Destroy<stlp_std::pair<int const ,unsigned int> >
	add	esp, 12					; 0000000cH
	push	1
	push	edi
	mov	ecx, esi
	call	?deallocate@?$xalloc@U?$_Rb_tree_node@U?$pair@$$CBHI@stlp_std@@@priv@stlp_std@@@@QBEXPAU?$_Rb_tree_node@U?$pair@$$CBHI@stlp_std@@@priv@stlp_std@@I@Z ; xalloc<stlp_std::priv::_Rb_tree_node<stlp_std::pair<int const ,unsigned int> > >::deallocate
	add	DWORD PTR [esi+16], -1
$LN48@MoveKey:

; 83   :     }
; 84   : }

	pop	edi
	pop	esi
	add	esp, 12					; 0000000cH
	ret	8
?MoveKey@CLAItem@@QAEXHH@Z ENDP				; CLAItem::MoveKey
_TEXT	ENDS
PUBLIC	?InsertKey@CLAItem@@QAEXHI@Z			; CLAItem::InsertKey
; Function compile flags: /Ogtpy
;	COMDAT ?InsertKey@CLAItem@@QAEXHI@Z
_TEXT	SEGMENT
_frame$ = 8						; size = 4
_color$ = 12						; size = 4
?InsertKey@CLAItem@@QAEXHI@Z PROC			; CLAItem::InsertKey, COMDAT
; _this$ = ecx

; 63   : 	R_ASSERT(frame<=iFrameCount);

	cmp	BYTE PTR ?ignore_always@?3??InsertKey@CLAItem@@QAEXHI@Z@4_NA, 0
	push	esi
	mov	esi, ecx
	jne	SHORT $LN3@InsertKey
	mov	eax, DWORD PTR _frame$[esp]
	cmp	eax, DWORD PTR [esi+32]
	jle	SHORT $LN3@InsertKey
	mov	ecx, DWORD PTR __imp_?Debug@@3VxrDebug@@A
	push	OFFSET ?ignore_always@?3??InsertKey@CLAItem@@QAEXHI@Z@4_NA
	push	OFFSET ??_C@_0BD@GHBFHFO@CLAItem?3?3InsertKey?$AA@
	push	63					; 0000003fH
	push	OFFSET ??_C@_0DJ@LHCNLGNK@D?3?2CLEARSKY?2sources?2engine?2xrEng@
	push	OFFSET ??_C@_0BD@MALKJDA@frame?$DM?$DNiFrameCount?$AA@
	call	DWORD PTR __imp_?fail@xrDebug@@QAEXPBD0H0AA_N@Z
$LN3@InsertKey:

; 64   : 	Keys[frame] = color;

	lea	ecx, DWORD PTR [esi+8]
	lea	eax, DWORD PTR _frame$[esp]
	call	??$?AH@?$map@HIU?$less@H@stlp_std@@V?$xalloc@U?$pair@HI@stlp_std@@@@@stlp_std@@QAEAAIABH@Z ; stlp_std::map<int,unsigned int,stlp_std::less<int>,xalloc<stlp_std::pair<int,unsigned int> > >::operator[]<int>
	mov	ecx, DWORD PTR _color$[esp]
	mov	DWORD PTR [eax], ecx
	pop	esi

; 65   : }

	ret	8
?InsertKey@CLAItem@@QAEXHI@Z ENDP			; CLAItem::InsertKey
_TEXT	ENDS
PUBLIC	?Load@CLAItem@@QAEXAAVIReader@@@Z		; CLAItem::Load
; Function compile flags: /Ogtpy
;	COMDAT ?Load@CLAItem@@QAEXAAVIReader@@@Z
_TEXT	SEGMENT
_key$ = -8						; size = 4
tv169 = -4						; size = 4
_F$ = 8							; size = 4
?Load@CLAItem@@QAEXAAVIReader@@@Z PROC			; CLAItem::Load, COMDAT
; _this$ = ecx

; 29   : {

	push	ebp
	mov	ebp, esp
	and	esp, -8					; fffffff8H
	sub	esp, 12					; 0000000cH

; 30   : 	R_ASSERT(F.find_chunk(CHUNK_ITEM_COMMON));

	cmp	BYTE PTR ?ignore_always@?3??Load@CLAItem@@QAEXAAVIReader@@@Z@4_NA, 0
	push	ebx
	mov	ebx, DWORD PTR __imp_?find_chunk@IReader@@QAEIIPAH@Z
	push	esi
	mov	esi, DWORD PTR _F$[ebp]
	push	edi
	mov	edi, ecx
	jne	SHORT $LN10@Load@6
	push	0
	push	1
	mov	ecx, esi
	call	ebx
	test	eax, eax
	jne	SHORT $LN10@Load@6
	mov	ecx, DWORD PTR __imp_?Debug@@3VxrDebug@@A
	push	OFFSET ?ignore_always@?3??Load@CLAItem@@QAEXAAVIReader@@@Z@4_NA
	push	OFFSET ??_C@_0O@IPOAHHKK@CLAItem?3?3Load?$AA@
	push	30					; 0000001eH
	push	OFFSET ??_C@_0DJ@LHCNLGNK@D?3?2CLEARSKY?2sources?2engine?2xrEng@
	push	OFFSET ??_C@_0CA@MNAOHIBM@F?4find_chunk?$CICHUNK_ITEM_COMMON?$CJ?$AA@
	call	DWORD PTR __imp_?fail@xrDebug@@QAEXPBD0H0AA_N@Z
$LN10@Load@6:

; 31   :     F.r_stringZ		(cName);

	push	edi
	mov	ecx, esi
	call	DWORD PTR __imp_?r_stringZ@IReader@@QAEXAAVshared_str@@@Z

; 32   :     fFPS			= F.r_float();

	mov	ecx, esi
	call	DWORD PTR __imp_?r_float@?$IReaderBase@VIReader@@@@QAEMXZ
	fstp	DWORD PTR [edi+4]

; 33   :     iFrameCount		= F.r_u32();

	mov	ecx, esi
	call	DWORD PTR __imp_?r_u32@?$IReaderBase@VIReader@@@@QAEIXZ
	mov	DWORD PTR [edi+32], eax

; 34   : 
; 35   :     int key_cnt,key;
; 36   : 	R_ASSERT(F.find_chunk(CHUNK_ITEM_KEYS));

	cmp	BYTE PTR ?ignore_always@?7??Load@CLAItem@@QAEXAAVIReader@@@Z@4_NA, 0
	jne	SHORT $LN6@Load@6
	push	0
	push	2
	mov	ecx, esi
	call	ebx
	test	eax, eax
	jne	SHORT $LN6@Load@6
	mov	ecx, DWORD PTR __imp_?Debug@@3VxrDebug@@A
	push	OFFSET ?ignore_always@?7??Load@CLAItem@@QAEXAAVIReader@@@Z@4_NA
	push	OFFSET ??_C@_0O@IPOAHHKK@CLAItem?3?3Load?$AA@
	push	36					; 00000024H
	push	OFFSET ??_C@_0DJ@LHCNLGNK@D?3?2CLEARSKY?2sources?2engine?2xrEng@
	push	OFFSET ??_C@_0BO@GFDGFNAI@F?4find_chunk?$CICHUNK_ITEM_KEYS?$CJ?$AA@
	call	DWORD PTR __imp_?fail@xrDebug@@QAEXPBD0H0AA_N@Z
$LN6@Load@6:

; 37   : 	key_cnt			= F.r_u32();

	mov	ecx, esi
	call	DWORD PTR __imp_?r_u32@?$IReaderBase@VIReader@@@@QAEIXZ

; 38   :     for (int i=0; i<key_cnt; i++){

	test	eax, eax
	jle	SHORT $LN1@Load@6
	add	edi, 8
	mov	DWORD PTR tv169[esp+24], edi
	mov	ebx, eax
$LN3@Load@6:

; 39   :     	key			= F.r_u32	();

	mov	ecx, esi
	call	DWORD PTR __imp_?r_u32@?$IReaderBase@VIReader@@@@QAEIXZ

; 40   :         Keys[key]	= F.r_u32();

	mov	ecx, DWORD PTR tv169[esp+24]
	mov	DWORD PTR _key$[esp+24], eax
	lea	eax, DWORD PTR _key$[esp+24]
	call	??$?AH@?$map@HIU?$less@H@stlp_std@@V?$xalloc@U?$pair@HI@stlp_std@@@@@stlp_std@@QAEAAIABH@Z ; stlp_std::map<int,unsigned int,stlp_std::less<int>,xalloc<stlp_std::pair<int,unsigned int> > >::operator[]<int>
	mov	ecx, esi
	mov	edi, eax
	call	DWORD PTR __imp_?r_u32@?$IReaderBase@VIReader@@@@QAEIXZ
	sub	ebx, 1
	mov	DWORD PTR [edi], eax
	jne	SHORT $LN3@Load@6
$LN1@Load@6:

; 41   :     }
; 42   : }

	pop	edi
	pop	esi
	pop	ebx
	mov	esp, ebp
	pop	ebp
	ret	4
?Load@CLAItem@@QAEXAAVIReader@@@Z ENDP			; CLAItem::Load
_TEXT	ENDS
PUBLIC	?InitDefault@CLAItem@@QAEXXZ			; CLAItem::InitDefault
; Function compile flags: /Ogtpy
;	COMDAT ?InitDefault@CLAItem@@QAEXXZ
_TEXT	SEGMENT
$T369783 = -4						; size = 4
?InitDefault@CLAItem@@QAEXXZ PROC			; CLAItem::InitDefault, COMDAT
; _this$ = ecx

; 24   : void CLAItem::InitDefault(){

	push	ecx

; 25   : 	Keys[0]		= 0x00000000;

	add	ecx, 8
	lea	eax, DWORD PTR $T369783[esp+4]
	mov	DWORD PTR $T369783[esp+4], 0
	call	??$?AH@?$map@HIU?$less@H@stlp_std@@V?$xalloc@U?$pair@HI@stlp_std@@@@@stlp_std@@QAEAAIABH@Z ; stlp_std::map<int,unsigned int,stlp_std::less<int>,xalloc<stlp_std::pair<int,unsigned int> > >::operator[]<int>
	mov	DWORD PTR [eax], 0

; 26   : }

	pop	ecx
	ret	0
?InitDefault@CLAItem@@QAEXXZ ENDP			; CLAItem::InitDefault
; Function compile flags: /Ogtpy
; File d:\clearsky\sources\sdk\include\stlport\stl\pointers\_vector.h
;	COMDAT ?clear@?$vector@PAVCLAItem@@V?$xalloc@PAVCLAItem@@@@@stlp_std@@QAEXXZ
_TEXT	SEGMENT
?clear@?$vector@PAVCLAItem@@V?$xalloc@PAVCLAItem@@@@@stlp_std@@QAEXXZ PROC ; stlp_std::vector<CLAItem *,xalloc<CLAItem *> >::clear, COMDAT
; _this$ = edi

; 223  :   void clear() { _M_impl.clear(); }

	mov	ecx, DWORD PTR [edi+4]
	mov	eax, DWORD PTR [edi]
	cmp	eax, ecx
	je	SHORT $LN12@clear@42
	push	esi
	mov	esi, ecx
	sub	esi, ecx
	je	SHORT $LN18@clear@42
	push	esi
	push	ecx
	push	eax
	call	DWORD PTR __imp__memmove
	add	esp, 12					; 0000000cH
	add	eax, esi
$LN18@clear@42:
	mov	DWORD PTR [edi+4], eax
	pop	esi
$LN12@clear@42:
	ret	0
?clear@?$vector@PAVCLAItem@@V?$xalloc@PAVCLAItem@@@@@stlp_std@@QAEXXZ ENDP ; stlp_std::vector<CLAItem *,xalloc<CLAItem *> >::clear
; Function compile flags: /Ogtpy
; File d:\clearsky\sources\engine\xrcore\_stl_extensions.h
_TEXT	ENDS
;	COMDAT ?clear_and_free@?$xr_vector@PAVCLAItem@@V?$xalloc@PAVCLAItem@@@@@@QAEXXZ
_TEXT	SEGMENT
?clear_and_free@?$xr_vector@PAVCLAItem@@V?$xalloc@PAVCLAItem@@@@@@QAEXXZ PROC ; xr_vector<CLAItem *,xalloc<CLAItem *> >::clear_and_free, COMDAT
; _this$ = edi

; 128  : 	void	clear_and_free		()									{ inherited::clear();			}

	mov	ecx, DWORD PTR [edi+4]
	mov	eax, DWORD PTR [edi]
	cmp	eax, ecx
	je	SHORT $LN14@clear_and_@12
	push	esi
	mov	esi, ecx
	sub	esi, ecx
	je	SHORT $LN20@clear_and_@12
	push	esi
	push	ecx
	push	eax
	call	DWORD PTR __imp__memmove
	add	esp, 12					; 0000000cH
	add	eax, esi
$LN20@clear_and_@12:
	mov	DWORD PTR [edi+4], eax
	pop	esi
$LN14@clear_and_@12:
	ret	0
?clear_and_free@?$xr_vector@PAVCLAItem@@V?$xalloc@PAVCLAItem@@@@@@QAEXXZ ENDP ; xr_vector<CLAItem *,xalloc<CLAItem *> >::clear_and_free
; Function compile flags: /Ogtpy
; File d:\clearsky\sources\sdk\include\stlport\stl\pointers\_vector.h
_TEXT	ENDS
;	COMDAT ?push_back@?$vector@PAVCLAItem@@V?$xalloc@PAVCLAItem@@@@@stlp_std@@QAEXABQAVCLAItem@@@Z
_TEXT	SEGMENT
?push_back@?$vector@PAVCLAItem@@V?$xalloc@PAVCLAItem@@@@@stlp_std@@QAEXABQAVCLAItem@@@Z PROC ; stlp_std::vector<CLAItem *,xalloc<CLAItem *> >::push_back, COMDAT
; _this$ = ecx
; ___x$ = eax

; 171  :   { _M_impl.push_back(cast_traits::to_storage_type_cref(__x)); }

	push	edi
	mov	edi, ecx
	mov	ecx, DWORD PTR [edi+4]
	cmp	ecx, DWORD PTR [edi+8]
	je	SHORT $LN8@push_back@41
	push	eax
	push	ecx
	call	??$_Copy_Construct@PAX@stlp_std@@YAXPAPAXABQAX@Z ; stlp_std::_Copy_Construct<void *>
	add	esp, 8
	add	DWORD PTR [edi+4], 4
	pop	edi
	ret	0
$LN8@push_back@41:
	push	1
	push	1
	push	ecx
	call	?_M_insert_overflow@?$_Impl_vector@PAXV?$xalloc@PAX@@@priv@stlp_std@@AAEXPAPAXABQAXABU__true_type@3@I_N@Z ; stlp_std::priv::_Impl_vector<void *,xalloc<void *> >::_M_insert_overflow
	pop	edi
	ret	0
?push_back@?$vector@PAVCLAItem@@V?$xalloc@PAVCLAItem@@@@@stlp_std@@QAEXABQAVCLAItem@@@Z ENDP ; stlp_std::vector<CLAItem *,xalloc<CLAItem *> >::push_back
; Function compile flags: /Ogtpy
; File d:\clearsky\sources\engine\xrcore\_stl_extensions.h
_TEXT	ENDS
;	COMDAT ?clear@?$xr_vector@PAVCLAItem@@V?$xalloc@PAVCLAItem@@@@@@QAEXXZ
_TEXT	SEGMENT
?clear@?$xr_vector@PAVCLAItem@@V?$xalloc@PAVCLAItem@@@@@@QAEXXZ PROC ; xr_vector<CLAItem *,xalloc<CLAItem *> >::clear, COMDAT
; _this$ = edi

; 133  : 	void	clear				()									{ clear_and_free	();			}

	mov	ecx, DWORD PTR [edi+4]
	mov	eax, DWORD PTR [edi]
	cmp	eax, ecx
	je	SHORT $LN16@clear@43
	push	esi
	mov	esi, ecx
	sub	esi, ecx
	je	SHORT $LN22@clear@43
	push	esi
	push	ecx
	push	eax
	call	DWORD PTR __imp__memmove
	add	esp, 12					; 0000000cH
	add	eax, esi
$LN22@clear@43:
	mov	DWORD PTR [edi+4], eax
	pop	esi
$LN16@clear@43:
	ret	0
?clear@?$xr_vector@PAVCLAItem@@V?$xalloc@PAVCLAItem@@@@@@QAEXXZ ENDP ; xr_vector<CLAItem *,xalloc<CLAItem *> >::clear
_TEXT	ENDS
PUBLIC	?AppendItem@ELightAnimLibrary@@QAEPAVCLAItem@@PBDPAV2@@Z ; ELightAnimLibrary::AppendItem
; Function compile flags: /Ogtpy
; File d:\clearsky\sources\engine\xrengine\lightanimlibrary.cpp
;	COMDAT ?AppendItem@ELightAnimLibrary@@QAEPAVCLAItem@@PBDPAV2@@Z
_TEXT	SEGMENT
_I$ = -4						; size = 4
_name$ = 8						; size = 4
$T437271 = 12						; size = 4
_src$ = 12						; size = 4
?AppendItem@ELightAnimLibrary@@QAEPAVCLAItem@@PBDPAV2@@Z PROC ; ELightAnimLibrary::AppendItem, COMDAT
; _this$ = ecx

; 274  : {

	push	ecx
	push	ebx
	push	esi
	push	edi
	mov	edi, ecx

; 275  :     VERIFY2				(FindItem(name)==0,"Duplicate name found.");
; 276  :     CLAItem* I			= xr_new<CLAItem>();

	call	??$xr_new@VCLAItem@@@@YAPAVCLAItem@@XZ	; xr_new<CLAItem>

; 277  :     if (src)			*I = *src;

	mov	ebx, DWORD PTR _src$[esp+12]
	test	ebx, ebx
	mov	DWORD PTR _I$[esp+16], eax
	je	SHORT $LN2@AppendItem@2
	mov	ecx, DWORD PTR [ebx]
	test	ecx, ecx
	mov	esi, eax
	je	SHORT $LN12@AppendItem@2
	add	DWORD PTR [ecx], 1
$LN12@AppendItem@2:
	mov	eax, DWORD PTR [esi]
	test	eax, eax
	je	SHORT $LN15@AppendItem@2
	add	DWORD PTR [eax], -1
	mov	eax, DWORD PTR [esi]
	cmp	DWORD PTR [eax], 0
	jne	SHORT $LN15@AppendItem@2
	mov	DWORD PTR [esi], 0
$LN15@AppendItem@2:
	mov	DWORD PTR [esi], ecx
	fld	DWORD PTR [ebx+4]
	lea	ecx, DWORD PTR [ebx+8]
	fstp	DWORD PTR [esi+4]
	push	ecx
	lea	ecx, DWORD PTR [esi+8]
	call	??4?$map@HIU?$less@H@stlp_std@@V?$xalloc@U?$pair@HI@stlp_std@@@@@stlp_std@@QAEAAV01@ABV01@@Z ; stlp_std::map<int,unsigned int,stlp_std::less<int>,xalloc<stlp_std::pair<int,unsigned int> > >::operator=
	mov	edx, DWORD PTR [ebx+32]
	mov	DWORD PTR [esi+32], edx
	jmp	SHORT $LN23@AppendItem@2
$LN2@AppendItem@2:

; 278  :     else			    I->InitDefault();

	lea	ecx, DWORD PTR [eax+8]
	lea	eax, DWORD PTR $T437271[esp+12]
	mov	DWORD PTR $T437271[esp+12], 0
	call	??$?AH@?$map@HIU?$less@H@stlp_std@@V?$xalloc@U?$pair@HI@stlp_std@@@@@stlp_std@@QAEAAIABH@Z ; stlp_std::map<int,unsigned int,stlp_std::less<int>,xalloc<stlp_std::pair<int,unsigned int> > >::operator[]<int>
	mov	DWORD PTR [eax], 0
$LN23@AppendItem@2:

; 279  :     I->cName			= name;

	mov	eax, DWORD PTR _name$[esp+12]
	mov	ecx, DWORD PTR __imp_?g_pStringContainer@@3PAVstr_container@@A
	mov	ecx, DWORD PTR [ecx]
	mov	esi, DWORD PTR _I$[esp+16]
	push	eax
	call	DWORD PTR __imp_?dock@str_container@@QAEPAUstr_value@@PBD@Z
	test	eax, eax
	je	SHORT $LN27@AppendItem@2
	add	DWORD PTR [eax], 1
$LN27@AppendItem@2:
	mov	ecx, DWORD PTR [esi]
	test	ecx, ecx
	je	SHORT $LN30@AppendItem@2
	add	DWORD PTR [ecx], -1
	mov	edx, DWORD PTR [esi]
	cmp	DWORD PTR [edx], 0
	jne	SHORT $LN30@AppendItem@2
	mov	DWORD PTR [esi], 0
$LN30@AppendItem@2:
	mov	DWORD PTR [esi], eax

; 280  :     Items.push_back		(I);

	mov	eax, DWORD PTR [edi+4]
	cmp	eax, DWORD PTR [edi+8]
	je	SHORT $LN41@AppendItem@2
	lea	ecx, DWORD PTR _I$[esp+16]
	push	ecx
	push	eax
	call	??$_Copy_Construct@PAX@stlp_std@@YAXPAPAXABQAX@Z ; stlp_std::_Copy_Construct<void *>

; 281  : 	return I;

	mov	eax, DWORD PTR _I$[esp+24]
	add	esp, 8
	add	DWORD PTR [edi+4], 4
	pop	edi
	pop	esi
	pop	ebx

; 282  : }

	pop	ecx
	ret	8

; 280  :     Items.push_back		(I);

$LN41@AppendItem@2:
	push	1
	push	1
	push	eax
	lea	eax, DWORD PTR _I$[esp+28]
	call	?_M_insert_overflow@?$_Impl_vector@PAXV?$xalloc@PAX@@@priv@stlp_std@@AAEXPAPAXABQAXABU__true_type@3@I_N@Z ; stlp_std::priv::_Impl_vector<void *,xalloc<void *> >::_M_insert_overflow

; 281  : 	return I;

	mov	eax, DWORD PTR _I$[esp+16]
	pop	edi
	pop	esi
	pop	ebx

; 282  : }

	pop	ecx
	ret	8
?AppendItem@ELightAnimLibrary@@QAEPAVCLAItem@@PBDPAV2@@Z ENDP ; ELightAnimLibrary::AppendItem
_TEXT	ENDS
PUBLIC	?Load@ELightAnimLibrary@@QAEXXZ			; ELightAnimLibrary::Load
; Function compile flags: /Ogtpy
;	COMDAT ?Load@ELightAnimLibrary@@QAEXXZ
_TEXT	SEGMENT
$T437411 = -569						; size = 1
$T437410 = -569						; size = 1
_it$116551 = -568					; size = 4
_I$116545 = -564					; size = 4
tv634 = -560						; size = 4
$T437887 = -560						; size = 4
_fs$ = -556						; size = 4
_O$116540 = -552					; size = 4
___old_size$437979 = -548				; size = 4
_count$116541 = -544					; size = 4
_OBJ$116538 = -540					; size = 4
_version$116536 = -536					; size = 2
$T437340 = -532						; size = 4
$T437338 = -528						; size = 4
_fn$ = -524						; size = 520
?Load@ELightAnimLibrary@@QAEXXZ PROC			; ELightAnimLibrary::Load, COMDAT
; _this$ = ecx

; 201  : {

	sub	esp, 572				; 0000023cH
	push	ebx
	push	ebp
	push	esi
	push	edi

; 202  : 	string_path fn;
; 203  :     FS.update_path(fn,_game_data_,"lanims.xr");

	push	OFFSET ??_C@_09EKOHCBCF@lanims?4xr?$AA@
	mov	ebx, ecx
	mov	ecx, DWORD PTR __imp_?xr_FS@@3PAVCLocatorAPI@@A
	mov	ecx, DWORD PTR [ecx]
	push	OFFSET ??_C@_0M@FDPKAAFL@$game_data$?$AA@
	lea	eax, DWORD PTR _fn$[esp+596]
	push	eax
	call	DWORD PTR __imp_?update_path@CLocatorAPI@@QAEPBDAAY0CAI@DPBD1@Z

; 204  : 	IReader* fs=FS.r_open(fn);

	mov	edx, DWORD PTR __imp_?xr_FS@@3PAVCLocatorAPI@@A
	mov	ecx, DWORD PTR [edx]
	lea	eax, DWORD PTR _fn$[esp+588]
	push	eax
	push	0
	call	DWORD PTR __imp_?r_open@CLocatorAPI@@QAEPAVIReader@@PBD0@Z

; 205  :     if (fs){

	test	eax, eax
	mov	DWORD PTR _fs$[esp+588], eax
	je	$LN10@Load@7

; 206  :     	u16 version	= 0;
; 207  :     	if (fs->find_chunk(CHUNK_VERSION)){

	push	0
	push	0
	mov	ecx, eax
	mov	DWORD PTR _version$116536[esp+596], 0
	call	DWORD PTR __imp_?find_chunk@IReader@@QAEIIPAH@Z
	test	eax, eax
	je	SHORT $LN9@Load@7

; 208  :         	version	= fs->r_u16();

	mov	ecx, DWORD PTR _fs$[esp+588]
	call	DWORD PTR __imp_?r_u16@?$IReaderBase@VIReader@@@@QAEGXZ
	movzx	ecx, ax
	mov	DWORD PTR _version$116536[esp+588], ecx
$LN9@Load@7:

; 209  :         }
; 210  :         IReader* OBJ = fs->open_chunk(CHUNK_ITEM_LIST);

	mov	ecx, DWORD PTR _fs$[esp+588]
	mov	esi, DWORD PTR __imp_?open_chunk@IReader@@QAEPAV1@I@Z
	push	1
	call	esi
	mov	edi, eax

; 211  :         if (OBJ){

	test	edi, edi
	mov	DWORD PTR _OBJ$116538[esp+588], edi
	je	$LN8@Load@7

; 212  : 	        IReader* O   = OBJ->open_chunk(0);

	push	0
	mov	ecx, edi
	call	esi
	mov	ebp, eax

; 213  :     	    for (int count=1; O; count++) {

	test	ebp, ebp
	mov	DWORD PTR _O$116540[esp+588], ebp
	mov	DWORD PTR _count$116541[esp+588], 1
	je	$LN5@Load@7
	jmp	SHORT $LN7@Load@7
	npad	3
$LL204@Load@7:
	mov	ebp, DWORD PTR _O$116540[esp+588]
$LN7@Load@7:

; 214  :         	    CLAItem* I = xr_new<CLAItem>();

	mov	ecx, DWORD PTR __imp_?Memory@@3VxrMemory@@A
	push	36					; 00000024H
	call	DWORD PTR __imp_?mem_alloc@xrMemory@@QAEPAXI@Z
	mov	esi, eax
	test	esi, esi
	je	SHORT $LN17@Load@7
	lea	edx, DWORD PTR $T437410[esp+588]
	lea	edi, DWORD PTR [esi+8]
	push	edx
	mov	ecx, edi
	mov	DWORD PTR [esi], 0
	call	??0?$_Rb_tree_base@U?$pair@$$CBHI@stlp_std@@V?$xalloc@U?$pair@HI@stlp_std@@@@@priv@stlp_std@@IAE@ABV?$xalloc@U?$pair@$$CBHI@stlp_std@@@@@Z ; stlp_std::priv::_Rb_tree_base<stlp_std::pair<int const ,unsigned int>,xalloc<stlp_std::pair<int,unsigned int> > >::_Rb_tree_base<stlp_std::pair<int const ,unsigned int>,xalloc<stlp_std::pair<int,unsigned int> > >
	mov	al, BYTE PTR $T437411[esp+588]
	movss	xmm0, DWORD PTR __real@41700000
	mov	DWORD PTR [edi+16], 0
	mov	BYTE PTR [edi+20], al
	mov	edi, DWORD PTR _OBJ$116538[esp+588]
	movss	DWORD PTR [esi+4], xmm0
	mov	DWORD PTR [esi+32], 1
	mov	ecx, esi
	jmp	SHORT $LN205@Load@7
$LN17@Load@7:
	xor	ecx, ecx
$LN205@Load@7:

; 215  :                 I->Load(*O);

	push	ebp
	mov	DWORD PTR _I$116545[esp+592], ecx
	call	?Load@CLAItem@@QAEXAAVIReader@@@Z	; CLAItem::Load

; 216  :                 if (version==0){

	cmp	WORD PTR _version$116536[esp+588], 0
	jne	$LN1@Load@7

; 217  :                     for (CLAItem::KeyPairIt it=I->Keys.begin(); it!=I->Keys.end(); it++)

	lea	ecx, DWORD PTR _it$116551[esp+588]
	push	ecx
	mov	ecx, DWORD PTR _I$116545[esp+592]
	add	ecx, 8
	call	?begin@?$_Rb_tree@HU?$less@H@stlp_std@@U?$pair@$$CBHI@2@U?$_Select1st@U?$pair@$$CBHI@stlp_std@@@priv@2@U?$_MapTraitsT@U?$pair@$$CBHI@stlp_std@@@52@V?$xalloc@U?$pair@HI@stlp_std@@@@@priv@stlp_std@@QAE?AU?$_Rb_tree_iterator@U?$pair@$$CBHI@stlp_std@@U?$_MapTraitsT@U?$pair@$$CBHI@stlp_std@@@priv@2@@23@XZ ; stlp_std::priv::_Rb_tree<int,stlp_std::less<int>,stlp_std::pair<int const ,unsigned int>,stlp_std::priv::_Select1st<stlp_std::pair<int const ,unsigned int> >,stlp_std::priv::_MapTraitsT<stlp_std::pair<int const ,unsigned int> >,xalloc<stlp_std::pair<int,unsigned int> > >::begin
$LL49@Load@7:
	mov	ecx, DWORD PTR _I$116545[esp+588]
	lea	edx, DWORD PTR $T437340[esp+588]
	push	edx
	add	ecx, 8
	call	?end@?$map@HIU?$less@H@stlp_std@@V?$xalloc@U?$pair@HI@stlp_std@@@@@stlp_std@@QAE?AU?$_Rb_tree_iterator@U?$pair@$$CBHI@stlp_std@@U?$_MapTraitsT@U?$pair@$$CBHI@stlp_std@@@priv@2@@priv@2@XZ ; stlp_std::map<int,unsigned int,stlp_std::less<int>,xalloc<stlp_std::pair<int,unsigned int> > >::end
	push	ecx
	mov	ecx, esp
	push	eax
	call	??0?$_Rb_tree_iterator@U?$pair@$$CBHI@stlp_std@@U?$_ConstMapTraitsT@U?$pair@$$CBHI@stlp_std@@@priv@2@@priv@stlp_std@@QAE@ABU?$_Rb_tree_iterator@U?$pair@$$CBHI@stlp_std@@U?$_MapTraitsT@U?$pair@$$CBHI@stlp_std@@@priv@2@@12@@Z ; stlp_std::priv::_Rb_tree_iterator<stlp_std::pair<int const ,unsigned int>,stlp_std::priv::_ConstMapTraitsT<stlp_std::pair<int const ,unsigned int> > >::_Rb_tree_iterator<stlp_std::pair<int const ,unsigned int>,stlp_std::priv::_ConstMapTraitsT<stlp_std::pair<int const ,unsigned int> > >
	lea	ecx, DWORD PTR _it$116551[esp+592]
	call	??9?$_Rb_tree_iterator@U?$pair@$$CBHI@stlp_std@@U?$_MapTraitsT@U?$pair@$$CBHI@stlp_std@@@priv@2@@priv@stlp_std@@QBE_NU?$_Rb_tree_iterator@U?$pair@$$CBHI@stlp_std@@U?$_ConstMapTraitsT@U?$pair@$$CBHI@stlp_std@@@priv@2@@12@@Z ; stlp_std::priv::_Rb_tree_iterator<stlp_std::pair<int const ,unsigned int>,stlp_std::priv::_MapTraitsT<stlp_std::pair<int const ,unsigned int> > >::operator!=
	test	al, al
	je	$LN1@Load@7

; 218  :                         it->second	= subst_alpha(bgr2rgb(it->second),color_get_A(it->second));

	lea	ecx, DWORD PTR _it$116551[esp+588]
	call	??C?$_Rb_tree_iterator@U?$pair@$$CBHI@stlp_std@@U?$_MapTraitsT@U?$pair@$$CBHI@stlp_std@@@priv@2@@priv@stlp_std@@QBEPAU?$pair@$$CBHI@2@XZ ; stlp_std::priv::_Rb_tree_iterator<stlp_std::pair<int const ,unsigned int>,stlp_std::priv::_MapTraitsT<stlp_std::pair<int const ,unsigned int> > >::operator->
	mov	esi, DWORD PTR [eax+4]
	lea	ecx, DWORD PTR _it$116551[esp+588]
	call	??C?$_Rb_tree_iterator@U?$pair@$$CBHI@stlp_std@@U?$_MapTraitsT@U?$pair@$$CBHI@stlp_std@@@priv@2@@priv@stlp_std@@QBEPAU?$pair@$$CBHI@2@XZ ; stlp_std::priv::_Rb_tree_iterator<stlp_std::pair<int const ,unsigned int>,stlp_std::priv::_MapTraitsT<stlp_std::pair<int const ,unsigned int> > >::operator->
	mov	eax, DWORD PTR [eax+4]
	mov	ecx, eax
	shr	ecx, 16					; 00000010H
