; Listing generated by Microsoft (R) Optimizing Compiler Version 14.00.50727.762 

	TITLE	D:\CLEARSKY\sources\engine\xrEngine\SkeletonMotions.cpp
	.686P
	.XMM
	include listing.inc
	.model	flat

INCLUDELIB OLDNAMES

PUBLIC	?size@?$ref_smem@UCKeyQR@@@@QAEIXZ		; ref_smem<CKeyQR>::size
PUBLIC	?ref_count@?$ref_smem@UCKeyQR@@@@QAEIXZ		; ref_smem<CKeyQR>::ref_count
PUBLIC	?size@?$ref_smem@UCKeyQT8@@@@QAEIXZ		; ref_smem<CKeyQT8>::size
PUBLIC	?ref_count@?$ref_smem@UCKeyQT8@@@@QAEIXZ	; ref_smem<CKeyQT8>::ref_count
PUBLIC	?size@?$ref_smem@UCKeyQT16@@@@QAEIXZ		; ref_smem<CKeyQT16>::size
PUBLIC	?ref_count@?$ref_smem@UCKeyQT16@@@@QAEIXZ	; ref_smem<CKeyQT16>::ref_count
PUBLIC	??$?0U?$_Rb_tree_node@U?$pair@$$CBVshared_str@@PAUmotions_value@@@stlp_std@@@priv@stlp_std@@@?$xalloc@U?$pair@$$CBVshared_str@@PAUmotions_value@@@stlp_std@@@@QAE@ABV?$xalloc@U?$_Rb_tree_node@U?$pair@$$CBVshared_str@@PAUmotions_value@@@stlp_std@@@priv@stlp_std@@@@@Z ; xalloc<stlp_std::pair<shared_str const ,motions_value *> >::xalloc<stlp_std::pair<shared_str const ,motions_value *> ><stlp_std::priv::_Rb_tree_node<stlp_std::pair<shared_str const ,motions_value *> > >
PUBLIC	?get_allocator@?$_Rb_tree_base@U?$pair@$$CBVshared_str@@PAUmotions_value@@@stlp_std@@V?$xalloc@U?$pair@Vshared_str@@PAUmotions_value@@@stlp_std@@@@@priv@stlp_std@@QBE?AV?$xalloc@U?$pair@$$CBVshared_str@@PAUmotions_value@@@stlp_std@@@@XZ ; stlp_std::priv::_Rb_tree_base<stlp_std::pair<shared_str const ,motions_value *>,xalloc<stlp_std::pair<shared_str,motions_value *> > >::get_allocator
PUBLIC	??0?$_Rb_tree@Vshared_str@@U?$less@Vshared_str@@@stlp_std@@U?$pair@$$CBVshared_str@@PAUmotions_value@@@3@U?$_Select1st@U?$pair@$$CBVshared_str@@PAUmotions_value@@@stlp_std@@@priv@3@U?$_MapTraitsT@U?$pair@$$CBVshared_str@@PAUmotions_value@@@stlp_std@@@63@V?$xalloc@U?$pair@Vshared_str@@PAUmotions_value@@@stlp_std@@@@@priv@stlp_std@@QAE@ABV012@@Z ; stlp_std::priv::_Rb_tree<shared_str,stlp_std::less<shared_str>,stlp_std::pair<shared_str const ,motions_value *>,stlp_std::priv::_Select1st<stlp_std::pair<shared_str const ,motions_value *> >,stlp_std::priv::_MapTraitsT<stlp_std::pair<shared_str const ,motions_value *> >,xalloc<stlp_std::pair<shared_str,motions_value *> > >::_Rb_tree<shared_str,stlp_std::less<shared_str>,stlp_std::pair<shared_str const ,motions_value *>,stlp_std::priv::_Select1st<stlp_std::pair<shared_str const ,motions_value *> >,stlp_std::priv::_MapTraitsT<stlp_std::pair<shared_str const ,motions_value *> >,xalloc<stlp_std::pair<shared_str,motions_value *> > >
PUBLIC	??0?$map@Vshared_str@@PAUmotions_value@@U?$less@Vshared_str@@@stlp_std@@V?$xalloc@U?$pair@Vshared_str@@PAUmotions_value@@@stlp_std@@@@@stlp_std@@QAE@ABV01@@Z ; stlp_std::map<shared_str,motions_value *,stlp_std::less<shared_str>,xalloc<stlp_std::pair<shared_str,motions_value *> > >::map<shared_str,motions_value *,stlp_std::less<shared_str>,xalloc<stlp_std::pair<shared_str,motions_value *> > >
PUBLIC	??0?$xr_map@Vshared_str@@PAUmotions_value@@U?$less@Vshared_str@@@stlp_std@@V?$xalloc@U?$pair@Vshared_str@@PAUmotions_value@@@stlp_std@@@@@@QAE@ABV0@@Z ; xr_map<shared_str,motions_value *,stlp_std::less<shared_str>,xalloc<stlp_std::pair<shared_str,motions_value *> > >::xr_map<shared_str,motions_value *,stlp_std::less<shared_str>,xalloc<stlp_std::pair<shared_str,motions_value *> > >
PUBLIC	??0?$ref_smem@UCKeyQR@@@@QAE@XZ			; ref_smem<CKeyQR>::ref_smem<CKeyQR>
PUBLIC	??0?$ref_smem@UCKeyQT8@@@@QAE@XZ		; ref_smem<CKeyQT8>::ref_smem<CKeyQT8>
PUBLIC	??0?$ref_smem@UCKeyQT16@@@@QAE@XZ		; ref_smem<CKeyQT16>::ref_smem<CKeyQT16>
PUBLIC	??0?$_Vector_base@IV?$xalloc@I@@@priv@stlp_std@@QAE@IABV?$xalloc@I@@@Z ; stlp_std::priv::_Vector_base<unsigned int,xalloc<unsigned int> >::_Vector_base<unsigned int,xalloc<unsigned int> >
PUBLIC	?get_allocator@?$_Impl_vector@IV?$xalloc@I@@@priv@stlp_std@@QBE?AV?$xalloc@I@@XZ ; stlp_std::priv::_Impl_vector<unsigned int,xalloc<unsigned int> >::get_allocator
PUBLIC	?begin@?$_Impl_vector@IV?$xalloc@I@@@priv@stlp_std@@QBEPBIXZ ; stlp_std::priv::_Impl_vector<unsigned int,xalloc<unsigned int> >::begin
PUBLIC	?end@?$_Impl_vector@IV?$xalloc@I@@@priv@stlp_std@@QBEPBIXZ ; stlp_std::priv::_Impl_vector<unsigned int,xalloc<unsigned int> >::end
PUBLIC	??0?$_Impl_vector@IV?$xalloc@I@@@priv@stlp_std@@QAE@ABV012@@Z ; stlp_std::priv::_Impl_vector<unsigned int,xalloc<unsigned int> >::_Impl_vector<unsigned int,xalloc<unsigned int> >
PUBLIC	??0?$vector@IV?$xalloc@I@@@stlp_std@@QAE@ABV01@@Z ; stlp_std::vector<unsigned int,xalloc<unsigned int> >::vector<unsigned int,xalloc<unsigned int> >
PUBLIC	??0?$xr_vector@IV?$xalloc@I@@@@QAE@ABV0@@Z	; xr_vector<unsigned int,xalloc<unsigned int> >::xr_vector<unsigned int,xalloc<unsigned int> >
PUBLIC	?_S_minimum@?$_Rb_tree@Vshared_str@@U?$less@Vshared_str@@@stlp_std@@U?$pair@$$CBVshared_str@@PAUmotions_value@@@3@U?$_Select1st@U?$pair@$$CBVshared_str@@PAUmotions_value@@@stlp_std@@@priv@3@U?$_MapTraitsT@U?$pair@$$CBVshared_str@@PAUmotions_value@@@stlp_std@@@63@V?$xalloc@U?$pair@Vshared_str@@PAUmotions_value@@@stlp_std@@@@@priv@stlp_std@@KAPAU_Rb_tree_node_base@23@PAU423@@Z ; stlp_std::priv::_Rb_tree<shared_str,stlp_std::less<shared_str>,stlp_std::pair<shared_str const ,motions_value *>,stlp_std::priv::_Select1st<stlp_std::pair<shared_str const ,motions_value *> >,stlp_std::priv::_MapTraitsT<stlp_std::pair<shared_str const ,motions_value *> >,xalloc<stlp_std::pair<shared_str,motions_value *> > >::_S_minimum
PUBLIC	?_S_maximum@?$_Rb_tree@Vshared_str@@U?$less@Vshared_str@@@stlp_std@@U?$pair@$$CBVshared_str@@PAUmotions_value@@@3@U?$_Select1st@U?$pair@$$CBVshared_str@@PAUmotions_value@@@stlp_std@@@priv@3@U?$_MapTraitsT@U?$pair@$$CBVshared_str@@PAUmotions_value@@@stlp_std@@@63@V?$xalloc@U?$pair@Vshared_str@@PAUmotions_value@@@stlp_std@@@@@priv@stlp_std@@KAPAU_Rb_tree_node_base@23@PAU423@@Z ; stlp_std::priv::_Rb_tree<shared_str,stlp_std::less<shared_str>,stlp_std::pair<shared_str const ,motions_value *>,stlp_std::priv::_Select1st<stlp_std::pair<shared_str const ,motions_value *> >,stlp_std::priv::_MapTraitsT<stlp_std::pair<shared_str const ,motions_value *> >,xalloc<stlp_std::pair<shared_str,motions_value *> > >::_S_maximum
PUBLIC	?_S_color@?$_Rb_tree@Vshared_str@@U?$less@Vshared_str@@@stlp_std@@U?$pair@$$CBVshared_str@@PAUmotions_value@@@3@U?$_Select1st@U?$pair@$$CBVshared_str@@PAUmotions_value@@@stlp_std@@@priv@3@U?$_MapTraitsT@U?$pair@$$CBVshared_str@@PAUmotions_value@@@stlp_std@@@63@V?$xalloc@U?$pair@Vshared_str@@PAUmotions_value@@@stlp_std@@@@@priv@stlp_std@@KAAA_NPAU_Rb_tree_node_base@23@@Z ; stlp_std::priv::_Rb_tree<shared_str,stlp_std::less<shared_str>,stlp_std::pair<shared_str const ,motions_value *>,stlp_std::priv::_Select1st<stlp_std::pair<shared_str const ,motions_value *> >,stlp_std::priv::_MapTraitsT<stlp_std::pair<shared_str const ,motions_value *> >,xalloc<stlp_std::pair<shared_str,motions_value *> > >::_S_color
PUBLIC	?_M_clone_node@?$_Rb_tree@Vshared_str@@U?$less@Vshared_str@@@stlp_std@@U?$pair@$$CBVshared_str@@PAUmotions_value@@@3@U?$_Select1st@U?$pair@$$CBVshared_str@@PAUmotions_value@@@stlp_std@@@priv@3@U?$_MapTraitsT@U?$pair@$$CBVshared_str@@PAUmotions_value@@@stlp_std@@@63@V?$xalloc@U?$pair@Vshared_str@@PAUmotions_value@@@stlp_std@@@@@priv@stlp_std@@IAEPAU_Rb_tree_node_base@23@PAU423@@Z ; stlp_std::priv::_Rb_tree<shared_str,stlp_std::less<shared_str>,stlp_std::pair<shared_str const ,motions_value *>,stlp_std::priv::_Select1st<stlp_std::pair<shared_str const ,motions_value *> >,stlp_std::priv::_MapTraitsT<stlp_std::pair<shared_str const ,motions_value *> >,xalloc<stlp_std::pair<shared_str,motions_value *> > >::_M_clone_node
PUBLIC	?_M_copy@?$_Rb_tree@Vshared_str@@U?$less@Vshared_str@@@stlp_std@@U?$pair@$$CBVshared_str@@PAUmotions_value@@@3@U?$_Select1st@U?$pair@$$CBVshared_str@@PAUmotions_value@@@stlp_std@@@priv@3@U?$_MapTraitsT@U?$pair@$$CBVshared_str@@PAUmotions_value@@@stlp_std@@@63@V?$xalloc@U?$pair@Vshared_str@@PAUmotions_value@@@stlp_std@@@@@priv@stlp_std@@AAEPAU_Rb_tree_node_base@23@PAU423@0@Z ; stlp_std::priv::_Rb_tree<shared_str,stlp_std::less<shared_str>,stlp_std::pair<shared_str const ,motions_value *>,stlp_std::priv::_Select1st<stlp_std::pair<shared_str const ,motions_value *> >,stlp_std::priv::_MapTraitsT<stlp_std::pair<shared_str const ,motions_value *> >,xalloc<stlp_std::pair<shared_str,motions_value *> > >::_M_copy
PUBLIC	??4?$_Rb_tree@Vshared_str@@U?$less@Vshared_str@@@stlp_std@@U?$pair@$$CBVshared_str@@PAUmotions_value@@@3@U?$_Select1st@U?$pair@$$CBVshared_str@@PAUmotions_value@@@stlp_std@@@priv@3@U?$_MapTraitsT@U?$pair@$$CBVshared_str@@PAUmotions_value@@@stlp_std@@@63@V?$xalloc@U?$pair@Vshared_str@@PAUmotions_value@@@stlp_std@@@@@priv@stlp_std@@QAEAAV012@ABV012@@Z ; stlp_std::priv::_Rb_tree<shared_str,stlp_std::less<shared_str>,stlp_std::pair<shared_str const ,motions_value *>,stlp_std::priv::_Select1st<stlp_std::pair<shared_str const ,motions_value *> >,stlp_std::priv::_MapTraitsT<stlp_std::pair<shared_str const ,motions_value *> >,xalloc<stlp_std::pair<shared_str,motions_value *> > >::operator=
PUBLIC	??4?$map@Vshared_str@@PAUmotions_value@@U?$less@Vshared_str@@@stlp_std@@V?$xalloc@U?$pair@Vshared_str@@PAUmotions_value@@@stlp_std@@@@@stlp_std@@QAEAAV01@ABV01@@Z ; stlp_std::map<shared_str,motions_value *,stlp_std::less<shared_str>,xalloc<stlp_std::pair<shared_str,motions_value *> > >::operator=
PUBLIC	??4?$xr_map@Vshared_str@@PAUmotions_value@@U?$less@Vshared_str@@@stlp_std@@V?$xalloc@U?$pair@Vshared_str@@PAUmotions_value@@@stlp_std@@@@@@QAEAAV0@ABV0@@Z ; xr_map<shared_str,motions_value *,stlp_std::less<shared_str>,xalloc<stlp_std::pair<shared_str,motions_value *> > >::operator=
PUBLIC	?capacity@?$_Impl_vector@IV?$xalloc@I@@@priv@stlp_std@@QBEIXZ ; stlp_std::priv::_Impl_vector<unsigned int,xalloc<unsigned int> >::capacity
PUBLIC	?_Answer@?$_BothPtrType@PBIPAI@stlp_std@@SA?AU__true_type@2@XZ ; stlp_std::_BothPtrType<unsigned int const *,unsigned int *>::_Answer
PUBLIC	??$__ucopy_ptrs@PBIPAI@priv@stlp_std@@YAPAIPBI0PAIABU__true_type@1@@Z ; stlp_std::priv::__ucopy_ptrs<unsigned int const *,unsigned int *>
PUBLIC	??$_UseTrivialUCopy@II@stlp_std@@YA?AU?$_TrivialUCopy@II@0@PAI0@Z ; stlp_std::_UseTrivialUCopy<unsigned int,unsigned int>
PUBLIC	?_Answer@?$_TrivialUCopy@II@stlp_std@@SA?AU__true_type@2@XZ ; stlp_std::_TrivialUCopy<unsigned int,unsigned int>::_Answer
PUBLIC	??$__ucopy_aux@PBIPAI@priv@stlp_std@@YAPAIPBI0PAIABU__true_type@1@@Z ; stlp_std::priv::__ucopy_aux<unsigned int const *,unsigned int *>
PUBLIC	??$uninitialized_copy@PBIPAI@stlp_std@@YAPAIPBI0PAI@Z ; stlp_std::uninitialized_copy<unsigned int const *,unsigned int *>
PUBLIC	??$_M_allocate_and_copy@PBI@?$_Impl_vector@IV?$xalloc@I@@@priv@stlp_std@@AAEPAIAAIPBI1@Z ; stlp_std::priv::_Impl_vector<unsigned int,xalloc<unsigned int> >::_M_allocate_and_copy<unsigned int const *>
PUBLIC	??$__copy_ptrs@PBIPAI@priv@stlp_std@@YAPAIPBI0PAIABU__true_type@1@@Z ; stlp_std::priv::__copy_ptrs<unsigned int const *,unsigned int *>
PUBLIC	??4?$_Impl_vector@IV?$xalloc@I@@@priv@stlp_std@@QAEAAV012@ABV012@@Z ; stlp_std::priv::_Impl_vector<unsigned int,xalloc<unsigned int> >::operator=
PUBLIC	??4?$vector@IV?$xalloc@I@@@stlp_std@@QAEAAV01@ABV01@@Z ; stlp_std::vector<unsigned int,xalloc<unsigned int> >::operator=
PUBLIC	??4?$xr_vector@IV?$xalloc@I@@@@QAEAAV0@ABV0@@Z	; xr_vector<unsigned int,xalloc<unsigned int> >::operator=
PUBLIC	??0?$_Impl_vector@GV?$xalloc@G@@@priv@stlp_std@@QAE@IABGABV?$xalloc@G@@@Z ; stlp_std::priv::_Impl_vector<unsigned short,xalloc<unsigned short> >::_Impl_vector<unsigned short,xalloc<unsigned short> >
PUBLIC	??0?$vector@GV?$xalloc@G@@@stlp_std@@QAE@IABGABV?$xalloc@G@@@Z ; stlp_std::vector<unsigned short,xalloc<unsigned short> >::vector<unsigned short,xalloc<unsigned short> >
PUBLIC	??0?$xr_vector@GV?$xalloc@G@@@@QAE@IABG@Z	; xr_vector<unsigned short,xalloc<unsigned short> >::xr_vector<unsigned short,xalloc<unsigned short> >
PUBLIC	?to_value_type_ptr@?$_CastTraits@GG@priv@stlp_std@@SAPAGPAG@Z ; stlp_std::priv::_CastTraits<unsigned short,unsigned short>::to_value_type_ptr
PUBLIC	?begin@?$vector@GV?$xalloc@G@@@stlp_std@@QAEPAGXZ ; stlp_std::vector<unsigned short,xalloc<unsigned short> >::begin
PUBLIC	??A?$xr_vector@GV?$xalloc@G@@@@QAEAAGI@Z	; xr_vector<unsigned short,xalloc<unsigned short> >::operator[]
PUBLIC	?_M_is_inside@?$_Impl_vector@IV?$xalloc@I@@@priv@stlp_std@@ABE_NABI@Z ; stlp_std::priv::_Impl_vector<unsigned int,xalloc<unsigned int> >::_M_is_inside
PUBLIC	??$__ucopy_ptrs@PAIPAI@priv@stlp_std@@YAPAIPAI00ABU__true_type@1@@Z ; stlp_std::priv::__ucopy_ptrs<unsigned int *,unsigned int *>
PUBLIC	??$__copy_backward_ptrs@PAIPAI@priv@stlp_std@@YAPAIPAI00ABU__true_type@1@@Z ; stlp_std::priv::__copy_backward_ptrs<unsigned int *,unsigned int *>
PUBLIC	??$fill@PAII@stlp_std@@YAXPAI0ABI@Z		; stlp_std::fill<unsigned int *,unsigned int>
PUBLIC	??$_Param_Construct@II@stlp_std@@YAXPAIABI@Z	; stlp_std::_Param_Construct<unsigned int,unsigned int>
PUBLIC	??$__ufill@PAIIH@priv@stlp_std@@YAXPAI0ABIABUrandom_access_iterator_tag@1@PAH@Z ; stlp_std::priv::__ufill<unsigned int *,unsigned int,int>
PUBLIC	??$__uninitialized_fill_n@PAIII@priv@stlp_std@@YAPAIPAIIABI@Z ; stlp_std::priv::__uninitialized_fill_n<unsigned int *,unsigned int,unsigned int>
PUBLIC	?_M_fill_insert_aux@?$_Impl_vector@IV?$xalloc@I@@@priv@stlp_std@@AAEXPAIIABIABU__false_type@3@@Z ; stlp_std::priv::_Impl_vector<unsigned int,xalloc<unsigned int> >::_M_fill_insert_aux
PUBLIC	?_M_fill_insert@?$_Impl_vector@IV?$xalloc@I@@@priv@stlp_std@@AAEXPAIIABI@Z ; stlp_std::priv::_Impl_vector<unsigned int,xalloc<unsigned int> >::_M_fill_insert
PUBLIC	?insert@?$_Impl_vector@IV?$xalloc@I@@@priv@stlp_std@@QAEXPAIIABI@Z ; stlp_std::priv::_Impl_vector<unsigned int,xalloc<unsigned int> >::insert
PUBLIC	?resize@?$_Impl_vector@IV?$xalloc@I@@@priv@stlp_std@@QAEXIABI@Z ; stlp_std::priv::_Impl_vector<unsigned int,xalloc<unsigned int> >::resize
PUBLIC	?resize@?$vector@IV?$xalloc@I@@@stlp_std@@QAEXIABI@Z ; stlp_std::vector<unsigned int,xalloc<unsigned int> >::resize
PUBLIC	?size@?$vector@IV?$xalloc@I@@@stlp_std@@QBEIXZ	; stlp_std::vector<unsigned int,xalloc<unsigned int> >::size
PUBLIC	?size@?$xr_vector@IV?$xalloc@I@@@@QBEIXZ	; xr_vector<unsigned int,xalloc<unsigned int> >::size
PUBLIC	?to_value_type_ref@?$_CastTraits@PAXPAVCBoneData@@@priv@stlp_std@@SAAAPAVCBoneData@@AAPAX@Z ; stlp_std::priv::_CastTraits<void *,CBoneData *>::to_value_type_ref
PUBLIC	?at@?$vector@PAVCBoneData@@V?$xalloc@PAVCBoneData@@@@@stlp_std@@QAEAAPAVCBoneData@@I@Z ; stlp_std::vector<CBoneData *,xalloc<CBoneData *> >::at
PUBLIC	?create@?$ref_smem@UCKeyQR@@@@QAEXIIPAUCKeyQR@@@Z ; ref_smem<CKeyQR>::create
PUBLIC	?create@?$ref_smem@UCKeyQT8@@@@QAEXIIPAUCKeyQT8@@@Z ; ref_smem<CKeyQT8>::create
PUBLIC	?create@?$ref_smem@UCKeyQT16@@@@QAEXIIPAUCKeyQT16@@@Z ; ref_smem<CKeyQT16>::create
PUBLIC	??$__destroy_mv_srcs@V?$reverse_iterator@PAVCMotionDef@@@stlp_std@@VCMotionDef@@@stlp_std@@YAXV?$reverse_iterator@PAVCMotionDef@@@0@0PAVCMotionDef@@@Z ; stlp_std::__destroy_mv_srcs<stlp_std::reverse_iterator<CMotionDef *>,CMotionDef>
PUBLIC	??$_Destroy_Moved_Range@V?$reverse_iterator@PAVCMotionDef@@@stlp_std@@@stlp_std@@YAXV?$reverse_iterator@PAVCMotionDef@@@0@0@Z ; stlp_std::_Destroy_Moved_Range<stlp_std::reverse_iterator<CMotionDef *> >
PUBLIC	?_M_clear_after_move@?$_Impl_vector@VCMotionDef@@V?$xalloc@VCMotionDef@@@@@priv@stlp_std@@AAEXXZ ; stlp_std::priv::_Impl_vector<CMotionDef,xalloc<CMotionDef> >::_M_clear_after_move
PUBLIC	?_M_set@?$_Impl_vector@VCMotionDef@@V?$xalloc@VCMotionDef@@@@@priv@stlp_std@@AAEXPAVCMotionDef@@00@Z ; stlp_std::priv::_Impl_vector<CMotionDef,xalloc<CMotionDef> >::_M_set
PUBLIC	??$__uninitialized_move@PAVCMotionDef@@PAV1@U__false_type@stlp_std@@@priv@stlp_std@@YAPAVCMotionDef@@PAV2@00U__false_type@1@ABU31@@Z ; stlp_std::priv::__uninitialized_move<CMotionDef *,CMotionDef *,stlp_std::__false_type>
PUBLIC	??$_Copy_Construct@VCMotionDef@@@stlp_std@@YAXPAVCMotionDef@@ABV1@@Z ; stlp_std::_Copy_Construct<CMotionDef>
PUBLIC	?_M_insert_overflow_aux@?$_Impl_vector@VCMotionDef@@V?$xalloc@VCMotionDef@@@@@priv@stlp_std@@AAEXPAVCMotionDef@@ABV4@ABU__false_type@3@I_N@Z ; stlp_std::priv::_Impl_vector<CMotionDef,xalloc<CMotionDef> >::_M_insert_overflow_aux
PUBLIC	?_M_insert_overflow@?$_Impl_vector@VCMotionDef@@V?$xalloc@VCMotionDef@@@@@priv@stlp_std@@AAEXPAVCMotionDef@@ABV4@ABU__false_type@3@I_N@Z ; stlp_std::priv::_Impl_vector<CMotionDef,xalloc<CMotionDef> >::_M_insert_overflow
PUBLIC	?_M_is_inside@?$_Impl_vector@VCMotionDef@@V?$xalloc@VCMotionDef@@@@@priv@stlp_std@@ABE_NABVCMotionDef@@@Z ; stlp_std::priv::_Impl_vector<CMotionDef,xalloc<CMotionDef> >::_M_is_inside
PUBLIC	??$__ufill@PAVCMotionDef@@V1@H@priv@stlp_std@@YAXPAVCMotionDef@@0ABV2@ABUrandom_access_iterator_tag@1@PAH@Z ; stlp_std::priv::__ufill<CMotionDef *,CMotionDef,int>
PUBLIC	??$__uninitialized_fill_n@PAVCMotionDef@@IV1@@priv@stlp_std@@YAPAVCMotionDef@@PAV2@IABV2@@Z ; stlp_std::priv::__uninitialized_fill_n<CMotionDef *,unsigned int,CMotionDef>
PUBLIC	??$__ucopy@PAVCMotionDef@@PAV1@H@priv@stlp_std@@YAPAVCMotionDef@@PAV2@00ABUrandom_access_iterator_tag@1@PAH@Z ; stlp_std::priv::__ucopy<CMotionDef *,CMotionDef *,int>
PUBLIC	??$__ucopy_ptrs@PAVCMotionDef@@PAV1@@priv@stlp_std@@YAPAVCMotionDef@@PAV2@00ABU__false_type@1@@Z ; stlp_std::priv::__ucopy_ptrs<CMotionDef *,CMotionDef *>
PUBLIC	??$__copy_backward@PAVCMotionDef@@PAV1@H@priv@stlp_std@@YAPAVCMotionDef@@PAV2@00ABUrandom_access_iterator_tag@1@PAH@Z ; stlp_std::priv::__copy_backward<CMotionDef *,CMotionDef *,int>
PUBLIC	??$__copy_backward_ptrs@PAVCMotionDef@@PAV1@@priv@stlp_std@@YAPAVCMotionDef@@PAV2@00ABU__false_type@1@@Z ; stlp_std::priv::__copy_backward_ptrs<CMotionDef *,CMotionDef *>
PUBLIC	??$fill@PAVCMotionDef@@V1@@stlp_std@@YAXPAVCMotionDef@@0ABV1@@Z ; stlp_std::fill<CMotionDef *,CMotionDef>
PUBLIC	?_M_fill_insert_aux@?$_Impl_vector@VCMotionDef@@V?$xalloc@VCMotionDef@@@@@priv@stlp_std@@AAEXPAVCMotionDef@@IABV4@ABU__false_type@3@@Z ; stlp_std::priv::_Impl_vector<CMotionDef,xalloc<CMotionDef> >::_M_fill_insert_aux
PUBLIC	?_M_fill_insert@?$_Impl_vector@VCMotionDef@@V?$xalloc@VCMotionDef@@@@@priv@stlp_std@@AAEXPAVCMotionDef@@IABV4@@Z ; stlp_std::priv::_Impl_vector<CMotionDef,xalloc<CMotionDef> >::_M_fill_insert
PUBLIC	?insert@?$_Impl_vector@VCMotionDef@@V?$xalloc@VCMotionDef@@@@@priv@stlp_std@@QAEXPAVCMotionDef@@IABV4@@Z ; stlp_std::priv::_Impl_vector<CMotionDef,xalloc<CMotionDef> >::insert
PUBLIC	??$__copy@PAVCMotionDef@@PAV1@H@priv@stlp_std@@YAPAVCMotionDef@@PAV2@00ABUrandom_access_iterator_tag@1@PAH@Z ; stlp_std::priv::__copy<CMotionDef *,CMotionDef *,int>
PUBLIC	??$__copy_ptrs@PAVCMotionDef@@PAV1@@priv@stlp_std@@YAPAVCMotionDef@@PAV2@00ABU__false_type@1@@Z ; stlp_std::priv::__copy_ptrs<CMotionDef *,CMotionDef *>
PUBLIC	?_M_erase@?$_Impl_vector@VCMotionDef@@V?$xalloc@VCMotionDef@@@@@priv@stlp_std@@AAEPAVCMotionDef@@PAV4@0ABU__false_type@3@@Z ; stlp_std::priv::_Impl_vector<CMotionDef,xalloc<CMotionDef> >::_M_erase
PUBLIC	?erase@?$_Impl_vector@VCMotionDef@@V?$xalloc@VCMotionDef@@@@@priv@stlp_std@@QAEPAVCMotionDef@@PAV4@0@Z ; stlp_std::priv::_Impl_vector<CMotionDef,xalloc<CMotionDef> >::erase
PUBLIC	?resize@?$_Impl_vector@VCMotionDef@@V?$xalloc@VCMotionDef@@@@@priv@stlp_std@@QAEXIABVCMotionDef@@@Z ; stlp_std::priv::_Impl_vector<CMotionDef,xalloc<CMotionDef> >::resize
PUBLIC	?to_storage_type_cref@?$_CastTraits@VCMotionDef@@V1@@priv@stlp_std@@SAABVCMotionDef@@ABV4@@Z ; stlp_std::priv::_CastTraits<CMotionDef,CMotionDef>::to_storage_type_cref
PUBLIC	?resize@?$vector@VCMotionDef@@V?$xalloc@VCMotionDef@@@@@stlp_std@@QAEXIABVCMotionDef@@@Z ; stlp_std::vector<CMotionDef,xalloc<CMotionDef> >::resize
PUBLIC	??$__destroy_mv_srcs@V?$reverse_iterator@PAVCMotion@@@stlp_std@@VCMotion@@@stlp_std@@YAXV?$reverse_iterator@PAVCMotion@@@0@0PAVCMotion@@@Z ; stlp_std::__destroy_mv_srcs<stlp_std::reverse_iterator<CMotion *>,CMotion>
PUBLIC	??$_Destroy_Moved_Range@V?$reverse_iterator@PAVCMotion@@@stlp_std@@@stlp_std@@YAXV?$reverse_iterator@PAVCMotion@@@0@0@Z ; stlp_std::_Destroy_Moved_Range<stlp_std::reverse_iterator<CMotion *> >
PUBLIC	?_M_clear_after_move@?$_Impl_vector@VCMotion@@V?$xalloc@VCMotion@@@@@priv@stlp_std@@AAEXXZ ; stlp_std::priv::_Impl_vector<CMotion,xalloc<CMotion> >::_M_clear_after_move
PUBLIC	?_M_set@?$_Impl_vector@VCMotion@@V?$xalloc@VCMotion@@@@@priv@stlp_std@@AAEXPAVCMotion@@00@Z ; stlp_std::priv::_Impl_vector<CMotion,xalloc<CMotion> >::_M_set
PUBLIC	??$__uninitialized_move@PAVCMotion@@PAV1@U__false_type@stlp_std@@@priv@stlp_std@@YAPAVCMotion@@PAV2@00U__false_type@1@ABU31@@Z ; stlp_std::priv::__uninitialized_move<CMotion *,CMotion *,stlp_std::__false_type>
PUBLIC	??$_Copy_Construct@VCMotion@@@stlp_std@@YAXPAVCMotion@@ABV1@@Z ; stlp_std::_Copy_Construct<CMotion>
PUBLIC	?_M_insert_overflow_aux@?$_Impl_vector@VCMotion@@V?$xalloc@VCMotion@@@@@priv@stlp_std@@AAEXPAVCMotion@@ABV4@ABU__false_type@3@I_N@Z ; stlp_std::priv::_Impl_vector<CMotion,xalloc<CMotion> >::_M_insert_overflow_aux
PUBLIC	?_M_insert_overflow@?$_Impl_vector@VCMotion@@V?$xalloc@VCMotion@@@@@priv@stlp_std@@AAEXPAVCMotion@@ABV4@ABU__false_type@3@I_N@Z ; stlp_std::priv::_Impl_vector<CMotion,xalloc<CMotion> >::_M_insert_overflow
PUBLIC	?_M_is_inside@?$_Impl_vector@VCMotion@@V?$xalloc@VCMotion@@@@@priv@stlp_std@@ABE_NABVCMotion@@@Z ; stlp_std::priv::_Impl_vector<CMotion,xalloc<CMotion> >::_M_is_inside
PUBLIC	??$__ufill@PAVCMotion@@V1@H@priv@stlp_std@@YAXPAVCMotion@@0ABV2@ABUrandom_access_iterator_tag@1@PAH@Z ; stlp_std::priv::__ufill<CMotion *,CMotion,int>
PUBLIC	??$__uninitialized_fill_n@PAVCMotion@@IV1@@priv@stlp_std@@YAPAVCMotion@@PAV2@IABV2@@Z ; stlp_std::priv::__uninitialized_fill_n<CMotion *,unsigned int,CMotion>
PUBLIC	??$__ucopy@PAVCMotion@@PAV1@H@priv@stlp_std@@YAPAVCMotion@@PAV2@00ABUrandom_access_iterator_tag@1@PAH@Z ; stlp_std::priv::__ucopy<CMotion *,CMotion *,int>
PUBLIC	??$__ucopy_ptrs@PAVCMotion@@PAV1@@priv@stlp_std@@YAPAVCMotion@@PAV2@00ABU__false_type@1@@Z ; stlp_std::priv::__ucopy_ptrs<CMotion *,CMotion *>
PUBLIC	??$__copy_backward@PAVCMotion@@PAV1@H@priv@stlp_std@@YAPAVCMotion@@PAV2@00ABUrandom_access_iterator_tag@1@PAH@Z ; stlp_std::priv::__copy_backward<CMotion *,CMotion *,int>
PUBLIC	??$__copy_backward_ptrs@PAVCMotion@@PAV1@@priv@stlp_std@@YAPAVCMotion@@PAV2@00ABU__false_type@1@@Z ; stlp_std::priv::__copy_backward_ptrs<CMotion *,CMotion *>
PUBLIC	??$fill@PAVCMotion@@V1@@stlp_std@@YAXPAVCMotion@@0ABV1@@Z ; stlp_std::fill<CMotion *,CMotion>
PUBLIC	?_M_fill_insert_aux@?$_Impl_vector@VCMotion@@V?$xalloc@VCMotion@@@@@priv@stlp_std@@AAEXPAVCMotion@@IABV4@ABU__false_type@3@@Z ; stlp_std::priv::_Impl_vector<CMotion,xalloc<CMotion> >::_M_fill_insert_aux
PUBLIC	?_M_fill_insert@?$_Impl_vector@VCMotion@@V?$xalloc@VCMotion@@@@@priv@stlp_std@@AAEXPAVCMotion@@IABV4@@Z ; stlp_std::priv::_Impl_vector<CMotion,xalloc<CMotion> >::_M_fill_insert
PUBLIC	?insert@?$_Impl_vector@VCMotion@@V?$xalloc@VCMotion@@@@@priv@stlp_std@@QAEXPAVCMotion@@IABV4@@Z ; stlp_std::priv::_Impl_vector<CMotion,xalloc<CMotion> >::insert
PUBLIC	??$__copy@PAVCMotion@@PAV1@H@priv@stlp_std@@YAPAVCMotion@@PAV2@00ABUrandom_access_iterator_tag@1@PAH@Z ; stlp_std::priv::__copy<CMotion *,CMotion *,int>
PUBLIC	??$__copy_ptrs@PAVCMotion@@PAV1@@priv@stlp_std@@YAPAVCMotion@@PAV2@00ABU__false_type@1@@Z ; stlp_std::priv::__copy_ptrs<CMotion *,CMotion *>
PUBLIC	??$__destroy_range_aux@PAVCMotion@@V1@@stlp_std@@YAXPAVCMotion@@00ABU__false_type@0@@Z ; stlp_std::__destroy_range_aux<CMotion *,CMotion>
PUBLIC	??$__destroy_range@PAVCMotion@@V1@@stlp_std@@YAXPAVCMotion@@00@Z ; stlp_std::__destroy_range<CMotion *,CMotion>
PUBLIC	??$_Destroy_Range@PAVCMotion@@@stlp_std@@YAXPAVCMotion@@0@Z ; stlp_std::_Destroy_Range<CMotion *>
PUBLIC	?_M_erase@?$_Impl_vector@VCMotion@@V?$xalloc@VCMotion@@@@@priv@stlp_std@@AAEPAVCMotion@@PAV4@0ABU__false_type@3@@Z ; stlp_std::priv::_Impl_vector<CMotion,xalloc<CMotion> >::_M_erase
PUBLIC	?erase@?$_Impl_vector@VCMotion@@V?$xalloc@VCMotion@@@@@priv@stlp_std@@QAEPAVCMotion@@PAV4@0@Z ; stlp_std::priv::_Impl_vector<CMotion,xalloc<CMotion> >::erase
PUBLIC	?resize@?$_Impl_vector@VCMotion@@V?$xalloc@VCMotion@@@@@priv@stlp_std@@QAEXIABVCMotion@@@Z ; stlp_std::priv::_Impl_vector<CMotion,xalloc<CMotion> >::resize
PUBLIC	?to_storage_type_cref@?$_CastTraits@VCMotion@@V1@@priv@stlp_std@@SAABVCMotion@@ABV4@@Z ; stlp_std::priv::_CastTraits<CMotion,CMotion>::to_storage_type_cref
PUBLIC	?resize@?$vector@VCMotion@@V?$xalloc@VCMotion@@@@@stlp_std@@QAEXIABVCMotion@@@Z ; stlp_std::vector<CMotion,xalloc<CMotion> >::resize
PUBLIC	??A?$xr_vector@VCMotion@@V?$xalloc@VCMotion@@@@@@QAEAAVCMotion@@I@Z ; xr_vector<CMotion,xalloc<CMotion> >::operator[]
PUBLIC	??Raccel_str_pred@@QBE_NABVshared_str@@0@Z	; accel_str_pred::operator()
PUBLIC	?_S_key@?$_Rb_tree@Vshared_str@@Uaccel_str_pred@@U?$pair@$$CBVshared_str@@G@stlp_std@@U?$_Select1st@U?$pair@$$CBVshared_str@@G@stlp_std@@@priv@4@U?$_MapTraitsT@U?$pair@$$CBVshared_str@@G@stlp_std@@@64@V?$xalloc@U?$pair@Vshared_str@@G@stlp_std@@@@@priv@stlp_std@@KAABVshared_str@@PAU_Rb_tree_node_base@23@@Z ; stlp_std::priv::_Rb_tree<shared_str,accel_str_pred,stlp_std::pair<shared_str const ,unsigned short>,stlp_std::priv::_Select1st<stlp_std::pair<shared_str const ,unsigned short> >,stlp_std::priv::_MapTraitsT<stlp_std::pair<shared_str const ,unsigned short> >,xalloc<stlp_std::pair<shared_str,unsigned short> > >::_S_key
PUBLIC	?_M_insert@?$_Rb_tree@Vshared_str@@Uaccel_str_pred@@U?$pair@$$CBVshared_str@@G@stlp_std@@U?$_Select1st@U?$pair@$$CBVshared_str@@G@stlp_std@@@priv@4@U?$_MapTraitsT@U?$pair@$$CBVshared_str@@G@stlp_std@@@64@V?$xalloc@U?$pair@Vshared_str@@G@stlp_std@@@@@priv@stlp_std@@AAE?AU?$_Rb_tree_iterator@U?$pair@$$CBVshared_str@@G@stlp_std@@U?$_MapTraitsT@U?$pair@$$CBVshared_str@@G@stlp_std@@@priv@2@@23@PAU_Rb_tree_node_base@23@ABU?$pair@$$CBVshared_str@@G@3@00@Z ; stlp_std::priv::_Rb_tree<shared_str,accel_str_pred,stlp_std::pair<shared_str const ,unsigned short>,stlp_std::priv::_Select1st<stlp_std::pair<shared_str const ,unsigned short> >,stlp_std::priv::_MapTraitsT<stlp_std::pair<shared_str const ,unsigned short> >,xalloc<stlp_std::pair<shared_str,unsigned short> > >::_M_insert
PUBLIC	?begin@?$_Rb_tree@Vshared_str@@Uaccel_str_pred@@U?$pair@$$CBVshared_str@@G@stlp_std@@U?$_Select1st@U?$pair@$$CBVshared_str@@G@stlp_std@@@priv@4@U?$_MapTraitsT@U?$pair@$$CBVshared_str@@G@stlp_std@@@64@V?$xalloc@U?$pair@Vshared_str@@G@stlp_std@@@@@priv@stlp_std@@QAE?AU?$_Rb_tree_iterator@U?$pair@$$CBVshared_str@@G@stlp_std@@U?$_MapTraitsT@U?$pair@$$CBVshared_str@@G@stlp_std@@@priv@2@@23@XZ ; stlp_std::priv::_Rb_tree<shared_str,accel_str_pred,stlp_std::pair<shared_str const ,unsigned short>,stlp_std::priv::_Select1st<stlp_std::pair<shared_str const ,unsigned short> >,stlp_std::priv::_MapTraitsT<stlp_std::pair<shared_str const ,unsigned short> >,xalloc<stlp_std::pair<shared_str,unsigned short> > >::begin
PUBLIC	??0?$_Rb_tree_iterator@U?$pair@$$CBVshared_str@@G@stlp_std@@U?$_MapTraitsT@U?$pair@$$CBVshared_str@@G@stlp_std@@@priv@2@@priv@stlp_std@@QAE@PAU_Rb_tree_node_base@12@@Z ; stlp_std::priv::_Rb_tree_iterator<stlp_std::pair<shared_str const ,unsigned short>,stlp_std::priv::_MapTraitsT<stlp_std::pair<shared_str const ,unsigned short> > >::_Rb_tree_iterator<stlp_std::pair<shared_str const ,unsigned short>,stlp_std::priv::_MapTraitsT<stlp_std::pair<shared_str const ,unsigned short> > >
PUBLIC	??F?$_Rb_tree_iterator@U?$pair@$$CBVshared_str@@G@stlp_std@@U?$_MapTraitsT@U?$pair@$$CBVshared_str@@G@stlp_std@@@priv@2@@priv@stlp_std@@QAEAAU012@XZ ; stlp_std::priv::_Rb_tree_iterator<stlp_std::pair<shared_str const ,unsigned short>,stlp_std::priv::_MapTraitsT<stlp_std::pair<shared_str const ,unsigned short> > >::operator--
PUBLIC	??8?$_Rb_tree_iterator@U?$pair@$$CBVshared_str@@G@stlp_std@@U?$_MapTraitsT@U?$pair@$$CBVshared_str@@G@stlp_std@@@priv@2@@priv@stlp_std@@QBE_NU?$_Rb_tree_iterator@U?$pair@$$CBVshared_str@@G@stlp_std@@U?$_ConstMapTraitsT@U?$pair@$$CBVshared_str@@G@stlp_std@@@priv@2@@12@@Z ; stlp_std::priv::_Rb_tree_iterator<stlp_std::pair<shared_str const ,unsigned short>,stlp_std::priv::_MapTraitsT<stlp_std::pair<shared_str const ,unsigned short> > >::operator==
PUBLIC	??0?$_Rb_tree_iterator@U?$pair@$$CBVshared_str@@G@stlp_std@@U?$_MapTraitsT@U?$pair@$$CBVshared_str@@G@stlp_std@@@priv@2@@priv@stlp_std@@QAE@ABU012@@Z ; stlp_std::priv::_Rb_tree_iterator<stlp_std::pair<shared_str const ,unsigned short>,stlp_std::priv::_MapTraitsT<stlp_std::pair<shared_str const ,unsigned short> > >::_Rb_tree_iterator<stlp_std::pair<shared_str const ,unsigned short>,stlp_std::priv::_MapTraitsT<stlp_std::pair<shared_str const ,unsigned short> > >
PUBLIC	??0?$pair@U?$_Rb_tree_iterator@U?$pair@$$CBVshared_str@@G@stlp_std@@U?$_MapTraitsT@U?$pair@$$CBVshared_str@@G@stlp_std@@@priv@2@@priv@stlp_std@@_N@stlp_std@@QAE@ABU?$_Rb_tree_iterator@U?$pair@$$CBVshared_str@@G@stlp_std@@U?$_MapTraitsT@U?$pair@$$CBVshared_str@@G@stlp_std@@@priv@2@@priv@1@AB_N@Z ; stlp_std::pair<stlp_std::priv::_Rb_tree_iterator<stlp_std::pair<shared_str const ,unsigned short>,stlp_std::priv::_MapTraitsT<stlp_std::pair<shared_str const ,unsigned short> > >,bool>::pair<stlp_std::priv::_Rb_tree_iterator<stlp_std::pair<shared_str const ,unsigned short>,stlp_std::priv::_MapTraitsT<stlp_std::pair<shared_str const ,unsigned short> > >,bool>
PUBLIC	??R?$_Select1st@U?$pair@$$CBVshared_str@@G@stlp_std@@@priv@stlp_std@@QBEABVshared_str@@ABU?$pair@$$CBVshared_str@@G@2@@Z ; stlp_std::priv::_Select1st<stlp_std::pair<shared_str const ,unsigned short> >::operator()
PUBLIC	??0?$_Rb_tree_iterator@U?$pair@$$CBVshared_str@@G@stlp_std@@U?$_ConstMapTraitsT@U?$pair@$$CBVshared_str@@G@stlp_std@@@priv@2@@priv@stlp_std@@QAE@ABU?$_Rb_tree_iterator@U?$pair@$$CBVshared_str@@G@stlp_std@@U?$_MapTraitsT@U?$pair@$$CBVshared_str@@G@stlp_std@@@priv@2@@12@@Z ; stlp_std::priv::_Rb_tree_iterator<stlp_std::pair<shared_str const ,unsigned short>,stlp_std::priv::_ConstMapTraitsT<stlp_std::pair<shared_str const ,unsigned short> > >::_Rb_tree_iterator<stlp_std::pair<shared_str const ,unsigned short>,stlp_std::priv::_ConstMapTraitsT<stlp_std::pair<shared_str const ,unsigned short> > >
PUBLIC	?insert_unique@?$_Rb_tree@Vshared_str@@Uaccel_str_pred@@U?$pair@$$CBVshared_str@@G@stlp_std@@U?$_Select1st@U?$pair@$$CBVshared_str@@G@stlp_std@@@priv@4@U?$_MapTraitsT@U?$pair@$$CBVshared_str@@G@stlp_std@@@64@V?$xalloc@U?$pair@Vshared_str@@G@stlp_std@@@@@priv@stlp_std@@QAE?AU?$pair@U?$_Rb_tree_iterator@U?$pair@$$CBVshared_str@@G@stlp_std@@U?$_MapTraitsT@U?$pair@$$CBVshared_str@@G@stlp_std@@@priv@2@@priv@stlp_std@@_N@3@ABU?$pair@$$CBVshared_str@@G@3@@Z ; stlp_std::priv::_Rb_tree<shared_str,accel_str_pred,stlp_std::pair<shared_str const ,unsigned short>,stlp_std::priv::_Select1st<stlp_std::pair<shared_str const ,unsigned short> >,stlp_std::priv::_MapTraitsT<stlp_std::pair<shared_str const ,unsigned short> >,xalloc<stlp_std::pair<shared_str,unsigned short> > >::insert_unique
PUBLIC	?insert@?$map@Vshared_str@@GUaccel_str_pred@@V?$xalloc@U?$pair@Vshared_str@@G@stlp_std@@@@@stlp_std@@QAE?AU?$pair@U?$_Rb_tree_iterator@U?$pair@$$CBVshared_str@@G@stlp_std@@U?$_MapTraitsT@U?$pair@$$CBVshared_str@@G@stlp_std@@@priv@2@@priv@stlp_std@@_N@2@ABU?$pair@$$CBVshared_str@@G@2@@Z ; stlp_std::map<shared_str,unsigned short,accel_str_pred,xalloc<stlp_std::pair<shared_str,unsigned short> > >::insert
PUBLIC	??0?$pair@Vshared_str@@G@stlp_std@@QAE@ABVshared_str@@ABG@Z ; stlp_std::pair<shared_str,unsigned short>::pair<shared_str,unsigned short>
PUBLIC	??$mk_pair@Vshared_str@@G@@YA?AU?$pair@Vshared_str@@G@stlp_std@@Vshared_str@@G@Z ; mk_pair<shared_str,unsigned short>
PUBLIC	??1?$pair@Vshared_str@@G@stlp_std@@QAE@XZ	; stlp_std::pair<shared_str,unsigned short>::~pair<shared_str,unsigned short>
PUBLIC	??$?0Vshared_str@@G@?$pair@$$CBVshared_str@@G@stlp_std@@QAE@ABU?$pair@Vshared_str@@G@1@@Z ; stlp_std::pair<shared_str const ,unsigned short>::pair<shared_str const ,unsigned short><shared_str,unsigned short>
PUBLIC	??0?$xalloc@VCMotion@@@@QAE@XZ			; xalloc<CMotion>::xalloc<CMotion>
PUBLIC	??0?$_Vector_base@VCMotion@@V?$xalloc@VCMotion@@@@@priv@stlp_std@@QAE@ABV?$xalloc@VCMotion@@@@@Z ; stlp_std::priv::_Vector_base<CMotion,xalloc<CMotion> >::_Vector_base<CMotion,xalloc<CMotion> >
PUBLIC	??0?$_Impl_vector@VCMotion@@V?$xalloc@VCMotion@@@@@priv@stlp_std@@QAE@ABV?$xalloc@VCMotion@@@@@Z ; stlp_std::priv::_Impl_vector<CMotion,xalloc<CMotion> >::_Impl_vector<CMotion,xalloc<CMotion> >
PUBLIC	??0?$vector@VCMotion@@V?$xalloc@VCMotion@@@@@stlp_std@@QAE@ABV?$xalloc@VCMotion@@@@@Z ; stlp_std::vector<CMotion,xalloc<CMotion> >::vector<CMotion,xalloc<CMotion> >
PUBLIC	??0?$xr_vector@VCMotion@@V?$xalloc@VCMotion@@@@@@QAE@XZ ; xr_vector<CMotion,xalloc<CMotion> >::xr_vector<CMotion,xalloc<CMotion> >
PUBLIC	?key_comp@?$_Rb_tree@Vshared_str@@U?$less@Vshared_str@@@stlp_std@@U?$pair@$$CBVshared_str@@V?$xr_vector@VCMotion@@V?$xalloc@VCMotion@@@@@@@3@U?$_Select1st@U?$pair@$$CBVshared_str@@V?$xr_vector@VCMotion@@V?$xalloc@VCMotion@@@@@@@stlp_std@@@priv@3@U?$_MapTraitsT@U?$pair@$$CBVshared_str@@V?$xr_vector@VCMotion@@V?$xalloc@VCMotion@@@@@@@stlp_std@@@63@V?$xalloc@U?$pair@Vshared_str@@V?$xr_vector@VCMotion@@V?$xalloc@VCMotion@@@@@@@stlp_std@@@@@priv@stlp_std@@QBE?AU?$less@Vshared_str@@@3@XZ ; stlp_std::priv::_Rb_tree<shared_str,stlp_std::less<shared_str>,stlp_std::pair<shared_str const ,xr_vector<CMotion,xalloc<CMotion> > >,stlp_std::priv::_Select1st<stlp_std::pair<shared_str const ,xr_vector<CMotion,xalloc<CMotion> > > >,stlp_std::priv::_MapTraitsT<stlp_std::pair<shared_str const ,xr_vector<CMotion,xalloc<CMotion> > > >,xalloc<stlp_std::pair<shared_str,xr_vector<CMotion,xalloc<CMotion> > > > >::key_comp
PUBLIC	?key_comp@?$map@Vshared_str@@V?$xr_vector@VCMotion@@V?$xalloc@VCMotion@@@@@@U?$less@Vshared_str@@@stlp_std@@V?$xalloc@U?$pair@Vshared_str@@V?$xr_vector@VCMotion@@V?$xalloc@VCMotion@@@@@@@stlp_std@@@@@stlp_std@@QBE?AU?$less@Vshared_str@@@2@XZ ; stlp_std::map<shared_str,xr_vector<CMotion,xalloc<CMotion> >,stlp_std::less<shared_str>,xalloc<stlp_std::pair<shared_str,xr_vector<CMotion,xalloc<CMotion> > > > >::key_comp
PUBLIC	?empty@?$_Rb_tree@Vshared_str@@U?$less@Vshared_str@@@stlp_std@@U?$pair@$$CBVshared_str@@V?$xr_vector@VCMotion@@V?$xalloc@VCMotion@@@@@@@3@U?$_Select1st@U?$pair@$$CBVshared_str@@V?$xr_vector@VCMotion@@V?$xalloc@VCMotion@@@@@@@stlp_std@@@priv@3@U?$_MapTraitsT@U?$pair@$$CBVshared_str@@V?$xr_vector@VCMotion@@V?$xalloc@VCMotion@@@@@@@stlp_std@@@63@V?$xalloc@U?$pair@Vshared_str@@V?$xr_vector@VCMotion@@V?$xalloc@VCMotion@@@@@@@stlp_std@@@@@priv@stlp_std@@QBE_NXZ ; stlp_std::priv::_Rb_tree<shared_str,stlp_std::less<shared_str>,stlp_std::pair<shared_str const ,xr_vector<CMotion,xalloc<CMotion> > >,stlp_std::priv::_Select1st<stlp_std::pair<shared_str const ,xr_vector<CMotion,xalloc<CMotion> > > >,stlp_std::priv::_MapTraitsT<stlp_std::pair<shared_str const ,xr_vector<CMotion,xalloc<CMotion> > > >,xalloc<stlp_std::pair<shared_str,xr_vector<CMotion,xalloc<CMotion> > > > >::empty
PUBLIC	?_M_insert@?$_Rb_tree@Vshared_str@@U?$less@Vshared_str@@@stlp_std@@U?$pair@$$CBVshared_str@@V?$xr_vector@VCMotion@@V?$xalloc@VCMotion@@@@@@@3@U?$_Select1st@U?$pair@$$CBVshared_str@@V?$xr_vector@VCMotion@@V?$xalloc@VCMotion@@@@@@@stlp_std@@@priv@3@U?$_MapTraitsT@U?$pair@$$CBVshared_str@@V?$xr_vector@VCMotion@@V?$xalloc@VCMotion@@@@@@@stlp_std@@@63@V?$xalloc@U?$pair@Vshared_str@@V?$xr_vector@VCMotion@@V?$xalloc@VCMotion@@@@@@@stlp_std@@@@@priv@stlp_std@@AAE?AU?$_Rb_tree_iterator@U?$pair@$$CBVshared_str@@V?$xr_vector@VCMotion@@V?$xalloc@VCMotion@@@@@@@stlp_std@@U?$_MapTraitsT@U?$pair@$$CBVshared_str@@V?$xr_vector@VCMotion@@V?$xalloc@VCMotion@@@@@@@stlp_std@@@priv@2@@23@PAU_Rb_tree_node_base@23@ABU?$pair@$$CBVshared_str@@V?$xr_vector@VCMotion@@V?$xalloc@VCMotion@@@@@@@3@00@Z ; stlp_std::priv::_Rb_tree<shared_str,stlp_std::less<shared_str>,stlp_std::pair<shared_str const ,xr_vector<CMotion,xalloc<CMotion> > >,stlp_std::priv::_Select1st<stlp_std::pair<shared_str const ,xr_vector<CMotion,xalloc<CMotion> > > >,stlp_std::priv::_MapTraitsT<stlp_std::pair<shared_str const ,xr_vector<CMotion,xalloc<CMotion> > > >,xalloc<stlp_std::pair<shared_str,xr_vector<CMotion,xalloc<CMotion> > > > >::_M_insert
PUBLIC	??0?$pair@U?$_Rb_tree_iterator@U?$pair@$$CBVshared_str@@V?$xr_vector@VCMotion@@V?$xalloc@VCMotion@@@@@@@stlp_std@@U?$_MapTraitsT@U?$pair@$$CBVshared_str@@V?$xr_vector@VCMotion@@V?$xalloc@VCMotion@@@@@@@stlp_std@@@priv@2@@priv@stlp_std@@_N@stlp_std@@QAE@ABU?$_Rb_tree_iterator@U?$pair@$$CBVshared_str@@V?$xr_vector@VCMotion@@V?$xalloc@VCMotion@@@@@@@stlp_std@@U?$_MapTraitsT@U?$pair@$$CBVshared_str@@V?$xr_vector@VCMotion@@V?$xalloc@VCMotion@@@@@@@stlp_std@@@priv@2@@priv@1@AB_N@Z ; stlp_std::pair<stlp_std::priv::_Rb_tree_iterator<stlp_std::pair<shared_str const ,xr_vector<CMotion,xalloc<CMotion> > >,stlp_std::priv::_MapTraitsT<stlp_std::pair<shared_str const ,xr_vector<CMotion,xalloc<CMotion> > > > >,bool>::pair<stlp_std::priv::_Rb_tree_iterator<stlp_std::pair<shared_str const ,xr_vector<CMotion,xalloc<CMotion> > >,stlp_std::priv::_MapTraitsT<stlp_std::pair<shared_str const ,xr_vector<CMotion,xalloc<CMotion> > > > >,bool>
PUBLIC	?insert_unique@?$_Rb_tree@Vshared_str@@U?$less@Vshared_str@@@stlp_std@@U?$pair@$$CBVshared_str@@V?$xr_vector@VCMotion@@V?$xalloc@VCMotion@@@@@@@3@U?$_Select1st@U?$pair@$$CBVshared_str@@V?$xr_vector@VCMotion@@V?$xalloc@VCMotion@@@@@@@stlp_std@@@priv@3@U?$_MapTraitsT@U?$pair@$$CBVshared_str@@V?$xr_vector@VCMotion@@V?$xalloc@VCMotion@@@@@@@stlp_std@@@63@V?$xalloc@U?$pair@Vshared_str@@V?$xr_vector@VCMotion@@V?$xalloc@VCMotion@@@@@@@stlp_std@@@@@priv@stlp_std@@QAE?AU?$pair@U?$_Rb_tree_iterator@U?$pair@$$CBVshared_str@@V?$xr_vector@VCMotion@@V?$xalloc@VCMotion@@@@@@@stlp_std@@U?$_MapTraitsT@U?$pair@$$CBVshared_str@@V?$xr_vector@VCMotion@@V?$xalloc@VCMotion@@@@@@@stlp_std@@@priv@2@@priv@stlp_std@@_N@3@ABU?$pair@$$CBVshared_str@@V?$xr_vector@VCMotion@@V?$xalloc@VCMotion@@@@@@@3@@Z ; stlp_std::priv::_Rb_tree<shared_str,stlp_std::less<shared_str>,stlp_std::pair<shared_str const ,xr_vector<CMotion,xalloc<CMotion> > >,stlp_std::priv::_Select1st<stlp_std::pair<shared_str const ,xr_vector<CMotion,xalloc<CMotion> > > >,stlp_std::priv::_MapTraitsT<stlp_std::pair<shared_str const ,xr_vector<CMotion,xalloc<CMotion> > > >,xalloc<stlp_std::pair<shared_str,xr_vector<CMotion,xalloc<CMotion> > > > >::insert_unique
PUBLIC	??F?$_Rb_tree_iterator@U?$pair@$$CBVshared_str@@V?$xr_vector@VCMotion@@V?$xalloc@VCMotion@@@@@@@stlp_std@@U?$_MapTraitsT@U?$pair@$$CBVshared_str@@V?$xr_vector@VCMotion@@V?$xalloc@VCMotion@@@@@@@stlp_std@@@priv@2@@priv@stlp_std@@QAEAAU012@XZ ; stlp_std::priv::_Rb_tree_iterator<stlp_std::pair<shared_str const ,xr_vector<CMotion,xalloc<CMotion> > >,stlp_std::priv::_MapTraitsT<stlp_std::pair<shared_str const ,xr_vector<CMotion,xalloc<CMotion> > > > >::operator--
PUBLIC	?insert_unique@?$_Rb_tree@Vshared_str@@U?$less@Vshared_str@@@stlp_std@@U?$pair@$$CBVshared_str@@V?$xr_vector@VCMotion@@V?$xalloc@VCMotion@@@@@@@3@U?$_Select1st@U?$pair@$$CBVshared_str@@V?$xr_vector@VCMotion@@V?$xalloc@VCMotion@@@@@@@stlp_std@@@priv@3@U?$_MapTraitsT@U?$pair@$$CBVshared_str@@V?$xr_vector@VCMotion@@V?$xalloc@VCMotion@@@@@@@stlp_std@@@63@V?$xalloc@U?$pair@Vshared_str@@V?$xr_vector@VCMotion@@V?$xalloc@VCMotion@@@@@@@stlp_std@@@@@priv@stlp_std@@QAE?AU?$_Rb_tree_iterator@U?$pair@$$CBVshared_str@@V?$xr_vector@VCMotion@@V?$xalloc@VCMotion@@@@@@@stlp_std@@U?$_MapTraitsT@U?$pair@$$CBVshared_str@@V?$xr_vector@VCMotion@@V?$xalloc@VCMotion@@@@@@@stlp_std@@@priv@2@@23@U423@ABU?$pair@$$CBVshared_str@@V?$xr_vector@VCMotion@@V?$xalloc@VCMotion@@@@@@@3@@Z ; stlp_std::priv::_Rb_tree<shared_str,stlp_std::less<shared_str>,stlp_std::pair<shared_str const ,xr_vector<CMotion,xalloc<CMotion> > >,stlp_std::priv::_Select1st<stlp_std::pair<shared_str const ,xr_vector<CMotion,xalloc<CMotion> > > >,stlp_std::priv::_MapTraitsT<stlp_std::pair<shared_str const ,xr_vector<CMotion,xalloc<CMotion> > > >,xalloc<stlp_std::pair<shared_str,xr_vector<CMotion,xalloc<CMotion> > > > >::insert_unique
PUBLIC	?insert@?$map@Vshared_str@@V?$xr_vector@VCMotion@@V?$xalloc@VCMotion@@@@@@U?$less@Vshared_str@@@stlp_std@@V?$xalloc@U?$pair@Vshared_str@@V?$xr_vector@VCMotion@@V?$xalloc@VCMotion@@@@@@@stlp_std@@@@@stlp_std@@QAE?AU?$_Rb_tree_iterator@U?$pair@$$CBVshared_str@@V?$xr_vector@VCMotion@@V?$xalloc@VCMotion@@@@@@@stlp_std@@U?$_MapTraitsT@U?$pair@$$CBVshared_str@@V?$xr_vector@VCMotion@@V?$xalloc@VCMotion@@@@@@@stlp_std@@@priv@2@@priv@2@U342@ABU?$pair@$$CBVshared_str@@V?$xr_vector@VCMotion@@V?$xalloc@VCMotion@@@@@@@2@@Z ; stlp_std::map<shared_str,xr_vector<CMotion,xalloc<CMotion> >,stlp_std::less<shared_str>,xalloc<stlp_std::pair<shared_str,xr_vector<CMotion,xalloc<CMotion> > > > >::insert
PUBLIC	??0?$pair@$$CBVshared_str@@V?$xr_vector@VCMotion@@V?$xalloc@VCMotion@@@@@@@stlp_std@@QAE@ABVshared_str@@ABV?$xr_vector@VCMotion@@V?$xalloc@VCMotion@@@@@@@Z ; stlp_std::pair<shared_str const ,xr_vector<CMotion,xalloc<CMotion> > >::pair<shared_str const ,xr_vector<CMotion,xalloc<CMotion> > >
PUBLIC	??$_M_lower_bound@Vshared_str@@@?$_Rb_tree@Vshared_str@@U?$less@Vshared_str@@@stlp_std@@U?$pair@$$CBVshared_str@@V?$xr_vector@VCMotion@@V?$xalloc@VCMotion@@@@@@@3@U?$_Select1st@U?$pair@$$CBVshared_str@@V?$xr_vector@VCMotion@@V?$xalloc@VCMotion@@@@@@@stlp_std@@@priv@3@U?$_MapTraitsT@U?$pair@$$CBVshared_str@@V?$xr_vector@VCMotion@@V?$xalloc@VCMotion@@@@@@@stlp_std@@@63@V?$xalloc@U?$pair@Vshared_str@@V?$xr_vector@VCMotion@@V?$xalloc@VCMotion@@@@@@@stlp_std@@@@@priv@stlp_std@@ABEPAU_Rb_tree_node_base@12@ABVshared_str@@@Z ; stlp_std::priv::_Rb_tree<shared_str,stlp_std::less<shared_str>,stlp_std::pair<shared_str const ,xr_vector<CMotion,xalloc<CMotion> > >,stlp_std::priv::_Select1st<stlp_std::pair<shared_str const ,xr_vector<CMotion,xalloc<CMotion> > > >,stlp_std::priv::_MapTraitsT<stlp_std::pair<shared_str const ,xr_vector<CMotion,xalloc<CMotion> > > >,xalloc<stlp_std::pair<shared_str,xr_vector<CMotion,xalloc<CMotion> > > > >::_M_lower_bound<shared_str>
PUBLIC	??$lower_bound@Vshared_str@@@?$_Rb_tree@Vshared_str@@U?$less@Vshared_str@@@stlp_std@@U?$pair@$$CBVshared_str@@V?$xr_vector@VCMotion@@V?$xalloc@VCMotion@@@@@@@3@U?$_Select1st@U?$pair@$$CBVshared_str@@V?$xr_vector@VCMotion@@V?$xalloc@VCMotion@@@@@@@stlp_std@@@priv@3@U?$_MapTraitsT@U?$pair@$$CBVshared_str@@V?$xr_vector@VCMotion@@V?$xalloc@VCMotion@@@@@@@stlp_std@@@63@V?$xalloc@U?$pair@Vshared_str@@V?$xr_vector@VCMotion@@V?$xalloc@VCMotion@@@@@@@stlp_std@@@@@priv@stlp_std@@QAE?AU?$_Rb_tree_iterator@U?$pair@$$CBVshared_str@@V?$xr_vector@VCMotion@@V?$xalloc@VCMotion@@@@@@@stlp_std@@U?$_MapTraitsT@U?$pair@$$CBVshared_str@@V?$xr_vector@VCMotion@@V?$xalloc@VCMotion@@@@@@@stlp_std@@@priv@2@@12@ABVshared_str@@@Z ; stlp_std::priv::_Rb_tree<shared_str,stlp_std::less<shared_str>,stlp_std::pair<shared_str const ,xr_vector<CMotion,xalloc<CMotion> > >,stlp_std::priv::_Select1st<stlp_std::pair<shared_str const ,xr_vector<CMotion,xalloc<CMotion> > > >,stlp_std::priv::_MapTraitsT<stlp_std::pair<shared_str const ,xr_vector<CMotion,xalloc<CMotion> > > >,xalloc<stlp_std::pair<shared_str,xr_vector<CMotion,xalloc<CMotion> > > > >::lower_bound<shared_str>
PUBLIC	??$lower_bound@Vshared_str@@@?$map@Vshared_str@@V?$xr_vector@VCMotion@@V?$xalloc@VCMotion@@@@@@U?$less@Vshared_str@@@stlp_std@@V?$xalloc@U?$pair@Vshared_str@@V?$xr_vector@VCMotion@@V?$xalloc@VCMotion@@@@@@@stlp_std@@@@@stlp_std@@QAE?AU?$_Rb_tree_iterator@U?$pair@$$CBVshared_str@@V?$xr_vector@VCMotion@@V?$xalloc@VCMotion@@@@@@@stlp_std@@U?$_MapTraitsT@U?$pair@$$CBVshared_str@@V?$xr_vector@VCMotion@@V?$xalloc@VCMotion@@@@@@@stlp_std@@@priv@2@@priv@1@ABVshared_str@@@Z ; stlp_std::map<shared_str,xr_vector<CMotion,xalloc<CMotion> >,stlp_std::less<shared_str>,xalloc<stlp_std::pair<shared_str,xr_vector<CMotion,xalloc<CMotion> > > > >::lower_bound<shared_str>
PUBLIC	??$?AVshared_str@@@?$map@Vshared_str@@V?$xr_vector@VCMotion@@V?$xalloc@VCMotion@@@@@@U?$less@Vshared_str@@@stlp_std@@V?$xalloc@U?$pair@Vshared_str@@V?$xr_vector@VCMotion@@V?$xalloc@VCMotion@@@@@@@stlp_std@@@@@stlp_std@@QAEAAV?$xr_vector@VCMotion@@V?$xalloc@VCMotion@@@@@@ABVshared_str@@@Z ; stlp_std::map<shared_str,xr_vector<CMotion,xalloc<CMotion> >,stlp_std::less<shared_str>,xalloc<stlp_std::pair<shared_str,xr_vector<CMotion,xalloc<CMotion> > > > >::operator[]<shared_str>
PUBLIC	??0?$ref_smem@UCKeyQR@@@@QAE@ABV0@@Z		; ref_smem<CKeyQR>::ref_smem<CKeyQR>
PUBLIC	??1?$ref_smem@UCKeyQR@@@@QAE@XZ			; ref_smem<CKeyQR>::~ref_smem<CKeyQR>
PUBLIC	??0?$ref_smem@UCKeyQT8@@@@QAE@ABV0@@Z		; ref_smem<CKeyQT8>::ref_smem<CKeyQT8>
PUBLIC	??1?$ref_smem@UCKeyQT8@@@@QAE@XZ		; ref_smem<CKeyQT8>::~ref_smem<CKeyQT8>
PUBLIC	??0?$ref_smem@UCKeyQT16@@@@QAE@ABV0@@Z		; ref_smem<CKeyQT16>::ref_smem<CKeyQT16>
PUBLIC	??1?$ref_smem@UCKeyQT16@@@@QAE@XZ		; ref_smem<CKeyQT16>::~ref_smem<CKeyQT16>
PUBLIC	?_dec@?$ref_smem@UCKeyQR@@@@IAEXXZ		; ref_smem<CKeyQR>::_dec
PUBLIC	?_set@?$ref_smem@UCKeyQR@@@@QAEXABV1@@Z		; ref_smem<CKeyQR>::_set
PUBLIC	??4?$ref_smem@UCKeyQR@@@@QAEAAV0@ABV0@@Z	; ref_smem<CKeyQR>::operator=
PUBLIC	?_dec@?$ref_smem@UCKeyQT8@@@@IAEXXZ		; ref_smem<CKeyQT8>::_dec
PUBLIC	?_set@?$ref_smem@UCKeyQT8@@@@QAEXABV1@@Z	; ref_smem<CKeyQT8>::_set
PUBLIC	??4?$ref_smem@UCKeyQT8@@@@QAEAAV0@ABV0@@Z	; ref_smem<CKeyQT8>::operator=
PUBLIC	?_dec@?$ref_smem@UCKeyQT16@@@@IAEXXZ		; ref_smem<CKeyQT16>::_dec
PUBLIC	?_set@?$ref_smem@UCKeyQT16@@@@QAEXABV1@@Z	; ref_smem<CKeyQT16>::_set
PUBLIC	??4?$ref_smem@UCKeyQT16@@@@QAEAAV0@ABV0@@Z	; ref_smem<CKeyQT16>::operator=
PUBLIC	?empty@?$_Impl_vector@U?$pair@MM@stlp_std@@V?$xalloc@U?$pair@MM@stlp_std@@@@@priv@stlp_std@@QBE_NXZ ; stlp_std::priv::_Impl_vector<stlp_std::pair<float,float>,xalloc<stlp_std::pair<float,float> > >::empty
PUBLIC	?empty@?$vector@U?$pair@MM@stlp_std@@V?$xalloc@U?$pair@MM@stlp_std@@@@@stlp_std@@QBE_NXZ ; stlp_std::vector<stlp_std::pair<float,float>,xalloc<stlp_std::pair<float,float> > >::empty
PUBLIC	??8?$_Rb_tree_iterator@U?$pair@$$CBVshared_str@@V?$xr_vector@VCMotion@@V?$xalloc@VCMotion@@@@@@@stlp_std@@U?$_MapTraitsT@U?$pair@$$CBVshared_str@@V?$xr_vector@VCMotion@@V?$xalloc@VCMotion@@@@@@@stlp_std@@@priv@2@@priv@stlp_std@@QBE_NU?$_Rb_tree_iterator@U?$pair@$$CBVshared_str@@V?$xr_vector@VCMotion@@V?$xalloc@VCMotion@@@@@@@stlp_std@@U?$_ConstMapTraitsT@U?$pair@$$CBVshared_str@@V?$xr_vector@VCMotion@@V?$xalloc@VCMotion@@@@@@@stlp_std@@@priv@2@@12@@Z ; stlp_std::priv::_Rb_tree_iterator<stlp_std::pair<shared_str const ,xr_vector<CMotion,xalloc<CMotion> > >,stlp_std::priv::_MapTraitsT<stlp_std::pair<shared_str const ,xr_vector<CMotion,xalloc<CMotion> > > > >::operator==
PUBLIC	??R?$_Select1st@U?$pair@$$CBVshared_str@@V?$xr_vector@VCMotion@@V?$xalloc@VCMotion@@@@@@@stlp_std@@@priv@stlp_std@@QBEABVshared_str@@ABU?$pair@$$CBVshared_str@@V?$xr_vector@VCMotion@@V?$xalloc@VCMotion@@@@@@@2@@Z ; stlp_std::priv::_Select1st<stlp_std::pair<shared_str const ,xr_vector<CMotion,xalloc<CMotion> > > >::operator()
PUBLIC	?_S_key@?$_Rb_tree@Vshared_str@@U?$less@Vshared_str@@@stlp_std@@U?$pair@$$CBVshared_str@@V?$xr_vector@VCMotion@@V?$xalloc@VCMotion@@@@@@@3@U?$_Select1st@U?$pair@$$CBVshared_str@@V?$xr_vector@VCMotion@@V?$xalloc@VCMotion@@@@@@@stlp_std@@@priv@3@U?$_MapTraitsT@U?$pair@$$CBVshared_str@@V?$xr_vector@VCMotion@@V?$xalloc@VCMotion@@@@@@@stlp_std@@@63@V?$xalloc@U?$pair@Vshared_str@@V?$xr_vector@VCMotion@@V?$xalloc@VCMotion@@@@@@@stlp_std@@@@@priv@stlp_std@@KAABVshared_str@@PAU_Rb_tree_node_base@23@@Z ; stlp_std::priv::_Rb_tree<shared_str,stlp_std::less<shared_str>,stlp_std::pair<shared_str const ,xr_vector<CMotion,xalloc<CMotion> > >,stlp_std::priv::_Select1st<stlp_std::pair<shared_str const ,xr_vector<CMotion,xalloc<CMotion> > > >,stlp_std::priv::_MapTraitsT<stlp_std::pair<shared_str const ,xr_vector<CMotion,xalloc<CMotion> > > >,xalloc<stlp_std::pair<shared_str,xr_vector<CMotion,xalloc<CMotion> > > > >::_S_key
PUBLIC	??$_M_find@Vshared_str@@@?$_Rb_tree@Vshared_str@@U?$less@Vshared_str@@@stlp_std@@U?$pair@$$CBVshared_str@@V?$xr_vector@VCMotion@@V?$xalloc@VCMotion@@@@@@@3@U?$_Select1st@U?$pair@$$CBVshared_str@@V?$xr_vector@VCMotion@@V?$xalloc@VCMotion@@@@@@@stlp_std@@@priv@3@U?$_MapTraitsT@U?$pair@$$CBVshared_str@@V?$xr_vector@VCMotion@@V?$xalloc@VCMotion@@@@@@@stlp_std@@@63@V?$xalloc@U?$pair@Vshared_str@@V?$xr_vector@VCMotion@@V?$xalloc@VCMotion@@@@@@@stlp_std@@@@@priv@stlp_std@@ABEPAU_Rb_tree_node_base@12@ABVshared_str@@@Z ; stlp_std::priv::_Rb_tree<shared_str,stlp_std::less<shared_str>,stlp_std::pair<shared_str const ,xr_vector<CMotion,xalloc<CMotion> > >,stlp_std::priv::_Select1st<stlp_std::pair<shared_str const ,xr_vector<CMotion,xalloc<CMotion> > > >,stlp_std::priv::_MapTraitsT<stlp_std::pair<shared_str const ,xr_vector<CMotion,xalloc<CMotion> > > >,xalloc<stlp_std::pair<shared_str,xr_vector<CMotion,xalloc<CMotion> > > > >::_M_find<shared_str>
PUBLIC	??$find@Vshared_str@@@?$_Rb_tree@Vshared_str@@U?$less@Vshared_str@@@stlp_std@@U?$pair@$$CBVshared_str@@V?$xr_vector@VCMotion@@V?$xalloc@VCMotion@@@@@@@3@U?$_Select1st@U?$pair@$$CBVshared_str@@V?$xr_vector@VCMotion@@V?$xalloc@VCMotion@@@@@@@stlp_std@@@priv@3@U?$_MapTraitsT@U?$pair@$$CBVshared_str@@V?$xr_vector@VCMotion@@V?$xalloc@VCMotion@@@@@@@stlp_std@@@63@V?$xalloc@U?$pair@Vshared_str@@V?$xr_vector@VCMotion@@V?$xalloc@VCMotion@@@@@@@stlp_std@@@@@priv@stlp_std@@QAE?AU?$_Rb_tree_iterator@U?$pair@$$CBVshared_str@@V?$xr_vector@VCMotion@@V?$xalloc@VCMotion@@@@@@@stlp_std@@U?$_MapTraitsT@U?$pair@$$CBVshared_str@@V?$xr_vector@VCMotion@@V?$xalloc@VCMotion@@@@@@@stlp_std@@@priv@2@@12@ABVshared_str@@@Z ; stlp_std::priv::_Rb_tree<shared_str,stlp_std::less<shared_str>,stlp_std::pair<shared_str const ,xr_vector<CMotion,xalloc<CMotion> > >,stlp_std::priv::_Select1st<stlp_std::pair<shared_str const ,xr_vector<CMotion,xalloc<CMotion> > > >,stlp_std::priv::_MapTraitsT<stlp_std::pair<shared_str const ,xr_vector<CMotion,xalloc<CMotion> > > >,xalloc<stlp_std::pair<shared_str,xr_vector<CMotion,xalloc<CMotion> > > > >::find<shared_str>
PUBLIC	??$find@Vshared_str@@@?$map@Vshared_str@@V?$xr_vector@VCMotion@@V?$xalloc@VCMotion@@@@@@U?$less@Vshared_str@@@stlp_std@@V?$xalloc@U?$pair@Vshared_str@@V?$xr_vector@VCMotion@@V?$xalloc@VCMotion@@@@@@@stlp_std@@@@@stlp_std@@QAE?AU?$_Rb_tree_iterator@U?$pair@$$CBVshared_str@@V?$xr_vector@VCMotion@@V?$xalloc@VCMotion@@@@@@@stlp_std@@U?$_MapTraitsT@U?$pair@$$CBVshared_str@@V?$xr_vector@VCMotion@@V?$xalloc@VCMotion@@@@@@@stlp_std@@@priv@2@@priv@1@ABVshared_str@@@Z ; stlp_std::map<shared_str,xr_vector<CMotion,xalloc<CMotion> >,stlp_std::less<shared_str>,xalloc<stlp_std::pair<shared_str,xr_vector<CMotion,xalloc<CMotion> > > > >::find<shared_str>
PUBLIC	??0?$xalloc@U?$pair@MM@stlp_std@@@@QAE@XZ	; xalloc<stlp_std::pair<float,float> >::xalloc<stlp_std::pair<float,float> >
PUBLIC	??0?$_Vector_base@U?$pair@MM@stlp_std@@V?$xalloc@U?$pair@MM@stlp_std@@@@@priv@stlp_std@@QAE@ABV?$xalloc@U?$pair@MM@stlp_std@@@@@Z ; stlp_std::priv::_Vector_base<stlp_std::pair<float,float>,xalloc<stlp_std::pair<float,float> > >::_Vector_base<stlp_std::pair<float,float>,xalloc<stlp_std::pair<float,float> > >
PUBLIC	??0?$_Impl_vector@U?$pair@MM@stlp_std@@V?$xalloc@U?$pair@MM@stlp_std@@@@@priv@stlp_std@@QAE@ABV?$xalloc@U?$pair@MM@stlp_std@@@@@Z ; stlp_std::priv::_Impl_vector<stlp_std::pair<float,float>,xalloc<stlp_std::pair<float,float> > >::_Impl_vector<stlp_std::pair<float,float>,xalloc<stlp_std::pair<float,float> > >
PUBLIC	??0?$vector@U?$pair@MM@stlp_std@@V?$xalloc@U?$pair@MM@stlp_std@@@@@stlp_std@@QAE@ABV?$xalloc@U?$pair@MM@stlp_std@@@@@Z ; stlp_std::vector<stlp_std::pair<float,float>,xalloc<stlp_std::pair<float,float> > >::vector<stlp_std::pair<float,float>,xalloc<stlp_std::pair<float,float> > >
PUBLIC	??0?$xr_vector@U?$pair@MM@stlp_std@@V?$xalloc@U?$pair@MM@stlp_std@@@@@@QAE@XZ ; xr_vector<stlp_std::pair<float,float>,xalloc<stlp_std::pair<float,float> > >::xr_vector<stlp_std::pair<float,float>,xalloc<stlp_std::pair<float,float> > >
PUBLIC	?_M_empty_initialize@?$_Rb_tree_base@U?$pair@$$CBVshared_str@@PAUmotions_value@@@stlp_std@@V?$xalloc@U?$pair@Vshared_str@@PAUmotions_value@@@stlp_std@@@@@priv@stlp_std@@IAEXXZ ; stlp_std::priv::_Rb_tree_base<stlp_std::pair<shared_str const ,motions_value *>,xalloc<stlp_std::pair<shared_str,motions_value *> > >::_M_empty_initialize
PUBLIC	??0?$xalloc@U?$_Rb_tree_node@U?$pair@$$CBVshared_str@@PAUmotions_value@@@stlp_std@@@priv@stlp_std@@@@QAE@ABV0@@Z ; xalloc<stlp_std::priv::_Rb_tree_node<stlp_std::pair<shared_str const ,motions_value *> > >::xalloc<stlp_std::priv::_Rb_tree_node<stlp_std::pair<shared_str const ,motions_value *> > >
PUBLIC	??0?$_STLP_alloc_proxy@U_Rb_tree_node_base@priv@stlp_std@@U?$_Rb_tree_node@U?$pair@$$CBVshared_str@@PAUmotions_value@@@stlp_std@@@23@V?$xalloc@U?$_Rb_tree_node@U?$pair@$$CBVshared_str@@PAUmotions_value@@@stlp_std@@@priv@stlp_std@@@@@priv@stlp_std@@QAE@ABV?$xalloc@U?$_Rb_tree_node@U?$pair@$$CBVshared_str@@PAUmotions_value@@@stlp_std@@@priv@stlp_std@@@@U_Rb_tree_node_base@12@@Z ; stlp_std::priv::_STLP_alloc_proxy<stlp_std::priv::_Rb_tree_node_base,stlp_std::priv::_Rb_tree_node<stlp_std::pair<shared_str const ,motions_value *> >,xalloc<stlp_std::priv::_Rb_tree_node<stlp_std::pair<shared_str const ,motions_value *> > > >::_STLP_alloc_proxy<stlp_std::priv::_Rb_tree_node_base,stlp_std::priv::_Rb_tree_node<stlp_std::pair<shared_str const ,motions_value *> >,xalloc<stlp_std::priv::_Rb_tree_node<stlp_std::pair<shared_str const ,motions_value *> > > >
PUBLIC	??$?0U?$pair@$$CBVshared_str@@PAUmotions_value@@@stlp_std@@@?$xalloc@U?$_Rb_tree_node@U?$pair@$$CBVshared_str@@PAUmotions_value@@@stlp_std@@@priv@stlp_std@@@@QAE@ABV?$xalloc@U?$pair@$$CBVshared_str@@PAUmotions_value@@@stlp_std@@@@@Z ; xalloc<stlp_std::priv::_Rb_tree_node<stlp_std::pair<shared_str const ,motions_value *> > >::xalloc<stlp_std::priv::_Rb_tree_node<stlp_std::pair<shared_str const ,motions_value *> > ><stlp_std::pair<shared_str const ,motions_value *> >
PUBLIC	??0?$_Rb_tree_base@U?$pair@$$CBVshared_str@@PAUmotions_value@@@stlp_std@@V?$xalloc@U?$pair@Vshared_str@@PAUmotions_value@@@stlp_std@@@@@priv@stlp_std@@IAE@ABV?$xalloc@U?$pair@$$CBVshared_str@@PAUmotions_value@@@stlp_std@@@@@Z ; stlp_std::priv::_Rb_tree_base<stlp_std::pair<shared_str const ,motions_value *>,xalloc<stlp_std::pair<shared_str,motions_value *> > >::_Rb_tree_base<stlp_std::pair<shared_str const ,motions_value *>,xalloc<stlp_std::pair<shared_str,motions_value *> > >
PUBLIC	??0?$_Rb_tree@Vshared_str@@U?$less@Vshared_str@@@stlp_std@@U?$pair@$$CBVshared_str@@PAUmotions_value@@@3@U?$_Select1st@U?$pair@$$CBVshared_str@@PAUmotions_value@@@stlp_std@@@priv@3@U?$_MapTraitsT@U?$pair@$$CBVshared_str@@PAUmotions_value@@@stlp_std@@@63@V?$xalloc@U?$pair@Vshared_str@@PAUmotions_value@@@stlp_std@@@@@priv@stlp_std@@QAE@ABU?$less@Vshared_str@@@2@ABV?$xalloc@U?$pair@$$CBVshared_str@@PAUmotions_value@@@stlp_std@@@@@Z ; stlp_std::priv::_Rb_tree<shared_str,stlp_std::less<shared_str>,stlp_std::pair<shared_str const ,motions_value *>,stlp_std::priv::_Select1st<stlp_std::pair<shared_str const ,motions_value *> >,stlp_std::priv::_MapTraitsT<stlp_std::pair<shared_str const ,motions_value *> >,xalloc<stlp_std::pair<shared_str,motions_value *> > >::_Rb_tree<shared_str,stlp_std::less<shared_str>,stlp_std::pair<shared_str const ,motions_value *>,stlp_std::priv::_Select1st<stlp_std::pair<shared_str const ,motions_value *> >,stlp_std::priv::_MapTraitsT<stlp_std::pair<shared_str const ,motions_value *> >,xalloc<stlp_std::pair<shared_str,motions_value *> > >
PUBLIC	??0?$xalloc@U?$pair@$$CBVshared_str@@PAUmotions_value@@@stlp_std@@@@QAE@XZ ; xalloc<stlp_std::pair<shared_str const ,motions_value *> >::xalloc<stlp_std::pair<shared_str const ,motions_value *> >
PUBLIC	??0?$map@Vshared_str@@PAUmotions_value@@U?$less@Vshared_str@@@stlp_std@@V?$xalloc@U?$pair@Vshared_str@@PAUmotions_value@@@stlp_std@@@@@stlp_std@@QAE@XZ ; stlp_std::map<shared_str,motions_value *,stlp_std::less<shared_str>,xalloc<stlp_std::pair<shared_str,motions_value *> > >::map<shared_str,motions_value *,stlp_std::less<shared_str>,xalloc<stlp_std::pair<shared_str,motions_value *> > >
PUBLIC	??0?$xr_map@Vshared_str@@PAUmotions_value@@U?$less@Vshared_str@@@stlp_std@@V?$xalloc@U?$pair@Vshared_str@@PAUmotions_value@@@stlp_std@@@@@@QAE@XZ ; xr_map<shared_str,motions_value *,stlp_std::less<shared_str>,xalloc<stlp_std::pair<shared_str,motions_value *> > >::xr_map<shared_str,motions_value *,stlp_std::less<shared_str>,xalloc<stlp_std::pair<shared_str,motions_value *> > >
PUBLIC	??1?$xr_vector@U?$pair@MM@stlp_std@@V?$xalloc@U?$pair@MM@stlp_std@@@@@@QAE@XZ ; xr_vector<stlp_std::pair<float,float>,xalloc<stlp_std::pair<float,float> > >::~xr_vector<stlp_std::pair<float,float>,xalloc<stlp_std::pair<float,float> > >
PUBLIC	??0?$_STLP_alloc_proxy@PAU?$pair@MM@stlp_std@@U12@V?$xalloc@U?$pair@MM@stlp_std@@@@@priv@stlp_std@@QAE@ABV?$xalloc@U?$pair@MM@stlp_std@@@@PAU?$pair@MM@2@@Z ; stlp_std::priv::_STLP_alloc_proxy<stlp_std::pair<float,float> *,stlp_std::pair<float,float>,xalloc<stlp_std::pair<float,float> > >::_STLP_alloc_proxy<stlp_std::pair<float,float> *,stlp_std::pair<float,float>,xalloc<stlp_std::pair<float,float> > >
PUBLIC	??0?$_Vector_base@U?$pair@MM@stlp_std@@V?$xalloc@U?$pair@MM@stlp_std@@@@@priv@stlp_std@@QAE@IABV?$xalloc@U?$pair@MM@stlp_std@@@@@Z ; stlp_std::priv::_Vector_base<stlp_std::pair<float,float>,xalloc<stlp_std::pair<float,float> > >::_Vector_base<stlp_std::pair<float,float>,xalloc<stlp_std::pair<float,float> > >
PUBLIC	??0?$xalloc@U?$pair@MM@stlp_std@@@@QAE@ABV0@@Z	; xalloc<stlp_std::pair<float,float> >::xalloc<stlp_std::pair<float,float> >
PUBLIC	?get_allocator@?$_Impl_vector@U?$pair@MM@stlp_std@@V?$xalloc@U?$pair@MM@stlp_std@@@@@priv@stlp_std@@QBE?AV?$xalloc@U?$pair@MM@stlp_std@@@@XZ ; stlp_std::priv::_Impl_vector<stlp_std::pair<float,float>,xalloc<stlp_std::pair<float,float> > >::get_allocator
PUBLIC	??0?$_Impl_vector@U?$pair@MM@stlp_std@@V?$xalloc@U?$pair@MM@stlp_std@@@@@priv@stlp_std@@QAE@ABV012@@Z ; stlp_std::priv::_Impl_vector<stlp_std::pair<float,float>,xalloc<stlp_std::pair<float,float> > >::_Impl_vector<stlp_std::pair<float,float>,xalloc<stlp_std::pair<float,float> > >
PUBLIC	??0?$vector@U?$pair@MM@stlp_std@@V?$xalloc@U?$pair@MM@stlp_std@@@@@stlp_std@@QAE@ABV01@@Z ; stlp_std::vector<stlp_std::pair<float,float>,xalloc<stlp_std::pair<float,float> > >::vector<stlp_std::pair<float,float>,xalloc<stlp_std::pair<float,float> > >
PUBLIC	??1?$_Vector_base@U?$pair@MM@stlp_std@@V?$xalloc@U?$pair@MM@stlp_std@@@@@priv@stlp_std@@QAE@XZ ; stlp_std::priv::_Vector_base<stlp_std::pair<float,float>,xalloc<stlp_std::pair<float,float> > >::~_Vector_base<stlp_std::pair<float,float>,xalloc<stlp_std::pair<float,float> > >
PUBLIC	??1?$_Impl_vector@U?$pair@MM@stlp_std@@V?$xalloc@U?$pair@MM@stlp_std@@@@@priv@stlp_std@@QAE@XZ ; stlp_std::priv::_Impl_vector<stlp_std::pair<float,float>,xalloc<stlp_std::pair<float,float> > >::~_Impl_vector<stlp_std::pair<float,float>,xalloc<stlp_std::pair<float,float> > >
PUBLIC	??1?$vector@U?$pair@MM@stlp_std@@V?$xalloc@U?$pair@MM@stlp_std@@@@@stlp_std@@QAE@XZ ; stlp_std::vector<stlp_std::pair<float,float>,xalloc<stlp_std::pair<float,float> > >::~vector<stlp_std::pair<float,float>,xalloc<stlp_std::pair<float,float> > >
PUBLIC	??0?$xr_vector@U?$pair@MM@stlp_std@@V?$xalloc@U?$pair@MM@stlp_std@@@@@@QAE@ABV0@@Z ; xr_vector<stlp_std::pair<float,float>,xalloc<stlp_std::pair<float,float> > >::xr_vector<stlp_std::pair<float,float>,xalloc<stlp_std::pair<float,float> > >
PUBLIC	??1?$_Rb_tree@Vshared_str@@U?$less@Vshared_str@@@stlp_std@@U?$pair@$$CBVshared_str@@PAUmotions_value@@@3@U?$_Select1st@U?$pair@$$CBVshared_str@@PAUmotions_value@@@stlp_std@@@priv@3@U?$_MapTraitsT@U?$pair@$$CBVshared_str@@PAUmotions_value@@@stlp_std@@@63@V?$xalloc@U?$pair@Vshared_str@@PAUmotions_value@@@stlp_std@@@@@priv@stlp_std@@QAE@XZ ; stlp_std::priv::_Rb_tree<shared_str,stlp_std::less<shared_str>,stlp_std::pair<shared_str const ,motions_value *>,stlp_std::priv::_Select1st<stlp_std::pair<shared_str const ,motions_value *> >,stlp_std::priv::_MapTraitsT<stlp_std::pair<shared_str const ,motions_value *> >,xalloc<stlp_std::pair<shared_str,motions_value *> > >::~_Rb_tree<shared_str,stlp_std::less<shared_str>,stlp_std::pair<shared_str const ,motions_value *>,stlp_std::priv::_Select1st<stlp_std::pair<shared_str const ,motions_value *> >,stlp_std::priv::_MapTraitsT<stlp_std::pair<shared_str const ,motions_value *> >,xalloc<stlp_std::pair<shared_str,motions_value *> > >
PUBLIC	??1?$map@Vshared_str@@PAUmotions_value@@U?$less@Vshared_str@@@stlp_std@@V?$xalloc@U?$pair@Vshared_str@@PAUmotions_value@@@stlp_std@@@@@stlp_std@@QAE@XZ ; stlp_std::map<shared_str,motions_value *,stlp_std::less<shared_str>,xalloc<stlp_std::pair<shared_str,motions_value *> > >::~map<shared_str,motions_value *,stlp_std::less<shared_str>,xalloc<stlp_std::pair<shared_str,motions_value *> > >
PUBLIC	??1?$xr_map@Vshared_str@@PAUmotions_value@@U?$less@Vshared_str@@@stlp_std@@V?$xalloc@U?$pair@Vshared_str@@PAUmotions_value@@@stlp_std@@@@@@QAE@XZ ; xr_map<shared_str,motions_value *,stlp_std::less<shared_str>,xalloc<stlp_std::pair<shared_str,motions_value *> > >::~xr_map<shared_str,motions_value *,stlp_std::less<shared_str>,xalloc<stlp_std::pair<shared_str,motions_value *> > >
PUBLIC	?capacity@?$_Impl_vector@U?$pair@MM@stlp_std@@V?$xalloc@U?$pair@MM@stlp_std@@@@@priv@stlp_std@@QBEIXZ ; stlp_std::priv::_Impl_vector<stlp_std::pair<float,float>,xalloc<stlp_std::pair<float,float> > >::capacity
PUBLIC	?_Answer@?$_BothPtrType@PBU?$pair@MM@stlp_std@@PAU12@@stlp_std@@SA?AU__true_type@2@XZ ; stlp_std::_BothPtrType<stlp_std::pair<float,float> const *,stlp_std::pair<float,float> *>::_Answer
PUBLIC	??$__ucopy_ptrs@PBU?$pair@MM@stlp_std@@PAU12@@priv@stlp_std@@YAPAU?$pair@MM@1@PBU21@0PAU21@ABU__true_type@1@@Z ; stlp_std::priv::__ucopy_ptrs<stlp_std::pair<float,float> const *,stlp_std::pair<float,float> *>
PUBLIC	??$_UseTrivialUCopy@U?$pair@MM@stlp_std@@U12@@stlp_std@@YA?AU?$_TrivialUCopy@U?$pair@MM@stlp_std@@U12@@0@PAU?$pair@MM@0@0@Z ; stlp_std::_UseTrivialUCopy<stlp_std::pair<float,float>,stlp_std::pair<float,float> >
PUBLIC	?_Answer@?$_TrivialUCopy@U?$pair@MM@stlp_std@@U12@@stlp_std@@SA?AU__true_type@2@XZ ; stlp_std::_TrivialUCopy<stlp_std::pair<float,float>,stlp_std::pair<float,float> >::_Answer
PUBLIC	??$__ucopy_aux@PBU?$pair@MM@stlp_std@@PAU12@@priv@stlp_std@@YAPAU?$pair@MM@1@PBU21@0PAU21@ABU__true_type@1@@Z ; stlp_std::priv::__ucopy_aux<stlp_std::pair<float,float> const *,stlp_std::pair<float,float> *>
PUBLIC	??$uninitialized_copy@PBU?$pair@MM@stlp_std@@PAU12@@stlp_std@@YAPAU?$pair@MM@0@PBU10@0PAU10@@Z ; stlp_std::uninitialized_copy<stlp_std::pair<float,float> const *,stlp_std::pair<float,float> *>
PUBLIC	??$_M_allocate_and_copy@PBU?$pair@MM@stlp_std@@@?$_Impl_vector@U?$pair@MM@stlp_std@@V?$xalloc@U?$pair@MM@stlp_std@@@@@priv@stlp_std@@AAEPAU?$pair@MM@2@AAIPBU32@1@Z ; stlp_std::priv::_Impl_vector<stlp_std::pair<float,float>,xalloc<stlp_std::pair<float,float> > >::_M_allocate_and_copy<stlp_std::pair<float,float> const *>
PUBLIC	??$__copy_ptrs@PBU?$pair@MM@stlp_std@@PAU12@@priv@stlp_std@@YAPAU?$pair@MM@1@PBU21@0PAU21@ABU__true_type@1@@Z ; stlp_std::priv::__copy_ptrs<stlp_std::pair<float,float> const *,stlp_std::pair<float,float> *>
PUBLIC	??4?$_Impl_vector@U?$pair@MM@stlp_std@@V?$xalloc@U?$pair@MM@stlp_std@@@@@priv@stlp_std@@QAEAAV012@ABV012@@Z ; stlp_std::priv::_Impl_vector<stlp_std::pair<float,float>,xalloc<stlp_std::pair<float,float> > >::operator=
PUBLIC	??4?$vector@U?$pair@MM@stlp_std@@V?$xalloc@U?$pair@MM@stlp_std@@@@@stlp_std@@QAEAAV01@ABV01@@Z ; stlp_std::vector<stlp_std::pair<float,float>,xalloc<stlp_std::pair<float,float> > >::operator=
PUBLIC	??4?$xr_vector@U?$pair@MM@stlp_std@@V?$xalloc@U?$pair@MM@stlp_std@@@@@@QAEAAV0@ABV0@@Z ; xr_vector<stlp_std::pair<float,float>,xalloc<stlp_std::pair<float,float> > >::operator=
PUBLIC	??$xr_alloc@U?$_Rb_tree_node@U?$pair@$$CBVshared_str@@PAUmotions_value@@@stlp_std@@@priv@stlp_std@@@@YAPAU?$_Rb_tree_node@U?$pair@$$CBVshared_str@@PAUmotions_value@@@stlp_std@@@priv@stlp_std@@I@Z ; xr_alloc<stlp_std::priv::_Rb_tree_node<stlp_std::pair<shared_str const ,motions_value *> > >
PUBLIC	?allocate@?$xalloc@U?$_Rb_tree_node@U?$pair@$$CBVshared_str@@PAUmotions_value@@@stlp_std@@@priv@stlp_std@@@@QBEPAU?$_Rb_tree_node@U?$pair@$$CBVshared_str@@PAUmotions_value@@@stlp_std@@@priv@stlp_std@@IPBX@Z ; xalloc<stlp_std::priv::_Rb_tree_node<stlp_std::pair<shared_str const ,motions_value *> > >::allocate
PUBLIC	?allocate@?$_STLP_alloc_proxy@U_Rb_tree_node_base@priv@stlp_std@@U?$_Rb_tree_node@U?$pair@$$CBVshared_str@@PAUmotions_value@@@stlp_std@@@23@V?$xalloc@U?$_Rb_tree_node@U?$pair@$$CBVshared_str@@PAUmotions_value@@@stlp_std@@@priv@stlp_std@@@@@priv@stlp_std@@QAEPAU?$_Rb_tree_node@U?$pair@$$CBVshared_str@@PAUmotions_value@@@stlp_std@@@23@I@Z ; stlp_std::priv::_STLP_alloc_proxy<stlp_std::priv::_Rb_tree_node_base,stlp_std::priv::_Rb_tree_node<stlp_std::pair<shared_str const ,motions_value *> >,xalloc<stlp_std::priv::_Rb_tree_node<stlp_std::pair<shared_str const ,motions_value *> > > >::allocate
PUBLIC	??0?$pair@$$CBVshared_str@@PAUmotions_value@@@stlp_std@@QAE@ABU01@@Z ; stlp_std::pair<shared_str const ,motions_value *>::pair<shared_str const ,motions_value *>
PUBLIC	??$_Copy_Construct@U?$pair@$$CBVshared_str@@PAUmotions_value@@@stlp_std@@@stlp_std@@YAXPAU?$pair@$$CBVshared_str@@PAUmotions_value@@@0@ABU10@@Z ; stlp_std::_Copy_Construct<stlp_std::pair<shared_str const ,motions_value *> >
PUBLIC	?_M_create_node@?$_Rb_tree@Vshared_str@@U?$less@Vshared_str@@@stlp_std@@U?$pair@$$CBVshared_str@@PAUmotions_value@@@3@U?$_Select1st@U?$pair@$$CBVshared_str@@PAUmotions_value@@@stlp_std@@@priv@3@U?$_MapTraitsT@U?$pair@$$CBVshared_str@@PAUmotions_value@@@stlp_std@@@63@V?$xalloc@U?$pair@Vshared_str@@PAUmotions_value@@@stlp_std@@@@@priv@stlp_std@@IAEPAU_Rb_tree_node_base@23@ABU?$pair@$$CBVshared_str@@PAUmotions_value@@@3@@Z ; stlp_std::priv::_Rb_tree<shared_str,stlp_std::less<shared_str>,stlp_std::pair<shared_str const ,motions_value *>,stlp_std::priv::_Select1st<stlp_std::pair<shared_str const ,motions_value *> >,stlp_std::priv::_MapTraitsT<stlp_std::pair<shared_str const ,motions_value *> >,xalloc<stlp_std::pair<shared_str,motions_value *> > >::_M_create_node
PUBLIC	?_S_parent@?$_Rb_tree@Vshared_str@@U?$less@Vshared_str@@@stlp_std@@U?$pair@$$CBVshared_str@@PAUmotions_value@@@3@U?$_Select1st@U?$pair@$$CBVshared_str@@PAUmotions_value@@@stlp_std@@@priv@3@U?$_MapTraitsT@U?$pair@$$CBVshared_str@@PAUmotions_value@@@stlp_std@@@63@V?$xalloc@U?$pair@Vshared_str@@PAUmotions_value@@@stlp_std@@@@@priv@stlp_std@@KAAAPAU_Rb_tree_node_base@23@PAU423@@Z ; stlp_std::priv::_Rb_tree<shared_str,stlp_std::less<shared_str>,stlp_std::pair<shared_str const ,motions_value *>,stlp_std::priv::_Select1st<stlp_std::pair<shared_str const ,motions_value *> >,stlp_std::priv::_MapTraitsT<stlp_std::pair<shared_str const ,motions_value *> >,xalloc<stlp_std::pair<shared_str,motions_value *> > >::_S_parent
PUBLIC	?_M_insert@?$_Rb_tree@Vshared_str@@U?$less@Vshared_str@@@stlp_std@@U?$pair@$$CBVshared_str@@PAUmotions_value@@@3@U?$_Select1st@U?$pair@$$CBVshared_str@@PAUmotions_value@@@stlp_std@@@priv@3@U?$_MapTraitsT@U?$pair@$$CBVshared_str@@PAUmotions_value@@@stlp_std@@@63@V?$xalloc@U?$pair@Vshared_str@@PAUmotions_value@@@stlp_std@@@@@priv@stlp_std@@AAE?AU?$_Rb_tree_iterator@U?$pair@$$CBVshared_str@@PAUmotions_value@@@stlp_std@@U?$_MapTraitsT@U?$pair@$$CBVshared_str@@PAUmotions_value@@@stlp_std@@@priv@2@@23@PAU_Rb_tree_node_base@23@ABU?$pair@$$CBVshared_str@@PAUmotions_value@@@3@00@Z ; stlp_std::priv::_Rb_tree<shared_str,stlp_std::less<shared_str>,stlp_std::pair<shared_str const ,motions_value *>,stlp_std::priv::_Select1st<stlp_std::pair<shared_str const ,motions_value *> >,stlp_std::priv::_MapTraitsT<stlp_std::pair<shared_str const ,motions_value *> >,xalloc<stlp_std::pair<shared_str,motions_value *> > >::_M_insert
PUBLIC	??F?$_Rb_tree_iterator@U?$pair@$$CBVshared_str@@PAUmotions_value@@@stlp_std@@U?$_MapTraitsT@U?$pair@$$CBVshared_str@@PAUmotions_value@@@stlp_std@@@priv@2@@priv@stlp_std@@QAEAAU012@XZ ; stlp_std::priv::_Rb_tree_iterator<stlp_std::pair<shared_str const ,motions_value *>,stlp_std::priv::_MapTraitsT<stlp_std::pair<shared_str const ,motions_value *> > >::operator--
PUBLIC	??8?$_Rb_tree_iterator@U?$pair@$$CBVshared_str@@PAUmotions_value@@@stlp_std@@U?$_MapTraitsT@U?$pair@$$CBVshared_str@@PAUmotions_value@@@stlp_std@@@priv@2@@priv@stlp_std@@QBE_NU?$_Rb_tree_iterator@U?$pair@$$CBVshared_str@@PAUmotions_value@@@stlp_std@@U?$_ConstMapTraitsT@U?$pair@$$CBVshared_str@@PAUmotions_value@@@stlp_std@@@priv@2@@12@@Z ; stlp_std::priv::_Rb_tree_iterator<stlp_std::pair<shared_str const ,motions_value *>,stlp_std::priv::_MapTraitsT<stlp_std::pair<shared_str const ,motions_value *> > >::operator==
PUBLIC	??0?$pair@U?$_Rb_tree_iterator@U?$pair@$$CBVshared_str@@PAUmotions_value@@@stlp_std@@U?$_MapTraitsT@U?$pair@$$CBVshared_str@@PAUmotions_value@@@stlp_std@@@priv@2@@priv@stlp_std@@_N@stlp_std@@QAE@ABU?$_Rb_tree_iterator@U?$pair@$$CBVshared_str@@PAUmotions_value@@@stlp_std@@U?$_MapTraitsT@U?$pair@$$CBVshared_str@@PAUmotions_value@@@stlp_std@@@priv@2@@priv@1@AB_N@Z ; stlp_std::pair<stlp_std::priv::_Rb_tree_iterator<stlp_std::pair<shared_str const ,motions_value *>,stlp_std::priv::_MapTraitsT<stlp_std::pair<shared_str const ,motions_value *> > >,bool>::pair<stlp_std::priv::_Rb_tree_iterator<stlp_std::pair<shared_str const ,motions_value *>,stlp_std::priv::_MapTraitsT<stlp_std::pair<shared_str const ,motions_value *> > >,bool>
PUBLIC	?insert_unique@?$_Rb_tree@Vshared_str@@U?$less@Vshared_str@@@stlp_std@@U?$pair@$$CBVshared_str@@PAUmotions_value@@@3@U?$_Select1st@U?$pair@$$CBVshared_str@@PAUmotions_value@@@stlp_std@@@priv@3@U?$_MapTraitsT@U?$pair@$$CBVshared_str@@PAUmotions_value@@@stlp_std@@@63@V?$xalloc@U?$pair@Vshared_str@@PAUmotions_value@@@stlp_std@@@@@priv@stlp_std@@QAE?AU?$pair@U?$_Rb_tree_iterator@U?$pair@$$CBVshared_str@@PAUmotions_value@@@stlp_std@@U?$_MapTraitsT@U?$pair@$$CBVshared_str@@PAUmotions_value@@@stlp_std@@@priv@2@@priv@stlp_std@@_N@3@ABU?$pair@$$CBVshared_str@@PAUmotions_value@@@3@@Z ; stlp_std::priv::_Rb_tree<shared_str,stlp_std::less<shared_str>,stlp_std::pair<shared_str const ,motions_value *>,stlp_std::priv::_Select1st<stlp_std::pair<shared_str const ,motions_value *> >,stlp_std::priv::_MapTraitsT<stlp_std::pair<shared_str const ,motions_value *> >,xalloc<stlp_std::pair<shared_str,motions_value *> > >::insert_unique
PUBLIC	?insert@?$map@Vshared_str@@PAUmotions_value@@U?$less@Vshared_str@@@stlp_std@@V?$xalloc@U?$pair@Vshared_str@@PAUmotions_value@@@stlp_std@@@@@stlp_std@@QAE?AU?$pair@U?$_Rb_tree_iterator@U?$pair@$$CBVshared_str@@PAUmotions_value@@@stlp_std@@U?$_MapTraitsT@U?$pair@$$CBVshared_str@@PAUmotions_value@@@stlp_std@@@priv@2@@priv@stlp_std@@_N@2@ABU?$pair@$$CBVshared_str@@PAUmotions_value@@@2@@Z ; stlp_std::map<shared_str,motions_value *,stlp_std::less<shared_str>,xalloc<stlp_std::pair<shared_str,motions_value *> > >::insert
PUBLIC	??R?$less@Vshared_str@@@stlp_std@@QBE_NABVshared_str@@0@Z ; stlp_std::less<shared_str>::operator()
PUBLIC	?_M_root@?$_Rb_tree@Vshared_str@@U?$less@Vshared_str@@@stlp_std@@U?$pair@$$CBVshared_str@@PAUmotions_value@@@3@U?$_Select1st@U?$pair@$$CBVshared_str@@PAUmotions_value@@@stlp_std@@@priv@3@U?$_MapTraitsT@U?$pair@$$CBVshared_str@@PAUmotions_value@@@stlp_std@@@63@V?$xalloc@U?$pair@Vshared_str@@PAUmotions_value@@@stlp_std@@@@@priv@stlp_std@@IBEPAU_Rb_tree_node_base@23@XZ ; stlp_std::priv::_Rb_tree<shared_str,stlp_std::less<shared_str>,stlp_std::pair<shared_str const ,motions_value *>,stlp_std::priv::_Select1st<stlp_std::pair<shared_str const ,motions_value *> >,stlp_std::priv::_MapTraitsT<stlp_std::pair<shared_str const ,motions_value *> >,xalloc<stlp_std::pair<shared_str,motions_value *> > >::_M_root
PUBLIC	??R?$_Select1st@U?$pair@$$CBVshared_str@@PAUmotions_value@@@stlp_std@@@priv@stlp_std@@QBEABVshared_str@@ABU?$pair@$$CBVshared_str@@PAUmotions_value@@@2@@Z ; stlp_std::priv::_Select1st<stlp_std::pair<shared_str const ,motions_value *> >::operator()
PUBLIC	?_S_key@?$_Rb_tree@Vshared_str@@U?$less@Vshared_str@@@stlp_std@@U?$pair@$$CBVshared_str@@PAUmotions_value@@@3@U?$_Select1st@U?$pair@$$CBVshared_str@@PAUmotions_value@@@stlp_std@@@priv@3@U?$_MapTraitsT@U?$pair@$$CBVshared_str@@PAUmotions_value@@@stlp_std@@@63@V?$xalloc@U?$pair@Vshared_str@@PAUmotions_value@@@stlp_std@@@@@priv@stlp_std@@KAABVshared_str@@PAU_Rb_tree_node_base@23@@Z ; stlp_std::priv::_Rb_tree<shared_str,stlp_std::less<shared_str>,stlp_std::pair<shared_str const ,motions_value *>,stlp_std::priv::_Select1st<stlp_std::pair<shared_str const ,motions_value *> >,stlp_std::priv::_MapTraitsT<stlp_std::pair<shared_str const ,motions_value *> >,xalloc<stlp_std::pair<shared_str,motions_value *> > >::_S_key
PUBLIC	??$_M_find@Vshared_str@@@?$_Rb_tree@Vshared_str@@U?$less@Vshared_str@@@stlp_std@@U?$pair@$$CBVshared_str@@PAUmotions_value@@@3@U?$_Select1st@U?$pair@$$CBVshared_str@@PAUmotions_value@@@stlp_std@@@priv@3@U?$_MapTraitsT@U?$pair@$$CBVshared_str@@PAUmotions_value@@@stlp_std@@@63@V?$xalloc@U?$pair@Vshared_str@@PAUmotions_value@@@stlp_std@@@@@priv@stlp_std@@ABEPAU_Rb_tree_node_base@12@ABVshared_str@@@Z ; stlp_std::priv::_Rb_tree<shared_str,stlp_std::less<shared_str>,stlp_std::pair<shared_str const ,motions_value *>,stlp_std::priv::_Select1st<stlp_std::pair<shared_str const ,motions_value *> >,stlp_std::priv::_MapTraitsT<stlp_std::pair<shared_str const ,motions_value *> >,xalloc<stlp_std::pair<shared_str,motions_value *> > >::_M_find<shared_str>
PUBLIC	??$find@Vshared_str@@@?$_Rb_tree@Vshared_str@@U?$less@Vshared_str@@@stlp_std@@U?$pair@$$CBVshared_str@@PAUmotions_value@@@3@U?$_Select1st@U?$pair@$$CBVshared_str@@PAUmotions_value@@@stlp_std@@@priv@3@U?$_MapTraitsT@U?$pair@$$CBVshared_str@@PAUmotions_value@@@stlp_std@@@63@V?$xalloc@U?$pair@Vshared_str@@PAUmotions_value@@@stlp_std@@@@@priv@stlp_std@@QAE?AU?$_Rb_tree_iterator@U?$pair@$$CBVshared_str@@PAUmotions_value@@@stlp_std@@U?$_MapTraitsT@U?$pair@$$CBVshared_str@@PAUmotions_value@@@stlp_std@@@priv@2@@12@ABVshared_str@@@Z ; stlp_std::priv::_Rb_tree<shared_str,stlp_std::less<shared_str>,stlp_std::pair<shared_str const ,motions_value *>,stlp_std::priv::_Select1st<stlp_std::pair<shared_str const ,motions_value *> >,stlp_std::priv::_MapTraitsT<stlp_std::pair<shared_str const ,motions_value *> >,xalloc<stlp_std::pair<shared_str,motions_value *> > >::find<shared_str>
PUBLIC	??$find@Vshared_str@@@?$map@Vshared_str@@PAUmotions_value@@U?$less@Vshared_str@@@stlp_std@@V?$xalloc@U?$pair@Vshared_str@@PAUmotions_value@@@stlp_std@@@@@stlp_std@@QAE?AU?$_Rb_tree_iterator@U?$pair@$$CBVshared_str@@PAUmotions_value@@@stlp_std@@U?$_MapTraitsT@U?$pair@$$CBVshared_str@@PAUmotions_value@@@stlp_std@@@priv@2@@priv@1@ABVshared_str@@@Z ; stlp_std::map<shared_str,motions_value *,stlp_std::less<shared_str>,xalloc<stlp_std::pair<shared_str,motions_value *> > >::find<shared_str>
PUBLIC	??$xr_new@Umotions_value@@@@YAPAUmotions_value@@XZ ; xr_new<motions_value>
PUBLIC	??0?$pair@Vshared_str@@PAUmotions_value@@@stlp_std@@QAE@ABVshared_str@@ABQAUmotions_value@@@Z ; stlp_std::pair<shared_str,motions_value *>::pair<shared_str,motions_value *>
PUBLIC	??$mk_pair@Vshared_str@@PAUmotions_value@@@@YA?AU?$pair@Vshared_str@@PAUmotions_value@@@stlp_std@@Vshared_str@@PAUmotions_value@@@Z ; mk_pair<shared_str,motions_value *>
PUBLIC	??1?$pair@Vshared_str@@PAUmotions_value@@@stlp_std@@QAE@XZ ; stlp_std::pair<shared_str,motions_value *>::~pair<shared_str,motions_value *>
PUBLIC	??$?0Vshared_str@@PAUmotions_value@@@?$pair@$$CBVshared_str@@PAUmotions_value@@@stlp_std@@QAE@ABU?$pair@Vshared_str@@PAUmotions_value@@@1@@Z ; stlp_std::pair<shared_str const ,motions_value *>::pair<shared_str const ,motions_value *><shared_str,motions_value *>
PUBLIC	?end@?$vector@VCMotionDef@@V?$xalloc@VCMotionDef@@@@@stlp_std@@QAEPAVCMotionDef@@XZ ; stlp_std::vector<CMotionDef,xalloc<CMotionDef> >::end
PUBLIC	?begin@?$vector@VCMotion@@V?$xalloc@VCMotion@@@@@stlp_std@@QAEPAVCMotion@@XZ ; stlp_std::vector<CMotion,xalloc<CMotion> >::begin
PUBLIC	?to_value_type_ptr@?$_CastTraits@VCMotion@@V1@@priv@stlp_std@@SAPAVCMotion@@PAV4@@Z ; stlp_std::priv::_CastTraits<CMotion,CMotion>::to_value_type_ptr
PUBLIC	?end@?$vector@VCMotion@@V?$xalloc@VCMotion@@@@@stlp_std@@QAEPAVCMotion@@XZ ; stlp_std::vector<CMotion,xalloc<CMotion> >::end
PUBLIC	?begin@?$_Rb_tree@Vshared_str@@U?$less@Vshared_str@@@stlp_std@@U?$pair@$$CBVshared_str@@V?$xr_vector@VCMotion@@V?$xalloc@VCMotion@@@@@@@3@U?$_Select1st@U?$pair@$$CBVshared_str@@V?$xr_vector@VCMotion@@V?$xalloc@VCMotion@@@@@@@stlp_std@@@priv@3@U?$_MapTraitsT@U?$pair@$$CBVshared_str@@V?$xr_vector@VCMotion@@V?$xalloc@VCMotion@@@@@@@stlp_std@@@63@V?$xalloc@U?$pair@Vshared_str@@V?$xr_vector@VCMotion@@V?$xalloc@VCMotion@@@@@@@stlp_std@@@@@priv@stlp_std@@QAE?AU?$_Rb_tree_iterator@U?$pair@$$CBVshared_str@@V?$xr_vector@VCMotion@@V?$xalloc@VCMotion@@@@@@@stlp_std@@U?$_MapTraitsT@U?$pair@$$CBVshared_str@@V?$xr_vector@VCMotion@@V?$xalloc@VCMotion@@@@@@@stlp_std@@@priv@2@@23@XZ ; stlp_std::priv::_Rb_tree<shared_str,stlp_std::less<shared_str>,stlp_std::pair<shared_str const ,xr_vector<CMotion,xalloc<CMotion> > >,stlp_std::priv::_Select1st<stlp_std::pair<shared_str const ,xr_vector<CMotion,xalloc<CMotion> > > >,stlp_std::priv::_MapTraitsT<stlp_std::pair<shared_str const ,xr_vector<CMotion,xalloc<CMotion> > > >,xalloc<stlp_std::pair<shared_str,xr_vector<CMotion,xalloc<CMotion> > > > >::begin
PUBLIC	?begin@?$map@Vshared_str@@V?$xr_vector@VCMotion@@V?$xalloc@VCMotion@@@@@@U?$less@Vshared_str@@@stlp_std@@V?$xalloc@U?$pair@Vshared_str@@V?$xr_vector@VCMotion@@V?$xalloc@VCMotion@@@@@@@stlp_std@@@@@stlp_std@@QAE?AU?$_Rb_tree_iterator@U?$pair@$$CBVshared_str@@V?$xr_vector@VCMotion@@V?$xalloc@VCMotion@@@@@@@stlp_std@@U?$_MapTraitsT@U?$pair@$$CBVshared_str@@V?$xr_vector@VCMotion@@V?$xalloc@VCMotion@@@@@@@stlp_std@@@priv@2@@priv@2@XZ ; stlp_std::map<shared_str,xr_vector<CMotion,xalloc<CMotion> >,stlp_std::less<shared_str>,xalloc<stlp_std::pair<shared_str,xr_vector<CMotion,xalloc<CMotion> > > > >::begin
PUBLIC	??0?$_Rb_tree_iterator@U?$pair@$$CBVshared_str@@V?$xr_vector@VCMotion@@V?$xalloc@VCMotion@@@@@@@stlp_std@@U?$_MapTraitsT@U?$pair@$$CBVshared_str@@V?$xr_vector@VCMotion@@V?$xalloc@VCMotion@@@@@@@stlp_std@@@priv@2@@priv@stlp_std@@QAE@PAU_Rb_tree_node_base@12@@Z ; stlp_std::priv::_Rb_tree_iterator<stlp_std::pair<shared_str const ,xr_vector<CMotion,xalloc<CMotion> > >,stlp_std::priv::_MapTraitsT<stlp_std::pair<shared_str const ,xr_vector<CMotion,xalloc<CMotion> > > > >::_Rb_tree_iterator<stlp_std::pair<shared_str const ,xr_vector<CMotion,xalloc<CMotion> > >,stlp_std::priv::_MapTraitsT<stlp_std::pair<shared_str const ,xr_vector<CMotion,xalloc<CMotion> > > > >
PUBLIC	?end@?$_Rb_tree@Vshared_str@@U?$less@Vshared_str@@@stlp_std@@U?$pair@$$CBVshared_str@@V?$xr_vector@VCMotion@@V?$xalloc@VCMotion@@@@@@@3@U?$_Select1st@U?$pair@$$CBVshared_str@@V?$xr_vector@VCMotion@@V?$xalloc@VCMotion@@@@@@@stlp_std@@@priv@3@U?$_MapTraitsT@U?$pair@$$CBVshared_str@@V?$xr_vector@VCMotion@@V?$xalloc@VCMotion@@@@@@@stlp_std@@@63@V?$xalloc@U?$pair@Vshared_str@@V?$xr_vector@VCMotion@@V?$xalloc@VCMotion@@@@@@@stlp_std@@@@@priv@stlp_std@@QAE?AU?$_Rb_tree_iterator@U?$pair@$$CBVshared_str@@V?$xr_vector@VCMotion@@V?$xalloc@VCMotion@@@@@@@stlp_std@@U?$_MapTraitsT@U?$pair@$$CBVshared_str@@V?$xr_vector@VCMotion@@V?$xalloc@VCMotion@@@@@@@stlp_std@@@priv@2@@23@XZ ; stlp_std::priv::_Rb_tree<shared_str,stlp_std::less<shared_str>,stlp_std::pair<shared_str const ,xr_vector<CMotion,xalloc<CMotion> > >,stlp_std::priv::_Select1st<stlp_std::pair<shared_str const ,xr_vector<CMotion,xalloc<CMotion> > > >,stlp_std::priv::_MapTraitsT<stlp_std::pair<shared_str const ,xr_vector<CMotion,xalloc<CMotion> > > >,xalloc<stlp_std::pair<shared_str,xr_vector<CMotion,xalloc<CMotion> > > > >::end
PUBLIC	?end@?$map@Vshared_str@@V?$xr_vector@VCMotion@@V?$xalloc@VCMotion@@@@@@U?$less@Vshared_str@@@stlp_std@@V?$xalloc@U?$pair@Vshared_str@@V?$xr_vector@VCMotion@@V?$xalloc@VCMotion@@@@@@@stlp_std@@@@@stlp_std@@QAE?AU?$_Rb_tree_iterator@U?$pair@$$CBVshared_str@@V?$xr_vector@VCMotion@@V?$xalloc@VCMotion@@@@@@@stlp_std@@U?$_MapTraitsT@U?$pair@$$CBVshared_str@@V?$xr_vector@VCMotion@@V?$xalloc@VCMotion@@@@@@@stlp_std@@@priv@2@@priv@2@XZ ; stlp_std::map<shared_str,xr_vector<CMotion,xalloc<CMotion> >,stlp_std::less<shared_str>,xalloc<stlp_std::pair<shared_str,xr_vector<CMotion,xalloc<CMotion> > > > >::end
PUBLIC	?size@?$_Rb_tree@Vshared_str@@Uaccel_str_pred@@U?$pair@$$CBVshared_str@@G@stlp_std@@U?$_Select1st@U?$pair@$$CBVshared_str@@G@stlp_std@@@priv@4@U?$_MapTraitsT@U?$pair@$$CBVshared_str@@G@stlp_std@@@64@V?$xalloc@U?$pair@Vshared_str@@G@stlp_std@@@@@priv@stlp_std@@QBEIXZ ; stlp_std::priv::_Rb_tree<shared_str,accel_str_pred,stlp_std::pair<shared_str const ,unsigned short>,stlp_std::priv::_Select1st<stlp_std::pair<shared_str const ,unsigned short> >,stlp_std::priv::_MapTraitsT<stlp_std::pair<shared_str const ,unsigned short> >,xalloc<stlp_std::pair<shared_str,unsigned short> > >::size
PUBLIC	?size@?$map@Vshared_str@@GUaccel_str_pred@@V?$xalloc@U?$pair@Vshared_str@@G@stlp_std@@@@@stlp_std@@QBEIXZ ; stlp_std::map<shared_str,unsigned short,accel_str_pred,xalloc<stlp_std::pair<shared_str,unsigned short> > >::size
PUBLIC	?size@?$xr_map@Vshared_str@@GUaccel_str_pred@@V?$xalloc@U?$pair@Vshared_str@@G@stlp_std@@@@@@QBEIXZ ; xr_map<shared_str,unsigned short,accel_str_pred,xalloc<stlp_std::pair<shared_str,unsigned short> > >::size
PUBLIC	??D?$_Rb_tree_iterator@U?$pair@$$CBVshared_str@@V?$xr_vector@VCMotion@@V?$xalloc@VCMotion@@@@@@@stlp_std@@U?$_MapTraitsT@U?$pair@$$CBVshared_str@@V?$xr_vector@VCMotion@@V?$xalloc@VCMotion@@@@@@@stlp_std@@@priv@2@@priv@stlp_std@@QBEAAU?$pair@$$CBVshared_str@@V?$xr_vector@VCMotion@@V?$xalloc@VCMotion@@@@@@@2@XZ ; stlp_std::priv::_Rb_tree_iterator<stlp_std::pair<shared_str const ,xr_vector<CMotion,xalloc<CMotion> > >,stlp_std::priv::_MapTraitsT<stlp_std::pair<shared_str const ,xr_vector<CMotion,xalloc<CMotion> > > > >::operator*
PUBLIC	??C?$_Rb_tree_iterator@U?$pair@$$CBVshared_str@@V?$xr_vector@VCMotion@@V?$xalloc@VCMotion@@@@@@@stlp_std@@U?$_MapTraitsT@U?$pair@$$CBVshared_str@@V?$xr_vector@VCMotion@@V?$xalloc@VCMotion@@@@@@@stlp_std@@@priv@2@@priv@stlp_std@@QBEPAU?$pair@$$CBVshared_str@@V?$xr_vector@VCMotion@@V?$xalloc@VCMotion@@@@@@@2@XZ ; stlp_std::priv::_Rb_tree_iterator<stlp_std::pair<shared_str const ,xr_vector<CMotion,xalloc<CMotion> > >,stlp_std::priv::_MapTraitsT<stlp_std::pair<shared_str const ,xr_vector<CMotion,xalloc<CMotion> > > > >::operator->
PUBLIC	??0?$_Rb_tree_iterator@U?$pair@$$CBVshared_str@@V?$xr_vector@VCMotion@@V?$xalloc@VCMotion@@@@@@@stlp_std@@U?$_MapTraitsT@U?$pair@$$CBVshared_str@@V?$xr_vector@VCMotion@@V?$xalloc@VCMotion@@@@@@@stlp_std@@@priv@2@@priv@stlp_std@@QAE@ABU012@@Z ; stlp_std::priv::_Rb_tree_iterator<stlp_std::pair<shared_str const ,xr_vector<CMotion,xalloc<CMotion> > >,stlp_std::priv::_MapTraitsT<stlp_std::pair<shared_str const ,xr_vector<CMotion,xalloc<CMotion> > > > >::_Rb_tree_iterator<stlp_std::pair<shared_str const ,xr_vector<CMotion,xalloc<CMotion> > >,stlp_std::priv::_MapTraitsT<stlp_std::pair<shared_str const ,xr_vector<CMotion,xalloc<CMotion> > > > >
PUBLIC	??E?$_Rb_tree_iterator@U?$pair@$$CBVshared_str@@V?$xr_vector@VCMotion@@V?$xalloc@VCMotion@@@@@@@stlp_std@@U?$_MapTraitsT@U?$pair@$$CBVshared_str@@V?$xr_vector@VCMotion@@V?$xalloc@VCMotion@@@@@@@stlp_std@@@priv@2@@priv@stlp_std@@QAEAAU012@XZ ; stlp_std::priv::_Rb_tree_iterator<stlp_std::pair<shared_str const ,xr_vector<CMotion,xalloc<CMotion> > >,stlp_std::priv::_MapTraitsT<stlp_std::pair<shared_str const ,xr_vector<CMotion,xalloc<CMotion> > > > >::operator++
PUBLIC	??E?$_Rb_tree_iterator@U?$pair@$$CBVshared_str@@V?$xr_vector@VCMotion@@V?$xalloc@VCMotion@@@@@@@stlp_std@@U?$_MapTraitsT@U?$pair@$$CBVshared_str@@V?$xr_vector@VCMotion@@V?$xalloc@VCMotion@@@@@@@stlp_std@@@priv@2@@priv@stlp_std@@QAE?AU012@H@Z ; stlp_std::priv::_Rb_tree_iterator<stlp_std::pair<shared_str const ,xr_vector<CMotion,xalloc<CMotion> > >,stlp_std::priv::_MapTraitsT<stlp_std::pair<shared_str const ,xr_vector<CMotion,xalloc<CMotion> > > > >::operator++
PUBLIC	??9?$_Rb_tree_iterator@U?$pair@$$CBVshared_str@@V?$xr_vector@VCMotion@@V?$xalloc@VCMotion@@@@@@@stlp_std@@U?$_MapTraitsT@U?$pair@$$CBVshared_str@@V?$xr_vector@VCMotion@@V?$xalloc@VCMotion@@@@@@@stlp_std@@@priv@2@@priv@stlp_std@@QBE_NU?$_Rb_tree_iterator@U?$pair@$$CBVshared_str@@V?$xr_vector@VCMotion@@V?$xalloc@VCMotion@@@@@@@stlp_std@@U?$_ConstMapTraitsT@U?$pair@$$CBVshared_str@@V?$xr_vector@VCMotion@@V?$xalloc@VCMotion@@@@@@@stlp_std@@@priv@2@@12@@Z ; stlp_std::priv::_Rb_tree_iterator<stlp_std::pair<shared_str const ,xr_vector<CMotion,xalloc<CMotion> > >,stlp_std::priv::_MapTraitsT<stlp_std::pair<shared_str const ,xr_vector<CMotion,xalloc<CMotion> > > > >::operator!=
PUBLIC	??0?$_Rb_tree_iterator@U?$pair@$$CBVshared_str@@V?$xr_vector@VCMotion@@V?$xalloc@VCMotion@@@@@@@stlp_std@@U?$_ConstMapTraitsT@U?$pair@$$CBVshared_str@@V?$xr_vector@VCMotion@@V?$xalloc@VCMotion@@@@@@@stlp_std@@@priv@2@@priv@stlp_std@@QAE@ABU?$_Rb_tree_iterator@U?$pair@$$CBVshared_str@@V?$xr_vector@VCMotion@@V?$xalloc@VCMotion@@@@@@@stlp_std@@U?$_MapTraitsT@U?$pair@$$CBVshared_str@@V?$xr_vector@VCMotion@@V?$xalloc@VCMotion@@@@@@@stlp_std@@@priv@2@@12@@Z ; stlp_std::priv::_Rb_tree_iterator<stlp_std::pair<shared_str const ,xr_vector<CMotion,xalloc<CMotion> > >,stlp_std::priv::_ConstMapTraitsT<stlp_std::pair<shared_str const ,xr_vector<CMotion,xalloc<CMotion> > > > >::_Rb_tree_iterator<stlp_std::pair<shared_str const ,xr_vector<CMotion,xalloc<CMotion> > >,stlp_std::priv::_ConstMapTraitsT<stlp_std::pair<shared_str const ,xr_vector<CMotion,xalloc<CMotion> > > > >
PUBLIC	?erase@?$_Rb_tree@Vshared_str@@U?$less@Vshared_str@@@stlp_std@@U?$pair@$$CBVshared_str@@PAUmotions_value@@@3@U?$_Select1st@U?$pair@$$CBVshared_str@@PAUmotions_value@@@stlp_std@@@priv@3@U?$_MapTraitsT@U?$pair@$$CBVshared_str@@PAUmotions_value@@@stlp_std@@@63@V?$xalloc@U?$pair@Vshared_str@@PAUmotions_value@@@stlp_std@@@@@priv@stlp_std@@QAEXU?$_Rb_tree_iterator@U?$pair@$$CBVshared_str@@PAUmotions_value@@@stlp_std@@U?$_MapTraitsT@U?$pair@$$CBVshared_str@@PAUmotions_value@@@stlp_std@@@priv@2@@23@@Z ; stlp_std::priv::_Rb_tree<shared_str,stlp_std::less<shared_str>,stlp_std::pair<shared_str const ,motions_value *>,stlp_std::priv::_Select1st<stlp_std::pair<shared_str const ,motions_value *> >,stlp_std::priv::_MapTraitsT<stlp_std::pair<shared_str const ,motions_value *> >,xalloc<stlp_std::pair<shared_str,motions_value *> > >::erase
PUBLIC	?erase@?$map@Vshared_str@@PAUmotions_value@@U?$less@Vshared_str@@@stlp_std@@V?$xalloc@U?$pair@Vshared_str@@PAUmotions_value@@@stlp_std@@@@@stlp_std@@QAEXU?$_Rb_tree_iterator@U?$pair@$$CBVshared_str@@PAUmotions_value@@@stlp_std@@U?$_MapTraitsT@U?$pair@$$CBVshared_str@@PAUmotions_value@@@stlp_std@@@priv@2@@priv@2@@Z ; stlp_std::map<shared_str,motions_value *,stlp_std::less<shared_str>,xalloc<stlp_std::pair<shared_str,motions_value *> > >::erase
PUBLIC	?_M_root@?$_Rb_tree@Vshared_str@@U?$less@Vshared_str@@@stlp_std@@U?$pair@$$CBVshared_str@@PAUmotions_value@@@3@U?$_Select1st@U?$pair@$$CBVshared_str@@PAUmotions_value@@@stlp_std@@@priv@3@U?$_MapTraitsT@U?$pair@$$CBVshared_str@@PAUmotions_value@@@stlp_std@@@63@V?$xalloc@U?$pair@Vshared_str@@PAUmotions_value@@@stlp_std@@@@@priv@stlp_std@@IAEAAPAU_Rb_tree_node_base@23@XZ ; stlp_std::priv::_Rb_tree<shared_str,stlp_std::less<shared_str>,stlp_std::pair<shared_str const ,motions_value *>,stlp_std::priv::_Select1st<stlp_std::pair<shared_str const ,motions_value *> >,stlp_std::priv::_MapTraitsT<stlp_std::pair<shared_str const ,motions_value *> >,xalloc<stlp_std::pair<shared_str,motions_value *> > >::_M_root
PUBLIC	?_M_rightmost@?$_Rb_tree@Vshared_str@@U?$less@Vshared_str@@@stlp_std@@U?$pair@$$CBVshared_str@@PAUmotions_value@@@3@U?$_Select1st@U?$pair@$$CBVshared_str@@PAUmotions_value@@@stlp_std@@@priv@3@U?$_MapTraitsT@U?$pair@$$CBVshared_str@@PAUmotions_value@@@stlp_std@@@63@V?$xalloc@U?$pair@Vshared_str@@PAUmotions_value@@@stlp_std@@@@@priv@stlp_std@@IAEAAPAU_Rb_tree_node_base@23@XZ ; stlp_std::priv::_Rb_tree<shared_str,stlp_std::less<shared_str>,stlp_std::pair<shared_str const ,motions_value *>,stlp_std::priv::_Select1st<stlp_std::pair<shared_str const ,motions_value *> >,stlp_std::priv::_MapTraitsT<stlp_std::pair<shared_str const ,motions_value *> >,xalloc<stlp_std::pair<shared_str,motions_value *> > >::_M_rightmost
PUBLIC	??$xr_free@U?$_Rb_tree_node@U?$pair@$$CBVshared_str@@PAUmotions_value@@@stlp_std@@@priv@stlp_std@@@@YAXAAPAU?$_Rb_tree_node@U?$pair@$$CBVshared_str@@PAUmotions_value@@@stlp_std@@@priv@stlp_std@@@Z ; xr_free<stlp_std::priv::_Rb_tree_node<stlp_std::pair<shared_str const ,motions_value *> > >
PUBLIC	?deallocate@?$xalloc@U?$_Rb_tree_node@U?$pair@$$CBVshared_str@@PAUmotions_value@@@stlp_std@@@priv@stlp_std@@@@QBEXPAU?$_Rb_tree_node@U?$pair@$$CBVshared_str@@PAUmotions_value@@@stlp_std@@@priv@stlp_std@@I@Z ; xalloc<stlp_std::priv::_Rb_tree_node<stlp_std::pair<shared_str const ,motions_value *> > >::deallocate
PUBLIC	?_S_left@?$_Rb_tree@Vshared_str@@U?$less@Vshared_str@@@stlp_std@@U?$pair@$$CBVshared_str@@PAUmotions_value@@@3@U?$_Select1st@U?$pair@$$CBVshared_str@@PAUmotions_value@@@stlp_std@@@priv@3@U?$_MapTraitsT@U?$pair@$$CBVshared_str@@PAUmotions_value@@@stlp_std@@@63@V?$xalloc@U?$pair@Vshared_str@@PAUmotions_value@@@stlp_std@@@@@priv@stlp_std@@KAAAPAU_Rb_tree_node_base@23@PAU423@@Z ; stlp_std::priv::_Rb_tree<shared_str,stlp_std::less<shared_str>,stlp_std::pair<shared_str const ,motions_value *>,stlp_std::priv::_Select1st<stlp_std::pair<shared_str const ,motions_value *> >,stlp_std::priv::_MapTraitsT<stlp_std::pair<shared_str const ,motions_value *> >,xalloc<stlp_std::pair<shared_str,motions_value *> > >::_S_left
PUBLIC	?_S_right@?$_Rb_tree@Vshared_str@@U?$less@Vshared_str@@@stlp_std@@U?$pair@$$CBVshared_str@@PAUmotions_value@@@3@U?$_Select1st@U?$pair@$$CBVshared_str@@PAUmotions_value@@@stlp_std@@@priv@3@U?$_MapTraitsT@U?$pair@$$CBVshared_str@@PAUmotions_value@@@stlp_std@@@63@V?$xalloc@U?$pair@Vshared_str@@PAUmotions_value@@@stlp_std@@@@@priv@stlp_std@@KAAAPAU_Rb_tree_node_base@23@PAU423@@Z ; stlp_std::priv::_Rb_tree<shared_str,stlp_std::less<shared_str>,stlp_std::pair<shared_str const ,motions_value *>,stlp_std::priv::_Select1st<stlp_std::pair<shared_str const ,motions_value *> >,stlp_std::priv::_MapTraitsT<stlp_std::pair<shared_str const ,motions_value *> >,xalloc<stlp_std::pair<shared_str,motions_value *> > >::_S_right
PUBLIC	?_S_value@?$_Rb_tree@Vshared_str@@U?$less@Vshared_str@@@stlp_std@@U?$pair@$$CBVshared_str@@PAUmotions_value@@@3@U?$_Select1st@U?$pair@$$CBVshared_str@@PAUmotions_value@@@stlp_std@@@priv@3@U?$_MapTraitsT@U?$pair@$$CBVshared_str@@PAUmotions_value@@@stlp_std@@@63@V?$xalloc@U?$pair@Vshared_str@@PAUmotions_value@@@stlp_std@@@@@priv@stlp_std@@KAAAU?$pair@$$CBVshared_str@@PAUmotions_value@@@3@PAU_Rb_tree_node_base@23@@Z ; stlp_std::priv::_Rb_tree<shared_str,stlp_std::less<shared_str>,stlp_std::pair<shared_str const ,motions_value *>,stlp_std::priv::_Select1st<stlp_std::pair<shared_str const ,motions_value *> >,stlp_std::priv::_MapTraitsT<stlp_std::pair<shared_str const ,motions_value *> >,xalloc<stlp_std::pair<shared_str,motions_value *> > >::_S_value
PUBLIC	??1?$pair@$$CBVshared_str@@PAUmotions_value@@@stlp_std@@QAE@XZ ; stlp_std::pair<shared_str const ,motions_value *>::~pair<shared_str const ,motions_value *>
PUBLIC	??_G?$pair@$$CBVshared_str@@PAUmotions_value@@@stlp_std@@QAEPAXI@Z ; stlp_std::pair<shared_str const ,motions_value *>::`scalar deleting destructor'
PUBLIC	??$__destroy_aux@U?$pair@$$CBVshared_str@@PAUmotions_value@@@stlp_std@@@stlp_std@@YAXPAU?$pair@$$CBVshared_str@@PAUmotions_value@@@0@ABU__false_type@0@@Z ; stlp_std::__destroy_aux<stlp_std::pair<shared_str const ,motions_value *> >
PUBLIC	??$_Destroy@U?$pair@$$CBVshared_str@@PAUmotions_value@@@stlp_std@@@stlp_std@@YAXPAU?$pair@$$CBVshared_str@@PAUmotions_value@@@0@@Z ; stlp_std::_Destroy<stlp_std::pair<shared_str const ,motions_value *> >
PUBLIC	?_M_erase@?$_Rb_tree@Vshared_str@@U?$less@Vshared_str@@@stlp_std@@U?$pair@$$CBVshared_str@@PAUmotions_value@@@3@U?$_Select1st@U?$pair@$$CBVshared_str@@PAUmotions_value@@@stlp_std@@@priv@3@U?$_MapTraitsT@U?$pair@$$CBVshared_str@@PAUmotions_value@@@stlp_std@@@63@V?$xalloc@U?$pair@Vshared_str@@PAUmotions_value@@@stlp_std@@@@@priv@stlp_std@@AAEXPAU_Rb_tree_node_base@23@@Z ; stlp_std::priv::_Rb_tree<shared_str,stlp_std::less<shared_str>,stlp_std::pair<shared_str const ,motions_value *>,stlp_std::priv::_Select1st<stlp_std::pair<shared_str const ,motions_value *> >,stlp_std::priv::_MapTraitsT<stlp_std::pair<shared_str const ,motions_value *> >,xalloc<stlp_std::pair<shared_str,motions_value *> > >::_M_erase
PUBLIC	?clear@?$_Rb_tree@Vshared_str@@U?$less@Vshared_str@@@stlp_std@@U?$pair@$$CBVshared_str@@PAUmotions_value@@@3@U?$_Select1st@U?$pair@$$CBVshared_str@@PAUmotions_value@@@stlp_std@@@priv@3@U?$_MapTraitsT@U?$pair@$$CBVshared_str@@PAUmotions_value@@@stlp_std@@@63@V?$xalloc@U?$pair@Vshared_str@@PAUmotions_value@@@stlp_std@@@@@priv@stlp_std@@QAEXXZ ; stlp_std::priv::_Rb_tree<shared_str,stlp_std::less<shared_str>,stlp_std::pair<shared_str const ,motions_value *>,stlp_std::priv::_Select1st<stlp_std::pair<shared_str const ,motions_value *> >,stlp_std::priv::_MapTraitsT<stlp_std::pair<shared_str const ,motions_value *> >,xalloc<stlp_std::pair<shared_str,motions_value *> > >::clear
PUBLIC	?clear@?$map@Vshared_str@@PAUmotions_value@@U?$less@Vshared_str@@@stlp_std@@V?$xalloc@U?$pair@Vshared_str@@PAUmotions_value@@@stlp_std@@@@@stlp_std@@QAEXXZ ; stlp_std::map<shared_str,motions_value *,stlp_std::less<shared_str>,xalloc<stlp_std::pair<shared_str,motions_value *> > >::clear
PUBLIC	??_Gmotions_value@@QAEPAXI@Z			; motions_value::`scalar deleting destructor'
PUBLIC	??R?$xr_special_free@$0A@Umotions_value@@@@QAEXAAPAUmotions_value@@@Z ; xr_special_free<0,motions_value>::operator()
PUBLIC	??$xr_delete@Umotions_value@@@@YAXAAPAUmotions_value@@@Z ; xr_delete<motions_value>
PUBLIC	??0?$xalloc@VCMotionDef@@@@QAE@XZ		; xalloc<CMotionDef>::xalloc<CMotionDef>
PUBLIC	??0?$_Vector_base@VCMotionDef@@V?$xalloc@VCMotionDef@@@@@priv@stlp_std@@QAE@ABV?$xalloc@VCMotionDef@@@@@Z ; stlp_std::priv::_Vector_base<CMotionDef,xalloc<CMotionDef> >::_Vector_base<CMotionDef,xalloc<CMotionDef> >
PUBLIC	??0?$_Impl_vector@VCMotionDef@@V?$xalloc@VCMotionDef@@@@@priv@stlp_std@@QAE@ABV?$xalloc@VCMotionDef@@@@@Z ; stlp_std::priv::_Impl_vector<CMotionDef,xalloc<CMotionDef> >::_Impl_vector<CMotionDef,xalloc<CMotionDef> >
PUBLIC	??0?$vector@VCMotionDef@@V?$xalloc@VCMotionDef@@@@@stlp_std@@QAE@ABV?$xalloc@VCMotionDef@@@@@Z ; stlp_std::vector<CMotionDef,xalloc<CMotionDef> >::vector<CMotionDef,xalloc<CMotionDef> >
PUBLIC	??0?$xr_vector@VCMotionDef@@V?$xalloc@VCMotionDef@@@@@@QAE@XZ ; xr_vector<CMotionDef,xalloc<CMotionDef> >::xr_vector<CMotionDef,xalloc<CMotionDef> >
PUBLIC	??0?$_Rb_tree@Vshared_str@@U?$less@Vshared_str@@@stlp_std@@U?$pair@$$CBVshared_str@@V?$xr_vector@VCMotion@@V?$xalloc@VCMotion@@@@@@@3@U?$_Select1st@U?$pair@$$CBVshared_str@@V?$xr_vector@VCMotion@@V?$xalloc@VCMotion@@@@@@@stlp_std@@@priv@3@U?$_MapTraitsT@U?$pair@$$CBVshared_str@@V?$xr_vector@VCMotion@@V?$xalloc@VCMotion@@@@@@@stlp_std@@@63@V?$xalloc@U?$pair@Vshared_str@@V?$xr_vector@VCMotion@@V?$xalloc@VCMotion@@@@@@@stlp_std@@@@@priv@stlp_std@@QAE@ABU?$less@Vshared_str@@@2@ABV?$xalloc@U?$pair@$$CBVshared_str@@V?$xr_vector@VCMotion@@V?$xalloc@VCMotion@@@@@@@stlp_std@@@@@Z ; stlp_std::priv::_Rb_tree<shared_str,stlp_std::less<shared_str>,stlp_std::pair<shared_str const ,xr_vector<CMotion,xalloc<CMotion> > >,stlp_std::priv::_Select1st<stlp_std::pair<shared_str const ,xr_vector<CMotion,xalloc<CMotion> > > >,stlp_std::priv::_MapTraitsT<stlp_std::pair<shared_str const ,xr_vector<CMotion,xalloc<CMotion> > > >,xalloc<stlp_std::pair<shared_str,xr_vector<CMotion,xalloc<CMotion> > > > >::_Rb_tree<shared_str,stlp_std::less<shared_str>,stlp_std::pair<shared_str const ,xr_vector<CMotion,xalloc<CMotion> > >,stlp_std::priv::_Select1st<stlp_std::pair<shared_str const ,xr_vector<CMotion,xalloc<CMotion> > > >,stlp_std::priv::_MapTraitsT<stlp_std::pair<shared_str const ,xr_vector<CMotion,xalloc<CMotion> > > >,xalloc<stlp_std::pair<shared_str,xr_vector<CMotion,xalloc<CMotion> > > > >
PUBLIC	??0?$xalloc@U?$pair@$$CBVshared_str@@V?$xr_vector@VCMotion@@V?$xalloc@VCMotion@@@@@@@stlp_std@@@@QAE@XZ ; xalloc<stlp_std::pair<shared_str const ,xr_vector<CMotion,xalloc<CMotion> > > >::xalloc<stlp_std::pair<shared_str const ,xr_vector<CMotion,xalloc<CMotion> > > >
PUBLIC	??0?$map@Vshared_str@@V?$xr_vector@VCMotion@@V?$xalloc@VCMotion@@@@@@U?$less@Vshared_str@@@stlp_std@@V?$xalloc@U?$pair@Vshared_str@@V?$xr_vector@VCMotion@@V?$xalloc@VCMotion@@@@@@@stlp_std@@@@@stlp_std@@QAE@XZ ; stlp_std::map<shared_str,xr_vector<CMotion,xalloc<CMotion> >,stlp_std::less<shared_str>,xalloc<stlp_std::pair<shared_str,xr_vector<CMotion,xalloc<CMotion> > > > >::map<shared_str,xr_vector<CMotion,xalloc<CMotion> >,stlp_std::less<shared_str>,xalloc<stlp_std::pair<shared_str,xr_vector<CMotion,xalloc<CMotion> > > > >
PUBLIC	??0?$xr_map@Vshared_str@@V?$xr_vector@VCMotion@@V?$xalloc@VCMotion@@@@@@U?$less@Vshared_str@@@stlp_std@@V?$xalloc@U?$pair@Vshared_str@@V?$xr_vector@VCMotion@@V?$xalloc@VCMotion@@@@@@@stlp_std@@@@@@QAE@XZ ; xr_map<shared_str,xr_vector<CMotion,xalloc<CMotion> >,stlp_std::less<shared_str>,xalloc<stlp_std::pair<shared_str,xr_vector<CMotion,xalloc<CMotion> > > > >::xr_map<shared_str,xr_vector<CMotion,xalloc<CMotion> >,stlp_std::less<shared_str>,xalloc<stlp_std::pair<shared_str,xr_vector<CMotion,xalloc<CMotion> > > > >
PUBLIC	??0?$_Rb_tree@Vshared_str@@Uaccel_str_pred@@U?$pair@$$CBVshared_str@@G@stlp_std@@U?$_Select1st@U?$pair@$$CBVshared_str@@G@stlp_std@@@priv@4@U?$_MapTraitsT@U?$pair@$$CBVshared_str@@G@stlp_std@@@64@V?$xalloc@U?$pair@Vshared_str@@G@stlp_std@@@@@priv@stlp_std@@QAE@ABUaccel_str_pred@@ABV?$xalloc@U?$pair@$$CBVshared_str@@G@stlp_std@@@@@Z ; stlp_std::priv::_Rb_tree<shared_str,accel_str_pred,stlp_std::pair<shared_str const ,unsigned short>,stlp_std::priv::_Select1st<stlp_std::pair<shared_str const ,unsigned short> >,stlp_std::priv::_MapTraitsT<stlp_std::pair<shared_str const ,unsigned short> >,xalloc<stlp_std::pair<shared_str,unsigned short> > >::_Rb_tree<shared_str,accel_str_pred,stlp_std::pair<shared_str const ,unsigned short>,stlp_std::priv::_Select1st<stlp_std::pair<shared_str const ,unsigned short> >,stlp_std::priv::_MapTraitsT<stlp_std::pair<shared_str const ,unsigned short> >,xalloc<stlp_std::pair<shared_str,unsigned short> > >
PUBLIC	??0?$xalloc@U?$pair@$$CBVshared_str@@G@stlp_std@@@@QAE@XZ ; xalloc<stlp_std::pair<shared_str const ,unsigned short> >::xalloc<stlp_std::pair<shared_str const ,unsigned short> >
PUBLIC	??0?$map@Vshared_str@@GUaccel_str_pred@@V?$xalloc@U?$pair@Vshared_str@@G@stlp_std@@@@@stlp_std@@QAE@XZ ; stlp_std::map<shared_str,unsigned short,accel_str_pred,xalloc<stlp_std::pair<shared_str,unsigned short> > >::map<shared_str,unsigned short,accel_str_pred,xalloc<stlp_std::pair<shared_str,unsigned short> > >
PUBLIC	??0?$xr_map@Vshared_str@@GUaccel_str_pred@@V?$xalloc@U?$pair@Vshared_str@@G@stlp_std@@@@@@QAE@XZ ; xr_map<shared_str,unsigned short,accel_str_pred,xalloc<stlp_std::pair<shared_str,unsigned short> > >::xr_map<shared_str,unsigned short,accel_str_pred,xalloc<stlp_std::pair<shared_str,unsigned short> > >
PUBLIC	?_M_leftmost@?$_Rb_tree@Vshared_str@@U?$less@Vshared_str@@@stlp_std@@U?$pair@$$CBVshared_str@@PAUmotions_value@@@3@U?$_Select1st@U?$pair@$$CBVshared_str@@PAUmotions_value@@@stlp_std@@@priv@3@U?$_MapTraitsT@U?$pair@$$CBVshared_str@@PAUmotions_value@@@stlp_std@@@63@V?$xalloc@U?$pair@Vshared_str@@PAUmotions_value@@@stlp_std@@@@@priv@stlp_std@@IAEAAPAU_Rb_tree_node_base@23@XZ ; stlp_std::priv::_Rb_tree<shared_str,stlp_std::less<shared_str>,stlp_std::pair<shared_str const ,motions_value *>,stlp_std::priv::_Select1st<stlp_std::pair<shared_str const ,motions_value *> >,stlp_std::priv::_MapTraitsT<stlp_std::pair<shared_str const ,motions_value *> >,xalloc<stlp_std::pair<shared_str,motions_value *> > >::_M_leftmost
PUBLIC	?begin@?$_Rb_tree@Vshared_str@@U?$less@Vshared_str@@@stlp_std@@U?$pair@$$CBVshared_str@@PAUmotions_value@@@3@U?$_Select1st@U?$pair@$$CBVshared_str@@PAUmotions_value@@@stlp_std@@@priv@3@U?$_MapTraitsT@U?$pair@$$CBVshared_str@@PAUmotions_value@@@stlp_std@@@63@V?$xalloc@U?$pair@Vshared_str@@PAUmotions_value@@@stlp_std@@@@@priv@stlp_std@@QAE?AU?$_Rb_tree_iterator@U?$pair@$$CBVshared_str@@PAUmotions_value@@@stlp_std@@U?$_MapTraitsT@U?$pair@$$CBVshared_str@@PAUmotions_value@@@stlp_std@@@priv@2@@23@XZ ; stlp_std::priv::_Rb_tree<shared_str,stlp_std::less<shared_str>,stlp_std::pair<shared_str const ,motions_value *>,stlp_std::priv::_Select1st<stlp_std::pair<shared_str const ,motions_value *> >,stlp_std::priv::_MapTraitsT<stlp_std::pair<shared_str const ,motions_value *> >,xalloc<stlp_std::pair<shared_str,motions_value *> > >::begin
PUBLIC	?begin@?$map@Vshared_str@@PAUmotions_value@@U?$less@Vshared_str@@@stlp_std@@V?$xalloc@U?$pair@Vshared_str@@PAUmotions_value@@@stlp_std@@@@@stlp_std@@QAE?AU?$_Rb_tree_iterator@U?$pair@$$CBVshared_str@@PAUmotions_value@@@stlp_std@@U?$_MapTraitsT@U?$pair@$$CBVshared_str@@PAUmotions_value@@@stlp_std@@@priv@2@@priv@2@XZ ; stlp_std::map<shared_str,motions_value *,stlp_std::less<shared_str>,xalloc<stlp_std::pair<shared_str,motions_value *> > >::begin
PUBLIC	??0?$_Rb_tree_iterator@U?$pair@$$CBVshared_str@@PAUmotions_value@@@stlp_std@@U?$_MapTraitsT@U?$pair@$$CBVshared_str@@PAUmotions_value@@@stlp_std@@@priv@2@@priv@stlp_std@@QAE@PAU_Rb_tree_node_base@12@@Z ; stlp_std::priv::_Rb_tree_iterator<stlp_std::pair<shared_str const ,motions_value *>,stlp_std::priv::_MapTraitsT<stlp_std::pair<shared_str const ,motions_value *> > >::_Rb_tree_iterator<stlp_std::pair<shared_str const ,motions_value *>,stlp_std::priv::_MapTraitsT<stlp_std::pair<shared_str const ,motions_value *> > >
PUBLIC	?end@?$_Rb_tree@Vshared_str@@U?$less@Vshared_str@@@stlp_std@@U?$pair@$$CBVshared_str@@PAUmotions_value@@@3@U?$_Select1st@U?$pair@$$CBVshared_str@@PAUmotions_value@@@stlp_std@@@priv@3@U?$_MapTraitsT@U?$pair@$$CBVshared_str@@PAUmotions_value@@@stlp_std@@@63@V?$xalloc@U?$pair@Vshared_str@@PAUmotions_value@@@stlp_std@@@@@priv@stlp_std@@QAE?AU?$_Rb_tree_iterator@U?$pair@$$CBVshared_str@@PAUmotions_value@@@stlp_std@@U?$_MapTraitsT@U?$pair@$$CBVshared_str@@PAUmotions_value@@@stlp_std@@@priv@2@@23@XZ ; stlp_std::priv::_Rb_tree<shared_str,stlp_std::less<shared_str>,stlp_std::pair<shared_str const ,motions_value *>,stlp_std::priv::_Select1st<stlp_std::pair<shared_str const ,motions_value *> >,stlp_std::priv::_MapTraitsT<stlp_std::pair<shared_str const ,motions_value *> >,xalloc<stlp_std::pair<shared_str,motions_value *> > >::end
PUBLIC	?end@?$map@Vshared_str@@PAUmotions_value@@U?$less@Vshared_str@@@stlp_std@@V?$xalloc@U?$pair@Vshared_str@@PAUmotions_value@@@stlp_std@@@@@stlp_std@@QAE?AU?$_Rb_tree_iterator@U?$pair@$$CBVshared_str@@PAUmotions_value@@@stlp_std@@U?$_MapTraitsT@U?$pair@$$CBVshared_str@@PAUmotions_value@@@stlp_std@@@priv@2@@priv@2@XZ ; stlp_std::map<shared_str,motions_value *,stlp_std::less<shared_str>,xalloc<stlp_std::pair<shared_str,motions_value *> > >::end
PUBLIC	?size@?$_Rb_tree@Vshared_str@@U?$less@Vshared_str@@@stlp_std@@U?$pair@$$CBVshared_str@@PAUmotions_value@@@3@U?$_Select1st@U?$pair@$$CBVshared_str@@PAUmotions_value@@@stlp_std@@@priv@3@U?$_MapTraitsT@U?$pair@$$CBVshared_str@@PAUmotions_value@@@stlp_std@@@63@V?$xalloc@U?$pair@Vshared_str@@PAUmotions_value@@@stlp_std@@@@@priv@stlp_std@@QBEIXZ ; stlp_std::priv::_Rb_tree<shared_str,stlp_std::less<shared_str>,stlp_std::pair<shared_str const ,motions_value *>,stlp_std::priv::_Select1st<stlp_std::pair<shared_str const ,motions_value *> >,stlp_std::priv::_MapTraitsT<stlp_std::pair<shared_str const ,motions_value *> >,xalloc<stlp_std::pair<shared_str,motions_value *> > >::size
PUBLIC	?size@?$map@Vshared_str@@PAUmotions_value@@U?$less@Vshared_str@@@stlp_std@@V?$xalloc@U?$pair@Vshared_str@@PAUmotions_value@@@stlp_std@@@@@stlp_std@@QBEIXZ ; stlp_std::map<shared_str,motions_value *,stlp_std::less<shared_str>,xalloc<stlp_std::pair<shared_str,motions_value *> > >::size
PUBLIC	?size@?$xr_map@Vshared_str@@PAUmotions_value@@U?$less@Vshared_str@@@stlp_std@@V?$xalloc@U?$pair@Vshared_str@@PAUmotions_value@@@stlp_std@@@@@@QBEIXZ ; xr_map<shared_str,motions_value *,stlp_std::less<shared_str>,xalloc<stlp_std::pair<shared_str,motions_value *> > >::size
PUBLIC	??D?$_Rb_tree_iterator@U?$pair@$$CBVshared_str@@PAUmotions_value@@@stlp_std@@U?$_MapTraitsT@U?$pair@$$CBVshared_str@@PAUmotions_value@@@stlp_std@@@priv@2@@priv@stlp_std@@QBEAAU?$pair@$$CBVshared_str@@PAUmotions_value@@@2@XZ ; stlp_std::priv::_Rb_tree_iterator<stlp_std::pair<shared_str const ,motions_value *>,stlp_std::priv::_MapTraitsT<stlp_std::pair<shared_str const ,motions_value *> > >::operator*
PUBLIC	??C?$_Rb_tree_iterator@U?$pair@$$CBVshared_str@@PAUmotions_value@@@stlp_std@@U?$_MapTraitsT@U?$pair@$$CBVshared_str@@PAUmotions_value@@@stlp_std@@@priv@2@@priv@stlp_std@@QBEPAU?$pair@$$CBVshared_str@@PAUmotions_value@@@2@XZ ; stlp_std::priv::_Rb_tree_iterator<stlp_std::pair<shared_str const ,motions_value *>,stlp_std::priv::_MapTraitsT<stlp_std::pair<shared_str const ,motions_value *> > >::operator->
PUBLIC	??0?$_Rb_tree_iterator@U?$pair@$$CBVshared_str@@PAUmotions_value@@@stlp_std@@U?$_MapTraitsT@U?$pair@$$CBVshared_str@@PAUmotions_value@@@stlp_std@@@priv@2@@priv@stlp_std@@QAE@ABU012@@Z ; stlp_std::priv::_Rb_tree_iterator<stlp_std::pair<shared_str const ,motions_value *>,stlp_std::priv::_MapTraitsT<stlp_std::pair<shared_str const ,motions_value *> > >::_Rb_tree_iterator<stlp_std::pair<shared_str const ,motions_value *>,stlp_std::priv::_MapTraitsT<stlp_std::pair<shared_str const ,motions_value *> > >
PUBLIC	??E?$_Rb_tree_iterator@U?$pair@$$CBVshared_str@@PAUmotions_value@@@stlp_std@@U?$_MapTraitsT@U?$pair@$$CBVshared_str@@PAUmotions_value@@@stlp_std@@@priv@2@@priv@stlp_std@@QAEAAU012@XZ ; stlp_std::priv::_Rb_tree_iterator<stlp_std::pair<shared_str const ,motions_value *>,stlp_std::priv::_MapTraitsT<stlp_std::pair<shared_str const ,motions_value *> > >::operator++
PUBLIC	??E?$_Rb_tree_iterator@U?$pair@$$CBVshared_str@@PAUmotions_value@@@stlp_std@@U?$_MapTraitsT@U?$pair@$$CBVshared_str@@PAUmotions_value@@@stlp_std@@@priv@2@@priv@stlp_std@@QAE?AU012@H@Z ; stlp_std::priv::_Rb_tree_iterator<stlp_std::pair<shared_str const ,motions_value *>,stlp_std::priv::_MapTraitsT<stlp_std::pair<shared_str const ,motions_value *> > >::operator++
PUBLIC	??9?$_Rb_tree_iterator@U?$pair@$$CBVshared_str@@PAUmotions_value@@@stlp_std@@U?$_MapTraitsT@U?$pair@$$CBVshared_str@@PAUmotions_value@@@stlp_std@@@priv@2@@priv@stlp_std@@QBE_NU?$_Rb_tree_iterator@U?$pair@$$CBVshared_str@@PAUmotions_value@@@stlp_std@@U?$_ConstMapTraitsT@U?$pair@$$CBVshared_str@@PAUmotions_value@@@stlp_std@@@priv@2@@12@@Z ; stlp_std::priv::_Rb_tree_iterator<stlp_std::pair<shared_str const ,motions_value *>,stlp_std::priv::_MapTraitsT<stlp_std::pair<shared_str const ,motions_value *> > >::operator!=
PUBLIC	??0?$_Rb_tree_iterator@U?$pair@$$CBVshared_str@@PAUmotions_value@@@stlp_std@@U?$_ConstMapTraitsT@U?$pair@$$CBVshared_str@@PAUmotions_value@@@stlp_std@@@priv@2@@priv@stlp_std@@QAE@ABU?$_Rb_tree_iterator@U?$pair@$$CBVshared_str@@PAUmotions_value@@@stlp_std@@U?$_MapTraitsT@U?$pair@$$CBVshared_str@@PAUmotions_value@@@stlp_std@@@priv@2@@12@@Z ; stlp_std::priv::_Rb_tree_iterator<stlp_std::pair<shared_str const ,motions_value *>,stlp_std::priv::_ConstMapTraitsT<stlp_std::pair<shared_str const ,motions_value *> > >::_Rb_tree_iterator<stlp_std::pair<shared_str const ,motions_value *>,stlp_std::priv::_ConstMapTraitsT<stlp_std::pair<shared_str const ,motions_value *> > >
PUBLIC	??$__destroy_mv_srcs@V?$reverse_iterator@PAVmotion_marks@@@stlp_std@@Vmotion_marks@@@stlp_std@@YAXV?$reverse_iterator@PAVmotion_marks@@@0@0PAVmotion_marks@@@Z ; stlp_std::__destroy_mv_srcs<stlp_std::reverse_iterator<motion_marks *>,motion_marks>
PUBLIC	??$_Destroy_Moved_Range@V?$reverse_iterator@PAVmotion_marks@@@stlp_std@@@stlp_std@@YAXV?$reverse_iterator@PAVmotion_marks@@@0@0@Z ; stlp_std::_Destroy_Moved_Range<stlp_std::reverse_iterator<motion_marks *> >
PUBLIC	?_M_clear_after_move@?$_Impl_vector@Vmotion_marks@@V?$xalloc@Vmotion_marks@@@@@priv@stlp_std@@AAEXXZ ; stlp_std::priv::_Impl_vector<motion_marks,xalloc<motion_marks> >::_M_clear_after_move
PUBLIC	?_M_set@?$_Impl_vector@Vmotion_marks@@V?$xalloc@Vmotion_marks@@@@@priv@stlp_std@@AAEXPAVmotion_marks@@00@Z ; stlp_std::priv::_Impl_vector<motion_marks,xalloc<motion_marks> >::_M_set
PUBLIC	??$__uninitialized_move@PAVmotion_marks@@PAV1@U__false_type@stlp_std@@@priv@stlp_std@@YAPAVmotion_marks@@PAV2@00U__false_type@1@ABU31@@Z ; stlp_std::priv::__uninitialized_move<motion_marks *,motion_marks *,stlp_std::__false_type>
PUBLIC	??$_Copy_Construct@Vmotion_marks@@@stlp_std@@YAXPAVmotion_marks@@ABV1@@Z ; stlp_std::_Copy_Construct<motion_marks>
PUBLIC	?_M_insert_overflow_aux@?$_Impl_vector@Vmotion_marks@@V?$xalloc@Vmotion_marks@@@@@priv@stlp_std@@AAEXPAVmotion_marks@@ABV4@ABU__false_type@3@I_N@Z ; stlp_std::priv::_Impl_vector<motion_marks,xalloc<motion_marks> >::_M_insert_overflow_aux
PUBLIC	?_M_insert_overflow@?$_Impl_vector@Vmotion_marks@@V?$xalloc@Vmotion_marks@@@@@priv@stlp_std@@AAEXPAVmotion_marks@@ABV4@ABU__false_type@3@I_N@Z ; stlp_std::priv::_Impl_vector<motion_marks,xalloc<motion_marks> >::_M_insert_overflow
PUBLIC	?_M_is_inside@?$_Impl_vector@Vmotion_marks@@V?$xalloc@Vmotion_marks@@@@@priv@stlp_std@@ABE_NABVmotion_marks@@@Z ; stlp_std::priv::_Impl_vector<motion_marks,xalloc<motion_marks> >::_M_is_inside
PUBLIC	??$__ufill@PAVmotion_marks@@V1@H@priv@stlp_std@@YAXPAVmotion_marks@@0ABV2@ABUrandom_access_iterator_tag@1@PAH@Z ; stlp_std::priv::__ufill<motion_marks *,motion_marks,int>
PUBLIC	??$__uninitialized_fill_n@PAVmotion_marks@@IV1@@priv@stlp_std@@YAPAVmotion_marks@@PAV2@IABV2@@Z ; stlp_std::priv::__uninitialized_fill_n<motion_marks *,unsigned int,motion_marks>
PUBLIC	??$__ucopy@PAVmotion_marks@@PAV1@H@priv@stlp_std@@YAPAVmotion_marks@@PAV2@00ABUrandom_access_iterator_tag@1@PAH@Z ; stlp_std::priv::__ucopy<motion_marks *,motion_marks *,int>
PUBLIC	??$__ucopy_ptrs@PAVmotion_marks@@PAV1@@priv@stlp_std@@YAPAVmotion_marks@@PAV2@00ABU__false_type@1@@Z ; stlp_std::priv::__ucopy_ptrs<motion_marks *,motion_marks *>
PUBLIC	??$__copy_backward@PAVmotion_marks@@PAV1@H@priv@stlp_std@@YAPAVmotion_marks@@PAV2@00ABUrandom_access_iterator_tag@1@PAH@Z ; stlp_std::priv::__copy_backward<motion_marks *,motion_marks *,int>
PUBLIC	??$__copy_backward_ptrs@PAVmotion_marks@@PAV1@@priv@stlp_std@@YAPAVmotion_marks@@PAV2@00ABU__false_type@1@@Z ; stlp_std::priv::__copy_backward_ptrs<motion_marks *,motion_marks *>
PUBLIC	??$fill@PAVmotion_marks@@V1@@stlp_std@@YAXPAVmotion_marks@@0ABV1@@Z ; stlp_std::fill<motion_marks *,motion_marks>
PUBLIC	?_M_fill_insert_aux@?$_Impl_vector@Vmotion_marks@@V?$xalloc@Vmotion_marks@@@@@priv@stlp_std@@AAEXPAVmotion_marks@@IABV4@ABU__false_type@3@@Z ; stlp_std::priv::_Impl_vector<motion_marks,xalloc<motion_marks> >::_M_fill_insert_aux
PUBLIC	?_M_fill_insert@?$_Impl_vector@Vmotion_marks@@V?$xalloc@Vmotion_marks@@@@@priv@stlp_std@@AAEXPAVmotion_marks@@IABV4@@Z ; stlp_std::priv::_Impl_vector<motion_marks,xalloc<motion_marks> >::_M_fill_insert
PUBLIC	?insert@?$_Impl_vector@Vmotion_marks@@V?$xalloc@Vmotion_marks@@@@@priv@stlp_std@@QAEXPAVmotion_marks@@IABV4@@Z ; stlp_std::priv::_Impl_vector<motion_marks,xalloc<motion_marks> >::insert
PUBLIC	??$__copy@PAVmotion_marks@@PAV1@H@priv@stlp_std@@YAPAVmotion_marks@@PAV2@00ABUrandom_access_iterator_tag@1@PAH@Z ; stlp_std::priv::__copy<motion_marks *,motion_marks *,int>
PUBLIC	??$__copy_ptrs@PAVmotion_marks@@PAV1@@priv@stlp_std@@YAPAVmotion_marks@@PAV2@00ABU__false_type@1@@Z ; stlp_std::priv::__copy_ptrs<motion_marks *,motion_marks *>
PUBLIC	?_M_erase@?$_Impl_vector@Vmotion_marks@@V?$xalloc@Vmotion_marks@@@@@priv@stlp_std@@AAEPAVmotion_marks@@PAV4@0ABU__false_type@3@@Z ; stlp_std::priv::_Impl_vector<motion_marks,xalloc<motion_marks> >::_M_erase
PUBLIC	?erase@?$_Impl_vector@Vmotion_marks@@V?$xalloc@Vmotion_marks@@@@@priv@stlp_std@@QAEPAVmotion_marks@@PAV4@0@Z ; stlp_std::priv::_Impl_vector<motion_marks,xalloc<motion_marks> >::erase
PUBLIC	?resize@?$_Impl_vector@Vmotion_marks@@V?$xalloc@Vmotion_marks@@@@@priv@stlp_std@@QAEXIABVmotion_marks@@@Z ; stlp_std::priv::_Impl_vector<motion_marks,xalloc<motion_marks> >::resize
PUBLIC	?to_storage_type_cref@?$_CastTraits@Vmotion_marks@@V1@@priv@stlp_std@@SAABVmotion_marks@@ABV4@@Z ; stlp_std::priv::_CastTraits<motion_marks,motion_marks>::to_storage_type_cref
PUBLIC	?resize@?$vector@Vmotion_marks@@V?$xalloc@Vmotion_marks@@@@@stlp_std@@QAEXIABVmotion_marks@@@Z ; stlp_std::vector<motion_marks,xalloc<motion_marks> >::resize
PUBLIC	?to_value_type_ptr@?$_CastTraits@Vmotion_marks@@V1@@priv@stlp_std@@SAPAVmotion_marks@@PAV4@@Z ; stlp_std::priv::_CastTraits<motion_marks,motion_marks>::to_value_type_ptr
PUBLIC	?begin@?$vector@Vmotion_marks@@V?$xalloc@Vmotion_marks@@@@@stlp_std@@QAEPAVmotion_marks@@XZ ; stlp_std::vector<motion_marks,xalloc<motion_marks> >::begin
PUBLIC	??A?$xr_vector@Vmotion_marks@@V?$xalloc@Vmotion_marks@@@@@@QAEAAVmotion_marks@@I@Z ; xr_vector<motion_marks,xalloc<motion_marks> >::operator[]
PUBLIC	??1?$xr_vector@VCMotionDef@@V?$xalloc@VCMotionDef@@@@@@QAE@XZ ; xr_vector<CMotionDef,xalloc<CMotionDef> >::~xr_vector<CMotionDef,xalloc<CMotionDef> >
PUBLIC	??0?$_STLP_alloc_proxy@PAVCMotionDef@@V1@V?$xalloc@VCMotionDef@@@@@priv@stlp_std@@QAE@ABV?$xalloc@VCMotionDef@@@@PAVCMotionDef@@@Z ; stlp_std::priv::_STLP_alloc_proxy<CMotionDef *,CMotionDef,xalloc<CMotionDef> >::_STLP_alloc_proxy<CMotionDef *,CMotionDef,xalloc<CMotionDef> >
PUBLIC	??0?$_Vector_base@VCMotionDef@@V?$xalloc@VCMotionDef@@@@@priv@stlp_std@@QAE@IABV?$xalloc@VCMotionDef@@@@@Z ; stlp_std::priv::_Vector_base<CMotionDef,xalloc<CMotionDef> >::_Vector_base<CMotionDef,xalloc<CMotionDef> >
PUBLIC	??0?$xalloc@VCMotionDef@@@@QAE@ABV0@@Z		; xalloc<CMotionDef>::xalloc<CMotionDef>
PUBLIC	?get_allocator@?$_Impl_vector@VCMotionDef@@V?$xalloc@VCMotionDef@@@@@priv@stlp_std@@QBE?AV?$xalloc@VCMotionDef@@@@XZ ; stlp_std::priv::_Impl_vector<CMotionDef,xalloc<CMotionDef> >::get_allocator
PUBLIC	?begin@?$_Impl_vector@VCMotionDef@@V?$xalloc@VCMotionDef@@@@@priv@stlp_std@@QBEPBVCMotionDef@@XZ ; stlp_std::priv::_Impl_vector<CMotionDef,xalloc<CMotionDef> >::begin
PUBLIC	?end@?$_Impl_vector@VCMotionDef@@V?$xalloc@VCMotionDef@@@@@priv@stlp_std@@QBEPBVCMotionDef@@XZ ; stlp_std::priv::_Impl_vector<CMotionDef,xalloc<CMotionDef> >::end
PUBLIC	??0?$_Impl_vector@VCMotionDef@@V?$xalloc@VCMotionDef@@@@@priv@stlp_std@@QAE@ABV012@@Z ; stlp_std::priv::_Impl_vector<CMotionDef,xalloc<CMotionDef> >::_Impl_vector<CMotionDef,xalloc<CMotionDef> >
PUBLIC	??0?$vector@VCMotionDef@@V?$xalloc@VCMotionDef@@@@@stlp_std@@QAE@ABV01@@Z ; stlp_std::vector<CMotionDef,xalloc<CMotionDef> >::vector<CMotionDef,xalloc<CMotionDef> >
PUBLIC	??1?$_Vector_base@VCMotionDef@@V?$xalloc@VCMotionDef@@@@@priv@stlp_std@@QAE@XZ ; stlp_std::priv::_Vector_base<CMotionDef,xalloc<CMotionDef> >::~_Vector_base<CMotionDef,xalloc<CMotionDef> >
PUBLIC	??1?$_Impl_vector@VCMotionDef@@V?$xalloc@VCMotionDef@@@@@priv@stlp_std@@QAE@XZ ; stlp_std::priv::_Impl_vector<CMotionDef,xalloc<CMotionDef> >::~_Impl_vector<CMotionDef,xalloc<CMotionDef> >
PUBLIC	??1?$vector@VCMotionDef@@V?$xalloc@VCMotionDef@@@@@stlp_std@@QAE@XZ ; stlp_std::vector<CMotionDef,xalloc<CMotionDef> >::~vector<CMotionDef,xalloc<CMotionDef> >
PUBLIC	??0?$xr_vector@VCMotionDef@@V?$xalloc@VCMotionDef@@@@@@QAE@ABV0@@Z ; xr_vector<CMotionDef,xalloc<CMotionDef> >::xr_vector<CMotionDef,xalloc<CMotionDef> >
PUBLIC	??1?$xr_map@Vshared_str@@V?$xr_vector@VCMotion@@V?$xalloc@VCMotion@@@@@@U?$less@Vshared_str@@@stlp_std@@V?$xalloc@U?$pair@Vshared_str@@V?$xr_vector@VCMotion@@V?$xalloc@VCMotion@@@@@@@stlp_std@@@@@@QAE@XZ ; xr_map<shared_str,xr_vector<CMotion,xalloc<CMotion> >,stlp_std::less<shared_str>,xalloc<stlp_std::pair<shared_str,xr_vector<CMotion,xalloc<CMotion> > > > >::~xr_map<shared_str,xr_vector<CMotion,xalloc<CMotion> >,stlp_std::less<shared_str>,xalloc<stlp_std::pair<shared_str,xr_vector<CMotion,xalloc<CMotion> > > > >
PUBLIC	??$?0U?$_Rb_tree_node@U?$pair@$$CBVshared_str@@V?$xr_vector@VCMotion@@V?$xalloc@VCMotion@@@@@@@stlp_std@@@priv@stlp_std@@@?$xalloc@U?$pair@$$CBVshared_str@@V?$xr_vector@VCMotion@@V?$xalloc@VCMotion@@@@@@@stlp_std@@@@QAE@ABV?$xalloc@U?$_Rb_tree_node@U?$pair@$$CBVshared_str@@V?$xr_vector@VCMotion@@V?$xalloc@VCMotion@@@@@@@stlp_std@@@priv@stlp_std@@@@@Z ; xalloc<stlp_std::pair<shared_str const ,xr_vector<CMotion,xalloc<CMotion> > > >::xalloc<stlp_std::pair<shared_str const ,xr_vector<CMotion,xalloc<CMotion> > > ><stlp_std::priv::_Rb_tree_node<stlp_std::pair<shared_str const ,xr_vector<CMotion,xalloc<CMotion> > > > >
PUBLIC	?get_allocator@?$_Rb_tree_base@U?$pair@$$CBVshared_str@@V?$xr_vector@VCMotion@@V?$xalloc@VCMotion@@@@@@@stlp_std@@V?$xalloc@U?$pair@Vshared_str@@V?$xr_vector@VCMotion@@V?$xalloc@VCMotion@@@@@@@stlp_std@@@@@priv@stlp_std@@QBE?AV?$xalloc@U?$pair@$$CBVshared_str@@V?$xr_vector@VCMotion@@V?$xalloc@VCMotion@@@@@@@stlp_std@@@@XZ ; stlp_std::priv::_Rb_tree_base<stlp_std::pair<shared_str const ,xr_vector<CMotion,xalloc<CMotion> > >,xalloc<stlp_std::pair<shared_str,xr_vector<CMotion,xalloc<CMotion> > > > >::get_allocator
PUBLIC	?_M_empty_initialize@?$_Rb_tree_base@U?$pair@$$CBVshared_str@@V?$xr_vector@VCMotion@@V?$xalloc@VCMotion@@@@@@@stlp_std@@V?$xalloc@U?$pair@Vshared_str@@V?$xr_vector@VCMotion@@V?$xalloc@VCMotion@@@@@@@stlp_std@@@@@priv@stlp_std@@IAEXXZ ; stlp_std::priv::_Rb_tree_base<stlp_std::pair<shared_str const ,xr_vector<CMotion,xalloc<CMotion> > >,xalloc<stlp_std::pair<shared_str,xr_vector<CMotion,xalloc<CMotion> > > > >::_M_empty_initialize
PUBLIC	??0?$xalloc@U?$_Rb_tree_node@U?$pair@$$CBVshared_str@@V?$xr_vector@VCMotion@@V?$xalloc@VCMotion@@@@@@@stlp_std@@@priv@stlp_std@@@@QAE@ABV0@@Z ; xalloc<stlp_std::priv::_Rb_tree_node<stlp_std::pair<shared_str const ,xr_vector<CMotion,xalloc<CMotion> > > > >::xalloc<stlp_std::priv::_Rb_tree_node<stlp_std::pair<shared_str const ,xr_vector<CMotion,xalloc<CMotion> > > > >
PUBLIC	??0?$_STLP_alloc_proxy@U_Rb_tree_node_base@priv@stlp_std@@U?$_Rb_tree_node@U?$pair@$$CBVshared_str@@V?$xr_vector@VCMotion@@V?$xalloc@VCMotion@@@@@@@stlp_std@@@23@V?$xalloc@U?$_Rb_tree_node@U?$pair@$$CBVshared_str@@V?$xr_vector@VCMotion@@V?$xalloc@VCMotion@@@@@@@stlp_std@@@priv@stlp_std@@@@@priv@stlp_std@@QAE@ABV?$xalloc@U?$_Rb_tree_node@U?$pair@$$CBVshared_str@@V?$xr_vector@VCMotion@@V?$xalloc@VCMotion@@@@@@@stlp_std@@@priv@stlp_std@@@@U_Rb_tree_node_base@12@@Z ; stlp_std::priv::_STLP_alloc_proxy<stlp_std::priv::_Rb_tree_node_base,stlp_std::priv::_Rb_tree_node<stlp_std::pair<shared_str const ,xr_vector<CMotion,xalloc<CMotion> > > >,xalloc<stlp_std::priv::_Rb_tree_node<stlp_std::pair<shared_str const ,xr_vector<CMotion,xalloc<CMotion> > > > > >::_STLP_alloc_proxy<stlp_std::priv::_Rb_tree_node_base,stlp_std::priv::_Rb_tree_node<stlp_std::pair<shared_str const ,xr_vector<CMotion,xalloc<CMotion> > > >,xalloc<stlp_std::priv::_Rb_tree_node<stlp_std::pair<shared_str const ,xr_vector<CMotion,xalloc<CMotion> > > > > >
PUBLIC	??$?0U?$pair@$$CBVshared_str@@V?$xr_vector@VCMotion@@V?$xalloc@VCMotion@@@@@@@stlp_std@@@?$xalloc@U?$_Rb_tree_node@U?$pair@$$CBVshared_str@@V?$xr_vector@VCMotion@@V?$xalloc@VCMotion@@@@@@@stlp_std@@@priv@stlp_std@@@@QAE@ABV?$xalloc@U?$pair@$$CBVshared_str@@V?$xr_vector@VCMotion@@V?$xalloc@VCMotion@@@@@@@stlp_std@@@@@Z ; xalloc<stlp_std::priv::_Rb_tree_node<stlp_std::pair<shared_str const ,xr_vector<CMotion,xalloc<CMotion> > > > >::xalloc<stlp_std::priv::_Rb_tree_node<stlp_std::pair<shared_str const ,xr_vector<CMotion,xalloc<CMotion> > > > ><stlp_std::pair<shared_str const ,xr_vector<CMotion,xalloc<CMotion> > > >
PUBLIC	??0?$_Rb_tree_base@U?$pair@$$CBVshared_str@@V?$xr_vector@VCMotion@@V?$xalloc@VCMotion@@@@@@@stlp_std@@V?$xalloc@U?$pair@Vshared_str@@V?$xr_vector@VCMotion@@V?$xalloc@VCMotion@@@@@@@stlp_std@@@@@priv@stlp_std@@IAE@ABV?$xalloc@U?$pair@$$CBVshared_str@@V?$xr_vector@VCMotion@@V?$xalloc@VCMotion@@@@@@@stlp_std@@@@@Z ; stlp_std::priv::_Rb_tree_base<stlp_std::pair<shared_str const ,xr_vector<CMotion,xalloc<CMotion> > >,xalloc<stlp_std::pair<shared_str,xr_vector<CMotion,xalloc<CMotion> > > > >::_Rb_tree_base<stlp_std::pair<shared_str const ,xr_vector<CMotion,xalloc<CMotion> > >,xalloc<stlp_std::pair<shared_str,xr_vector<CMotion,xalloc<CMotion> > > > >
PUBLIC	??0?$_Rb_tree@Vshared_str@@U?$less@Vshared_str@@@stlp_std@@U?$pair@$$CBVshared_str@@V?$xr_vector@VCMotion@@V?$xalloc@VCMotion@@@@@@@3@U?$_Select1st@U?$pair@$$CBVshared_str@@V?$xr_vector@VCMotion@@V?$xalloc@VCMotion@@@@@@@stlp_std@@@priv@3@U?$_MapTraitsT@U?$pair@$$CBVshared_str@@V?$xr_vector@VCMotion@@V?$xalloc@VCMotion@@@@@@@stlp_std@@@63@V?$xalloc@U?$pair@Vshared_str@@V?$xr_vector@VCMotion@@V?$xalloc@VCMotion@@@@@@@stlp_std@@@@@priv@stlp_std@@QAE@ABV012@@Z ; stlp_std::priv::_Rb_tree<shared_str,stlp_std::less<shared_str>,stlp_std::pair<shared_str const ,xr_vector<CMotion,xalloc<CMotion> > >,stlp_std::priv::_Select1st<stlp_std::pair<shared_str const ,xr_vector<CMotion,xalloc<CMotion> > > >,stlp_std::priv::_MapTraitsT<stlp_std::pair<shared_str const ,xr_vector<CMotion,xalloc<CMotion> > > >,xalloc<stlp_std::pair<shared_str,xr_vector<CMotion,xalloc<CMotion> > > > >::_Rb_tree<shared_str,stlp_std::less<shared_str>,stlp_std::pair<shared_str const ,xr_vector<CMotion,xalloc<CMotion> > >,stlp_std::priv::_Select1st<stlp_std::pair<shared_str const ,xr_vector<CMotion,xalloc<CMotion> > > >,stlp_std::priv::_MapTraitsT<stlp_std::pair<shared_str const ,xr_vector<CMotion,xalloc<CMotion> > > >,xalloc<stlp_std::pair<shared_str,xr_vector<CMotion,xalloc<CMotion> > > > >
PUBLIC	??0?$map@Vshared_str@@V?$xr_vector@VCMotion@@V?$xalloc@VCMotion@@@@@@U?$less@Vshared_str@@@stlp_std@@V?$xalloc@U?$pair@Vshared_str@@V?$xr_vector@VCMotion@@V?$xalloc@VCMotion@@@@@@@stlp_std@@@@@stlp_std@@QAE@ABV01@@Z ; stlp_std::map<shared_str,xr_vector<CMotion,xalloc<CMotion> >,stlp_std::less<shared_str>,xalloc<stlp_std::pair<shared_str,xr_vector<CMotion,xalloc<CMotion> > > > >::map<shared_str,xr_vector<CMotion,xalloc<CMotion> >,stlp_std::less<shared_str>,xalloc<stlp_std::pair<shared_str,xr_vector<CMotion,xalloc<CMotion> > > > >
PUBLIC	??1?$_Rb_tree@Vshared_str@@U?$less@Vshared_str@@@stlp_std@@U?$pair@$$CBVshared_str@@V?$xr_vector@VCMotion@@V?$xalloc@VCMotion@@@@@@@3@U?$_Select1st@U?$pair@$$CBVshared_str@@V?$xr_vector@VCMotion@@V?$xalloc@VCMotion@@@@@@@stlp_std@@@priv@3@U?$_MapTraitsT@U?$pair@$$CBVshared_str@@V?$xr_vector@VCMotion@@V?$xalloc@VCMotion@@@@@@@stlp_std@@@63@V?$xalloc@U?$pair@Vshared_str@@V?$xr_vector@VCMotion@@V?$xalloc@VCMotion@@@@@@@stlp_std@@@@@priv@stlp_std@@QAE@XZ ; stlp_std::priv::_Rb_tree<shared_str,stlp_std::less<shared_str>,stlp_std::pair<shared_str const ,xr_vector<CMotion,xalloc<CMotion> > >,stlp_std::priv::_Select1st<stlp_std::pair<shared_str const ,xr_vector<CMotion,xalloc<CMotion> > > >,stlp_std::priv::_MapTraitsT<stlp_std::pair<shared_str const ,xr_vector<CMotion,xalloc<CMotion> > > >,xalloc<stlp_std::pair<shared_str,xr_vector<CMotion,xalloc<CMotion> > > > >::~_Rb_tree<shared_str,stlp_std::less<shared_str>,stlp_std::pair<shared_str const ,xr_vector<CMotion,xalloc<CMotion> > >,stlp_std::priv::_Select1st<stlp_std::pair<shared_str const ,xr_vector<CMotion,xalloc<CMotion> > > >,stlp_std::priv::_MapTraitsT<stlp_std::pair<shared_str const ,xr_vector<CMotion,xalloc<CMotion> > > >,xalloc<stlp_std::pair<shared_str,xr_vector<CMotion,xalloc<CMotion> > > > >
PUBLIC	??1?$map@Vshared_str@@V?$xr_vector@VCMotion@@V?$xalloc@VCMotion@@@@@@U?$less@Vshared_str@@@stlp_std@@V?$xalloc@U?$pair@Vshared_str@@V?$xr_vector@VCMotion@@V?$xalloc@VCMotion@@@@@@@stlp_std@@@@@stlp_std@@QAE@XZ ; stlp_std::map<shared_str,xr_vector<CMotion,xalloc<CMotion> >,stlp_std::less<shared_str>,xalloc<stlp_std::pair<shared_str,xr_vector<CMotion,xalloc<CMotion> > > > >::~map<shared_str,xr_vector<CMotion,xalloc<CMotion> >,stlp_std::less<shared_str>,xalloc<stlp_std::pair<shared_str,xr_vector<CMotion,xalloc<CMotion> > > > >
PUBLIC	??0?$xr_map@Vshared_str@@V?$xr_vector@VCMotion@@V?$xalloc@VCMotion@@@@@@U?$less@Vshared_str@@@stlp_std@@V?$xalloc@U?$pair@Vshared_str@@V?$xr_vector@VCMotion@@V?$xalloc@VCMotion@@@@@@@stlp_std@@@@@@QAE@ABV0@@Z ; xr_map<shared_str,xr_vector<CMotion,xalloc<CMotion> >,stlp_std::less<shared_str>,xalloc<stlp_std::pair<shared_str,xr_vector<CMotion,xalloc<CMotion> > > > >::xr_map<shared_str,xr_vector<CMotion,xalloc<CMotion> >,stlp_std::less<shared_str>,xalloc<stlp_std::pair<shared_str,xr_vector<CMotion,xalloc<CMotion> > > > >
PUBLIC	??1?$xr_map@Vshared_str@@GUaccel_str_pred@@V?$xalloc@U?$pair@Vshared_str@@G@stlp_std@@@@@@QAE@XZ ; xr_map<shared_str,unsigned short,accel_str_pred,xalloc<stlp_std::pair<shared_str,unsigned short> > >::~xr_map<shared_str,unsigned short,accel_str_pred,xalloc<stlp_std::pair<shared_str,unsigned short> > >
PUBLIC	??$?0U?$_Rb_tree_node@U?$pair@$$CBVshared_str@@G@stlp_std@@@priv@stlp_std@@@?$xalloc@U?$pair@$$CBVshared_str@@G@stlp_std@@@@QAE@ABV?$xalloc@U?$_Rb_tree_node@U?$pair@$$CBVshared_str@@G@stlp_std@@@priv@stlp_std@@@@@Z ; xalloc<stlp_std::pair<shared_str const ,unsigned short> >::xalloc<stlp_std::pair<shared_str const ,unsigned short> ><stlp_std::priv::_Rb_tree_node<stlp_std::pair<shared_str const ,unsigned short> > >
PUBLIC	?get_allocator@?$_Rb_tree_base@U?$pair@$$CBVshared_str@@G@stlp_std@@V?$xalloc@U?$pair@Vshared_str@@G@stlp_std@@@@@priv@stlp_std@@QBE?AV?$xalloc@U?$pair@$$CBVshared_str@@G@stlp_std@@@@XZ ; stlp_std::priv::_Rb_tree_base<stlp_std::pair<shared_str const ,unsigned short>,xalloc<stlp_std::pair<shared_str,unsigned short> > >::get_allocator
PUBLIC	?_M_empty_initialize@?$_Rb_tree_base@U?$pair@$$CBVshared_str@@G@stlp_std@@V?$xalloc@U?$pair@Vshared_str@@G@stlp_std@@@@@priv@stlp_std@@IAEXXZ ; stlp_std::priv::_Rb_tree_base<stlp_std::pair<shared_str const ,unsigned short>,xalloc<stlp_std::pair<shared_str,unsigned short> > >::_M_empty_initialize
PUBLIC	??0?$xalloc@U?$_Rb_tree_node@U?$pair@$$CBVshared_str@@G@stlp_std@@@priv@stlp_std@@@@QAE@ABV0@@Z ; xalloc<stlp_std::priv::_Rb_tree_node<stlp_std::pair<shared_str const ,unsigned short> > >::xalloc<stlp_std::priv::_Rb_tree_node<stlp_std::pair<shared_str const ,unsigned short> > >
PUBLIC	??0?$_STLP_alloc_proxy@U_Rb_tree_node_base@priv@stlp_std@@U?$_Rb_tree_node@U?$pair@$$CBVshared_str@@G@stlp_std@@@23@V?$xalloc@U?$_Rb_tree_node@U?$pair@$$CBVshared_str@@G@stlp_std@@@priv@stlp_std@@@@@priv@stlp_std@@QAE@ABV?$xalloc@U?$_Rb_tree_node@U?$pair@$$CBVshared_str@@G@stlp_std@@@priv@stlp_std@@@@U_Rb_tree_node_base@12@@Z ; stlp_std::priv::_STLP_alloc_proxy<stlp_std::priv::_Rb_tree_node_base,stlp_std::priv::_Rb_tree_node<stlp_std::pair<shared_str const ,unsigned short> >,xalloc<stlp_std::priv::_Rb_tree_node<stlp_std::pair<shared_str const ,unsigned short> > > >::_STLP_alloc_proxy<stlp_std::priv::_Rb_tree_node_base,stlp_std::priv::_Rb_tree_node<stlp_std::pair<shared_str const ,unsigned short> >,xalloc<stlp_std::priv::_Rb_tree_node<stlp_std::pair<shared_str const ,unsigned short> > > >
PUBLIC	??$?0U?$pair@$$CBVshared_str@@G@stlp_std@@@?$xalloc@U?$_Rb_tree_node@U?$pair@$$CBVshared_str@@G@stlp_std@@@priv@stlp_std@@@@QAE@ABV?$xalloc@U?$pair@$$CBVshared_str@@G@stlp_std@@@@@Z ; xalloc<stlp_std::priv::_Rb_tree_node<stlp_std::pair<shared_str const ,unsigned short> > >::xalloc<stlp_std::priv::_Rb_tree_node<stlp_std::pair<shared_str const ,unsigned short> > ><stlp_std::pair<shared_str const ,unsigned short> >
PUBLIC	??0?$_Rb_tree_base@U?$pair@$$CBVshared_str@@G@stlp_std@@V?$xalloc@U?$pair@Vshared_str@@G@stlp_std@@@@@priv@stlp_std@@IAE@ABV?$xalloc@U?$pair@$$CBVshared_str@@G@stlp_std@@@@@Z ; stlp_std::priv::_Rb_tree_base<stlp_std::pair<shared_str const ,unsigned short>,xalloc<stlp_std::pair<shared_str,unsigned short> > >::_Rb_tree_base<stlp_std::pair<shared_str const ,unsigned short>,xalloc<stlp_std::pair<shared_str,unsigned short> > >
PUBLIC	??0?$_Rb_tree@Vshared_str@@Uaccel_str_pred@@U?$pair@$$CBVshared_str@@G@stlp_std@@U?$_Select1st@U?$pair@$$CBVshared_str@@G@stlp_std@@@priv@4@U?$_MapTraitsT@U?$pair@$$CBVshared_str@@G@stlp_std@@@64@V?$xalloc@U?$pair@Vshared_str@@G@stlp_std@@@@@priv@stlp_std@@QAE@ABV012@@Z ; stlp_std::priv::_Rb_tree<shared_str,accel_str_pred,stlp_std::pair<shared_str const ,unsigned short>,stlp_std::priv::_Select1st<stlp_std::pair<shared_str const ,unsigned short> >,stlp_std::priv::_MapTraitsT<stlp_std::pair<shared_str const ,unsigned short> >,xalloc<stlp_std::pair<shared_str,unsigned short> > >::_Rb_tree<shared_str,accel_str_pred,stlp_std::pair<shared_str const ,unsigned short>,stlp_std::priv::_Select1st<stlp_std::pair<shared_str const ,unsigned short> >,stlp_std::priv::_MapTraitsT<stlp_std::pair<shared_str const ,unsigned short> >,xalloc<stlp_std::pair<shared_str,unsigned short> > >
PUBLIC	??0?$map@Vshared_str@@GUaccel_str_pred@@V?$xalloc@U?$pair@Vshared_str@@G@stlp_std@@@@@stlp_std@@QAE@ABV01@@Z ; stlp_std::map<shared_str,unsigned short,accel_str_pred,xalloc<stlp_std::pair<shared_str,unsigned short> > >::map<shared_str,unsigned short,accel_str_pred,xalloc<stlp_std::pair<shared_str,unsigned short> > >
PUBLIC	??1?$_Rb_tree@Vshared_str@@Uaccel_str_pred@@U?$pair@$$CBVshared_str@@G@stlp_std@@U?$_Select1st@U?$pair@$$CBVshared_str@@G@stlp_std@@@priv@4@U?$_MapTraitsT@U?$pair@$$CBVshared_str@@G@stlp_std@@@64@V?$xalloc@U?$pair@Vshared_str@@G@stlp_std@@@@@priv@stlp_std@@QAE@XZ ; stlp_std::priv::_Rb_tree<shared_str,accel_str_pred,stlp_std::pair<shared_str const ,unsigned short>,stlp_std::priv::_Select1st<stlp_std::pair<shared_str const ,unsigned short> >,stlp_std::priv::_MapTraitsT<stlp_std::pair<shared_str const ,unsigned short> >,xalloc<stlp_std::pair<shared_str,unsigned short> > >::~_Rb_tree<shared_str,accel_str_pred,stlp_std::pair<shared_str const ,unsigned short>,stlp_std::priv::_Select1st<stlp_std::pair<shared_str const ,unsigned short> >,stlp_std::priv::_MapTraitsT<stlp_std::pair<shared_str const ,unsigned short> >,xalloc<stlp_std::pair<shared_str,unsigned short> > >
PUBLIC	??1?$map@Vshared_str@@GUaccel_str_pred@@V?$xalloc@U?$pair@Vshared_str@@G@stlp_std@@@@@stlp_std@@QAE@XZ ; stlp_std::map<shared_str,unsigned short,accel_str_pred,xalloc<stlp_std::pair<shared_str,unsigned short> > >::~map<shared_str,unsigned short,accel_str_pred,xalloc<stlp_std::pair<shared_str,unsigned short> > >
PUBLIC	??0?$xr_map@Vshared_str@@GUaccel_str_pred@@V?$xalloc@U?$pair@Vshared_str@@G@stlp_std@@@@@@QAE@ABV0@@Z ; xr_map<shared_str,unsigned short,accel_str_pred,xalloc<stlp_std::pair<shared_str,unsigned short> > >::xr_map<shared_str,unsigned short,accel_str_pred,xalloc<stlp_std::pair<shared_str,unsigned short> > >
PUBLIC	?size@?$_Impl_vector@VCMotionDef@@V?$xalloc@VCMotionDef@@@@@priv@stlp_std@@QBEIXZ ; stlp_std::priv::_Impl_vector<CMotionDef,xalloc<CMotionDef> >::size
PUBLIC	?capacity@?$_Impl_vector@VCMotionDef@@V?$xalloc@VCMotionDef@@@@@priv@stlp_std@@QBEIXZ ; stlp_std::priv::_Impl_vector<CMotionDef,xalloc<CMotionDef> >::capacity
PUBLIC	??$xr_free@VCMotionDef@@@@YAXAAPAVCMotionDef@@@Z ; xr_free<CMotionDef>
PUBLIC	?deallocate@?$xalloc@VCMotionDef@@@@QBEXPAVCMotionDef@@I@Z ; xalloc<CMotionDef>::deallocate
PUBLIC	?end@?$_Impl_vector@VCMotionDef@@V?$xalloc@VCMotionDef@@@@@priv@stlp_std@@QAEPAVCMotionDef@@XZ ; stlp_std::priv::_Impl_vector<CMotionDef,xalloc<CMotionDef> >::end
PUBLIC	?rbegin@?$_Impl_vector@VCMotionDef@@V?$xalloc@VCMotionDef@@@@@priv@stlp_std@@QAE?AV?$reverse_iterator@PAVCMotionDef@@@3@XZ ; stlp_std::priv::_Impl_vector<CMotionDef,xalloc<CMotionDef> >::rbegin
PUBLIC	??0?$reverse_iterator@PAVCMotionDef@@@stlp_std@@QAE@PAVCMotionDef@@@Z ; stlp_std::reverse_iterator<CMotionDef *>::reverse_iterator<CMotionDef *>
PUBLIC	?rend@?$_Impl_vector@VCMotionDef@@V?$xalloc@VCMotionDef@@@@@priv@stlp_std@@QAE?AV?$reverse_iterator@PAVCMotionDef@@@3@XZ ; stlp_std::priv::_Impl_vector<CMotionDef,xalloc<CMotionDef> >::rend
PUBLIC	??0?$reverse_iterator@PAVCMotionDef@@@stlp_std@@QAE@ABV01@@Z ; stlp_std::reverse_iterator<CMotionDef *>::reverse_iterator<CMotionDef *>
PUBLIC	??D?$reverse_iterator@PAVCMotionDef@@@stlp_std@@QBEAAVCMotionDef@@XZ ; stlp_std::reverse_iterator<CMotionDef *>::operator*
PUBLIC	??E?$reverse_iterator@PAVCMotionDef@@@stlp_std@@QAEAAV01@XZ ; stlp_std::reverse_iterator<CMotionDef *>::operator++
PUBLIC	?base@?$reverse_iterator@PAVCMotionDef@@@stlp_std@@QBEPAVCMotionDef@@XZ ; stlp_std::reverse_iterator<CMotionDef *>::base
PUBLIC	??$?8PAVCMotionDef@@@stlp_std@@YA_NABV?$reverse_iterator@PAVCMotionDef@@@0@0@Z ; stlp_std::operator==<CMotionDef *>
PUBLIC	??$?9PAVCMotionDef@@@stlp_std@@YA_NABV?$reverse_iterator@PAVCMotionDef@@@0@0@Z ; stlp_std::operator!=<CMotionDef *>
PUBLIC	??$__destroy_range_aux@V?$reverse_iterator@PAVCMotionDef@@@stlp_std@@VCMotionDef@@@stlp_std@@YAXV?$reverse_iterator@PAVCMotionDef@@@0@0PAVCMotionDef@@ABU__false_type@0@@Z ; stlp_std::__destroy_range_aux<stlp_std::reverse_iterator<CMotionDef *>,CMotionDef>
PUBLIC	??$__destroy_range@V?$reverse_iterator@PAVCMotionDef@@@stlp_std@@VCMotionDef@@@stlp_std@@YAXV?$reverse_iterator@PAVCMotionDef@@@0@0PAVCMotionDef@@@Z ; stlp_std::__destroy_range<stlp_std::reverse_iterator<CMotionDef *>,CMotionDef>
PUBLIC	??$_Destroy_Range@V?$reverse_iterator@PAVCMotionDef@@@stlp_std@@@stlp_std@@YAXV?$reverse_iterator@PAVCMotionDef@@@0@0@Z ; stlp_std::_Destroy_Range<stlp_std::reverse_iterator<CMotionDef *> >
PUBLIC	?_M_clear@?$_Impl_vector@VCMotionDef@@V?$xalloc@VCMotionDef@@@@@priv@stlp_std@@AAEXXZ ; stlp_std::priv::_Impl_vector<CMotionDef,xalloc<CMotionDef> >::_M_clear
PUBLIC	??_GCMotionDef@@QAEPAXI@Z			; CMotionDef::`scalar deleting destructor'
PUBLIC	??$__destroy_aux@VCMotionDef@@@stlp_std@@YAXPAVCMotionDef@@ABU__false_type@0@@Z ; stlp_std::__destroy_aux<CMotionDef>
PUBLIC	??$__destroy_range_aux@PAVCMotionDef@@V1@@stlp_std@@YAXPAVCMotionDef@@00ABU__false_type@0@@Z ; stlp_std::__destroy_range_aux<CMotionDef *,CMotionDef>
PUBLIC	??$__destroy_range@PAVCMotionDef@@V1@@stlp_std@@YAXPAVCMotionDef@@00@Z ; stlp_std::__destroy_range<CMotionDef *,CMotionDef>
PUBLIC	??$_Destroy_Range@PAVCMotionDef@@@stlp_std@@YAXPAVCMotionDef@@0@Z ; stlp_std::_Destroy_Range<CMotionDef *>
PUBLIC	??$xr_alloc@VCMotionDef@@@@YAPAVCMotionDef@@I@Z	; xr_alloc<CMotionDef>
PUBLIC	?allocate@?$xalloc@VCMotionDef@@@@QBEPAVCMotionDef@@IPBX@Z ; xalloc<CMotionDef>::allocate
PUBLIC	?allocate@?$_STLP_alloc_proxy@PAVCMotionDef@@V1@V?$xalloc@VCMotionDef@@@@@priv@stlp_std@@QAEPAVCMotionDef@@I@Z ; stlp_std::priv::_STLP_alloc_proxy<CMotionDef *,CMotionDef,xalloc<CMotionDef> >::allocate
PUBLIC	?allocate@?$_STLP_alloc_proxy@PAVCMotionDef@@V1@V?$xalloc@VCMotionDef@@@@@priv@stlp_std@@AAEPAVCMotionDef@@IAAIABU__false_type@3@@Z ; stlp_std::priv::_STLP_alloc_proxy<CMotionDef *,CMotionDef,xalloc<CMotionDef> >::allocate
PUBLIC	?allocate@?$_STLP_alloc_proxy@PAVCMotionDef@@V1@V?$xalloc@VCMotionDef@@@@@priv@stlp_std@@QAEPAVCMotionDef@@IAAI@Z ; stlp_std::priv::_STLP_alloc_proxy<CMotionDef *,CMotionDef,xalloc<CMotionDef> >::allocate
PUBLIC	?_Answer@?$_BothPtrType@PBVCMotionDef@@PAV1@@stlp_std@@SA?AU__true_type@2@XZ ; stlp_std::_BothPtrType<CMotionDef const *,CMotionDef *>::_Answer
PUBLIC	??$_Param_Construct@VCMotionDef@@V1@@stlp_std@@YAXPAVCMotionDef@@ABV1@@Z ; stlp_std::_Param_Construct<CMotionDef,CMotionDef>
PUBLIC	??$__ucopy@PBVCMotionDef@@PAV1@H@priv@stlp_std@@YAPAVCMotionDef@@PBV2@0PAV2@ABUrandom_access_iterator_tag@1@PAH@Z ; stlp_std::priv::__ucopy<CMotionDef const *,CMotionDef *,int>
PUBLIC	??$__ucopy_ptrs@PBVCMotionDef@@PAV1@@priv@stlp_std@@YAPAVCMotionDef@@PBV2@0PAV2@ABU__false_type@1@@Z ; stlp_std::priv::__ucopy_ptrs<CMotionDef const *,CMotionDef *>
PUBLIC	??$_UseTrivialUCopy@VCMotionDef@@V1@@stlp_std@@YA?AU?$_TrivialUCopy@VCMotionDef@@V1@@0@PAVCMotionDef@@0@Z ; stlp_std::_UseTrivialUCopy<CMotionDef,CMotionDef>
PUBLIC	?_Answer@?$_TrivialUCopy@VCMotionDef@@V1@@stlp_std@@SA?AU__false_type@2@XZ ; stlp_std::_TrivialUCopy<CMotionDef,CMotionDef>::_Answer
PUBLIC	??$__ucopy_aux@PBVCMotionDef@@PAV1@@priv@stlp_std@@YAPAVCMotionDef@@PBV2@0PAV2@ABU__true_type@1@@Z ; stlp_std::priv::__ucopy_aux<CMotionDef const *,CMotionDef *>
PUBLIC	??$uninitialized_copy@PBVCMotionDef@@PAV1@@stlp_std@@YAPAVCMotionDef@@PBV1@0PAV1@@Z ; stlp_std::uninitialized_copy<CMotionDef const *,CMotionDef *>
PUBLIC	??$_M_allocate_and_copy@PBVCMotionDef@@@?$_Impl_vector@VCMotionDef@@V?$xalloc@VCMotionDef@@@@@priv@stlp_std@@AAEPAVCMotionDef@@AAIPBV3@1@Z ; stlp_std::priv::_Impl_vector<CMotionDef,xalloc<CMotionDef> >::_M_allocate_and_copy<CMotionDef const *>
PUBLIC	??$__copy@PBVCMotionDef@@PAV1@H@priv@stlp_std@@YAPAVCMotionDef@@PBV2@0PAV2@ABUrandom_access_iterator_tag@1@PAH@Z ; stlp_std::priv::__copy<CMotionDef const *,CMotionDef *,int>
PUBLIC	??$__copy_ptrs@PBVCMotionDef@@PAV1@@priv@stlp_std@@YAPAVCMotionDef@@PBV2@0PAV2@ABU__false_type@1@@Z ; stlp_std::priv::__copy_ptrs<CMotionDef const *,CMotionDef *>
PUBLIC	??4?$_Impl_vector@VCMotionDef@@V?$xalloc@VCMotionDef@@@@@priv@stlp_std@@QAEAAV012@ABV012@@Z ; stlp_std::priv::_Impl_vector<CMotionDef,xalloc<CMotionDef> >::operator=
PUBLIC	??4?$vector@VCMotionDef@@V?$xalloc@VCMotionDef@@@@@stlp_std@@QAEAAV01@ABV01@@Z ; stlp_std::vector<CMotionDef,xalloc<CMotionDef> >::operator=
PUBLIC	??4?$xr_vector@VCMotionDef@@V?$xalloc@VCMotionDef@@@@@@QAEAAV0@ABV0@@Z ; xr_vector<CMotionDef,xalloc<CMotionDef> >::operator=
PUBLIC	?_M_root@?$_Rb_tree@Vshared_str@@U?$less@Vshared_str@@@stlp_std@@U?$pair@$$CBVshared_str@@V?$xr_vector@VCMotion@@V?$xalloc@VCMotion@@@@@@@3@U?$_Select1st@U?$pair@$$CBVshared_str@@V?$xr_vector@VCMotion@@V?$xalloc@VCMotion@@@@@@@stlp_std@@@priv@3@U?$_MapTraitsT@U?$pair@$$CBVshared_str@@V?$xr_vector@VCMotion@@V?$xalloc@VCMotion@@@@@@@stlp_std@@@63@V?$xalloc@U?$pair@Vshared_str@@V?$xr_vector@VCMotion@@V?$xalloc@VCMotion@@@@@@@stlp_std@@@@@priv@stlp_std@@IBEPAU_Rb_tree_node_base@23@XZ ; stlp_std::priv::_Rb_tree<shared_str,stlp_std::less<shared_str>,stlp_std::pair<shared_str const ,xr_vector<CMotion,xalloc<CMotion> > >,stlp_std::priv::_Select1st<stlp_std::pair<shared_str const ,xr_vector<CMotion,xalloc<CMotion> > > >,stlp_std::priv::_MapTraitsT<stlp_std::pair<shared_str const ,xr_vector<CMotion,xalloc<CMotion> > > >,xalloc<stlp_std::pair<shared_str,xr_vector<CMotion,xalloc<CMotion> > > > >::_M_root
PUBLIC	?_S_minimum@?$_Rb_tree@Vshared_str@@U?$less@Vshared_str@@@stlp_std@@U?$pair@$$CBVshared_str@@V?$xr_vector@VCMotion@@V?$xalloc@VCMotion@@@@@@@3@U?$_Select1st@U?$pair@$$CBVshared_str@@V?$xr_vector@VCMotion@@V?$xalloc@VCMotion@@@@@@@stlp_std@@@priv@3@U?$_MapTraitsT@U?$pair@$$CBVshared_str@@V?$xr_vector@VCMotion@@V?$xalloc@VCMotion@@@@@@@stlp_std@@@63@V?$xalloc@U?$pair@Vshared_str@@V?$xr_vector@VCMotion@@V?$xalloc@VCMotion@@@@@@@stlp_std@@@@@priv@stlp_std@@KAPAU_Rb_tree_node_base@23@PAU423@@Z ; stlp_std::priv::_Rb_tree<shared_str,stlp_std::less<shared_str>,stlp_std::pair<shared_str const ,xr_vector<CMotion,xalloc<CMotion> > >,stlp_std::priv::_Select1st<stlp_std::pair<shared_str const ,xr_vector<CMotion,xalloc<CMotion> > > >,stlp_std::priv::_MapTraitsT<stlp_std::pair<shared_str const ,xr_vector<CMotion,xalloc<CMotion> > > >,xalloc<stlp_std::pair<shared_str,xr_vector<CMotion,xalloc<CMotion> > > > >::_S_minimum
PUBLIC	?_S_maximum@?$_Rb_tree@Vshared_str@@U?$less@Vshared_str@@@stlp_std@@U?$pair@$$CBVshared_str@@V?$xr_vector@VCMotion@@V?$xalloc@VCMotion@@@@@@@3@U?$_Select1st@U?$pair@$$CBVshared_str@@V?$xr_vector@VCMotion@@V?$xalloc@VCMotion@@@@@@@stlp_std@@@priv@3@U?$_MapTraitsT@U?$pair@$$CBVshared_str@@V?$xr_vector@VCMotion@@V?$xalloc@VCMotion@@@@@@@stlp_std@@@63@V?$xalloc@U?$pair@Vshared_str@@V?$xr_vector@VCMotion@@V?$xalloc@VCMotion@@@@@@@stlp_std@@@@@priv@stlp_std@@KAPAU_Rb_tree_node_base@23@PAU423@@Z ; stlp_std::priv::_Rb_tree<shared_str,stlp_std::less<shared_str>,stlp_std::pair<shared_str const ,xr_vector<CMotion,xalloc<CMotion> > >,stlp_std::priv::_Select1st<stlp_std::pair<shared_str const ,xr_vector<CMotion,xalloc<CMotion> > > >,stlp_std::priv::_MapTraitsT<stlp_std::pair<shared_str const ,xr_vector<CMotion,xalloc<CMotion> > > >,xalloc<stlp_std::pair<shared_str,xr_vector<CMotion,xalloc<CMotion> > > > >::_S_maximum
PUBLIC	??$xr_alloc@U?$_Rb_tree_node@U?$pair@$$CBVshared_str@@V?$xr_vector@VCMotion@@V?$xalloc@VCMotion@@@@@@@stlp_std@@@priv@stlp_std@@@@YAPAU?$_Rb_tree_node@U?$pair@$$CBVshared_str@@V?$xr_vector@VCMotion@@V?$xalloc@VCMotion@@@@@@@stlp_std@@@priv@stlp_std@@I@Z ; xr_alloc<stlp_std::priv::_Rb_tree_node<stlp_std::pair<shared_str const ,xr_vector<CMotion,xalloc<CMotion> > > > >
PUBLIC	?allocate@?$xalloc@U?$_Rb_tree_node@U?$pair@$$CBVshared_str@@V?$xr_vector@VCMotion@@V?$xalloc@VCMotion@@@@@@@stlp_std@@@priv@stlp_std@@@@QBEPAU?$_Rb_tree_node@U?$pair@$$CBVshared_str@@V?$xr_vector@VCMotion@@V?$xalloc@VCMotion@@@@@@@stlp_std@@@priv@stlp_std@@IPBX@Z ; xalloc<stlp_std::priv::_Rb_tree_node<stlp_std::pair<shared_str const ,xr_vector<CMotion,xalloc<CMotion> > > > >::allocate
PUBLIC	?allocate@?$_STLP_alloc_proxy@U_Rb_tree_node_base@priv@stlp_std@@U?$_Rb_tree_node@U?$pair@$$CBVshared_str@@V?$xr_vector@VCMotion@@V?$xalloc@VCMotion@@@@@@@stlp_std@@@23@V?$xalloc@U?$_Rb_tree_node@U?$pair@$$CBVshared_str@@V?$xr_vector@VCMotion@@V?$xalloc@VCMotion@@@@@@@stlp_std@@@priv@stlp_std@@@@@priv@stlp_std@@QAEPAU?$_Rb_tree_node@U?$pair@$$CBVshared_str@@V?$xr_vector@VCMotion@@V?$xalloc@VCMotion@@@@@@@stlp_std@@@23@I@Z ; stlp_std::priv::_STLP_alloc_proxy<stlp_std::priv::_Rb_tree_node_base,stlp_std::priv::_Rb_tree_node<stlp_std::pair<shared_str const ,xr_vector<CMotion,xalloc<CMotion> > > >,xalloc<stlp_std::priv::_Rb_tree_node<stlp_std::pair<shared_str const ,xr_vector<CMotion,xalloc<CMotion> > > > > >::allocate
PUBLIC	??0?$_STLP_alloc_proxy@PAVCMotion@@V1@V?$xalloc@VCMotion@@@@@priv@stlp_std@@QAE@ABV?$xalloc@VCMotion@@@@PAVCMotion@@@Z ; stlp_std::priv::_STLP_alloc_proxy<CMotion *,CMotion,xalloc<CMotion> >::_STLP_alloc_proxy<CMotion *,CMotion,xalloc<CMotion> >
PUBLIC	??$xr_alloc@VCMotion@@@@YAPAVCMotion@@I@Z	; xr_alloc<CMotion>
PUBLIC	?allocate@?$xalloc@VCMotion@@@@QBEPAVCMotion@@IPBX@Z ; xalloc<CMotion>::allocate
PUBLIC	?allocate@?$_STLP_alloc_proxy@PAVCMotion@@V1@V?$xalloc@VCMotion@@@@@priv@stlp_std@@QAEPAVCMotion@@I@Z ; stlp_std::priv::_STLP_alloc_proxy<CMotion *,CMotion,xalloc<CMotion> >::allocate
PUBLIC	?allocate@?$_STLP_alloc_proxy@PAVCMotion@@V1@V?$xalloc@VCMotion@@@@@priv@stlp_std@@AAEPAVCMotion@@IAAIABU__false_type@3@@Z ; stlp_std::priv::_STLP_alloc_proxy<CMotion *,CMotion,xalloc<CMotion> >::allocate
PUBLIC	?allocate@?$_STLP_alloc_proxy@PAVCMotion@@V1@V?$xalloc@VCMotion@@@@@priv@stlp_std@@QAEPAVCMotion@@IAAI@Z ; stlp_std::priv::_STLP_alloc_proxy<CMotion *,CMotion,xalloc<CMotion> >::allocate
PUBLIC	??0?$_Vector_base@VCMotion@@V?$xalloc@VCMotion@@@@@priv@stlp_std@@QAE@IABV?$xalloc@VCMotion@@@@@Z ; stlp_std::priv::_Vector_base<CMotion,xalloc<CMotion> >::_Vector_base<CMotion,xalloc<CMotion> >
PUBLIC	??0?$xalloc@VCMotion@@@@QAE@ABV0@@Z		; xalloc<CMotion>::xalloc<CMotion>
PUBLIC	?get_allocator@?$_Impl_vector@VCMotion@@V?$xalloc@VCMotion@@@@@priv@stlp_std@@QBE?AV?$xalloc@VCMotion@@@@XZ ; stlp_std::priv::_Impl_vector<CMotion,xalloc<CMotion> >::get_allocator
PUBLIC	?begin@?$_Impl_vector@VCMotion@@V?$xalloc@VCMotion@@@@@priv@stlp_std@@QBEPBVCMotion@@XZ ; stlp_std::priv::_Impl_vector<CMotion,xalloc<CMotion> >::begin
PUBLIC	?end@?$_Impl_vector@VCMotion@@V?$xalloc@VCMotion@@@@@priv@stlp_std@@QBEPBVCMotion@@XZ ; stlp_std::priv::_Impl_vector<CMotion,xalloc<CMotion> >::end
PUBLIC	?size@?$_Impl_vector@VCMotion@@V?$xalloc@VCMotion@@@@@priv@stlp_std@@QBEIXZ ; stlp_std::priv::_Impl_vector<CMotion,xalloc<CMotion> >::size
PUBLIC	??$_Param_Construct@VCMotion@@V1@@stlp_std@@YAXPAVCMotion@@ABV1@@Z ; stlp_std::_Param_Construct<CMotion,CMotion>
PUBLIC	??$__ucopy@PBVCMotion@@PAV1@H@priv@stlp_std@@YAPAVCMotion@@PBV2@0PAV2@ABUrandom_access_iterator_tag@1@PAH@Z ; stlp_std::priv::__ucopy<CMotion const *,CMotion *,int>
PUBLIC	??$__ucopy_ptrs@PBVCMotion@@PAV1@@priv@stlp_std@@YAPAVCMotion@@PBV2@0PAV2@ABU__false_type@1@@Z ; stlp_std::priv::__ucopy_ptrs<CMotion const *,CMotion *>
PUBLIC	??0?$_Impl_vector@VCMotion@@V?$xalloc@VCMotion@@@@@priv@stlp_std@@QAE@ABV012@@Z ; stlp_std::priv::_Impl_vector<CMotion,xalloc<CMotion> >::_Impl_vector<CMotion,xalloc<CMotion> >
PUBLIC	??0?$vector@VCMotion@@V?$xalloc@VCMotion@@@@@stlp_std@@QAE@ABV01@@Z ; stlp_std::vector<CMotion,xalloc<CMotion> >::vector<CMotion,xalloc<CMotion> >
PUBLIC	??0?$xr_vector@VCMotion@@V?$xalloc@VCMotion@@@@@@QAE@ABV0@@Z ; xr_vector<CMotion,xalloc<CMotion> >::xr_vector<CMotion,xalloc<CMotion> >
PUBLIC	??0?$pair@$$CBVshared_str@@V?$xr_vector@VCMotion@@V?$xalloc@VCMotion@@@@@@@stlp_std@@QAE@ABU01@@Z ; stlp_std::pair<shared_str const ,xr_vector<CMotion,xalloc<CMotion> > >::pair<shared_str const ,xr_vector<CMotion,xalloc<CMotion> > >
PUBLIC	??$_Copy_Construct@U?$pair@$$CBVshared_str@@V?$xr_vector@VCMotion@@V?$xalloc@VCMotion@@@@@@@stlp_std@@@stlp_std@@YAXPAU?$pair@$$CBVshared_str@@V?$xr_vector@VCMotion@@V?$xalloc@VCMotion@@@@@@@0@ABU10@@Z ; stlp_std::_Copy_Construct<stlp_std::pair<shared_str const ,xr_vector<CMotion,xalloc<CMotion> > > >
PUBLIC	?_M_create_node@?$_Rb_tree@Vshared_str@@U?$less@Vshared_str@@@stlp_std@@U?$pair@$$CBVshared_str@@V?$xr_vector@VCMotion@@V?$xalloc@VCMotion@@@@@@@3@U?$_Select1st@U?$pair@$$CBVshared_str@@V?$xr_vector@VCMotion@@V?$xalloc@VCMotion@@@@@@@stlp_std@@@priv@3@U?$_MapTraitsT@U?$pair@$$CBVshared_str@@V?$xr_vector@VCMotion@@V?$xalloc@VCMotion@@@@@@@stlp_std@@@63@V?$xalloc@U?$pair@Vshared_str@@V?$xr_vector@VCMotion@@V?$xalloc@VCMotion@@@@@@@stlp_std@@@@@priv@stlp_std@@IAEPAU_Rb_tree_node_base@23@ABU?$pair@$$CBVshared_str@@V?$xr_vector@VCMotion@@V?$xalloc@VCMotion@@@@@@@3@@Z ; stlp_std::priv::_Rb_tree<shared_str,stlp_std::less<shared_str>,stlp_std::pair<shared_str const ,xr_vector<CMotion,xalloc<CMotion> > >,stlp_std::priv::_Select1st<stlp_std::pair<shared_str const ,xr_vector<CMotion,xalloc<CMotion> > > >,stlp_std::priv::_MapTraitsT<stlp_std::pair<shared_str const ,xr_vector<CMotion,xalloc<CMotion> > > >,xalloc<stlp_std::pair<shared_str,xr_vector<CMotion,xalloc<CMotion> > > > >::_M_create_node
PUBLIC	?_S_color@?$_Rb_tree@Vshared_str@@U?$less@Vshared_str@@@stlp_std@@U?$pair@$$CBVshared_str@@V?$xr_vector@VCMotion@@V?$xalloc@VCMotion@@@@@@@3@U?$_Select1st@U?$pair@$$CBVshared_str@@V?$xr_vector@VCMotion@@V?$xalloc@VCMotion@@@@@@@stlp_std@@@priv@3@U?$_MapTraitsT@U?$pair@$$CBVshared_str@@V?$xr_vector@VCMotion@@V?$xalloc@VCMotion@@@@@@@stlp_std@@@63@V?$xalloc@U?$pair@Vshared_str@@V?$xr_vector@VCMotion@@V?$xalloc@VCMotion@@@@@@@stlp_std@@@@@priv@stlp_std@@KAAA_NPAU_Rb_tree_node_base@23@@Z ; stlp_std::priv::_Rb_tree<shared_str,stlp_std::less<shared_str>,stlp_std::pair<shared_str const ,xr_vector<CMotion,xalloc<CMotion> > >,stlp_std::priv::_Select1st<stlp_std::pair<shared_str const ,xr_vector<CMotion,xalloc<CMotion> > > >,stlp_std::priv::_MapTraitsT<stlp_std::pair<shared_str const ,xr_vector<CMotion,xalloc<CMotion> > > >,xalloc<stlp_std::pair<shared_str,xr_vector<CMotion,xalloc<CMotion> > > > >::_S_color
PUBLIC	?_M_clone_node@?$_Rb_tree@Vshared_str@@U?$less@Vshared_str@@@stlp_std@@U?$pair@$$CBVshared_str@@V?$xr_vector@VCMotion@@V?$xalloc@VCMotion@@@@@@@3@U?$_Select1st@U?$pair@$$CBVshared_str@@V?$xr_vector@VCMotion@@V?$xalloc@VCMotion@@@@@@@stlp_std@@@priv@3@U?$_MapTraitsT@U?$pair@$$CBVshared_str@@V?$xr_vector@VCMotion@@V?$xalloc@VCMotion@@@@@@@stlp_std@@@63@V?$xalloc@U?$pair@Vshared_str@@V?$xr_vector@VCMotion@@V?$xalloc@VCMotion@@@@@@@stlp_std@@@@@priv@stlp_std@@IAEPAU_Rb_tree_node_base@23@PAU423@@Z ; stlp_std::priv::_Rb_tree<shared_str,stlp_std::less<shared_str>,stlp_std::pair<shared_str const ,xr_vector<CMotion,xalloc<CMotion> > >,stlp_std::priv::_Select1st<stlp_std::pair<shared_str const ,xr_vector<CMotion,xalloc<CMotion> > > >,stlp_std::priv::_MapTraitsT<stlp_std::pair<shared_str const ,xr_vector<CMotion,xalloc<CMotion> > > >,xalloc<stlp_std::pair<shared_str,xr_vector<CMotion,xalloc<CMotion> > > > >::_M_clone_node
PUBLIC	?_S_parent@?$_Rb_tree@Vshared_str@@U?$less@Vshared_str@@@stlp_std@@U?$pair@$$CBVshared_str@@V?$xr_vector@VCMotion@@V?$xalloc@VCMotion@@@@@@@3@U?$_Select1st@U?$pair@$$CBVshared_str@@V?$xr_vector@VCMotion@@V?$xalloc@VCMotion@@@@@@@stlp_std@@@priv@3@U?$_MapTraitsT@U?$pair@$$CBVshared_str@@V?$xr_vector@VCMotion@@V?$xalloc@VCMotion@@@@@@@stlp_std@@@63@V?$xalloc@U?$pair@Vshared_str@@V?$xr_vector@VCMotion@@V?$xalloc@VCMotion@@@@@@@stlp_std@@@@@priv@stlp_std@@KAAAPAU_Rb_tree_node_base@23@PAU423@@Z ; stlp_std::priv::_Rb_tree<shared_str,stlp_std::less<shared_str>,stlp_std::pair<shared_str const ,xr_vector<CMotion,xalloc<CMotion> > >,stlp_std::priv::_Select1st<stlp_std::pair<shared_str const ,xr_vector<CMotion,xalloc<CMotion> > > >,stlp_std::priv::_MapTraitsT<stlp_std::pair<shared_str const ,xr_vector<CMotion,xalloc<CMotion> > > >,xalloc<stlp_std::pair<shared_str,xr_vector<CMotion,xalloc<CMotion> > > > >::_S_parent
PUBLIC	?_M_copy@?$_Rb_tree@Vshared_str@@U?$less@Vshared_str@@@stlp_std@@U?$pair@$$CBVshared_str@@V?$xr_vector@VCMotion@@V?$xalloc@VCMotion@@@@@@@3@U?$_Select1st@U?$pair@$$CBVshared_str@@V?$xr_vector@VCMotion@@V?$xalloc@VCMotion@@@@@@@stlp_std@@@priv@3@U?$_MapTraitsT@U?$pair@$$CBVshared_str@@V?$xr_vector@VCMotion@@V?$xalloc@VCMotion@@@@@@@stlp_std@@@63@V?$xalloc@U?$pair@Vshared_str@@V?$xr_vector@VCMotion@@V?$xalloc@VCMotion@@@@@@@stlp_std@@@@@priv@stlp_std@@AAEPAU_Rb_tree_node_base@23@PAU423@0@Z ; stlp_std::priv::_Rb_tree<shared_str,stlp_std::less<shared_str>,stlp_std::pair<shared_str const ,xr_vector<CMotion,xalloc<CMotion> > >,stlp_std::priv::_Select1st<stlp_std::pair<shared_str const ,xr_vector<CMotion,xalloc<CMotion> > > >,stlp_std::priv::_MapTraitsT<stlp_std::pair<shared_str const ,xr_vector<CMotion,xalloc<CMotion> > > >,xalloc<stlp_std::pair<shared_str,xr_vector<CMotion,xalloc<CMotion> > > > >::_M_copy
PUBLIC	?_M_root@?$_Rb_tree@Vshared_str@@U?$less@Vshared_str@@@stlp_std@@U?$pair@$$CBVshared_str@@V?$xr_vector@VCMotion@@V?$xalloc@VCMotion@@@@@@@3@U?$_Select1st@U?$pair@$$CBVshared_str@@V?$xr_vector@VCMotion@@V?$xalloc@VCMotion@@@@@@@stlp_std@@@priv@3@U?$_MapTraitsT@U?$pair@$$CBVshared_str@@V?$xr_vector@VCMotion@@V?$xalloc@VCMotion@@@@@@@stlp_std@@@63@V?$xalloc@U?$pair@Vshared_str@@V?$xr_vector@VCMotion@@V?$xalloc@VCMotion@@@@@@@stlp_std@@@@@priv@stlp_std@@IAEAAPAU_Rb_tree_node_base@23@XZ ; stlp_std::priv::_Rb_tree<shared_str,stlp_std::less<shared_str>,stlp_std::pair<shared_str const ,xr_vector<CMotion,xalloc<CMotion> > >,stlp_std::priv::_Select1st<stlp_std::pair<shared_str const ,xr_vector<CMotion,xalloc<CMotion> > > >,stlp_std::priv::_MapTraitsT<stlp_std::pair<shared_str const ,xr_vector<CMotion,xalloc<CMotion> > > >,xalloc<stlp_std::pair<shared_str,xr_vector<CMotion,xalloc<CMotion> > > > >::_M_root
PUBLIC	?_M_leftmost@?$_Rb_tree@Vshared_str@@U?$less@Vshared_str@@@stlp_std@@U?$pair@$$CBVshared_str@@V?$xr_vector@VCMotion@@V?$xalloc@VCMotion@@@@@@@3@U?$_Select1st@U?$pair@$$CBVshared_str@@V?$xr_vector@VCMotion@@V?$xalloc@VCMotion@@@@@@@stlp_std@@@priv@3@U?$_MapTraitsT@U?$pair@$$CBVshared_str@@V?$xr_vector@VCMotion@@V?$xalloc@VCMotion@@@@@@@stlp_std@@@63@V?$xalloc@U?$pair@Vshared_str@@V?$xr_vector@VCMotion@@V?$xalloc@VCMotion@@@@@@@stlp_std@@@@@priv@stlp_std@@IAEAAPAU_Rb_tree_node_base@23@XZ ; stlp_std::priv::_Rb_tree<shared_str,stlp_std::less<shared_str>,stlp_std::pair<shared_str const ,xr_vector<CMotion,xalloc<CMotion> > >,stlp_std::priv::_Select1st<stlp_std::pair<shared_str const ,xr_vector<CMotion,xalloc<CMotion> > > >,stlp_std::priv::_MapTraitsT<stlp_std::pair<shared_str const ,xr_vector<CMotion,xalloc<CMotion> > > >,xalloc<stlp_std::pair<shared_str,xr_vector<CMotion,xalloc<CMotion> > > > >::_M_leftmost
PUBLIC	?_M_rightmost@?$_Rb_tree@Vshared_str@@U?$less@Vshared_str@@@stlp_std@@U?$pair@$$CBVshared_str@@V?$xr_vector@VCMotion@@V?$xalloc@VCMotion@@@@@@@3@U?$_Select1st@U?$pair@$$CBVshared_str@@V?$xr_vector@VCMotion@@V?$xalloc@VCMotion@@@@@@@stlp_std@@@priv@3@U?$_MapTraitsT@U?$pair@$$CBVshared_str@@V?$xr_vector@VCMotion@@V?$xalloc@VCMotion@@@@@@@stlp_std@@@63@V?$xalloc@U?$pair@Vshared_str@@V?$xr_vector@VCMotion@@V?$xalloc@VCMotion@@@@@@@stlp_std@@@@@priv@stlp_std@@IAEAAPAU_Rb_tree_node_base@23@XZ ; stlp_std::priv::_Rb_tree<shared_str,stlp_std::less<shared_str>,stlp_std::pair<shared_str const ,xr_vector<CMotion,xalloc<CMotion> > >,stlp_std::priv::_Select1st<stlp_std::pair<shared_str const ,xr_vector<CMotion,xalloc<CMotion> > > >,stlp_std::priv::_MapTraitsT<stlp_std::pair<shared_str const ,xr_vector<CMotion,xalloc<CMotion> > > >,xalloc<stlp_std::pair<shared_str,xr_vector<CMotion,xalloc<CMotion> > > > >::_M_rightmost
PUBLIC	??$xr_free@U?$_Rb_tree_node@U?$pair@$$CBVshared_str@@V?$xr_vector@VCMotion@@V?$xalloc@VCMotion@@@@@@@stlp_std@@@priv@stlp_std@@@@YAXAAPAU?$_Rb_tree_node@U?$pair@$$CBVshared_str@@V?$xr_vector@VCMotion@@V?$xalloc@VCMotion@@@@@@@stlp_std@@@priv@stlp_std@@@Z ; xr_free<stlp_std::priv::_Rb_tree_node<stlp_std::pair<shared_str const ,xr_vector<CMotion,xalloc<CMotion> > > > >
PUBLIC	?deallocate@?$xalloc@U?$_Rb_tree_node@U?$pair@$$CBVshared_str@@V?$xr_vector@VCMotion@@V?$xalloc@VCMotion@@@@@@@stlp_std@@@priv@stlp_std@@@@QBEXPAU?$_Rb_tree_node@U?$pair@$$CBVshared_str@@V?$xr_vector@VCMotion@@V?$xalloc@VCMotion@@@@@@@stlp_std@@@priv@stlp_std@@I@Z ; xalloc<stlp_std::priv::_Rb_tree_node<stlp_std::pair<shared_str const ,xr_vector<CMotion,xalloc<CMotion> > > > >::deallocate
PUBLIC	?_S_left@?$_Rb_tree@Vshared_str@@U?$less@Vshared_str@@@stlp_std@@U?$pair@$$CBVshared_str@@V?$xr_vector@VCMotion@@V?$xalloc@VCMotion@@@@@@@3@U?$_Select1st@U?$pair@$$CBVshared_str@@V?$xr_vector@VCMotion@@V?$xalloc@VCMotion@@@@@@@stlp_std@@@priv@3@U?$_MapTraitsT@U?$pair@$$CBVshared_str@@V?$xr_vector@VCMotion@@V?$xalloc@VCMotion@@@@@@@stlp_std@@@63@V?$xalloc@U?$pair@Vshared_str@@V?$xr_vector@VCMotion@@V?$xalloc@VCMotion@@@@@@@stlp_std@@@@@priv@stlp_std@@KAAAPAU_Rb_tree_node_base@23@PAU423@@Z ; stlp_std::priv::_Rb_tree<shared_str,stlp_std::less<shared_str>,stlp_std::pair<shared_str const ,xr_vector<CMotion,xalloc<CMotion> > >,stlp_std::priv::_Select1st<stlp_std::pair<shared_str const ,xr_vector<CMotion,xalloc<CMotion> > > >,stlp_std::priv::_MapTraitsT<stlp_std::pair<shared_str const ,xr_vector<CMotion,xalloc<CMotion> > > >,xalloc<stlp_std::pair<shared_str,xr_vector<CMotion,xalloc<CMotion> > > > >::_S_left
PUBLIC	?_S_right@?$_Rb_tree@Vshared_str@@U?$less@Vshared_str@@@stlp_std@@U?$pair@$$CBVshared_str@@V?$xr_vector@VCMotion@@V?$xalloc@VCMotion@@@@@@@3@U?$_Select1st@U?$pair@$$CBVshared_str@@V?$xr_vector@VCMotion@@V?$xalloc@VCMotion@@@@@@@stlp_std@@@priv@3@U?$_MapTraitsT@U?$pair@$$CBVshared_str@@V?$xr_vector@VCMotion@@V?$xalloc@VCMotion@@@@@@@stlp_std@@@63@V?$xalloc@U?$pair@Vshared_str@@V?$xr_vector@VCMotion@@V?$xalloc@VCMotion@@@@@@@stlp_std@@@@@priv@stlp_std@@KAAAPAU_Rb_tree_node_base@23@PAU423@@Z ; stlp_std::priv::_Rb_tree<shared_str,stlp_std::less<shared_str>,stlp_std::pair<shared_str const ,xr_vector<CMotion,xalloc<CMotion> > >,stlp_std::priv::_Select1st<stlp_std::pair<shared_str const ,xr_vector<CMotion,xalloc<CMotion> > > >,stlp_std::priv::_MapTraitsT<stlp_std::pair<shared_str const ,xr_vector<CMotion,xalloc<CMotion> > > >,xalloc<stlp_std::pair<shared_str,xr_vector<CMotion,xalloc<CMotion> > > > >::_S_right
PUBLIC	?_S_value@?$_Rb_tree@Vshared_str@@U?$less@Vshared_str@@@stlp_std@@U?$pair@$$CBVshared_str@@V?$xr_vector@VCMotion@@V?$xalloc@VCMotion@@@@@@@3@U?$_Select1st@U?$pair@$$CBVshared_str@@V?$xr_vector@VCMotion@@V?$xalloc@VCMotion@@@@@@@stlp_std@@@priv@3@U?$_MapTraitsT@U?$pair@$$CBVshared_str@@V?$xr_vector@VCMotion@@V?$xalloc@VCMotion@@@@@@@stlp_std@@@63@V?$xalloc@U?$pair@Vshared_str@@V?$xr_vector@VCMotion@@V?$xalloc@VCMotion@@@@@@@stlp_std@@@@@priv@stlp_std@@KAAAU?$pair@$$CBVshared_str@@V?$xr_vector@VCMotion@@V?$xalloc@VCMotion@@@@@@@3@PAU_Rb_tree_node_base@23@@Z ; stlp_std::priv::_Rb_tree<shared_str,stlp_std::less<shared_str>,stlp_std::pair<shared_str const ,xr_vector<CMotion,xalloc<CMotion> > >,stlp_std::priv::_Select1st<stlp_std::pair<shared_str const ,xr_vector<CMotion,xalloc<CMotion> > > >,stlp_std::priv::_MapTraitsT<stlp_std::pair<shared_str const ,xr_vector<CMotion,xalloc<CMotion> > > >,xalloc<stlp_std::pair<shared_str,xr_vector<CMotion,xalloc<CMotion> > > > >::_S_value
PUBLIC	??$xr_free@VCMotion@@@@YAXAAPAVCMotion@@@Z	; xr_free<CMotion>
PUBLIC	?deallocate@?$xalloc@VCMotion@@@@QBEXPAVCMotion@@I@Z ; xalloc<CMotion>::deallocate
PUBLIC	??1?$_Vector_base@VCMotion@@V?$xalloc@VCMotion@@@@@priv@stlp_std@@QAE@XZ ; stlp_std::priv::_Vector_base<CMotion,xalloc<CMotion> >::~_Vector_base<CMotion,xalloc<CMotion> >
PUBLIC	?end@?$_Impl_vector@VCMotion@@V?$xalloc@VCMotion@@@@@priv@stlp_std@@QAEPAVCMotion@@XZ ; stlp_std::priv::_Impl_vector<CMotion,xalloc<CMotion> >::end
PUBLIC	?rbegin@?$_Impl_vector@VCMotion@@V?$xalloc@VCMotion@@@@@priv@stlp_std@@QAE?AV?$reverse_iterator@PAVCMotion@@@3@XZ ; stlp_std::priv::_Impl_vector<CMotion,xalloc<CMotion> >::rbegin
PUBLIC	?begin@?$_Impl_vector@VCMotion@@V?$xalloc@VCMotion@@@@@priv@stlp_std@@QAEPAVCMotion@@XZ ; stlp_std::priv::_Impl_vector<CMotion,xalloc<CMotion> >::begin
PUBLIC	??0?$reverse_iterator@PAVCMotion@@@stlp_std@@QAE@PAVCMotion@@@Z ; stlp_std::reverse_iterator<CMotion *>::reverse_iterator<CMotion *>
PUBLIC	?rend@?$_Impl_vector@VCMotion@@V?$xalloc@VCMotion@@@@@priv@stlp_std@@QAE?AV?$reverse_iterator@PAVCMotion@@@3@XZ ; stlp_std::priv::_Impl_vector<CMotion,xalloc<CMotion> >::rend
PUBLIC	??0?$reverse_iterator@PAVCMotion@@@stlp_std@@QAE@ABV01@@Z ; stlp_std::reverse_iterator<CMotion *>::reverse_iterator<CMotion *>
PUBLIC	??D?$reverse_iterator@PAVCMotion@@@stlp_std@@QBEAAVCMotion@@XZ ; stlp_std::reverse_iterator<CMotion *>::operator*
PUBLIC	??E?$reverse_iterator@PAVCMotion@@@stlp_std@@QAEAAV01@XZ ; stlp_std::reverse_iterator<CMotion *>::operator++
PUBLIC	??_GCMotion@@QAEPAXI@Z				; CMotion::`scalar deleting destructor'
PUBLIC	??$__destroy_aux@VCMotion@@@stlp_std@@YAXPAVCMotion@@ABU__false_type@0@@Z ; stlp_std::__destroy_aux<CMotion>
PUBLIC	?base@?$reverse_iterator@PAVCMotion@@@stlp_std@@QBEPAVCMotion@@XZ ; stlp_std::reverse_iterator<CMotion *>::base
PUBLIC	??$?8PAVCMotion@@@stlp_std@@YA_NABV?$reverse_iterator@PAVCMotion@@@0@0@Z ; stlp_std::operator==<CMotion *>
PUBLIC	??$?9PAVCMotion@@@stlp_std@@YA_NABV?$reverse_iterator@PAVCMotion@@@0@0@Z ; stlp_std::operator!=<CMotion *>
PUBLIC	??$__destroy_range_aux@V?$reverse_iterator@PAVCMotion@@@stlp_std@@VCMotion@@@stlp_std@@YAXV?$reverse_iterator@PAVCMotion@@@0@0PAVCMotion@@ABU__false_type@0@@Z ; stlp_std::__destroy_range_aux<stlp_std::reverse_iterator<CMotion *>,CMotion>
PUBLIC	??$__destroy_range@V?$reverse_iterator@PAVCMotion@@@stlp_std@@VCMotion@@@stlp_std@@YAXV?$reverse_iterator@PAVCMotion@@@0@0PAVCMotion@@@Z ; stlp_std::__destroy_range<stlp_std::reverse_iterator<CMotion *>,CMotion>
PUBLIC	??$_Destroy_Range@V?$reverse_iterator@PAVCMotion@@@stlp_std@@@stlp_std@@YAXV?$reverse_iterator@PAVCMotion@@@0@0@Z ; stlp_std::_Destroy_Range<stlp_std::reverse_iterator<CMotion *> >
PUBLIC	??1?$_Impl_vector@VCMotion@@V?$xalloc@VCMotion@@@@@priv@stlp_std@@QAE@XZ ; stlp_std::priv::_Impl_vector<CMotion,xalloc<CMotion> >::~_Impl_vector<CMotion,xalloc<CMotion> >
PUBLIC	??1?$vector@VCMotion@@V?$xalloc@VCMotion@@@@@stlp_std@@QAE@XZ ; stlp_std::vector<CMotion,xalloc<CMotion> >::~vector<CMotion,xalloc<CMotion> >
PUBLIC	??1?$xr_vector@VCMotion@@V?$xalloc@VCMotion@@@@@@QAE@XZ ; xr_vector<CMotion,xalloc<CMotion> >::~xr_vector<CMotion,xalloc<CMotion> >
PUBLIC	??1?$pair@$$CBVshared_str@@V?$xr_vector@VCMotion@@V?$xalloc@VCMotion@@@@@@@stlp_std@@QAE@XZ ; stlp_std::pair<shared_str const ,xr_vector<CMotion,xalloc<CMotion> > >::~pair<shared_str const ,xr_vector<CMotion,xalloc<CMotion> > >
PUBLIC	??_G?$pair@$$CBVshared_str@@V?$xr_vector@VCMotion@@V?$xalloc@VCMotion@@@@@@@stlp_std@@QAEPAXI@Z ; stlp_std::pair<shared_str const ,xr_vector<CMotion,xalloc<CMotion> > >::`scalar deleting destructor'
PUBLIC	??$__destroy_aux@U?$pair@$$CBVshared_str@@V?$xr_vector@VCMotion@@V?$xalloc@VCMotion@@@@@@@stlp_std@@@stlp_std@@YAXPAU?$pair@$$CBVshared_str@@V?$xr_vector@VCMotion@@V?$xalloc@VCMotion@@@@@@@0@ABU__false_type@0@@Z ; stlp_std::__destroy_aux<stlp_std::pair<shared_str const ,xr_vector<CMotion,xalloc<CMotion> > > >
PUBLIC	??$_Destroy@U?$pair@$$CBVshared_str@@V?$xr_vector@VCMotion@@V?$xalloc@VCMotion@@@@@@@stlp_std@@@stlp_std@@YAXPAU?$pair@$$CBVshared_str@@V?$xr_vector@VCMotion@@V?$xalloc@VCMotion@@@@@@@0@@Z ; stlp_std::_Destroy<stlp_std::pair<shared_str const ,xr_vector<CMotion,xalloc<CMotion> > > >
PUBLIC	?_M_erase@?$_Rb_tree@Vshared_str@@U?$less@Vshared_str@@@stlp_std@@U?$pair@$$CBVshared_str@@V?$xr_vector@VCMotion@@V?$xalloc@VCMotion@@@@@@@3@U?$_Select1st@U?$pair@$$CBVshared_str@@V?$xr_vector@VCMotion@@V?$xalloc@VCMotion@@@@@@@stlp_std@@@priv@3@U?$_MapTraitsT@U?$pair@$$CBVshared_str@@V?$xr_vector@VCMotion@@V?$xalloc@VCMotion@@@@@@@stlp_std@@@63@V?$xalloc@U?$pair@Vshared_str@@V?$xr_vector@VCMotion@@V?$xalloc@VCMotion@@@@@@@stlp_std@@@@@priv@stlp_std@@AAEXPAU_Rb_tree_node_base@23@@Z ; stlp_std::priv::_Rb_tree<shared_str,stlp_std::less<shared_str>,stlp_std::pair<shared_str const ,xr_vector<CMotion,xalloc<CMotion> > >,stlp_std::priv::_Select1st<stlp_std::pair<shared_str const ,xr_vector<CMotion,xalloc<CMotion> > > >,stlp_std::priv::_MapTraitsT<stlp_std::pair<shared_str const ,xr_vector<CMotion,xalloc<CMotion> > > >,xalloc<stlp_std::pair<shared_str,xr_vector<CMotion,xalloc<CMotion> > > > >::_M_erase
PUBLIC	?clear@?$_Rb_tree@Vshared_str@@U?$less@Vshared_str@@@stlp_std@@U?$pair@$$CBVshared_str@@V?$xr_vector@VCMotion@@V?$xalloc@VCMotion@@@@@@@3@U?$_Select1st@U?$pair@$$CBVshared_str@@V?$xr_vector@VCMotion@@V?$xalloc@VCMotion@@@@@@@stlp_std@@@priv@3@U?$_MapTraitsT@U?$pair@$$CBVshared_str@@V?$xr_vector@VCMotion@@V?$xalloc@VCMotion@@@@@@@stlp_std@@@63@V?$xalloc@U?$pair@Vshared_str@@V?$xr_vector@VCMotion@@V?$xalloc@VCMotion@@@@@@@stlp_std@@@@@priv@stlp_std@@QAEXXZ ; stlp_std::priv::_Rb_tree<shared_str,stlp_std::less<shared_str>,stlp_std::pair<shared_str const ,xr_vector<CMotion,xalloc<CMotion> > >,stlp_std::priv::_Select1st<stlp_std::pair<shared_str const ,xr_vector<CMotion,xalloc<CMotion> > > >,stlp_std::priv::_MapTraitsT<stlp_std::pair<shared_str const ,xr_vector<CMotion,xalloc<CMotion> > > >,xalloc<stlp_std::pair<shared_str,xr_vector<CMotion,xalloc<CMotion> > > > >::clear
PUBLIC	??4?$_Rb_tree@Vshared_str@@U?$less@Vshared_str@@@stlp_std@@U?$pair@$$CBVshared_str@@V?$xr_vector@VCMotion@@V?$xalloc@VCMotion@@@@@@@3@U?$_Select1st@U?$pair@$$CBVshared_str@@V?$xr_vector@VCMotion@@V?$xalloc@VCMotion@@@@@@@stlp_std@@@priv@3@U?$_MapTraitsT@U?$pair@$$CBVshared_str@@V?$xr_vector@VCMotion@@V?$xalloc@VCMotion@@@@@@@stlp_std@@@63@V?$xalloc@U?$pair@Vshared_str@@V?$xr_vector@VCMotion@@V?$xalloc@VCMotion@@@@@@@stlp_std@@@@@priv@stlp_std@@QAEAAV012@ABV012@@Z ; stlp_std::priv::_Rb_tree<shared_str,stlp_std::less<shared_str>,stlp_std::pair<shared_str const ,xr_vector<CMotion,xalloc<CMotion> > >,stlp_std::priv::_Select1st<stlp_std::pair<shared_str const ,xr_vector<CMotion,xalloc<CMotion> > > >,stlp_std::priv::_MapTraitsT<stlp_std::pair<shared_str const ,xr_vector<CMotion,xalloc<CMotion> > > >,xalloc<stlp_std::pair<shared_str,xr_vector<CMotion,xalloc<CMotion> > > > >::operator=
PUBLIC	??4?$map@Vshared_str@@V?$xr_vector@VCMotion@@V?$xalloc@VCMotion@@@@@@U?$less@Vshared_str@@@stlp_std@@V?$xalloc@U?$pair@Vshared_str@@V?$xr_vector@VCMotion@@V?$xalloc@VCMotion@@@@@@@stlp_std@@@@@stlp_std@@QAEAAV01@ABV01@@Z ; stlp_std::map<shared_str,xr_vector<CMotion,xalloc<CMotion> >,stlp_std::less<shared_str>,xalloc<stlp_std::pair<shared_str,xr_vector<CMotion,xalloc<CMotion> > > > >::operator=
PUBLIC	??4?$xr_map@Vshared_str@@V?$xr_vector@VCMotion@@V?$xalloc@VCMotion@@@@@@U?$less@Vshared_str@@@stlp_std@@V?$xalloc@U?$pair@Vshared_str@@V?$xr_vector@VCMotion@@V?$xalloc@VCMotion@@@@@@@stlp_std@@@@@@QAEAAV0@ABV0@@Z ; xr_map<shared_str,xr_vector<CMotion,xalloc<CMotion> >,stlp_std::less<shared_str>,xalloc<stlp_std::pair<shared_str,xr_vector<CMotion,xalloc<CMotion> > > > >::operator=
PUBLIC	?_M_root@?$_Rb_tree@Vshared_str@@Uaccel_str_pred@@U?$pair@$$CBVshared_str@@G@stlp_std@@U?$_Select1st@U?$pair@$$CBVshared_str@@G@stlp_std@@@priv@4@U?$_MapTraitsT@U?$pair@$$CBVshared_str@@G@stlp_std@@@64@V?$xalloc@U?$pair@Vshared_str@@G@stlp_std@@@@@priv@stlp_std@@IBEPAU_Rb_tree_node_base@23@XZ ; stlp_std::priv::_Rb_tree<shared_str,accel_str_pred,stlp_std::pair<shared_str const ,unsigned short>,stlp_std::priv::_Select1st<stlp_std::pair<shared_str const ,unsigned short> >,stlp_std::priv::_MapTraitsT<stlp_std::pair<shared_str const ,unsigned short> >,xalloc<stlp_std::pair<shared_str,unsigned short> > >::_M_root
PUBLIC	?_S_minimum@?$_Rb_tree@Vshared_str@@Uaccel_str_pred@@U?$pair@$$CBVshared_str@@G@stlp_std@@U?$_Select1st@U?$pair@$$CBVshared_str@@G@stlp_std@@@priv@4@U?$_MapTraitsT@U?$pair@$$CBVshared_str@@G@stlp_std@@@64@V?$xalloc@U?$pair@Vshared_str@@G@stlp_std@@@@@priv@stlp_std@@KAPAU_Rb_tree_node_base@23@PAU423@@Z ; stlp_std::priv::_Rb_tree<shared_str,accel_str_pred,stlp_std::pair<shared_str const ,unsigned short>,stlp_std::priv::_Select1st<stlp_std::pair<shared_str const ,unsigned short> >,stlp_std::priv::_MapTraitsT<stlp_std::pair<shared_str const ,unsigned short> >,xalloc<stlp_std::pair<shared_str,unsigned short> > >::_S_minimum
PUBLIC	?_S_maximum@?$_Rb_tree@Vshared_str@@Uaccel_str_pred@@U?$pair@$$CBVshared_str@@G@stlp_std@@U?$_Select1st@U?$pair@$$CBVshared_str@@G@stlp_std@@@priv@4@U?$_MapTraitsT@U?$pair@$$CBVshared_str@@G@stlp_std@@@64@V?$xalloc@U?$pair@Vshared_str@@G@stlp_std@@@@@priv@stlp_std@@KAPAU_Rb_tree_node_base@23@PAU423@@Z ; stlp_std::priv::_Rb_tree<shared_str,accel_str_pred,stlp_std::pair<shared_str const ,unsigned short>,stlp_std::priv::_Select1st<stlp_std::pair<shared_str const ,unsigned short> >,stlp_std::priv::_MapTraitsT<stlp_std::pair<shared_str const ,unsigned short> >,xalloc<stlp_std::pair<shared_str,unsigned short> > >::_S_maximum
PUBLIC	??$xr_alloc@U?$_Rb_tree_node@U?$pair@$$CBVshared_str@@G@stlp_std@@@priv@stlp_std@@@@YAPAU?$_Rb_tree_node@U?$pair@$$CBVshared_str@@G@stlp_std@@@priv@stlp_std@@I@Z ; xr_alloc<stlp_std::priv::_Rb_tree_node<stlp_std::pair<shared_str const ,unsigned short> > >
PUBLIC	?allocate@?$xalloc@U?$_Rb_tree_node@U?$pair@$$CBVshared_str@@G@stlp_std@@@priv@stlp_std@@@@QBEPAU?$_Rb_tree_node@U?$pair@$$CBVshared_str@@G@stlp_std@@@priv@stlp_std@@IPBX@Z ; xalloc<stlp_std::priv::_Rb_tree_node<stlp_std::pair<shared_str const ,unsigned short> > >::allocate
PUBLIC	?allocate@?$_STLP_alloc_proxy@U_Rb_tree_node_base@priv@stlp_std@@U?$_Rb_tree_node@U?$pair@$$CBVshared_str@@G@stlp_std@@@23@V?$xalloc@U?$_Rb_tree_node@U?$pair@$$CBVshared_str@@G@stlp_std@@@priv@stlp_std@@@@@priv@stlp_std@@QAEPAU?$_Rb_tree_node@U?$pair@$$CBVshared_str@@G@stlp_std@@@23@I@Z ; stlp_std::priv::_STLP_alloc_proxy<stlp_std::priv::_Rb_tree_node_base,stlp_std::priv::_Rb_tree_node<stlp_std::pair<shared_str const ,unsigned short> >,xalloc<stlp_std::priv::_Rb_tree_node<stlp_std::pair<shared_str const ,unsigned short> > > >::allocate
PUBLIC	??0?$pair@$$CBVshared_str@@G@stlp_std@@QAE@ABU01@@Z ; stlp_std::pair<shared_str const ,unsigned short>::pair<shared_str const ,unsigned short>
PUBLIC	??$_Copy_Construct@U?$pair@$$CBVshared_str@@G@stlp_std@@@stlp_std@@YAXPAU?$pair@$$CBVshared_str@@G@0@ABU10@@Z ; stlp_std::_Copy_Construct<stlp_std::pair<shared_str const ,unsigned short> >
PUBLIC	?_M_create_node@?$_Rb_tree@Vshared_str@@Uaccel_str_pred@@U?$pair@$$CBVshared_str@@G@stlp_std@@U?$_Select1st@U?$pair@$$CBVshared_str@@G@stlp_std@@@priv@4@U?$_MapTraitsT@U?$pair@$$CBVshared_str@@G@stlp_std@@@64@V?$xalloc@U?$pair@Vshared_str@@G@stlp_std@@@@@priv@stlp_std@@IAEPAU_Rb_tree_node_base@23@ABU?$pair@$$CBVshared_str@@G@3@@Z ; stlp_std::priv::_Rb_tree<shared_str,accel_str_pred,stlp_std::pair<shared_str const ,unsigned short>,stlp_std::priv::_Select1st<stlp_std::pair<shared_str const ,unsigned short> >,stlp_std::priv::_MapTraitsT<stlp_std::pair<shared_str const ,unsigned short> >,xalloc<stlp_std::pair<shared_str,unsigned short> > >::_M_create_node
PUBLIC	?_S_color@?$_Rb_tree@Vshared_str@@Uaccel_str_pred@@U?$pair@$$CBVshared_str@@G@stlp_std@@U?$_Select1st@U?$pair@$$CBVshared_str@@G@stlp_std@@@priv@4@U?$_MapTraitsT@U?$pair@$$CBVshared_str@@G@stlp_std@@@64@V?$xalloc@U?$pair@Vshared_str@@G@stlp_std@@@@@priv@stlp_std@@KAAA_NPAU_Rb_tree_node_base@23@@Z ; stlp_std::priv::_Rb_tree<shared_str,accel_str_pred,stlp_std::pair<shared_str const ,unsigned short>,stlp_std::priv::_Select1st<stlp_std::pair<shared_str const ,unsigned short> >,stlp_std::priv::_MapTraitsT<stlp_std::pair<shared_str const ,unsigned short> >,xalloc<stlp_std::pair<shared_str,unsigned short> > >::_S_color
PUBLIC	?_M_clone_node@?$_Rb_tree@Vshared_str@@Uaccel_str_pred@@U?$pair@$$CBVshared_str@@G@stlp_std@@U?$_Select1st@U?$pair@$$CBVshared_str@@G@stlp_std@@@priv@4@U?$_MapTraitsT@U?$pair@$$CBVshared_str@@G@stlp_std@@@64@V?$xalloc@U?$pair@Vshared_str@@G@stlp_std@@@@@priv@stlp_std@@IAEPAU_Rb_tree_node_base@23@PAU423@@Z ; stlp_std::priv::_Rb_tree<shared_str,accel_str_pred,stlp_std::pair<shared_str const ,unsigned short>,stlp_std::priv::_Select1st<stlp_std::pair<shared_str const ,unsigned short> >,stlp_std::priv::_MapTraitsT<stlp_std::pair<shared_str const ,unsigned short> >,xalloc<stlp_std::pair<shared_str,unsigned short> > >::_M_clone_node
PUBLIC	?_S_parent@?$_Rb_tree@Vshared_str@@Uaccel_str_pred@@U?$pair@$$CBVshared_str@@G@stlp_std@@U?$_Select1st@U?$pair@$$CBVshared_str@@G@stlp_std@@@priv@4@U?$_MapTraitsT@U?$pair@$$CBVshared_str@@G@stlp_std@@@64@V?$xalloc@U?$pair@Vshared_str@@G@stlp_std@@@@@priv@stlp_std@@KAAAPAU_Rb_tree_node_base@23@PAU423@@Z ; stlp_std::priv::_Rb_tree<shared_str,accel_str_pred,stlp_std::pair<shared_str const ,unsigned short>,stlp_std::priv::_Select1st<stlp_std::pair<shared_str const ,unsigned short> >,stlp_std::priv::_MapTraitsT<stlp_std::pair<shared_str const ,unsigned short> >,xalloc<stlp_std::pair<shared_str,unsigned short> > >::_S_parent
PUBLIC	?_M_copy@?$_Rb_tree@Vshared_str@@Uaccel_str_pred@@U?$pair@$$CBVshared_str@@G@stlp_std@@U?$_Select1st@U?$pair@$$CBVshared_str@@G@stlp_std@@@priv@4@U?$_MapTraitsT@U?$pair@$$CBVshared_str@@G@stlp_std@@@64@V?$xalloc@U?$pair@Vshared_str@@G@stlp_std@@@@@priv@stlp_std@@AAEPAU_Rb_tree_node_base@23@PAU423@0@Z ; stlp_std::priv::_Rb_tree<shared_str,accel_str_pred,stlp_std::pair<shared_str const ,unsigned short>,stlp_std::priv::_Select1st<stlp_std::pair<shared_str const ,unsigned short> >,stlp_std::priv::_MapTraitsT<stlp_std::pair<shared_str const ,unsigned short> >,xalloc<stlp_std::pair<shared_str,unsigned short> > >::_M_copy
PUBLIC	?_M_root@?$_Rb_tree@Vshared_str@@Uaccel_str_pred@@U?$pair@$$CBVshared_str@@G@stlp_std@@U?$_Select1st@U?$pair@$$CBVshared_str@@G@stlp_std@@@priv@4@U?$_MapTraitsT@U?$pair@$$CBVshared_str@@G@stlp_std@@@64@V?$xalloc@U?$pair@Vshared_str@@G@stlp_std@@@@@priv@stlp_std@@IAEAAPAU_Rb_tree_node_base@23@XZ ; stlp_std::priv::_Rb_tree<shared_str,accel_str_pred,stlp_std::pair<shared_str const ,unsigned short>,stlp_std::priv::_Select1st<stlp_std::pair<shared_str const ,unsigned short> >,stlp_std::priv::_MapTraitsT<stlp_std::pair<shared_str const ,unsigned short> >,xalloc<stlp_std::pair<shared_str,unsigned short> > >::_M_root
PUBLIC	?_M_leftmost@?$_Rb_tree@Vshared_str@@Uaccel_str_pred@@U?$pair@$$CBVshared_str@@G@stlp_std@@U?$_Select1st@U?$pair@$$CBVshared_str@@G@stlp_std@@@priv@4@U?$_MapTraitsT@U?$pair@$$CBVshared_str@@G@stlp_std@@@64@V?$xalloc@U?$pair@Vshared_str@@G@stlp_std@@@@@priv@stlp_std@@IAEAAPAU_Rb_tree_node_base@23@XZ ; stlp_std::priv::_Rb_tree<shared_str,accel_str_pred,stlp_std::pair<shared_str const ,unsigned short>,stlp_std::priv::_Select1st<stlp_std::pair<shared_str const ,unsigned short> >,stlp_std::priv::_MapTraitsT<stlp_std::pair<shared_str const ,unsigned short> >,xalloc<stlp_std::pair<shared_str,unsigned short> > >::_M_leftmost
PUBLIC	?_M_rightmost@?$_Rb_tree@Vshared_str@@Uaccel_str_pred@@U?$pair@$$CBVshared_str@@G@stlp_std@@U?$_Select1st@U?$pair@$$CBVshared_str@@G@stlp_std@@@priv@4@U?$_MapTraitsT@U?$pair@$$CBVshared_str@@G@stlp_std@@@64@V?$xalloc@U?$pair@Vshared_str@@G@stlp_std@@@@@priv@stlp_std@@IAEAAPAU_Rb_tree_node_base@23@XZ ; stlp_std::priv::_Rb_tree<shared_str,accel_str_pred,stlp_std::pair<shared_str const ,unsigned short>,stlp_std::priv::_Select1st<stlp_std::pair<shared_str const ,unsigned short> >,stlp_std::priv::_MapTraitsT<stlp_std::pair<shared_str const ,unsigned short> >,xalloc<stlp_std::pair<shared_str,unsigned short> > >::_M_rightmost
PUBLIC	??$xr_free@U?$_Rb_tree_node@U?$pair@$$CBVshared_str@@G@stlp_std@@@priv@stlp_std@@@@YAXAAPAU?$_Rb_tree_node@U?$pair@$$CBVshared_str@@G@stlp_std@@@priv@stlp_std@@@Z ; xr_free<stlp_std::priv::_Rb_tree_node<stlp_std::pair<shared_str const ,unsigned short> > >
PUBLIC	?deallocate@?$xalloc@U?$_Rb_tree_node@U?$pair@$$CBVshared_str@@G@stlp_std@@@priv@stlp_std@@@@QBEXPAU?$_Rb_tree_node@U?$pair@$$CBVshared_str@@G@stlp_std@@@priv@stlp_std@@I@Z ; xalloc<stlp_std::priv::_Rb_tree_node<stlp_std::pair<shared_str const ,unsigned short> > >::deallocate
PUBLIC	?_S_left@?$_Rb_tree@Vshared_str@@Uaccel_str_pred@@U?$pair@$$CBVshared_str@@G@stlp_std@@U?$_Select1st@U?$pair@$$CBVshared_str@@G@stlp_std@@@priv@4@U?$_MapTraitsT@U?$pair@$$CBVshared_str@@G@stlp_std@@@64@V?$xalloc@U?$pair@Vshared_str@@G@stlp_std@@@@@priv@stlp_std@@KAAAPAU_Rb_tree_node_base@23@PAU423@@Z ; stlp_std::priv::_Rb_tree<shared_str,accel_str_pred,stlp_std::pair<shared_str const ,unsigned short>,stlp_std::priv::_Select1st<stlp_std::pair<shared_str const ,unsigned short> >,stlp_std::priv::_MapTraitsT<stlp_std::pair<shared_str const ,unsigned short> >,xalloc<stlp_std::pair<shared_str,unsigned short> > >::_S_left
PUBLIC	?_S_right@?$_Rb_tree@Vshared_str@@Uaccel_str_pred@@U?$pair@$$CBVshared_str@@G@stlp_std@@U?$_Select1st@U?$pair@$$CBVshared_str@@G@stlp_std@@@priv@4@U?$_MapTraitsT@U?$pair@$$CBVshared_str@@G@stlp_std@@@64@V?$xalloc@U?$pair@Vshared_str@@G@stlp_std@@@@@priv@stlp_std@@KAAAPAU_Rb_tree_node_base@23@PAU423@@Z ; stlp_std::priv::_Rb_tree<shared_str,accel_str_pred,stlp_std::pair<shared_str const ,unsigned short>,stlp_std::priv::_Select1st<stlp_std::pair<shared_str const ,unsigned short> >,stlp_std::priv::_MapTraitsT<stlp_std::pair<shared_str const ,unsigned short> >,xalloc<stlp_std::pair<shared_str,unsigned short> > >::_S_right
PUBLIC	?_S_value@?$_Rb_tree@Vshared_str@@Uaccel_str_pred@@U?$pair@$$CBVshared_str@@G@stlp_std@@U?$_Select1st@U?$pair@$$CBVshared_str@@G@stlp_std@@@priv@4@U?$_MapTraitsT@U?$pair@$$CBVshared_str@@G@stlp_std@@@64@V?$xalloc@U?$pair@Vshared_str@@G@stlp_std@@@@@priv@stlp_std@@KAAAU?$pair@$$CBVshared_str@@G@3@PAU_Rb_tree_node_base@23@@Z ; stlp_std::priv::_Rb_tree<shared_str,accel_str_pred,stlp_std::pair<shared_str const ,unsigned short>,stlp_std::priv::_Select1st<stlp_std::pair<shared_str const ,unsigned short> >,stlp_std::priv::_MapTraitsT<stlp_std::pair<shared_str const ,unsigned short> >,xalloc<stlp_std::pair<shared_str,unsigned short> > >::_S_value
PUBLIC	??1?$pair@$$CBVshared_str@@G@stlp_std@@QAE@XZ	; stlp_std::pair<shared_str const ,unsigned short>::~pair<shared_str const ,unsigned short>
PUBLIC	??_G?$pair@$$CBVshared_str@@G@stlp_std@@QAEPAXI@Z ; stlp_std::pair<shared_str const ,unsigned short>::`scalar deleting destructor'
PUBLIC	??$__destroy_aux@U?$pair@$$CBVshared_str@@G@stlp_std@@@stlp_std@@YAXPAU?$pair@$$CBVshared_str@@G@0@ABU__false_type@0@@Z ; stlp_std::__destroy_aux<stlp_std::pair<shared_str const ,unsigned short> >
PUBLIC	??$_Destroy@U?$pair@$$CBVshared_str@@G@stlp_std@@@stlp_std@@YAXPAU?$pair@$$CBVshared_str@@G@0@@Z ; stlp_std::_Destroy<stlp_std::pair<shared_str const ,unsigned short> >
PUBLIC	?_M_erase@?$_Rb_tree@Vshared_str@@Uaccel_str_pred@@U?$pair@$$CBVshared_str@@G@stlp_std@@U?$_Select1st@U?$pair@$$CBVshared_str@@G@stlp_std@@@priv@4@U?$_MapTraitsT@U?$pair@$$CBVshared_str@@G@stlp_std@@@64@V?$xalloc@U?$pair@Vshared_str@@G@stlp_std@@@@@priv@stlp_std@@AAEXPAU_Rb_tree_node_base@23@@Z ; stlp_std::priv::_Rb_tree<shared_str,accel_str_pred,stlp_std::pair<shared_str const ,unsigned short>,stlp_std::priv::_Select1st<stlp_std::pair<shared_str const ,unsigned short> >,stlp_std::priv::_MapTraitsT<stlp_std::pair<shared_str const ,unsigned short> >,xalloc<stlp_std::pair<shared_str,unsigned short> > >::_M_erase
PUBLIC	?clear@?$_Rb_tree@Vshared_str@@Uaccel_str_pred@@U?$pair@$$CBVshared_str@@G@stlp_std@@U?$_Select1st@U?$pair@$$CBVshared_str@@G@stlp_std@@@priv@4@U?$_MapTraitsT@U?$pair@$$CBVshared_str@@G@stlp_std@@@64@V?$xalloc@U?$pair@Vshared_str@@G@stlp_std@@@@@priv@stlp_std@@QAEXXZ ; stlp_std::priv::_Rb_tree<shared_str,accel_str_pred,stlp_std::pair<shared_str const ,unsigned short>,stlp_std::priv::_Select1st<stlp_std::pair<shared_str const ,unsigned short> >,stlp_std::priv::_MapTraitsT<stlp_std::pair<shared_str const ,unsigned short> >,xalloc<stlp_std::pair<shared_str,unsigned short> > >::clear
PUBLIC	??4?$_Rb_tree@Vshared_str@@Uaccel_str_pred@@U?$pair@$$CBVshared_str@@G@stlp_std@@U?$_Select1st@U?$pair@$$CBVshared_str@@G@stlp_std@@@priv@4@U?$_MapTraitsT@U?$pair@$$CBVshared_str@@G@stlp_std@@@64@V?$xalloc@U?$pair@Vshared_str@@G@stlp_std@@@@@priv@stlp_std@@QAEAAV012@ABV012@@Z ; stlp_std::priv::_Rb_tree<shared_str,accel_str_pred,stlp_std::pair<shared_str const ,unsigned short>,stlp_std::priv::_Select1st<stlp_std::pair<shared_str const ,unsigned short> >,stlp_std::priv::_MapTraitsT<stlp_std::pair<shared_str const ,unsigned short> >,xalloc<stlp_std::pair<shared_str,unsigned short> > >::operator=
PUBLIC	??4?$map@Vshared_str@@GUaccel_str_pred@@V?$xalloc@U?$pair@Vshared_str@@G@stlp_std@@@@@stlp_std@@QAEAAV01@ABV01@@Z ; stlp_std::map<shared_str,unsigned short,accel_str_pred,xalloc<stlp_std::pair<shared_str,unsigned short> > >::operator=
PUBLIC	??4?$xr_map@Vshared_str@@GUaccel_str_pred@@V?$xalloc@U?$pair@Vshared_str@@G@stlp_std@@@@@@QAEAAV0@ABV0@@Z ; xr_map<shared_str,unsigned short,accel_str_pred,xalloc<stlp_std::pair<shared_str,unsigned short> > >::operator=
PUBLIC	?begin@?$_Impl_vector@VCMotionDef@@V?$xalloc@VCMotionDef@@@@@priv@stlp_std@@QAEPAVCMotionDef@@XZ ; stlp_std::priv::_Impl_vector<CMotionDef,xalloc<CMotionDef> >::begin
PUBLIC	?to_value_type_ptr@?$_CastTraits@VCMotionDef@@V1@@priv@stlp_std@@SAPAVCMotionDef@@PAV4@@Z ; stlp_std::priv::_CastTraits<CMotionDef,CMotionDef>::to_value_type_ptr
PUBLIC	?begin@?$vector@VCMotionDef@@V?$xalloc@VCMotionDef@@@@@stlp_std@@QAEPAVCMotionDef@@XZ ; stlp_std::vector<CMotionDef,xalloc<CMotionDef> >::begin
PUBLIC	??A?$xr_vector@VCMotionDef@@V?$xalloc@VCMotionDef@@@@@@QAEAAVCMotionDef@@I@Z ; xr_vector<CMotionDef,xalloc<CMotionDef> >::operator[]
PUBLIC	??0?$xalloc@Vmotion_marks@@@@QAE@XZ		; xalloc<motion_marks>::xalloc<motion_marks>
PUBLIC	??0?$_Vector_base@Vmotion_marks@@V?$xalloc@Vmotion_marks@@@@@priv@stlp_std@@QAE@ABV?$xalloc@Vmotion_marks@@@@@Z ; stlp_std::priv::_Vector_base<motion_marks,xalloc<motion_marks> >::_Vector_base<motion_marks,xalloc<motion_marks> >
PUBLIC	??0?$_Impl_vector@Vmotion_marks@@V?$xalloc@Vmotion_marks@@@@@priv@stlp_std@@QAE@ABV?$xalloc@Vmotion_marks@@@@@Z ; stlp_std::priv::_Impl_vector<motion_marks,xalloc<motion_marks> >::_Impl_vector<motion_marks,xalloc<motion_marks> >
PUBLIC	??0?$vector@Vmotion_marks@@V?$xalloc@Vmotion_marks@@@@@stlp_std@@QAE@ABV?$xalloc@Vmotion_marks@@@@@Z ; stlp_std::vector<motion_marks,xalloc<motion_marks> >::vector<motion_marks,xalloc<motion_marks> >
PUBLIC	??0?$xr_vector@Vmotion_marks@@V?$xalloc@Vmotion_marks@@@@@@QAE@XZ ; xr_vector<motion_marks,xalloc<motion_marks> >::xr_vector<motion_marks,xalloc<motion_marks> >
PUBLIC	?begin@?$_Impl_vector@U?$pair@MM@stlp_std@@V?$xalloc@U?$pair@MM@stlp_std@@@@@priv@stlp_std@@QBEPBU?$pair@MM@3@XZ ; stlp_std::priv::_Impl_vector<stlp_std::pair<float,float>,xalloc<stlp_std::pair<float,float> > >::begin
PUBLIC	?begin@?$vector@U?$pair@MM@stlp_std@@V?$xalloc@U?$pair@MM@stlp_std@@@@@stlp_std@@QBEPBU?$pair@MM@2@XZ ; stlp_std::vector<stlp_std::pair<float,float>,xalloc<stlp_std::pair<float,float> > >::begin
PUBLIC	?end@?$_Impl_vector@U?$pair@MM@stlp_std@@V?$xalloc@U?$pair@MM@stlp_std@@@@@priv@stlp_std@@QBEPBU?$pair@MM@3@XZ ; stlp_std::priv::_Impl_vector<stlp_std::pair<float,float>,xalloc<stlp_std::pair<float,float> > >::end
PUBLIC	?to_value_type_cptr@?$_CastTraits@U?$pair@MM@stlp_std@@U12@@priv@stlp_std@@SAPBU?$pair@MM@3@PBU43@@Z ; stlp_std::priv::_CastTraits<stlp_std::pair<float,float>,stlp_std::pair<float,float> >::to_value_type_cptr
PUBLIC	?end@?$vector@U?$pair@MM@stlp_std@@V?$xalloc@U?$pair@MM@stlp_std@@@@@stlp_std@@QBEPBU?$pair@MM@2@XZ ; stlp_std::vector<stlp_std::pair<float,float>,xalloc<stlp_std::pair<float,float> > >::end
PUBLIC	??0?$xalloc@D@@QAE@XZ				; xalloc<char>::xalloc<char>
PUBLIC	??0?$xalloc@D@@QAE@ABV0@@Z			; xalloc<char>::xalloc<char>
PUBLIC	??0?$_STLP_alloc_proxy@PADDV?$xalloc@D@@@priv@stlp_std@@QAE@ABV?$xalloc@D@@PAD@Z ; stlp_std::priv::_STLP_alloc_proxy<char *,char,xalloc<char> >::_STLP_alloc_proxy<char *,char,xalloc<char> >
PUBLIC	?allocate@?$xalloc@D@@QBEPADIPBX@Z		; xalloc<char>::allocate
PUBLIC	?allocate@?$_STLP_alloc_proxy@PADDV?$xalloc@D@@@priv@stlp_std@@QAEPADI@Z ; stlp_std::priv::_STLP_alloc_proxy<char *,char,xalloc<char> >::allocate
PUBLIC	?allocate@?$_STLP_alloc_proxy@PADDV?$xalloc@D@@@priv@stlp_std@@AAEPADIAAIABU__false_type@3@@Z ; stlp_std::priv::_STLP_alloc_proxy<char *,char,xalloc<char> >::allocate
PUBLIC	?allocate@?$_STLP_alloc_proxy@PADDV?$xalloc@D@@@priv@stlp_std@@QAEPADIAAI@Z ; stlp_std::priv::_STLP_alloc_proxy<char *,char,xalloc<char> >::allocate
PUBLIC	?max_size@?$xalloc@D@@QBEIXZ			; xalloc<char>::max_size
PUBLIC	?max_size@?$_String_base@DV?$xalloc@D@@@priv@stlp_std@@IBEIXZ ; stlp_std::priv::_String_base<char,xalloc<char> >::max_size
PUBLIC	?_M_throw_length_error@?$_String_base@DV?$xalloc@D@@@priv@stlp_std@@IBEXXZ ; stlp_std::priv::_String_base<char,xalloc<char> >::_M_throw_length_error
PUBLIC	?_M_allocate_block@?$_String_base@DV?$xalloc@D@@@priv@stlp_std@@IAEXI@Z ; stlp_std::priv::_String_base<char,xalloc<char> >::_M_allocate_block
PUBLIC	??0?$_String_base@DV?$xalloc@D@@@priv@stlp_std@@IAE@ABV?$xalloc@D@@I@Z ; stlp_std::priv::_String_base<char,xalloc<char> >::_String_base<char,xalloc<char> >
PUBLIC	?_M_Finish@?$_String_base@DV?$xalloc@D@@@priv@stlp_std@@IAEPADXZ ; stlp_std::priv::_String_base<char,xalloc<char> >::_M_Finish
PUBLIC	?_M_construct_null_aux@?$basic_string@DV?$char_traits@D@stlp_std@@V?$xalloc@D@@@stlp_std@@IBEXPADABU__true_type@2@@Z ; stlp_std::basic_string<char,stlp_std::char_traits<char>,xalloc<char> >::_M_construct_null_aux
PUBLIC	?_M_terminate_string_aux@?$basic_string@DV?$char_traits@D@stlp_std@@V?$xalloc@D@@@stlp_std@@IAEXABU__true_type@2@@Z ; stlp_std::basic_string<char,stlp_std::char_traits<char>,xalloc<char> >::_M_terminate_string_aux
PUBLIC	?_M_force_terminate_string@?$basic_string@DV?$char_traits@D@stlp_std@@V?$xalloc@D@@@stlp_std@@IAEXABU__false_type@2@@Z ; stlp_std::basic_string<char,stlp_std::char_traits<char>,xalloc<char> >::_M_force_terminate_string
PUBLIC	?_M_terminate_string@?$basic_string@DV?$char_traits@D@stlp_std@@V?$xalloc@D@@@stlp_std@@IAEXXZ ; stlp_std::basic_string<char,stlp_std::char_traits<char>,xalloc<char> >::_M_terminate_string
PUBLIC	??0?$basic_string@DV?$char_traits@D@stlp_std@@V?$xalloc@D@@@stlp_std@@QAE@ABV?$xalloc@D@@@Z ; stlp_std::basic_string<char,stlp_std::char_traits<char>,xalloc<char> >::basic_string<char,stlp_std::char_traits<char>,xalloc<char> >
PUBLIC	?deallocate@?$xalloc@D@@QBEXPADI@Z		; xalloc<char>::deallocate
PUBLIC	?_M_deallocate_block@?$_String_base@DV?$xalloc@D@@@priv@stlp_std@@IAEXXZ ; stlp_std::priv::_String_base<char,xalloc<char> >::_M_deallocate_block
PUBLIC	??1?$_String_base@DV?$xalloc@D@@@priv@stlp_std@@IAE@XZ ; stlp_std::priv::_String_base<char,xalloc<char> >::~_String_base<char,xalloc<char> >
PUBLIC	?_M_destroy_range@?$_String_base@DV?$xalloc@D@@@priv@stlp_std@@IAEXII@Z ; stlp_std::priv::_String_base<char,xalloc<char> >::_M_destroy_range
PUBLIC	??1?$basic_string@DV?$char_traits@D@stlp_std@@V?$xalloc@D@@@stlp_std@@QAE@XZ ; stlp_std::basic_string<char,stlp_std::char_traits<char>,xalloc<char> >::~basic_string<char,stlp_std::char_traits<char>,xalloc<char> >
PUBLIC	?_M_using_static_buf@?$_String_base@DV?$xalloc@D@@@priv@stlp_std@@IBE_NXZ ; stlp_std::priv::_String_base<char,xalloc<char> >::_M_using_static_buf
PUBLIC	?_M_Start@?$_String_base@DV?$xalloc@D@@@priv@stlp_std@@IBEPBDXZ ; stlp_std::priv::_String_base<char,xalloc<char> >::_M_Start
PUBLIC	?c_str@?$basic_string@DV?$char_traits@D@stlp_std@@V?$xalloc@D@@@stlp_std@@QBEPBDXZ ; stlp_std::basic_string<char,stlp_std::char_traits<char>,xalloc<char> >::c_str
PUBLIC	??0?$pair@MM@stlp_std@@QAE@XZ			; stlp_std::pair<float,float>::pair<float,float>
PUBLIC	??$xr_alloc@U?$pair@MM@stlp_std@@@@YAPAU?$pair@MM@stlp_std@@I@Z ; xr_alloc<stlp_std::pair<float,float> >
PUBLIC	?allocate@?$xalloc@U?$pair@MM@stlp_std@@@@QBEPAU?$pair@MM@stlp_std@@IPBX@Z ; xalloc<stlp_std::pair<float,float> >::allocate
PUBLIC	?allocate@?$_STLP_alloc_proxy@PAU?$pair@MM@stlp_std@@U12@V?$xalloc@U?$pair@MM@stlp_std@@@@@priv@stlp_std@@QAEPAU?$pair@MM@3@I@Z ; stlp_std::priv::_STLP_alloc_proxy<stlp_std::pair<float,float> *,stlp_std::pair<float,float>,xalloc<stlp_std::pair<float,float> > >::allocate
PUBLIC	?allocate@?$_STLP_alloc_proxy@PAU?$pair@MM@stlp_std@@U12@V?$xalloc@U?$pair@MM@stlp_std@@@@@priv@stlp_std@@AAEPAU?$pair@MM@3@IAAIABU__false_type@3@@Z ; stlp_std::priv::_STLP_alloc_proxy<stlp_std::pair<float,float> *,stlp_std::pair<float,float>,xalloc<stlp_std::pair<float,float> > >::allocate
PUBLIC	?allocate@?$_STLP_alloc_proxy@PAU?$pair@MM@stlp_std@@U12@V?$xalloc@U?$pair@MM@stlp_std@@@@@priv@stlp_std@@QAEPAU?$pair@MM@3@IAAI@Z ; stlp_std::priv::_STLP_alloc_proxy<stlp_std::pair<float,float> *,stlp_std::pair<float,float>,xalloc<stlp_std::pair<float,float> > >::allocate
PUBLIC	?size@?$_Impl_vector@U?$pair@MM@stlp_std@@V?$xalloc@U?$pair@MM@stlp_std@@@@@priv@stlp_std@@QBEIXZ ; stlp_std::priv::_Impl_vector<stlp_std::pair<float,float>,xalloc<stlp_std::pair<float,float> > >::size
PUBLIC	??$xr_free@U?$pair@MM@stlp_std@@@@YAXAAPAU?$pair@MM@stlp_std@@@Z ; xr_free<stlp_std::pair<float,float> >
PUBLIC	?deallocate@?$xalloc@U?$pair@MM@stlp_std@@@@QBEXPAU?$pair@MM@stlp_std@@I@Z ; xalloc<stlp_std::pair<float,float> >::deallocate
PUBLIC	?end@?$_Impl_vector@U?$pair@MM@stlp_std@@V?$xalloc@U?$pair@MM@stlp_std@@@@@priv@stlp_std@@QAEPAU?$pair@MM@3@XZ ; stlp_std::priv::_Impl_vector<stlp_std::pair<float,float>,xalloc<stlp_std::pair<float,float> > >::end
PUBLIC	?rbegin@?$_Impl_vector@U?$pair@MM@stlp_std@@V?$xalloc@U?$pair@MM@stlp_std@@@@@priv@stlp_std@@QAE?AV?$reverse_iterator@PAU?$pair@MM@stlp_std@@@3@XZ ; stlp_std::priv::_Impl_vector<stlp_std::pair<float,float>,xalloc<stlp_std::pair<float,float> > >::rbegin
PUBLIC	??0?$reverse_iterator@PAU?$pair@MM@stlp_std@@@stlp_std@@QAE@PAU?$pair@MM@1@@Z ; stlp_std::reverse_iterator<stlp_std::pair<float,float> *>::reverse_iterator<stlp_std::pair<float,float> *>
PUBLIC	?rend@?$_Impl_vector@U?$pair@MM@stlp_std@@V?$xalloc@U?$pair@MM@stlp_std@@@@@priv@stlp_std@@QAE?AV?$reverse_iterator@PAU?$pair@MM@stlp_std@@@3@XZ ; stlp_std::priv::_Impl_vector<stlp_std::pair<float,float>,xalloc<stlp_std::pair<float,float> > >::rend
PUBLIC	??0?$reverse_iterator@PAU?$pair@MM@stlp_std@@@stlp_std@@QAE@ABV01@@Z ; stlp_std::reverse_iterator<stlp_std::pair<float,float> *>::reverse_iterator<stlp_std::pair<float,float> *>
PUBLIC	??$__destroy_range_aux@V?$reverse_iterator@PAU?$pair@MM@stlp_std@@@stlp_std@@U?$pair@MM@2@@stlp_std@@YAXV?$reverse_iterator@PAU?$pair@MM@stlp_std@@@0@0PAU?$pair@MM@0@ABU__true_type@0@@Z ; stlp_std::__destroy_range_aux<stlp_std::reverse_iterator<stlp_std::pair<float,float> *>,stlp_std::pair<float,float> >
PUBLIC	??$__destroy_range@V?$reverse_iterator@PAU?$pair@MM@stlp_std@@@stlp_std@@U?$pair@MM@2@@stlp_std@@YAXV?$reverse_iterator@PAU?$pair@MM@stlp_std@@@0@0PAU?$pair@MM@0@@Z ; stlp_std::__destroy_range<stlp_std::reverse_iterator<stlp_std::pair<float,float> *>,stlp_std::pair<float,float> >
PUBLIC	??$_Destroy_Range@V?$reverse_iterator@PAU?$pair@MM@stlp_std@@@stlp_std@@@stlp_std@@YAXV?$reverse_iterator@PAU?$pair@MM@stlp_std@@@0@0@Z ; stlp_std::_Destroy_Range<stlp_std::reverse_iterator<stlp_std::pair<float,float> *> >
PUBLIC	?_M_clear@?$_Impl_vector@U?$pair@MM@stlp_std@@V?$xalloc@U?$pair@MM@stlp_std@@@@@priv@stlp_std@@AAEXXZ ; stlp_std::priv::_Impl_vector<stlp_std::pair<float,float>,xalloc<stlp_std::pair<float,float> > >::_M_clear
PUBLIC	?_M_set@?$_Impl_vector@U?$pair@MM@stlp_std@@V?$xalloc@U?$pair@MM@stlp_std@@@@@priv@stlp_std@@AAEXPAU?$pair@MM@3@00@Z ; stlp_std::priv::_Impl_vector<stlp_std::pair<float,float>,xalloc<stlp_std::pair<float,float> > >::_M_set
PUBLIC	??$__fill_n@PAU?$pair@MM@stlp_std@@IU12@@priv@stlp_std@@YAPAU?$pair@MM@1@PAU21@IABU21@@Z ; stlp_std::priv::__fill_n<stlp_std::pair<float,float> *,unsigned int,stlp_std::pair<float,float> >
PUBLIC	?_M_insert_overflow@?$_Impl_vector@U?$pair@MM@stlp_std@@V?$xalloc@U?$pair@MM@stlp_std@@@@@priv@stlp_std@@AAEXPAU?$pair@MM@3@ABU43@ABU__true_type@3@I_N@Z ; stlp_std::priv::_Impl_vector<stlp_std::pair<float,float>,xalloc<stlp_std::pair<float,float> > >::_M_insert_overflow
PUBLIC	?_M_is_inside@?$_Impl_vector@U?$pair@MM@stlp_std@@V?$xalloc@U?$pair@MM@stlp_std@@@@@priv@stlp_std@@ABE_NABU?$pair@MM@3@@Z ; stlp_std::priv::_Impl_vector<stlp_std::pair<float,float>,xalloc<stlp_std::pair<float,float> > >::_M_is_inside
PUBLIC	??$__ucopy_ptrs@PAU?$pair@MM@stlp_std@@PAU12@@priv@stlp_std@@YAPAU?$pair@MM@1@PAU21@00ABU__true_type@1@@Z ; stlp_std::priv::__ucopy_ptrs<stlp_std::pair<float,float> *,stlp_std::pair<float,float> *>
PUBLIC	??$__copy_backward_ptrs@PAU?$pair@MM@stlp_std@@PAU12@@priv@stlp_std@@YAPAU?$pair@MM@1@PAU21@00ABU__true_type@1@@Z ; stlp_std::priv::__copy_backward_ptrs<stlp_std::pair<float,float> *,stlp_std::pair<float,float> *>
PUBLIC	??$fill@PAU?$pair@MM@stlp_std@@U12@@stlp_std@@YAXPAU?$pair@MM@0@0ABU10@@Z ; stlp_std::fill<stlp_std::pair<float,float> *,stlp_std::pair<float,float> >
PUBLIC	??0?$pair@MM@stlp_std@@QAE@ABU01@@Z		; stlp_std::pair<float,float>::pair<float,float>
PUBLIC	??$_Param_Construct@U?$pair@MM@stlp_std@@U12@@stlp_std@@YAXPAU?$pair@MM@0@ABU10@@Z ; stlp_std::_Param_Construct<stlp_std::pair<float,float>,stlp_std::pair<float,float> >
PUBLIC	??$__ufill@PAU?$pair@MM@stlp_std@@U12@H@priv@stlp_std@@YAXPAU?$pair@MM@1@0ABU21@ABUrandom_access_iterator_tag@1@PAH@Z ; stlp_std::priv::__ufill<stlp_std::pair<float,float> *,stlp_std::pair<float,float>,int>
PUBLIC	??$__uninitialized_fill_n@PAU?$pair@MM@stlp_std@@IU12@@priv@stlp_std@@YAPAU?$pair@MM@1@PAU21@IABU21@@Z ; stlp_std::priv::__uninitialized_fill_n<stlp_std::pair<float,float> *,unsigned int,stlp_std::pair<float,float> >
PUBLIC	?_M_fill_insert_aux@?$_Impl_vector@U?$pair@MM@stlp_std@@V?$xalloc@U?$pair@MM@stlp_std@@@@@priv@stlp_std@@AAEXPAU?$pair@MM@3@IABU43@ABU__false_type@3@@Z ; stlp_std::priv::_Impl_vector<stlp_std::pair<float,float>,xalloc<stlp_std::pair<float,float> > >::_M_fill_insert_aux
PUBLIC	?_M_fill_insert@?$_Impl_vector@U?$pair@MM@stlp_std@@V?$xalloc@U?$pair@MM@stlp_std@@@@@priv@stlp_std@@AAEXPAU?$pair@MM@3@IABU43@@Z ; stlp_std::priv::_Impl_vector<stlp_std::pair<float,float>,xalloc<stlp_std::pair<float,float> > >::_M_fill_insert
PUBLIC	?insert@?$_Impl_vector@U?$pair@MM@stlp_std@@V?$xalloc@U?$pair@MM@stlp_std@@@@@priv@stlp_std@@QAEXPAU?$pair@MM@3@IABU43@@Z ; stlp_std::priv::_Impl_vector<stlp_std::pair<float,float>,xalloc<stlp_std::pair<float,float> > >::insert
PUBLIC	??$__copy_ptrs@PAU?$pair@MM@stlp_std@@PAU12@@priv@stlp_std@@YAPAU?$pair@MM@1@PAU21@00ABU__true_type@1@@Z ; stlp_std::priv::__copy_ptrs<stlp_std::pair<float,float> *,stlp_std::pair<float,float> *>
PUBLIC	??$__destroy_range_aux@PAU?$pair@MM@stlp_std@@U12@@stlp_std@@YAXPAU?$pair@MM@0@00ABU__true_type@0@@Z ; stlp_std::__destroy_range_aux<stlp_std::pair<float,float> *,stlp_std::pair<float,float> >
PUBLIC	??$__destroy_range@PAU?$pair@MM@stlp_std@@U12@@stlp_std@@YAXPAU?$pair@MM@0@00@Z ; stlp_std::__destroy_range<stlp_std::pair<float,float> *,stlp_std::pair<float,float> >
PUBLIC	??$_Destroy_Range@PAU?$pair@MM@stlp_std@@@stlp_std@@YAXPAU?$pair@MM@0@0@Z ; stlp_std::_Destroy_Range<stlp_std::pair<float,float> *>
PUBLIC	?_M_erase@?$_Impl_vector@U?$pair@MM@stlp_std@@V?$xalloc@U?$pair@MM@stlp_std@@@@@priv@stlp_std@@AAEPAU?$pair@MM@3@PAU43@0ABU__false_type@3@@Z ; stlp_std::priv::_Impl_vector<stlp_std::pair<float,float>,xalloc<stlp_std::pair<float,float> > >::_M_erase
PUBLIC	?erase@?$_Impl_vector@U?$pair@MM@stlp_std@@V?$xalloc@U?$pair@MM@stlp_std@@@@@priv@stlp_std@@QAEPAU?$pair@MM@3@PAU43@0@Z ; stlp_std::priv::_Impl_vector<stlp_std::pair<float,float>,xalloc<stlp_std::pair<float,float> > >::erase
PUBLIC	?resize@?$_Impl_vector@U?$pair@MM@stlp_std@@V?$xalloc@U?$pair@MM@stlp_std@@@@@priv@stlp_std@@QAEXIABU?$pair@MM@3@@Z ; stlp_std::priv::_Impl_vector<stlp_std::pair<float,float>,xalloc<stlp_std::pair<float,float> > >::resize
PUBLIC	?to_storage_type_cref@?$_CastTraits@U?$pair@MM@stlp_std@@U12@@priv@stlp_std@@SAABU?$pair@MM@3@ABU43@@Z ; stlp_std::priv::_CastTraits<stlp_std::pair<float,float>,stlp_std::pair<float,float> >::to_storage_type_cref
PUBLIC	?resize@?$vector@U?$pair@MM@stlp_std@@V?$xalloc@U?$pair@MM@stlp_std@@@@@stlp_std@@QAEXIABU?$pair@MM@2@@Z ; stlp_std::vector<stlp_std::pair<float,float>,xalloc<stlp_std::pair<float,float> > >::resize
PUBLIC	?begin@?$_Impl_vector@U?$pair@MM@stlp_std@@V?$xalloc@U?$pair@MM@stlp_std@@@@@priv@stlp_std@@QAEPAU?$pair@MM@3@XZ ; stlp_std::priv::_Impl_vector<stlp_std::pair<float,float>,xalloc<stlp_std::pair<float,float> > >::begin
PUBLIC	?to_value_type_ptr@?$_CastTraits@U?$pair@MM@stlp_std@@U12@@priv@stlp_std@@SAPAU?$pair@MM@3@PAU43@@Z ; stlp_std::priv::_CastTraits<stlp_std::pair<float,float>,stlp_std::pair<float,float> >::to_value_type_ptr
PUBLIC	?begin@?$vector@U?$pair@MM@stlp_std@@V?$xalloc@U?$pair@MM@stlp_std@@@@@stlp_std@@QAEPAU?$pair@MM@2@XZ ; stlp_std::vector<stlp_std::pair<float,float>,xalloc<stlp_std::pair<float,float> > >::begin
PUBLIC	??A?$xr_vector@U?$pair@MM@stlp_std@@V?$xalloc@U?$pair@MM@stlp_std@@@@@@QAEAAU?$pair@MM@stlp_std@@I@Z ; xr_vector<stlp_std::pair<float,float>,xalloc<stlp_std::pair<float,float> > >::operator[]
PUBLIC	??1?$xr_vector@Vmotion_marks@@V?$xalloc@Vmotion_marks@@@@@@QAE@XZ ; xr_vector<motion_marks,xalloc<motion_marks> >::~xr_vector<motion_marks,xalloc<motion_marks> >
PUBLIC	??0?$_STLP_alloc_proxy@PAVmotion_marks@@V1@V?$xalloc@Vmotion_marks@@@@@priv@stlp_std@@QAE@ABV?$xalloc@Vmotion_marks@@@@PAVmotion_marks@@@Z ; stlp_std::priv::_STLP_alloc_proxy<motion_marks *,motion_marks,xalloc<motion_marks> >::_STLP_alloc_proxy<motion_marks *,motion_marks,xalloc<motion_marks> >
PUBLIC	??0?$_Vector_base@Vmotion_marks@@V?$xalloc@Vmotion_marks@@@@@priv@stlp_std@@QAE@IABV?$xalloc@Vmotion_marks@@@@@Z ; stlp_std::priv::_Vector_base<motion_marks,xalloc<motion_marks> >::_Vector_base<motion_marks,xalloc<motion_marks> >
PUBLIC	??0?$xalloc@Vmotion_marks@@@@QAE@ABV0@@Z	; xalloc<motion_marks>::xalloc<motion_marks>
PUBLIC	?get_allocator@?$_Impl_vector@Vmotion_marks@@V?$xalloc@Vmotion_marks@@@@@priv@stlp_std@@QBE?AV?$xalloc@Vmotion_marks@@@@XZ ; stlp_std::priv::_Impl_vector<motion_marks,xalloc<motion_marks> >::get_allocator
PUBLIC	?begin@?$_Impl_vector@Vmotion_marks@@V?$xalloc@Vmotion_marks@@@@@priv@stlp_std@@QBEPBVmotion_marks@@XZ ; stlp_std::priv::_Impl_vector<motion_marks,xalloc<motion_marks> >::begin
PUBLIC	?end@?$_Impl_vector@Vmotion_marks@@V?$xalloc@Vmotion_marks@@@@@priv@stlp_std@@QBEPBVmotion_marks@@XZ ; stlp_std::priv::_Impl_vector<motion_marks,xalloc<motion_marks> >::end
PUBLIC	??0?$_Impl_vector@Vmotion_marks@@V?$xalloc@Vmotion_marks@@@@@priv@stlp_std@@QAE@ABV012@@Z ; stlp_std::priv::_Impl_vector<motion_marks,xalloc<motion_marks> >::_Impl_vector<motion_marks,xalloc<motion_marks> >
PUBLIC	??0?$vector@Vmotion_marks@@V?$xalloc@Vmotion_marks@@@@@stlp_std@@QAE@ABV01@@Z ; stlp_std::vector<motion_marks,xalloc<motion_marks> >::vector<motion_marks,xalloc<motion_marks> >
PUBLIC	??1?$_Vector_base@Vmotion_marks@@V?$xalloc@Vmotion_marks@@@@@priv@stlp_std@@QAE@XZ ; stlp_std::priv::_Vector_base<motion_marks,xalloc<motion_marks> >::~_Vector_base<motion_marks,xalloc<motion_marks> >
PUBLIC	??1?$_Impl_vector@Vmotion_marks@@V?$xalloc@Vmotion_marks@@@@@priv@stlp_std@@QAE@XZ ; stlp_std::priv::_Impl_vector<motion_marks,xalloc<motion_marks> >::~_Impl_vector<motion_marks,xalloc<motion_marks> >
PUBLIC	??1?$vector@Vmotion_marks@@V?$xalloc@Vmotion_marks@@@@@stlp_std@@QAE@XZ ; stlp_std::vector<motion_marks,xalloc<motion_marks> >::~vector<motion_marks,xalloc<motion_marks> >
PUBLIC	??0?$xr_vector@Vmotion_marks@@V?$xalloc@Vmotion_marks@@@@@@QAE@ABV0@@Z ; xr_vector<motion_marks,xalloc<motion_marks> >::xr_vector<motion_marks,xalloc<motion_marks> >
PUBLIC	?size@?$_Impl_vector@Vmotion_marks@@V?$xalloc@Vmotion_marks@@@@@priv@stlp_std@@QBEIXZ ; stlp_std::priv::_Impl_vector<motion_marks,xalloc<motion_marks> >::size
PUBLIC	?capacity@?$_Impl_vector@Vmotion_marks@@V?$xalloc@Vmotion_marks@@@@@priv@stlp_std@@QBEIXZ ; stlp_std::priv::_Impl_vector<motion_marks,xalloc<motion_marks> >::capacity
PUBLIC	??$xr_free@Vmotion_marks@@@@YAXAAPAVmotion_marks@@@Z ; xr_free<motion_marks>
PUBLIC	?deallocate@?$xalloc@Vmotion_marks@@@@QBEXPAVmotion_marks@@I@Z ; xalloc<motion_marks>::deallocate
PUBLIC	?end@?$_Impl_vector@Vmotion_marks@@V?$xalloc@Vmotion_marks@@@@@priv@stlp_std@@QAEPAVmotion_marks@@XZ ; stlp_std::priv::_Impl_vector<motion_marks,xalloc<motion_marks> >::end
PUBLIC	?rbegin@?$_Impl_vector@Vmotion_marks@@V?$xalloc@Vmotion_marks@@@@@priv@stlp_std@@QAE?AV?$reverse_iterator@PAVmotion_marks@@@3@XZ ; stlp_std::priv::_Impl_vector<motion_marks,xalloc<motion_marks> >::rbegin
PUBLIC	?begin@?$_Impl_vector@Vmotion_marks@@V?$xalloc@Vmotion_marks@@@@@priv@stlp_std@@QAEPAVmotion_marks@@XZ ; stlp_std::priv::_Impl_vector<motion_marks,xalloc<motion_marks> >::begin
PUBLIC	??0?$reverse_iterator@PAVmotion_marks@@@stlp_std@@QAE@PAVmotion_marks@@@Z ; stlp_std::reverse_iterator<motion_marks *>::reverse_iterator<motion_marks *>
PUBLIC	?rend@?$_Impl_vector@Vmotion_marks@@V?$xalloc@Vmotion_marks@@@@@priv@stlp_std@@QAE?AV?$reverse_iterator@PAVmotion_marks@@@3@XZ ; stlp_std::priv::_Impl_vector<motion_marks,xalloc<motion_marks> >::rend
PUBLIC	??0?$reverse_iterator@PAVmotion_marks@@@stlp_std@@QAE@ABV01@@Z ; stlp_std::reverse_iterator<motion_marks *>::reverse_iterator<motion_marks *>
PUBLIC	??D?$reverse_iterator@PAVmotion_marks@@@stlp_std@@QBEAAVmotion_marks@@XZ ; stlp_std::reverse_iterator<motion_marks *>::operator*
PUBLIC	??E?$reverse_iterator@PAVmotion_marks@@@stlp_std@@QAEAAV01@XZ ; stlp_std::reverse_iterator<motion_marks *>::operator++
PUBLIC	?base@?$reverse_iterator@PAVmotion_marks@@@stlp_std@@QBEPAVmotion_marks@@XZ ; stlp_std::reverse_iterator<motion_marks *>::base
PUBLIC	??$?8PAVmotion_marks@@@stlp_std@@YA_NABV?$reverse_iterator@PAVmotion_marks@@@0@0@Z ; stlp_std::operator==<motion_marks *>
PUBLIC	??$?9PAVmotion_marks@@@stlp_std@@YA_NABV?$reverse_iterator@PAVmotion_marks@@@0@0@Z ; stlp_std::operator!=<motion_marks *>
PUBLIC	??$__destroy_range_aux@V?$reverse_iterator@PAVmotion_marks@@@stlp_std@@Vmotion_marks@@@stlp_std@@YAXV?$reverse_iterator@PAVmotion_marks@@@0@0PAVmotion_marks@@ABU__false_type@0@@Z ; stlp_std::__destroy_range_aux<stlp_std::reverse_iterator<motion_marks *>,motion_marks>
PUBLIC	??$__destroy_range@V?$reverse_iterator@PAVmotion_marks@@@stlp_std@@Vmotion_marks@@@stlp_std@@YAXV?$reverse_iterator@PAVmotion_marks@@@0@0PAVmotion_marks@@@Z ; stlp_std::__destroy_range<stlp_std::reverse_iterator<motion_marks *>,motion_marks>
PUBLIC	??$_Destroy_Range@V?$reverse_iterator@PAVmotion_marks@@@stlp_std@@@stlp_std@@YAXV?$reverse_iterator@PAVmotion_marks@@@0@0@Z ; stlp_std::_Destroy_Range<stlp_std::reverse_iterator<motion_marks *> >
PUBLIC	?_M_clear@?$_Impl_vector@Vmotion_marks@@V?$xalloc@Vmotion_marks@@@@@priv@stlp_std@@AAEXXZ ; stlp_std::priv::_Impl_vector<motion_marks,xalloc<motion_marks> >::_M_clear
PUBLIC	??_Gmotion_marks@@QAEPAXI@Z			; motion_marks::`scalar deleting destructor'
PUBLIC	??$__destroy_aux@Vmotion_marks@@@stlp_std@@YAXPAVmotion_marks@@ABU__false_type@0@@Z ; stlp_std::__destroy_aux<motion_marks>
PUBLIC	??$__destroy_range_aux@PAVmotion_marks@@V1@@stlp_std@@YAXPAVmotion_marks@@00ABU__false_type@0@@Z ; stlp_std::__destroy_range_aux<motion_marks *,motion_marks>
PUBLIC	??$__destroy_range@PAVmotion_marks@@V1@@stlp_std@@YAXPAVmotion_marks@@00@Z ; stlp_std::__destroy_range<motion_marks *,motion_marks>
PUBLIC	??$_Destroy_Range@PAVmotion_marks@@@stlp_std@@YAXPAVmotion_marks@@0@Z ; stlp_std::_Destroy_Range<motion_marks *>
PUBLIC	??$xr_alloc@Vmotion_marks@@@@YAPAVmotion_marks@@I@Z ; xr_alloc<motion_marks>
PUBLIC	?allocate@?$xalloc@Vmotion_marks@@@@QBEPAVmotion_marks@@IPBX@Z ; xalloc<motion_marks>::allocate
PUBLIC	?allocate@?$_STLP_alloc_proxy@PAVmotion_marks@@V1@V?$xalloc@Vmotion_marks@@@@@priv@stlp_std@@QAEPAVmotion_marks@@I@Z ; stlp_std::priv::_STLP_alloc_proxy<motion_marks *,motion_marks,xalloc<motion_marks> >::allocate
PUBLIC	?allocate@?$_STLP_alloc_proxy@PAVmotion_marks@@V1@V?$xalloc@Vmotion_marks@@@@@priv@stlp_std@@AAEPAVmotion_marks@@IAAIABU__false_type@3@@Z ; stlp_std::priv::_STLP_alloc_proxy<motion_marks *,motion_marks,xalloc<motion_marks> >::allocate
PUBLIC	?allocate@?$_STLP_alloc_proxy@PAVmotion_marks@@V1@V?$xalloc@Vmotion_marks@@@@@priv@stlp_std@@QAEPAVmotion_marks@@IAAI@Z ; stlp_std::priv::_STLP_alloc_proxy<motion_marks *,motion_marks,xalloc<motion_marks> >::allocate
PUBLIC	?_Answer@?$_BothPtrType@PBVmotion_marks@@PAV1@@stlp_std@@SA?AU__true_type@2@XZ ; stlp_std::_BothPtrType<motion_marks const *,motion_marks *>::_Answer
PUBLIC	??$_Param_Construct@Vmotion_marks@@V1@@stlp_std@@YAXPAVmotion_marks@@ABV1@@Z ; stlp_std::_Param_Construct<motion_marks,motion_marks>
PUBLIC	??$__ucopy@PBVmotion_marks@@PAV1@H@priv@stlp_std@@YAPAVmotion_marks@@PBV2@0PAV2@ABUrandom_access_iterator_tag@1@PAH@Z ; stlp_std::priv::__ucopy<motion_marks const *,motion_marks *,int>
PUBLIC	??$__ucopy_ptrs@PBVmotion_marks@@PAV1@@priv@stlp_std@@YAPAVmotion_marks@@PBV2@0PAV2@ABU__false_type@1@@Z ; stlp_std::priv::__ucopy_ptrs<motion_marks const *,motion_marks *>
PUBLIC	??$_UseTrivialUCopy@Vmotion_marks@@V1@@stlp_std@@YA?AU?$_TrivialUCopy@Vmotion_marks@@V1@@0@PAVmotion_marks@@0@Z ; stlp_std::_UseTrivialUCopy<motion_marks,motion_marks>
PUBLIC	?_Answer@?$_TrivialUCopy@Vmotion_marks@@V1@@stlp_std@@SA?AU__false_type@2@XZ ; stlp_std::_TrivialUCopy<motion_marks,motion_marks>::_Answer
PUBLIC	??$__ucopy_aux@PBVmotion_marks@@PAV1@@priv@stlp_std@@YAPAVmotion_marks@@PBV2@0PAV2@ABU__true_type@1@@Z ; stlp_std::priv::__ucopy_aux<motion_marks const *,motion_marks *>
PUBLIC	??$uninitialized_copy@PBVmotion_marks@@PAV1@@stlp_std@@YAPAVmotion_marks@@PBV1@0PAV1@@Z ; stlp_std::uninitialized_copy<motion_marks const *,motion_marks *>
PUBLIC	??$_M_allocate_and_copy@PBVmotion_marks@@@?$_Impl_vector@Vmotion_marks@@V?$xalloc@Vmotion_marks@@@@@priv@stlp_std@@AAEPAVmotion_marks@@AAIPBV3@1@Z ; stlp_std::priv::_Impl_vector<motion_marks,xalloc<motion_marks> >::_M_allocate_and_copy<motion_marks const *>
PUBLIC	??$__copy@PBVmotion_marks@@PAV1@H@priv@stlp_std@@YAPAVmotion_marks@@PBV2@0PAV2@ABUrandom_access_iterator_tag@1@PAH@Z ; stlp_std::priv::__copy<motion_marks const *,motion_marks *,int>
PUBLIC	??$__copy_ptrs@PBVmotion_marks@@PAV1@@priv@stlp_std@@YAPAVmotion_marks@@PBV2@0PAV2@ABU__false_type@1@@Z ; stlp_std::priv::__copy_ptrs<motion_marks const *,motion_marks *>
PUBLIC	??4?$_Impl_vector@Vmotion_marks@@V?$xalloc@Vmotion_marks@@@@@priv@stlp_std@@QAEAAV012@ABV012@@Z ; stlp_std::priv::_Impl_vector<motion_marks,xalloc<motion_marks> >::operator=
PUBLIC	??4?$vector@Vmotion_marks@@V?$xalloc@Vmotion_marks@@@@@stlp_std@@QAEAAV01@ABV01@@Z ; stlp_std::vector<motion_marks,xalloc<motion_marks> >::operator=
PUBLIC	??4?$xr_vector@Vmotion_marks@@V?$xalloc@Vmotion_marks@@@@@@QAEAAV0@ABV0@@Z ; xr_vector<motion_marks,xalloc<motion_marks> >::operator=
PUBLIC	??$xr_alloc@I@@YAPAII@Z				; xr_alloc<unsigned int>
PUBLIC	?allocate@?$xalloc@I@@QBEPAIIPBX@Z		; xalloc<unsigned int>::allocate
PUBLIC	?allocate@?$_STLP_alloc_proxy@PAIIV?$xalloc@I@@@priv@stlp_std@@QAEPAII@Z ; stlp_std::priv::_STLP_alloc_proxy<unsigned int *,unsigned int,xalloc<unsigned int> >::allocate
PUBLIC	?allocate@?$_STLP_alloc_proxy@PAIIV?$xalloc@I@@@priv@stlp_std@@AAEPAIIAAIABU__false_type@3@@Z ; stlp_std::priv::_STLP_alloc_proxy<unsigned int *,unsigned int,xalloc<unsigned int> >::allocate
PUBLIC	?allocate@?$_STLP_alloc_proxy@PAIIV?$xalloc@I@@@priv@stlp_std@@QAEPAIIAAI@Z ; stlp_std::priv::_STLP_alloc_proxy<unsigned int *,unsigned int,xalloc<unsigned int> >::allocate
PUBLIC	?size@?$_Impl_vector@IV?$xalloc@I@@@priv@stlp_std@@QBEIXZ ; stlp_std::priv::_Impl_vector<unsigned int,xalloc<unsigned int> >::size
PUBLIC	?_M_clear@?$_Impl_vector@IV?$xalloc@I@@@priv@stlp_std@@AAEXXZ ; stlp_std::priv::_Impl_vector<unsigned int,xalloc<unsigned int> >::_M_clear
PUBLIC	?_M_set@?$_Impl_vector@IV?$xalloc@I@@@priv@stlp_std@@AAEXPAI00@Z ; stlp_std::priv::_Impl_vector<unsigned int,xalloc<unsigned int> >::_M_set
PUBLIC	??$__fill_n@PAIII@priv@stlp_std@@YAPAIPAIIABI@Z	; stlp_std::priv::__fill_n<unsigned int *,unsigned int,unsigned int>
PUBLIC	?_M_insert_overflow@?$_Impl_vector@IV?$xalloc@I@@@priv@stlp_std@@AAEXPAIABIABU__true_type@3@I_N@Z ; stlp_std::priv::_Impl_vector<unsigned int,xalloc<unsigned int> >::_M_insert_overflow
PUBLIC	??$_Copy_Construct@I@stlp_std@@YAXPAIABI@Z	; stlp_std::_Copy_Construct<unsigned int>
PUBLIC	?push_back@?$_Impl_vector@IV?$xalloc@I@@@priv@stlp_std@@QAEXABI@Z ; stlp_std::priv::_Impl_vector<unsigned int,xalloc<unsigned int> >::push_back
PUBLIC	?to_storage_type_cref@?$_CastTraits@II@priv@stlp_std@@SAABIABI@Z ; stlp_std::priv::_CastTraits<unsigned int,unsigned int>::to_storage_type_cref
PUBLIC	?push_back@?$vector@IV?$xalloc@I@@@stlp_std@@QAEXABI@Z ; stlp_std::vector<unsigned int,xalloc<unsigned int> >::push_back
PUBLIC	?begin@?$vector@IV?$xalloc@I@@@stlp_std@@QAEPAIXZ ; stlp_std::vector<unsigned int,xalloc<unsigned int> >::begin
PUBLIC	?end@?$vector@IV?$xalloc@I@@@stlp_std@@QAEPAIXZ	; stlp_std::vector<unsigned int,xalloc<unsigned int> >::end
PUBLIC	??$__copy_ptrs@PAIPAI@priv@stlp_std@@YAPAIPAI00ABU__true_type@1@@Z ; stlp_std::priv::__copy_ptrs<unsigned int *,unsigned int *>
PUBLIC	??$__destroy_range_aux@PAII@stlp_std@@YAXPAI00ABU__true_type@0@@Z ; stlp_std::__destroy_range_aux<unsigned int *,unsigned int>
PUBLIC	??$__destroy_range@PAII@stlp_std@@YAXPAI00@Z	; stlp_std::__destroy_range<unsigned int *,unsigned int>
PUBLIC	??$_Destroy_Range@PAI@stlp_std@@YAXPAI0@Z	; stlp_std::_Destroy_Range<unsigned int *>
PUBLIC	?_M_erase@?$_Impl_vector@IV?$xalloc@I@@@priv@stlp_std@@AAEPAIPAI0ABU__false_type@3@@Z ; stlp_std::priv::_Impl_vector<unsigned int,xalloc<unsigned int> >::_M_erase
PUBLIC	?erase@?$_Impl_vector@IV?$xalloc@I@@@priv@stlp_std@@QAEPAIPAI0@Z ; stlp_std::priv::_Impl_vector<unsigned int,xalloc<unsigned int> >::erase
PUBLIC	?to_value_type_ptr@?$_CastTraits@II@priv@stlp_std@@SAPAIPAI@Z ; stlp_std::priv::_CastTraits<unsigned int,unsigned int>::to_value_type_ptr
PUBLIC	?to_storage_type_ptr@?$_CastTraits@II@priv@stlp_std@@SAPAIPAI@Z ; stlp_std::priv::_CastTraits<unsigned int,unsigned int>::to_storage_type_ptr
PUBLIC	?erase@?$vector@IV?$xalloc@I@@@stlp_std@@QAEPAIPAI0@Z ; stlp_std::vector<unsigned int,xalloc<unsigned int> >::erase
PUBLIC	?clear_not_free@?$xr_vector@IV?$xalloc@I@@@@QAEXXZ ; xr_vector<unsigned int,xalloc<unsigned int> >::clear_not_free
PUBLIC	?begin@?$_Impl_vector@UItem@CInifile@@V?$xalloc@UItem@CInifile@@@@@priv@stlp_std@@QAEPAUItem@CInifile@@XZ ; stlp_std::priv::_Impl_vector<CInifile::Item,xalloc<CInifile::Item> >::begin
PUBLIC	?begin@?$vector@UItem@CInifile@@V?$xalloc@UItem@CInifile@@@@@stlp_std@@QAEPAUItem@CInifile@@XZ ; stlp_std::vector<CInifile::Item,xalloc<CInifile::Item> >::begin
PUBLIC	?end@?$_Impl_vector@UItem@CInifile@@V?$xalloc@UItem@CInifile@@@@@priv@stlp_std@@QAEPAUItem@CInifile@@XZ ; stlp_std::priv::_Impl_vector<CInifile::Item,xalloc<CInifile::Item> >::end
PUBLIC	?to_value_type_ptr@?$_CastTraits@UItem@CInifile@@U12@@priv@stlp_std@@SAPAUItem@CInifile@@PAU45@@Z ; stlp_std::priv::_CastTraits<CInifile::Item,CInifile::Item>::to_value_type_ptr
PUBLIC	?end@?$vector@UItem@CInifile@@V?$xalloc@UItem@CInifile@@@@@stlp_std@@QAEPAUItem@CInifile@@XZ ; stlp_std::vector<CInifile::Item,xalloc<CInifile::Item> >::end
PUBLIC	?size@?$_Impl_vector@UItem@CInifile@@V?$xalloc@UItem@CInifile@@@@@priv@stlp_std@@QBEIXZ ; stlp_std::priv::_Impl_vector<CInifile::Item,xalloc<CInifile::Item> >::size
PUBLIC	?size@?$vector@UItem@CInifile@@V?$xalloc@UItem@CInifile@@@@@stlp_std@@QBEIXZ ; stlp_std::vector<CInifile::Item,xalloc<CInifile::Item> >::size
PUBLIC	?size@?$xr_vector@UItem@CInifile@@V?$xalloc@UItem@CInifile@@@@@@QBEIXZ ; xr_vector<CInifile::Item,xalloc<CInifile::Item> >::size
PUBLIC	??0?$xalloc@I@@QAE@XZ				; xalloc<unsigned int>::xalloc<unsigned int>
PUBLIC	??0?$xalloc@I@@QAE@ABV0@@Z			; xalloc<unsigned int>::xalloc<unsigned int>
PUBLIC	??0?$_STLP_alloc_proxy@PAIIV?$xalloc@I@@@priv@stlp_std@@QAE@ABV?$xalloc@I@@PAI@Z ; stlp_std::priv::_STLP_alloc_proxy<unsigned int *,unsigned int,xalloc<unsigned int> >::_STLP_alloc_proxy<unsigned int *,unsigned int,xalloc<unsigned int> >
PUBLIC	??0?$_Vector_base@IV?$xalloc@I@@@priv@stlp_std@@QAE@ABV?$xalloc@I@@@Z ; stlp_std::priv::_Vector_base<unsigned int,xalloc<unsigned int> >::_Vector_base<unsigned int,xalloc<unsigned int> >
PUBLIC	??0?$_Impl_vector@IV?$xalloc@I@@@priv@stlp_std@@QAE@ABV?$xalloc@I@@@Z ; stlp_std::priv::_Impl_vector<unsigned int,xalloc<unsigned int> >::_Impl_vector<unsigned int,xalloc<unsigned int> >
PUBLIC	??0?$vector@IV?$xalloc@I@@@stlp_std@@QAE@ABV?$xalloc@I@@@Z ; stlp_std::vector<unsigned int,xalloc<unsigned int> >::vector<unsigned int,xalloc<unsigned int> >
PUBLIC	??0?$xr_vector@IV?$xalloc@I@@@@QAE@XZ		; xr_vector<unsigned int,xalloc<unsigned int> >::xr_vector<unsigned int,xalloc<unsigned int> >
PUBLIC	?deallocate@?$xalloc@I@@QBEXPAII@Z		; xalloc<unsigned int>::deallocate
PUBLIC	??1?$_Vector_base@IV?$xalloc@I@@@priv@stlp_std@@QAE@XZ ; stlp_std::priv::_Vector_base<unsigned int,xalloc<unsigned int> >::~_Vector_base<unsigned int,xalloc<unsigned int> >
PUBLIC	?end@?$_Impl_vector@IV?$xalloc@I@@@priv@stlp_std@@QAEPAIXZ ; stlp_std::priv::_Impl_vector<unsigned int,xalloc<unsigned int> >::end
PUBLIC	?rbegin@?$_Impl_vector@IV?$xalloc@I@@@priv@stlp_std@@QAE?AV?$reverse_iterator@PAI@3@XZ ; stlp_std::priv::_Impl_vector<unsigned int,xalloc<unsigned int> >::rbegin
PUBLIC	?begin@?$_Impl_vector@IV?$xalloc@I@@@priv@stlp_std@@QAEPAIXZ ; stlp_std::priv::_Impl_vector<unsigned int,xalloc<unsigned int> >::begin
PUBLIC	??0?$reverse_iterator@PAI@stlp_std@@QAE@PAI@Z	; stlp_std::reverse_iterator<unsigned int *>::reverse_iterator<unsigned int *>
PUBLIC	?rend@?$_Impl_vector@IV?$xalloc@I@@@priv@stlp_std@@QAE?AV?$reverse_iterator@PAI@3@XZ ; stlp_std::priv::_Impl_vector<unsigned int,xalloc<unsigned int> >::rend
PUBLIC	??0?$reverse_iterator@PAI@stlp_std@@QAE@ABV01@@Z ; stlp_std::reverse_iterator<unsigned int *>::reverse_iterator<unsigned int *>
PUBLIC	??$__destroy_range_aux@V?$reverse_iterator@PAI@stlp_std@@I@stlp_std@@YAXV?$reverse_iterator@PAI@0@0PAIABU__true_type@0@@Z ; stlp_std::__destroy_range_aux<stlp_std::reverse_iterator<unsigned int *>,unsigned int>
PUBLIC	??$__destroy_range@V?$reverse_iterator@PAI@stlp_std@@I@stlp_std@@YAXV?$reverse_iterator@PAI@0@0PAI@Z ; stlp_std::__destroy_range<stlp_std::reverse_iterator<unsigned int *>,unsigned int>
PUBLIC	??$_Destroy_Range@V?$reverse_iterator@PAI@stlp_std@@@stlp_std@@YAXV?$reverse_iterator@PAI@0@0@Z ; stlp_std::_Destroy_Range<stlp_std::reverse_iterator<unsigned int *> >
PUBLIC	??1?$_Impl_vector@IV?$xalloc@I@@@priv@stlp_std@@QAE@XZ ; stlp_std::priv::_Impl_vector<unsigned int,xalloc<unsigned int> >::~_Impl_vector<unsigned int,xalloc<unsigned int> >
PUBLIC	??1?$vector@IV?$xalloc@I@@@stlp_std@@QAE@XZ	; stlp_std::vector<unsigned int,xalloc<unsigned int> >::~vector<unsigned int,xalloc<unsigned int> >
PUBLIC	??1?$xr_vector@IV?$xalloc@I@@@@QAE@XZ		; xr_vector<unsigned int,xalloc<unsigned int> >::~xr_vector<unsigned int,xalloc<unsigned int> >
PUBLIC	?g_pMotionsContainer@@3PAVmotions_container@@A	; g_pMotionsContainer
PUBLIC	??_C@_0BN@HECBOIOO@?$CBthere?5is?5no?5part?5named?5?$FL?$CFs?$FN?$AA@ ; `string'
PUBLIC	??_C@_0O@CGKNLCGD@$game_meshes$?$AA@		; `string'
PUBLIC	??_C@_0P@DEDKCAFJ@partition_name?$AA@		; `string'
PUBLIC	??_C@_07PNINCJMO@part_?$CFd?$AA@		; `string'
PUBLIC	??_C@_0BE@FMNFMAHB@motions_value?3?3load?$AA@	; `string'
PUBLIC	??_C@_0DI@HJAAPJIP@D?3?2CLEARSKY?2sources?2engine?2xrEng@ ; `string'
PUBLIC	??_C@_0BJ@HPKGBJIM@Invalid?5OGF?1OMF?5version?3?$AA@ ; `string'
PUBLIC	??_C@_0BM@CILJEIME@vers?$DM?$DNxrOGF_SMParamsVersion?$AA@ ; `string'
PUBLIC	??_C@_0CM@GCPKLGHM@Old?5skinned?5model?5version?5unsupp@ ; `string'
PUBLIC	??_C@_0BI@DHGIHFMH@MS?9?$DOfind_chunk?$CIm_idx?$CL1?$CJ?$AA@ ; `string'
PUBLIC	??_C@_0CA@EHACPEFG@?9?9?9?5motion?5container?5?9?9?9?5begin?3?$AA@ ; `string'
PUBLIC	??_C@_0BI@BMBKIPKJ@?$CD?$CF3d?3?5?$FL?$CF3d?1?$CF5d?5Kb?$FN?5?9?5?$CFs?$AA@ ; `string'
PUBLIC	??_C@_0CB@GLOCMOBE@?9?9?9?5items?3?5?$CFd?0?5mem?5usage?3?5?$CFd?5Kb?5@ ; `string'
PUBLIC	??_C@_0BO@JJOELMJF@?9?9?9?5motion?5container?5?9?9?9?5end?4?$AA@ ; `string'
EXTRN	__imp___strlwr:PROC
EXTRN	__imp_?crc32@@YAIPBXI@Z:PROC
EXTRN	__imp_?advance@IReader@@QAEXH@Z:PROC
EXTRN	__imp_?r_stringZ@IReader@@QAEXPADI@Z:PROC
EXTRN	__imp_?dock@smem_container@@QAEPAUsmem_value@@IIPAX@Z:PROC
EXTRN	__imp_?g_pSharedMemoryContainer@@3PAVsmem_container@@A:DWORD
EXTRN	__imp_?r_string@IReader@@QAEXAAV?$basic_string@DV?$char_traits@D@stlp_std@@V?$xalloc@D@@@stlp_std@@@Z:PROC
EXTRN	__imp_??1Sect@CInifile@@QAE@XZ:PROC
EXTRN	__imp_??0Sect@CInifile@@QAE@ABU01@@Z:PROC
?g_pMotionsContainer@@3PAVmotions_container@@A DD 01H DUP (?) ; g_pMotionsContainer
;	COMDAT ?ignore_always@?6??load@motions_value@@QAEHPBDPAVIReader@@PAV?$xr_vector@PAVCBoneData@@V?$xalloc@PAVCBoneData@@@@@@@Z@4_NA
_BSS	SEGMENT
?ignore_always@?6??load@motions_value@@QAEHPBDPAVIReader@@PAV?$xr_vector@PAVCBoneData@@V?$xalloc@PAVCBoneData@@@@@@@Z@4_NA DB 01H DUP (?) ; `motions_value::load'::`7'::ignore_always
_BSS	ENDS
;	COMDAT ?ignore_always@?CI@??load@motions_value@@QAEHPBDPAVIReader@@PAV?$xr_vector@PAVCBoneData@@V?$xalloc@PAVCBoneData@@@@@@@Z@4_NA
_BSS	SEGMENT
?ignore_always@?CI@??load@motions_value@@QAEHPBDPAVIReader@@PAV?$xr_vector@PAVCBoneData@@V?$xalloc@PAVCBoneData@@@@@@@Z@4_NA DB 01H DUP (?) ; `motions_value::load'::`40'::ignore_always
;	COMDAT ??_C@_0BO@JJOELMJF@?9?9?9?5motion?5container?5?9?9?9?5end?4?$AA@
CONST	SEGMENT
??_C@_0BO@JJOELMJF@?9?9?9?5motion?5container?5?9?9?9?5end?4?$AA@ DB '--- '
	DB	'motion container --- end.', 00H		; `string'
CONST	ENDS
;	COMDAT ??_C@_0CB@GLOCMOBE@?9?9?9?5items?3?5?$CFd?0?5mem?5usage?3?5?$CFd?5Kb?5@
CONST	SEGMENT
??_C@_0CB@GLOCMOBE@?9?9?9?5items?3?5?$CFd?0?5mem?5usage?3?5?$CFd?5Kb?5@ DB '-'
	DB	'-- items: %d, mem usage: %d Kb ', 00H	; `string'
CONST	ENDS
;	COMDAT ??_C@_0BI@BMBKIPKJ@?$CD?$CF3d?3?5?$FL?$CF3d?1?$CF5d?5Kb?$FN?5?9?5?$CFs?$AA@
CONST	SEGMENT
??_C@_0BI@BMBKIPKJ@?$CD?$CF3d?3?5?$FL?$CF3d?1?$CF5d?5Kb?$FN?5?9?5?$CFs?$AA@ DB '#'
	DB	'%3d: [%3d/%5d Kb] - %s', 00H		; `string'
CONST	ENDS
;	COMDAT ??_C@_0CA@EHACPEFG@?9?9?9?5motion?5container?5?9?9?9?5begin?3?$AA@
CONST	SEGMENT
??_C@_0CA@EHACPEFG@?9?9?9?5motion?5container?5?9?9?9?5begin?3?$AA@ DB '--'
	DB	'- motion container --- begin:', 00H		; `string'
CONST	ENDS
;	COMDAT ??_C@_0BI@DHGIHFMH@MS?9?$DOfind_chunk?$CIm_idx?$CL1?$CJ?$AA@
CONST	SEGMENT
??_C@_0BI@DHGIHFMH@MS?9?$DOfind_chunk?$CIm_idx?$CL1?$CJ?$AA@ DB 'MS->find'
	DB	'_chunk(m_idx+1)', 00H			; `string'
CONST	ENDS
;	COMDAT ??_C@_0CM@GCPKLGHM@Old?5skinned?5model?5version?5unsupp@
CONST	SEGMENT
??_C@_0CM@GCPKLGHM@Old?5skinned?5model?5version?5unsupp@ DB 'Old skinned '
	DB	'model version unsupported! (%s)', 00H	; `string'
CONST	ENDS
;	COMDAT ??_C@_0BM@CILJEIME@vers?$DM?$DNxrOGF_SMParamsVersion?$AA@
CONST	SEGMENT
??_C@_0BM@CILJEIME@vers?$DM?$DNxrOGF_SMParamsVersion?$AA@ DB 'vers<=xrOGF'
	DB	'_SMParamsVersion', 00H			; `string'
CONST	ENDS
;	COMDAT ??_C@_0BJ@HPKGBJIM@Invalid?5OGF?1OMF?5version?3?$AA@
CONST	SEGMENT
??_C@_0BJ@HPKGBJIM@Invalid?5OGF?1OMF?5version?3?$AA@ DB 'Invalid OGF/OMF '
	DB	'version:', 00H				; `string'
CONST	ENDS
;	COMDAT ??_C@_0DI@HJAAPJIP@D?3?2CLEARSKY?2sources?2engine?2xrEng@
CONST	SEGMENT
??_C@_0DI@HJAAPJIP@D?3?2CLEARSKY?2sources?2engine?2xrEng@ DB 'D:\CLEARSKY'
	DB	'\sources\engine\xrEngine\SkeletonMotions.cpp', 00H ; `string'
CONST	ENDS
;	COMDAT ??_C@_0BE@FMNFMAHB@motions_value?3?3load?$AA@
CONST	SEGMENT
??_C@_0BE@FMNFMAHB@motions_value?3?3load?$AA@ DB 'motions_value::load', 00H ; `string'
CONST	ENDS
;	COMDAT ??_C@_07PNINCJMO@part_?$CFd?$AA@
CONST	SEGMENT
??_C@_07PNINCJMO@part_?$CFd?$AA@ DB 'part_%d', 00H	; `string'
CONST	ENDS
;	COMDAT ??_C@_0P@DEDKCAFJ@partition_name?$AA@
CONST	SEGMENT
??_C@_0P@DEDKCAFJ@partition_name?$AA@ DB 'partition_name', 00H ; `string'
CONST	ENDS
;	COMDAT ??_C@_0O@CGKNLCGD@$game_meshes$?$AA@
CONST	SEGMENT
??_C@_0O@CGKNLCGD@$game_meshes$?$AA@ DB '$game_meshes$', 00H ; `string'
CONST	ENDS
;	COMDAT ??_C@_0BN@HECBOIOO@?$CBthere?5is?5no?5part?5named?5?$FL?$CFs?$FN?$AA@
CONST	SEGMENT
??_C@_0BN@HECBOIOO@?$CBthere?5is?5no?5part?5named?5?$FL?$CFs?$FN?$AA@ DB '!'
	DB	'there is no part named [%s]', 00H		; `string'
_SAMPLE_FPS DD	041f00000r			; 30
_KEY_Quant DD	046fffe00r			; 32767
_fQuantizerRangeExt DD 03fc00000r		; 1.5
_EPS	DD	03727c5acr			; 1e-005
; Function compile flags: /Ogtpy
; File d:\clearsky\sources\engine\xrcore\_stl_extensions.h
;	COMDAT ??0?$xalloc@I@@QAE@XZ
_TEXT	SEGMENT
??0?$xalloc@I@@QAE@XZ PROC				; xalloc<unsigned int>::xalloc<unsigned int>, COMDAT
; _this$ = eax

; 77   : 													xalloc			()										{	}

	ret	0
??0?$xalloc@I@@QAE@XZ ENDP				; xalloc<unsigned int>::xalloc<unsigned int>
; Function compile flags: /Ogtpy
; File d:\clearsky\sources\sdk\include\stlport\stl\_string_base.h
_TEXT	ENDS
;	COMDAT ?_M_Finish@?$_String_base@DV?$xalloc@D@@@priv@stlp_std@@IAEPADXZ
_TEXT	SEGMENT
?_M_Finish@?$_String_base@DV?$xalloc@D@@@priv@stlp_std@@IAEPADXZ PROC ; stlp_std::priv::_String_base<char,xalloc<char> >::_M_Finish, COMDAT
; _this$ = eax

; 85   :   _Tp* _M_Finish() {return _M_finish;}

	mov	eax, DWORD PTR [eax+16]
	ret	0
?_M_Finish@?$_String_base@DV?$xalloc@D@@@priv@stlp_std@@IAEPADXZ ENDP ; stlp_std::priv::_String_base<char,xalloc<char> >::_M_Finish
; Function compile flags: /Ogtpy
; File d:\clearsky\sources\sdk\include\stlport\stl\_string.h
_TEXT	ENDS
;	COMDAT ?_M_construct_null_aux@?$basic_string@DV?$char_traits@D@stlp_std@@V?$xalloc@D@@@stlp_std@@IBEXPADABU__true_type@2@@Z
_TEXT	SEGMENT
?_M_construct_null_aux@?$basic_string@DV?$char_traits@D@stlp_std@@V?$xalloc@D@@@stlp_std@@IBEXPADABU__true_type@2@@Z PROC ; stlp_std::basic_string<char,stlp_std::char_traits<char>,xalloc<char> >::_M_construct_null_aux, COMDAT
; ___p$ = eax

; 406  :   { *__p = 0; }

	mov	BYTE PTR [eax], 0
	ret	0
?_M_construct_null_aux@?$basic_string@DV?$char_traits@D@stlp_std@@V?$xalloc@D@@@stlp_std@@IBEXPADABU__true_type@2@@Z ENDP ; stlp_std::basic_string<char,stlp_std::char_traits<char>,xalloc<char> >::_M_construct_null_aux
; Function compile flags: /Ogtpy
_TEXT	ENDS
;	COMDAT ?_M_terminate_string_aux@?$basic_string@DV?$char_traits@D@stlp_std@@V?$xalloc@D@@@stlp_std@@IAEXABU__true_type@2@@Z
_TEXT	SEGMENT
?_M_terminate_string_aux@?$basic_string@DV?$char_traits@D@stlp_std@@V?$xalloc@D@@@stlp_std@@IAEXABU__true_type@2@@Z PROC ; stlp_std::basic_string<char,stlp_std::char_traits<char>,xalloc<char> >::_M_terminate_string_aux, COMDAT
; _this$ = eax

; 430  :   { _M_construct_null_aux(this->_M_Finish(), __is_integral); }

	mov	ecx, DWORD PTR [eax+16]
	mov	BYTE PTR [ecx], 0
	ret	0
?_M_terminate_string_aux@?$basic_string@DV?$char_traits@D@stlp_std@@V?$xalloc@D@@@stlp_std@@IAEXABU__true_type@2@@Z ENDP ; stlp_std::basic_string<char,stlp_std::char_traits<char>,xalloc<char> >::_M_terminate_string_aux
; Function compile flags: /Ogtpy
_TEXT	ENDS
;	COMDAT ?_M_force_terminate_string@?$basic_string@DV?$char_traits@D@stlp_std@@V?$xalloc@D@@@stlp_std@@IAEXABU__false_type@2@@Z
_TEXT	SEGMENT
?_M_force_terminate_string@?$basic_string@DV?$char_traits@D@stlp_std@@V?$xalloc@D@@@stlp_std@@IAEXABU__false_type@2@@Z PROC ; stlp_std::basic_string<char,stlp_std::char_traits<char>,xalloc<char> >::_M_force_terminate_string, COMDAT
; _this$ = eax

; 435  :   { _M_terminate_string_aux(_Char_Is_Integral()); }

	mov	ecx, DWORD PTR [eax+16]
	mov	BYTE PTR [ecx], 0
	ret	0
?_M_force_terminate_string@?$basic_string@DV?$char_traits@D@stlp_std@@V?$xalloc@D@@@stlp_std@@IAEXABU__false_type@2@@Z ENDP ; stlp_std::basic_string<char,stlp_std::char_traits<char>,xalloc<char> >::_M_force_terminate_string
; Function compile flags: /Ogtpy
_TEXT	ENDS
;	COMDAT ?_M_terminate_string@?$basic_string@DV?$char_traits@D@stlp_std@@V?$xalloc@D@@@stlp_std@@IAEXXZ
_TEXT	SEGMENT
?_M_terminate_string@?$basic_string@DV?$char_traits@D@stlp_std@@V?$xalloc@D@@@stlp_std@@IAEXXZ PROC ; stlp_std::basic_string<char,stlp_std::char_traits<char>,xalloc<char> >::_M_terminate_string, COMDAT
; _this$ = eax

; 438  :     typedef __false_type _Answer;
; 439  : 
; 440  :     _M_force_terminate_string(_Answer());

	mov	ecx, DWORD PTR [eax+16]
	mov	BYTE PTR [ecx], 0

; 441  :   }

	ret	0
?_M_terminate_string@?$basic_string@DV?$char_traits@D@stlp_std@@V?$xalloc@D@@@stlp_std@@IAEXXZ ENDP ; stlp_std::basic_string<char,stlp_std::char_traits<char>,xalloc<char> >::_M_terminate_string
; Function compile flags: /Ogtpy
; File d:\clearsky\sources\engine\xrcore\_stl_extensions.h
_TEXT	ENDS
;	COMDAT ??0?$xalloc@D@@QAE@ABV0@@Z
_TEXT	SEGMENT
??0?$xalloc@D@@QAE@ABV0@@Z PROC				; xalloc<char>::xalloc<char>, COMDAT
; _this$ = eax

; 78   : 													xalloc			(const xalloc<T>&)						{	}

	ret	0
??0?$xalloc@D@@QAE@ABV0@@Z ENDP				; xalloc<char>::xalloc<char>
; Function compile flags: /Ogtpy
; File d:\clearsky\sources\sdk\include\stlport\stl\_alloc.h
_TEXT	ENDS
;	COMDAT ??0?$_STLP_alloc_proxy@PADDV?$xalloc@D@@@priv@stlp_std@@QAE@ABV?$xalloc@D@@PAD@Z
_TEXT	SEGMENT
??0?$_STLP_alloc_proxy@PADDV?$xalloc@D@@@priv@stlp_std@@QAE@ABV?$xalloc@D@@PAD@Z PROC ; stlp_std::priv::_STLP_alloc_proxy<char *,char,xalloc<char> >::_STLP_alloc_proxy<char *,char,xalloc<char> >, COMDAT
; _this$ = eax
; ___p$ = ecx

; 571  :     _MaybeReboundAlloc(__a), _M_data(__p) {}

	mov	DWORD PTR [eax], ecx
	ret	0
??0?$_STLP_alloc_proxy@PADDV?$xalloc@D@@@priv@stlp_std@@QAE@ABV?$xalloc@D@@PAD@Z ENDP ; stlp_std::priv::_STLP_alloc_proxy<char *,char,xalloc<char> >::_STLP_alloc_proxy<char *,char,xalloc<char> >
; Function compile flags: /Ogtpy
; File d:\clearsky\sources\engine\xrcore\_stl_extensions.h
_TEXT	ENDS
;	COMDAT ??0?$xalloc@D@@QAE@XZ
_TEXT	SEGMENT
??0?$xalloc@D@@QAE@XZ PROC				; xalloc<char>::xalloc<char>, COMDAT
; _this$ = eax

; 77   : 													xalloc			()										{	}

	ret	0
??0?$xalloc@D@@QAE@XZ ENDP				; xalloc<char>::xalloc<char>
; Function compile flags: /Ogtpy
; File d:\clearsky\sources\sdk\include\stlport\stl\_string_base.h
_TEXT	ENDS
;	COMDAT ?_M_using_static_buf@?$_String_base@DV?$xalloc@D@@@priv@stlp_std@@IBE_NXZ
_TEXT	SEGMENT
?_M_using_static_buf@?$_String_base@DV?$xalloc@D@@@priv@stlp_std@@IBE_NXZ PROC ; stlp_std::priv::_String_base<char,xalloc<char> >::_M_using_static_buf, COMDAT
; _this$ = eax

; 68   :     return (_M_end_of_storage._M_data == _M_buffers._M_static_buf + _DEFAULT_SIZE);

	lea	ecx, DWORD PTR [eax+16]
	xor	edx, edx
	cmp	DWORD PTR [eax+20], ecx
	sete	dl
	mov	al, dl

; 69   :   }

	ret	0
?_M_using_static_buf@?$_String_base@DV?$xalloc@D@@@priv@stlp_std@@IBE_NXZ ENDP ; stlp_std::priv::_String_base<char,xalloc<char> >::_M_using_static_buf
; Function compile flags: /Ogtpy
_TEXT	ENDS
;	COMDAT ?_M_Start@?$_String_base@DV?$xalloc@D@@@priv@stlp_std@@IBEPBDXZ
_TEXT	SEGMENT
?_M_Start@?$_String_base@DV?$xalloc@D@@@priv@stlp_std@@IBEPBDXZ PROC ; stlp_std::priv::_String_base<char,xalloc<char> >::_M_Start, COMDAT
; _this$ = eax

; 71   :     return _M_using_static_buf()?_M_buffers._M_static_buf:_M_buffers._M_dynamic_buf;

	lea	ecx, DWORD PTR [eax+16]
	cmp	DWORD PTR [eax+20], ecx
	je	SHORT $LN4@M_Start
	mov	eax, DWORD PTR [eax]
$LN4@M_Start:

; 72   :   }

	ret	0
?_M_Start@?$_String_base@DV?$xalloc@D@@@priv@stlp_std@@IBEPBDXZ ENDP ; stlp_std::priv::_String_base<char,xalloc<char> >::_M_Start
; Function compile flags: /Ogtpy
; File d:\clearsky\sources\sdk\include\stlport\stl\_string.h
_TEXT	ENDS
;	COMDAT ?c_str@?$basic_string@DV?$char_traits@D@stlp_std@@V?$xalloc@D@@@stlp_std@@QBEPBDXZ
_TEXT	SEGMENT
?c_str@?$basic_string@DV?$char_traits@D@stlp_std@@V?$xalloc@D@@@stlp_std@@QBEPBDXZ PROC ; stlp_std::basic_string<char,stlp_std::char_traits<char>,xalloc<char> >::c_str, COMDAT
; _this$ = eax

; 1172 :   const _CharT* c_str() const { return this->_M_Start(); }

	lea	ecx, DWORD PTR [eax+16]
	cmp	DWORD PTR [eax+20], ecx
	je	SHORT $LN6@c_str
	mov	eax, DWORD PTR [eax]
$LN6@c_str:
	ret	0
?c_str@?$basic_string@DV?$char_traits@D@stlp_std@@V?$xalloc@D@@@stlp_std@@QBEPBDXZ ENDP ; stlp_std::basic_string<char,stlp_std::char_traits<char>,xalloc<char> >::c_str
; Function compile flags: /Ogtpy
; File d:\clearsky\sources\sdk\include\stlport\stl\pointers\_tools.h
_TEXT	ENDS
;	COMDAT ?to_value_type_ptr@?$_CastTraits@II@priv@stlp_std@@SAPAIPAI@Z
_TEXT	SEGMENT
?to_value_type_ptr@?$_CastTraits@II@priv@stlp_std@@SAPAIPAI@Z PROC ; stlp_std::priv::_CastTraits<unsigned int,unsigned int>::to_value_type_ptr, COMDAT
; ___ptr$ = eax

; 237  :   { return __ptr; }

	ret	0
?to_value_type_ptr@?$_CastTraits@II@priv@stlp_std@@SAPAIPAI@Z ENDP ; stlp_std::priv::_CastTraits<unsigned int,unsigned int>::to_value_type_ptr
; Function compile flags: /Ogtpy
; File d:\clearsky\sources\sdk\include\stlport\stl\_vector.h
_TEXT	ENDS
;	COMDAT ?end@?$_Impl_vector@IV?$xalloc@I@@@priv@stlp_std@@QAEPAIXZ
_TEXT	SEGMENT
?end@?$_Impl_vector@IV?$xalloc@I@@@priv@stlp_std@@QAEPAIXZ PROC ; stlp_std::priv::_Impl_vector<unsigned int,xalloc<unsigned int> >::end, COMDAT
; _this$ = eax

; 172  :   iterator end()               { return this->_M_finish; }

	mov	eax, DWORD PTR [eax+4]
	ret	0
?end@?$_Impl_vector@IV?$xalloc@I@@@priv@stlp_std@@QAEPAIXZ ENDP ; stlp_std::priv::_Impl_vector<unsigned int,xalloc<unsigned int> >::end
; Function compile flags: /Ogtpy
_TEXT	ENDS
;	COMDAT ?begin@?$_Impl_vector@IV?$xalloc@I@@@priv@stlp_std@@QAEPAIXZ
_TEXT	SEGMENT
?begin@?$_Impl_vector@IV?$xalloc@I@@@priv@stlp_std@@QAEPAIXZ PROC ; stlp_std::priv::_Impl_vector<unsigned int,xalloc<unsigned int> >::begin, COMDAT
; _this$ = eax

; 170  :   iterator begin()             { return this->_M_start; }

	mov	eax, DWORD PTR [eax]
	ret	0
?begin@?$_Impl_vector@IV?$xalloc@I@@@priv@stlp_std@@QAEPAIXZ ENDP ; stlp_std::priv::_Impl_vector<unsigned int,xalloc<unsigned int> >::begin
; Function compile flags: /Ogtpy
; File d:\clearsky\sources\engine\xrcore\_stl_extensions.h
_TEXT	ENDS
;	COMDAT ??0?$xalloc@I@@QAE@ABV0@@Z
_TEXT	SEGMENT
??0?$xalloc@I@@QAE@ABV0@@Z PROC				; xalloc<unsigned int>::xalloc<unsigned int>, COMDAT
; _this$ = eax

; 78   : 													xalloc			(const xalloc<T>&)						{	}

	ret	0
??0?$xalloc@I@@QAE@ABV0@@Z ENDP				; xalloc<unsigned int>::xalloc<unsigned int>
; Function compile flags: /Ogtpy
; File d:\clearsky\sources\sdk\include\stlport\stl\_alloc.h
_TEXT	ENDS
;	COMDAT ??0?$_STLP_alloc_proxy@PAIIV?$xalloc@I@@@priv@stlp_std@@QAE@ABV?$xalloc@I@@PAI@Z
_TEXT	SEGMENT
??0?$_STLP_alloc_proxy@PAIIV?$xalloc@I@@@priv@stlp_std@@QAE@ABV?$xalloc@I@@PAI@Z PROC ; stlp_std::priv::_STLP_alloc_proxy<unsigned int *,unsigned int,xalloc<unsigned int> >::_STLP_alloc_proxy<unsigned int *,unsigned int,xalloc<unsigned int> >, COMDAT
; _this$ = eax

; 571  :     _MaybeReboundAlloc(__a), _M_data(__p) {}

	mov	DWORD PTR [eax], 0
	ret	0
??0?$_STLP_alloc_proxy@PAIIV?$xalloc@I@@@priv@stlp_std@@QAE@ABV?$xalloc@I@@PAI@Z ENDP ; stlp_std::priv::_STLP_alloc_proxy<unsigned int *,unsigned int,xalloc<unsigned int> >::_STLP_alloc_proxy<unsigned int *,unsigned int,xalloc<unsigned int> >
; Function compile flags: /Ogtpy
; File d:\clearsky\sources\sdk\include\stlport\stl\_iterator.h
_TEXT	ENDS
;	COMDAT ??0?$reverse_iterator@PAI@stlp_std@@QAE@PAI@Z
_TEXT	SEGMENT
??0?$reverse_iterator@PAI@stlp_std@@QAE@PAI@Z PROC	; stlp_std::reverse_iterator<unsigned int *>::reverse_iterator<unsigned int *>, COMDAT
; _this$ = eax
; ___x$ = ecx

; 65   :   explicit reverse_iterator(iterator_type __x) : current(__x) {}

	mov	DWORD PTR [eax], ecx
	ret	0
??0?$reverse_iterator@PAI@stlp_std@@QAE@PAI@Z ENDP	; stlp_std::reverse_iterator<unsigned int *>::reverse_iterator<unsigned int *>
; Function compile flags: /Ogtpy
; File d:\clearsky\sources\sdk\include\stlport\stl\_vector.h
_TEXT	ENDS
;	COMDAT ?rbegin@?$_Impl_vector@IV?$xalloc@I@@@priv@stlp_std@@QAE?AV?$reverse_iterator@PAI@3@XZ
_TEXT	SEGMENT
?rbegin@?$_Impl_vector@IV?$xalloc@I@@@priv@stlp_std@@QAE?AV?$reverse_iterator@PAI@3@XZ PROC ; stlp_std::priv::_Impl_vector<unsigned int,xalloc<unsigned int> >::rbegin, COMDAT
; _this$ = ecx
; ___$ReturnUdt$ = eax

; 175  :   reverse_iterator rbegin()              { return reverse_iterator(end()); }

	mov	edx, DWORD PTR [ecx+4]
	mov	DWORD PTR [eax], edx
	ret	0
?rbegin@?$_Impl_vector@IV?$xalloc@I@@@priv@stlp_std@@QAE?AV?$reverse_iterator@PAI@3@XZ ENDP ; stlp_std::priv::_Impl_vector<unsigned int,xalloc<unsigned int> >::rbegin
; Function compile flags: /Ogtpy
; File d:\clearsky\sources\sdk\include\stlport\stl\_iterator.h
_TEXT	ENDS
;	COMDAT ?base@?$reverse_iterator@PAVCMotion@@@stlp_std@@QBEPAVCMotion@@XZ
_TEXT	SEGMENT
?base@?$reverse_iterator@PAVCMotion@@@stlp_std@@QBEPAVCMotion@@XZ PROC ; stlp_std::reverse_iterator<CMotion *>::base, COMDAT
; _this$ = eax

; 75   :   iterator_type base() const { return current; }

	mov	eax, DWORD PTR [eax]
	ret	0
?base@?$reverse_iterator@PAVCMotion@@@stlp_std@@QBEPAVCMotion@@XZ ENDP ; stlp_std::reverse_iterator<CMotion *>::base
; Function compile flags: /Ogtpy
_TEXT	ENDS
;	COMDAT ??$?8PAVCMotion@@@stlp_std@@YA_NABV?$reverse_iterator@PAVCMotion@@@0@0@Z
_TEXT	SEGMENT
??$?8PAVCMotion@@@stlp_std@@YA_NABV?$reverse_iterator@PAVCMotion@@@0@0@Z PROC ; stlp_std::operator==<CMotion *>, COMDAT
; ___x$ = eax
; ___y$ = edx

; 116  : { return __x.base() == __y.base(); }

	mov	ecx, DWORD PTR [eax]
	xor	eax, eax
	cmp	ecx, DWORD PTR [edx]
	sete	al
	ret	0
??$?8PAVCMotion@@@stlp_std@@YA_NABV?$reverse_iterator@PAVCMotion@@@0@0@Z ENDP ; stlp_std::operator==<CMotion *>
; Function compile flags: /Ogtpy
_TEXT	ENDS
;	COMDAT ?base@?$reverse_iterator@PAVCMotionDef@@@stlp_std@@QBEPAVCMotionDef@@XZ
_TEXT	SEGMENT
?base@?$reverse_iterator@PAVCMotionDef@@@stlp_std@@QBEPAVCMotionDef@@XZ PROC ; stlp_std::reverse_iterator<CMotionDef *>::base, COMDAT
; _this$ = eax

; 75   :   iterator_type base() const { return current; }

	mov	eax, DWORD PTR [eax]
	ret	0
?base@?$reverse_iterator@PAVCMotionDef@@@stlp_std@@QBEPAVCMotionDef@@XZ ENDP ; stlp_std::reverse_iterator<CMotionDef *>::base
; Function compile flags: /Ogtpy
_TEXT	ENDS
;	COMDAT ?base@?$reverse_iterator@PAVmotion_marks@@@stlp_std@@QBEPAVmotion_marks@@XZ
_TEXT	SEGMENT
?base@?$reverse_iterator@PAVmotion_marks@@@stlp_std@@QBEPAVmotion_marks@@XZ PROC ; stlp_std::reverse_iterator<motion_marks *>::base, COMDAT
; _this$ = eax

; 75   :   iterator_type base() const { return current; }

	mov	eax, DWORD PTR [eax]
	ret	0
?base@?$reverse_iterator@PAVmotion_marks@@@stlp_std@@QBEPAVmotion_marks@@XZ ENDP ; stlp_std::reverse_iterator<motion_marks *>::base
; Function compile flags: /Ogtpy
_TEXT	ENDS
;	COMDAT ??$?9PAVCMotion@@@stlp_std@@YA_NABV?$reverse_iterator@PAVCMotion@@@0@0@Z
_TEXT	SEGMENT
??$?9PAVCMotion@@@stlp_std@@YA_NABV?$reverse_iterator@PAVCMotion@@@0@0@Z PROC ; stlp_std::operator!=<CMotion *>, COMDAT
; ___x$ = eax
; ___y$ = edx

; 127  : { return !(__x == __y); }

	mov	ecx, DWORD PTR [eax]
	xor	eax, eax
	cmp	ecx, DWORD PTR [edx]
	setne	al
	ret	0
??$?9PAVCMotion@@@stlp_std@@YA_NABV?$reverse_iterator@PAVCMotion@@@0@0@Z ENDP ; stlp_std::operator!=<CMotion *>
; Function compile flags: /Ogtpy
_TEXT	ENDS
;	COMDAT ??$?8PAVCMotionDef@@@stlp_std@@YA_NABV?$reverse_iterator@PAVCMotionDef@@@0@0@Z
_TEXT	SEGMENT
??$?8PAVCMotionDef@@@stlp_std@@YA_NABV?$reverse_iterator@PAVCMotionDef@@@0@0@Z PROC ; stlp_std::operator==<CMotionDef *>, COMDAT
; ___x$ = eax
; ___y$ = edx

; 116  : { return __x.base() == __y.base(); }

	mov	ecx, DWORD PTR [eax]
	xor	eax, eax
	cmp	ecx, DWORD PTR [edx]
	sete	al
	ret	0
??$?8PAVCMotionDef@@@stlp_std@@YA_NABV?$reverse_iterator@PAVCMotionDef@@@0@0@Z ENDP ; stlp_std::operator==<CMotionDef *>
; Function compile flags: /Ogtpy
_TEXT	ENDS
;	COMDAT ??$?8PAVmotion_marks@@@stlp_std@@YA_NABV?$reverse_iterator@PAVmotion_marks@@@0@0@Z
_TEXT	SEGMENT
??$?8PAVmotion_marks@@@stlp_std@@YA_NABV?$reverse_iterator@PAVmotion_marks@@@0@0@Z PROC ; stlp_std::operator==<motion_marks *>, COMDAT
; ___x$ = eax
; ___y$ = edx

; 116  : { return __x.base() == __y.base(); }

	mov	ecx, DWORD PTR [eax]
	xor	eax, eax
	cmp	ecx, DWORD PTR [edx]
	sete	al
	ret	0
??$?8PAVmotion_marks@@@stlp_std@@YA_NABV?$reverse_iterator@PAVmotion_marks@@@0@0@Z ENDP ; stlp_std::operator==<motion_marks *>
; Function compile flags: /Ogtpy
; File d:\clearsky\sources\sdk\include\stlport\stl\type_traits.h
_TEXT	ENDS
;	COMDAT ??$_UseTrivialUCopy@II@stlp_std@@YA?AU?$_TrivialUCopy@II@0@PAI0@Z
_TEXT	SEGMENT
??$_UseTrivialUCopy@II@stlp_std@@YA?AU?$_TrivialUCopy@II@0@PAI0@Z PROC ; stlp_std::_UseTrivialUCopy<unsigned int,unsigned int>, COMDAT

; 489  : { return _TrivialUCopy<_Src, _Dst>(); }

	xor	al, al
	ret	0
??$_UseTrivialUCopy@II@stlp_std@@YA?AU?$_TrivialUCopy@II@0@PAI0@Z ENDP ; stlp_std::_UseTrivialUCopy<unsigned int,unsigned int>
; Function compile flags: /Ogtpy
_TEXT	ENDS
;	COMDAT ??$_UseTrivialUCopy@VCMotionDef@@V1@@stlp_std@@YA?AU?$_TrivialUCopy@VCMotionDef@@V1@@0@PAVCMotionDef@@0@Z
_TEXT	SEGMENT
??$_UseTrivialUCopy@VCMotionDef@@V1@@stlp_std@@YA?AU?$_TrivialUCopy@VCMotionDef@@V1@@0@PAVCMotionDef@@0@Z PROC ; stlp_std::_UseTrivialUCopy<CMotionDef,CMotionDef>, COMDAT

; 489  : { return _TrivialUCopy<_Src, _Dst>(); }

	xor	al, al
	ret	0
??$_UseTrivialUCopy@VCMotionDef@@V1@@stlp_std@@YA?AU?$_TrivialUCopy@VCMotionDef@@V1@@0@PAVCMotionDef@@0@Z ENDP ; stlp_std::_UseTrivialUCopy<CMotionDef,CMotionDef>
; Function compile flags: /Ogtpy
_TEXT	ENDS
;	COMDAT ??$_UseTrivialUCopy@Vmotion_marks@@V1@@stlp_std@@YA?AU?$_TrivialUCopy@Vmotion_marks@@V1@@0@PAVmotion_marks@@0@Z
_TEXT	SEGMENT
??$_UseTrivialUCopy@Vmotion_marks@@V1@@stlp_std@@YA?AU?$_TrivialUCopy@Vmotion_marks@@V1@@0@PAVmotion_marks@@0@Z PROC ; stlp_std::_UseTrivialUCopy<motion_marks,motion_marks>, COMDAT

; 489  : { return _TrivialUCopy<_Src, _Dst>(); }

	xor	al, al
	ret	0
??$_UseTrivialUCopy@Vmotion_marks@@V1@@stlp_std@@YA?AU?$_TrivialUCopy@Vmotion_marks@@V1@@0@PAVmotion_marks@@0@Z ENDP ; stlp_std::_UseTrivialUCopy<motion_marks,motion_marks>
; Function compile flags: /Ogtpy
_TEXT	ENDS
;	COMDAT ??$_UseTrivialUCopy@U?$pair@MM@stlp_std@@U12@@stlp_std@@YA?AU?$_TrivialUCopy@U?$pair@MM@stlp_std@@U12@@0@PAU?$pair@MM@0@0@Z
_TEXT	SEGMENT
??$_UseTrivialUCopy@U?$pair@MM@stlp_std@@U12@@stlp_std@@YA?AU?$_TrivialUCopy@U?$pair@MM@stlp_std@@U12@@0@PAU?$pair@MM@0@0@Z PROC ; stlp_std::_UseTrivialUCopy<stlp_std::pair<float,float>,stlp_std::pair<float,float> >, COMDAT

; 489  : { return _TrivialUCopy<_Src, _Dst>(); }

	xor	al, al
	ret	0
??$_UseTrivialUCopy@U?$pair@MM@stlp_std@@U12@@stlp_std@@YA?AU?$_TrivialUCopy@U?$pair@MM@stlp_std@@U12@@0@PAU?$pair@MM@0@0@Z ENDP ; stlp_std::_UseTrivialUCopy<stlp_std::pair<float,float>,stlp_std::pair<float,float> >
; Function compile flags: /Ogtpy
_TEXT	ENDS
;	COMDAT ?_Answer@?$_TrivialUCopy@II@stlp_std@@SA?AU__true_type@2@XZ
_TEXT	SEGMENT
?_Answer@?$_TrivialUCopy@II@stlp_std@@SA?AU__true_type@2@XZ PROC ; stlp_std::_TrivialUCopy<unsigned int,unsigned int>::_Answer, COMDAT

; 407  :   static _Ret _Answer() { return _Ret(); }

	xor	al, al
	ret	0
?_Answer@?$_TrivialUCopy@II@stlp_std@@SA?AU__true_type@2@XZ ENDP ; stlp_std::_TrivialUCopy<unsigned int,unsigned int>::_Answer
; Function compile flags: /Ogtpy
_TEXT	ENDS
;	COMDAT ?_Answer@?$_TrivialUCopy@VCMotionDef@@V1@@stlp_std@@SA?AU__false_type@2@XZ
_TEXT	SEGMENT
?_Answer@?$_TrivialUCopy@VCMotionDef@@V1@@stlp_std@@SA?AU__false_type@2@XZ PROC ; stlp_std::_TrivialUCopy<CMotionDef,CMotionDef>::_Answer, COMDAT

; 407  :   static _Ret _Answer() { return _Ret(); }

	xor	al, al
	ret	0
?_Answer@?$_TrivialUCopy@VCMotionDef@@V1@@stlp_std@@SA?AU__false_type@2@XZ ENDP ; stlp_std::_TrivialUCopy<CMotionDef,CMotionDef>::_Answer
; Function compile flags: /Ogtpy
_TEXT	ENDS
;	COMDAT ?_Answer@?$_TrivialUCopy@Vmotion_marks@@V1@@stlp_std@@SA?AU__false_type@2@XZ
_TEXT	SEGMENT
?_Answer@?$_TrivialUCopy@Vmotion_marks@@V1@@stlp_std@@SA?AU__false_type@2@XZ PROC ; stlp_std::_TrivialUCopy<motion_marks,motion_marks>::_Answer, COMDAT

; 407  :   static _Ret _Answer() { return _Ret(); }

	xor	al, al
	ret	0
?_Answer@?$_TrivialUCopy@Vmotion_marks@@V1@@stlp_std@@SA?AU__false_type@2@XZ ENDP ; stlp_std::_TrivialUCopy<motion_marks,motion_marks>::_Answer
; Function compile flags: /Ogtpy
_TEXT	ENDS
;	COMDAT ?_Answer@?$_TrivialUCopy@U?$pair@MM@stlp_std@@U12@@stlp_std@@SA?AU__true_type@2@XZ
_TEXT	SEGMENT
?_Answer@?$_TrivialUCopy@U?$pair@MM@stlp_std@@U12@@stlp_std@@SA?AU__true_type@2@XZ PROC ; stlp_std::_TrivialUCopy<stlp_std::pair<float,float>,stlp_std::pair<float,float> >::_Answer, COMDAT

; 407  :   static _Ret _Answer() { return _Ret(); }

	xor	al, al
	ret	0
?_Answer@?$_TrivialUCopy@U?$pair@MM@stlp_std@@U12@@stlp_std@@SA?AU__true_type@2@XZ ENDP ; stlp_std::_TrivialUCopy<stlp_std::pair<float,float>,stlp_std::pair<float,float> >::_Answer
; Function compile flags: /Ogtpy
; File d:\clearsky\sources\sdk\include\stlport\stl\_iterator.h
_TEXT	ENDS
;	COMDAT ??E?$reverse_iterator@PAVCMotion@@@stlp_std@@QAEAAV01@XZ
_TEXT	SEGMENT
??E?$reverse_iterator@PAVCMotion@@@stlp_std@@QAEAAV01@XZ PROC ; stlp_std::reverse_iterator<CMotion *>::operator++, COMDAT
; _this$ = eax

; 82   :     --current;

	add	DWORD PTR [eax], -40			; ffffffd8H

; 83   :     return *this;
; 84   :   }

	ret	0
??E?$reverse_iterator@PAVCMotion@@@stlp_std@@QAEAAV01@XZ ENDP ; stlp_std::reverse_iterator<CMotion *>::operator++
; Function compile flags: /Ogtpy
_TEXT	ENDS
;	COMDAT ??D?$reverse_iterator@PAVCMotion@@@stlp_std@@QBEAAVCMotion@@XZ
_TEXT	SEGMENT
??D?$reverse_iterator@PAVCMotion@@@stlp_std@@QBEAAVCMotion@@XZ PROC ; stlp_std::reverse_iterator<CMotion *>::operator*, COMDAT
; _this$ = eax

; 77   :     _Iterator __tmp = current;
; 78   :     return *--__tmp;

	mov	eax, DWORD PTR [eax]
	sub	eax, 40					; 00000028H

; 79   :   }

	ret	0
??D?$reverse_iterator@PAVCMotion@@@stlp_std@@QBEAAVCMotion@@XZ ENDP ; stlp_std::reverse_iterator<CMotion *>::operator*
; Function compile flags: /Ogtpy
_TEXT	ENDS
;	COMDAT ??$?9PAVCMotionDef@@@stlp_std@@YA_NABV?$reverse_iterator@PAVCMotionDef@@@0@0@Z
_TEXT	SEGMENT
??$?9PAVCMotionDef@@@stlp_std@@YA_NABV?$reverse_iterator@PAVCMotionDef@@@0@0@Z PROC ; stlp_std::operator!=<CMotionDef *>, COMDAT
; ___x$ = eax
; ___y$ = edx

; 127  : { return !(__x == __y); }

	mov	ecx, DWORD PTR [eax]
	xor	eax, eax
	cmp	ecx, DWORD PTR [edx]
	setne	al
	ret	0
??$?9PAVCMotionDef@@@stlp_std@@YA_NABV?$reverse_iterator@PAVCMotionDef@@@0@0@Z ENDP ; stlp_std::operator!=<CMotionDef *>
; Function compile flags: /Ogtpy
_TEXT	ENDS
;	COMDAT ??$?9PAVmotion_marks@@@stlp_std@@YA_NABV?$reverse_iterator@PAVmotion_marks@@@0@0@Z
_TEXT	SEGMENT
??$?9PAVmotion_marks@@@stlp_std@@YA_NABV?$reverse_iterator@PAVmotion_marks@@@0@0@Z PROC ; stlp_std::operator!=<motion_marks *>, COMDAT
; ___x$ = eax
; ___y$ = edx

; 127  : { return !(__x == __y); }

	mov	ecx, DWORD PTR [eax]
	xor	eax, eax
	cmp	ecx, DWORD PTR [edx]
	setne	al
	ret	0
??$?9PAVmotion_marks@@@stlp_std@@YA_NABV?$reverse_iterator@PAVmotion_marks@@@0@0@Z ENDP ; stlp_std::operator!=<motion_marks *>
; Function compile flags: /Ogtpy
; File d:\clearsky\sources\sdk\include\stlport\stl\type_traits.h
_TEXT	ENDS
;	COMDAT ?_Answer@?$_BothPtrType@PBIPAI@stlp_std@@SA?AU__true_type@2@XZ
_TEXT	SEGMENT
?_Answer@?$_BothPtrType@PBIPAI@stlp_std@@SA?AU__true_type@2@XZ PROC ; stlp_std::_BothPtrType<unsigned int const *,unsigned int *>::_Answer, COMDAT

; 468  :   static _Ret _Answer() { return _Ret(); }

	xor	al, al
	ret	0
?_Answer@?$_BothPtrType@PBIPAI@stlp_std@@SA?AU__true_type@2@XZ ENDP ; stlp_std::_BothPtrType<unsigned int const *,unsigned int *>::_Answer
; Function compile flags: /Ogtpy
_TEXT	ENDS
;	COMDAT ?_Answer@?$_BothPtrType@PBVCMotionDef@@PAV1@@stlp_std@@SA?AU__true_type@2@XZ
_TEXT	SEGMENT
?_Answer@?$_BothPtrType@PBVCMotionDef@@PAV1@@stlp_std@@SA?AU__true_type@2@XZ PROC ; stlp_std::_BothPtrType<CMotionDef const *,CMotionDef *>::_Answer, COMDAT

; 468  :   static _Ret _Answer() { return _Ret(); }

	xor	al, al
	ret	0
?_Answer@?$_BothPtrType@PBVCMotionDef@@PAV1@@stlp_std@@SA?AU__true_type@2@XZ ENDP ; stlp_std::_BothPtrType<CMotionDef const *,CMotionDef *>::_Answer
; Function compile flags: /Ogtpy
_TEXT	ENDS
;	COMDAT ?_Answer@?$_BothPtrType@PBVmotion_marks@@PAV1@@stlp_std@@SA?AU__true_type@2@XZ
_TEXT	SEGMENT
?_Answer@?$_BothPtrType@PBVmotion_marks@@PAV1@@stlp_std@@SA?AU__true_type@2@XZ PROC ; stlp_std::_BothPtrType<motion_marks const *,motion_marks *>::_Answer, COMDAT

; 468  :   static _Ret _Answer() { return _Ret(); }

	xor	al, al
	ret	0
?_Answer@?$_BothPtrType@PBVmotion_marks@@PAV1@@stlp_std@@SA?AU__true_type@2@XZ ENDP ; stlp_std::_BothPtrType<motion_marks const *,motion_marks *>::_Answer
; Function compile flags: /Ogtpy
_TEXT	ENDS
;	COMDAT ?_Answer@?$_BothPtrType@PBU?$pair@MM@stlp_std@@PAU12@@stlp_std@@SA?AU__true_type@2@XZ
_TEXT	SEGMENT
?_Answer@?$_BothPtrType@PBU?$pair@MM@stlp_std@@PAU12@@stlp_std@@SA?AU__true_type@2@XZ PROC ; stlp_std::_BothPtrType<stlp_std::pair<float,float> const *,stlp_std::pair<float,float> *>::_Answer, COMDAT

; 468  :   static _Ret _Answer() { return _Ret(); }

	xor	al, al
	ret	0
?_Answer@?$_BothPtrType@PBU?$pair@MM@stlp_std@@PAU12@@stlp_std@@SA?AU__true_type@2@XZ ENDP ; stlp_std::_BothPtrType<stlp_std::pair<float,float> const *,stlp_std::pair<float,float> *>::_Answer
; Function compile flags: /Ogtpy
; File d:\clearsky\sources\sdk\include\stlport\stl\_iterator.h
_TEXT	ENDS
;	COMDAT ??E?$reverse_iterator@PAVCMotionDef@@@stlp_std@@QAEAAV01@XZ
_TEXT	SEGMENT
??E?$reverse_iterator@PAVCMotionDef@@@stlp_std@@QAEAAV01@XZ PROC ; stlp_std::reverse_iterator<CMotionDef *>::operator++, COMDAT
; _this$ = eax

; 82   :     --current;

	add	DWORD PTR [eax], -28			; ffffffe4H

; 83   :     return *this;
; 84   :   }

	ret	0
??E?$reverse_iterator@PAVCMotionDef@@@stlp_std@@QAEAAV01@XZ ENDP ; stlp_std::reverse_iterator<CMotionDef *>::operator++
; Function compile flags: /Ogtpy
_TEXT	ENDS
;	COMDAT ??D?$reverse_iterator@PAVCMotionDef@@@stlp_std@@QBEAAVCMotionDef@@XZ
_TEXT	SEGMENT
??D?$reverse_iterator@PAVCMotionDef@@@stlp_std@@QBEAAVCMotionDef@@XZ PROC ; stlp_std::reverse_iterator<CMotionDef *>::operator*, COMDAT
; _this$ = eax

; 77   :     _Iterator __tmp = current;
; 78   :     return *--__tmp;

	mov	eax, DWORD PTR [eax]
	sub	eax, 28					; 0000001cH

; 79   :   }

	ret	0
??D?$reverse_iterator@PAVCMotionDef@@@stlp_std@@QBEAAVCMotionDef@@XZ ENDP ; stlp_std::reverse_iterator<CMotionDef *>::operator*
; Function compile flags: /Ogtpy
_TEXT	ENDS
;	COMDAT ??E?$reverse_iterator@PAVmotion_marks@@@stlp_std@@QAEAAV01@XZ
_TEXT	SEGMENT
??E?$reverse_iterator@PAVmotion_marks@@@stlp_std@@QAEAAV01@XZ PROC ; stlp_std::reverse_iterator<motion_marks *>::operator++, COMDAT
; _this$ = eax

; 82   :     --current;

	add	DWORD PTR [eax], -16			; fffffff0H

; 83   :     return *this;
; 84   :   }

	ret	0
??E?$reverse_iterator@PAVmotion_marks@@@stlp_std@@QAEAAV01@XZ ENDP ; stlp_std::reverse_iterator<motion_marks *>::operator++
; Function compile flags: /Ogtpy
_TEXT	ENDS
;	COMDAT ??D?$reverse_iterator@PAVmotion_marks@@@stlp_std@@QBEAAVmotion_marks@@XZ
_TEXT	SEGMENT
??D?$reverse_iterator@PAVmotion_marks@@@stlp_std@@QBEAAVmotion_marks@@XZ PROC ; stlp_std::reverse_iterator<motion_marks *>::operator*, COMDAT
; _this$ = eax

; 77   :     _Iterator __tmp = current;
; 78   :     return *--__tmp;

	mov	eax, DWORD PTR [eax]
	sub	eax, 16					; 00000010H

; 79   :   }

	ret	0
??D?$reverse_iterator@PAVmotion_marks@@@stlp_std@@QBEAAVmotion_marks@@XZ ENDP ; stlp_std::reverse_iterator<motion_marks *>::operator*
; Function compile flags: /Ogtpy
; File d:\clearsky\sources\sdk\include\stlport\stl\_construct.h
_TEXT	ENDS
;	COMDAT ??$__destroy_range_aux@PAU?$pair@MM@stlp_std@@U12@@stlp_std@@YAXPAU?$pair@MM@0@00ABU__true_type@0@@Z
_TEXT	SEGMENT
??$__destroy_range_aux@PAU?$pair@MM@stlp_std@@U12@@stlp_std@@YAXPAU?$pair@MM@0@00ABU__true_type@0@@Z PROC ; stlp_std::__destroy_range_aux<stlp_std::pair<float,float> *,stlp_std::pair<float,float> >, COMDAT

; 169  : __destroy_range_aux(_ForwardIterator, _ForwardIterator, _Tp*, const __true_type& /*_Trivial_destructor*/) {}

	ret	0
??$__destroy_range_aux@PAU?$pair@MM@stlp_std@@U12@@stlp_std@@YAXPAU?$pair@MM@0@00ABU__true_type@0@@Z ENDP ; stlp_std::__destroy_range_aux<stlp_std::pair<float,float> *,stlp_std::pair<float,float> >
; Function compile flags: /Ogtpy
_TEXT	ENDS
;	COMDAT ??$__destroy_range_aux@PAII@stlp_std@@YAXPAI00ABU__true_type@0@@Z
_TEXT	SEGMENT
??$__destroy_range_aux@PAII@stlp_std@@YAXPAI00ABU__true_type@0@@Z PROC ; stlp_std::__destroy_range_aux<unsigned int *,unsigned int>, COMDAT

; 169  : __destroy_range_aux(_ForwardIterator, _ForwardIterator, _Tp*, const __true_type& /*_Trivial_destructor*/) {}

	ret	0
??$__destroy_range_aux@PAII@stlp_std@@YAXPAI00ABU__true_type@0@@Z ENDP ; stlp_std::__destroy_range_aux<unsigned int *,unsigned int>
; Function compile flags: /Ogtpy
_TEXT	ENDS
;	COMDAT ??$__destroy_range_aux@V?$reverse_iterator@PAU?$pair@MM@stlp_std@@@stlp_std@@U?$pair@MM@2@@stlp_std@@YAXV?$reverse_iterator@PAU?$pair@MM@stlp_std@@@0@0PAU?$pair@MM@0@ABU__true_type@0@@Z
_TEXT	SEGMENT
___formal$ = 8						; size = 4
___formal$ = 12						; size = 4
??$__destroy_range_aux@V?$reverse_iterator@PAU?$pair@MM@stlp_std@@@stlp_std@@U?$pair@MM@2@@stlp_std@@YAXV?$reverse_iterator@PAU?$pair@MM@stlp_std@@@0@0PAU?$pair@MM@0@ABU__true_type@0@@Z PROC ; stlp_std::__destroy_range_aux<stlp_std::reverse_iterator<stlp_std::pair<float,float> *>,stlp_std::pair<float,float> >, COMDAT

; 169  : __destroy_range_aux(_ForwardIterator, _ForwardIterator, _Tp*, const __true_type& /*_Trivial_destructor*/) {}

	ret	0
??$__destroy_range_aux@V?$reverse_iterator@PAU?$pair@MM@stlp_std@@@stlp_std@@U?$pair@MM@2@@stlp_std@@YAXV?$reverse_iterator@PAU?$pair@MM@stlp_std@@@0@0PAU?$pair@MM@0@ABU__true_type@0@@Z ENDP ; stlp_std::__destroy_range_aux<stlp_std::reverse_iterator<stlp_std::pair<float,float> *>,stlp_std::pair<float,float> >
; Function compile flags: /Ogtpy
; File d:\clearsky\sources\sdk\include\stlport\stl\_algobase.h
_TEXT	ENDS
;	COMDAT ??$fill@PAII@stlp_std@@YAXPAI0ABI@Z
_TEXT	SEGMENT
??$fill@PAII@stlp_std@@YAXPAI0ABI@Z PROC		; stlp_std::fill<unsigned int *,unsigned int>, COMDAT
; ___first$ = eax
; ___last$ = ecx
; ___val$ = edx

; 393  :   _STLP_DEBUG_CHECK(_STLP_PRIV __check_range(__first, __last))
; 394  :   for ( ; __first != __last; ++__first)

	cmp	eax, ecx
	je	SHORT $LN1@fill
	push	esi
$LL3@fill:

; 395  :     *__first = __val;

	mov	esi, DWORD PTR [edx]
	mov	DWORD PTR [eax], esi
	add	eax, 4
	cmp	eax, ecx
	jne	SHORT $LL3@fill
	pop	esi
$LN1@fill:

; 396  : }

	ret	0
??$fill@PAII@stlp_std@@YAXPAI0ABI@Z ENDP		; stlp_std::fill<unsigned int *,unsigned int>
; Function compile flags: /Ogtpy
_TEXT	ENDS
;	COMDAT ??$fill@PAU?$pair@MM@stlp_std@@U12@@stlp_std@@YAXPAU?$pair@MM@0@0ABU10@@Z
_TEXT	SEGMENT
??$fill@PAU?$pair@MM@stlp_std@@U12@@stlp_std@@YAXPAU?$pair@MM@0@0ABU10@@Z PROC ; stlp_std::fill<stlp_std::pair<float,float> *,stlp_std::pair<float,float> >, COMDAT
; ___first$ = eax
; ___last$ = edx
; ___val$ = ecx

; 393  :   _STLP_DEBUG_CHECK(_STLP_PRIV __check_range(__first, __last))
; 394  :   for ( ; __first != __last; ++__first)

	cmp	eax, edx
	je	SHORT $LN1@fill@2
	push	esi
$LL3@fill@2:

; 395  :     *__first = __val;

	mov	esi, DWORD PTR [ecx]
	mov	DWORD PTR [eax], esi
	mov	esi, DWORD PTR [ecx+4]
	mov	DWORD PTR [eax+4], esi
	add	eax, 8
	cmp	eax, edx
	jne	SHORT $LL3@fill@2
	pop	esi
$LN1@fill@2:

; 396  : }

	ret	0
??$fill@PAU?$pair@MM@stlp_std@@U12@@stlp_std@@YAXPAU?$pair@MM@0@0ABU10@@Z ENDP ; stlp_std::fill<stlp_std::pair<float,float> *,stlp_std::pair<float,float> >
; Function compile flags: /Ogtpy
_TEXT	ENDS
;	COMDAT ??$__fill_n@PAU?$pair@MM@stlp_std@@IU12@@priv@stlp_std@@YAPAU?$pair@MM@1@PAU21@IABU21@@Z
_TEXT	SEGMENT
??$__fill_n@PAU?$pair@MM@stlp_std@@IU12@@priv@stlp_std@@YAPAU?$pair@MM@1@PAU21@IABU21@@Z PROC ; stlp_std::priv::__fill_n<stlp_std::pair<float,float> *,unsigned int,stlp_std::pair<float,float> >, COMDAT
; ___first$ = eax
; ___n$ = ecx
; ___val$ = edx

; 403  :   _STLP_FIX_LITERAL_BUG(__first)
; 404  :   for ( ; __n > 0; --__n, ++__first)

	test	ecx, ecx
	jbe	SHORT $LN1@fill_n
	push	esi
$LL3@fill_n:

; 405  :     *__first = __val;

	mov	esi, DWORD PTR [edx]
	mov	DWORD PTR [eax], esi
	mov	esi, DWORD PTR [edx+4]
	mov	DWORD PTR [eax+4], esi
	sub	ecx, 1
	add	eax, 8
	test	ecx, ecx
	ja	SHORT $LL3@fill_n
	pop	esi
$LN1@fill_n:

; 406  :   return __first;
; 407  : }

	ret	0
??$__fill_n@PAU?$pair@MM@stlp_std@@IU12@@priv@stlp_std@@YAPAU?$pair@MM@1@PAU21@IABU21@@Z ENDP ; stlp_std::priv::__fill_n<stlp_std::pair<float,float> *,unsigned int,stlp_std::pair<float,float> >
; Function compile flags: /Ogtpy
; File d:\clearsky\sources\sdk\include\stlport\stl\_function_base.h
_TEXT	ENDS
;	COMDAT ??R?$_Select1st@U?$pair@$$CBVshared_str@@V?$xr_vector@VCMotion@@V?$xalloc@VCMotion@@@@@@@stlp_std@@@priv@stlp_std@@QBEABVshared_str@@ABU?$pair@$$CBVshared_str@@V?$xr_vector@VCMotion@@V?$xalloc@VCMotion@@@@@@@2@@Z
_TEXT	SEGMENT
??R?$_Select1st@U?$pair@$$CBVshared_str@@V?$xr_vector@VCMotion@@V?$xalloc@VCMotion@@@@@@@stlp_std@@@priv@stlp_std@@QBEABVshared_str@@ABU?$pair@$$CBVshared_str@@V?$xr_vector@VCMotion@@V?$xalloc@VCMotion@@@@@@@2@@Z PROC ; stlp_std::priv::_Select1st<stlp_std::pair<shared_str const ,xr_vector<CMotion,xalloc<CMotion> > > >::operator(), COMDAT
; ___x$ = eax

; 133  :     return __x.first;
; 134  :   }

	ret	0
??R?$_Select1st@U?$pair@$$CBVshared_str@@V?$xr_vector@VCMotion@@V?$xalloc@VCMotion@@@@@@@stlp_std@@@priv@stlp_std@@QBEABVshared_str@@ABU?$pair@$$CBVshared_str@@V?$xr_vector@VCMotion@@V?$xalloc@VCMotion@@@@@@@2@@Z ENDP ; stlp_std::priv::_Select1st<stlp_std::pair<shared_str const ,xr_vector<CMotion,xalloc<CMotion> > > >::operator()
; Function compile flags: /Ogtpy
; File d:\clearsky\sources\sdk\include\stlport\stl\_iterator.h
_TEXT	ENDS
;	COMDAT ??0?$reverse_iterator@PAVCMotion@@@stlp_std@@QAE@ABV01@@Z
_TEXT	SEGMENT
??0?$reverse_iterator@PAVCMotion@@@stlp_std@@QAE@ABV01@@Z PROC ; stlp_std::reverse_iterator<CMotion *>::reverse_iterator<CMotion *>, COMDAT
; _this$ = eax
; ___x$ = ecx

; 66   :   reverse_iterator(const _Self& __x) : current(__x.current) {}

	mov	edx, DWORD PTR [ecx]
	mov	DWORD PTR [eax], edx
	ret	0
