; Listing generated by Microsoft (R) Optimizing Compiler Version 14.00.50727.762 

	TITLE	D:\CLEARSKY\sources\engine\xrEngine\StatGraph.cpp
	.686P
	.XMM
	include listing.inc
	.model	flat

INCLUDELIB OLDNAMES

PUBLIC	?OnRender@CStatGraph@@UAEXXZ			; CStatGraph::OnRender
PUBLIC	??_R4CStatGraph@@6B@				; CStatGraph::`RTTI Complete Object Locator'
PUBLIC	??_R3CStatGraph@@8				; CStatGraph::`RTTI Class Hierarchy Descriptor'
PUBLIC	??_R2CStatGraph@@8				; CStatGraph::`RTTI Base Class Array'
PUBLIC	??_R1A@?0A@EA@CStatGraph@@8			; CStatGraph::`RTTI Base Class Descriptor at (0,-1,0,64)'
PUBLIC	??_R0?AVCStatGraph@@@8				; CStatGraph `RTTI Type Descriptor'
PUBLIC	?set@?$_vector2@M@@QAEAAU1@HH@Z			; _vector2<float>::set
PUBLIC	??0?$FactoryPtr@VIStatGraphRender@@@@QAE@XZ	; FactoryPtr<IStatGraphRender>::FactoryPtr<IStatGraphRender>
PUBLIC	??0?$xalloc@USSubGraph@CStatGraph@@@@QAE@XZ	; xalloc<CStatGraph::SSubGraph>::xalloc<CStatGraph::SSubGraph>
PUBLIC	??0?$_Vector_base@USSubGraph@CStatGraph@@V?$xalloc@USSubGraph@CStatGraph@@@@@priv@stlp_std@@QAE@ABV?$xalloc@USSubGraph@CStatGraph@@@@@Z ; stlp_std::priv::_Vector_base<CStatGraph::SSubGraph,xalloc<CStatGraph::SSubGraph> >::_Vector_base<CStatGraph::SSubGraph,xalloc<CStatGraph::SSubGraph> >
PUBLIC	??0?$_Impl_vector@USSubGraph@CStatGraph@@V?$xalloc@USSubGraph@CStatGraph@@@@@priv@stlp_std@@QAE@ABV?$xalloc@USSubGraph@CStatGraph@@@@@Z ; stlp_std::priv::_Impl_vector<CStatGraph::SSubGraph,xalloc<CStatGraph::SSubGraph> >::_Impl_vector<CStatGraph::SSubGraph,xalloc<CStatGraph::SSubGraph> >
PUBLIC	??0?$vector@USSubGraph@CStatGraph@@V?$xalloc@USSubGraph@CStatGraph@@@@@stlp_std@@QAE@ABV?$xalloc@USSubGraph@CStatGraph@@@@@Z ; stlp_std::vector<CStatGraph::SSubGraph,xalloc<CStatGraph::SSubGraph> >::vector<CStatGraph::SSubGraph,xalloc<CStatGraph::SSubGraph> >
PUBLIC	??0?$xr_vector@USSubGraph@CStatGraph@@V?$xalloc@USSubGraph@CStatGraph@@@@@@QAE@XZ ; xr_vector<CStatGraph::SSubGraph,xalloc<CStatGraph::SSubGraph> >::xr_vector<CStatGraph::SSubGraph,xalloc<CStatGraph::SSubGraph> >
PUBLIC	??0?$xalloc@USMarker@CStatGraph@@@@QAE@XZ	; xalloc<CStatGraph::SMarker>::xalloc<CStatGraph::SMarker>
PUBLIC	??0?$_Impl_deque@USMarker@CStatGraph@@V?$xalloc@USMarker@CStatGraph@@@@@priv@stlp_std@@QAE@ABV?$xalloc@USMarker@CStatGraph@@@@@Z ; stlp_std::priv::_Impl_deque<CStatGraph::SMarker,xalloc<CStatGraph::SMarker> >::_Impl_deque<CStatGraph::SMarker,xalloc<CStatGraph::SMarker> >
PUBLIC	??0?$deque@USMarker@CStatGraph@@V?$xalloc@USMarker@CStatGraph@@@@@stlp_std@@QAE@ABV?$xalloc@USMarker@CStatGraph@@@@@Z ; stlp_std::deque<CStatGraph::SMarker,xalloc<CStatGraph::SMarker> >::deque<CStatGraph::SMarker,xalloc<CStatGraph::SMarker> >
PUBLIC	??0?$xr_deque@USMarker@CStatGraph@@V?$xalloc@USMarker@CStatGraph@@@@@@QAE@XZ ; xr_deque<CStatGraph::SMarker,xalloc<CStatGraph::SMarker> >::xr_deque<CStatGraph::SMarker,xalloc<CStatGraph::SMarker> >
PUBLIC	??C?$FactoryPtr@VIStatGraphRender@@@@QBEPAVIStatGraphRender@@XZ ; FactoryPtr<IStatGraphRender>::operator->
PUBLIC	?SetStyle@SSubGraph@CStatGraph@@QAEXW4EStyle@2@@Z ; CStatGraph::SSubGraph::SetStyle
PUBLIC	?end@?$vector@USSubGraph@CStatGraph@@V?$xalloc@USSubGraph@CStatGraph@@@@@stlp_std@@QAEPAUSSubGraph@CStatGraph@@XZ ; stlp_std::vector<CStatGraph::SSubGraph,xalloc<CStatGraph::SSubGraph> >::end
PUBLIC	??0SElement@CStatGraph@@QAE@MI@Z		; CStatGraph::SElement::SElement
PUBLIC	?_M_push_back_aux_v@?$_Impl_deque@USElement@CStatGraph@@V?$xalloc@USElement@CStatGraph@@@@@priv@stlp_std@@IAEXABUSElement@CStatGraph@@@Z ; stlp_std::priv::_Impl_deque<CStatGraph::SElement,xalloc<CStatGraph::SElement> >::_M_push_back_aux_v
PUBLIC	??$_Copy_Construct@USElement@CStatGraph@@@stlp_std@@YAXPAUSElement@CStatGraph@@ABU12@@Z ; stlp_std::_Copy_Construct<CStatGraph::SElement>
PUBLIC	?push_back@?$_Impl_deque@USElement@CStatGraph@@V?$xalloc@USElement@CStatGraph@@@@@priv@stlp_std@@QAEXABUSElement@CStatGraph@@@Z ; stlp_std::priv::_Impl_deque<CStatGraph::SElement,xalloc<CStatGraph::SElement> >::push_back
PUBLIC	?to_storage_type_cref@?$_CastTraits@USElement@CStatGraph@@U12@@priv@stlp_std@@SAABUSElement@CStatGraph@@ABU45@@Z ; stlp_std::priv::_CastTraits<CStatGraph::SElement,CStatGraph::SElement>::to_storage_type_cref
PUBLIC	?push_back@?$deque@USElement@CStatGraph@@V?$xalloc@USElement@CStatGraph@@@@@stlp_std@@QAEXABUSElement@CStatGraph@@@Z ; stlp_std::deque<CStatGraph::SElement,xalloc<CStatGraph::SElement> >::push_back
PUBLIC	?_M_pop_front_aux@?$_Impl_deque@USElement@CStatGraph@@V?$xalloc@USElement@CStatGraph@@@@@priv@stlp_std@@IAEXXZ ; stlp_std::priv::_Impl_deque<CStatGraph::SElement,xalloc<CStatGraph::SElement> >::_M_pop_front_aux
PUBLIC	??$__destroy_aux@USElement@CStatGraph@@@stlp_std@@YAXPAUSElement@CStatGraph@@ABU__true_type@0@@Z ; stlp_std::__destroy_aux<CStatGraph::SElement>
PUBLIC	??$_Destroy@USElement@CStatGraph@@@stlp_std@@YAXPAUSElement@CStatGraph@@@Z ; stlp_std::_Destroy<CStatGraph::SElement>
PUBLIC	?pop_front@?$_Impl_deque@USElement@CStatGraph@@V?$xalloc@USElement@CStatGraph@@@@@priv@stlp_std@@QAEXXZ ; stlp_std::priv::_Impl_deque<CStatGraph::SElement,xalloc<CStatGraph::SElement> >::pop_front
PUBLIC	?pop_front@?$deque@USElement@CStatGraph@@V?$xalloc@USElement@CStatGraph@@@@@stlp_std@@QAEXXZ ; stlp_std::deque<CStatGraph::SElement,xalloc<CStatGraph::SElement> >::pop_front
PUBLIC	?size@?$deque@USElement@CStatGraph@@V?$xalloc@USElement@CStatGraph@@@@@stlp_std@@QBEIXZ ; stlp_std::deque<CStatGraph::SElement,xalloc<CStatGraph::SElement> >::size
PUBLIC	?size@?$xr_deque@USElement@CStatGraph@@V?$xalloc@USElement@CStatGraph@@@@@@QBEIXZ ; xr_deque<CStatGraph::SElement,xalloc<CStatGraph::SElement> >::size
PUBLIC	?to_value_type_ptr@?$_CastTraits@USSubGraph@CStatGraph@@U12@@priv@stlp_std@@SAPAUSSubGraph@CStatGraph@@PAU45@@Z ; stlp_std::priv::_CastTraits<CStatGraph::SSubGraph,CStatGraph::SSubGraph>::to_value_type_ptr
PUBLIC	?begin@?$vector@USSubGraph@CStatGraph@@V?$xalloc@USSubGraph@CStatGraph@@@@@stlp_std@@QAEPAUSSubGraph@CStatGraph@@XZ ; stlp_std::vector<CStatGraph::SSubGraph,xalloc<CStatGraph::SSubGraph> >::begin
PUBLIC	??0?$xalloc@USElement@CStatGraph@@@@QAE@XZ	; xalloc<CStatGraph::SElement>::xalloc<CStatGraph::SElement>
PUBLIC	??0?$_Impl_deque@USElement@CStatGraph@@V?$xalloc@USElement@CStatGraph@@@@@priv@stlp_std@@QAE@ABV?$xalloc@USElement@CStatGraph@@@@@Z ; stlp_std::priv::_Impl_deque<CStatGraph::SElement,xalloc<CStatGraph::SElement> >::_Impl_deque<CStatGraph::SElement,xalloc<CStatGraph::SElement> >
PUBLIC	??0?$deque@USElement@CStatGraph@@V?$xalloc@USElement@CStatGraph@@@@@stlp_std@@QAE@ABV?$xalloc@USElement@CStatGraph@@@@@Z ; stlp_std::deque<CStatGraph::SElement,xalloc<CStatGraph::SElement> >::deque<CStatGraph::SElement,xalloc<CStatGraph::SElement> >
PUBLIC	??0?$xr_deque@USElement@CStatGraph@@V?$xalloc@USElement@CStatGraph@@@@@@QAE@XZ ; xr_deque<CStatGraph::SElement,xalloc<CStatGraph::SElement> >::xr_deque<CStatGraph::SElement,xalloc<CStatGraph::SElement> >
PUBLIC	??0SSubGraph@CStatGraph@@QAE@W4EStyle@1@@Z	; CStatGraph::SSubGraph::SSubGraph
PUBLIC	??$__destroy_mv_srcs@V?$reverse_iterator@PAUSSubGraph@CStatGraph@@@stlp_std@@USSubGraph@CStatGraph@@@stlp_std@@YAXV?$reverse_iterator@PAUSSubGraph@CStatGraph@@@0@0PAUSSubGraph@CStatGraph@@@Z ; stlp_std::__destroy_mv_srcs<stlp_std::reverse_iterator<CStatGraph::SSubGraph *>,CStatGraph::SSubGraph>
PUBLIC	??$_Destroy_Moved_Range@V?$reverse_iterator@PAUSSubGraph@CStatGraph@@@stlp_std@@@stlp_std@@YAXV?$reverse_iterator@PAUSSubGraph@CStatGraph@@@0@0@Z ; stlp_std::_Destroy_Moved_Range<stlp_std::reverse_iterator<CStatGraph::SSubGraph *> >
PUBLIC	?_M_clear_after_move@?$_Impl_vector@USSubGraph@CStatGraph@@V?$xalloc@USSubGraph@CStatGraph@@@@@priv@stlp_std@@AAEXXZ ; stlp_std::priv::_Impl_vector<CStatGraph::SSubGraph,xalloc<CStatGraph::SSubGraph> >::_M_clear_after_move
PUBLIC	?_M_set@?$_Impl_vector@USSubGraph@CStatGraph@@V?$xalloc@USSubGraph@CStatGraph@@@@@priv@stlp_std@@AAEXPAUSSubGraph@CStatGraph@@00@Z ; stlp_std::priv::_Impl_vector<CStatGraph::SSubGraph,xalloc<CStatGraph::SSubGraph> >::_M_set
PUBLIC	??$__ucopy@PAUSSubGraph@CStatGraph@@PAU12@H@priv@stlp_std@@YAPAUSSubGraph@CStatGraph@@PAU23@00ABUrandom_access_iterator_tag@1@PAH@Z ; stlp_std::priv::__ucopy<CStatGraph::SSubGraph *,CStatGraph::SSubGraph *,int>
PUBLIC	??$__ucopy_ptrs@PAUSSubGraph@CStatGraph@@PAU12@@priv@stlp_std@@YAPAUSSubGraph@CStatGraph@@PAU23@00ABU__false_type@1@@Z ; stlp_std::priv::__ucopy_ptrs<CStatGraph::SSubGraph *,CStatGraph::SSubGraph *>
PUBLIC	??$__uninitialized_move@PAUSSubGraph@CStatGraph@@PAU12@U__false_type@stlp_std@@@priv@stlp_std@@YAPAUSSubGraph@CStatGraph@@PAU23@00U__false_type@1@ABU41@@Z ; stlp_std::priv::__uninitialized_move<CStatGraph::SSubGraph *,CStatGraph::SSubGraph *,stlp_std::__false_type>
PUBLIC	??$__ufill@PAUSSubGraph@CStatGraph@@U12@H@priv@stlp_std@@YAXPAUSSubGraph@CStatGraph@@0ABU23@ABUrandom_access_iterator_tag@1@PAH@Z ; stlp_std::priv::__ufill<CStatGraph::SSubGraph *,CStatGraph::SSubGraph,int>
PUBLIC	??$__uninitialized_fill_n@PAUSSubGraph@CStatGraph@@IU12@@priv@stlp_std@@YAPAUSSubGraph@CStatGraph@@PAU23@IABU23@@Z ; stlp_std::priv::__uninitialized_fill_n<CStatGraph::SSubGraph *,unsigned int,CStatGraph::SSubGraph>
PUBLIC	?_M_insert_overflow_aux@?$_Impl_vector@USSubGraph@CStatGraph@@V?$xalloc@USSubGraph@CStatGraph@@@@@priv@stlp_std@@AAEXPAUSSubGraph@CStatGraph@@ABU45@ABU__false_type@3@I_N@Z ; stlp_std::priv::_Impl_vector<CStatGraph::SSubGraph,xalloc<CStatGraph::SSubGraph> >::_M_insert_overflow_aux
PUBLIC	?_M_insert_overflow@?$_Impl_vector@USSubGraph@CStatGraph@@V?$xalloc@USSubGraph@CStatGraph@@@@@priv@stlp_std@@AAEXPAUSSubGraph@CStatGraph@@ABU45@ABU__false_type@3@I_N@Z ; stlp_std::priv::_Impl_vector<CStatGraph::SSubGraph,xalloc<CStatGraph::SSubGraph> >::_M_insert_overflow
PUBLIC	??$_Copy_Construct@USSubGraph@CStatGraph@@@stlp_std@@YAXPAUSSubGraph@CStatGraph@@ABU12@@Z ; stlp_std::_Copy_Construct<CStatGraph::SSubGraph>
PUBLIC	?push_back@?$_Impl_vector@USSubGraph@CStatGraph@@V?$xalloc@USSubGraph@CStatGraph@@@@@priv@stlp_std@@QAEXABUSSubGraph@CStatGraph@@@Z ; stlp_std::priv::_Impl_vector<CStatGraph::SSubGraph,xalloc<CStatGraph::SSubGraph> >::push_back
PUBLIC	?to_storage_type_cref@?$_CastTraits@USSubGraph@CStatGraph@@U12@@priv@stlp_std@@SAABUSSubGraph@CStatGraph@@ABU45@@Z ; stlp_std::priv::_CastTraits<CStatGraph::SSubGraph,CStatGraph::SSubGraph>::to_storage_type_cref
PUBLIC	?push_back@?$vector@USSubGraph@CStatGraph@@V?$xalloc@USSubGraph@CStatGraph@@@@@stlp_std@@QAEXABUSSubGraph@CStatGraph@@@Z ; stlp_std::vector<CStatGraph::SSubGraph,xalloc<CStatGraph::SSubGraph> >::push_back
PUBLIC	?size@?$vector@USSubGraph@CStatGraph@@V?$xalloc@USSubGraph@CStatGraph@@@@@stlp_std@@QBEIXZ ; stlp_std::vector<CStatGraph::SSubGraph,xalloc<CStatGraph::SSubGraph> >::size
PUBLIC	?size@?$xr_vector@USSubGraph@CStatGraph@@V?$xalloc@USSubGraph@CStatGraph@@@@@@QBEIXZ ; xr_vector<CStatGraph::SSubGraph,xalloc<CStatGraph::SSubGraph> >::size
PUBLIC	?_M_push_back_aux_v@?$_Impl_deque@USMarker@CStatGraph@@V?$xalloc@USMarker@CStatGraph@@@@@priv@stlp_std@@IAEXABUSMarker@CStatGraph@@@Z ; stlp_std::priv::_Impl_deque<CStatGraph::SMarker,xalloc<CStatGraph::SMarker> >::_M_push_back_aux_v
PUBLIC	??$_Copy_Construct@USMarker@CStatGraph@@@stlp_std@@YAXPAUSMarker@CStatGraph@@ABU12@@Z ; stlp_std::_Copy_Construct<CStatGraph::SMarker>
PUBLIC	?push_back@?$_Impl_deque@USMarker@CStatGraph@@V?$xalloc@USMarker@CStatGraph@@@@@priv@stlp_std@@QAEXABUSMarker@CStatGraph@@@Z ; stlp_std::priv::_Impl_deque<CStatGraph::SMarker,xalloc<CStatGraph::SMarker> >::push_back
PUBLIC	?to_storage_type_cref@?$_CastTraits@USMarker@CStatGraph@@U12@@priv@stlp_std@@SAABUSMarker@CStatGraph@@ABU45@@Z ; stlp_std::priv::_CastTraits<CStatGraph::SMarker,CStatGraph::SMarker>::to_storage_type_cref
PUBLIC	?push_back@?$deque@USMarker@CStatGraph@@V?$xalloc@USMarker@CStatGraph@@@@@stlp_std@@QAEXABUSMarker@CStatGraph@@@Z ; stlp_std::deque<CStatGraph::SMarker,xalloc<CStatGraph::SMarker> >::push_back
PUBLIC	??A?$_Deque_iterator@USMarker@CStatGraph@@U?$_Nonconst_traits@USMarker@CStatGraph@@@stlp_std@@@priv@stlp_std@@QBEAAUSMarker@CStatGraph@@H@Z ; stlp_std::priv::_Deque_iterator<CStatGraph::SMarker,stlp_std::_Nonconst_traits<CStatGraph::SMarker> >::operator[]
PUBLIC	??A?$_Impl_deque@USMarker@CStatGraph@@V?$xalloc@USMarker@CStatGraph@@@@@priv@stlp_std@@QAEAAUSMarker@CStatGraph@@I@Z ; stlp_std::priv::_Impl_deque<CStatGraph::SMarker,xalloc<CStatGraph::SMarker> >::operator[]
PUBLIC	?to_value_type_ref@?$_CastTraits@USMarker@CStatGraph@@U12@@priv@stlp_std@@SAAAUSMarker@CStatGraph@@AAU45@@Z ; stlp_std::priv::_CastTraits<CStatGraph::SMarker,CStatGraph::SMarker>::to_value_type_ref
PUBLIC	??A?$deque@USMarker@CStatGraph@@V?$xalloc@USMarker@CStatGraph@@@@@stlp_std@@QAEAAUSMarker@CStatGraph@@I@Z ; stlp_std::deque<CStatGraph::SMarker,xalloc<CStatGraph::SMarker> >::operator[]
PUBLIC	?clear@?$deque@USMarker@CStatGraph@@V?$xalloc@USMarker@CStatGraph@@@@@stlp_std@@QAEXXZ ; stlp_std::deque<CStatGraph::SMarker,xalloc<CStatGraph::SMarker> >::clear
PUBLIC	?begin@?$_Impl_deque@USMarker@CStatGraph@@V?$xalloc@USMarker@CStatGraph@@@@@priv@stlp_std@@QAE?AU?$_Deque_iterator@USMarker@CStatGraph@@U?$_Nonconst_traits@USMarker@CStatGraph@@@stlp_std@@@23@XZ ; stlp_std::priv::_Impl_deque<CStatGraph::SMarker,xalloc<CStatGraph::SMarker> >::begin
PUBLIC	?begin@?$deque@USMarker@CStatGraph@@V?$xalloc@USMarker@CStatGraph@@@@@stlp_std@@QAE?AU?$_Deque_iterator@USMarker@CStatGraph@@U?$_Nonconst_traits@USMarker@CStatGraph@@@stlp_std@@@priv@2@XZ ; stlp_std::deque<CStatGraph::SMarker,xalloc<CStatGraph::SMarker> >::begin
PUBLIC	?_M_pop_back_aux@?$_Impl_deque@USMarker@CStatGraph@@V?$xalloc@USMarker@CStatGraph@@@@@priv@stlp_std@@IAEXXZ ; stlp_std::priv::_Impl_deque<CStatGraph::SMarker,xalloc<CStatGraph::SMarker> >::_M_pop_back_aux
PUBLIC	?pop_back@?$_Impl_deque@USMarker@CStatGraph@@V?$xalloc@USMarker@CStatGraph@@@@@priv@stlp_std@@QAEXXZ ; stlp_std::priv::_Impl_deque<CStatGraph::SMarker,xalloc<CStatGraph::SMarker> >::pop_back
PUBLIC	?_M_pop_front_aux@?$_Impl_deque@USMarker@CStatGraph@@V?$xalloc@USMarker@CStatGraph@@@@@priv@stlp_std@@IAEXXZ ; stlp_std::priv::_Impl_deque<CStatGraph::SMarker,xalloc<CStatGraph::SMarker> >::_M_pop_front_aux
PUBLIC	??$__destroy_aux@USMarker@CStatGraph@@@stlp_std@@YAXPAUSMarker@CStatGraph@@ABU__true_type@0@@Z ; stlp_std::__destroy_aux<CStatGraph::SMarker>
PUBLIC	??$_Destroy@USMarker@CStatGraph@@@stlp_std@@YAXPAUSMarker@CStatGraph@@@Z ; stlp_std::_Destroy<CStatGraph::SMarker>
PUBLIC	?pop_front@?$_Impl_deque@USMarker@CStatGraph@@V?$xalloc@USMarker@CStatGraph@@@@@priv@stlp_std@@QAEXXZ ; stlp_std::priv::_Impl_deque<CStatGraph::SMarker,xalloc<CStatGraph::SMarker> >::pop_front
PUBLIC	?_M_erase@?$_Impl_deque@USMarker@CStatGraph@@V?$xalloc@USMarker@CStatGraph@@@@@priv@stlp_std@@IAE?AU?$_Deque_iterator@USMarker@CStatGraph@@U?$_Nonconst_traits@USMarker@CStatGraph@@@stlp_std@@@23@U423@ABU__false_type@3@@Z ; stlp_std::priv::_Impl_deque<CStatGraph::SMarker,xalloc<CStatGraph::SMarker> >::_M_erase
PUBLIC	?erase@?$_Impl_deque@USMarker@CStatGraph@@V?$xalloc@USMarker@CStatGraph@@@@@priv@stlp_std@@QAE?AU?$_Deque_iterator@USMarker@CStatGraph@@U?$_Nonconst_traits@USMarker@CStatGraph@@@stlp_std@@@23@U423@@Z ; stlp_std::priv::_Impl_deque<CStatGraph::SMarker,xalloc<CStatGraph::SMarker> >::erase
PUBLIC	?to_value_type_ptr@?$_CastTraits@USMarker@CStatGraph@@U12@@priv@stlp_std@@SAPAUSMarker@CStatGraph@@PAU45@@Z ; stlp_std::priv::_CastTraits<CStatGraph::SMarker,CStatGraph::SMarker>::to_value_type_ptr
PUBLIC	?to_value_type_pptr@?$_CastTraits@USMarker@CStatGraph@@U12@@priv@stlp_std@@SAPAPAUSMarker@CStatGraph@@PAPAU45@@Z ; stlp_std::priv::_CastTraits<CStatGraph::SMarker,CStatGraph::SMarker>::to_value_type_pptr
PUBLIC	?to_value_type_ite@?$_DequeIteCast@USMarker@CStatGraph@@U12@@priv@stlp_std@@SA?AU?$_Deque_iterator@USMarker@CStatGraph@@U?$_Nonconst_traits@USMarker@CStatGraph@@@stlp_std@@@23@ABU423@@Z ; stlp_std::priv::_DequeIteCast<CStatGraph::SMarker,CStatGraph::SMarker>::to_value_type_ite
PUBLIC	?to_storage_type_ptr@?$_CastTraits@USMarker@CStatGraph@@U12@@priv@stlp_std@@SAPAUSMarker@CStatGraph@@PAU45@@Z ; stlp_std::priv::_CastTraits<CStatGraph::SMarker,CStatGraph::SMarker>::to_storage_type_ptr
PUBLIC	?to_storage_type_pptr@?$_CastTraits@USMarker@CStatGraph@@U12@@priv@stlp_std@@SAPAPAUSMarker@CStatGraph@@PAPAU45@@Z ; stlp_std::priv::_CastTraits<CStatGraph::SMarker,CStatGraph::SMarker>::to_storage_type_pptr
PUBLIC	?to_storage_type_ite@?$_DequeIteCast@USMarker@CStatGraph@@U12@@priv@stlp_std@@SA?AU?$_Deque_iterator@USMarker@CStatGraph@@U?$_Nonconst_traits@USMarker@CStatGraph@@@stlp_std@@@23@ABU423@@Z ; stlp_std::priv::_DequeIteCast<CStatGraph::SMarker,CStatGraph::SMarker>::to_storage_type_ite
PUBLIC	?erase@?$deque@USMarker@CStatGraph@@V?$xalloc@USMarker@CStatGraph@@@@@stlp_std@@QAE?AU?$_Deque_iterator@USMarker@CStatGraph@@U?$_Nonconst_traits@USMarker@CStatGraph@@@stlp_std@@@priv@2@U342@@Z ; stlp_std::deque<CStatGraph::SMarker,xalloc<CStatGraph::SMarker> >::erase
PUBLIC	?size@?$deque@USMarker@CStatGraph@@V?$xalloc@USMarker@CStatGraph@@@@@stlp_std@@QBEIXZ ; stlp_std::deque<CStatGraph::SMarker,xalloc<CStatGraph::SMarker> >::size
PUBLIC	?size@?$xr_deque@USMarker@CStatGraph@@V?$xalloc@USMarker@CStatGraph@@@@@@QBEIXZ ; xr_deque<CStatGraph::SMarker,xalloc<CStatGraph::SMarker> >::size
PUBLIC	?DestroyObject@?$FactoryPtr@VIStatGraphRender@@@@AAEXXZ ; FactoryPtr<IStatGraphRender>::DestroyObject
PUBLIC	??1?$FactoryPtr@VIStatGraphRender@@@@QAE@XZ	; FactoryPtr<IStatGraphRender>::~FactoryPtr<IStatGraphRender>
PUBLIC	?CreateObject@?$FactoryPtr@VIStatGraphRender@@@@AAEXXZ ; FactoryPtr<IStatGraphRender>::CreateObject
PUBLIC	??0?$FactoryPtr@VIStatGraphRender@@@@QAE@ABV0@@Z ; FactoryPtr<IStatGraphRender>::FactoryPtr<IStatGraphRender>
PUBLIC	??1?$xr_vector@USSubGraph@CStatGraph@@V?$xalloc@USSubGraph@CStatGraph@@@@@@QAE@XZ ; xr_vector<CStatGraph::SSubGraph,xalloc<CStatGraph::SSubGraph> >::~xr_vector<CStatGraph::SSubGraph,xalloc<CStatGraph::SSubGraph> >
PUBLIC	??0?$_STLP_alloc_proxy@PAUSSubGraph@CStatGraph@@U12@V?$xalloc@USSubGraph@CStatGraph@@@@@priv@stlp_std@@QAE@ABV?$xalloc@USSubGraph@CStatGraph@@@@PAUSSubGraph@CStatGraph@@@Z ; stlp_std::priv::_STLP_alloc_proxy<CStatGraph::SSubGraph *,CStatGraph::SSubGraph,xalloc<CStatGraph::SSubGraph> >::_STLP_alloc_proxy<CStatGraph::SSubGraph *,CStatGraph::SSubGraph,xalloc<CStatGraph::SSubGraph> >
PUBLIC	??0?$_Vector_base@USSubGraph@CStatGraph@@V?$xalloc@USSubGraph@CStatGraph@@@@@priv@stlp_std@@QAE@IABV?$xalloc@USSubGraph@CStatGraph@@@@@Z ; stlp_std::priv::_Vector_base<CStatGraph::SSubGraph,xalloc<CStatGraph::SSubGraph> >::_Vector_base<CStatGraph::SSubGraph,xalloc<CStatGraph::SSubGraph> >
PUBLIC	??0?$xalloc@USSubGraph@CStatGraph@@@@QAE@ABV0@@Z ; xalloc<CStatGraph::SSubGraph>::xalloc<CStatGraph::SSubGraph>
PUBLIC	?get_allocator@?$_Impl_vector@USSubGraph@CStatGraph@@V?$xalloc@USSubGraph@CStatGraph@@@@@priv@stlp_std@@QBE?AV?$xalloc@USSubGraph@CStatGraph@@@@XZ ; stlp_std::priv::_Impl_vector<CStatGraph::SSubGraph,xalloc<CStatGraph::SSubGraph> >::get_allocator
PUBLIC	?begin@?$_Impl_vector@USSubGraph@CStatGraph@@V?$xalloc@USSubGraph@CStatGraph@@@@@priv@stlp_std@@QBEPBUSSubGraph@CStatGraph@@XZ ; stlp_std::priv::_Impl_vector<CStatGraph::SSubGraph,xalloc<CStatGraph::SSubGraph> >::begin
PUBLIC	?end@?$_Impl_vector@USSubGraph@CStatGraph@@V?$xalloc@USSubGraph@CStatGraph@@@@@priv@stlp_std@@QBEPBUSSubGraph@CStatGraph@@XZ ; stlp_std::priv::_Impl_vector<CStatGraph::SSubGraph,xalloc<CStatGraph::SSubGraph> >::end
PUBLIC	??0?$_Impl_vector@USSubGraph@CStatGraph@@V?$xalloc@USSubGraph@CStatGraph@@@@@priv@stlp_std@@QAE@ABV012@@Z ; stlp_std::priv::_Impl_vector<CStatGraph::SSubGraph,xalloc<CStatGraph::SSubGraph> >::_Impl_vector<CStatGraph::SSubGraph,xalloc<CStatGraph::SSubGraph> >
PUBLIC	??0?$vector@USSubGraph@CStatGraph@@V?$xalloc@USSubGraph@CStatGraph@@@@@stlp_std@@QAE@ABV01@@Z ; stlp_std::vector<CStatGraph::SSubGraph,xalloc<CStatGraph::SSubGraph> >::vector<CStatGraph::SSubGraph,xalloc<CStatGraph::SSubGraph> >
PUBLIC	??1?$_Vector_base@USSubGraph@CStatGraph@@V?$xalloc@USSubGraph@CStatGraph@@@@@priv@stlp_std@@QAE@XZ ; stlp_std::priv::_Vector_base<CStatGraph::SSubGraph,xalloc<CStatGraph::SSubGraph> >::~_Vector_base<CStatGraph::SSubGraph,xalloc<CStatGraph::SSubGraph> >
PUBLIC	??1?$_Impl_vector@USSubGraph@CStatGraph@@V?$xalloc@USSubGraph@CStatGraph@@@@@priv@stlp_std@@QAE@XZ ; stlp_std::priv::_Impl_vector<CStatGraph::SSubGraph,xalloc<CStatGraph::SSubGraph> >::~_Impl_vector<CStatGraph::SSubGraph,xalloc<CStatGraph::SSubGraph> >
PUBLIC	??1?$vector@USSubGraph@CStatGraph@@V?$xalloc@USSubGraph@CStatGraph@@@@@stlp_std@@QAE@XZ ; stlp_std::vector<CStatGraph::SSubGraph,xalloc<CStatGraph::SSubGraph> >::~vector<CStatGraph::SSubGraph,xalloc<CStatGraph::SSubGraph> >
PUBLIC	??0?$xr_vector@USSubGraph@CStatGraph@@V?$xalloc@USSubGraph@CStatGraph@@@@@@QAE@ABV0@@Z ; xr_vector<CStatGraph::SSubGraph,xalloc<CStatGraph::SSubGraph> >::xr_vector<CStatGraph::SSubGraph,xalloc<CStatGraph::SSubGraph> >
PUBLIC	??1?$xr_deque@USMarker@CStatGraph@@V?$xalloc@USMarker@CStatGraph@@@@@@QAE@XZ ; xr_deque<CStatGraph::SMarker,xalloc<CStatGraph::SMarker> >::~xr_deque<CStatGraph::SMarker,xalloc<CStatGraph::SMarker> >
PUBLIC	?_M_create_nodes@?$_Deque_base@USMarker@CStatGraph@@V?$xalloc@USMarker@CStatGraph@@@@@priv@stlp_std@@IAEXPAPAUSMarker@CStatGraph@@0@Z ; stlp_std::priv::_Deque_base<CStatGraph::SMarker,xalloc<CStatGraph::SMarker> >::_M_create_nodes
PUBLIC	?_M_initialize_map@?$_Deque_base@USMarker@CStatGraph@@V?$xalloc@USMarker@CStatGraph@@@@@priv@stlp_std@@IAEXI@Z ; stlp_std::priv::_Deque_base<CStatGraph::SMarker,xalloc<CStatGraph::SMarker> >::_M_initialize_map
PUBLIC	??0?$_Deque_iterator_base@USMarker@CStatGraph@@@priv@stlp_std@@QAE@XZ ; stlp_std::priv::_Deque_iterator_base<CStatGraph::SMarker>::_Deque_iterator_base<CStatGraph::SMarker>
PUBLIC	??0?$_Deque_iterator@USMarker@CStatGraph@@U?$_Nonconst_traits@USMarker@CStatGraph@@@stlp_std@@@priv@stlp_std@@QAE@XZ ; stlp_std::priv::_Deque_iterator<CStatGraph::SMarker,stlp_std::_Nonconst_traits<CStatGraph::SMarker> >::_Deque_iterator<CStatGraph::SMarker,stlp_std::_Nonconst_traits<CStatGraph::SMarker> >
PUBLIC	??0?$xalloc@PAUSMarker@CStatGraph@@@@QAE@ABV0@@Z ; xalloc<CStatGraph::SMarker *>::xalloc<CStatGraph::SMarker *>
PUBLIC	??0?$_STLP_alloc_proxy@PAPAUSMarker@CStatGraph@@PAU12@V?$xalloc@PAUSMarker@CStatGraph@@@@@priv@stlp_std@@QAE@ABV?$xalloc@PAUSMarker@CStatGraph@@@@PAPAUSMarker@CStatGraph@@@Z ; stlp_std::priv::_STLP_alloc_proxy<CStatGraph::SMarker * *,CStatGraph::SMarker *,xalloc<CStatGraph::SMarker *> >::_STLP_alloc_proxy<CStatGraph::SMarker * *,CStatGraph::SMarker *,xalloc<CStatGraph::SMarker *> >
PUBLIC	??0?$_STLP_alloc_proxy@IUSMarker@CStatGraph@@V?$xalloc@USMarker@CStatGraph@@@@@priv@stlp_std@@QAE@ABV?$xalloc@USMarker@CStatGraph@@@@I@Z ; stlp_std::priv::_STLP_alloc_proxy<unsigned int,CStatGraph::SMarker,xalloc<CStatGraph::SMarker> >::_STLP_alloc_proxy<unsigned int,CStatGraph::SMarker,xalloc<CStatGraph::SMarker> >
PUBLIC	??$?0USMarker@CStatGraph@@@?$xalloc@PAUSMarker@CStatGraph@@@@QAE@ABV?$xalloc@USMarker@CStatGraph@@@@@Z ; xalloc<CStatGraph::SMarker *>::xalloc<CStatGraph::SMarker *><CStatGraph::SMarker>
PUBLIC	??0?$_Deque_base@USMarker@CStatGraph@@V?$xalloc@USMarker@CStatGraph@@@@@priv@stlp_std@@QAE@ABV?$xalloc@USMarker@CStatGraph@@@@I@Z ; stlp_std::priv::_Deque_base<CStatGraph::SMarker,xalloc<CStatGraph::SMarker> >::_Deque_base<CStatGraph::SMarker,xalloc<CStatGraph::SMarker> >
PUBLIC	??0?$xalloc@USMarker@CStatGraph@@@@QAE@ABV0@@Z	; xalloc<CStatGraph::SMarker>::xalloc<CStatGraph::SMarker>
PUBLIC	?get_allocator@?$_Impl_deque@USMarker@CStatGraph@@V?$xalloc@USMarker@CStatGraph@@@@@priv@stlp_std@@QBE?AV?$xalloc@USMarker@CStatGraph@@@@XZ ; stlp_std::priv::_Impl_deque<CStatGraph::SMarker,xalloc<CStatGraph::SMarker> >::get_allocator
PUBLIC	??$__ucopy@U?$_Deque_iterator@USMarker@CStatGraph@@U?$_Const_traits@USMarker@CStatGraph@@@stlp_std@@@priv@stlp_std@@U?$_Deque_iterator@USMarker@CStatGraph@@U?$_Nonconst_traits@USMarker@CStatGraph@@@stlp_std@@@23@@priv@stlp_std@@YA?AU?$_Deque_iterator@USMarker@CStatGraph@@U?$_Nonconst_traits@USMarker@CStatGraph@@@stlp_std@@@01@U?$_Deque_iterator@USMarker@CStatGraph@@U?$_Const_traits@USMarker@CStatGraph@@@stlp_std@@@01@0U201@@Z ; stlp_std::priv::__ucopy<stlp_std::priv::_Deque_iterator<CStatGraph::SMarker,stlp_std::_Const_traits<CStatGraph::SMarker> >,stlp_std::priv::_Deque_iterator<CStatGraph::SMarker,stlp_std::_Nonconst_traits<CStatGraph::SMarker> > >
PUBLIC	??0?$_Impl_deque@USMarker@CStatGraph@@V?$xalloc@USMarker@CStatGraph@@@@@priv@stlp_std@@QAE@ABV012@@Z ; stlp_std::priv::_Impl_deque<CStatGraph::SMarker,xalloc<CStatGraph::SMarker> >::_Impl_deque<CStatGraph::SMarker,xalloc<CStatGraph::SMarker> >
PUBLIC	??0?$deque@USMarker@CStatGraph@@V?$xalloc@USMarker@CStatGraph@@@@@stlp_std@@QAE@ABV01@@Z ; stlp_std::deque<CStatGraph::SMarker,xalloc<CStatGraph::SMarker> >::deque<CStatGraph::SMarker,xalloc<CStatGraph::SMarker> >
PUBLIC	??1?$_Deque_base@USMarker@CStatGraph@@V?$xalloc@USMarker@CStatGraph@@@@@priv@stlp_std@@QAE@XZ ; stlp_std::priv::_Deque_base<CStatGraph::SMarker,xalloc<CStatGraph::SMarker> >::~_Deque_base<CStatGraph::SMarker,xalloc<CStatGraph::SMarker> >
PUBLIC	??1?$_Impl_deque@USMarker@CStatGraph@@V?$xalloc@USMarker@CStatGraph@@@@@priv@stlp_std@@QAE@XZ ; stlp_std::priv::_Impl_deque<CStatGraph::SMarker,xalloc<CStatGraph::SMarker> >::~_Impl_deque<CStatGraph::SMarker,xalloc<CStatGraph::SMarker> >
PUBLIC	??1?$deque@USMarker@CStatGraph@@V?$xalloc@USMarker@CStatGraph@@@@@stlp_std@@QAE@XZ ; stlp_std::deque<CStatGraph::SMarker,xalloc<CStatGraph::SMarker> >::~deque<CStatGraph::SMarker,xalloc<CStatGraph::SMarker> >
PUBLIC	??0?$xr_deque@USMarker@CStatGraph@@V?$xalloc@USMarker@CStatGraph@@@@@@QAE@ABV0@@Z ; xr_deque<CStatGraph::SMarker,xalloc<CStatGraph::SMarker> >::xr_deque<CStatGraph::SMarker,xalloc<CStatGraph::SMarker> >
PUBLIC	??4?$FactoryPtr@VIStatGraphRender@@@@QAEAAV0@ABV0@@Z ; FactoryPtr<IStatGraphRender>::operator=
PUBLIC	?size@?$_Impl_vector@USSubGraph@CStatGraph@@V?$xalloc@USSubGraph@CStatGraph@@@@@priv@stlp_std@@QBEIXZ ; stlp_std::priv::_Impl_vector<CStatGraph::SSubGraph,xalloc<CStatGraph::SSubGraph> >::size
PUBLIC	?capacity@?$_Impl_vector@USSubGraph@CStatGraph@@V?$xalloc@USSubGraph@CStatGraph@@@@@priv@stlp_std@@QBEIXZ ; stlp_std::priv::_Impl_vector<CStatGraph::SSubGraph,xalloc<CStatGraph::SSubGraph> >::capacity
PUBLIC	??$xr_free@USSubGraph@CStatGraph@@@@YAXAAPAUSSubGraph@CStatGraph@@@Z ; xr_free<CStatGraph::SSubGraph>
PUBLIC	?deallocate@?$xalloc@USSubGraph@CStatGraph@@@@QBEXPAUSSubGraph@CStatGraph@@I@Z ; xalloc<CStatGraph::SSubGraph>::deallocate
PUBLIC	?end@?$_Impl_vector@USSubGraph@CStatGraph@@V?$xalloc@USSubGraph@CStatGraph@@@@@priv@stlp_std@@QAEPAUSSubGraph@CStatGraph@@XZ ; stlp_std::priv::_Impl_vector<CStatGraph::SSubGraph,xalloc<CStatGraph::SSubGraph> >::end
PUBLIC	?rbegin@?$_Impl_vector@USSubGraph@CStatGraph@@V?$xalloc@USSubGraph@CStatGraph@@@@@priv@stlp_std@@QAE?AV?$reverse_iterator@PAUSSubGraph@CStatGraph@@@3@XZ ; stlp_std::priv::_Impl_vector<CStatGraph::SSubGraph,xalloc<CStatGraph::SSubGraph> >::rbegin
PUBLIC	?begin@?$_Impl_vector@USSubGraph@CStatGraph@@V?$xalloc@USSubGraph@CStatGraph@@@@@priv@stlp_std@@QAEPAUSSubGraph@CStatGraph@@XZ ; stlp_std::priv::_Impl_vector<CStatGraph::SSubGraph,xalloc<CStatGraph::SSubGraph> >::begin
PUBLIC	??0?$reverse_iterator@PAUSSubGraph@CStatGraph@@@stlp_std@@QAE@PAUSSubGraph@CStatGraph@@@Z ; stlp_std::reverse_iterator<CStatGraph::SSubGraph *>::reverse_iterator<CStatGraph::SSubGraph *>
PUBLIC	?rend@?$_Impl_vector@USSubGraph@CStatGraph@@V?$xalloc@USSubGraph@CStatGraph@@@@@priv@stlp_std@@QAE?AV?$reverse_iterator@PAUSSubGraph@CStatGraph@@@3@XZ ; stlp_std::priv::_Impl_vector<CStatGraph::SSubGraph,xalloc<CStatGraph::SSubGraph> >::rend
PUBLIC	??0?$reverse_iterator@PAUSSubGraph@CStatGraph@@@stlp_std@@QAE@ABV01@@Z ; stlp_std::reverse_iterator<CStatGraph::SSubGraph *>::reverse_iterator<CStatGraph::SSubGraph *>
PUBLIC	??D?$reverse_iterator@PAUSSubGraph@CStatGraph@@@stlp_std@@QBEAAUSSubGraph@CStatGraph@@XZ ; stlp_std::reverse_iterator<CStatGraph::SSubGraph *>::operator*
PUBLIC	??E?$reverse_iterator@PAUSSubGraph@CStatGraph@@@stlp_std@@QAEAAV01@XZ ; stlp_std::reverse_iterator<CStatGraph::SSubGraph *>::operator++
PUBLIC	?base@?$reverse_iterator@PAUSSubGraph@CStatGraph@@@stlp_std@@QBEPAUSSubGraph@CStatGraph@@XZ ; stlp_std::reverse_iterator<CStatGraph::SSubGraph *>::base
PUBLIC	??$?8PAUSSubGraph@CStatGraph@@@stlp_std@@YA_NABV?$reverse_iterator@PAUSSubGraph@CStatGraph@@@0@0@Z ; stlp_std::operator==<CStatGraph::SSubGraph *>
PUBLIC	??$?9PAUSSubGraph@CStatGraph@@@stlp_std@@YA_NABV?$reverse_iterator@PAUSSubGraph@CStatGraph@@@0@0@Z ; stlp_std::operator!=<CStatGraph::SSubGraph *>
PUBLIC	??$__destroy_range_aux@V?$reverse_iterator@PAUSSubGraph@CStatGraph@@@stlp_std@@USSubGraph@CStatGraph@@@stlp_std@@YAXV?$reverse_iterator@PAUSSubGraph@CStatGraph@@@0@0PAUSSubGraph@CStatGraph@@ABU__false_type@0@@Z ; stlp_std::__destroy_range_aux<stlp_std::reverse_iterator<CStatGraph::SSubGraph *>,CStatGraph::SSubGraph>
PUBLIC	??$__destroy_range@V?$reverse_iterator@PAUSSubGraph@CStatGraph@@@stlp_std@@USSubGraph@CStatGraph@@@stlp_std@@YAXV?$reverse_iterator@PAUSSubGraph@CStatGraph@@@0@0PAUSSubGraph@CStatGraph@@@Z ; stlp_std::__destroy_range<stlp_std::reverse_iterator<CStatGraph::SSubGraph *>,CStatGraph::SSubGraph>
PUBLIC	??$_Destroy_Range@V?$reverse_iterator@PAUSSubGraph@CStatGraph@@@stlp_std@@@stlp_std@@YAXV?$reverse_iterator@PAUSSubGraph@CStatGraph@@@0@0@Z ; stlp_std::_Destroy_Range<stlp_std::reverse_iterator<CStatGraph::SSubGraph *> >
PUBLIC	?_M_clear@?$_Impl_vector@USSubGraph@CStatGraph@@V?$xalloc@USSubGraph@CStatGraph@@@@@priv@stlp_std@@AAEXXZ ; stlp_std::priv::_Impl_vector<CStatGraph::SSubGraph,xalloc<CStatGraph::SSubGraph> >::_M_clear
PUBLIC	??$xr_alloc@USSubGraph@CStatGraph@@@@YAPAUSSubGraph@CStatGraph@@I@Z ; xr_alloc<CStatGraph::SSubGraph>
PUBLIC	?allocate@?$xalloc@USSubGraph@CStatGraph@@@@QBEPAUSSubGraph@CStatGraph@@IPBX@Z ; xalloc<CStatGraph::SSubGraph>::allocate
PUBLIC	?allocate@?$_STLP_alloc_proxy@PAUSSubGraph@CStatGraph@@U12@V?$xalloc@USSubGraph@CStatGraph@@@@@priv@stlp_std@@QAEPAUSSubGraph@CStatGraph@@I@Z ; stlp_std::priv::_STLP_alloc_proxy<CStatGraph::SSubGraph *,CStatGraph::SSubGraph,xalloc<CStatGraph::SSubGraph> >::allocate
PUBLIC	?allocate@?$_STLP_alloc_proxy@PAUSSubGraph@CStatGraph@@U12@V?$xalloc@USSubGraph@CStatGraph@@@@@priv@stlp_std@@AAEPAUSSubGraph@CStatGraph@@IAAIABU__false_type@3@@Z ; stlp_std::priv::_STLP_alloc_proxy<CStatGraph::SSubGraph *,CStatGraph::SSubGraph,xalloc<CStatGraph::SSubGraph> >::allocate
PUBLIC	?allocate@?$_STLP_alloc_proxy@PAUSSubGraph@CStatGraph@@U12@V?$xalloc@USSubGraph@CStatGraph@@@@@priv@stlp_std@@QAEPAUSSubGraph@CStatGraph@@IAAI@Z ; stlp_std::priv::_STLP_alloc_proxy<CStatGraph::SSubGraph *,CStatGraph::SSubGraph,xalloc<CStatGraph::SSubGraph> >::allocate
PUBLIC	?_Answer@?$_BothPtrType@PBUSSubGraph@CStatGraph@@PAU12@@stlp_std@@SA?AU__true_type@2@XZ ; stlp_std::_BothPtrType<CStatGraph::SSubGraph const *,CStatGraph::SSubGraph *>::_Answer
PUBLIC	?_M_create_nodes@?$_Deque_base@USElement@CStatGraph@@V?$xalloc@USElement@CStatGraph@@@@@priv@stlp_std@@IAEXPAPAUSElement@CStatGraph@@0@Z ; stlp_std::priv::_Deque_base<CStatGraph::SElement,xalloc<CStatGraph::SElement> >::_M_create_nodes
PUBLIC	?_M_initialize_map@?$_Deque_base@USElement@CStatGraph@@V?$xalloc@USElement@CStatGraph@@@@@priv@stlp_std@@IAEXI@Z ; stlp_std::priv::_Deque_base<CStatGraph::SElement,xalloc<CStatGraph::SElement> >::_M_initialize_map
PUBLIC	??0?$_Deque_iterator_base@USElement@CStatGraph@@@priv@stlp_std@@QAE@XZ ; stlp_std::priv::_Deque_iterator_base<CStatGraph::SElement>::_Deque_iterator_base<CStatGraph::SElement>
PUBLIC	??0?$_Deque_iterator@USElement@CStatGraph@@U?$_Nonconst_traits@USElement@CStatGraph@@@stlp_std@@@priv@stlp_std@@QAE@XZ ; stlp_std::priv::_Deque_iterator<CStatGraph::SElement,stlp_std::_Nonconst_traits<CStatGraph::SElement> >::_Deque_iterator<CStatGraph::SElement,stlp_std::_Nonconst_traits<CStatGraph::SElement> >
PUBLIC	??0?$xalloc@PAUSElement@CStatGraph@@@@QAE@ABV0@@Z ; xalloc<CStatGraph::SElement *>::xalloc<CStatGraph::SElement *>
PUBLIC	??0?$_STLP_alloc_proxy@PAPAUSElement@CStatGraph@@PAU12@V?$xalloc@PAUSElement@CStatGraph@@@@@priv@stlp_std@@QAE@ABV?$xalloc@PAUSElement@CStatGraph@@@@PAPAUSElement@CStatGraph@@@Z ; stlp_std::priv::_STLP_alloc_proxy<CStatGraph::SElement * *,CStatGraph::SElement *,xalloc<CStatGraph::SElement *> >::_STLP_alloc_proxy<CStatGraph::SElement * *,CStatGraph::SElement *,xalloc<CStatGraph::SElement *> >
PUBLIC	??0?$_STLP_alloc_proxy@IUSElement@CStatGraph@@V?$xalloc@USElement@CStatGraph@@@@@priv@stlp_std@@QAE@ABV?$xalloc@USElement@CStatGraph@@@@I@Z ; stlp_std::priv::_STLP_alloc_proxy<unsigned int,CStatGraph::SElement,xalloc<CStatGraph::SElement> >::_STLP_alloc_proxy<unsigned int,CStatGraph::SElement,xalloc<CStatGraph::SElement> >
PUBLIC	??$?0USElement@CStatGraph@@@?$xalloc@PAUSElement@CStatGraph@@@@QAE@ABV?$xalloc@USElement@CStatGraph@@@@@Z ; xalloc<CStatGraph::SElement *>::xalloc<CStatGraph::SElement *><CStatGraph::SElement>
PUBLIC	??0?$_Deque_base@USElement@CStatGraph@@V?$xalloc@USElement@CStatGraph@@@@@priv@stlp_std@@QAE@ABV?$xalloc@USElement@CStatGraph@@@@I@Z ; stlp_std::priv::_Deque_base<CStatGraph::SElement,xalloc<CStatGraph::SElement> >::_Deque_base<CStatGraph::SElement,xalloc<CStatGraph::SElement> >
PUBLIC	??0?$xalloc@USElement@CStatGraph@@@@QAE@ABV0@@Z	; xalloc<CStatGraph::SElement>::xalloc<CStatGraph::SElement>
PUBLIC	?get_allocator@?$_Impl_deque@USElement@CStatGraph@@V?$xalloc@USElement@CStatGraph@@@@@priv@stlp_std@@QBE?AV?$xalloc@USElement@CStatGraph@@@@XZ ; stlp_std::priv::_Impl_deque<CStatGraph::SElement,xalloc<CStatGraph::SElement> >::get_allocator
PUBLIC	??$__ucopy@U?$_Deque_iterator@USElement@CStatGraph@@U?$_Const_traits@USElement@CStatGraph@@@stlp_std@@@priv@stlp_std@@U?$_Deque_iterator@USElement@CStatGraph@@U?$_Nonconst_traits@USElement@CStatGraph@@@stlp_std@@@23@@priv@stlp_std@@YA?AU?$_Deque_iterator@USElement@CStatGraph@@U?$_Nonconst_traits@USElement@CStatGraph@@@stlp_std@@@01@U?$_Deque_iterator@USElement@CStatGraph@@U?$_Const_traits@USElement@CStatGraph@@@stlp_std@@@01@0U201@@Z ; stlp_std::priv::__ucopy<stlp_std::priv::_Deque_iterator<CStatGraph::SElement,stlp_std::_Const_traits<CStatGraph::SElement> >,stlp_std::priv::_Deque_iterator<CStatGraph::SElement,stlp_std::_Nonconst_traits<CStatGraph::SElement> > >
PUBLIC	??0?$_Impl_deque@USElement@CStatGraph@@V?$xalloc@USElement@CStatGraph@@@@@priv@stlp_std@@QAE@ABV012@@Z ; stlp_std::priv::_Impl_deque<CStatGraph::SElement,xalloc<CStatGraph::SElement> >::_Impl_deque<CStatGraph::SElement,xalloc<CStatGraph::SElement> >
PUBLIC	??0?$deque@USElement@CStatGraph@@V?$xalloc@USElement@CStatGraph@@@@@stlp_std@@QAE@ABV01@@Z ; stlp_std::deque<CStatGraph::SElement,xalloc<CStatGraph::SElement> >::deque<CStatGraph::SElement,xalloc<CStatGraph::SElement> >
PUBLIC	??0?$xr_deque@USElement@CStatGraph@@V?$xalloc@USElement@CStatGraph@@@@@@QAE@ABV0@@Z ; xr_deque<CStatGraph::SElement,xalloc<CStatGraph::SElement> >::xr_deque<CStatGraph::SElement,xalloc<CStatGraph::SElement> >
PUBLIC	??0SSubGraph@CStatGraph@@QAE@ABU01@@Z		; CStatGraph::SSubGraph::SSubGraph
PUBLIC	??$_Param_Construct@USSubGraph@CStatGraph@@U12@@stlp_std@@YAXPAUSSubGraph@CStatGraph@@ABU12@@Z ; stlp_std::_Param_Construct<CStatGraph::SSubGraph,CStatGraph::SSubGraph>
PUBLIC	??$__ucopy@PBUSSubGraph@CStatGraph@@PAU12@H@priv@stlp_std@@YAPAUSSubGraph@CStatGraph@@PBU23@0PAU23@ABUrandom_access_iterator_tag@1@PAH@Z ; stlp_std::priv::__ucopy<CStatGraph::SSubGraph const *,CStatGraph::SSubGraph *,int>
PUBLIC	??$__ucopy_ptrs@PBUSSubGraph@CStatGraph@@PAU12@@priv@stlp_std@@YAPAUSSubGraph@CStatGraph@@PBU23@0PAU23@ABU__false_type@1@@Z ; stlp_std::priv::__ucopy_ptrs<CStatGraph::SSubGraph const *,CStatGraph::SSubGraph *>
PUBLIC	??$_UseTrivialUCopy@USSubGraph@CStatGraph@@U12@@stlp_std@@YA?AU?$_TrivialUCopy@USSubGraph@CStatGraph@@U12@@0@PAUSSubGraph@CStatGraph@@0@Z ; stlp_std::_UseTrivialUCopy<CStatGraph::SSubGraph,CStatGraph::SSubGraph>
PUBLIC	?_Answer@?$_TrivialUCopy@USSubGraph@CStatGraph@@U12@@stlp_std@@SA?AU__false_type@2@XZ ; stlp_std::_TrivialUCopy<CStatGraph::SSubGraph,CStatGraph::SSubGraph>::_Answer
PUBLIC	??$__ucopy_aux@PBUSSubGraph@CStatGraph@@PAU12@@priv@stlp_std@@YAPAUSSubGraph@CStatGraph@@PBU23@0PAU23@ABU__true_type@1@@Z ; stlp_std::priv::__ucopy_aux<CStatGraph::SSubGraph const *,CStatGraph::SSubGraph *>
PUBLIC	??$uninitialized_copy@PBUSSubGraph@CStatGraph@@PAU12@@stlp_std@@YAPAUSSubGraph@CStatGraph@@PBU12@0PAU12@@Z ; stlp_std::uninitialized_copy<CStatGraph::SSubGraph const *,CStatGraph::SSubGraph *>
PUBLIC	??$_M_allocate_and_copy@PBUSSubGraph@CStatGraph@@@?$_Impl_vector@USSubGraph@CStatGraph@@V?$xalloc@USSubGraph@CStatGraph@@@@@priv@stlp_std@@AAEPAUSSubGraph@CStatGraph@@AAIPBU34@1@Z ; stlp_std::priv::_Impl_vector<CStatGraph::SSubGraph,xalloc<CStatGraph::SSubGraph> >::_M_allocate_and_copy<CStatGraph::SSubGraph const *>
PUBLIC	?begin@?$_Impl_deque@USElement@CStatGraph@@V?$xalloc@USElement@CStatGraph@@@@@priv@stlp_std@@QBE?AU?$_Deque_iterator@USElement@CStatGraph@@U?$_Const_traits@USElement@CStatGraph@@@stlp_std@@@23@XZ ; stlp_std::priv::_Impl_deque<CStatGraph::SElement,xalloc<CStatGraph::SElement> >::begin
PUBLIC	?end@?$_Impl_deque@USElement@CStatGraph@@V?$xalloc@USElement@CStatGraph@@@@@priv@stlp_std@@QBE?AU?$_Deque_iterator@USElement@CStatGraph@@U?$_Const_traits@USElement@CStatGraph@@@stlp_std@@@23@XZ ; stlp_std::priv::_Impl_deque<CStatGraph::SElement,xalloc<CStatGraph::SElement> >::end
PUBLIC	?_M_erase@?$_Impl_deque@USElement@CStatGraph@@V?$xalloc@USElement@CStatGraph@@@@@priv@stlp_std@@IAE?AU?$_Deque_iterator@USElement@CStatGraph@@U?$_Nonconst_traits@USElement@CStatGraph@@@stlp_std@@@23@U423@0ABU__false_type@3@@Z ; stlp_std::priv::_Impl_deque<CStatGraph::SElement,xalloc<CStatGraph::SElement> >::_M_erase
PUBLIC	??$__destroy_range_aux@PAUSElement@CStatGraph@@U12@@stlp_std@@YAXPAUSElement@CStatGraph@@00ABU__true_type@0@@Z ; stlp_std::__destroy_range_aux<CStatGraph::SElement *,CStatGraph::SElement>
PUBLIC	??$__destroy_range@PAUSElement@CStatGraph@@U12@@stlp_std@@YAXPAUSElement@CStatGraph@@00@Z ; stlp_std::__destroy_range<CStatGraph::SElement *,CStatGraph::SElement>
PUBLIC	??$_Destroy_Range@PAUSElement@CStatGraph@@@stlp_std@@YAXPAUSElement@CStatGraph@@0@Z ; stlp_std::_Destroy_Range<CStatGraph::SElement *>
PUBLIC	?clear@?$_Impl_deque@USElement@CStatGraph@@V?$xalloc@USElement@CStatGraph@@@@@priv@stlp_std@@QAEXXZ ; stlp_std::priv::_Impl_deque<CStatGraph::SElement,xalloc<CStatGraph::SElement> >::clear
PUBLIC	??$?8USElement@CStatGraph@@@priv@stlp_std@@YA_NABU?$_Deque_iterator_base@USElement@CStatGraph@@@01@0@Z ; stlp_std::priv::operator==<CStatGraph::SElement>
PUBLIC	?erase@?$_Impl_deque@USElement@CStatGraph@@V?$xalloc@USElement@CStatGraph@@@@@priv@stlp_std@@QAE?AU?$_Deque_iterator@USElement@CStatGraph@@U?$_Nonconst_traits@USElement@CStatGraph@@@stlp_std@@@23@U423@0@Z ; stlp_std::priv::_Impl_deque<CStatGraph::SElement,xalloc<CStatGraph::SElement> >::erase
PUBLIC	??H?$_Deque_iterator@USElement@CStatGraph@@U?$_Const_traits@USElement@CStatGraph@@@stlp_std@@@priv@stlp_std@@QBE?AU012@H@Z ; stlp_std::priv::_Deque_iterator<CStatGraph::SElement,stlp_std::_Const_traits<CStatGraph::SElement> >::operator+
PUBLIC	??$__distance@U?$_Deque_iterator@USElement@CStatGraph@@U?$_Const_traits@USElement@CStatGraph@@@stlp_std@@@priv@stlp_std@@@stlp_std@@YAHABU?$_Deque_iterator@USElement@CStatGraph@@U?$_Const_traits@USElement@CStatGraph@@@stlp_std@@@priv@0@0ABUrandom_access_iterator_tag@0@@Z ; stlp_std::__distance<stlp_std::priv::_Deque_iterator<CStatGraph::SElement,stlp_std::_Const_traits<CStatGraph::SElement> > >
PUBLIC	??$distance@U?$_Deque_iterator@USElement@CStatGraph@@U?$_Const_traits@USElement@CStatGraph@@@stlp_std@@@priv@stlp_std@@@stlp_std@@YAHU?$_Deque_iterator@USElement@CStatGraph@@U?$_Const_traits@USElement@CStatGraph@@@stlp_std@@@priv@0@0@Z ; stlp_std::distance<stlp_std::priv::_Deque_iterator<CStatGraph::SElement,stlp_std::_Const_traits<CStatGraph::SElement> > >
PUBLIC	?size@?$_Impl_deque@USElement@CStatGraph@@V?$xalloc@USElement@CStatGraph@@@@@priv@stlp_std@@QBEIXZ ; stlp_std::priv::_Impl_deque<CStatGraph::SElement,xalloc<CStatGraph::SElement> >::size
PUBLIC	??Z?$_Deque_iterator@USElement@CStatGraph@@U?$_Nonconst_traits@USElement@CStatGraph@@@stlp_std@@@priv@stlp_std@@QAEAAU012@H@Z ; stlp_std::priv::_Deque_iterator<CStatGraph::SElement,stlp_std::_Nonconst_traits<CStatGraph::SElement> >::operator-=
PUBLIC	??G?$_Deque_iterator@USElement@CStatGraph@@U?$_Nonconst_traits@USElement@CStatGraph@@@stlp_std@@@priv@stlp_std@@QBE?AU012@H@Z ; stlp_std::priv::_Deque_iterator<CStatGraph::SElement,stlp_std::_Nonconst_traits<CStatGraph::SElement> >::operator-
PUBLIC	?_M_reserve_map_at_front@?$_Impl_deque@USElement@CStatGraph@@V?$xalloc@USElement@CStatGraph@@@@@priv@stlp_std@@IAEXI@Z ; stlp_std::priv::_Impl_deque<CStatGraph::SElement,xalloc<CStatGraph::SElement> >::_M_reserve_map_at_front
PUBLIC	?_M_new_elements_at_front@?$_Impl_deque@USElement@CStatGraph@@V?$xalloc@USElement@CStatGraph@@@@@priv@stlp_std@@IAEXI@Z ; stlp_std::priv::_Impl_deque<CStatGraph::SElement,xalloc<CStatGraph::SElement> >::_M_new_elements_at_front
PUBLIC	?_M_reserve_elements_at_front@?$_Impl_deque@USElement@CStatGraph@@V?$xalloc@USElement@CStatGraph@@@@@priv@stlp_std@@IAE?AU?$_Deque_iterator@USElement@CStatGraph@@U?$_Nonconst_traits@USElement@CStatGraph@@@stlp_std@@@23@I@Z ; stlp_std::priv::_Impl_deque<CStatGraph::SElement,xalloc<CStatGraph::SElement> >::_M_reserve_elements_at_front
PUBLIC	??Y?$_Deque_iterator@USElement@CStatGraph@@U?$_Nonconst_traits@USElement@CStatGraph@@@stlp_std@@@priv@stlp_std@@QAEAAU012@H@Z ; stlp_std::priv::_Deque_iterator<CStatGraph::SElement,stlp_std::_Nonconst_traits<CStatGraph::SElement> >::operator+=
PUBLIC	??H?$_Deque_iterator@USElement@CStatGraph@@U?$_Nonconst_traits@USElement@CStatGraph@@@stlp_std@@@priv@stlp_std@@QBE?AU012@H@Z ; stlp_std::priv::_Deque_iterator<CStatGraph::SElement,stlp_std::_Nonconst_traits<CStatGraph::SElement> >::operator+
PUBLIC	??$xr_alloc@USElement@CStatGraph@@@@YAPAUSElement@CStatGraph@@I@Z ; xr_alloc<CStatGraph::SElement>
PUBLIC	?allocate@?$xalloc@USElement@CStatGraph@@@@QBEPAUSElement@CStatGraph@@IPBX@Z ; xalloc<CStatGraph::SElement>::allocate
PUBLIC	?allocate@?$_STLP_alloc_proxy@IUSElement@CStatGraph@@V?$xalloc@USElement@CStatGraph@@@@@priv@stlp_std@@QAEPAUSElement@CStatGraph@@I@Z ; stlp_std::priv::_STLP_alloc_proxy<unsigned int,CStatGraph::SElement,xalloc<CStatGraph::SElement> >::allocate
PUBLIC	??$xr_alloc@PAUSElement@CStatGraph@@@@YAPAPAUSElement@CStatGraph@@I@Z ; xr_alloc<CStatGraph::SElement *>
PUBLIC	?allocate@?$xalloc@PAUSElement@CStatGraph@@@@QBEPAPAUSElement@CStatGraph@@IPBX@Z ; xalloc<CStatGraph::SElement *>::allocate
PUBLIC	?allocate@?$_STLP_alloc_proxy@PAPAUSElement@CStatGraph@@PAU12@V?$xalloc@PAUSElement@CStatGraph@@@@@priv@stlp_std@@QAEPAPAUSElement@CStatGraph@@I@Z ; stlp_std::priv::_STLP_alloc_proxy<CStatGraph::SElement * *,CStatGraph::SElement *,xalloc<CStatGraph::SElement *> >::allocate
PUBLIC	??$__copy_ptrs@PAPAUSElement@CStatGraph@@PAPAU12@@priv@stlp_std@@YAPAPAUSElement@CStatGraph@@PAPAU23@00ABU__true_type@1@@Z ; stlp_std::priv::__copy_ptrs<CStatGraph::SElement * *,CStatGraph::SElement * *>
PUBLIC	??$__copy_aux@PAPAUSElement@CStatGraph@@PAPAU12@@priv@stlp_std@@YAPAPAUSElement@CStatGraph@@PAPAU23@00ABU__true_type@1@@Z ; stlp_std::priv::__copy_aux<CStatGraph::SElement * *,CStatGraph::SElement * *>
PUBLIC	??$copy@PAPAUSElement@CStatGraph@@PAPAU12@@stlp_std@@YAPAPAUSElement@CStatGraph@@PAPAU12@00@Z ; stlp_std::copy<CStatGraph::SElement * *,CStatGraph::SElement * *>
PUBLIC	?_Answer@?$_BothPtrType@PAPAUSElement@CStatGraph@@PAPAU12@@stlp_std@@SA?AU__true_type@2@XZ ; stlp_std::_BothPtrType<CStatGraph::SElement * *,CStatGraph::SElement * *>::_Answer
PUBLIC	??$_UseTrivialCopy@PAUSElement@CStatGraph@@PAU12@@stlp_std@@YA?AU?$_TrivialCopy@PAUSElement@CStatGraph@@PAU12@@0@PAPAUSElement@CStatGraph@@0@Z ; stlp_std::_UseTrivialCopy<CStatGraph::SElement *,CStatGraph::SElement *>
PUBLIC	?_Answer@?$_TrivialCopy@PAUSElement@CStatGraph@@PAU12@@stlp_std@@SA?AU__true_type@2@XZ ; stlp_std::_TrivialCopy<CStatGraph::SElement *,CStatGraph::SElement *>::_Answer
PUBLIC	??$__copy_backward_ptrs@PAPAUSElement@CStatGraph@@PAPAU12@@priv@stlp_std@@YAPAPAUSElement@CStatGraph@@PAPAU23@00ABU__true_type@1@@Z ; stlp_std::priv::__copy_backward_ptrs<CStatGraph::SElement * *,CStatGraph::SElement * *>
PUBLIC	??$__copy_backward_aux@PAPAUSElement@CStatGraph@@PAPAU12@@priv@stlp_std@@YAPAPAUSElement@CStatGraph@@PAPAU23@00ABU__true_type@1@@Z ; stlp_std::priv::__copy_backward_aux<CStatGraph::SElement * *,CStatGraph::SElement * *>
PUBLIC	??$copy_backward@PAPAUSElement@CStatGraph@@PAPAU12@@stlp_std@@YAPAPAUSElement@CStatGraph@@PAPAU12@00@Z ; stlp_std::copy_backward<CStatGraph::SElement * *,CStatGraph::SElement * *>
PUBLIC	?_M_reallocate_map@?$_Impl_deque@USElement@CStatGraph@@V?$xalloc@USElement@CStatGraph@@@@@priv@stlp_std@@IAEXI_N@Z ; stlp_std::priv::_Impl_deque<CStatGraph::SElement,xalloc<CStatGraph::SElement> >::_M_reallocate_map
PUBLIC	?_M_reserve_map_at_back@?$_Impl_deque@USElement@CStatGraph@@V?$xalloc@USElement@CStatGraph@@@@@priv@stlp_std@@IAEXI@Z ; stlp_std::priv::_Impl_deque<CStatGraph::SElement,xalloc<CStatGraph::SElement> >::_M_reserve_map_at_back
PUBLIC	?_M_new_elements_at_back@?$_Impl_deque@USElement@CStatGraph@@V?$xalloc@USElement@CStatGraph@@@@@priv@stlp_std@@IAEXI@Z ; stlp_std::priv::_Impl_deque<CStatGraph::SElement,xalloc<CStatGraph::SElement> >::_M_new_elements_at_back
PUBLIC	?_M_reserve_elements_at_back@?$_Impl_deque@USElement@CStatGraph@@V?$xalloc@USElement@CStatGraph@@@@@priv@stlp_std@@IAE?AU?$_Deque_iterator@USElement@CStatGraph@@U?$_Nonconst_traits@USElement@CStatGraph@@@stlp_std@@@23@I@Z ; stlp_std::priv::_Impl_deque<CStatGraph::SElement,xalloc<CStatGraph::SElement> >::_M_reserve_elements_at_back
PUBLIC	??$__copy@U?$_Deque_iterator@USElement@CStatGraph@@U?$_Const_traits@USElement@CStatGraph@@@stlp_std@@@priv@stlp_std@@U?$_Deque_iterator@USElement@CStatGraph@@U?$_Nonconst_traits@USElement@CStatGraph@@@stlp_std@@@23@H@priv@stlp_std@@YA?AU?$_Deque_iterator@USElement@CStatGraph@@U?$_Nonconst_traits@USElement@CStatGraph@@@stlp_std@@@01@U?$_Deque_iterator@USElement@CStatGraph@@U?$_Const_traits@USElement@CStatGraph@@@stlp_std@@@01@0U201@ABUrandom_access_iterator_tag@1@PAH@Z ; stlp_std::priv::__copy<stlp_std::priv::_Deque_iterator<CStatGraph::SElement,stlp_std::_Const_traits<CStatGraph::SElement> >,stlp_std::priv::_Deque_iterator<CStatGraph::SElement,stlp_std::_Nonconst_traits<CStatGraph::SElement> >,int>
PUBLIC	??$__copy_aux@U?$_Deque_iterator@USElement@CStatGraph@@U?$_Const_traits@USElement@CStatGraph@@@stlp_std@@@priv@stlp_std@@U?$_Deque_iterator@USElement@CStatGraph@@U?$_Nonconst_traits@USElement@CStatGraph@@@stlp_std@@@23@@priv@stlp_std@@YA?AU?$_Deque_iterator@USElement@CStatGraph@@U?$_Nonconst_traits@USElement@CStatGraph@@@stlp_std@@@01@U?$_Deque_iterator@USElement@CStatGraph@@U?$_Const_traits@USElement@CStatGraph@@@stlp_std@@@01@0U201@ABU__false_type@1@@Z ; stlp_std::priv::__copy_aux<stlp_std::priv::_Deque_iterator<CStatGraph::SElement,stlp_std::_Const_traits<CStatGraph::SElement> >,stlp_std::priv::_Deque_iterator<CStatGraph::SElement,stlp_std::_Nonconst_traits<CStatGraph::SElement> > >
PUBLIC	??$copy@U?$_Deque_iterator@USElement@CStatGraph@@U?$_Const_traits@USElement@CStatGraph@@@stlp_std@@@priv@stlp_std@@U?$_Deque_iterator@USElement@CStatGraph@@U?$_Nonconst_traits@USElement@CStatGraph@@@stlp_std@@@23@@stlp_std@@YA?AU?$_Deque_iterator@USElement@CStatGraph@@U?$_Nonconst_traits@USElement@CStatGraph@@@stlp_std@@@priv@0@U?$_Deque_iterator@USElement@CStatGraph@@U?$_Const_traits@USElement@CStatGraph@@@stlp_std@@@20@0U120@@Z ; stlp_std::copy<stlp_std::priv::_Deque_iterator<CStatGraph::SElement,stlp_std::_Const_traits<CStatGraph::SElement> >,stlp_std::priv::_Deque_iterator<CStatGraph::SElement,stlp_std::_Nonconst_traits<CStatGraph::SElement> > >
PUBLIC	?_M_decrement@?$_Deque_iterator_base@USElement@CStatGraph@@@priv@stlp_std@@QAEXXZ ; stlp_std::priv::_Deque_iterator_base<CStatGraph::SElement>::_M_decrement
PUBLIC	??F?$_Deque_iterator@USElement@CStatGraph@@U?$_Nonconst_traits@USElement@CStatGraph@@@stlp_std@@@priv@stlp_std@@QAEAAU012@XZ ; stlp_std::priv::_Deque_iterator<CStatGraph::SElement,stlp_std::_Nonconst_traits<CStatGraph::SElement> >::operator--
PUBLIC	??$__copy_backward@U?$_Deque_iterator@USElement@CStatGraph@@U?$_Nonconst_traits@USElement@CStatGraph@@@stlp_std@@@priv@stlp_std@@U123@H@priv@stlp_std@@YA?AU?$_Deque_iterator@USElement@CStatGraph@@U?$_Nonconst_traits@USElement@CStatGraph@@@stlp_std@@@01@U201@00ABUrandom_access_iterator_tag@1@PAH@Z ; stlp_std::priv::__copy_backward<stlp_std::priv::_Deque_iterator<CStatGraph::SElement,stlp_std::_Nonconst_traits<CStatGraph::SElement> >,stlp_std::priv::_Deque_iterator<CStatGraph::SElement,stlp_std::_Nonconst_traits<CStatGraph::SElement> >,int>
PUBLIC	??$__copy_backward_aux@U?$_Deque_iterator@USElement@CStatGraph@@U?$_Nonconst_traits@USElement@CStatGraph@@@stlp_std@@@priv@stlp_std@@U123@@priv@stlp_std@@YA?AU?$_Deque_iterator@USElement@CStatGraph@@U?$_Nonconst_traits@USElement@CStatGraph@@@stlp_std@@@01@U201@00ABU__false_type@1@@Z ; stlp_std::priv::__copy_backward_aux<stlp_std::priv::_Deque_iterator<CStatGraph::SElement,stlp_std::_Nonconst_traits<CStatGraph::SElement> >,stlp_std::priv::_Deque_iterator<CStatGraph::SElement,stlp_std::_Nonconst_traits<CStatGraph::SElement> > >
PUBLIC	??$copy_backward@U?$_Deque_iterator@USElement@CStatGraph@@U?$_Nonconst_traits@USElement@CStatGraph@@@stlp_std@@@priv@stlp_std@@U123@@stlp_std@@YA?AU?$_Deque_iterator@USElement@CStatGraph@@U?$_Nonconst_traits@USElement@CStatGraph@@@stlp_std@@@priv@0@U120@00@Z ; stlp_std::copy_backward<stlp_std::priv::_Deque_iterator<CStatGraph::SElement,stlp_std::_Nonconst_traits<CStatGraph::SElement> >,stlp_std::priv::_Deque_iterator<CStatGraph::SElement,stlp_std::_Nonconst_traits<CStatGraph::SElement> > >
PUBLIC	??$__copy@U?$_Deque_iterator@USElement@CStatGraph@@U?$_Nonconst_traits@USElement@CStatGraph@@@stlp_std@@@priv@stlp_std@@U123@H@priv@stlp_std@@YA?AU?$_Deque_iterator@USElement@CStatGraph@@U?$_Nonconst_traits@USElement@CStatGraph@@@stlp_std@@@01@U201@00ABUrandom_access_iterator_tag@1@PAH@Z ; stlp_std::priv::__copy<stlp_std::priv::_Deque_iterator<CStatGraph::SElement,stlp_std::_Nonconst_traits<CStatGraph::SElement> >,stlp_std::priv::_Deque_iterator<CStatGraph::SElement,stlp_std::_Nonconst_traits<CStatGraph::SElement> >,int>
PUBLIC	??$__copy_aux@U?$_Deque_iterator@USElement@CStatGraph@@U?$_Nonconst_traits@USElement@CStatGraph@@@stlp_std@@@priv@stlp_std@@U123@@priv@stlp_std@@YA?AU?$_Deque_iterator@USElement@CStatGraph@@U?$_Nonconst_traits@USElement@CStatGraph@@@stlp_std@@@01@U201@00ABU__false_type@1@@Z ; stlp_std::priv::__copy_aux<stlp_std::priv::_Deque_iterator<CStatGraph::SElement,stlp_std::_Nonconst_traits<CStatGraph::SElement> >,stlp_std::priv::_Deque_iterator<CStatGraph::SElement,stlp_std::_Nonconst_traits<CStatGraph::SElement> > >
PUBLIC	??$copy@U?$_Deque_iterator@USElement@CStatGraph@@U?$_Nonconst_traits@USElement@CStatGraph@@@stlp_std@@@priv@stlp_std@@U123@@stlp_std@@YA?AU?$_Deque_iterator@USElement@CStatGraph@@U?$_Nonconst_traits@USElement@CStatGraph@@@stlp_std@@@priv@0@U120@00@Z ; stlp_std::copy<stlp_std::priv::_Deque_iterator<CStatGraph::SElement,stlp_std::_Nonconst_traits<CStatGraph::SElement> >,stlp_std::priv::_Deque_iterator<CStatGraph::SElement,stlp_std::_Nonconst_traits<CStatGraph::SElement> > >
PUBLIC	?_M_advance@?$_Deque_iterator_base@USElement@CStatGraph@@@priv@stlp_std@@QAEXH@Z ; stlp_std::priv::_Deque_iterator_base<CStatGraph::SElement>::_M_advance
PUBLIC	??Y?$_Deque_iterator@USElement@CStatGraph@@U?$_Const_traits@USElement@CStatGraph@@@stlp_std@@@priv@stlp_std@@QAEAAU012@H@Z ; stlp_std::priv::_Deque_iterator<CStatGraph::SElement,stlp_std::_Const_traits<CStatGraph::SElement> >::operator+=
PUBLIC	??$__advance@U?$_Deque_iterator@USElement@CStatGraph@@U?$_Const_traits@USElement@CStatGraph@@@stlp_std@@@priv@stlp_std@@H@stlp_std@@YAXAAU?$_Deque_iterator@USElement@CStatGraph@@U?$_Const_traits@USElement@CStatGraph@@@stlp_std@@@priv@0@HABUrandom_access_iterator_tag@0@@Z ; stlp_std::__advance<stlp_std::priv::_Deque_iterator<CStatGraph::SElement,stlp_std::_Const_traits<CStatGraph::SElement> >,int>
PUBLIC	??$advance@U?$_Deque_iterator@USElement@CStatGraph@@U?$_Const_traits@USElement@CStatGraph@@@stlp_std@@@priv@stlp_std@@H@stlp_std@@YAXAAU?$_Deque_iterator@USElement@CStatGraph@@U?$_Const_traits@USElement@CStatGraph@@@stlp_std@@@priv@0@H@Z ; stlp_std::advance<stlp_std::priv::_Deque_iterator<CStatGraph::SElement,stlp_std::_Const_traits<CStatGraph::SElement> >,int>
PUBLIC	??$__uninitialized_copy_copy@U?$_Deque_iterator@USElement@CStatGraph@@U?$_Nonconst_traits@USElement@CStatGraph@@@stlp_std@@@priv@stlp_std@@U?$_Deque_iterator@USElement@CStatGraph@@U?$_Const_traits@USElement@CStatGraph@@@stlp_std@@@23@U123@@priv@stlp_std@@YA?AU?$_Deque_iterator@USElement@CStatGraph@@U?$_Nonconst_traits@USElement@CStatGraph@@@stlp_std@@@01@U201@0U?$_Deque_iterator@USElement@CStatGraph@@U?$_Const_traits@USElement@CStatGraph@@@stlp_std@@@01@10@Z ; stlp_std::priv::__uninitialized_copy_copy<stlp_std::priv::_Deque_iterator<CStatGraph::SElement,stlp_std::_Nonconst_traits<CStatGraph::SElement> >,stlp_std::priv::_Deque_iterator<CStatGraph::SElement,stlp_std::_Const_traits<CStatGraph::SElement> >,stlp_std::priv::_Deque_iterator<CStatGraph::SElement,stlp_std::_Nonconst_traits<CStatGraph::SElement> > >
PUBLIC	?_Answer@?$_BothPtrType@U?$_Deque_iterator@USElement@CStatGraph@@U?$_Const_traits@USElement@CStatGraph@@@stlp_std@@@priv@stlp_std@@U?$_Deque_iterator@USElement@CStatGraph@@U?$_Nonconst_traits@USElement@CStatGraph@@@stlp_std@@@23@@stlp_std@@SA?AU__false_type@2@XZ ; stlp_std::_BothPtrType<stlp_std::priv::_Deque_iterator<CStatGraph::SElement,stlp_std::_Const_traits<CStatGraph::SElement> >,stlp_std::priv::_Deque_iterator<CStatGraph::SElement,stlp_std::_Nonconst_traits<CStatGraph::SElement> > >::_Answer
PUBLIC	??D?$_Deque_iterator@USElement@CStatGraph@@U?$_Const_traits@USElement@CStatGraph@@@stlp_std@@@priv@stlp_std@@QBEABUSElement@CStatGraph@@XZ ; stlp_std::priv::_Deque_iterator<CStatGraph::SElement,stlp_std::_Const_traits<CStatGraph::SElement> >::operator*
PUBLIC	??G?$_Deque_iterator@USElement@CStatGraph@@U?$_Const_traits@USElement@CStatGraph@@@stlp_std@@@priv@stlp_std@@QBEHABU012@@Z ; stlp_std::priv::_Deque_iterator<CStatGraph::SElement,stlp_std::_Const_traits<CStatGraph::SElement> >::operator-
PUBLIC	??E?$_Deque_iterator@USElement@CStatGraph@@U?$_Const_traits@USElement@CStatGraph@@@stlp_std@@@priv@stlp_std@@QAEAAU012@XZ ; stlp_std::priv::_Deque_iterator<CStatGraph::SElement,stlp_std::_Const_traits<CStatGraph::SElement> >::operator++
PUBLIC	??$__ucopy@U?$_Deque_iterator@USElement@CStatGraph@@U?$_Const_traits@USElement@CStatGraph@@@stlp_std@@@priv@stlp_std@@U?$_Deque_iterator@USElement@CStatGraph@@U?$_Nonconst_traits@USElement@CStatGraph@@@stlp_std@@@23@H@priv@stlp_std@@YA?AU?$_Deque_iterator@USElement@CStatGraph@@U?$_Nonconst_traits@USElement@CStatGraph@@@stlp_std@@@01@U?$_Deque_iterator@USElement@CStatGraph@@U?$_Const_traits@USElement@CStatGraph@@@stlp_std@@@01@0U201@ABUrandom_access_iterator_tag@1@PAH@Z ; stlp_std::priv::__ucopy<stlp_std::priv::_Deque_iterator<CStatGraph::SElement,stlp_std::_Const_traits<CStatGraph::SElement> >,stlp_std::priv::_Deque_iterator<CStatGraph::SElement,stlp_std::_Nonconst_traits<CStatGraph::SElement> >,int>
PUBLIC	??$__ucopy_aux@U?$_Deque_iterator@USElement@CStatGraph@@U?$_Const_traits@USElement@CStatGraph@@@stlp_std@@@priv@stlp_std@@U?$_Deque_iterator@USElement@CStatGraph@@U?$_Nonconst_traits@USElement@CStatGraph@@@stlp_std@@@23@@priv@stlp_std@@YA?AU?$_Deque_iterator@USElement@CStatGraph@@U?$_Nonconst_traits@USElement@CStatGraph@@@stlp_std@@@01@U?$_Deque_iterator@USElement@CStatGraph@@U?$_Const_traits@USElement@CStatGraph@@@stlp_std@@@01@0U201@ABU__false_type@1@@Z ; stlp_std::priv::__ucopy_aux<stlp_std::priv::_Deque_iterator<CStatGraph::SElement,stlp_std::_Const_traits<CStatGraph::SElement> >,stlp_std::priv::_Deque_iterator<CStatGraph::SElement,stlp_std::_Nonconst_traits<CStatGraph::SElement> > >
PUBLIC	??$uninitialized_copy@U?$_Deque_iterator@USElement@CStatGraph@@U?$_Const_traits@USElement@CStatGraph@@@stlp_std@@@priv@stlp_std@@U?$_Deque_iterator@USElement@CStatGraph@@U?$_Nonconst_traits@USElement@CStatGraph@@@stlp_std@@@23@@stlp_std@@YA?AU?$_Deque_iterator@USElement@CStatGraph@@U?$_Nonconst_traits@USElement@CStatGraph@@@stlp_std@@@priv@0@U?$_Deque_iterator@USElement@CStatGraph@@U?$_Const_traits@USElement@CStatGraph@@@stlp_std@@@20@0U120@@Z ; stlp_std::uninitialized_copy<stlp_std::priv::_Deque_iterator<CStatGraph::SElement,stlp_std::_Const_traits<CStatGraph::SElement> >,stlp_std::priv::_Deque_iterator<CStatGraph::SElement,stlp_std::_Nonconst_traits<CStatGraph::SElement> > >
PUBLIC	?_Answer@?$_BothPtrType@U?$_Deque_iterator@USElement@CStatGraph@@U?$_Nonconst_traits@USElement@CStatGraph@@@stlp_std@@@priv@stlp_std@@U123@@stlp_std@@SA?AU__false_type@2@XZ ; stlp_std::_BothPtrType<stlp_std::priv::_Deque_iterator<CStatGraph::SElement,stlp_std::_Nonconst_traits<CStatGraph::SElement> >,stlp_std::priv::_Deque_iterator<CStatGraph::SElement,stlp_std::_Nonconst_traits<CStatGraph::SElement> > >::_Answer
PUBLIC	??D?$_Deque_iterator@USElement@CStatGraph@@U?$_Nonconst_traits@USElement@CStatGraph@@@stlp_std@@@priv@stlp_std@@QBEAAUSElement@CStatGraph@@XZ ; stlp_std::priv::_Deque_iterator<CStatGraph::SElement,stlp_std::_Nonconst_traits<CStatGraph::SElement> >::operator*
PUBLIC	?_M_subtract@?$_Deque_iterator_base@USElement@CStatGraph@@@priv@stlp_std@@QBEHABU123@@Z ; stlp_std::priv::_Deque_iterator_base<CStatGraph::SElement>::_M_subtract
PUBLIC	??G?$_Deque_iterator@USElement@CStatGraph@@U?$_Nonconst_traits@USElement@CStatGraph@@@stlp_std@@@priv@stlp_std@@QBEHABU?$_Deque_iterator@USElement@CStatGraph@@U?$_Const_traits@USElement@CStatGraph@@@stlp_std@@@12@@Z ; stlp_std::priv::_Deque_iterator<CStatGraph::SElement,stlp_std::_Nonconst_traits<CStatGraph::SElement> >::operator-
PUBLIC	?_M_set_node@?$_Deque_iterator_base@USElement@CStatGraph@@@priv@stlp_std@@QAEXPAPAUSElement@CStatGraph@@@Z ; stlp_std::priv::_Deque_iterator_base<CStatGraph::SElement>::_M_set_node
PUBLIC	?_M_increment@?$_Deque_iterator_base@USElement@CStatGraph@@@priv@stlp_std@@QAEXXZ ; stlp_std::priv::_Deque_iterator_base<CStatGraph::SElement>::_M_increment
PUBLIC	??E?$_Deque_iterator@USElement@CStatGraph@@U?$_Nonconst_traits@USElement@CStatGraph@@@stlp_std@@@priv@stlp_std@@QAEAAU012@XZ ; stlp_std::priv::_Deque_iterator<CStatGraph::SElement,stlp_std::_Nonconst_traits<CStatGraph::SElement> >::operator++
PUBLIC	??0?$_Deque_iterator@USElement@CStatGraph@@U?$_Const_traits@USElement@CStatGraph@@@stlp_std@@@priv@stlp_std@@QAE@ABU?$_Deque_iterator@USElement@CStatGraph@@U?$_Nonconst_traits@USElement@CStatGraph@@@stlp_std@@@12@@Z ; stlp_std::priv::_Deque_iterator<CStatGraph::SElement,stlp_std::_Const_traits<CStatGraph::SElement> >::_Deque_iterator<CStatGraph::SElement,stlp_std::_Const_traits<CStatGraph::SElement> >
PUBLIC	??$_Param_Construct@USElement@CStatGraph@@U12@@stlp_std@@YAXPAUSElement@CStatGraph@@ABU12@@Z ; stlp_std::_Param_Construct<CStatGraph::SElement,CStatGraph::SElement>
PUBLIC	??$__ucopy@U?$_Deque_iterator@USElement@CStatGraph@@U?$_Nonconst_traits@USElement@CStatGraph@@@stlp_std@@@priv@stlp_std@@U123@H@priv@stlp_std@@YA?AU?$_Deque_iterator@USElement@CStatGraph@@U?$_Nonconst_traits@USElement@CStatGraph@@@stlp_std@@@01@U201@00ABUrandom_access_iterator_tag@1@PAH@Z ; stlp_std::priv::__ucopy<stlp_std::priv::_Deque_iterator<CStatGraph::SElement,stlp_std::_Nonconst_traits<CStatGraph::SElement> >,stlp_std::priv::_Deque_iterator<CStatGraph::SElement,stlp_std::_Nonconst_traits<CStatGraph::SElement> >,int>
PUBLIC	??$__ucopy_aux@U?$_Deque_iterator@USElement@CStatGraph@@U?$_Nonconst_traits@USElement@CStatGraph@@@stlp_std@@@priv@stlp_std@@U123@@priv@stlp_std@@YA?AU?$_Deque_iterator@USElement@CStatGraph@@U?$_Nonconst_traits@USElement@CStatGraph@@@stlp_std@@@01@U201@00ABU__false_type@1@@Z ; stlp_std::priv::__ucopy_aux<stlp_std::priv::_Deque_iterator<CStatGraph::SElement,stlp_std::_Nonconst_traits<CStatGraph::SElement> >,stlp_std::priv::_Deque_iterator<CStatGraph::SElement,stlp_std::_Nonconst_traits<CStatGraph::SElement> > >
PUBLIC	??$uninitialized_copy@U?$_Deque_iterator@USElement@CStatGraph@@U?$_Nonconst_traits@USElement@CStatGraph@@@stlp_std@@@priv@stlp_std@@U123@@stlp_std@@YA?AU?$_Deque_iterator@USElement@CStatGraph@@U?$_Nonconst_traits@USElement@CStatGraph@@@stlp_std@@@priv@0@U120@00@Z ; stlp_std::uninitialized_copy<stlp_std::priv::_Deque_iterator<CStatGraph::SElement,stlp_std::_Nonconst_traits<CStatGraph::SElement> >,stlp_std::priv::_Deque_iterator<CStatGraph::SElement,stlp_std::_Nonconst_traits<CStatGraph::SElement> > >
PUBLIC	??$__uninitialized_copy_copy@U?$_Deque_iterator@USElement@CStatGraph@@U?$_Const_traits@USElement@CStatGraph@@@stlp_std@@@priv@stlp_std@@U?$_Deque_iterator@USElement@CStatGraph@@U?$_Nonconst_traits@USElement@CStatGraph@@@stlp_std@@@23@U423@@priv@stlp_std@@YA?AU?$_Deque_iterator@USElement@CStatGraph@@U?$_Nonconst_traits@USElement@CStatGraph@@@stlp_std@@@01@U?$_Deque_iterator@USElement@CStatGraph@@U?$_Const_traits@USElement@CStatGraph@@@stlp_std@@@01@0U201@11@Z ; stlp_std::priv::__uninitialized_copy_copy<stlp_std::priv::_Deque_iterator<CStatGraph::SElement,stlp_std::_Const_traits<CStatGraph::SElement> >,stlp_std::priv::_Deque_iterator<CStatGraph::SElement,stlp_std::_Nonconst_traits<CStatGraph::SElement> >,stlp_std::priv::_Deque_iterator<CStatGraph::SElement,stlp_std::_Nonconst_traits<CStatGraph::SElement> > >
PUBLIC	??$_M_insert_range_aux@U?$_Deque_iterator@USElement@CStatGraph@@U?$_Const_traits@USElement@CStatGraph@@@stlp_std@@@priv@stlp_std@@@?$_Impl_deque@USElement@CStatGraph@@V?$xalloc@USElement@CStatGraph@@@@@priv@stlp_std@@IAEXU?$_Deque_iterator@USElement@CStatGraph@@U?$_Nonconst_traits@USElement@CStatGraph@@@stlp_std@@@12@U?$_Deque_iterator@USElement@CStatGraph@@U?$_Const_traits@USElement@CStatGraph@@@stlp_std@@@12@1IABU__false_type@2@@Z ; stlp_std::priv::_Impl_deque<CStatGraph::SElement,xalloc<CStatGraph::SElement> >::_M_insert_range_aux<stlp_std::priv::_Deque_iterator<CStatGraph::SElement,stlp_std::_Const_traits<CStatGraph::SElement> > >
PUBLIC	??$_M_insert@U?$_Deque_iterator@USElement@CStatGraph@@U?$_Const_traits@USElement@CStatGraph@@@stlp_std@@@priv@stlp_std@@@?$_Impl_deque@USElement@CStatGraph@@V?$xalloc@USElement@CStatGraph@@@@@priv@stlp_std@@IAEXU?$_Deque_iterator@USElement@CStatGraph@@U?$_Nonconst_traits@USElement@CStatGraph@@@stlp_std@@@12@U?$_Deque_iterator@USElement@CStatGraph@@U?$_Const_traits@USElement@CStatGraph@@@stlp_std@@@12@1ABUforward_iterator_tag@2@@Z ; stlp_std::priv::_Impl_deque<CStatGraph::SElement,xalloc<CStatGraph::SElement> >::_M_insert<stlp_std::priv::_Deque_iterator<CStatGraph::SElement,stlp_std::_Const_traits<CStatGraph::SElement> > >
PUBLIC	??$_M_insert_dispatch@U?$_Deque_iterator@USElement@CStatGraph@@U?$_Const_traits@USElement@CStatGraph@@@stlp_std@@@priv@stlp_std@@@?$_Impl_deque@USElement@CStatGraph@@V?$xalloc@USElement@CStatGraph@@@@@priv@stlp_std@@IAEXU?$_Deque_iterator@USElement@CStatGraph@@U?$_Nonconst_traits@USElement@CStatGraph@@@stlp_std@@@12@U?$_Deque_iterator@USElement@CStatGraph@@U?$_Const_traits@USElement@CStatGraph@@@stlp_std@@@12@1ABU__false_type@2@@Z ; stlp_std::priv::_Impl_deque<CStatGraph::SElement,xalloc<CStatGraph::SElement> >::_M_insert_dispatch<stlp_std::priv::_Deque_iterator<CStatGraph::SElement,stlp_std::_Const_traits<CStatGraph::SElement> > >
PUBLIC	??$insert@U?$_Deque_iterator@USElement@CStatGraph@@U?$_Const_traits@USElement@CStatGraph@@@stlp_std@@@priv@stlp_std@@@?$_Impl_deque@USElement@CStatGraph@@V?$xalloc@USElement@CStatGraph@@@@@priv@stlp_std@@QAEXU?$_Deque_iterator@USElement@CStatGraph@@U?$_Nonconst_traits@USElement@CStatGraph@@@stlp_std@@@12@U?$_Deque_iterator@USElement@CStatGraph@@U?$_Const_traits@USElement@CStatGraph@@@stlp_std@@@12@1@Z ; stlp_std::priv::_Impl_deque<CStatGraph::SElement,xalloc<CStatGraph::SElement> >::insert<stlp_std::priv::_Deque_iterator<CStatGraph::SElement,stlp_std::_Const_traits<CStatGraph::SElement> > >
PUBLIC	??4?$_Impl_deque@USElement@CStatGraph@@V?$xalloc@USElement@CStatGraph@@@@@priv@stlp_std@@QAEAAV012@ABV012@@Z ; stlp_std::priv::_Impl_deque<CStatGraph::SElement,xalloc<CStatGraph::SElement> >::operator=
PUBLIC	??4?$deque@USElement@CStatGraph@@V?$xalloc@USElement@CStatGraph@@@@@stlp_std@@QAEAAV01@ABV01@@Z ; stlp_std::deque<CStatGraph::SElement,xalloc<CStatGraph::SElement> >::operator=
PUBLIC	??4?$xr_deque@USElement@CStatGraph@@V?$xalloc@USElement@CStatGraph@@@@@@QAEAAV0@ABV0@@Z ; xr_deque<CStatGraph::SElement,xalloc<CStatGraph::SElement> >::operator=
PUBLIC	??4SSubGraph@CStatGraph@@QAEAAU01@ABU01@@Z	; CStatGraph::SSubGraph::operator=
PUBLIC	??$__copy@PBUSSubGraph@CStatGraph@@PAU12@H@priv@stlp_std@@YAPAUSSubGraph@CStatGraph@@PBU23@0PAU23@ABUrandom_access_iterator_tag@1@PAH@Z ; stlp_std::priv::__copy<CStatGraph::SSubGraph const *,CStatGraph::SSubGraph *,int>
PUBLIC	??$__copy_ptrs@PBUSSubGraph@CStatGraph@@PAU12@@priv@stlp_std@@YAPAUSSubGraph@CStatGraph@@PBU23@0PAU23@ABU__false_type@1@@Z ; stlp_std::priv::__copy_ptrs<CStatGraph::SSubGraph const *,CStatGraph::SSubGraph *>
PUBLIC	??$xr_free@USElement@CStatGraph@@@@YAXAAPAUSElement@CStatGraph@@@Z ; xr_free<CStatGraph::SElement>
PUBLIC	?deallocate@?$xalloc@USElement@CStatGraph@@@@QBEXPAUSElement@CStatGraph@@I@Z ; xalloc<CStatGraph::SElement>::deallocate
PUBLIC	?buffer_size@?$_Deque_base@USElement@CStatGraph@@V?$xalloc@USElement@CStatGraph@@@@@priv@stlp_std@@SAIXZ ; stlp_std::priv::_Deque_base<CStatGraph::SElement,xalloc<CStatGraph::SElement> >::buffer_size
PUBLIC	?_M_destroy_nodes@?$_Deque_base@USElement@CStatGraph@@V?$xalloc@USElement@CStatGraph@@@@@priv@stlp_std@@IAEXPAPAUSElement@CStatGraph@@0@Z ; stlp_std::priv::_Deque_base<CStatGraph::SElement,xalloc<CStatGraph::SElement> >::_M_destroy_nodes
PUBLIC	??$xr_free@PAUSElement@CStatGraph@@@@YAXAAPAPAUSElement@CStatGraph@@@Z ; xr_free<CStatGraph::SElement *>
PUBLIC	?deallocate@?$xalloc@PAUSElement@CStatGraph@@@@QBEXPAPAUSElement@CStatGraph@@I@Z ; xalloc<CStatGraph::SElement *>::deallocate
PUBLIC	??1?$_Deque_base@USElement@CStatGraph@@V?$xalloc@USElement@CStatGraph@@@@@priv@stlp_std@@QAE@XZ ; stlp_std::priv::_Deque_base<CStatGraph::SElement,xalloc<CStatGraph::SElement> >::~_Deque_base<CStatGraph::SElement,xalloc<CStatGraph::SElement> >
PUBLIC	??0?$_Deque_iterator@USElement@CStatGraph@@U?$_Nonconst_traits@USElement@CStatGraph@@@stlp_std@@@priv@stlp_std@@QAE@ABU012@@Z ; stlp_std::priv::_Deque_iterator<CStatGraph::SElement,stlp_std::_Nonconst_traits<CStatGraph::SElement> >::_Deque_iterator<CStatGraph::SElement,stlp_std::_Nonconst_traits<CStatGraph::SElement> >
PUBLIC	??$__destroy_range_aux@U?$_Deque_iterator@USElement@CStatGraph@@U?$_Nonconst_traits@USElement@CStatGraph@@@stlp_std@@@priv@stlp_std@@USElement@CStatGraph@@@stlp_std@@YAXU?$_Deque_iterator@USElement@CStatGraph@@U?$_Nonconst_traits@USElement@CStatGraph@@@stlp_std@@@priv@0@0PAUSElement@CStatGraph@@ABU__true_type@0@@Z ; stlp_std::__destroy_range_aux<stlp_std::priv::_Deque_iterator<CStatGraph::SElement,stlp_std::_Nonconst_traits<CStatGraph::SElement> >,CStatGraph::SElement>
PUBLIC	??$__destroy_range@U?$_Deque_iterator@USElement@CStatGraph@@U?$_Nonconst_traits@USElement@CStatGraph@@@stlp_std@@@priv@stlp_std@@USElement@CStatGraph@@@stlp_std@@YAXU?$_Deque_iterator@USElement@CStatGraph@@U?$_Nonconst_traits@USElement@CStatGraph@@@stlp_std@@@priv@0@0PAUSElement@CStatGraph@@@Z ; stlp_std::__destroy_range<stlp_std::priv::_Deque_iterator<CStatGraph::SElement,stlp_std::_Nonconst_traits<CStatGraph::SElement> >,CStatGraph::SElement>
PUBLIC	??$_Destroy_Range@U?$_Deque_iterator@USElement@CStatGraph@@U?$_Nonconst_traits@USElement@CStatGraph@@@stlp_std@@@priv@stlp_std@@@stlp_std@@YAXU?$_Deque_iterator@USElement@CStatGraph@@U?$_Nonconst_traits@USElement@CStatGraph@@@stlp_std@@@priv@0@0@Z ; stlp_std::_Destroy_Range<stlp_std::priv::_Deque_iterator<CStatGraph::SElement,stlp_std::_Nonconst_traits<CStatGraph::SElement> > >
PUBLIC	??1?$_Impl_deque@USElement@CStatGraph@@V?$xalloc@USElement@CStatGraph@@@@@priv@stlp_std@@QAE@XZ ; stlp_std::priv::_Impl_deque<CStatGraph::SElement,xalloc<CStatGraph::SElement> >::~_Impl_deque<CStatGraph::SElement,xalloc<CStatGraph::SElement> >
PUBLIC	??1?$deque@USElement@CStatGraph@@V?$xalloc@USElement@CStatGraph@@@@@stlp_std@@QAE@XZ ; stlp_std::deque<CStatGraph::SElement,xalloc<CStatGraph::SElement> >::~deque<CStatGraph::SElement,xalloc<CStatGraph::SElement> >
PUBLIC	??1?$xr_deque@USElement@CStatGraph@@V?$xalloc@USElement@CStatGraph@@@@@@QAE@XZ ; xr_deque<CStatGraph::SElement,xalloc<CStatGraph::SElement> >::~xr_deque<CStatGraph::SElement,xalloc<CStatGraph::SElement> >
PUBLIC	??1SSubGraph@CStatGraph@@QAE@XZ			; CStatGraph::SSubGraph::~SSubGraph
PUBLIC	??_GSSubGraph@CStatGraph@@QAEPAXI@Z		; CStatGraph::SSubGraph::`scalar deleting destructor'
PUBLIC	??$__destroy_aux@USSubGraph@CStatGraph@@@stlp_std@@YAXPAUSSubGraph@CStatGraph@@ABU__false_type@0@@Z ; stlp_std::__destroy_aux<CStatGraph::SSubGraph>
PUBLIC	??$__destroy_range_aux@PAUSSubGraph@CStatGraph@@U12@@stlp_std@@YAXPAUSSubGraph@CStatGraph@@00ABU__false_type@0@@Z ; stlp_std::__destroy_range_aux<CStatGraph::SSubGraph *,CStatGraph::SSubGraph>
PUBLIC	??$__destroy_range@PAUSSubGraph@CStatGraph@@U12@@stlp_std@@YAXPAUSSubGraph@CStatGraph@@00@Z ; stlp_std::__destroy_range<CStatGraph::SSubGraph *,CStatGraph::SSubGraph>
PUBLIC	??$_Destroy_Range@PAUSSubGraph@CStatGraph@@@stlp_std@@YAXPAUSSubGraph@CStatGraph@@0@Z ; stlp_std::_Destroy_Range<CStatGraph::SSubGraph *>
PUBLIC	??4?$_Impl_vector@USSubGraph@CStatGraph@@V?$xalloc@USSubGraph@CStatGraph@@@@@priv@stlp_std@@QAEAAV012@ABV012@@Z ; stlp_std::priv::_Impl_vector<CStatGraph::SSubGraph,xalloc<CStatGraph::SSubGraph> >::operator=
PUBLIC	??4?$vector@USSubGraph@CStatGraph@@V?$xalloc@USSubGraph@CStatGraph@@@@@stlp_std@@QAEAAV01@ABV01@@Z ; stlp_std::vector<CStatGraph::SSubGraph,xalloc<CStatGraph::SSubGraph> >::operator=
PUBLIC	??4?$xr_vector@USSubGraph@CStatGraph@@V?$xalloc@USSubGraph@CStatGraph@@@@@@QAEAAV0@ABV0@@Z ; xr_vector<CStatGraph::SSubGraph,xalloc<CStatGraph::SSubGraph> >::operator=
PUBLIC	?begin@?$_Impl_deque@USMarker@CStatGraph@@V?$xalloc@USMarker@CStatGraph@@@@@priv@stlp_std@@QBE?AU?$_Deque_iterator@USMarker@CStatGraph@@U?$_Const_traits@USMarker@CStatGraph@@@stlp_std@@@23@XZ ; stlp_std::priv::_Impl_deque<CStatGraph::SMarker,xalloc<CStatGraph::SMarker> >::begin
PUBLIC	?end@?$_Impl_deque@USMarker@CStatGraph@@V?$xalloc@USMarker@CStatGraph@@@@@priv@stlp_std@@QBE?AU?$_Deque_iterator@USMarker@CStatGraph@@U?$_Const_traits@USMarker@CStatGraph@@@stlp_std@@@23@XZ ; stlp_std::priv::_Impl_deque<CStatGraph::SMarker,xalloc<CStatGraph::SMarker> >::end
PUBLIC	?_M_destroy_nodes@?$_Deque_base@USMarker@CStatGraph@@V?$xalloc@USMarker@CStatGraph@@@@@priv@stlp_std@@IAEXPAPAUSMarker@CStatGraph@@0@Z ; stlp_std::priv::_Deque_base<CStatGraph::SMarker,xalloc<CStatGraph::SMarker> >::_M_destroy_nodes
PUBLIC	??$__destroy_range_aux@U?$_Deque_iterator@USMarker@CStatGraph@@U?$_Nonconst_traits@USMarker@CStatGraph@@@stlp_std@@@priv@stlp_std@@USMarker@CStatGraph@@@stlp_std@@YAXU?$_Deque_iterator@USMarker@CStatGraph@@U?$_Nonconst_traits@USMarker@CStatGraph@@@stlp_std@@@priv@0@0PAUSMarker@CStatGraph@@ABU__true_type@0@@Z ; stlp_std::__destroy_range_aux<stlp_std::priv::_Deque_iterator<CStatGraph::SMarker,stlp_std::_Nonconst_traits<CStatGraph::SMarker> >,CStatGraph::SMarker>
PUBLIC	??$__destroy_range@U?$_Deque_iterator@USMarker@CStatGraph@@U?$_Nonconst_traits@USMarker@CStatGraph@@@stlp_std@@@priv@stlp_std@@USMarker@CStatGraph@@@stlp_std@@YAXU?$_Deque_iterator@USMarker@CStatGraph@@U?$_Nonconst_traits@USMarker@CStatGraph@@@stlp_std@@@priv@0@0PAUSMarker@CStatGraph@@@Z ; stlp_std::__destroy_range<stlp_std::priv::_Deque_iterator<CStatGraph::SMarker,stlp_std::_Nonconst_traits<CStatGraph::SMarker> >,CStatGraph::SMarker>
PUBLIC	??$_Destroy_Range@U?$_Deque_iterator@USMarker@CStatGraph@@U?$_Nonconst_traits@USMarker@CStatGraph@@@stlp_std@@@priv@stlp_std@@@stlp_std@@YAXU?$_Deque_iterator@USMarker@CStatGraph@@U?$_Nonconst_traits@USMarker@CStatGraph@@@stlp_std@@@priv@0@0@Z ; stlp_std::_Destroy_Range<stlp_std::priv::_Deque_iterator<CStatGraph::SMarker,stlp_std::_Nonconst_traits<CStatGraph::SMarker> > >
PUBLIC	?_M_erase@?$_Impl_deque@USMarker@CStatGraph@@V?$xalloc@USMarker@CStatGraph@@@@@priv@stlp_std@@IAE?AU?$_Deque_iterator@USMarker@CStatGraph@@U?$_Nonconst_traits@USMarker@CStatGraph@@@stlp_std@@@23@U423@0ABU__false_type@3@@Z ; stlp_std::priv::_Impl_deque<CStatGraph::SMarker,xalloc<CStatGraph::SMarker> >::_M_erase
PUBLIC	??$xr_free@USMarker@CStatGraph@@@@YAXAAPAUSMarker@CStatGraph@@@Z ; xr_free<CStatGraph::SMarker>
PUBLIC	?deallocate@?$xalloc@USMarker@CStatGraph@@@@QBEXPAUSMarker@CStatGraph@@I@Z ; xalloc<CStatGraph::SMarker>::deallocate
PUBLIC	??$__destroy_range_aux@PAUSMarker@CStatGraph@@U12@@stlp_std@@YAXPAUSMarker@CStatGraph@@00ABU__true_type@0@@Z ; stlp_std::__destroy_range_aux<CStatGraph::SMarker *,CStatGraph::SMarker>
PUBLIC	??$__destroy_range@PAUSMarker@CStatGraph@@U12@@stlp_std@@YAXPAUSMarker@CStatGraph@@00@Z ; stlp_std::__destroy_range<CStatGraph::SMarker *,CStatGraph::SMarker>
PUBLIC	??$_Destroy_Range@PAUSMarker@CStatGraph@@@stlp_std@@YAXPAUSMarker@CStatGraph@@0@Z ; stlp_std::_Destroy_Range<CStatGraph::SMarker *>
PUBLIC	?clear@?$_Impl_deque@USMarker@CStatGraph@@V?$xalloc@USMarker@CStatGraph@@@@@priv@stlp_std@@QAEXXZ ; stlp_std::priv::_Impl_deque<CStatGraph::SMarker,xalloc<CStatGraph::SMarker> >::clear
PUBLIC	??$?8USMarker@CStatGraph@@@priv@stlp_std@@YA_NABU?$_Deque_iterator_base@USMarker@CStatGraph@@@01@0@Z ; stlp_std::priv::operator==<CStatGraph::SMarker>
PUBLIC	?erase@?$_Impl_deque@USMarker@CStatGraph@@V?$xalloc@USMarker@CStatGraph@@@@@priv@stlp_std@@QAE?AU?$_Deque_iterator@USMarker@CStatGraph@@U?$_Nonconst_traits@USMarker@CStatGraph@@@stlp_std@@@23@U423@0@Z ; stlp_std::priv::_Impl_deque<CStatGraph::SMarker,xalloc<CStatGraph::SMarker> >::erase
PUBLIC	??H?$_Deque_iterator@USMarker@CStatGraph@@U?$_Const_traits@USMarker@CStatGraph@@@stlp_std@@@priv@stlp_std@@QBE?AU012@H@Z ; stlp_std::priv::_Deque_iterator<CStatGraph::SMarker,stlp_std::_Const_traits<CStatGraph::SMarker> >::operator+
PUBLIC	??$__distance@U?$_Deque_iterator@USMarker@CStatGraph@@U?$_Const_traits@USMarker@CStatGraph@@@stlp_std@@@priv@stlp_std@@@stlp_std@@YAHABU?$_Deque_iterator@USMarker@CStatGraph@@U?$_Const_traits@USMarker@CStatGraph@@@stlp_std@@@priv@0@0ABUrandom_access_iterator_tag@0@@Z ; stlp_std::__distance<stlp_std::priv::_Deque_iterator<CStatGraph::SMarker,stlp_std::_Const_traits<CStatGraph::SMarker> > >
PUBLIC	??$distance@U?$_Deque_iterator@USMarker@CStatGraph@@U?$_Const_traits@USMarker@CStatGraph@@@stlp_std@@@priv@stlp_std@@@stlp_std@@YAHU?$_Deque_iterator@USMarker@CStatGraph@@U?$_Const_traits@USMarker@CStatGraph@@@stlp_std@@@priv@0@0@Z ; stlp_std::distance<stlp_std::priv::_Deque_iterator<CStatGraph::SMarker,stlp_std::_Const_traits<CStatGraph::SMarker> > >
PUBLIC	?size@?$_Impl_deque@USMarker@CStatGraph@@V?$xalloc@USMarker@CStatGraph@@@@@priv@stlp_std@@QBEIXZ ; stlp_std::priv::_Impl_deque<CStatGraph::SMarker,xalloc<CStatGraph::SMarker> >::size
PUBLIC	??Z?$_Deque_iterator@USMarker@CStatGraph@@U?$_Nonconst_traits@USMarker@CStatGraph@@@stlp_std@@@priv@stlp_std@@QAEAAU012@H@Z ; stlp_std::priv::_Deque_iterator<CStatGraph::SMarker,stlp_std::_Nonconst_traits<CStatGraph::SMarker> >::operator-=
PUBLIC	??G?$_Deque_iterator@USMarker@CStatGraph@@U?$_Nonconst_traits@USMarker@CStatGraph@@@stlp_std@@@priv@stlp_std@@QBE?AU012@H@Z ; stlp_std::priv::_Deque_iterator<CStatGraph::SMarker,stlp_std::_Nonconst_traits<CStatGraph::SMarker> >::operator-
PUBLIC	?_M_reserve_map_at_front@?$_Impl_deque@USMarker@CStatGraph@@V?$xalloc@USMarker@CStatGraph@@@@@priv@stlp_std@@IAEXI@Z ; stlp_std::priv::_Impl_deque<CStatGraph::SMarker,xalloc<CStatGraph::SMarker> >::_M_reserve_map_at_front
PUBLIC	?_M_new_elements_at_front@?$_Impl_deque@USMarker@CStatGraph@@V?$xalloc@USMarker@CStatGraph@@@@@priv@stlp_std@@IAEXI@Z ; stlp_std::priv::_Impl_deque<CStatGraph::SMarker,xalloc<CStatGraph::SMarker> >::_M_new_elements_at_front
PUBLIC	?_M_reserve_elements_at_front@?$_Impl_deque@USMarker@CStatGraph@@V?$xalloc@USMarker@CStatGraph@@@@@priv@stlp_std@@IAE?AU?$_Deque_iterator@USMarker@CStatGraph@@U?$_Nonconst_traits@USMarker@CStatGraph@@@stlp_std@@@23@I@Z ; stlp_std::priv::_Impl_deque<CStatGraph::SMarker,xalloc<CStatGraph::SMarker> >::_M_reserve_elements_at_front
PUBLIC	??Y?$_Deque_iterator@USMarker@CStatGraph@@U?$_Nonconst_traits@USMarker@CStatGraph@@@stlp_std@@@priv@stlp_std@@QAEAAU012@H@Z ; stlp_std::priv::_Deque_iterator<CStatGraph::SMarker,stlp_std::_Nonconst_traits<CStatGraph::SMarker> >::operator+=
PUBLIC	??H?$_Deque_iterator@USMarker@CStatGraph@@U?$_Nonconst_traits@USMarker@CStatGraph@@@stlp_std@@@priv@stlp_std@@QBE?AU012@H@Z ; stlp_std::priv::_Deque_iterator<CStatGraph::SMarker,stlp_std::_Nonconst_traits<CStatGraph::SMarker> >::operator+
PUBLIC	?buffer_size@?$_Deque_base@USMarker@CStatGraph@@V?$xalloc@USMarker@CStatGraph@@@@@priv@stlp_std@@SAIXZ ; stlp_std::priv::_Deque_base<CStatGraph::SMarker,xalloc<CStatGraph::SMarker> >::buffer_size
PUBLIC	??$xr_alloc@USMarker@CStatGraph@@@@YAPAUSMarker@CStatGraph@@I@Z ; xr_alloc<CStatGraph::SMarker>
PUBLIC	?allocate@?$xalloc@USMarker@CStatGraph@@@@QBEPAUSMarker@CStatGraph@@IPBX@Z ; xalloc<CStatGraph::SMarker>::allocate
PUBLIC	?allocate@?$_STLP_alloc_proxy@IUSMarker@CStatGraph@@V?$xalloc@USMarker@CStatGraph@@@@@priv@stlp_std@@QAEPAUSMarker@CStatGraph@@I@Z ; stlp_std::priv::_STLP_alloc_proxy<unsigned int,CStatGraph::SMarker,xalloc<CStatGraph::SMarker> >::allocate
PUBLIC	??$xr_free@PAUSMarker@CStatGraph@@@@YAXAAPAPAUSMarker@CStatGraph@@@Z ; xr_free<CStatGraph::SMarker *>
PUBLIC	?deallocate@?$xalloc@PAUSMarker@CStatGraph@@@@QBEXPAPAUSMarker@CStatGraph@@I@Z ; xalloc<CStatGraph::SMarker *>::deallocate
PUBLIC	??$xr_alloc@PAUSMarker@CStatGraph@@@@YAPAPAUSMarker@CStatGraph@@I@Z ; xr_alloc<CStatGraph::SMarker *>
PUBLIC	?allocate@?$xalloc@PAUSMarker@CStatGraph@@@@QBEPAPAUSMarker@CStatGraph@@IPBX@Z ; xalloc<CStatGraph::SMarker *>::allocate
PUBLIC	?allocate@?$_STLP_alloc_proxy@PAPAUSMarker@CStatGraph@@PAU12@V?$xalloc@PAUSMarker@CStatGraph@@@@@priv@stlp_std@@QAEPAPAUSMarker@CStatGraph@@I@Z ; stlp_std::priv::_STLP_alloc_proxy<CStatGraph::SMarker * *,CStatGraph::SMarker *,xalloc<CStatGraph::SMarker *> >::allocate
PUBLIC	??$__copy_ptrs@PAPAUSMarker@CStatGraph@@PAPAU12@@priv@stlp_std@@YAPAPAUSMarker@CStatGraph@@PAPAU23@00ABU__true_type@1@@Z ; stlp_std::priv::__copy_ptrs<CStatGraph::SMarker * *,CStatGraph::SMarker * *>
PUBLIC	??$__copy_aux@PAPAUSMarker@CStatGraph@@PAPAU12@@priv@stlp_std@@YAPAPAUSMarker@CStatGraph@@PAPAU23@00ABU__true_type@1@@Z ; stlp_std::priv::__copy_aux<CStatGraph::SMarker * *,CStatGraph::SMarker * *>
PUBLIC	??$copy@PAPAUSMarker@CStatGraph@@PAPAU12@@stlp_std@@YAPAPAUSMarker@CStatGraph@@PAPAU12@00@Z ; stlp_std::copy<CStatGraph::SMarker * *,CStatGraph::SMarker * *>
PUBLIC	?_Answer@?$_BothPtrType@PAPAUSMarker@CStatGraph@@PAPAU12@@stlp_std@@SA?AU__true_type@2@XZ ; stlp_std::_BothPtrType<CStatGraph::SMarker * *,CStatGraph::SMarker * *>::_Answer
PUBLIC	??$_UseTrivialCopy@PAUSMarker@CStatGraph@@PAU12@@stlp_std@@YA?AU?$_TrivialCopy@PAUSMarker@CStatGraph@@PAU12@@0@PAPAUSMarker@CStatGraph@@0@Z ; stlp_std::_UseTrivialCopy<CStatGraph::SMarker *,CStatGraph::SMarker *>
PUBLIC	?_Answer@?$_TrivialCopy@PAUSMarker@CStatGraph@@PAU12@@stlp_std@@SA?AU__true_type@2@XZ ; stlp_std::_TrivialCopy<CStatGraph::SMarker *,CStatGraph::SMarker *>::_Answer
PUBLIC	??$__copy_backward_ptrs@PAPAUSMarker@CStatGraph@@PAPAU12@@priv@stlp_std@@YAPAPAUSMarker@CStatGraph@@PAPAU23@00ABU__true_type@1@@Z ; stlp_std::priv::__copy_backward_ptrs<CStatGraph::SMarker * *,CStatGraph::SMarker * *>
PUBLIC	??$__copy_backward_aux@PAPAUSMarker@CStatGraph@@PAPAU12@@priv@stlp_std@@YAPAPAUSMarker@CStatGraph@@PAPAU23@00ABU__true_type@1@@Z ; stlp_std::priv::__copy_backward_aux<CStatGraph::SMarker * *,CStatGraph::SMarker * *>
PUBLIC	??$copy_backward@PAPAUSMarker@CStatGraph@@PAPAU12@@stlp_std@@YAPAPAUSMarker@CStatGraph@@PAPAU12@00@Z ; stlp_std::copy_backward<CStatGraph::SMarker * *,CStatGraph::SMarker * *>
PUBLIC	?_M_reallocate_map@?$_Impl_deque@USMarker@CStatGraph@@V?$xalloc@USMarker@CStatGraph@@@@@priv@stlp_std@@IAEXI_N@Z ; stlp_std::priv::_Impl_deque<CStatGraph::SMarker,xalloc<CStatGraph::SMarker> >::_M_reallocate_map
PUBLIC	?_M_reserve_map_at_back@?$_Impl_deque@USMarker@CStatGraph@@V?$xalloc@USMarker@CStatGraph@@@@@priv@stlp_std@@IAEXI@Z ; stlp_std::priv::_Impl_deque<CStatGraph::SMarker,xalloc<CStatGraph::SMarker> >::_M_reserve_map_at_back
PUBLIC	?_M_new_elements_at_back@?$_Impl_deque@USMarker@CStatGraph@@V?$xalloc@USMarker@CStatGraph@@@@@priv@stlp_std@@IAEXI@Z ; stlp_std::priv::_Impl_deque<CStatGraph::SMarker,xalloc<CStatGraph::SMarker> >::_M_new_elements_at_back
PUBLIC	?_M_reserve_elements_at_back@?$_Impl_deque@USMarker@CStatGraph@@V?$xalloc@USMarker@CStatGraph@@@@@priv@stlp_std@@IAE?AU?$_Deque_iterator@USMarker@CStatGraph@@U?$_Nonconst_traits@USMarker@CStatGraph@@@stlp_std@@@23@I@Z ; stlp_std::priv::_Impl_deque<CStatGraph::SMarker,xalloc<CStatGraph::SMarker> >::_M_reserve_elements_at_back
PUBLIC	??$__copy@U?$_Deque_iterator@USMarker@CStatGraph@@U?$_Const_traits@USMarker@CStatGraph@@@stlp_std@@@priv@stlp_std@@U?$_Deque_iterator@USMarker@CStatGraph@@U?$_Nonconst_traits@USMarker@CStatGraph@@@stlp_std@@@23@H@priv@stlp_std@@YA?AU?$_Deque_iterator@USMarker@CStatGraph@@U?$_Nonconst_traits@USMarker@CStatGraph@@@stlp_std@@@01@U?$_Deque_iterator@USMarker@CStatGraph@@U?$_Const_traits@USMarker@CStatGraph@@@stlp_std@@@01@0U201@ABUrandom_access_iterator_tag@1@PAH@Z ; stlp_std::priv::__copy<stlp_std::priv::_Deque_iterator<CStatGraph::SMarker,stlp_std::_Const_traits<CStatGraph::SMarker> >,stlp_std::priv::_Deque_iterator<CStatGraph::SMarker,stlp_std::_Nonconst_traits<CStatGraph::SMarker> >,int>
PUBLIC	??$__copy_aux@U?$_Deque_iterator@USMarker@CStatGraph@@U?$_Const_traits@USMarker@CStatGraph@@@stlp_std@@@priv@stlp_std@@U?$_Deque_iterator@USMarker@CStatGraph@@U?$_Nonconst_traits@USMarker@CStatGraph@@@stlp_std@@@23@@priv@stlp_std@@YA?AU?$_Deque_iterator@USMarker@CStatGraph@@U?$_Nonconst_traits@USMarker@CStatGraph@@@stlp_std@@@01@U?$_Deque_iterator@USMarker@CStatGraph@@U?$_Const_traits@USMarker@CStatGraph@@@stlp_std@@@01@0U201@ABU__false_type@1@@Z ; stlp_std::priv::__copy_aux<stlp_std::priv::_Deque_iterator<CStatGraph::SMarker,stlp_std::_Const_traits<CStatGraph::SMarker> >,stlp_std::priv::_Deque_iterator<CStatGraph::SMarker,stlp_std::_Nonconst_traits<CStatGraph::SMarker> > >
PUBLIC	??$copy@U?$_Deque_iterator@USMarker@CStatGraph@@U?$_Const_traits@USMarker@CStatGraph@@@stlp_std@@@priv@stlp_std@@U?$_Deque_iterator@USMarker@CStatGraph@@U?$_Nonconst_traits@USMarker@CStatGraph@@@stlp_std@@@23@@stlp_std@@YA?AU?$_Deque_iterator@USMarker@CStatGraph@@U?$_Nonconst_traits@USMarker@CStatGraph@@@stlp_std@@@priv@0@U?$_Deque_iterator@USMarker@CStatGraph@@U?$_Const_traits@USMarker@CStatGraph@@@stlp_std@@@20@0U120@@Z ; stlp_std::copy<stlp_std::priv::_Deque_iterator<CStatGraph::SMarker,stlp_std::_Const_traits<CStatGraph::SMarker> >,stlp_std::priv::_Deque_iterator<CStatGraph::SMarker,stlp_std::_Nonconst_traits<CStatGraph::SMarker> > >
PUBLIC	?_M_decrement@?$_Deque_iterator_base@USMarker@CStatGraph@@@priv@stlp_std@@QAEXXZ ; stlp_std::priv::_Deque_iterator_base<CStatGraph::SMarker>::_M_decrement
PUBLIC	??F?$_Deque_iterator@USMarker@CStatGraph@@U?$_Nonconst_traits@USMarker@CStatGraph@@@stlp_std@@@priv@stlp_std@@QAEAAU012@XZ ; stlp_std::priv::_Deque_iterator<CStatGraph::SMarker,stlp_std::_Nonconst_traits<CStatGraph::SMarker> >::operator--
PUBLIC	??$__copy_backward@U?$_Deque_iterator@USMarker@CStatGraph@@U?$_Nonconst_traits@USMarker@CStatGraph@@@stlp_std@@@priv@stlp_std@@U123@H@priv@stlp_std@@YA?AU?$_Deque_iterator@USMarker@CStatGraph@@U?$_Nonconst_traits@USMarker@CStatGraph@@@stlp_std@@@01@U201@00ABUrandom_access_iterator_tag@1@PAH@Z ; stlp_std::priv::__copy_backward<stlp_std::priv::_Deque_iterator<CStatGraph::SMarker,stlp_std::_Nonconst_traits<CStatGraph::SMarker> >,stlp_std::priv::_Deque_iterator<CStatGraph::SMarker,stlp_std::_Nonconst_traits<CStatGraph::SMarker> >,int>
PUBLIC	??$__copy_backward_aux@U?$_Deque_iterator@USMarker@CStatGraph@@U?$_Nonconst_traits@USMarker@CStatGraph@@@stlp_std@@@priv@stlp_std@@U123@@priv@stlp_std@@YA?AU?$_Deque_iterator@USMarker@CStatGraph@@U?$_Nonconst_traits@USMarker@CStatGraph@@@stlp_std@@@01@U201@00ABU__false_type@1@@Z ; stlp_std::priv::__copy_backward_aux<stlp_std::priv::_Deque_iterator<CStatGraph::SMarker,stlp_std::_Nonconst_traits<CStatGraph::SMarker> >,stlp_std::priv::_Deque_iterator<CStatGraph::SMarker,stlp_std::_Nonconst_traits<CStatGraph::SMarker> > >
PUBLIC	??$copy_backward@U?$_Deque_iterator@USMarker@CStatGraph@@U?$_Nonconst_traits@USMarker@CStatGraph@@@stlp_std@@@priv@stlp_std@@U123@@stlp_std@@YA?AU?$_Deque_iterator@USMarker@CStatGraph@@U?$_Nonconst_traits@USMarker@CStatGraph@@@stlp_std@@@priv@0@U120@00@Z ; stlp_std::copy_backward<stlp_std::priv::_Deque_iterator<CStatGraph::SMarker,stlp_std::_Nonconst_traits<CStatGraph::SMarker> >,stlp_std::priv::_Deque_iterator<CStatGraph::SMarker,stlp_std::_Nonconst_traits<CStatGraph::SMarker> > >
PUBLIC	??$__copy@U?$_Deque_iterator@USMarker@CStatGraph@@U?$_Nonconst_traits@USMarker@CStatGraph@@@stlp_std@@@priv@stlp_std@@U123@H@priv@stlp_std@@YA?AU?$_Deque_iterator@USMarker@CStatGraph@@U?$_Nonconst_traits@USMarker@CStatGraph@@@stlp_std@@@01@U201@00ABUrandom_access_iterator_tag@1@PAH@Z ; stlp_std::priv::__copy<stlp_std::priv::_Deque_iterator<CStatGraph::SMarker,stlp_std::_Nonconst_traits<CStatGraph::SMarker> >,stlp_std::priv::_Deque_iterator<CStatGraph::SMarker,stlp_std::_Nonconst_traits<CStatGraph::SMarker> >,int>
PUBLIC	??$__copy_aux@U?$_Deque_iterator@USMarker@CStatGraph@@U?$_Nonconst_traits@USMarker@CStatGraph@@@stlp_std@@@priv@stlp_std@@U123@@priv@stlp_std@@YA?AU?$_Deque_iterator@USMarker@CStatGraph@@U?$_Nonconst_traits@USMarker@CStatGraph@@@stlp_std@@@01@U201@00ABU__false_type@1@@Z ; stlp_std::priv::__copy_aux<stlp_std::priv::_Deque_iterator<CStatGraph::SMarker,stlp_std::_Nonconst_traits<CStatGraph::SMarker> >,stlp_std::priv::_Deque_iterator<CStatGraph::SMarker,stlp_std::_Nonconst_traits<CStatGraph::SMarker> > >
PUBLIC	??$copy@U?$_Deque_iterator@USMarker@CStatGraph@@U?$_Nonconst_traits@USMarker@CStatGraph@@@stlp_std@@@priv@stlp_std@@U123@@stlp_std@@YA?AU?$_Deque_iterator@USMarker@CStatGraph@@U?$_Nonconst_traits@USMarker@CStatGraph@@@stlp_std@@@priv@0@U120@00@Z ; stlp_std::copy<stlp_std::priv::_Deque_iterator<CStatGraph::SMarker,stlp_std::_Nonconst_traits<CStatGraph::SMarker> >,stlp_std::priv::_Deque_iterator<CStatGraph::SMarker,stlp_std::_Nonconst_traits<CStatGraph::SMarker> > >
PUBLIC	?_M_advance@?$_Deque_iterator_base@USMarker@CStatGraph@@@priv@stlp_std@@QAEXH@Z ; stlp_std::priv::_Deque_iterator_base<CStatGraph::SMarker>::_M_advance
PUBLIC	??Y?$_Deque_iterator@USMarker@CStatGraph@@U?$_Const_traits@USMarker@CStatGraph@@@stlp_std@@@priv@stlp_std@@QAEAAU012@H@Z ; stlp_std::priv::_Deque_iterator<CStatGraph::SMarker,stlp_std::_Const_traits<CStatGraph::SMarker> >::operator+=
PUBLIC	??$__advance@U?$_Deque_iterator@USMarker@CStatGraph@@U?$_Const_traits@USMarker@CStatGraph@@@stlp_std@@@priv@stlp_std@@H@stlp_std@@YAXAAU?$_Deque_iterator@USMarker@CStatGraph@@U?$_Const_traits@USMarker@CStatGraph@@@stlp_std@@@priv@0@HABUrandom_access_iterator_tag@0@@Z ; stlp_std::__advance<stlp_std::priv::_Deque_iterator<CStatGraph::SMarker,stlp_std::_Const_traits<CStatGraph::SMarker> >,int>
PUBLIC	??$advance@U?$_Deque_iterator@USMarker@CStatGraph@@U?$_Const_traits@USMarker@CStatGraph@@@stlp_std@@@priv@stlp_std@@H@stlp_std@@YAXAAU?$_Deque_iterator@USMarker@CStatGraph@@U?$_Const_traits@USMarker@CStatGraph@@@stlp_std@@@priv@0@H@Z ; stlp_std::advance<stlp_std::priv::_Deque_iterator<CStatGraph::SMarker,stlp_std::_Const_traits<CStatGraph::SMarker> >,int>
PUBLIC	??$__uninitialized_copy_copy@U?$_Deque_iterator@USMarker@CStatGraph@@U?$_Nonconst_traits@USMarker@CStatGraph@@@stlp_std@@@priv@stlp_std@@U?$_Deque_iterator@USMarker@CStatGraph@@U?$_Const_traits@USMarker@CStatGraph@@@stlp_std@@@23@U123@@priv@stlp_std@@YA?AU?$_Deque_iterator@USMarker@CStatGraph@@U?$_Nonconst_traits@USMarker@CStatGraph@@@stlp_std@@@01@U201@0U?$_Deque_iterator@USMarker@CStatGraph@@U?$_Const_traits@USMarker@CStatGraph@@@stlp_std@@@01@10@Z ; stlp_std::priv::__uninitialized_copy_copy<stlp_std::priv::_Deque_iterator<CStatGraph::SMarker,stlp_std::_Nonconst_traits<CStatGraph::SMarker> >,stlp_std::priv::_Deque_iterator<CStatGraph::SMarker,stlp_std::_Const_traits<CStatGraph::SMarker> >,stlp_std::priv::_Deque_iterator<CStatGraph::SMarker,stlp_std::_Nonconst_traits<CStatGraph::SMarker> > >
PUBLIC	?_Answer@?$_BothPtrType@U?$_Deque_iterator@USMarker@CStatGraph@@U?$_Const_traits@USMarker@CStatGraph@@@stlp_std@@@priv@stlp_std@@U?$_Deque_iterator@USMarker@CStatGraph@@U?$_Nonconst_traits@USMarker@CStatGraph@@@stlp_std@@@23@@stlp_std@@SA?AU__false_type@2@XZ ; stlp_std::_BothPtrType<stlp_std::priv::_Deque_iterator<CStatGraph::SMarker,stlp_std::_Const_traits<CStatGraph::SMarker> >,stlp_std::priv::_Deque_iterator<CStatGraph::SMarker,stlp_std::_Nonconst_traits<CStatGraph::SMarker> > >::_Answer
PUBLIC	??D?$_Deque_iterator@USMarker@CStatGraph@@U?$_Const_traits@USMarker@CStatGraph@@@stlp_std@@@priv@stlp_std@@QBEABUSMarker@CStatGraph@@XZ ; stlp_std::priv::_Deque_iterator<CStatGraph::SMarker,stlp_std::_Const_traits<CStatGraph::SMarker> >::operator*
PUBLIC	??G?$_Deque_iterator@USMarker@CStatGraph@@U?$_Const_traits@USMarker@CStatGraph@@@stlp_std@@@priv@stlp_std@@QBEHABU012@@Z ; stlp_std::priv::_Deque_iterator<CStatGraph::SMarker,stlp_std::_Const_traits<CStatGraph::SMarker> >::operator-
PUBLIC	??E?$_Deque_iterator@USMarker@CStatGraph@@U?$_Const_traits@USMarker@CStatGraph@@@stlp_std@@@priv@stlp_std@@QAEAAU012@XZ ; stlp_std::priv::_Deque_iterator<CStatGraph::SMarker,stlp_std::_Const_traits<CStatGraph::SMarker> >::operator++
PUBLIC	??$__ucopy@U?$_Deque_iterator@USMarker@CStatGraph@@U?$_Const_traits@USMarker@CStatGraph@@@stlp_std@@@priv@stlp_std@@U?$_Deque_iterator@USMarker@CStatGraph@@U?$_Nonconst_traits@USMarker@CStatGraph@@@stlp_std@@@23@H@priv@stlp_std@@YA?AU?$_Deque_iterator@USMarker@CStatGraph@@U?$_Nonconst_traits@USMarker@CStatGraph@@@stlp_std@@@01@U?$_Deque_iterator@USMarker@CStatGraph@@U?$_Const_traits@USMarker@CStatGraph@@@stlp_std@@@01@0U201@ABUrandom_access_iterator_tag@1@PAH@Z ; stlp_std::priv::__ucopy<stlp_std::priv::_Deque_iterator<CStatGraph::SMarker,stlp_std::_Const_traits<CStatGraph::SMarker> >,stlp_std::priv::_Deque_iterator<CStatGraph::SMarker,stlp_std::_Nonconst_traits<CStatGraph::SMarker> >,int>
PUBLIC	??$__ucopy_aux@U?$_Deque_iterator@USMarker@CStatGraph@@U?$_Const_traits@USMarker@CStatGraph@@@stlp_std@@@priv@stlp_std@@U?$_Deque_iterator@USMarker@CStatGraph@@U?$_Nonconst_traits@USMarker@CStatGraph@@@stlp_std@@@23@@priv@stlp_std@@YA?AU?$_Deque_iterator@USMarker@CStatGraph@@U?$_Nonconst_traits@USMarker@CStatGraph@@@stlp_std@@@01@U?$_Deque_iterator@USMarker@CStatGraph@@U?$_Const_traits@USMarker@CStatGraph@@@stlp_std@@@01@0U201@ABU__false_type@1@@Z ; stlp_std::priv::__ucopy_aux<stlp_std::priv::_Deque_iterator<CStatGraph::SMarker,stlp_std::_Const_traits<CStatGraph::SMarker> >,stlp_std::priv::_Deque_iterator<CStatGraph::SMarker,stlp_std::_Nonconst_traits<CStatGraph::SMarker> > >
PUBLIC	??$uninitialized_copy@U?$_Deque_iterator@USMarker@CStatGraph@@U?$_Const_traits@USMarker@CStatGraph@@@stlp_std@@@priv@stlp_std@@U?$_Deque_iterator@USMarker@CStatGraph@@U?$_Nonconst_traits@USMarker@CStatGraph@@@stlp_std@@@23@@stlp_std@@YA?AU?$_Deque_iterator@USMarker@CStatGraph@@U?$_Nonconst_traits@USMarker@CStatGraph@@@stlp_std@@@priv@0@U?$_Deque_iterator@USMarker@CStatGraph@@U?$_Const_traits@USMarker@CStatGraph@@@stlp_std@@@20@0U120@@Z ; stlp_std::uninitialized_copy<stlp_std::priv::_Deque_iterator<CStatGraph::SMarker,stlp_std::_Const_traits<CStatGraph::SMarker> >,stlp_std::priv::_Deque_iterator<CStatGraph::SMarker,stlp_std::_Nonconst_traits<CStatGraph::SMarker> > >
PUBLIC	?_Answer@?$_BothPtrType@U?$_Deque_iterator@USMarker@CStatGraph@@U?$_Nonconst_traits@USMarker@CStatGraph@@@stlp_std@@@priv@stlp_std@@U123@@stlp_std@@SA?AU__false_type@2@XZ ; stlp_std::_BothPtrType<stlp_std::priv::_Deque_iterator<CStatGraph::SMarker,stlp_std::_Nonconst_traits<CStatGraph::SMarker> >,stlp_std::priv::_Deque_iterator<CStatGraph::SMarker,stlp_std::_Nonconst_traits<CStatGraph::SMarker> > >::_Answer
PUBLIC	??0?$_Deque_iterator@USMarker@CStatGraph@@U?$_Nonconst_traits@USMarker@CStatGraph@@@stlp_std@@@priv@stlp_std@@QAE@ABU012@@Z ; stlp_std::priv::_Deque_iterator<CStatGraph::SMarker,stlp_std::_Nonconst_traits<CStatGraph::SMarker> >::_Deque_iterator<CStatGraph::SMarker,stlp_std::_Nonconst_traits<CStatGraph::SMarker> >
PUBLIC	??D?$_Deque_iterator@USMarker@CStatGraph@@U?$_Nonconst_traits@USMarker@CStatGraph@@@stlp_std@@@priv@stlp_std@@QBEAAUSMarker@CStatGraph@@XZ ; stlp_std::priv::_Deque_iterator<CStatGraph::SMarker,stlp_std::_Nonconst_traits<CStatGraph::SMarker> >::operator*
PUBLIC	?_M_subtract@?$_Deque_iterator_base@USMarker@CStatGraph@@@priv@stlp_std@@QBEHABU123@@Z ; stlp_std::priv::_Deque_iterator_base<CStatGraph::SMarker>::_M_subtract
PUBLIC	??G?$_Deque_iterator@USMarker@CStatGraph@@U?$_Nonconst_traits@USMarker@CStatGraph@@@stlp_std@@@priv@stlp_std@@QBEHABU?$_Deque_iterator@USMarker@CStatGraph@@U?$_Const_traits@USMarker@CStatGraph@@@stlp_std@@@12@@Z ; stlp_std::priv::_Deque_iterator<CStatGraph::SMarker,stlp_std::_Nonconst_traits<CStatGraph::SMarker> >::operator-
PUBLIC	?_M_set_node@?$_Deque_iterator_base@USMarker@CStatGraph@@@priv@stlp_std@@QAEXPAPAUSMarker@CStatGraph@@@Z ; stlp_std::priv::_Deque_iterator_base<CStatGraph::SMarker>::_M_set_node
PUBLIC	?_M_increment@?$_Deque_iterator_base@USMarker@CStatGraph@@@priv@stlp_std@@QAEXXZ ; stlp_std::priv::_Deque_iterator_base<CStatGraph::SMarker>::_M_increment
PUBLIC	??E?$_Deque_iterator@USMarker@CStatGraph@@U?$_Nonconst_traits@USMarker@CStatGraph@@@stlp_std@@@priv@stlp_std@@QAEAAU012@XZ ; stlp_std::priv::_Deque_iterator<CStatGraph::SMarker,stlp_std::_Nonconst_traits<CStatGraph::SMarker> >::operator++
PUBLIC	??0?$_Deque_iterator@USMarker@CStatGraph@@U?$_Const_traits@USMarker@CStatGraph@@@stlp_std@@@priv@stlp_std@@QAE@ABU?$_Deque_iterator@USMarker@CStatGraph@@U?$_Nonconst_traits@USMarker@CStatGraph@@@stlp_std@@@12@@Z ; stlp_std::priv::_Deque_iterator<CStatGraph::SMarker,stlp_std::_Const_traits<CStatGraph::SMarker> >::_Deque_iterator<CStatGraph::SMarker,stlp_std::_Const_traits<CStatGraph::SMarker> >
PUBLIC	??$_Param_Construct@USMarker@CStatGraph@@U12@@stlp_std@@YAXPAUSMarker@CStatGraph@@ABU12@@Z ; stlp_std::_Param_Construct<CStatGraph::SMarker,CStatGraph::SMarker>
PUBLIC	??$__ucopy@U?$_Deque_iterator@USMarker@CStatGraph@@U?$_Nonconst_traits@USMarker@CStatGraph@@@stlp_std@@@priv@stlp_std@@U123@H@priv@stlp_std@@YA?AU?$_Deque_iterator@USMarker@CStatGraph@@U?$_Nonconst_traits@USMarker@CStatGraph@@@stlp_std@@@01@U201@00ABUrandom_access_iterator_tag@1@PAH@Z ; stlp_std::priv::__ucopy<stlp_std::priv::_Deque_iterator<CStatGraph::SMarker,stlp_std::_Nonconst_traits<CStatGraph::SMarker> >,stlp_std::priv::_Deque_iterator<CStatGraph::SMarker,stlp_std::_Nonconst_traits<CStatGraph::SMarker> >,int>
PUBLIC	??$__ucopy_aux@U?$_Deque_iterator@USMarker@CStatGraph@@U?$_Nonconst_traits@USMarker@CStatGraph@@@stlp_std@@@priv@stlp_std@@U123@@priv@stlp_std@@YA?AU?$_Deque_iterator@USMarker@CStatGraph@@U?$_Nonconst_traits@USMarker@CStatGraph@@@stlp_std@@@01@U201@00ABU__false_type@1@@Z ; stlp_std::priv::__ucopy_aux<stlp_std::priv::_Deque_iterator<CStatGraph::SMarker,stlp_std::_Nonconst_traits<CStatGraph::SMarker> >,stlp_std::priv::_Deque_iterator<CStatGraph::SMarker,stlp_std::_Nonconst_traits<CStatGraph::SMarker> > >
PUBLIC	??$uninitialized_copy@U?$_Deque_iterator@USMarker@CStatGraph@@U?$_Nonconst_traits@USMarker@CStatGraph@@@stlp_std@@@priv@stlp_std@@U123@@stlp_std@@YA?AU?$_Deque_iterator@USMarker@CStatGraph@@U?$_Nonconst_traits@USMarker@CStatGraph@@@stlp_std@@@priv@0@U120@00@Z ; stlp_std::uninitialized_copy<stlp_std::priv::_Deque_iterator<CStatGraph::SMarker,stlp_std::_Nonconst_traits<CStatGraph::SMarker> >,stlp_std::priv::_Deque_iterator<CStatGraph::SMarker,stlp_std::_Nonconst_traits<CStatGraph::SMarker> > >
PUBLIC	??$__uninitialized_copy_copy@U?$_Deque_iterator@USMarker@CStatGraph@@U?$_Const_traits@USMarker@CStatGraph@@@stlp_std@@@priv@stlp_std@@U?$_Deque_iterator@USMarker@CStatGraph@@U?$_Nonconst_traits@USMarker@CStatGraph@@@stlp_std@@@23@U423@@priv@stlp_std@@YA?AU?$_Deque_iterator@USMarker@CStatGraph@@U?$_Nonconst_traits@USMarker@CStatGraph@@@stlp_std@@@01@U?$_Deque_iterator@USMarker@CStatGraph@@U?$_Const_traits@USMarker@CStatGraph@@@stlp_std@@@01@0U201@11@Z ; stlp_std::priv::__uninitialized_copy_copy<stlp_std::priv::_Deque_iterator<CStatGraph::SMarker,stlp_std::_Const_traits<CStatGraph::SMarker> >,stlp_std::priv::_Deque_iterator<CStatGraph::SMarker,stlp_std::_Nonconst_traits<CStatGraph::SMarker> >,stlp_std::priv::_Deque_iterator<CStatGraph::SMarker,stlp_std::_Nonconst_traits<CStatGraph::SMarker> > >
PUBLIC	??$_M_insert_range_aux@U?$_Deque_iterator@USMarker@CStatGraph@@U?$_Const_traits@USMarker@CStatGraph@@@stlp_std@@@priv@stlp_std@@@?$_Impl_deque@USMarker@CStatGraph@@V?$xalloc@USMarker@CStatGraph@@@@@priv@stlp_std@@IAEXU?$_Deque_iterator@USMarker@CStatGraph@@U?$_Nonconst_traits@USMarker@CStatGraph@@@stlp_std@@@12@U?$_Deque_iterator@USMarker@CStatGraph@@U?$_Const_traits@USMarker@CStatGraph@@@stlp_std@@@12@1IABU__false_type@2@@Z ; stlp_std::priv::_Impl_deque<CStatGraph::SMarker,xalloc<CStatGraph::SMarker> >::_M_insert_range_aux<stlp_std::priv::_Deque_iterator<CStatGraph::SMarker,stlp_std::_Const_traits<CStatGraph::SMarker> > >
PUBLIC	??$_M_insert@U?$_Deque_iterator@USMarker@CStatGraph@@U?$_Const_traits@USMarker@CStatGraph@@@stlp_std@@@priv@stlp_std@@@?$_Impl_deque@USMarker@CStatGraph@@V?$xalloc@USMarker@CStatGraph@@@@@priv@stlp_std@@IAEXU?$_Deque_iterator@USMarker@CStatGraph@@U?$_Nonconst_traits@USMarker@CStatGraph@@@stlp_std@@@12@U?$_Deque_iterator@USMarker@CStatGraph@@U?$_Const_traits@USMarker@CStatGraph@@@stlp_std@@@12@1ABUforward_iterator_tag@2@@Z ; stlp_std::priv::_Impl_deque<CStatGraph::SMarker,xalloc<CStatGraph::SMarker> >::_M_insert<stlp_std::priv::_Deque_iterator<CStatGraph::SMarker,stlp_std::_Const_traits<CStatGraph::SMarker> > >
PUBLIC	??$_M_insert_dispatch@U?$_Deque_iterator@USMarker@CStatGraph@@U?$_Const_traits@USMarker@CStatGraph@@@stlp_std@@@priv@stlp_std@@@?$_Impl_deque@USMarker@CStatGraph@@V?$xalloc@USMarker@CStatGraph@@@@@priv@stlp_std@@IAEXU?$_Deque_iterator@USMarker@CStatGraph@@U?$_Nonconst_traits@USMarker@CStatGraph@@@stlp_std@@@12@U?$_Deque_iterator@USMarker@CStatGraph@@U?$_Const_traits@USMarker@CStatGraph@@@stlp_std@@@12@1ABU__false_type@2@@Z ; stlp_std::priv::_Impl_deque<CStatGraph::SMarker,xalloc<CStatGraph::SMarker> >::_M_insert_dispatch<stlp_std::priv::_Deque_iterator<CStatGraph::SMarker,stlp_std::_Const_traits<CStatGraph::SMarker> > >
PUBLIC	??$insert@U?$_Deque_iterator@USMarker@CStatGraph@@U?$_Const_traits@USMarker@CStatGraph@@@stlp_std@@@priv@stlp_std@@@?$_Impl_deque@USMarker@CStatGraph@@V?$xalloc@USMarker@CStatGraph@@@@@priv@stlp_std@@QAEXU?$_Deque_iterator@USMarker@CStatGraph@@U?$_Nonconst_traits@USMarker@CStatGraph@@@stlp_std@@@12@U?$_Deque_iterator@USMarker@CStatGraph@@U?$_Const_traits@USMarker@CStatGraph@@@stlp_std@@@12@1@Z ; stlp_std::priv::_Impl_deque<CStatGraph::SMarker,xalloc<CStatGraph::SMarker> >::insert<stlp_std::priv::_Deque_iterator<CStatGraph::SMarker,stlp_std::_Const_traits<CStatGraph::SMarker> > >
PUBLIC	??4?$_Impl_deque@USMarker@CStatGraph@@V?$xalloc@USMarker@CStatGraph@@@@@priv@stlp_std@@QAEAAV012@ABV012@@Z ; stlp_std::priv::_Impl_deque<CStatGraph::SMarker,xalloc<CStatGraph::SMarker> >::operator=
PUBLIC	??4?$deque@USMarker@CStatGraph@@V?$xalloc@USMarker@CStatGraph@@@@@stlp_std@@QAEAAV01@ABV01@@Z ; stlp_std::deque<CStatGraph::SMarker,xalloc<CStatGraph::SMarker> >::operator=
PUBLIC	??4?$xr_deque@USMarker@CStatGraph@@V?$xalloc@USMarker@CStatGraph@@@@@@QAEAAV0@ABV0@@Z ; xr_deque<CStatGraph::SMarker,xalloc<CStatGraph::SMarker> >::operator=
PUBLIC	??_7CStatGraph@@6B@				; CStatGraph::`vftable'
;	COMDAT ??_7CStatGraph@@6B@
CONST	SEGMENT
??_7CStatGraph@@6B@ DD FLAT:??_R4CStatGraph@@6B@	; CStatGraph::`vftable'
	DD	FLAT:?OnRender@CStatGraph@@UAEXXZ
CONST	ENDS
;	COMDAT ??_R4CStatGraph@@6B@
rdata$r	SEGMENT
??_R4CStatGraph@@6B@ DD 00H				; CStatGraph::`RTTI Complete Object Locator'
	DD	00H
	DD	00H
	DD	FLAT:??_R0?AVCStatGraph@@@8
	DD	FLAT:??_R3CStatGraph@@8
rdata$r	ENDS
;	COMDAT ??_R3CStatGraph@@8
rdata$r	SEGMENT
??_R3CStatGraph@@8 DD 00H				; CStatGraph::`RTTI Class Hierarchy Descriptor'
	DD	00H
	DD	02H
	DD	FLAT:??_R2CStatGraph@@8
rdata$r	ENDS
;	COMDAT ??_R2CStatGraph@@8
rdata$r	SEGMENT
??_R2CStatGraph@@8 DD FLAT:??_R1A@?0A@EA@CStatGraph@@8	; CStatGraph::`RTTI Base Class Array'
	DD	FLAT:??_R1A@?0A@EA@pureRender@@8
rdata$r	ENDS
;	COMDAT ??_R1A@?0A@EA@CStatGraph@@8
rdata$r	SEGMENT
??_R1A@?0A@EA@CStatGraph@@8 DD FLAT:??_R0?AVCStatGraph@@@8 ; CStatGraph::`RTTI Base Class Descriptor at (0,-1,0,64)'
	DD	01H
	DD	00H
	DD	0ffffffffH
	DD	00H
	DD	040H
	DD	FLAT:??_R3CStatGraph@@8
rdata$r	ENDS
;	COMDAT ??_R0?AVCStatGraph@@@8
_DATA	SEGMENT
??_R0?AVCStatGraph@@@8 DD FLAT:??_7type_info@@6B@	; CStatGraph `RTTI Type Descriptor'
	DD	00H
	DB	'.?AVCStatGraph@@', 00H
; Function compile flags: /Ogtpy
; File d:\clearsky\sources\engine\include\xrrender\factoryptr.h
;	COMDAT ?CreateObject@?$FactoryPtr@VIStatGraphRender@@@@AAEXXZ
_TEXT	SEGMENT
_this$ = 8						; size = 4
?CreateObject@?$FactoryPtr@VIStatGraphRender@@@@AAEXXZ PROC ; FactoryPtr<IStatGraphRender>::CreateObject, COMDAT

; 59   : 	FACTORY_PTR_INSTANCIATE(StatGraphRender)

	mov	eax, DWORD PTR __imp_?RenderFactory@@3PAVIRenderFactory@@A
	mov	ecx, DWORD PTR [eax]
	mov	edx, DWORD PTR [ecx]
	mov	eax, DWORD PTR [edx+16]
	call	eax
	mov	ecx, DWORD PTR _this$[esp-4]
	mov	DWORD PTR [ecx], eax
	ret	4
?CreateObject@?$FactoryPtr@VIStatGraphRender@@@@AAEXXZ ENDP ; FactoryPtr<IStatGraphRender>::CreateObject
; Function compile flags: /Ogtpy
_TEXT	ENDS
;	COMDAT ?DestroyObject@?$FactoryPtr@VIStatGraphRender@@@@AAEXXZ
_TEXT	SEGMENT
?DestroyObject@?$FactoryPtr@VIStatGraphRender@@@@AAEXXZ PROC ; FactoryPtr<IStatGraphRender>::DestroyObject, COMDAT
; _this$ = esi

; 59   : 	FACTORY_PTR_INSTANCIATE(StatGraphRender)

	mov	eax, DWORD PTR __imp_?RenderFactory@@3PAVIRenderFactory@@A
	mov	ecx, DWORD PTR [eax]
	mov	edx, DWORD PTR [ecx]
	mov	eax, DWORD PTR [esi]
	mov	edx, DWORD PTR [edx+20]
	push	eax
	call	edx
	mov	DWORD PTR [esi], 0
	ret	0
?DestroyObject@?$FactoryPtr@VIStatGraphRender@@@@AAEXXZ ENDP ; FactoryPtr<IStatGraphRender>::DestroyObject
; Function compile flags: /Ogtpy
; File d:\clearsky\sources\sdk\include\stlport\stl\_construct.h
_TEXT	ENDS
;	COMDAT ??$__destroy_range_aux@PAUSElement@CStatGraph@@U12@@stlp_std@@YAXPAUSElement@CStatGraph@@00ABU__true_type@0@@Z
_TEXT	SEGMENT
??$__destroy_range_aux@PAUSElement@CStatGraph@@U12@@stlp_std@@YAXPAUSElement@CStatGraph@@00ABU__true_type@0@@Z PROC ; stlp_std::__destroy_range_aux<CStatGraph::SElement *,CStatGraph::SElement>, COMDAT

; 169  : __destroy_range_aux(_ForwardIterator, _ForwardIterator, _Tp*, const __true_type& /*_Trivial_destructor*/) {}

	ret	0
??$__destroy_range_aux@PAUSElement@CStatGraph@@U12@@stlp_std@@YAXPAUSElement@CStatGraph@@00ABU__true_type@0@@Z ENDP ; stlp_std::__destroy_range_aux<CStatGraph::SElement *,CStatGraph::SElement>
; Function compile flags: /Ogtpy
_TEXT	ENDS
;	COMDAT ??$__destroy_range@PAUSElement@CStatGraph@@U12@@stlp_std@@YAXPAUSElement@CStatGraph@@00@Z
_TEXT	SEGMENT
??$__destroy_range@PAUSElement@CStatGraph@@U12@@stlp_std@@YAXPAUSElement@CStatGraph@@00@Z PROC ; stlp_std::__destroy_range<CStatGraph::SElement *,CStatGraph::SElement>, COMDAT

; 175  :   typedef typename __type_traits<_Tp>::has_trivial_destructor _Trivial_destructor;
; 176  :   __destroy_range_aux(__first, __last, __ptr, _Trivial_destructor());
; 177  : }

	ret	0
??$__destroy_range@PAUSElement@CStatGraph@@U12@@stlp_std@@YAXPAUSElement@CStatGraph@@00@Z ENDP ; stlp_std::__destroy_range<CStatGraph::SElement *,CStatGraph::SElement>
; Function compile flags: /Ogtpy
; File d:\clearsky\sources\sdk\include\stlport\stl\type_traits.h
_TEXT	ENDS
;	COMDAT ?_Answer@?$_BothPtrType@U?$_Deque_iterator@USElement@CStatGraph@@U?$_Nonconst_traits@USElement@CStatGraph@@@stlp_std@@@priv@stlp_std@@U123@@stlp_std@@SA?AU__false_type@2@XZ
_TEXT	SEGMENT
?_Answer@?$_BothPtrType@U?$_Deque_iterator@USElement@CStatGraph@@U?$_Nonconst_traits@USElement@CStatGraph@@@stlp_std@@@priv@stlp_std@@U123@@stlp_std@@SA?AU__false_type@2@XZ PROC ; stlp_std::_BothPtrType<stlp_std::priv::_Deque_iterator<CStatGraph::SElement,stlp_std::_Nonconst_traits<CStatGraph::SElement> >,stlp_std::priv::_Deque_iterator<CStatGraph::SElement,stlp_std::_Nonconst_traits<CStatGraph::SElement> > >::_Answer, COMDAT

; 468  :   static _Ret _Answer() { return _Ret(); }

	xor	al, al
	ret	0
?_Answer@?$_BothPtrType@U?$_Deque_iterator@USElement@CStatGraph@@U?$_Nonconst_traits@USElement@CStatGraph@@@stlp_std@@@priv@stlp_std@@U123@@stlp_std@@SA?AU__false_type@2@XZ ENDP ; stlp_std::_BothPtrType<stlp_std::priv::_Deque_iterator<CStatGraph::SElement,stlp_std::_Nonconst_traits<CStatGraph::SElement> >,stlp_std::priv::_Deque_iterator<CStatGraph::SElement,stlp_std::_Nonconst_traits<CStatGraph::SElement> > >::_Answer
; Function compile flags: /Ogtpy
; File d:\clearsky\sources\sdk\include\stlport\stl\_construct.h
_TEXT	ENDS
;	COMDAT ??$_Destroy_Range@PAUSElement@CStatGraph@@@stlp_std@@YAXPAUSElement@CStatGraph@@0@Z
_TEXT	SEGMENT
??$_Destroy_Range@PAUSElement@CStatGraph@@@stlp_std@@YAXPAUSElement@CStatGraph@@0@Z PROC ; stlp_std::_Destroy_Range<CStatGraph::SElement *>, COMDAT

; 181  :   __destroy_range(__first, __last, _STLP_VALUE_TYPE(__first, _ForwardIterator));
; 182  : }

	ret	0
??$_Destroy_Range@PAUSElement@CStatGraph@@@stlp_std@@YAXPAUSElement@CStatGraph@@0@Z ENDP ; stlp_std::_Destroy_Range<CStatGraph::SElement *>
; Function compile flags: /Ogtpy
; File d:\clearsky\sources\sdk\include\stlport\stl\type_traits.h
_TEXT	ENDS
;	COMDAT ?_Answer@?$_BothPtrType@U?$_Deque_iterator@USElement@CStatGraph@@U?$_Const_traits@USElement@CStatGraph@@@stlp_std@@@priv@stlp_std@@U?$_Deque_iterator@USElement@CStatGraph@@U?$_Nonconst_traits@USElement@CStatGraph@@@stlp_std@@@23@@stlp_std@@SA?AU__false_type@2@XZ
_TEXT	SEGMENT
?_Answer@?$_BothPtrType@U?$_Deque_iterator@USElement@CStatGraph@@U?$_Const_traits@USElement@CStatGraph@@@stlp_std@@@priv@stlp_std@@U?$_Deque_iterator@USElement@CStatGraph@@U?$_Nonconst_traits@USElement@CStatGraph@@@stlp_std@@@23@@stlp_std@@SA?AU__false_type@2@XZ PROC ; stlp_std::_BothPtrType<stlp_std::priv::_Deque_iterator<CStatGraph::SElement,stlp_std::_Const_traits<CStatGraph::SElement> >,stlp_std::priv::_Deque_iterator<CStatGraph::SElement,stlp_std::_Nonconst_traits<CStatGraph::SElement> > >::_Answer, COMDAT

; 468  :   static _Ret _Answer() { return _Ret(); }

	xor	al, al
	ret	0
?_Answer@?$_BothPtrType@U?$_Deque_iterator@USElement@CStatGraph@@U?$_Const_traits@USElement@CStatGraph@@@stlp_std@@@priv@stlp_std@@U?$_Deque_iterator@USElement@CStatGraph@@U?$_Nonconst_traits@USElement@CStatGraph@@@stlp_std@@@23@@stlp_std@@SA?AU__false_type@2@XZ ENDP ; stlp_std::_BothPtrType<stlp_std::priv::_Deque_iterator<CStatGraph::SElement,stlp_std::_Const_traits<CStatGraph::SElement> >,stlp_std::priv::_Deque_iterator<CStatGraph::SElement,stlp_std::_Nonconst_traits<CStatGraph::SElement> > >::_Answer
; Function compile flags: /Ogtpy
; File d:\clearsky\sources\sdk\include\stlport\stl\_iterator.h
_TEXT	ENDS
;	COMDAT ?base@?$reverse_iterator@PAUSSubGraph@CStatGraph@@@stlp_std@@QBEPAUSSubGraph@CStatGraph@@XZ
_TEXT	SEGMENT
?base@?$reverse_iterator@PAUSSubGraph@CStatGraph@@@stlp_std@@QBEPAUSSubGraph@CStatGraph@@XZ PROC ; stlp_std::reverse_iterator<CStatGraph::SSubGraph *>::base, COMDAT
; _this$ = eax

; 75   :   iterator_type base() const { return current; }

	mov	eax, DWORD PTR [eax]
	ret	0
?base@?$reverse_iterator@PAUSSubGraph@CStatGraph@@@stlp_std@@QBEPAUSSubGraph@CStatGraph@@XZ ENDP ; stlp_std::reverse_iterator<CStatGraph::SSubGraph *>::base
; Function compile flags: /Ogtpy
; File d:\clearsky\sources\sdk\include\stlport\stl\_deque.h
_TEXT	ENDS
;	COMDAT ??$?8USElement@CStatGraph@@@priv@stlp_std@@YA_NABU?$_Deque_iterator_base@USElement@CStatGraph@@@01@0@Z
_TEXT	SEGMENT
??$?8USElement@CStatGraph@@@priv@stlp_std@@YA_NABU?$_Deque_iterator_base@USElement@CStatGraph@@@01@0@Z PROC ; stlp_std::priv::operator==<CStatGraph::SElement>, COMDAT
; ___x$ = eax
; ___y$ = edx

; 235  : { return __x._M_cur == __y._M_cur; }

	mov	ecx, DWORD PTR [eax]
	xor	eax, eax
	cmp	ecx, DWORD PTR [edx]
	sete	al
	ret	0
??$?8USElement@CStatGraph@@@priv@stlp_std@@YA_NABU?$_Deque_iterator_base@USElement@CStatGraph@@@01@0@Z ENDP ; stlp_std::priv::operator==<CStatGraph::SElement>
; Function compile flags: /Ogtpy
; File d:\clearsky\sources\sdk\include\stlport\stl\_iterator.h
_TEXT	ENDS
;	COMDAT ??$?8PAUSSubGraph@CStatGraph@@@stlp_std@@YA_NABV?$reverse_iterator@PAUSSubGraph@CStatGraph@@@0@0@Z
_TEXT	SEGMENT
??$?8PAUSSubGraph@CStatGraph@@@stlp_std@@YA_NABV?$reverse_iterator@PAUSSubGraph@CStatGraph@@@0@0@Z PROC ; stlp_std::operator==<CStatGraph::SSubGraph *>, COMDAT
; ___x$ = eax
; ___y$ = edx

; 116  : { return __x.base() == __y.base(); }

	mov	ecx, DWORD PTR [eax]
	xor	eax, eax
	cmp	ecx, DWORD PTR [edx]
	sete	al
	ret	0
??$?8PAUSSubGraph@CStatGraph@@@stlp_std@@YA_NABV?$reverse_iterator@PAUSSubGraph@CStatGraph@@@0@0@Z ENDP ; stlp_std::operator==<CStatGraph::SSubGraph *>
; Function compile flags: /Ogtpy
; File d:\clearsky\sources\sdk\include\stlport\stl\type_traits.h
_TEXT	ENDS
;	COMDAT ??$_UseTrivialCopy@PAUSMarker@CStatGraph@@PAU12@@stlp_std@@YA?AU?$_TrivialCopy@PAUSMarker@CStatGraph@@PAU12@@0@PAPAUSMarker@CStatGraph@@0@Z
_TEXT	SEGMENT
??$_UseTrivialCopy@PAUSMarker@CStatGraph@@PAU12@@stlp_std@@YA?AU?$_TrivialCopy@PAUSMarker@CStatGraph@@PAU12@@0@PAPAUSMarker@CStatGraph@@0@Z PROC ; stlp_std::_UseTrivialCopy<CStatGraph::SMarker *,CStatGraph::SMarker *>, COMDAT

; 485  : { return _TrivialCopy<_Src, _Dst>(); }

	xor	al, al
	ret	0
??$_UseTrivialCopy@PAUSMarker@CStatGraph@@PAU12@@stlp_std@@YA?AU?$_TrivialCopy@PAUSMarker@CStatGraph@@PAU12@@0@PAPAUSMarker@CStatGraph@@0@Z ENDP ; stlp_std::_UseTrivialCopy<CStatGraph::SMarker *,CStatGraph::SMarker *>
; Function compile flags: /Ogtpy
_TEXT	ENDS
;	COMDAT ??$_UseTrivialUCopy@USSubGraph@CStatGraph@@U12@@stlp_std@@YA?AU?$_TrivialUCopy@USSubGraph@CStatGraph@@U12@@0@PAUSSubGraph@CStatGraph@@0@Z
_TEXT	SEGMENT
??$_UseTrivialUCopy@USSubGraph@CStatGraph@@U12@@stlp_std@@YA?AU?$_TrivialUCopy@USSubGraph@CStatGraph@@U12@@0@PAUSSubGraph@CStatGraph@@0@Z PROC ; stlp_std::_UseTrivialUCopy<CStatGraph::SSubGraph,CStatGraph::SSubGraph>, COMDAT

; 489  : { return _TrivialUCopy<_Src, _Dst>(); }

	xor	al, al
	ret	0
??$_UseTrivialUCopy@USSubGraph@CStatGraph@@U12@@stlp_std@@YA?AU?$_TrivialUCopy@USSubGraph@CStatGraph@@U12@@0@PAUSSubGraph@CStatGraph@@0@Z ENDP ; stlp_std::_UseTrivialUCopy<CStatGraph::SSubGraph,CStatGraph::SSubGraph>
; Function compile flags: /Ogtpy
_TEXT	ENDS
;	COMDAT ??$_UseTrivialCopy@PAUSElement@CStatGraph@@PAU12@@stlp_std@@YA?AU?$_TrivialCopy@PAUSElement@CStatGraph@@PAU12@@0@PAPAUSElement@CStatGraph@@0@Z
_TEXT	SEGMENT
??$_UseTrivialCopy@PAUSElement@CStatGraph@@PAU12@@stlp_std@@YA?AU?$_TrivialCopy@PAUSElement@CStatGraph@@PAU12@@0@PAPAUSElement@CStatGraph@@0@Z PROC ; stlp_std::_UseTrivialCopy<CStatGraph::SElement *,CStatGraph::SElement *>, COMDAT

; 485  : { return _TrivialCopy<_Src, _Dst>(); }

	xor	al, al
	ret	0
??$_UseTrivialCopy@PAUSElement@CStatGraph@@PAU12@@stlp_std@@YA?AU?$_TrivialCopy@PAUSElement@CStatGraph@@PAU12@@0@PAPAUSElement@CStatGraph@@0@Z ENDP ; stlp_std::_UseTrivialCopy<CStatGraph::SElement *,CStatGraph::SElement *>
; Function compile flags: /Ogtpy
_TEXT	ENDS
;	COMDAT ?_Answer@?$_TrivialCopy@PAUSMarker@CStatGraph@@PAU12@@stlp_std@@SA?AU__true_type@2@XZ
_TEXT	SEGMENT
?_Answer@?$_TrivialCopy@PAUSMarker@CStatGraph@@PAU12@@stlp_std@@SA?AU__true_type@2@XZ PROC ; stlp_std::_TrivialCopy<CStatGraph::SMarker *,CStatGraph::SMarker *>::_Answer, COMDAT

; 390  :   static _Ret _Answer() { return _Ret(); }

	xor	al, al
	ret	0
?_Answer@?$_TrivialCopy@PAUSMarker@CStatGraph@@PAU12@@stlp_std@@SA?AU__true_type@2@XZ ENDP ; stlp_std::_TrivialCopy<CStatGraph::SMarker *,CStatGraph::SMarker *>::_Answer
; Function compile flags: /Ogtpy
_TEXT	ENDS
;	COMDAT ?_Answer@?$_TrivialUCopy@USSubGraph@CStatGraph@@U12@@stlp_std@@SA?AU__false_type@2@XZ
_TEXT	SEGMENT
?_Answer@?$_TrivialUCopy@USSubGraph@CStatGraph@@U12@@stlp_std@@SA?AU__false_type@2@XZ PROC ; stlp_std::_TrivialUCopy<CStatGraph::SSubGraph,CStatGraph::SSubGraph>::_Answer, COMDAT

; 407  :   static _Ret _Answer() { return _Ret(); }

	xor	al, al
	ret	0
?_Answer@?$_TrivialUCopy@USSubGraph@CStatGraph@@U12@@stlp_std@@SA?AU__false_type@2@XZ ENDP ; stlp_std::_TrivialUCopy<CStatGraph::SSubGraph,CStatGraph::SSubGraph>::_Answer
; Function compile flags: /Ogtpy
_TEXT	ENDS
;	COMDAT ?_Answer@?$_TrivialCopy@PAUSElement@CStatGraph@@PAU12@@stlp_std@@SA?AU__true_type@2@XZ
_TEXT	SEGMENT
?_Answer@?$_TrivialCopy@PAUSElement@CStatGraph@@PAU12@@stlp_std@@SA?AU__true_type@2@XZ PROC ; stlp_std::_TrivialCopy<CStatGraph::SElement *,CStatGraph::SElement *>::_Answer, COMDAT

; 390  :   static _Ret _Answer() { return _Ret(); }

	xor	al, al
	ret	0
?_Answer@?$_TrivialCopy@PAUSElement@CStatGraph@@PAU12@@stlp_std@@SA?AU__true_type@2@XZ ENDP ; stlp_std::_TrivialCopy<CStatGraph::SElement *,CStatGraph::SElement *>::_Answer
; Function compile flags: /Ogtpy
; File d:\clearsky\sources\sdk\include\stlport\stl\_iterator.h
_TEXT	ENDS
;	COMDAT ??$?9PAUSSubGraph@CStatGraph@@@stlp_std@@YA_NABV?$reverse_iterator@PAUSSubGraph@CStatGraph@@@0@0@Z
_TEXT	SEGMENT
??$?9PAUSSubGraph@CStatGraph@@@stlp_std@@YA_NABV?$reverse_iterator@PAUSSubGraph@CStatGraph@@@0@0@Z PROC ; stlp_std::operator!=<CStatGraph::SSubGraph *>, COMDAT
; ___x$ = eax
; ___y$ = edx

; 127  : { return !(__x == __y); }

	mov	ecx, DWORD PTR [eax]
	xor	eax, eax
	cmp	ecx, DWORD PTR [edx]
	setne	al
	ret	0
??$?9PAUSSubGraph@CStatGraph@@@stlp_std@@YA_NABV?$reverse_iterator@PAUSSubGraph@CStatGraph@@@0@0@Z ENDP ; stlp_std::operator!=<CStatGraph::SSubGraph *>
; Function compile flags: /Ogtpy
; File d:\clearsky\sources\sdk\include\stlport\stl\_construct.h
_TEXT	ENDS
;	COMDAT ??$__destroy_range_aux@PAUSMarker@CStatGraph@@U12@@stlp_std@@YAXPAUSMarker@CStatGraph@@00ABU__true_type@0@@Z
_TEXT	SEGMENT
??$__destroy_range_aux@PAUSMarker@CStatGraph@@U12@@stlp_std@@YAXPAUSMarker@CStatGraph@@00ABU__true_type@0@@Z PROC ; stlp_std::__destroy_range_aux<CStatGraph::SMarker *,CStatGraph::SMarker>, COMDAT

; 169  : __destroy_range_aux(_ForwardIterator, _ForwardIterator, _Tp*, const __true_type& /*_Trivial_destructor*/) {}

	ret	0
??$__destroy_range_aux@PAUSMarker@CStatGraph@@U12@@stlp_std@@YAXPAUSMarker@CStatGraph@@00ABU__true_type@0@@Z ENDP ; stlp_std::__destroy_range_aux<CStatGraph::SMarker *,CStatGraph::SMarker>
; Function compile flags: /Ogtpy
; File d:\clearsky\sources\sdk\include\stlport\stl\type_traits.h
_TEXT	ENDS
;	COMDAT ?_Answer@?$_BothPtrType@PAPAUSMarker@CStatGraph@@PAPAU12@@stlp_std@@SA?AU__true_type@2@XZ
_TEXT	SEGMENT
?_Answer@?$_BothPtrType@PAPAUSMarker@CStatGraph@@PAPAU12@@stlp_std@@SA?AU__true_type@2@XZ PROC ; stlp_std::_BothPtrType<CStatGraph::SMarker * *,CStatGraph::SMarker * *>::_Answer, COMDAT

; 468  :   static _Ret _Answer() { return _Ret(); }

	xor	al, al
	ret	0
?_Answer@?$_BothPtrType@PAPAUSMarker@CStatGraph@@PAPAU12@@stlp_std@@SA?AU__true_type@2@XZ ENDP ; stlp_std::_BothPtrType<CStatGraph::SMarker * *,CStatGraph::SMarker * *>::_Answer
; Function compile flags: /Ogtpy
_TEXT	ENDS
;	COMDAT ?_Answer@?$_BothPtrType@PBUSSubGraph@CStatGraph@@PAU12@@stlp_std@@SA?AU__true_type@2@XZ
_TEXT	SEGMENT
?_Answer@?$_BothPtrType@PBUSSubGraph@CStatGraph@@PAU12@@stlp_std@@SA?AU__true_type@2@XZ PROC ; stlp_std::_BothPtrType<CStatGraph::SSubGraph const *,CStatGraph::SSubGraph *>::_Answer, COMDAT

; 468  :   static _Ret _Answer() { return _Ret(); }

	xor	al, al
	ret	0
?_Answer@?$_BothPtrType@PBUSSubGraph@CStatGraph@@PAU12@@stlp_std@@SA?AU__true_type@2@XZ ENDP ; stlp_std::_BothPtrType<CStatGraph::SSubGraph const *,CStatGraph::SSubGraph *>::_Answer
; Function compile flags: /Ogtpy
_TEXT	ENDS
;	COMDAT ?_Answer@?$_BothPtrType@PAPAUSElement@CStatGraph@@PAPAU12@@stlp_std@@SA?AU__true_type@2@XZ
_TEXT	SEGMENT
?_Answer@?$_BothPtrType@PAPAUSElement@CStatGraph@@PAPAU12@@stlp_std@@SA?AU__true_type@2@XZ PROC ; stlp_std::_BothPtrType<CStatGraph::SElement * *,CStatGraph::SElement * *>::_Answer, COMDAT

; 468  :   static _Ret _Answer() { return _Ret(); }

	xor	al, al
	ret	0
?_Answer@?$_BothPtrType@PAPAUSElement@CStatGraph@@PAPAU12@@stlp_std@@SA?AU__true_type@2@XZ ENDP ; stlp_std::_BothPtrType<CStatGraph::SElement * *,CStatGraph::SElement * *>::_Answer
; Function compile flags: /Ogtpy
; File d:\clearsky\sources\sdk\include\stlport\stl\_deque.h
_TEXT	ENDS
;	COMDAT ??D?$_Deque_iterator@USElement@CStatGraph@@U?$_Const_traits@USElement@CStatGraph@@@stlp_std@@@priv@stlp_std@@QBEABUSElement@CStatGraph@@XZ
_TEXT	SEGMENT
??D?$_Deque_iterator@USElement@CStatGraph@@U?$_Const_traits@USElement@CStatGraph@@@stlp_std@@@priv@stlp_std@@QBEABUSElement@CStatGraph@@XZ PROC ; stlp_std::priv::_Deque_iterator<CStatGraph::SElement,stlp_std::_Const_traits<CStatGraph::SElement> >::operator*, COMDAT
; _this$ = eax

; 187  :     return *this->_M_cur;

	mov	eax, DWORD PTR [eax]

; 188  :   }

	ret	0
??D?$_Deque_iterator@USElement@CStatGraph@@U?$_Const_traits@USElement@CStatGraph@@@stlp_std@@@priv@stlp_std@@QBEABUSElement@CStatGraph@@XZ ENDP ; stlp_std::priv::_Deque_iterator<CStatGraph::SElement,stlp_std::_Const_traits<CStatGraph::SElement> >::operator*
; Function compile flags: /Ogtpy
; File d:\clearsky\sources\sdk\include\stlport\stl\_iterator.h
_TEXT	ENDS
;	COMDAT ??E?$reverse_iterator@PAUSSubGraph@CStatGraph@@@stlp_std@@QAEAAV01@XZ
_TEXT	SEGMENT
??E?$reverse_iterator@PAUSSubGraph@CStatGraph@@@stlp_std@@QAEAAV01@XZ PROC ; stlp_std::reverse_iterator<CStatGraph::SSubGraph *>::operator++, COMDAT
; _this$ = eax

; 82   :     --current;

	add	DWORD PTR [eax], -44			; ffffffd4H

; 83   :     return *this;
; 84   :   }

	ret	0
??E?$reverse_iterator@PAUSSubGraph@CStatGraph@@@stlp_std@@QAEAAV01@XZ ENDP ; stlp_std::reverse_iterator<CStatGraph::SSubGraph *>::operator++
; Function compile flags: /Ogtpy
_TEXT	ENDS
;	COMDAT ??D?$reverse_iterator@PAUSSubGraph@CStatGraph@@@stlp_std@@QBEAAUSSubGraph@CStatGraph@@XZ
_TEXT	SEGMENT
??D?$reverse_iterator@PAUSSubGraph@CStatGraph@@@stlp_std@@QBEAAUSSubGraph@CStatGraph@@XZ PROC ; stlp_std::reverse_iterator<CStatGraph::SSubGraph *>::operator*, COMDAT
; _this$ = eax

; 77   :     _Iterator __tmp = current;
; 78   :     return *--__tmp;

	mov	eax, DWORD PTR [eax]
	sub	eax, 44					; 0000002cH

; 79   :   }

	ret	0
??D?$reverse_iterator@PAUSSubGraph@CStatGraph@@@stlp_std@@QBEAAUSSubGraph@CStatGraph@@XZ ENDP ; stlp_std::reverse_iterator<CStatGraph::SSubGraph *>::operator*
; Function compile flags: /Ogtpy
; File d:\clearsky\sources\sdk\include\stlport\stl\_deque.h
_TEXT	ENDS
;	COMDAT ??D?$_Deque_iterator@USElement@CStatGraph@@U?$_Nonconst_traits@USElement@CStatGraph@@@stlp_std@@@priv@stlp_std@@QBEAAUSElement@CStatGraph@@XZ
_TEXT	SEGMENT
??D?$_Deque_iterator@USElement@CStatGraph@@U?$_Nonconst_traits@USElement@CStatGraph@@@stlp_std@@@priv@stlp_std@@QBEAAUSElement@CStatGraph@@XZ PROC ; stlp_std::priv::_Deque_iterator<CStatGraph::SElement,stlp_std::_Nonconst_traits<CStatGraph::SElement> >::operator*, COMDAT
; _this$ = eax

; 187  :     return *this->_M_cur;

	mov	eax, DWORD PTR [eax]

; 188  :   }

	ret	0
??D?$_Deque_iterator@USElement@CStatGraph@@U?$_Nonconst_traits@USElement@CStatGraph@@@stlp_std@@@priv@stlp_std@@QBEAAUSElement@CStatGraph@@XZ ENDP ; stlp_std::priv::_Deque_iterator<CStatGraph::SElement,stlp_std::_Nonconst_traits<CStatGraph::SElement> >::operator*
; Function compile flags: /Ogtpy
; File d:\clearsky\sources\sdk\include\stlport\stl\_construct.h
_TEXT	ENDS
;	COMDAT ??$__destroy_aux@USMarker@CStatGraph@@@stlp_std@@YAXPAUSMarker@CStatGraph@@ABU__true_type@0@@Z
_TEXT	SEGMENT
??$__destroy_aux@USMarker@CStatGraph@@@stlp_std@@YAXPAUSMarker@CStatGraph@@ABU__true_type@0@@Z PROC ; stlp_std::__destroy_aux<CStatGraph::SMarker>, COMDAT

; 56   : inline void __destroy_aux(_Tp*, const __true_type& /*_Trivial_destructor*/) {}

	ret	0
??$__destroy_aux@USMarker@CStatGraph@@@stlp_std@@YAXPAUSMarker@CStatGraph@@ABU__true_type@0@@Z ENDP ; stlp_std::__destroy_aux<CStatGraph::SMarker>
; Function compile flags: /Ogtpy
_TEXT	ENDS
;	COMDAT ??$__destroy_range_aux@U?$_Deque_iterator@USMarker@CStatGraph@@U?$_Nonconst_traits@USMarker@CStatGraph@@@stlp_std@@@priv@stlp_std@@USMarker@CStatGraph@@@stlp_std@@YAXU?$_Deque_iterator@USMarker@CStatGraph@@U?$_Nonconst_traits@USMarker@CStatGraph@@@stlp_std@@@priv@0@0PAUSMarker@CStatGraph@@ABU__true_type@0@@Z
_TEXT	SEGMENT
___formal$ = 8						; size = 16
___formal$ = 24						; size = 16
??$__destroy_range_aux@U?$_Deque_iterator@USMarker@CStatGraph@@U?$_Nonconst_traits@USMarker@CStatGraph@@@stlp_std@@@priv@stlp_std@@USMarker@CStatGraph@@@stlp_std@@YAXU?$_Deque_iterator@USMarker@CStatGraph@@U?$_Nonconst_traits@USMarker@CStatGraph@@@stlp_std@@@priv@0@0PAUSMarker@CStatGraph@@ABU__true_type@0@@Z PROC ; stlp_std::__destroy_range_aux<stlp_std::priv::_Deque_iterator<CStatGraph::SMarker,stlp_std::_Nonconst_traits<CStatGraph::SMarker> >,CStatGraph::SMarker>, COMDAT

; 169  : __destroy_range_aux(_ForwardIterator, _ForwardIterator, _Tp*, const __true_type& /*_Trivial_destructor*/) {}

	ret	0
??$__destroy_range_aux@U?$_Deque_iterator@USMarker@CStatGraph@@U?$_Nonconst_traits@USMarker@CStatGraph@@@stlp_std@@@priv@stlp_std@@USMarker@CStatGraph@@@stlp_std@@YAXU?$_Deque_iterator@USMarker@CStatGraph@@U?$_Nonconst_traits@USMarker@CStatGraph@@@stlp_std@@@priv@0@0PAUSMarker@CStatGraph@@ABU__true_type@0@@Z ENDP ; stlp_std::__destroy_range_aux<stlp_std::priv::_Deque_iterator<CStatGraph::SMarker,stlp_std::_Nonconst_traits<CStatGraph::SMarker> >,CStatGraph::SMarker>
; Function compile flags: /Ogtpy
_TEXT	ENDS
;	COMDAT ??$__destroy_range_aux@U?$_Deque_iterator@USElement@CStatGraph@@U?$_Nonconst_traits@USElement@CStatGraph@@@stlp_std@@@priv@stlp_std@@USElement@CStatGraph@@@stlp_std@@YAXU?$_Deque_iterator@USElement@CStatGraph@@U?$_Nonconst_traits@USElement@CStatGraph@@@stlp_std@@@priv@0@0PAUSElement@CStatGraph@@ABU__true_type@0@@Z
_TEXT	SEGMENT
___formal$ = 8						; size = 16
___formal$ = 24						; size = 16
??$__destroy_range_aux@U?$_Deque_iterator@USElement@CStatGraph@@U?$_Nonconst_traits@USElement@CStatGraph@@@stlp_std@@@priv@stlp_std@@USElement@CStatGraph@@@stlp_std@@YAXU?$_Deque_iterator@USElement@CStatGraph@@U?$_Nonconst_traits@USElement@CStatGraph@@@stlp_std@@@priv@0@0PAUSElement@CStatGraph@@ABU__true_type@0@@Z PROC ; stlp_std::__destroy_range_aux<stlp_std::priv::_Deque_iterator<CStatGraph::SElement,stlp_std::_Nonconst_traits<CStatGraph::SElement> >,CStatGraph::SElement>, COMDAT

; 169  : __destroy_range_aux(_ForwardIterator, _ForwardIterator, _Tp*, const __true_type& /*_Trivial_destructor*/) {}

	ret	0
??$__destroy_range_aux@U?$_Deque_iterator@USElement@CStatGraph@@U?$_Nonconst_traits@USElement@CStatGraph@@@stlp_std@@@priv@stlp_std@@USElement@CStatGraph@@@stlp_std@@YAXU?$_Deque_iterator@USElement@CStatGraph@@U?$_Nonconst_traits@USElement@CStatGraph@@@stlp_std@@@priv@0@0PAUSElement@CStatGraph@@ABU__true_type@0@@Z ENDP ; stlp_std::__destroy_range_aux<stlp_std::priv::_Deque_iterator<CStatGraph::SElement,stlp_std::_Nonconst_traits<CStatGraph::SElement> >,CStatGraph::SElement>
; Function compile flags: /Ogtpy
_TEXT	ENDS
;	COMDAT ??$__destroy_range@PAUSMarker@CStatGraph@@U12@@stlp_std@@YAXPAUSMarker@CStatGraph@@00@Z
_TEXT	SEGMENT
??$__destroy_range@PAUSMarker@CStatGraph@@U12@@stlp_std@@YAXPAUSMarker@CStatGraph@@00@Z PROC ; stlp_std::__destroy_range<CStatGraph::SMarker *,CStatGraph::SMarker>, COMDAT

; 175  :   typedef typename __type_traits<_Tp>::has_trivial_destructor _Trivial_destructor;
; 176  :   __destroy_range_aux(__first, __last, __ptr, _Trivial_destructor());
; 177  : }

	ret	0
??$__destroy_range@PAUSMarker@CStatGraph@@U12@@stlp_std@@YAXPAUSMarker@CStatGraph@@00@Z ENDP ; stlp_std::__destroy_range<CStatGraph::SMarker *,CStatGraph::SMarker>
; Function compile flags: /Ogtpy
; File d:\clearsky\sources\sdk\include\stlport\stl\type_traits.h
_TEXT	ENDS
;	COMDAT ?_Answer@?$_BothPtrType@U?$_Deque_iterator@USMarker@CStatGraph@@U?$_Nonconst_traits@USMarker@CStatGraph@@@stlp_std@@@priv@stlp_std@@U123@@stlp_std@@SA?AU__false_type@2@XZ
_TEXT	SEGMENT
?_Answer@?$_BothPtrType@U?$_Deque_iterator@USMarker@CStatGraph@@U?$_Nonconst_traits@USMarker@CStatGraph@@@stlp_std@@@priv@stlp_std@@U123@@stlp_std@@SA?AU__false_type@2@XZ PROC ; stlp_std::_BothPtrType<stlp_std::priv::_Deque_iterator<CStatGraph::SMarker,stlp_std::_Nonconst_traits<CStatGraph::SMarker> >,stlp_std::priv::_Deque_iterator<CStatGraph::SMarker,stlp_std::_Nonconst_traits<CStatGraph::SMarker> > >::_Answer, COMDAT

; 468  :   static _Ret _Answer() { return _Ret(); }

	xor	al, al
	ret	0
?_Answer@?$_BothPtrType@U?$_Deque_iterator@USMarker@CStatGraph@@U?$_Nonconst_traits@USMarker@CStatGraph@@@stlp_std@@@priv@stlp_std@@U123@@stlp_std@@SA?AU__false_type@2@XZ ENDP ; stlp_std::_BothPtrType<stlp_std::priv::_Deque_iterator<CStatGraph::SMarker,stlp_std::_Nonconst_traits<CStatGraph::SMarker> >,stlp_std::priv::_Deque_iterator<CStatGraph::SMarker,stlp_std::_Nonconst_traits<CStatGraph::SMarker> > >::_Answer
; Function compile flags: /Ogtpy
_TEXT	ENDS
;	COMDAT ?_Answer@?$_BothPtrType@U?$_Deque_iterator@USMarker@CStatGraph@@U?$_Const_traits@USMarker@CStatGraph@@@stlp_std@@@priv@stlp_std@@U?$_Deque_iterator@USMarker@CStatGraph@@U?$_Nonconst_traits@USMarker@CStatGraph@@@stlp_std@@@23@@stlp_std@@SA?AU__false_type@2@XZ
_TEXT	SEGMENT
?_Answer@?$_BothPtrType@U?$_Deque_iterator@USMarker@CStatGraph@@U?$_Const_traits@USMarker@CStatGraph@@@stlp_std@@@priv@stlp_std@@U?$_Deque_iterator@USMarker@CStatGraph@@U?$_Nonconst_traits@USMarker@CStatGraph@@@stlp_std@@@23@@stlp_std@@SA?AU__false_type@2@XZ PROC ; stlp_std::_BothPtrType<stlp_std::priv::_Deque_iterator<CStatGraph::SMarker,stlp_std::_Const_traits<CStatGraph::SMarker> >,stlp_std::priv::_Deque_iterator<CStatGraph::SMarker,stlp_std::_Nonconst_traits<CStatGraph::SMarker> > >::_Answer, COMDAT

; 468  :   static _Ret _Answer() { return _Ret(); }

	xor	al, al
	ret	0
?_Answer@?$_BothPtrType@U?$_Deque_iterator@USMarker@CStatGraph@@U?$_Const_traits@USMarker@CStatGraph@@@stlp_std@@@priv@stlp_std@@U?$_Deque_iterator@USMarker@CStatGraph@@U?$_Nonconst_traits@USMarker@CStatGraph@@@stlp_std@@@23@@stlp_std@@SA?AU__false_type@2@XZ ENDP ; stlp_std::_BothPtrType<stlp_std::priv::_Deque_iterator<CStatGraph::SMarker,stlp_std::_Const_traits<CStatGraph::SMarker> >,stlp_std::priv::_Deque_iterator<CStatGraph::SMarker,stlp_std::_Nonconst_traits<CStatGraph::SMarker> > >::_Answer
; Function compile flags: /Ogtpy
; File d:\clearsky\sources\sdk\include\stlport\stl\_deque.h
_TEXT	ENDS
;	COMDAT ??D?$_Deque_iterator@USMarker@CStatGraph@@U?$_Const_traits@USMarker@CStatGraph@@@stlp_std@@@priv@stlp_std@@QBEABUSMarker@CStatGraph@@XZ
_TEXT	SEGMENT
??D?$_Deque_iterator@USMarker@CStatGraph@@U?$_Const_traits@USMarker@CStatGraph@@@stlp_std@@@priv@stlp_std@@QBEABUSMarker@CStatGraph@@XZ PROC ; stlp_std::priv::_Deque_iterator<CStatGraph::SMarker,stlp_std::_Const_traits<CStatGraph::SMarker> >::operator*, COMDAT
; _this$ = eax

; 187  :     return *this->_M_cur;

	mov	eax, DWORD PTR [eax]

; 188  :   }

	ret	0
??D?$_Deque_iterator@USMarker@CStatGraph@@U?$_Const_traits@USMarker@CStatGraph@@@stlp_std@@@priv@stlp_std@@QBEABUSMarker@CStatGraph@@XZ ENDP ; stlp_std::priv::_Deque_iterator<CStatGraph::SMarker,stlp_std::_Const_traits<CStatGraph::SMarker> >::operator*
; Function compile flags: /Ogtpy
; File d:\clearsky\sources\engine\xrcore\xrmemory.h
_TEXT	ENDS
;	COMDAT ??$xr_alloc@PAUSMarker@CStatGraph@@@@YAPAPAUSMarker@CStatGraph@@I@Z
_TEXT	SEGMENT
??$xr_alloc@PAUSMarker@CStatGraph@@@@YAPAPAUSMarker@CStatGraph@@I@Z PROC ; xr_alloc<CStatGraph::SMarker *>, COMDAT
; _count$ = eax

; 109  : 	IC T*		xr_alloc	(u32 count)				{	return  (T*)Memory.mem_alloc(count*sizeof(T));	}

	lea	ecx, DWORD PTR [eax*4]
	push	ecx
	mov	ecx, DWORD PTR __imp_?Memory@@3VxrMemory@@A
	call	DWORD PTR __imp_?mem_alloc@xrMemory@@QAEPAXI@Z
	ret	0
??$xr_alloc@PAUSMarker@CStatGraph@@@@YAPAPAUSMarker@CStatGraph@@I@Z ENDP ; xr_alloc<CStatGraph::SMarker *>
; Function compile flags: /Ogtpy
_TEXT	ENDS
;	COMDAT ??$xr_alloc@USMarker@CStatGraph@@@@YAPAUSMarker@CStatGraph@@I@Z
_TEXT	SEGMENT
??$xr_alloc@USMarker@CStatGraph@@@@YAPAUSMarker@CStatGraph@@I@Z PROC ; xr_alloc<CStatGraph::SMarker>, COMDAT
; _count$ = eax

; 109  : 	IC T*		xr_alloc	(u32 count)				{	return  (T*)Memory.mem_alloc(count*sizeof(T));	}

	mov	ecx, DWORD PTR __imp_?Memory@@3VxrMemory@@A
	lea	eax, DWORD PTR [eax+eax*2]
	add	eax, eax
	add	eax, eax
	push	eax
	call	DWORD PTR __imp_?mem_alloc@xrMemory@@QAEPAXI@Z
	ret	0
??$xr_alloc@USMarker@CStatGraph@@@@YAPAUSMarker@CStatGraph@@I@Z ENDP ; xr_alloc<CStatGraph::SMarker>
; Function compile flags: /Ogtpy
_TEXT	ENDS
;	COMDAT ??$xr_alloc@PAUSElement@CStatGraph@@@@YAPAPAUSElement@CStatGraph@@I@Z
_TEXT	SEGMENT
??$xr_alloc@PAUSElement@CStatGraph@@@@YAPAPAUSElement@CStatGraph@@I@Z PROC ; xr_alloc<CStatGraph::SElement *>, COMDAT
; _count$ = eax

; 109  : 	IC T*		xr_alloc	(u32 count)				{	return  (T*)Memory.mem_alloc(count*sizeof(T));	}

	lea	ecx, DWORD PTR [eax*4]
	push	ecx
	mov	ecx, DWORD PTR __imp_?Memory@@3VxrMemory@@A
	call	DWORD PTR __imp_?mem_alloc@xrMemory@@QAEPAXI@Z
	ret	0
??$xr_alloc@PAUSElement@CStatGraph@@@@YAPAPAUSElement@CStatGraph@@I@Z ENDP ; xr_alloc<CStatGraph::SElement *>
; Function compile flags: /Ogtpy
_TEXT	ENDS
;	COMDAT ??$xr_alloc@USElement@CStatGraph@@@@YAPAUSElement@CStatGraph@@I@Z
_TEXT	SEGMENT
??$xr_alloc@USElement@CStatGraph@@@@YAPAUSElement@CStatGraph@@I@Z PROC ; xr_alloc<CStatGraph::SElement>, COMDAT
; _count$ = eax

; 109  : 	IC T*		xr_alloc	(u32 count)				{	return  (T*)Memory.mem_alloc(count*sizeof(T));	}

	lea	ecx, DWORD PTR [eax*8]
	push	ecx
	mov	ecx, DWORD PTR __imp_?Memory@@3VxrMemory@@A
	call	DWORD PTR __imp_?mem_alloc@xrMemory@@QAEPAXI@Z
	ret	0
??$xr_alloc@USElement@CStatGraph@@@@YAPAUSElement@CStatGraph@@I@Z ENDP ; xr_alloc<CStatGraph::SElement>
; Function compile flags: /Ogtpy
_TEXT	ENDS
;	COMDAT ??$xr_free@PAUSMarker@CStatGraph@@@@YAXAAPAPAUSMarker@CStatGraph@@@Z
_TEXT	SEGMENT
??$xr_free@PAUSMarker@CStatGraph@@@@YAXAAPAPAUSMarker@CStatGraph@@@Z PROC ; xr_free<CStatGraph::SMarker *>, COMDAT
; _P$ = esi

; 111  : 	IC void		xr_free		(T* &P)					{	if (P) { Memory.mem_free((void*)P); P=NULL;	};	}

	mov	eax, DWORD PTR [esi]
	test	eax, eax
	je	SHORT $LN1@xr_free@8
	mov	ecx, DWORD PTR __imp_?Memory@@3VxrMemory@@A
	push	eax
	call	DWORD PTR __imp_?mem_free@xrMemory@@QAEXPAX@Z
	mov	DWORD PTR [esi], 0
$LN1@xr_free@8:
	ret	0
??$xr_free@PAUSMarker@CStatGraph@@@@YAXAAPAPAUSMarker@CStatGraph@@@Z ENDP ; xr_free<CStatGraph::SMarker *>
; Function compile flags: /Ogtpy
; File d:\clearsky\sources\sdk\include\stlport\stl\_deque.h
_TEXT	ENDS
;	COMDAT ??$?8USMarker@CStatGraph@@@priv@stlp_std@@YA_NABU?$_Deque_iterator_base@USMarker@CStatGraph@@@01@0@Z
_TEXT	SEGMENT
??$?8USMarker@CStatGraph@@@priv@stlp_std@@YA_NABU?$_Deque_iterator_base@USMarker@CStatGraph@@@01@0@Z PROC ; stlp_std::priv::operator==<CStatGraph::SMarker>, COMDAT
; ___x$ = eax
; ___y$ = edx

; 235  : { return __x._M_cur == __y._M_cur; }

	mov	ecx, DWORD PTR [eax]
	xor	eax, eax
	cmp	ecx, DWORD PTR [edx]
	sete	al
	ret	0
??$?8USMarker@CStatGraph@@@priv@stlp_std@@YA_NABU?$_Deque_iterator_base@USMarker@CStatGraph@@@01@0@Z ENDP ; stlp_std::priv::operator==<CStatGraph::SMarker>
; Function compile flags: /Ogtpy
; File d:\clearsky\sources\sdk\include\stlport\stl\_construct.h
_TEXT	ENDS
;	COMDAT ??$_Destroy@USMarker@CStatGraph@@@stlp_std@@YAXPAUSMarker@CStatGraph@@@Z
_TEXT	SEGMENT
??$_Destroy@USMarker@CStatGraph@@@stlp_std@@YAXPAUSMarker@CStatGraph@@@Z PROC ; stlp_std::_Destroy<CStatGraph::SMarker>, COMDAT

; 60   : #if defined (_STLP_MSVC) && (_STLP_MSVC <= 1010)
; 61   :   __pointer;
; 62   : #endif
; 63   :   typedef typename __type_traits<_Tp>::has_trivial_destructor _Trivial_destructor;
; 64   :   __destroy_aux(__pointer, _Trivial_destructor());
; 65   : #if defined (_STLP_DEBUG_UNINITIALIZED)
; 66   :   memset(__REINTERPRET_CAST(char*, __pointer), _STLP_SHRED_BYTE, sizeof(_Tp));
; 67   : #endif
; 68   : }

	ret	0
??$_Destroy@USMarker@CStatGraph@@@stlp_std@@YAXPAUSMarker@CStatGraph@@@Z ENDP ; stlp_std::_Destroy<CStatGraph::SMarker>
; Function compile flags: /Ogtpy
; File d:\clearsky\sources\engine\xrcore\xrmemory.h
_TEXT	ENDS
;	COMDAT ??$xr_free@USMarker@CStatGraph@@@@YAXAAPAUSMarker@CStatGraph@@@Z
_TEXT	SEGMENT
??$xr_free@USMarker@CStatGraph@@@@YAXAAPAUSMarker@CStatGraph@@@Z PROC ; xr_free<CStatGraph::SMarker>, COMDAT
; _P$ = esi

; 111  : 	IC void		xr_free		(T* &P)					{	if (P) { Memory.mem_free((void*)P); P=NULL;	};	}

	mov	eax, DWORD PTR [esi]
	test	eax, eax
	je	SHORT $LN1@xr_free@9
	mov	ecx, DWORD PTR __imp_?Memory@@3VxrMemory@@A
	push	eax
	call	DWORD PTR __imp_?mem_free@xrMemory@@QAEXPAX@Z
	mov	DWORD PTR [esi], 0
$LN1@xr_free@9:
	ret	0
??$xr_free@USMarker@CStatGraph@@@@YAXAAPAUSMarker@CStatGraph@@@Z ENDP ; xr_free<CStatGraph::SMarker>
; Function compile flags: /Ogtpy
_TEXT	ENDS
;	COMDAT ??$xr_free@PAUSElement@CStatGraph@@@@YAXAAPAPAUSElement@CStatGraph@@@Z
_TEXT	SEGMENT
??$xr_free@PAUSElement@CStatGraph@@@@YAXAAPAPAUSElement@CStatGraph@@@Z PROC ; xr_free<CStatGraph::SElement *>, COMDAT
; _P$ = esi

; 111  : 	IC void		xr_free		(T* &P)					{	if (P) { Memory.mem_free((void*)P); P=NULL;	};	}

	mov	eax, DWORD PTR [esi]
	test	eax, eax
	je	SHORT $LN1@xr_free@10
	mov	ecx, DWORD PTR __imp_?Memory@@3VxrMemory@@A
	push	eax
	call	DWORD PTR __imp_?mem_free@xrMemory@@QAEXPAX@Z
	mov	DWORD PTR [esi], 0
$LN1@xr_free@10:
	ret	0
??$xr_free@PAUSElement@CStatGraph@@@@YAXAAPAPAUSElement@CStatGraph@@@Z ENDP ; xr_free<CStatGraph::SElement *>
; Function compile flags: /Ogtpy
_TEXT	ENDS
;	COMDAT ??$xr_free@USElement@CStatGraph@@@@YAXAAPAUSElement@CStatGraph@@@Z
_TEXT	SEGMENT
??$xr_free@USElement@CStatGraph@@@@YAXAAPAUSElement@CStatGraph@@@Z PROC ; xr_free<CStatGraph::SElement>, COMDAT
; _P$ = esi

; 111  : 	IC void		xr_free		(T* &P)					{	if (P) { Memory.mem_free((void*)P); P=NULL;	};	}

	mov	eax, DWORD PTR [esi]
	test	eax, eax
	je	SHORT $LN1@xr_free@11
	mov	ecx, DWORD PTR __imp_?Memory@@3VxrMemory@@A
	push	eax
	call	DWORD PTR __imp_?mem_free@xrMemory@@QAEXPAX@Z
	mov	DWORD PTR [esi], 0
$LN1@xr_free@11:
	ret	0
??$xr_free@USElement@CStatGraph@@@@YAXAAPAUSElement@CStatGraph@@@Z ENDP ; xr_free<CStatGraph::SElement>
; Function compile flags: /Ogtpy
; File d:\clearsky\sources\sdk\include\stlport\stl\_construct.h
_TEXT	ENDS
;	COMDAT ??$__destroy_aux@USElement@CStatGraph@@@stlp_std@@YAXPAUSElement@CStatGraph@@ABU__true_type@0@@Z
_TEXT	SEGMENT
??$__destroy_aux@USElement@CStatGraph@@@stlp_std@@YAXPAUSElement@CStatGraph@@ABU__true_type@0@@Z PROC ; stlp_std::__destroy_aux<CStatGraph::SElement>, COMDAT

; 56   : inline void __destroy_aux(_Tp*, const __true_type& /*_Trivial_destructor*/) {}

	ret	0
??$__destroy_aux@USElement@CStatGraph@@@stlp_std@@YAXPAUSElement@CStatGraph@@ABU__true_type@0@@Z ENDP ; stlp_std::__destroy_aux<CStatGraph::SElement>
; Function compile flags: /Ogtpy
_TEXT	ENDS
;	COMDAT ??$_Destroy_Range@PAUSMarker@CStatGraph@@@stlp_std@@YAXPAUSMarker@CStatGraph@@0@Z
_TEXT	SEGMENT
??$_Destroy_Range@PAUSMarker@CStatGraph@@@stlp_std@@YAXPAUSMarker@CStatGraph@@0@Z PROC ; stlp_std::_Destroy_Range<CStatGraph::SMarker *>, COMDAT

; 181  :   __destroy_range(__first, __last, _STLP_VALUE_TYPE(__first, _ForwardIterator));
; 182  : }

	ret	0
??$_Destroy_Range@PAUSMarker@CStatGraph@@@stlp_std@@YAXPAUSMarker@CStatGraph@@0@Z ENDP ; stlp_std::_Destroy_Range<CStatGraph::SMarker *>
; Function compile flags: /Ogtpy
; File d:\clearsky\sources\engine\xrcore\_stl_extensions.h
_TEXT	ENDS
;	COMDAT ?allocate@?$xalloc@PAUSMarker@CStatGraph@@@@QBEPAPAUSMarker@CStatGraph@@IPBX@Z
_TEXT	SEGMENT
?allocate@?$xalloc@PAUSMarker@CStatGraph@@@@QBEPAPAUSMarker@CStatGraph@@IPBX@Z PROC ; xalloc<CStatGraph::SMarker *>::allocate, COMDAT
; _n$ = eax

; 81   : 							pointer					allocate		(size_type n, const void* p=0) const	{	return xr_alloc<T>((u32)n);	}

	lea	ecx, DWORD PTR [eax*4]
	push	ecx
	mov	ecx, DWORD PTR __imp_?Memory@@3VxrMemory@@A
	call	DWORD PTR __imp_?mem_alloc@xrMemory@@QAEPAXI@Z
	ret	0
?allocate@?$xalloc@PAUSMarker@CStatGraph@@@@QBEPAPAUSMarker@CStatGraph@@IPBX@Z ENDP ; xalloc<CStatGraph::SMarker *>::allocate
; Function compile flags: /Ogtpy
_TEXT	ENDS
;	COMDAT ?allocate@?$xalloc@USMarker@CStatGraph@@@@QBEPAUSMarker@CStatGraph@@IPBX@Z
_TEXT	SEGMENT
?allocate@?$xalloc@USMarker@CStatGraph@@@@QBEPAUSMarker@CStatGraph@@IPBX@Z PROC ; xalloc<CStatGraph::SMarker>::allocate, COMDAT
; _n$ = eax

; 81   : 							pointer					allocate		(size_type n, const void* p=0) const	{	return xr_alloc<T>((u32)n);	}

	mov	ecx, DWORD PTR __imp_?Memory@@3VxrMemory@@A
	lea	eax, DWORD PTR [eax+eax*2]
	add	eax, eax
	add	eax, eax
	push	eax
	call	DWORD PTR __imp_?mem_alloc@xrMemory@@QAEPAXI@Z
	ret	0
?allocate@?$xalloc@USMarker@CStatGraph@@@@QBEPAUSMarker@CStatGraph@@IPBX@Z ENDP ; xalloc<CStatGraph::SMarker>::allocate
; Function compile flags: /Ogtpy
_TEXT	ENDS
;	COMDAT ?allocate@?$xalloc@PAUSElement@CStatGraph@@@@QBEPAPAUSElement@CStatGraph@@IPBX@Z
_TEXT	SEGMENT
?allocate@?$xalloc@PAUSElement@CStatGraph@@@@QBEPAPAUSElement@CStatGraph@@IPBX@Z PROC ; xalloc<CStatGraph::SElement *>::allocate, COMDAT
; _n$ = eax

; 81   : 							pointer					allocate		(size_type n, const void* p=0) const	{	return xr_alloc<T>((u32)n);	}

	lea	ecx, DWORD PTR [eax*4]
	push	ecx
	mov	ecx, DWORD PTR __imp_?Memory@@3VxrMemory@@A
	call	DWORD PTR __imp_?mem_alloc@xrMemory@@QAEPAXI@Z
	ret	0
?allocate@?$xalloc@PAUSElement@CStatGraph@@@@QBEPAPAUSElement@CStatGraph@@IPBX@Z ENDP ; xalloc<CStatGraph::SElement *>::allocate
; Function compile flags: /Ogtpy
_TEXT	ENDS
;	COMDAT ?allocate@?$xalloc@USElement@CStatGraph@@@@QBEPAUSElement@CStatGraph@@IPBX@Z
_TEXT	SEGMENT
?allocate@?$xalloc@USElement@CStatGraph@@@@QBEPAUSElement@CStatGraph@@IPBX@Z PROC ; xalloc<CStatGraph::SElement>::allocate, COMDAT
; _n$ = eax

; 81   : 							pointer					allocate		(size_type n, const void* p=0) const	{	return xr_alloc<T>((u32)n);	}

	lea	ecx, DWORD PTR [eax*8]
	push	ecx
	mov	ecx, DWORD PTR __imp_?Memory@@3VxrMemory@@A
	call	DWORD PTR __imp_?mem_alloc@xrMemory@@QAEPAXI@Z
	ret	0
?allocate@?$xalloc@USElement@CStatGraph@@@@QBEPAUSElement@CStatGraph@@IPBX@Z ENDP ; xalloc<CStatGraph::SElement>::allocate
; Function compile flags: /Ogtpy
; File d:\clearsky\sources\sdk\include\stlport\stl\_iterator.h
_TEXT	ENDS
;	COMDAT ??0?$reverse_iterator@PAUSSubGraph@CStatGraph@@@stlp_std@@QAE@ABV01@@Z
_TEXT	SEGMENT
??0?$reverse_iterator@PAUSSubGraph@CStatGraph@@@stlp_std@@QAE@ABV01@@Z PROC ; stlp_std::reverse_iterator<CStatGraph::SSubGraph *>::reverse_iterator<CStatGraph::SSubGraph *>, COMDAT
; _this$ = eax
; ___x$ = ecx

; 66   :   reverse_iterator(const _Self& __x) : current(__x.current) {}

	mov	edx, DWORD PTR [ecx]
	mov	DWORD PTR [eax], edx
	ret	0
??0?$reverse_iterator@PAUSSubGraph@CStatGraph@@@stlp_std@@QAE@ABV01@@Z ENDP ; stlp_std::reverse_iterator<CStatGraph::SSubGraph *>::reverse_iterator<CStatGraph::SSubGraph *>
; Function compile flags: /Ogtpy
; File d:\clearsky\sources\sdk\include\stlport\stl\_alloc.h
_TEXT	ENDS
;	COMDAT ?allocate@?$_STLP_alloc_proxy@IUSMarker@CStatGraph@@V?$xalloc@USMarker@CStatGraph@@@@@priv@stlp_std@@QAEPAUSMarker@CStatGraph@@I@Z
_TEXT	SEGMENT
?allocate@?$_STLP_alloc_proxy@IUSMarker@CStatGraph@@V?$xalloc@USMarker@CStatGraph@@@@@priv@stlp_std@@QAEPAUSMarker@CStatGraph@@I@Z PROC ; stlp_std::priv::_STLP_alloc_proxy<unsigned int,CStatGraph::SMarker,xalloc<CStatGraph::SMarker> >::allocate, COMDAT
; ___n$ = eax

; 633  :   { return _Base::allocate(__n); }

	mov	ecx, DWORD PTR __imp_?Memory@@3VxrMemory@@A
	lea	eax, DWORD PTR [eax+eax*2]
	add	eax, eax
	add	eax, eax
	push	eax
	call	DWORD PTR __imp_?mem_alloc@xrMemory@@QAEPAXI@Z
	ret	0
?allocate@?$_STLP_alloc_proxy@IUSMarker@CStatGraph@@V?$xalloc@USMarker@CStatGraph@@@@@priv@stlp_std@@QAEPAUSMarker@CStatGraph@@I@Z ENDP ; stlp_std::priv::_STLP_alloc_proxy<unsigned int,CStatGraph::SMarker,xalloc<CStatGraph::SMarker> >::allocate
; Function compile flags: /Ogtpy
; File d:\clearsky\sources\engine\xrcore\_stl_extensions.h
_TEXT	ENDS
;	COMDAT ?deallocate@?$xalloc@PAUSMarker@CStatGraph@@@@QBEXPAPAUSMarker@CStatGraph@@I@Z
_TEXT	SEGMENT
?deallocate@?$xalloc@PAUSMarker@CStatGraph@@@@QBEXPAPAUSMarker@CStatGraph@@I@Z PROC ; xalloc<CStatGraph::SMarker *>::deallocate, COMDAT
; _p$ = eax

; 83   : 							void					deallocate		(pointer p, size_type n) const			{	xr_free	(p);				}

	test	eax, eax
	je	SHORT $LN3@deallocate@8
	mov	ecx, DWORD PTR __imp_?Memory@@3VxrMemory@@A
	push	eax
	call	DWORD PTR __imp_?mem_free@xrMemory@@QAEXPAX@Z
$LN3@deallocate@8:
	ret	0
?deallocate@?$xalloc@PAUSMarker@CStatGraph@@@@QBEXPAPAUSMarker@CStatGraph@@I@Z ENDP ; xalloc<CStatGraph::SMarker *>::deallocate
; Function compile flags: /Ogtpy
; File d:\clearsky\sources\sdk\include\stlport\stl\_alloc.h
_TEXT	ENDS
;	COMDAT ?allocate@?$_STLP_alloc_proxy@PAPAUSMarker@CStatGraph@@PAU12@V?$xalloc@PAUSMarker@CStatGraph@@@@@priv@stlp_std@@QAEPAPAUSMarker@CStatGraph@@I@Z
_TEXT	SEGMENT
?allocate@?$_STLP_alloc_proxy@PAPAUSMarker@CStatGraph@@PAU12@V?$xalloc@PAUSMarker@CStatGraph@@@@@priv@stlp_std@@QAEPAPAUSMarker@CStatGraph@@I@Z PROC ; stlp_std::priv::_STLP_alloc_proxy<CStatGraph::SMarker * *,CStatGraph::SMarker *,xalloc<CStatGraph::SMarker *> >::allocate, COMDAT
; ___n$ = eax

; 633  :   { return _Base::allocate(__n); }

	lea	ecx, DWORD PTR [eax*4]
	push	ecx
	mov	ecx, DWORD PTR __imp_?Memory@@3VxrMemory@@A
	call	DWORD PTR __imp_?mem_alloc@xrMemory@@QAEPAXI@Z
	ret	0
?allocate@?$_STLP_alloc_proxy@PAPAUSMarker@CStatGraph@@PAU12@V?$xalloc@PAUSMarker@CStatGraph@@@@@priv@stlp_std@@QAEPAPAUSMarker@CStatGraph@@I@Z ENDP ; stlp_std::priv::_STLP_alloc_proxy<CStatGraph::SMarker * *,CStatGraph::SMarker *,xalloc<CStatGraph::SMarker *> >::allocate
; Function compile flags: /Ogtpy
; File d:\clearsky\sources\sdk\include\stlport\stl\_deque.h
_TEXT	ENDS
;	COMDAT ?buffer_size@?$_Deque_base@USMarker@CStatGraph@@V?$xalloc@USMarker@CStatGraph@@@@@priv@stlp_std@@SAIXZ
_TEXT	SEGMENT
?buffer_size@?$_Deque_base@USMarker@CStatGraph@@V?$xalloc@USMarker@CStatGraph@@@@@priv@stlp_std@@SAIXZ PROC ; stlp_std::priv::_Deque_base<CStatGraph::SMarker,xalloc<CStatGraph::SMarker> >::buffer_size, COMDAT

; 354  :   static size_t _STLP_CALL buffer_size() { return (size_t)_Deque_iterator_base<_Tp>::__buffer_size; }

	mov	eax, 10					; 0000000aH
	ret	0
?buffer_size@?$_Deque_base@USMarker@CStatGraph@@V?$xalloc@USMarker@CStatGraph@@@@@priv@stlp_std@@SAIXZ ENDP ; stlp_std::priv::_Deque_base<CStatGraph::SMarker,xalloc<CStatGraph::SMarker> >::buffer_size
; Function compile flags: /Ogtpy
; File d:\clearsky\sources\engine\xrcore\_stl_extensions.h
_TEXT	ENDS
;	COMDAT ?deallocate@?$xalloc@USMarker@CStatGraph@@@@QBEXPAUSMarker@CStatGraph@@I@Z
_TEXT	SEGMENT
?deallocate@?$xalloc@USMarker@CStatGraph@@@@QBEXPAUSMarker@CStatGraph@@I@Z PROC ; xalloc<CStatGraph::SMarker>::deallocate, COMDAT
; _p$ = eax

; 83   : 							void					deallocate		(pointer p, size_type n) const			{	xr_free	(p);				}

	test	eax, eax
	je	SHORT $LN3@deallocate@9
	mov	ecx, DWORD PTR __imp_?Memory@@3VxrMemory@@A
	push	eax
	call	DWORD PTR __imp_?mem_free@xrMemory@@QAEXPAX@Z
$LN3@deallocate@9:
	ret	0
?deallocate@?$xalloc@USMarker@CStatGraph@@@@QBEXPAUSMarker@CStatGraph@@I@Z ENDP ; xalloc<CStatGraph::SMarker>::deallocate
; Function compile flags: /Ogtpy
; File d:\clearsky\sources\sdk\include\stlport\stl\_vector.h
_TEXT	ENDS
;	COMDAT ?_M_set@?$_Impl_vector@USSubGraph@CStatGraph@@V?$xalloc@USSubGraph@CStatGraph@@@@@priv@stlp_std@@AAEXPAUSSubGraph@CStatGraph@@00@Z
_TEXT	SEGMENT
___e$ = 8						; size = 4
?_M_set@?$_Impl_vector@USSubGraph@CStatGraph@@V?$xalloc@USSubGraph@CStatGraph@@@@@priv@stlp_std@@AAEXPAUSSubGraph@CStatGraph@@00@Z PROC ; stlp_std::priv::_Impl_vector<CStatGraph::SSubGraph,xalloc<CStatGraph::SSubGraph> >::_M_set, COMDAT
; _this$ = eax
; ___s$ = ecx
; ___f$ = edx

; 626  :     this->_M_start = __s;

	mov	DWORD PTR [eax], ecx

; 627  :     this->_M_finish = __f;
; 628  :     this->_M_end_of_storage._M_data = __e;

	mov	ecx, DWORD PTR ___e$[esp-4]
	mov	DWORD PTR [eax+4], edx
	mov	DWORD PTR [eax+8], ecx

; 629  :   }

	ret	4
?_M_set@?$_Impl_vector@USSubGraph@CStatGraph@@V?$xalloc@USSubGraph@CStatGraph@@@@@priv@stlp_std@@AAEXPAUSSubGraph@CStatGraph@@00@Z ENDP ; stlp_std::priv::_Impl_vector<CStatGraph::SSubGraph,xalloc<CStatGraph::SSubGraph> >::_M_set
; Function compile flags: /Ogtpy
_TEXT	ENDS
;	COMDAT ?capacity@?$_Impl_vector@USSubGraph@CStatGraph@@V?$xalloc@USSubGraph@CStatGraph@@@@@priv@stlp_std@@QBEIXZ
_TEXT	SEGMENT
?capacity@?$_Impl_vector@USSubGraph@CStatGraph@@V?$xalloc@USSubGraph@CStatGraph@@@@@priv@stlp_std@@QBEIXZ PROC ; stlp_std::priv::_Impl_vector<CStatGraph::SSubGraph,xalloc<CStatGraph::SSubGraph> >::capacity, COMDAT
; _this$ = eax

; 187  :   size_type capacity() const    { return size_type(this->_M_end_of_storage._M_data - this->_M_start); }

	mov	ecx, DWORD PTR [eax+8]
	sub	ecx, DWORD PTR [eax]
	mov	eax, 780903145				; 2e8ba2e9H
	imul	ecx
	sar	edx, 3
	mov	eax, edx
	shr	eax, 31					; 0000001fH
	add	eax, edx
	ret	0
?capacity@?$_Impl_vector@USSubGraph@CStatGraph@@V?$xalloc@USSubGraph@CStatGraph@@@@@priv@stlp_std@@QBEIXZ ENDP ; stlp_std::priv::_Impl_vector<CStatGraph::SSubGraph,xalloc<CStatGraph::SSubGraph> >::capacity
; Function compile flags: /Ogtpy
; File d:\clearsky\sources\sdk\include\stlport\stl\_alloc.h
_TEXT	ENDS
;	COMDAT ?allocate@?$_STLP_alloc_proxy@IUSElement@CStatGraph@@V?$xalloc@USElement@CStatGraph@@@@@priv@stlp_std@@QAEPAUSElement@CStatGraph@@I@Z
_TEXT	SEGMENT
?allocate@?$_STLP_alloc_proxy@IUSElement@CStatGraph@@V?$xalloc@USElement@CStatGraph@@@@@priv@stlp_std@@QAEPAUSElement@CStatGraph@@I@Z PROC ; stlp_std::priv::_STLP_alloc_proxy<unsigned int,CStatGraph::SElement,xalloc<CStatGraph::SElement> >::allocate, COMDAT
; ___n$ = eax

; 633  :   { return _Base::allocate(__n); }

	lea	ecx, DWORD PTR [eax*8]
	push	ecx
	mov	ecx, DWORD PTR __imp_?Memory@@3VxrMemory@@A
	call	DWORD PTR __imp_?mem_alloc@xrMemory@@QAEPAXI@Z
	ret	0
?allocate@?$_STLP_alloc_proxy@IUSElement@CStatGraph@@V?$xalloc@USElement@CStatGraph@@@@@priv@stlp_std@@QAEPAUSElement@CStatGraph@@I@Z ENDP ; stlp_std::priv::_STLP_alloc_proxy<unsigned int,CStatGraph::SElement,xalloc<CStatGraph::SElement> >::allocate
; Function compile flags: /Ogtpy
; File d:\clearsky\sources\engine\xrcore\_stl_extensions.h
_TEXT	ENDS
;	COMDAT ?deallocate@?$xalloc@PAUSElement@CStatGraph@@@@QBEXPAPAUSElement@CStatGraph@@I@Z
_TEXT	SEGMENT
?deallocate@?$xalloc@PAUSElement@CStatGraph@@@@QBEXPAPAUSElement@CStatGraph@@I@Z PROC ; xalloc<CStatGraph::SElement *>::deallocate, COMDAT
; _p$ = eax

; 83   : 							void					deallocate		(pointer p, size_type n) const			{	xr_free	(p);				}

	test	eax, eax
	je	SHORT $LN3@deallocate@10
	mov	ecx, DWORD PTR __imp_?Memory@@3VxrMemory@@A
	push	eax
	call	DWORD PTR __imp_?mem_free@xrMemory@@QAEXPAX@Z
$LN3@deallocate@10:
	ret	0
?deallocate@?$xalloc@PAUSElement@CStatGraph@@@@QBEXPAPAUSElement@CStatGraph@@I@Z ENDP ; xalloc<CStatGraph::SElement *>::deallocate
; Function compile flags: /Ogtpy
; File d:\clearsky\sources\sdk\include\stlport\stl\_alloc.h
_TEXT	ENDS
;	COMDAT ?allocate@?$_STLP_alloc_proxy@PAPAUSElement@CStatGraph@@PAU12@V?$xalloc@PAUSElement@CStatGraph@@@@@priv@stlp_std@@QAEPAPAUSElement@CStatGraph@@I@Z
_TEXT	SEGMENT
?allocate@?$_STLP_alloc_proxy@PAPAUSElement@CStatGraph@@PAU12@V?$xalloc@PAUSElement@CStatGraph@@@@@priv@stlp_std@@QAEPAPAUSElement@CStatGraph@@I@Z PROC ; stlp_std::priv::_STLP_alloc_proxy<CStatGraph::SElement * *,CStatGraph::SElement *,xalloc<CStatGraph::SElement *> >::allocate, COMDAT
; ___n$ = eax

; 633  :   { return _Base::allocate(__n); }

	lea	ecx, DWORD PTR [eax*4]
	push	ecx
	mov	ecx, DWORD PTR __imp_?Memory@@3VxrMemory@@A
	call	DWORD PTR __imp_?mem_alloc@xrMemory@@QAEPAXI@Z
	ret	0
?allocate@?$_STLP_alloc_proxy@PAPAUSElement@CStatGraph@@PAU12@V?$xalloc@PAUSElement@CStatGraph@@@@@priv@stlp_std@@QAEPAPAUSElement@CStatGraph@@I@Z ENDP ; stlp_std::priv::_STLP_alloc_proxy<CStatGraph::SElement * *,CStatGraph::SElement *,xalloc<CStatGraph::SElement *> >::allocate
; Function compile flags: /Ogtpy
; File d:\clearsky\sources\sdk\include\stlport\stl\_deque.h
_TEXT	ENDS
;	COMDAT ?_M_set_node@?$_Deque_iterator_base@USElement@CStatGraph@@@priv@stlp_std@@QAEXPAPAUSElement@CStatGraph@@@Z
_TEXT	SEGMENT
?_M_set_node@?$_Deque_iterator_base@USElement@CStatGraph@@@priv@stlp_std@@QAEXPAPAUSElement@CStatGraph@@@Z PROC ; stlp_std::priv::_Deque_iterator_base<CStatGraph::SElement>::_M_set_node, COMDAT
; _this$ = eax
; ___new_node$ = ecx

; 156  :     _M_last = (_M_first = *(_M_node = __new_node)) + difference_type(__buffer_size);

	mov	DWORD PTR [eax+12], ecx
	mov	ecx, DWORD PTR [ecx]
	mov	DWORD PTR [eax+4], ecx
	add	ecx, 128				; 00000080H
	mov	DWORD PTR [eax+8], ecx

; 157  :   }

	ret	0
?_M_set_node@?$_Deque_iterator_base@USElement@CStatGraph@@@priv@stlp_std@@QAEXPAPAUSElement@CStatGraph@@@Z ENDP ; stlp_std::priv::_Deque_iterator_base<CStatGraph::SElement>::_M_set_node
; Function compile flags: /Ogtpy
_TEXT	ENDS
;	COMDAT ?buffer_size@?$_Deque_base@USElement@CStatGraph@@V?$xalloc@USElement@CStatGraph@@@@@priv@stlp_std@@SAIXZ
_TEXT	SEGMENT
?buffer_size@?$_Deque_base@USElement@CStatGraph@@V?$xalloc@USElement@CStatGraph@@@@@priv@stlp_std@@SAIXZ PROC ; stlp_std::priv::_Deque_base<CStatGraph::SElement,xalloc<CStatGraph::SElement> >::buffer_size, COMDAT

; 354  :   static size_t _STLP_CALL buffer_size() { return (size_t)_Deque_iterator_base<_Tp>::__buffer_size; }

	mov	eax, 16					; 00000010H
	ret	0
?buffer_size@?$_Deque_base@USElement@CStatGraph@@V?$xalloc@USElement@CStatGraph@@@@@priv@stlp_std@@SAIXZ ENDP ; stlp_std::priv::_Deque_base<CStatGraph::SElement,xalloc<CStatGraph::SElement> >::buffer_size
; Function compile flags: /Ogtpy
; File d:\clearsky\sources\engine\xrcore\_stl_extensions.h
_TEXT	ENDS
;	COMDAT ?deallocate@?$xalloc@USElement@CStatGraph@@@@QBEXPAUSElement@CStatGraph@@I@Z
_TEXT	SEGMENT
?deallocate@?$xalloc@USElement@CStatGraph@@@@QBEXPAUSElement@CStatGraph@@I@Z PROC ; xalloc<CStatGraph::SElement>::deallocate, COMDAT
; _p$ = eax

; 83   : 							void					deallocate		(pointer p, size_type n) const			{	xr_free	(p);				}

	test	eax, eax
	je	SHORT $LN3@deallocate@11
	mov	ecx, DWORD PTR __imp_?Memory@@3VxrMemory@@A
	push	eax
	call	DWORD PTR __imp_?mem_free@xrMemory@@QAEXPAX@Z
$LN3@deallocate@11:
	ret	0
?deallocate@?$xalloc@USElement@CStatGraph@@@@QBEXPAUSElement@CStatGraph@@I@Z ENDP ; xalloc<CStatGraph::SElement>::deallocate
; Function compile flags: /Ogtpy
; File d:\clearsky\sources\engine\xrcore\xrmemory.h
_TEXT	ENDS
;	COMDAT ??$xr_alloc@USSubGraph@CStatGraph@@@@YAPAUSSubGraph@CStatGraph@@I@Z
_TEXT	SEGMENT
??$xr_alloc@USSubGraph@CStatGraph@@@@YAPAUSSubGraph@CStatGraph@@I@Z PROC ; xr_alloc<CStatGraph::SSubGraph>, COMDAT
; _count$ = eax

; 109  : 	IC T*		xr_alloc	(u32 count)				{	return  (T*)Memory.mem_alloc(count*sizeof(T));	}

	mov	ecx, DWORD PTR __imp_?Memory@@3VxrMemory@@A
	imul	eax, 44					; 0000002cH
	push	eax
	call	DWORD PTR __imp_?mem_alloc@xrMemory@@QAEPAXI@Z
	ret	0
??$xr_alloc@USSubGraph@CStatGraph@@@@YAPAUSSubGraph@CStatGraph@@I@Z ENDP ; xr_alloc<CStatGraph::SSubGraph>
; Function compile flags: /Ogtpy
; File d:\clearsky\sources\engine\xrcore\_stl_extensions.h
_TEXT	ENDS
;	COMDAT ??$?0USMarker@CStatGraph@@@?$xalloc@PAUSMarker@CStatGraph@@@@QAE@ABV?$xalloc@USMarker@CStatGraph@@@@@Z
_TEXT	SEGMENT
??$?0USMarker@CStatGraph@@@?$xalloc@PAUSMarker@CStatGraph@@@@QAE@ABV?$xalloc@USMarker@CStatGraph@@@@@Z PROC ; xalloc<CStatGraph::SMarker *>::xalloc<CStatGraph::SMarker *><CStatGraph::SMarker>, COMDAT
; _this$ = eax

; 79   : 	template<class _Other>							xalloc			(const xalloc<_Other>&)					{	}

	ret	0
??$?0USMarker@CStatGraph@@@?$xalloc@PAUSMarker@CStatGraph@@@@QAE@ABV?$xalloc@USMarker@CStatGraph@@@@@Z ENDP ; xalloc<CStatGraph::SMarker *>::xalloc<CStatGraph::SMarker *><CStatGraph::SMarker>
; Function compile flags: /Ogtpy
; File d:\clearsky\sources\engine\xrcore\xrmemory.h
_TEXT	ENDS
;	COMDAT ??$xr_free@USSubGraph@CStatGraph@@@@YAXAAPAUSSubGraph@CStatGraph@@@Z
_TEXT	SEGMENT
??$xr_free@USSubGraph@CStatGraph@@@@YAXAAPAUSSubGraph@CStatGraph@@@Z PROC ; xr_free<CStatGraph::SSubGraph>, COMDAT
; _P$ = esi

; 111  : 	IC void		xr_free		(T* &P)					{	if (P) { Memory.mem_free((void*)P); P=NULL;	};	}

	mov	eax, DWORD PTR [esi]
	test	eax, eax
	je	SHORT $LN1@xr_free@12
	mov	ecx, DWORD PTR __imp_?Memory@@3VxrMemory@@A
	push	eax
	call	DWORD PTR __imp_?mem_free@xrMemory@@QAEXPAX@Z
	mov	DWORD PTR [esi], 0
$LN1@xr_free@12:
	ret	0
??$xr_free@USSubGraph@CStatGraph@@@@YAXAAPAUSSubGraph@CStatGraph@@@Z ENDP ; xr_free<CStatGraph::SSubGraph>
; Function compile flags: /Ogtpy
; File d:\clearsky\sources\engine\xrcore\_stl_extensions.h
_TEXT	ENDS
;	COMDAT ??$?0USElement@CStatGraph@@@?$xalloc@PAUSElement@CStatGraph@@@@QAE@ABV?$xalloc@USElement@CStatGraph@@@@@Z
_TEXT	SEGMENT
??$?0USElement@CStatGraph@@@?$xalloc@PAUSElement@CStatGraph@@@@QAE@ABV?$xalloc@USElement@CStatGraph@@@@@Z PROC ; xalloc<CStatGraph::SElement *>::xalloc<CStatGraph::SElement *><CStatGraph::SElement>, COMDAT
; _this$ = eax

; 79   : 	template<class _Other>							xalloc			(const xalloc<_Other>&)					{	}

	ret	0
??$?0USElement@CStatGraph@@@?$xalloc@PAUSElement@CStatGraph@@@@QAE@ABV?$xalloc@USElement@CStatGraph@@@@@Z ENDP ; xalloc<CStatGraph::SElement *>::xalloc<CStatGraph::SElement *><CStatGraph::SElement>
; Function compile flags: /Ogtpy
; File d:\clearsky\sources\sdk\include\stlport\stl\_construct.h
_TEXT	ENDS
;	COMDAT ??$_Destroy@USElement@CStatGraph@@@stlp_std@@YAXPAUSElement@CStatGraph@@@Z
_TEXT	SEGMENT
??$_Destroy@USElement@CStatGraph@@@stlp_std@@YAXPAUSElement@CStatGraph@@@Z PROC ; stlp_std::_Destroy<CStatGraph::SElement>, COMDAT

; 60   : #if defined (_STLP_MSVC) && (_STLP_MSVC <= 1010)
; 61   :   __pointer;
; 62   : #endif
; 63   :   typedef typename __type_traits<_Tp>::has_trivial_destructor _Trivial_destructor;
; 64   :   __destroy_aux(__pointer, _Trivial_destructor());
; 65   : #if defined (_STLP_DEBUG_UNINITIALIZED)
; 66   :   memset(__REINTERPRET_CAST(char*, __pointer), _STLP_SHRED_BYTE, sizeof(_Tp));
; 67   : #endif
; 68   : }

	ret	0
??$_Destroy@USElement@CStatGraph@@@stlp_std@@YAXPAUSElement@CStatGraph@@@Z ENDP ; stlp_std::_Destroy<CStatGraph::SElement>
; Function compile flags: /Ogtpy
; File d:\clearsky\sources\sdk\include\stlport\stl\_deque.c
_TEXT	ENDS
;	COMDAT ?clear@?$_Impl_deque@USMarker@CStatGraph@@V?$xalloc@USMarker@CStatGraph@@@@@priv@stlp_std@@QAEXXZ
_TEXT	SEGMENT
?clear@?$_Impl_deque@USMarker@CStatGraph@@V?$xalloc@USMarker@CStatGraph@@@@@priv@stlp_std@@QAEXXZ PROC ; stlp_std::priv::_Impl_deque<CStatGraph::SMarker,xalloc<CStatGraph::SMarker> >::clear, COMDAT
; _this$ = edi

; 337  : void deque<_Tp,_Alloc>::clear() {

	push	ebx

; 338  :   for (_Map_pointer __node = this->_M_start._M_node + 1;
; 339  :        __node < this->_M_finish._M_node;
; 340  :        ++__node) {

	mov	ebx, DWORD PTR __imp_?mem_free@xrMemory@@QAEXPAX@Z
	push	esi
	mov	esi, DWORD PTR [edi+12]
	add	esi, 4
	cmp	esi, DWORD PTR [edi+28]
	jae	SHORT $LN3@clear
$LL5@clear:

; 341  :     _STLP_STD::_Destroy_Range(*__node, *__node + this->buffer_size());
; 342  :     this->_M_map_size.deallocate(*__node, this->buffer_size());

	mov	eax, DWORD PTR [esi]
	test	eax, eax
	je	SHORT $LN4@clear
	mov	ecx, DWORD PTR __imp_?Memory@@3VxrMemory@@A
	push	eax
	call	ebx
$LN4@clear:
	add	esi, 4
	cmp	esi, DWORD PTR [edi+28]
	jb	SHORT $LL5@clear
$LN3@clear:

; 343  :   }
; 344  : 
; 345  :   if (this->_M_start._M_node != this->_M_finish._M_node) {

	mov	eax, DWORD PTR [edi+12]
	cmp	eax, DWORD PTR [edi+28]
	je	SHORT $LN2@clear

; 346  :     _STLP_STD::_Destroy_Range(this->_M_start._M_cur, this->_M_start._M_last);
; 347  :     _STLP_STD::_Destroy_Range(this->_M_finish._M_first, this->_M_finish._M_cur);
; 348  :     this->_M_map_size.deallocate(this->_M_finish._M_first, this->buffer_size());

	mov	eax, DWORD PTR [edi+20]
	test	eax, eax
	je	SHORT $LN2@clear
	mov	ecx, DWORD PTR __imp_?Memory@@3VxrMemory@@A
	push	eax
	call	ebx
$LN2@clear:

; 349  :   }
; 350  :   else
; 351  :     _STLP_STD::_Destroy_Range(this->_M_start._M_cur, this->_M_finish._M_cur);
; 352  : 
; 353  :   this->_M_finish = this->_M_start;

	mov	ecx, DWORD PTR [edi]
	mov	edx, DWORD PTR [edi+4]
	mov	eax, DWORD PTR [edi+8]
	mov	DWORD PTR [edi+16], ecx
	mov	ecx, DWORD PTR [edi+12]
	mov	DWORD PTR [edi+20], edx
	pop	esi
	mov	DWORD PTR [edi+24], eax
	mov	DWORD PTR [edi+28], ecx
	pop	ebx

; 354  : }

	ret	0
?clear@?$_Impl_deque@USMarker@CStatGraph@@V?$xalloc@USMarker@CStatGraph@@@@@priv@stlp_std@@QAEXXZ ENDP ; stlp_std::priv::_Impl_deque<CStatGraph::SMarker,xalloc<CStatGraph::SMarker> >::clear
; Function compile flags: /Ogtpy
_TEXT	ENDS
;	COMDAT ?_M_pop_front_aux@?$_Impl_deque@USElement@CStatGraph@@V?$xalloc@USElement@CStatGraph@@@@@priv@stlp_std@@IAEXXZ
_TEXT	SEGMENT
?_M_pop_front_aux@?$_Impl_deque@USElement@CStatGraph@@V?$xalloc@USElement@CStatGraph@@@@@priv@stlp_std@@IAEXXZ PROC ; stlp_std::priv::_Impl_deque<CStatGraph::SElement,xalloc<CStatGraph::SElement> >::_M_pop_front_aux, COMDAT
; _this$ = esi

; 445  :   if (this->_M_start._M_cur != this->_M_start._M_last - 1)

	mov	ecx, DWORD PTR [esi+8]
	mov	eax, DWORD PTR [esi]
	sub	ecx, 8
	cmp	eax, ecx
	je	SHORT $LN2@M_pop_fron

; 446  :     ++this->_M_start._M_cur;

	add	eax, 8
	mov	DWORD PTR [esi], eax

; 451  :   }
; 452  : }

	ret	0
$LN2@M_pop_fron:

; 447  :   else {
; 448  :     this->_M_map_size.deallocate(this->_M_start._M_first, this->buffer_size());

	mov	eax, DWORD PTR [esi+4]
	test	eax, eax
	je	SHORT $LN9@M_pop_fron
	mov	ecx, DWORD PTR __imp_?Memory@@3VxrMemory@@A
	push	eax
	call	DWORD PTR __imp_?mem_free@xrMemory@@QAEXPAX@Z
$LN9@M_pop_fron:

; 449  :     this->_M_start._M_set_node(this->_M_start._M_node + 1);

	mov	eax, DWORD PTR [esi+12]
	add	eax, 4
	mov	DWORD PTR [esi+12], eax
	mov	eax, DWORD PTR [eax]
	mov	DWORD PTR [esi+4], eax

; 450  :     this->_M_start._M_cur = this->_M_start._M_first;

	mov	edx, DWORD PTR [esi+4]
	add	eax, 128				; 00000080H
	mov	DWORD PTR [esi+8], eax
	mov	DWORD PTR [esi], edx

; 451  :   }
; 452  : }

	ret	0
?_M_pop_front_aux@?$_Impl_deque@USElement@CStatGraph@@V?$xalloc@USElement@CStatGraph@@@@@priv@stlp_std@@IAEXXZ ENDP ; stlp_std::priv::_Impl_deque<CStatGraph::SElement,xalloc<CStatGraph::SElement> >::_M_pop_front_aux
; Function compile flags: /Ogtpy
; File d:\clearsky\sources\engine\xrcore\_stl_extensions.h
_TEXT	ENDS
;	COMDAT ?allocate@?$xalloc@USSubGraph@CStatGraph@@@@QBEPAUSSubGraph@CStatGraph@@IPBX@Z
_TEXT	SEGMENT
?allocate@?$xalloc@USSubGraph@CStatGraph@@@@QBEPAUSSubGraph@CStatGraph@@IPBX@Z PROC ; xalloc<CStatGraph::SSubGraph>::allocate, COMDAT
; _n$ = eax

; 81   : 							pointer					allocate		(size_type n, const void* p=0) const	{	return xr_alloc<T>((u32)n);	}

	mov	ecx, DWORD PTR __imp_?Memory@@3VxrMemory@@A
	imul	eax, 44					; 0000002cH
	push	eax
	call	DWORD PTR __imp_?mem_alloc@xrMemory@@QAEPAXI@Z
	ret	0
?allocate@?$xalloc@USSubGraph@CStatGraph@@@@QBEPAUSSubGraph@CStatGraph@@IPBX@Z ENDP ; xalloc<CStatGraph::SSubGraph>::allocate
; Function compile flags: /Ogtpy
; File d:\clearsky\sources\sdk\include\stlport\stl\_alloc.h
_TEXT	ENDS
;	COMDAT ?allocate@?$_STLP_alloc_proxy@PAUSSubGraph@CStatGraph@@U12@V?$xalloc@USSubGraph@CStatGraph@@@@@priv@stlp_std@@QAEPAUSSubGraph@CStatGraph@@I@Z
_TEXT	SEGMENT
?allocate@?$_STLP_alloc_proxy@PAUSSubGraph@CStatGraph@@U12@V?$xalloc@USSubGraph@CStatGraph@@@@@priv@stlp_std@@QAEPAUSSubGraph@CStatGraph@@I@Z PROC ; stlp_std::priv::_STLP_alloc_proxy<CStatGraph::SSubGraph *,CStatGraph::SSubGraph,xalloc<CStatGraph::SSubGraph> >::allocate, COMDAT
; ___n$ = eax

; 633  :   { return _Base::allocate(__n); }

	mov	ecx, DWORD PTR __imp_?Memory@@3VxrMemory@@A
	imul	eax, 44					; 0000002cH
	push	eax
	call	DWORD PTR __imp_?mem_alloc@xrMemory@@QAEPAXI@Z
	ret	0
?allocate@?$_STLP_alloc_proxy@PAUSSubGraph@CStatGraph@@U12@V?$xalloc@USSubGraph@CStatGraph@@@@@priv@stlp_std@@QAEPAUSSubGraph@CStatGraph@@I@Z ENDP ; stlp_std::priv::_STLP_alloc_proxy<CStatGraph::SSubGraph *,CStatGraph::SSubGraph,xalloc<CStatGraph::SSubGraph> >::allocate
; Function compile flags: /Ogtpy
; File d:\clearsky\sources\engine\xrcore\_stl_extensions.h
_TEXT	ENDS
;	COMDAT ??0?$xalloc@PAUSMarker@CStatGraph@@@@QAE@ABV0@@Z
_TEXT	SEGMENT
??0?$xalloc@PAUSMarker@CStatGraph@@@@QAE@ABV0@@Z PROC	; xalloc<CStatGraph::SMarker *>::xalloc<CStatGraph::SMarker *>, COMDAT
; _this$ = eax

; 78   : 													xalloc			(const xalloc<T>&)						{	}

	ret	0
??0?$xalloc@PAUSMarker@CStatGraph@@@@QAE@ABV0@@Z ENDP	; xalloc<CStatGraph::SMarker *>::xalloc<CStatGraph::SMarker *>
; Function compile flags: /Ogtpy
; File d:\clearsky\sources\sdk\include\stlport\stl\_deque.h
_TEXT	ENDS
;	COMDAT ?_M_subtract@?$_Deque_iterator_base@USMarker@CStatGraph@@@priv@stlp_std@@QBEHABU123@@Z
_TEXT	SEGMENT
?_M_subtract@?$_Deque_iterator_base@USMarker@CStatGraph@@@priv@stlp_std@@QBEHABU123@@Z PROC ; stlp_std::priv::_Deque_iterator_base<CStatGraph::SMarker>::_M_subtract, COMDAT
; _this$ = edx
; ___x$ = esi

; 121  :     return difference_type(__buffer_size) * (_M_node - __x._M_node - 1) +
; 122  :       (_M_cur - _M_first) + (__x._M_last - __x._M_cur);

	mov	eax, DWORD PTR [edx+12]
	sub	eax, DWORD PTR [esi+12]
	mov	ecx, DWORD PTR [edx]
	sub	ecx, DWORD PTR [edx+4]
	sar	eax, 2
	push	edi
	lea	edi, DWORD PTR [eax+eax*4]
	mov	eax, 715827883				; 2aaaaaabH
	imul	ecx
	mov	ecx, DWORD PTR [esi+8]
	sub	ecx, DWORD PTR [esi]
	sar	edx, 1
	mov	eax, edx
	shr	eax, 31					; 0000001fH
	add	eax, edx
	lea	edi, DWORD PTR [eax+edi*2]
	mov	eax, 715827883				; 2aaaaaabH
	imul	ecx
	sar	edx, 1
	mov	ecx, edx
	add	edi, edx
	shr	ecx, 31					; 0000001fH
	lea	eax, DWORD PTR [ecx+edi-10]
	pop	edi

; 123  :   }

	ret	0
?_M_subtract@?$_Deque_iterator_base@USMarker@CStatGraph@@@priv@stlp_std@@QBEHABU123@@Z ENDP ; stlp_std::priv::_Deque_iterator_base<CStatGraph::SMarker>::_M_subtract
; Function compile flags: /Ogtpy
; File d:\clearsky\sources\sdk\include\stlport\stl\_alloc.h
_TEXT	ENDS
;	COMDAT ?allocate@?$_STLP_alloc_proxy@PAUSSubGraph@CStatGraph@@U12@V?$xalloc@USSubGraph@CStatGraph@@@@@priv@stlp_std@@AAEPAUSSubGraph@CStatGraph@@IAAIABU__false_type@3@@Z
_TEXT	SEGMENT
?allocate@?$_STLP_alloc_proxy@PAUSSubGraph@CStatGraph@@U12@V?$xalloc@USSubGraph@CStatGraph@@@@@priv@stlp_std@@AAEPAUSSubGraph@CStatGraph@@IAAIABU__false_type@3@@Z PROC ; stlp_std::priv::_STLP_alloc_proxy<CStatGraph::SSubGraph *,CStatGraph::SSubGraph,xalloc<CStatGraph::SSubGraph> >::allocate, COMDAT
; ___n$ = eax
; ___allocated_n$ = ecx

; 640  :   { __allocated_n = __n; return allocate(__n); }

	mov	DWORD PTR [ecx], eax
	imul	eax, 44					; 0000002cH
	mov	ecx, DWORD PTR __imp_?Memory@@3VxrMemory@@A
	push	eax
	call	DWORD PTR __imp_?mem_alloc@xrMemory@@QAEPAXI@Z
	ret	0
?allocate@?$_STLP_alloc_proxy@PAUSSubGraph@CStatGraph@@U12@V?$xalloc@USSubGraph@CStatGraph@@@@@priv@stlp_std@@AAEPAUSSubGraph@CStatGraph@@IAAIABU__false_type@3@@Z ENDP ; stlp_std::priv::_STLP_alloc_proxy<CStatGraph::SSubGraph *,CStatGraph::SSubGraph,xalloc<CStatGraph::SSubGraph> >::allocate
; Function compile flags: /Ogtpy
; File d:\clearsky\sources\engine\xrcore\_stl_extensions.h
_TEXT	ENDS
;	COMDAT ??0?$xalloc@PAUSElement@CStatGraph@@@@QAE@ABV0@@Z
_TEXT	SEGMENT
??0?$xalloc@PAUSElement@CStatGraph@@@@QAE@ABV0@@Z PROC	; xalloc<CStatGraph::SElement *>::xalloc<CStatGraph::SElement *>, COMDAT
; _this$ = eax

; 78   : 													xalloc			(const xalloc<T>&)						{	}

	ret	0
??0?$xalloc@PAUSElement@CStatGraph@@@@QAE@ABV0@@Z ENDP	; xalloc<CStatGraph::SElement *>::xalloc<CStatGraph::SElement *>
; Function compile flags: /Ogtpy
; File d:\clearsky\sources\sdk\include\stlport\stl\_deque.h
_TEXT	ENDS
;	COMDAT ?_M_subtract@?$_Deque_iterator_base@USElement@CStatGraph@@@priv@stlp_std@@QBEHABU123@@Z
_TEXT	SEGMENT
?_M_subtract@?$_Deque_iterator_base@USElement@CStatGraph@@@priv@stlp_std@@QBEHABU123@@Z PROC ; stlp_std::priv::_Deque_iterator_base<CStatGraph::SElement>::_M_subtract, COMDAT
; _this$ = ecx
; ___x$ = eax

; 121  :     return difference_type(__buffer_size) * (_M_node - __x._M_node - 1) +
; 122  :       (_M_cur - _M_first) + (__x._M_last - __x._M_cur);

	mov	edx, DWORD PTR [ecx+12]
	sub	edx, DWORD PTR [eax+12]
	push	esi
	mov	esi, DWORD PTR [ecx]
	sub	esi, DWORD PTR [ecx+4]
	mov	ecx, DWORD PTR [eax+8]
	sub	ecx, DWORD PTR [eax]
	sar	edx, 2
	sar	esi, 3
	shl	edx, 4
	add	edx, esi
	sar	ecx, 3
	lea	eax, DWORD PTR [edx+ecx-16]
	pop	esi

; 123  :   }

	ret	0
?_M_subtract@?$_Deque_iterator_base@USElement@CStatGraph@@@priv@stlp_std@@QBEHABU123@@Z ENDP ; stlp_std::priv::_Deque_iterator_base<CStatGraph::SElement>::_M_subtract
; Function compile flags: /Ogtpy
_TEXT	ENDS
;	COMDAT ??0?$_Deque_iterator_base@USElement@CStatGraph@@@priv@stlp_std@@QAE@XZ
_TEXT	SEGMENT
??0?$_Deque_iterator_base@USElement@CStatGraph@@@priv@stlp_std@@QAE@XZ PROC ; stlp_std::priv::_Deque_iterator_base<CStatGraph::SElement>::_Deque_iterator_base<CStatGraph::SElement>, COMDAT
; _this$ = eax

; 111  :   _Deque_iterator_base() : _M_cur(0), _M_first(0), _M_last(0), _M_node(0) {}

	xor	ecx, ecx
	mov	DWORD PTR [eax], ecx
	mov	DWORD PTR [eax+4], ecx
	mov	DWORD PTR [eax+8], ecx
	mov	DWORD PTR [eax+12], ecx
	ret	0
??0?$_Deque_iterator_base@USElement@CStatGraph@@@priv@stlp_std@@QAE@XZ ENDP ; stlp_std::priv::_Deque_iterator_base<CStatGraph::SElement>::_Deque_iterator_base<CStatGraph::SElement>
; Function compile flags: /Ogtpy
; File d:\clearsky\sources\engine\xrcore\_stl_extensions.h
_TEXT	ENDS
;	COMDAT ??0?$xalloc@USElement@CStatGraph@@@@QAE@ABV0@@Z
_TEXT	SEGMENT
??0?$xalloc@USElement@CStatGraph@@@@QAE@ABV0@@Z PROC	; xalloc<CStatGraph::SElement>::xalloc<CStatGraph::SElement>, COMDAT
; _this$ = eax

; 78   : 													xalloc			(const xalloc<T>&)						{	}

	ret	0
??0?$xalloc@USElement@CStatGraph@@@@QAE@ABV0@@Z ENDP	; xalloc<CStatGraph::SElement>::xalloc<CStatGraph::SElement>
; Function compile flags: /Ogtpy
; File d:\clearsky\sources\sdk\include\stlport\stl\_deque.h
_TEXT	ENDS
;	COMDAT ??0?$_Deque_iterator@USElement@CStatGraph@@U?$_Const_traits@USElement@CStatGraph@@@stlp_std@@@priv@stlp_std@@QAE@ABU?$_Deque_iterator@USElement@CStatGraph@@U?$_Nonconst_traits@USElement@CStatGraph@@@stlp_std@@@12@@Z
_TEXT	SEGMENT
??0?$_Deque_iterator@USElement@CStatGraph@@U?$_Const_traits@USElement@CStatGraph@@@stlp_std@@@priv@stlp_std@@QAE@ABU?$_Deque_iterator@USElement@CStatGraph@@U?$_Nonconst_traits@USElement@CStatGraph@@@stlp_std@@@12@@Z PROC ; stlp_std::priv::_Deque_iterator<CStatGraph::SElement,stlp_std::_Const_traits<CStatGraph::SElement> >::_Deque_iterator<CStatGraph::SElement,stlp_std::_Const_traits<CStatGraph::SElement> >, COMDAT
; _this$ = eax
; ___x$ = ecx

; 184  :     _Deque_iterator_base<value_type>(__x) {}

	mov	edx, DWORD PTR [ecx]
	mov	DWORD PTR [eax], edx
	mov	edx, DWORD PTR [ecx+4]
	mov	DWORD PTR [eax+4], edx
	mov	edx, DWORD PTR [ecx+8]
	mov	DWORD PTR [eax+8], edx
	mov	ecx, DWORD PTR [ecx+12]
	mov	DWORD PTR [eax+12], ecx
	ret	0
??0?$_Deque_iterator@USElement@CStatGraph@@U?$_Const_traits@USElement@CStatGraph@@@stlp_std@@@priv@stlp_std@@QAE@ABU?$_Deque_iterator@USElement@CStatGraph@@U?$_Nonconst_traits@USElement@CStatGraph@@@stlp_std@@@12@@Z ENDP ; stlp_std::priv::_Deque_iterator<CStatGraph::SElement,stlp_std::_Const_traits<CStatGraph::SElement> >::_Deque_iterator<CStatGraph::SElement,stlp_std::_Const_traits<CStatGraph::SElement> >
; Function compile flags: /Ogtpy
_TEXT	ENDS
;	COMDAT ??0?$_Deque_iterator@USMarker@CStatGraph@@U?$_Const_traits@USMarker@CStatGraph@@@stlp_std@@@priv@stlp_std@@QAE@ABU?$_Deque_iterator@USMarker@CStatGraph@@U?$_Nonconst_traits@USMarker@CStatGraph@@@stlp_std@@@12@@Z
_TEXT	SEGMENT
??0?$_Deque_iterator@USMarker@CStatGraph@@U?$_Const_traits@USMarker@CStatGraph@@@stlp_std@@@priv@stlp_std@@QAE@ABU?$_Deque_iterator@USMarker@CStatGraph@@U?$_Nonconst_traits@USMarker@CStatGraph@@@stlp_std@@@12@@Z PROC ; stlp_std::priv::_Deque_iterator<CStatGraph::SMarker,stlp_std::_Const_traits<CStatGraph::SMarker> >::_Deque_iterator<CStatGraph::SMarker,stlp_std::_Const_traits<CStatGraph::SMarker> >, COMDAT
; _this$ = eax
; ___x$ = ecx

; 184  :     _Deque_iterator_base<value_type>(__x) {}

	mov	edx, DWORD PTR [ecx]
	mov	DWORD PTR [eax], edx
	mov	edx, DWORD PTR [ecx+4]
	mov	DWORD PTR [eax+4], edx
	mov	edx, DWORD PTR [ecx+8]
	mov	DWORD PTR [eax+8], edx
	mov	ecx, DWORD PTR [ecx+12]
	mov	DWORD PTR [eax+12], ecx
	ret	0
??0?$_Deque_iterator@USMarker@CStatGraph@@U?$_Const_traits@USMarker@CStatGraph@@@stlp_std@@@priv@stlp_std@@QAE@ABU?$_Deque_iterator@USMarker@CStatGraph@@U?$_Nonconst_traits@USMarker@CStatGraph@@@stlp_std@@@12@@Z ENDP ; stlp_std::priv::_Deque_iterator<CStatGraph::SMarker,stlp_std::_Const_traits<CStatGraph::SMarker> >::_Deque_iterator<CStatGraph::SMarker,stlp_std::_Const_traits<CStatGraph::SMarker> >
; Function compile flags: /Ogtpy
; File d:\clearsky\sources\sdk\include\stlport\stl\_alloc.h
_TEXT	ENDS
;	COMDAT ??0?$_STLP_alloc_proxy@PAPAUSMarker@CStatGraph@@PAU12@V?$xalloc@PAUSMarker@CStatGraph@@@@@priv@stlp_std@@QAE@ABV?$xalloc@PAUSMarker@CStatGraph@@@@PAPAUSMarker@CStatGraph@@@Z
_TEXT	SEGMENT
??0?$_STLP_alloc_proxy@PAPAUSMarker@CStatGraph@@PAU12@V?$xalloc@PAUSMarker@CStatGraph@@@@@priv@stlp_std@@QAE@ABV?$xalloc@PAUSMarker@CStatGraph@@@@PAPAUSMarker@CStatGraph@@@Z PROC ; stlp_std::priv::_STLP_alloc_proxy<CStatGraph::SMarker * *,CStatGraph::SMarker *,xalloc<CStatGraph::SMarker *> >::_STLP_alloc_proxy<CStatGraph::SMarker * *,CStatGraph::SMarker *,xalloc<CStatGraph::SMarker *> >, COMDAT
; _this$ = eax

; 571  :     _MaybeReboundAlloc(__a), _M_data(__p) {}

	mov	DWORD PTR [eax], 0
	ret	0
??0?$_STLP_alloc_proxy@PAPAUSMarker@CStatGraph@@PAU12@V?$xalloc@PAUSMarker@CStatGraph@@@@@priv@stlp_std@@QAE@ABV?$xalloc@PAUSMarker@CStatGraph@@@@PAPAUSMarker@CStatGraph@@@Z ENDP ; stlp_std::priv::_STLP_alloc_proxy<CStatGraph::SMarker * *,CStatGraph::SMarker *,xalloc<CStatGraph::SMarker *> >::_STLP_alloc_proxy<CStatGraph::SMarker * *,CStatGraph::SMarker *,xalloc<CStatGraph::SMarker *> >
; Function compile flags: /Ogtpy
; File d:\clearsky\sources\sdk\include\stlport\stl\_deque.h
_TEXT	ENDS
;	COMDAT ?_M_set_node@?$_Deque_iterator_base@USMarker@CStatGraph@@@priv@stlp_std@@QAEXPAPAUSMarker@CStatGraph@@@Z
_TEXT	SEGMENT
?_M_set_node@?$_Deque_iterator_base@USMarker@CStatGraph@@@priv@stlp_std@@QAEXPAPAUSMarker@CStatGraph@@@Z PROC ; stlp_std::priv::_Deque_iterator_base<CStatGraph::SMarker>::_M_set_node, COMDAT
; _this$ = eax
; ___new_node$ = ecx

; 156  :     _M_last = (_M_first = *(_M_node = __new_node)) + difference_type(__buffer_size);

	mov	DWORD PTR [eax+12], ecx
	mov	ecx, DWORD PTR [ecx]
	mov	DWORD PTR [eax+4], ecx
	add	ecx, 120				; 00000078H
	mov	DWORD PTR [eax+8], ecx

; 157  :   }

	ret	0
?_M_set_node@?$_Deque_iterator_base@USMarker@CStatGraph@@@priv@stlp_std@@QAEXPAPAUSMarker@CStatGraph@@@Z ENDP ; stlp_std::priv::_Deque_iterator_base<CStatGraph::SMarker>::_M_set_node
; Function compile flags: /Ogtpy
_TEXT	ENDS
;	COMDAT ??0?$_Deque_iterator_base@USMarker@CStatGraph@@@priv@stlp_std@@QAE@XZ
_TEXT	SEGMENT
??0?$_Deque_iterator_base@USMarker@CStatGraph@@@priv@stlp_std@@QAE@XZ PROC ; stlp_std::priv::_Deque_iterator_base<CStatGraph::SMarker>::_Deque_iterator_base<CStatGraph::SMarker>, COMDAT
; _this$ = eax

; 111  :   _Deque_iterator_base() : _M_cur(0), _M_first(0), _M_last(0), _M_node(0) {}

	xor	ecx, ecx
	mov	DWORD PTR [eax], ecx
	mov	DWORD PTR [eax+4], ecx
	mov	DWORD PTR [eax+8], ecx
	mov	DWORD PTR [eax+12], ecx
	ret	0
??0?$_Deque_iterator_base@USMarker@CStatGraph@@@priv@stlp_std@@QAE@XZ ENDP ; stlp_std::priv::_Deque_iterator_base<CStatGraph::SMarker>::_Deque_iterator_base<CStatGraph::SMarker>
; Function compile flags: /Ogtpy
_TEXT	ENDS
;	COMDAT ??G?$_Deque_iterator@USMarker@CStatGraph@@U?$_Nonconst_traits@USMarker@CStatGraph@@@stlp_std@@@priv@stlp_std@@QBEHABU?$_Deque_iterator@USMarker@CStatGraph@@U?$_Const_traits@USMarker@CStatGraph@@@stlp_std@@@12@@Z
_TEXT	SEGMENT
??G?$_Deque_iterator@USMarker@CStatGraph@@U?$_Nonconst_traits@USMarker@CStatGraph@@@stlp_std@@@priv@stlp_std@@QBEHABU?$_Deque_iterator@USMarker@CStatGraph@@U?$_Const_traits@USMarker@CStatGraph@@@stlp_std@@@12@@Z PROC ; stlp_std::priv::_Deque_iterator<CStatGraph::SMarker,stlp_std::_Nonconst_traits<CStatGraph::SMarker> >::operator-, COMDAT
; _this$ = edx
; ___x$ = esi

; 192  :   difference_type operator-(const const_iterator& __x) const { return this->_M_subtract(__x); }

	mov	eax, DWORD PTR [edx+12]
	sub	eax, DWORD PTR [esi+12]
	mov	ecx, DWORD PTR [edx]
	sub	ecx, DWORD PTR [edx+4]
	sar	eax, 2
	push	edi
	lea	edi, DWORD PTR [eax+eax*4]
	mov	eax, 715827883				; 2aaaaaabH
	imul	ecx
	mov	ecx, DWORD PTR [esi+8]
	sub	ecx, DWORD PTR [esi]
	sar	edx, 1
	mov	eax, edx
	shr	eax, 31					; 0000001fH
	add	eax, edx
	lea	edi, DWORD PTR [eax+edi*2]
	mov	eax, 715827883				; 2aaaaaabH
	imul	ecx
	sar	edx, 1
	mov	ecx, edx
	add	edi, edx
	shr	ecx, 31					; 0000001fH
	lea	eax, DWORD PTR [ecx+edi-10]
	pop	edi
	ret	0
??G?$_Deque_iterator@USMarker@CStatGraph@@U?$_Nonconst_traits@USMarker@CStatGraph@@@stlp_std@@@priv@stlp_std@@QBEHABU?$_Deque_iterator@USMarker@CStatGraph@@U?$_Const_traits@USMarker@CStatGraph@@@stlp_std@@@12@@Z ENDP ; stlp_std::priv::_Deque_iterator<CStatGraph::SMarker,stlp_std::_Nonconst_traits<CStatGraph::SMarker> >::operator-
; Function compile flags: /Ogtpy
_TEXT	ENDS
;	COMDAT ??D?$_Deque_iterator@USMarker@CStatGraph@@U?$_Nonconst_traits@USMarker@CStatGraph@@@stlp_std@@@priv@stlp_std@@QBEAAUSMarker@CStatGraph@@XZ
_TEXT	SEGMENT
??D?$_Deque_iterator@USMarker@CStatGraph@@U?$_Nonconst_traits@USMarker@CStatGraph@@@stlp_std@@@priv@stlp_std@@QBEAAUSMarker@CStatGraph@@XZ PROC ; stlp_std::priv::_Deque_iterator<CStatGraph::SMarker,stlp_std::_Nonconst_traits<CStatGraph::SMarker> >::operator*, COMDAT
; _this$ = eax

; 187  :     return *this->_M_cur;

	mov	eax, DWORD PTR [eax]

; 188  :   }

	ret	0
??D?$_Deque_iterator@USMarker@CStatGraph@@U?$_Nonconst_traits@USMarker@CStatGraph@@@stlp_std@@@priv@stlp_std@@QBEAAUSMarker@CStatGraph@@XZ ENDP ; stlp_std::priv::_Deque_iterator<CStatGraph::SMarker,stlp_std::_Nonconst_traits<CStatGraph::SMarker> >::operator*
; Function compile flags: /Ogtpy
; File d:\clearsky\sources\engine\xrcore\_stl_extensions.h
_TEXT	ENDS
;	COMDAT ??0?$xalloc@USMarker@CStatGraph@@@@QAE@ABV0@@Z
_TEXT	SEGMENT
??0?$xalloc@USMarker@CStatGraph@@@@QAE@ABV0@@Z PROC	; xalloc<CStatGraph::SMarker>::xalloc<CStatGraph::SMarker>, COMDAT
; _this$ = eax

; 78   : 													xalloc			(const xalloc<T>&)						{	}

	ret	0
??0?$xalloc@USMarker@CStatGraph@@@@QAE@ABV0@@Z ENDP	; xalloc<CStatGraph::SMarker>::xalloc<CStatGraph::SMarker>
; Function compile flags: /Ogtpy
; File d:\clearsky\sources\sdk\include\stlport\stl\_alloc.h
_TEXT	ENDS
;	COMDAT ?allocate@?$_STLP_alloc_proxy@PAUSSubGraph@CStatGraph@@U12@V?$xalloc@USSubGraph@CStatGraph@@@@@priv@stlp_std@@QAEPAUSSubGraph@CStatGraph@@IAAI@Z
_TEXT	SEGMENT
?allocate@?$_STLP_alloc_proxy@PAUSSubGraph@CStatGraph@@U12@V?$xalloc@USSubGraph@CStatGraph@@@@@priv@stlp_std@@QAEPAUSSubGraph@CStatGraph@@IAAI@Z PROC ; stlp_std::priv::_STLP_alloc_proxy<CStatGraph::SSubGraph *,CStatGraph::SSubGraph,xalloc<CStatGraph::SSubGraph> >::allocate, COMDAT
; ___n$ = eax
; ___allocated_n$ = ecx

; 611  : #if !defined (__BORLANDC__)
; 612  :     typedef typename _IsSTLportClass<_MaybeReboundAlloc>::_Ret _STLportAlloc;
; 613  : #else
; 614  :     typedef typename __bool2type<_IsSTLportClass<_MaybeReboundAlloc>::_Is>::_Ret _STLportAlloc;
; 615  : #endif
; 616  :     return allocate(__n, __allocated_n, _STLportAlloc());

	mov	DWORD PTR [ecx], eax
	imul	eax, 44					; 0000002cH
	mov	ecx, DWORD PTR __imp_?Memory@@3VxrMemory@@A
	push	eax
	call	DWORD PTR __imp_?mem_alloc@xrMemory@@QAEPAXI@Z

; 617  :   }

	ret	0
?allocate@?$_STLP_alloc_proxy@PAUSSubGraph@CStatGraph@@U12@V?$xalloc@USSubGraph@CStatGraph@@@@@priv@stlp_std@@QAEPAUSSubGraph@CStatGraph@@IAAI@Z ENDP ; stlp_std::priv::_STLP_alloc_proxy<CStatGraph::SSubGraph *,CStatGraph::SSubGraph,xalloc<CStatGraph::SSubGraph> >::allocate
; Function compile flags: /Ogtpy
; File d:\clearsky\sources\engine\xrcore\_stl_extensions.h
_TEXT	ENDS
;	COMDAT ??0?$xalloc@USSubGraph@CStatGraph@@@@QAE@ABV0@@Z
_TEXT	SEGMENT
??0?$xalloc@USSubGraph@CStatGraph@@@@QAE@ABV0@@Z PROC	; xalloc<CStatGraph::SSubGraph>::xalloc<CStatGraph::SSubGraph>, COMDAT
; _this$ = eax

; 78   : 													xalloc			(const xalloc<T>&)						{	}

	ret	0
??0?$xalloc@USSubGraph@CStatGraph@@@@QAE@ABV0@@Z ENDP	; xalloc<CStatGraph::SSubGraph>::xalloc<CStatGraph::SSubGraph>
; Function compile flags: /Ogtpy
; File d:\clearsky\sources\sdk\include\stlport\stl\_alloc.h
_TEXT	ENDS
;	COMDAT ??0?$_STLP_alloc_proxy@IUSElement@CStatGraph@@V?$xalloc@USElement@CStatGraph@@@@@priv@stlp_std@@QAE@ABV?$xalloc@USElement@CStatGraph@@@@I@Z
_TEXT	SEGMENT
??0?$_STLP_alloc_proxy@IUSElement@CStatGraph@@V?$xalloc@USElement@CStatGraph@@@@@priv@stlp_std@@QAE@ABV?$xalloc@USElement@CStatGraph@@@@I@Z PROC ; stlp_std::priv::_STLP_alloc_proxy<unsigned int,CStatGraph::SElement,xalloc<CStatGraph::SElement> >::_STLP_alloc_proxy<unsigned int,CStatGraph::SElement,xalloc<CStatGraph::SElement> >, COMDAT
; _this$ = eax

; 571  :     _MaybeReboundAlloc(__a), _M_data(__p) {}

	mov	DWORD PTR [eax], 0
	ret	0
??0?$_STLP_alloc_proxy@IUSElement@CStatGraph@@V?$xalloc@USElement@CStatGraph@@@@@priv@stlp_std@@QAE@ABV?$xalloc@USElement@CStatGraph@@@@I@Z ENDP ; stlp_std::priv::_STLP_alloc_proxy<unsigned int,CStatGraph::SElement,xalloc<CStatGraph::SElement> >::_STLP_alloc_proxy<unsigned int,CStatGraph::SElement,xalloc<CStatGraph::SElement> >
; Function compile flags: /Ogtpy
_TEXT	ENDS
;	COMDAT ??0?$_STLP_alloc_proxy@PAPAUSElement@CStatGraph@@PAU12@V?$xalloc@PAUSElement@CStatGraph@@@@@priv@stlp_std@@QAE@ABV?$xalloc@PAUSElement@CStatGraph@@@@PAPAUSElement@CStatGraph@@@Z
_TEXT	SEGMENT
??0?$_STLP_alloc_proxy@PAPAUSElement@CStatGraph@@PAU12@V?$xalloc@PAUSElement@CStatGraph@@@@@priv@stlp_std@@QAE@ABV?$xalloc@PAUSElement@CStatGraph@@@@PAPAUSElement@CStatGraph@@@Z PROC ; stlp_std::priv::_STLP_alloc_proxy<CStatGraph::SElement * *,CStatGraph::SElement *,xalloc<CStatGraph::SElement *> >::_STLP_alloc_proxy<CStatGraph::SElement * *,CStatGraph::SElement *,xalloc<CStatGraph::SElement *> >, COMDAT
; _this$ = eax

; 571  :     _MaybeReboundAlloc(__a), _M_data(__p) {}

	mov	DWORD PTR [eax], 0
	ret	0
??0?$_STLP_alloc_proxy@PAPAUSElement@CStatGraph@@PAU12@V?$xalloc@PAUSElement@CStatGraph@@@@@priv@stlp_std@@QAE@ABV?$xalloc@PAUSElement@CStatGraph@@@@PAPAUSElement@CStatGraph@@@Z ENDP ; stlp_std::priv::_STLP_alloc_proxy<CStatGraph::SElement * *,CStatGraph::SElement *,xalloc<CStatGraph::SElement *> >::_STLP_alloc_proxy<CStatGraph::SElement * *,CStatGraph::SElement *,xalloc<CStatGraph::SElement *> >
; Function compile flags: /Ogtpy
; File d:\clearsky\sources\sdk\include\stlport\stl\_deque.h
_TEXT	ENDS
;	COMDAT ??G?$_Deque_iterator@USElement@CStatGraph@@U?$_Nonconst_traits@USElement@CStatGraph@@@stlp_std@@@priv@stlp_std@@QBEHABU?$_Deque_iterator@USElement@CStatGraph@@U?$_Const_traits@USElement@CStatGraph@@@stlp_std@@@12@@Z
_TEXT	SEGMENT
??G?$_Deque_iterator@USElement@CStatGraph@@U?$_Nonconst_traits@USElement@CStatGraph@@@stlp_std@@@priv@stlp_std@@QBEHABU?$_Deque_iterator@USElement@CStatGraph@@U?$_Const_traits@USElement@CStatGraph@@@stlp_std@@@12@@Z PROC ; stlp_std::priv::_Deque_iterator<CStatGraph::SElement,stlp_std::_Nonconst_traits<CStatGraph::SElement> >::operator-, COMDAT
; _this$ = ecx
; ___x$ = eax

; 192  :   difference_type operator-(const const_iterator& __x) const { return this->_M_subtract(__x); }

	mov	edx, DWORD PTR [ecx+12]
	sub	edx, DWORD PTR [eax+12]
	push	esi
	mov	esi, DWORD PTR [ecx]
	sub	esi, DWORD PTR [ecx+4]
	mov	ecx, DWORD PTR [eax+8]
	sub	ecx, DWORD PTR [eax]
	sar	edx, 2
	sar	esi, 3
	shl	edx, 4
	add	edx, esi
	sar	ecx, 3
	lea	eax, DWORD PTR [edx+ecx-16]
	pop	esi
	ret	0
??G?$_Deque_iterator@USElement@CStatGraph@@U?$_Nonconst_traits@USElement@CStatGraph@@@stlp_std@@@priv@stlp_std@@QBEHABU?$_Deque_iterator@USElement@CStatGraph@@U?$_Const_traits@USElement@CStatGraph@@@stlp_std@@@12@@Z ENDP ; stlp_std::priv::_Deque_iterator<CStatGraph::SElement,stlp_std::_Nonconst_traits<CStatGraph::SElement> >::operator-
; Function compile flags: /Ogtpy
_TEXT	ENDS
;	COMDAT ??0?$_Deque_iterator@USElement@CStatGraph@@U?$_Nonconst_traits@USElement@CStatGraph@@@stlp_std@@@priv@stlp_std@@QAE@XZ
_TEXT	SEGMENT
??0?$_Deque_iterator@USElement@CStatGraph@@U?$_Nonconst_traits@USElement@CStatGraph@@@stlp_std@@@priv@stlp_std@@QAE@XZ PROC ; stlp_std::priv::_Deque_iterator<CStatGraph::SElement,stlp_std::_Nonconst_traits<CStatGraph::SElement> >::_Deque_iterator<CStatGraph::SElement,stlp_std::_Nonconst_traits<CStatGraph::SElement> >, COMDAT
; _this$ = eax

; 181  :   _Deque_iterator() {}

	xor	ecx, ecx
	mov	DWORD PTR [eax], ecx
	mov	DWORD PTR [eax+4], ecx
	mov	DWORD PTR [eax+8], ecx
	mov	DWORD PTR [eax+12], ecx
	ret	0
??0?$_Deque_iterator@USElement@CStatGraph@@U?$_Nonconst_traits@USElement@CStatGraph@@@stlp_std@@@priv@stlp_std@@QAE@XZ ENDP ; stlp_std::priv::_Deque_iterator<CStatGraph::SElement,stlp_std::_Nonconst_traits<CStatGraph::SElement> >::_Deque_iterator<CStatGraph::SElement,stlp_std::_Nonconst_traits<CStatGraph::SElement> >
; Function compile flags: /Ogtpy
; File d:\clearsky\sources\sdk\include\stlport\stl\pointers\_tools.h
_TEXT	ENDS
;	COMDAT ?to_storage_type_pptr@?$_CastTraits@USMarker@CStatGraph@@U12@@priv@stlp_std@@SAPAPAUSMarker@CStatGraph@@PAPAU45@@Z
_TEXT	SEGMENT
?to_storage_type_pptr@?$_CastTraits@USMarker@CStatGraph@@U12@@priv@stlp_std@@SAPAPAUSMarker@CStatGraph@@PAPAU45@@Z PROC ; stlp_std::priv::_CastTraits<CStatGraph::SMarker,CStatGraph::SMarker>::to_storage_type_pptr, COMDAT
; ___ptr$ = eax

; 252  :   { return __ptr; }

	ret	0
?to_storage_type_pptr@?$_CastTraits@USMarker@CStatGraph@@U12@@priv@stlp_std@@SAPAPAUSMarker@CStatGraph@@PAPAU45@@Z ENDP ; stlp_std::priv::_CastTraits<CStatGraph::SMarker,CStatGraph::SMarker>::to_storage_type_pptr
; Function compile flags: /Ogtpy
_TEXT	ENDS
;	COMDAT ?to_storage_type_ptr@?$_CastTraits@USMarker@CStatGraph@@U12@@priv@stlp_std@@SAPAUSMarker@CStatGraph@@PAU45@@Z
_TEXT	SEGMENT
?to_storage_type_ptr@?$_CastTraits@USMarker@CStatGraph@@U12@@priv@stlp_std@@SAPAUSMarker@CStatGraph@@PAU45@@Z PROC ; stlp_std::priv::_CastTraits<CStatGraph::SMarker,CStatGraph::SMarker>::to_storage_type_ptr, COMDAT
; ___ptr$ = eax

; 248  :   { return __ptr; }

	ret	0
?to_storage_type_ptr@?$_CastTraits@USMarker@CStatGraph@@U12@@priv@stlp_std@@SAPAUSMarker@CStatGraph@@PAU45@@Z ENDP ; stlp_std::priv::_CastTraits<CStatGraph::SMarker,CStatGraph::SMarker>::to_storage_type_ptr
; Function compile flags: /Ogtpy
_TEXT	ENDS
;	COMDAT ?to_value_type_pptr@?$_CastTraits@USMarker@CStatGraph@@U12@@priv@stlp_std@@SAPAPAUSMarker@CStatGraph@@PAPAU45@@Z
_TEXT	SEGMENT
?to_value_type_pptr@?$_CastTraits@USMarker@CStatGraph@@U12@@priv@stlp_std@@SAPAPAUSMarker@CStatGraph@@PAPAU45@@Z PROC ; stlp_std::priv::_CastTraits<CStatGraph::SMarker,CStatGraph::SMarker>::to_value_type_pptr, COMDAT
; ___ptr$ = eax

; 241  :   { return __ptr; }

	ret	0
?to_value_type_pptr@?$_CastTraits@USMarker@CStatGraph@@U12@@priv@stlp_std@@SAPAPAUSMarker@CStatGraph@@PAPAU45@@Z ENDP ; stlp_std::priv::_CastTraits<CStatGraph::SMarker,CStatGraph::SMarker>::to_value_type_pptr
; Function compile flags: /Ogtpy
_TEXT	ENDS
;	COMDAT ?to_value_type_ptr@?$_CastTraits@USMarker@CStatGraph@@U12@@priv@stlp_std@@SAPAUSMarker@CStatGraph@@PAU45@@Z
_TEXT	SEGMENT
?to_value_type_ptr@?$_CastTraits@USMarker@CStatGraph@@U12@@priv@stlp_std@@SAPAUSMarker@CStatGraph@@PAU45@@Z PROC ; stlp_std::priv::_CastTraits<CStatGraph::SMarker,CStatGraph::SMarker>::to_value_type_ptr, COMDAT
; ___ptr$ = eax

; 237  :   { return __ptr; }

	ret	0
?to_value_type_ptr@?$_CastTraits@USMarker@CStatGraph@@U12@@priv@stlp_std@@SAPAUSMarker@CStatGraph@@PAU45@@Z ENDP ; stlp_std::priv::_CastTraits<CStatGraph::SMarker,CStatGraph::SMarker>::to_value_type_ptr
; Function compile flags: /Ogtpy
; File d:\clearsky\sources\sdk\include\stlport\stl\_iterator.h
_TEXT	ENDS
;	COMDAT ??0?$reverse_iterator@PAUSSubGraph@CStatGraph@@@stlp_std@@QAE@PAUSSubGraph@CStatGraph@@@Z
_TEXT	SEGMENT
??0?$reverse_iterator@PAUSSubGraph@CStatGraph@@@stlp_std@@QAE@PAUSSubGraph@CStatGraph@@@Z PROC ; stlp_std::reverse_iterator<CStatGraph::SSubGraph *>::reverse_iterator<CStatGraph::SSubGraph *>, COMDAT
; _this$ = eax
; ___x$ = ecx

; 65   :   explicit reverse_iterator(iterator_type __x) : current(__x) {}

	mov	DWORD PTR [eax], ecx
	ret	0
??0?$reverse_iterator@PAUSSubGraph@CStatGraph@@@stlp_std@@QAE@PAUSSubGraph@CStatGraph@@@Z ENDP ; stlp_std::reverse_iterator<CStatGraph::SSubGraph *>::reverse_iterator<CStatGraph::SSubGraph *>
; Function compile flags: /Ogtpy
; File d:\clearsky\sources\sdk\include\stlport\stl\_deque.h
_TEXT	ENDS
;	COMDAT ?_M_advance@?$_Deque_iterator_base@USMarker@CStatGraph@@@priv@stlp_std@@QAEXH@Z
_TEXT	SEGMENT
?_M_advance@?$_Deque_iterator_base@USMarker@CStatGraph@@@priv@stlp_std@@QAEXH@Z PROC ; stlp_std::priv::_Deque_iterator_base<CStatGraph::SMarker>::_M_advance, COMDAT
; _this$ = esi
; ___n$ = ebx

; 140  :   void _M_advance(difference_type __n) {

	push	edi

; 141  :     difference_type __offset = __n + (_M_cur - _M_first);

	mov	edi, DWORD PTR [esi]
	mov	ecx, edi
	sub	ecx, DWORD PTR [esi+4]
	mov	eax, 715827883				; 2aaaaaabH
	imul	ecx
	sar	edx, 1
	mov	ecx, edx
	shr	ecx, 31					; 0000001fH
	add	ecx, edx
	add	ecx, ebx

; 142  :     if (__offset >= 0 && __offset < difference_type(__buffer_size))

	cmp	ecx, 9
	ja	SHORT $LN2@M_advance

; 143  :       _M_cur += __n;

	lea	eax, DWORD PTR [ebx+ebx*2]
	lea	ecx, DWORD PTR [edi+eax*4]
	mov	DWORD PTR [esi], ecx
	pop	edi

; 152  :     }
; 153  :   }

	ret	0
$LN2@M_advance:

; 144  :     else {
; 145  :       difference_type __node_offset =
; 146  :         __offset > 0 ? __offset / __buffer_size
; 147  :                    : -difference_type((-__offset - 1) / __buffer_size) - 1;

	test	ecx, ecx
	mov	eax, 1717986919				; 66666667H
	jle	SHORT $LN5@M_advance
	imul	ecx
	sar	edx, 2
	mov	eax, edx
	shr	eax, 31					; 0000001fH
	add	eax, edx
	jmp	SHORT $LN6@M_advance
$LN5@M_advance:
	lea	edx, DWORD PTR [ecx+1]
	imul	edx
	sar	edx, 2
	mov	eax, edx
	shr	eax, 31					; 0000001fH
	lea	eax, DWORD PTR [edx+eax-1]
$LN6@M_advance:

; 148  :       _M_set_node(_M_node + __node_offset);

	mov	edx, DWORD PTR [esi+12]
	lea	edx, DWORD PTR [edx+eax*4]
	mov	DWORD PTR [esi+12], edx
	mov	edx, DWORD PTR [edx]

; 149  :       _M_cur = _M_first +
; 150  : 
; 151  :         (__offset - __node_offset * difference_type(__buffer_size));

	lea	eax, DWORD PTR [eax+eax*4]
	mov	DWORD PTR [esi+4], edx
	add	eax, eax
	add	edx, 120				; 00000078H
	sub	ecx, eax
	mov	DWORD PTR [esi+8], edx
	mov	edx, DWORD PTR [esi+4]
	lea	ecx, DWORD PTR [ecx+ecx*2]
	lea	eax, DWORD PTR [edx+ecx*4]
	mov	DWORD PTR [esi], eax
	pop	edi

; 152  :     }
; 153  :   }

	ret	0
?_M_advance@?$_Deque_iterator_base@USMarker@CStatGraph@@@priv@stlp_std@@QAEXH@Z ENDP ; stlp_std::priv::_Deque_iterator_base<CStatGraph::SMarker>::_M_advance
; Function compile flags: /Ogtpy
_TEXT	ENDS
;	COMDAT ??0?$_Deque_iterator@USMarker@CStatGraph@@U?$_Nonconst_traits@USMarker@CStatGraph@@@stlp_std@@@priv@stlp_std@@QAE@XZ
_TEXT	SEGMENT
??0?$_Deque_iterator@USMarker@CStatGraph@@U?$_Nonconst_traits@USMarker@CStatGraph@@@stlp_std@@@priv@stlp_std@@QAE@XZ PROC ; stlp_std::priv::_Deque_iterator<CStatGraph::SMarker,stlp_std::_Nonconst_traits<CStatGraph::SMarker> >::_Deque_iterator<CStatGraph::SMarker,stlp_std::_Nonconst_traits<CStatGraph::SMarker> >, COMDAT
; _this$ = eax

; 181  :   _Deque_iterator() {}

	xor	ecx, ecx
	mov	DWORD PTR [eax], ecx
	mov	DWORD PTR [eax+4], ecx
	mov	DWORD PTR [eax+8], ecx
	mov	DWORD PTR [eax+12], ecx
	ret	0
??0?$_Deque_iterator@USMarker@CStatGraph@@U?$_Nonconst_traits@USMarker@CStatGraph@@@stlp_std@@@priv@stlp_std@@QAE@XZ ENDP ; stlp_std::priv::_Deque_iterator<CStatGraph::SMarker,stlp_std::_Nonconst_traits<CStatGraph::SMarker> >::_Deque_iterator<CStatGraph::SMarker,stlp_std::_Nonconst_traits<CStatGraph::SMarker> >
; Function compile flags: /Ogtpy
_TEXT	ENDS
;	COMDAT ?get_allocator@?$_Impl_deque@USMarker@CStatGraph@@V?$xalloc@USMarker@CStatGraph@@@@@priv@stlp_std@@QBE?AV?$xalloc@USMarker@CStatGraph@@@@XZ
_TEXT	SEGMENT
?get_allocator@?$_Impl_deque@USMarker@CStatGraph@@V?$xalloc@USMarker@CStatGraph@@@@@priv@stlp_std@@QBE?AV?$xalloc@USMarker@CStatGraph@@@@XZ PROC ; stlp_std::priv::_Impl_deque<CStatGraph::SMarker,xalloc<CStatGraph::SMarker> >::get_allocator, COMDAT
; ___$ReturnUdt$ = eax

; 477  :   allocator_type get_allocator() const { return this->_M_map_size; }

	ret	0
?get_allocator@?$_Impl_deque@USMarker@CStatGraph@@V?$xalloc@USMarker@CStatGraph@@@@@priv@stlp_std@@QBE?AV?$xalloc@USMarker@CStatGraph@@@@XZ ENDP ; stlp_std::priv::_Impl_deque<CStatGraph::SMarker,xalloc<CStatGraph::SMarker> >::get_allocator
; Function compile flags: /Ogtpy
_TEXT	ENDS
;	COMDAT ?size@?$_Impl_deque@USMarker@CStatGraph@@V?$xalloc@USMarker@CStatGraph@@@@@priv@stlp_std@@QBEIXZ
_TEXT	SEGMENT
$T211280 = -16						; size = 16
?size@?$_Impl_deque@USMarker@CStatGraph@@V?$xalloc@USMarker@CStatGraph@@@@@priv@stlp_std@@QBEIXZ PROC ; stlp_std::priv::_Impl_deque<CStatGraph::SMarker,xalloc<CStatGraph::SMarker> >::size, COMDAT
; _this$ = ecx

; 474  :   size_type size() const { return this->_M_finish - this->_M_start; }

	sub	esp, 16					; 00000010H
	mov	eax, DWORD PTR [ecx+4]
	mov	edx, DWORD PTR [ecx+16]
	sub	edx, DWORD PTR [ecx+20]
	mov	DWORD PTR $T211280[esp+20], eax
	mov	eax, 715827883				; 2aaaaaabH
	imul	edx
	push	ebx
	mov	ebx, DWORD PTR [ecx+12]
	push	esi
	mov	esi, DWORD PTR [ecx+8]
	push	edi
	mov	edi, DWORD PTR [ecx]
	mov	ecx, DWORD PTR [ecx+28]
	sar	edx, 1
	sub	ecx, ebx
	mov	eax, edx
	shr	eax, 31					; 0000001fH
	add	eax, edx
	sar	ecx, 2
	lea	ecx, DWORD PTR [ecx+ecx*4]
	lea	ecx, DWORD PTR [eax+ecx*2]
	sub	esi, edi
	mov	eax, 715827883				; 2aaaaaabH
	imul	esi
	sar	edx, 1
	mov	eax, edx
	pop	edi
	shr	eax, 31					; 0000001fH
	add	ecx, edx
	pop	esi
	lea	eax, DWORD PTR [eax+ecx-10]
	pop	ebx
	add	esp, 16					; 00000010H
	ret	0
?size@?$_Impl_deque@USMarker@CStatGraph@@V?$xalloc@USMarker@CStatGraph@@@@@priv@stlp_std@@QBEIXZ ENDP ; stlp_std::priv::_Impl_deque<CStatGraph::SMarker,xalloc<CStatGraph::SMarker> >::size
; Function compile flags: /Ogtpy
_TEXT	ENDS
;	COMDAT ?end@?$_Impl_deque@USMarker@CStatGraph@@V?$xalloc@USMarker@CStatGraph@@@@@priv@stlp_std@@QBE?AU?$_Deque_iterator@USMarker@CStatGraph@@U?$_Const_traits@USMarker@CStatGraph@@@stlp_std@@@23@XZ
_TEXT	SEGMENT
?end@?$_Impl_deque@USMarker@CStatGraph@@V?$xalloc@USMarker@CStatGraph@@@@@priv@stlp_std@@QBE?AU?$_Deque_iterator@USMarker@CStatGraph@@U?$_Const_traits@USMarker@CStatGraph@@@stlp_std@@@23@XZ PROC ; stlp_std::priv::_Impl_deque<CStatGraph::SMarker,xalloc<CStatGraph::SMarker> >::end, COMDAT
; _this$ = ecx
; ___$ReturnUdt$ = eax

; 438  :   const_iterator end() const { return const_iterator(this->_M_finish); }

	mov	edx, DWORD PTR [ecx+16]
	mov	DWORD PTR [eax], edx
	mov	edx, DWORD PTR [ecx+20]
	mov	DWORD PTR [eax+4], edx
	mov	edx, DWORD PTR [ecx+24]
	mov	ecx, DWORD PTR [ecx+28]
	mov	DWORD PTR [eax+8], edx
	mov	DWORD PTR [eax+12], ecx
	ret	0
?end@?$_Impl_deque@USMarker@CStatGraph@@V?$xalloc@USMarker@CStatGraph@@@@@priv@stlp_std@@QBE?AU?$_Deque_iterator@USMarker@CStatGraph@@U?$_Const_traits@USMarker@CStatGraph@@@stlp_std@@@23@XZ ENDP ; stlp_std::priv::_Impl_deque<CStatGraph::SMarker,xalloc<CStatGraph::SMarker> >::end
; Function compile flags: /Ogtpy
_TEXT	ENDS
;	COMDAT ?begin@?$_Impl_deque@USMarker@CStatGraph@@V?$xalloc@USMarker@CStatGraph@@@@@priv@stlp_std@@QBE?AU?$_Deque_iterator@USMarker@CStatGraph@@U?$_Const_traits@USMarker@CStatGraph@@@stlp_std@@@23@XZ
_TEXT	SEGMENT
?begin@?$_Impl_deque@USMarker@CStatGraph@@V?$xalloc@USMarker@CStatGraph@@@@@priv@stlp_std@@QBE?AU?$_Deque_iterator@USMarker@CStatGraph@@U?$_Const_traits@USMarker@CStatGraph@@@stlp_std@@@23@XZ PROC ; stlp_std::priv::_Impl_deque<CStatGraph::SMarker,xalloc<CStatGraph::SMarker> >::begin, COMDAT
; _this$ = ecx
; ___$ReturnUdt$ = eax

; 437  :   const_iterator begin() const { return const_iterator(this->_M_start); }

	mov	edx, DWORD PTR [ecx]
	mov	DWORD PTR [eax], edx
	mov	edx, DWORD PTR [ecx+4]
	mov	DWORD PTR [eax+4], edx
	mov	edx, DWORD PTR [ecx+8]
	mov	ecx, DWORD PTR [ecx+12]
	mov	DWORD PTR [eax+8], edx
	mov	DWORD PTR [eax+12], ecx
	ret	0
?begin@?$_Impl_deque@USMarker@CStatGraph@@V?$xalloc@USMarker@CStatGraph@@@@@priv@stlp_std@@QBE?AU?$_Deque_iterator@USMarker@CStatGraph@@U?$_Const_traits@USMarker@CStatGraph@@@stlp_std@@@23@XZ ENDP ; stlp_std::priv::_Impl_deque<CStatGraph::SMarker,xalloc<CStatGraph::SMarker> >::begin
; Function compile flags: /Ogtpy
; File d:\clearsky\sources\sdk\include\stlport\stl\_vector.h
_TEXT	ENDS
;	COMDAT ?size@?$_Impl_vector@USSubGraph@CStatGraph@@V?$xalloc@USSubGraph@CStatGraph@@@@@priv@stlp_std@@QBEIXZ
_TEXT	SEGMENT
?size@?$_Impl_vector@USSubGraph@CStatGraph@@V?$xalloc@USSubGraph@CStatGraph@@@@@priv@stlp_std@@QBEIXZ PROC ; stlp_std::priv::_Impl_vector<CStatGraph::SSubGraph,xalloc<CStatGraph::SSubGraph> >::size, COMDAT
; _this$ = eax

; 180  :   size_type size() const        { return size_type(this->_M_finish - this->_M_start); }

	mov	ecx, DWORD PTR [eax+4]
	sub	ecx, DWORD PTR [eax]
	mov	eax, 780903145				; 2e8ba2e9H
	imul	ecx
	sar	edx, 3
	mov	eax, edx
	shr	eax, 31					; 0000001fH
	add	eax, edx
	ret	0
?size@?$_Impl_vector@USSubGraph@CStatGraph@@V?$xalloc@USSubGraph@CStatGraph@@@@@priv@stlp_std@@QBEIXZ ENDP ; stlp_std::priv::_Impl_vector<CStatGraph::SSubGraph,xalloc<CStatGraph::SSubGraph> >::size
; Function compile flags: /Ogtpy
_TEXT	ENDS
;	COMDAT ?end@?$_Impl_vector@USSubGraph@CStatGraph@@V?$xalloc@USSubGraph@CStatGraph@@@@@priv@stlp_std@@QBEPBUSSubGraph@CStatGraph@@XZ
_TEXT	SEGMENT
?end@?$_Impl_vector@USSubGraph@CStatGraph@@V?$xalloc@USSubGraph@CStatGraph@@@@@priv@stlp_std@@QBEPBUSSubGraph@CStatGraph@@XZ PROC ; stlp_std::priv::_Impl_vector<CStatGraph::SSubGraph,xalloc<CStatGraph::SSubGraph> >::end, COMDAT
; _this$ = eax

; 173  :   const_iterator end() const   { return this->_M_finish; }

	mov	eax, DWORD PTR [eax+4]
	ret	0
?end@?$_Impl_vector@USSubGraph@CStatGraph@@V?$xalloc@USSubGraph@CStatGraph@@@@@priv@stlp_std@@QBEPBUSSubGraph@CStatGraph@@XZ ENDP ; stlp_std::priv::_Impl_vector<CStatGraph::SSubGraph,xalloc<CStatGraph::SSubGraph> >::end
; Function compile flags: /Ogtpy
_TEXT	ENDS
;	COMDAT ?begin@?$_Impl_vector@USSubGraph@CStatGraph@@V?$xalloc@USSubGraph@CStatGraph@@@@@priv@stlp_std@@QBEPBUSSubGraph@CStatGraph@@XZ
_TEXT	SEGMENT
?begin@?$_Impl_vector@USSubGraph@CStatGraph@@V?$xalloc@USSubGraph@CStatGraph@@@@@priv@stlp_std@@QBEPBUSSubGraph@CStatGraph@@XZ PROC ; stlp_std::priv::_Impl_vector<CStatGraph::SSubGraph,xalloc<CStatGraph::SSubGraph> >::begin, COMDAT
; _this$ = eax

; 171  :   const_iterator begin() const { return this->_M_start; }

	mov	eax, DWORD PTR [eax]
	ret	0
?begin@?$_Impl_vector@USSubGraph@CStatGraph@@V?$xalloc@USSubGraph@CStatGraph@@@@@priv@stlp_std@@QBEPBUSSubGraph@CStatGraph@@XZ ENDP ; stlp_std::priv::_Impl_vector<CStatGraph::SSubGraph,xalloc<CStatGraph::SSubGraph> >::begin
; Function compile flags: /Ogtpy
_TEXT	ENDS
;	COMDAT ?get_allocator@?$_Impl_vector@USSubGraph@CStatGraph@@V?$xalloc@USSubGraph@CStatGraph@@@@@priv@stlp_std@@QBE?AV?$xalloc@USSubGraph@CStatGraph@@@@XZ
_TEXT	SEGMENT
?get_allocator@?$_Impl_vector@USSubGraph@CStatGraph@@V?$xalloc@USSubGraph@CStatGraph@@@@@priv@stlp_std@@QBE?AV?$xalloc@USSubGraph@CStatGraph@@@@XZ PROC ; stlp_std::priv::_Impl_vector<CStatGraph::SSubGraph,xalloc<CStatGraph::SSubGraph> >::get_allocator, COMDAT
; ___$ReturnUdt$ = eax

; 134  :   { return _STLP_CONVERT_ALLOCATOR((const allocator_type&)this->_M_end_of_storage, _Tp); }

	ret	0
?get_allocator@?$_Impl_vector@USSubGraph@CStatGraph@@V?$xalloc@USSubGraph@CStatGraph@@@@@priv@stlp_std@@QBE?AV?$xalloc@USSubGraph@CStatGraph@@@@XZ ENDP ; stlp_std::priv::_Impl_vector<CStatGraph::SSubGraph,xalloc<CStatGraph::SSubGraph> >::get_allocator
; Function compile flags: /Ogtpy
; File d:\clearsky\sources\engine\xrcore\_stl_extensions.h
_TEXT	ENDS
;	COMDAT ?deallocate@?$xalloc@USSubGraph@CStatGraph@@@@QBEXPAUSSubGraph@CStatGraph@@I@Z
_TEXT	SEGMENT
?deallocate@?$xalloc@USSubGraph@CStatGraph@@@@QBEXPAUSSubGraph@CStatGraph@@I@Z PROC ; xalloc<CStatGraph::SSubGraph>::deallocate, COMDAT
; _p$ = eax

; 83   : 							void					deallocate		(pointer p, size_type n) const			{	xr_free	(p);				}

	test	eax, eax
	je	SHORT $LN3@deallocate@12
	mov	ecx, DWORD PTR __imp_?Memory@@3VxrMemory@@A
	push	eax
	call	DWORD PTR __imp_?mem_free@xrMemory@@QAEXPAX@Z
$LN3@deallocate@12:
	ret	0
?deallocate@?$xalloc@USSubGraph@CStatGraph@@@@QBEXPAUSSubGraph@CStatGraph@@I@Z ENDP ; xalloc<CStatGraph::SSubGraph>::deallocate
; Function compile flags: /Ogtpy
; File d:\clearsky\sources\sdk\include\stlport\stl\_deque.h
_TEXT	ENDS
;	COMDAT ?size@?$_Impl_deque@USElement@CStatGraph@@V?$xalloc@USElement@CStatGraph@@@@@priv@stlp_std@@QBEIXZ
_TEXT	SEGMENT
$T211330 = -16						; size = 16
?size@?$_Impl_deque@USElement@CStatGraph@@V?$xalloc@USElement@CStatGraph@@@@@priv@stlp_std@@QBEIXZ PROC ; stlp_std::priv::_Impl_deque<CStatGraph::SElement,xalloc<CStatGraph::SElement> >::size, COMDAT
; _this$ = eax

; 474  :   size_type size() const { return this->_M_finish - this->_M_start; }

	sub	esp, 16					; 00000010H
	mov	ecx, DWORD PTR [eax+4]
	mov	edx, DWORD PTR [eax]
	push	esi
	mov	esi, DWORD PTR [eax+12]
	push	edi
	mov	edi, DWORD PTR [eax+16]
	sub	edi, DWORD PTR [eax+20]
	mov	DWORD PTR $T211330[esp+28], ecx
	mov	ecx, DWORD PTR [eax+8]
	mov	eax, DWORD PTR [eax+28]
	sub	eax, esi
	sar	eax, 2
	sar	edi, 3
	shl	eax, 4
	add	edi, eax
	sub	ecx, edx
	sar	ecx, 3
	lea	eax, DWORD PTR [edi+ecx-16]
	pop	edi
	pop	esi
	add	esp, 16					; 00000010H
	ret	0
?size@?$_Impl_deque@USElement@CStatGraph@@V?$xalloc@USElement@CStatGraph@@@@@priv@stlp_std@@QBEIXZ ENDP ; stlp_std::priv::_Impl_deque<CStatGraph::SElement,xalloc<CStatGraph::SElement> >::size
; Function compile flags: /Ogtpy
; File d:\clearsky\sources\sdk\include\stlport\stl\pointers\_tools.h
_TEXT	ENDS
;	COMDAT ?to_storage_type_cref@?$_CastTraits@USMarker@CStatGraph@@U12@@priv@stlp_std@@SAABUSMarker@CStatGraph@@ABU45@@Z
_TEXT	SEGMENT
?to_storage_type_cref@?$_CastTraits@USMarker@CStatGraph@@U12@@priv@stlp_std@@SAABUSMarker@CStatGraph@@ABU45@@Z PROC ; stlp_std::priv::_CastTraits<CStatGraph::SMarker,CStatGraph::SMarker>::to_storage_type_cref, COMDAT
; ___ref$ = eax

; 254  :   { return __ref; }

	ret	0
?to_storage_type_cref@?$_CastTraits@USMarker@CStatGraph@@U12@@priv@stlp_std@@SAABUSMarker@CStatGraph@@ABU45@@Z ENDP ; stlp_std::priv::_CastTraits<CStatGraph::SMarker,CStatGraph::SMarker>::to_storage_type_cref
; Function compile flags: /Ogtpy
_TEXT	ENDS
;	COMDAT ?to_value_type_ref@?$_CastTraits@USMarker@CStatGraph@@U12@@priv@stlp_std@@SAAAUSMarker@CStatGraph@@AAU45@@Z
_TEXT	SEGMENT
?to_value_type_ref@?$_CastTraits@USMarker@CStatGraph@@U12@@priv@stlp_std@@SAAAUSMarker@CStatGraph@@AAU45@@Z PROC ; stlp_std::priv::_CastTraits<CStatGraph::SMarker,CStatGraph::SMarker>::to_value_type_ref, COMDAT
; ___ref$ = eax

; 243  :   { return __ref; }

	ret	0
?to_value_type_ref@?$_CastTraits@USMarker@CStatGraph@@U12@@priv@stlp_std@@SAAAUSMarker@CStatGraph@@AAU45@@Z ENDP ; stlp_std::priv::_CastTraits<CStatGraph::SMarker,CStatGraph::SMarker>::to_value_type_ref
; Function compile flags: /Ogtpy
_TEXT	ENDS
;	COMDAT ?to_storage_type_cref@?$_CastTraits@USSubGraph@CStatGraph@@U12@@priv@stlp_std@@SAABUSSubGraph@CStatGraph@@ABU45@@Z
_TEXT	SEGMENT
?to_storage_type_cref@?$_CastTraits@USSubGraph@CStatGraph@@U12@@priv@stlp_std@@SAABUSSubGraph@CStatGraph@@ABU45@@Z PROC ; stlp_std::priv::_CastTraits<CStatGraph::SSubGraph,CStatGraph::SSubGraph>::to_storage_type_cref, COMDAT
; ___ref$ = eax

; 254  :   { return __ref; }

	ret	0
?to_storage_type_cref@?$_CastTraits@USSubGraph@CStatGraph@@U12@@priv@stlp_std@@SAABUSSubGraph@CStatGraph@@ABU45@@Z ENDP ; stlp_std::priv::_CastTraits<CStatGraph::SSubGraph,CStatGraph::SSubGraph>::to_storage_type_cref
; Function compile flags: /Ogtpy
_TEXT	ENDS
;	COMDAT ?to_value_type_ptr@?$_CastTraits@USSubGraph@CStatGraph@@U12@@priv@stlp_std@@SAPAUSSubGraph@CStatGraph@@PAU45@@Z
_TEXT	SEGMENT
?to_value_type_ptr@?$_CastTraits@USSubGraph@CStatGraph@@U12@@priv@stlp_std@@SAPAUSSubGraph@CStatGraph@@PAU45@@Z PROC ; stlp_std::priv::_CastTraits<CStatGraph::SSubGraph,CStatGraph::SSubGraph>::to_value_type_ptr, COMDAT
; ___ptr$ = eax

; 237  :   { return __ptr; }

	ret	0
?to_value_type_ptr@?$_CastTraits@USSubGraph@CStatGraph@@U12@@priv@stlp_std@@SAPAUSSubGraph@CStatGraph@@PAU45@@Z ENDP ; stlp_std::priv::_CastTraits<CStatGraph::SSubGraph,CStatGraph::SSubGraph>::to_value_type_ptr
; Function compile flags: /Ogtpy
_TEXT	ENDS
;	COMDAT ?to_storage_type_cref@?$_CastTraits@USElement@CStatGraph@@U12@@priv@stlp_std@@SAABUSElement@CStatGraph@@ABU45@@Z
_TEXT	SEGMENT
?to_storage_type_cref@?$_CastTraits@USElement@CStatGraph@@U12@@priv@stlp_std@@SAABUSElement@CStatGraph@@ABU45@@Z PROC ; stlp_std::priv::_CastTraits<CStatGraph::SElement,CStatGraph::SElement>::to_storage_type_cref, COMDAT
; ___ref$ = eax

; 254  :   { return __ref; }

	ret	0
?to_storage_type_cref@?$_CastTraits@USElement@CStatGraph@@U12@@priv@stlp_std@@SAABUSElement@CStatGraph@@ABU45@@Z ENDP ; stlp_std::priv::_CastTraits<CStatGraph::SElement,CStatGraph::SElement>::to_storage_type_cref
; Function compile flags: /Ogtpy
; File d:\clearsky\sources\sdk\include\stlport\stl\_deque.h
_TEXT	ENDS
;	COMDAT ??Y?$_Deque_iterator@USMarker@CStatGraph@@U?$_Nonconst_traits@USMarker@CStatGraph@@@stlp_std@@@priv@stlp_std@@QAEAAU012@H@Z
_TEXT	SEGMENT
??Y?$_Deque_iterator@USMarker@CStatGraph@@U?$_Nonconst_traits@USMarker@CStatGraph@@@stlp_std@@@priv@stlp_std@@QAEAAU012@H@Z PROC ; stlp_std::priv::_Deque_iterator<CStatGraph::SMarker,stlp_std::_Nonconst_traits<CStatGraph::SMarker> >::operator+=, COMDAT
; _this$ = eax
; ___n$ = ebx

; 208  :   _Self& operator+=(difference_type __n) { this->_M_advance(__n); return *this; }

	push	esi
	mov	esi, eax
	call	?_M_advance@?$_Deque_iterator_base@USMarker@CStatGraph@@@priv@stlp_std@@QAEXH@Z ; stlp_std::priv::_Deque_iterator_base<CStatGraph::SMarker>::_M_advance
	mov	eax, esi
	pop	esi
	ret	0
??Y?$_Deque_iterator@USMarker@CStatGraph@@U?$_Nonconst_traits@USMarker@CStatGraph@@@stlp_std@@@priv@stlp_std@@QAEAAU012@H@Z ENDP ; stlp_std::priv::_Deque_iterator<CStatGraph::SMarker,stlp_std::_Nonconst_traits<CStatGraph::SMarker> >::operator+=
; Function compile flags: /Ogtpy
_TEXT	ENDS
;	COMDAT ??0?$_Deque_iterator@USMarker@CStatGraph@@U?$_Nonconst_traits@USMarker@CStatGraph@@@stlp_std@@@priv@stlp_std@@QAE@ABU012@@Z
_TEXT	SEGMENT
??0?$_Deque_iterator@USMarker@CStatGraph@@U?$_Nonconst_traits@USMarker@CStatGraph@@@stlp_std@@@priv@stlp_std@@QAE@ABU012@@Z PROC ; stlp_std::priv::_Deque_iterator<CStatGraph::SMarker,stlp_std::_Nonconst_traits<CStatGraph::SMarker> >::_Deque_iterator<CStatGraph::SMarker,stlp_std::_Nonconst_traits<CStatGraph::SMarker> >, COMDAT
; _this$ = eax
; ___x$ = ecx

; 184  :     _Deque_iterator_base<value_type>(__x) {}

	mov	edx, DWORD PTR [ecx]
	mov	DWORD PTR [eax], edx
	mov	edx, DWORD PTR [ecx+4]
	mov	DWORD PTR [eax+4], edx
	mov	edx, DWORD PTR [ecx+8]
	mov	DWORD PTR [eax+8], edx
	mov	ecx, DWORD PTR [ecx+12]
	mov	DWORD PTR [eax+12], ecx
	ret	0
??0?$_Deque_iterator@USMarker@CStatGraph@@U?$_Nonconst_traits@USMarker@CStatGraph@@@stlp_std@@@priv@stlp_std@@QAE@ABU012@@Z ENDP ; stlp_std::priv::_Deque_iterator<CStatGraph::SMarker,stlp_std::_Nonconst_traits<CStatGraph::SMarker> >::_Deque_iterator<CStatGraph::SMarker,stlp_std::_Nonconst_traits<CStatGraph::SMarker> >
; Function compile flags: /Ogtpy
_TEXT	ENDS
;	COMDAT ?begin@?$_Impl_deque@USMarker@CStatGraph@@V?$xalloc@USMarker@CStatGraph@@@@@priv@stlp_std@@QAE?AU?$_Deque_iterator@USMarker@CStatGraph@@U?$_Nonconst_traits@USMarker@CStatGraph@@@stlp_std@@@23@XZ
_TEXT	SEGMENT
?begin@?$_Impl_deque@USMarker@CStatGraph@@V?$xalloc@USMarker@CStatGraph@@@@@priv@stlp_std@@QAE?AU?$_Deque_iterator@USMarker@CStatGraph@@U?$_Nonconst_traits@USMarker@CStatGraph@@@stlp_std@@@23@XZ PROC ; stlp_std::priv::_Impl_deque<CStatGraph::SMarker,xalloc<CStatGraph::SMarker> >::begin, COMDAT
; _this$ = ecx
; ___$ReturnUdt$ = eax

; 435  :   iterator begin() { return this->_M_start; }

	mov	edx, DWORD PTR [ecx]
	mov	DWORD PTR [eax], edx
	mov	edx, DWORD PTR [ecx+4]
	mov	DWORD PTR [eax+4], edx
	mov	edx, DWORD PTR [ecx+8]
	mov	ecx, DWORD PTR [ecx+12]
	mov	DWORD PTR [eax+8], edx
	mov	DWORD PTR [eax+12], ecx
	ret	0
?begin@?$_Impl_deque@USMarker@CStatGraph@@V?$xalloc@USMarker@CStatGraph@@@@@priv@stlp_std@@QAE?AU?$_Deque_iterator@USMarker@CStatGraph@@U?$_Nonconst_traits@USMarker@CStatGraph@@@stlp_std@@@23@XZ ENDP ; stlp_std::priv::_Impl_deque<CStatGraph::SMarker,xalloc<CStatGraph::SMarker> >::begin
; Function compile flags: /Ogtpy
; File d:\clearsky\sources\sdk\include\stlport\stl\pointers\_deque.h
_TEXT	ENDS
;	COMDAT ?size@?$deque@USMarker@CStatGraph@@V?$xalloc@USMarker@CStatGraph@@@@@stlp_std@@QBEIXZ
_TEXT	SEGMENT
$T211389 = -16						; size = 16
?size@?$deque@USMarker@CStatGraph@@V?$xalloc@USMarker@CStatGraph@@@@@stlp_std@@QBEIXZ PROC ; stlp_std::deque<CStatGraph::SMarker,xalloc<CStatGraph::SMarker> >::size, COMDAT
; _this$ = ecx

; 151  :   size_type size() const     { return _M_impl.size(); }

	sub	esp, 16					; 00000010H
	mov	eax, DWORD PTR [ecx+4]
	mov	edx, DWORD PTR [ecx+16]
	sub	edx, DWORD PTR [ecx+20]
	mov	DWORD PTR $T211389[esp+20], eax
	mov	eax, 715827883				; 2aaaaaabH
	imul	edx
	push	ebx
	mov	ebx, DWORD PTR [ecx+12]
	push	esi
	mov	esi, DWORD PTR [ecx+8]
	push	edi
	mov	edi, DWORD PTR [ecx]
	mov	ecx, DWORD PTR [ecx+28]
	sar	edx, 1
	sub	ecx, ebx
	mov	eax, edx
	shr	eax, 31					; 0000001fH
	add	eax, edx
	sar	ecx, 2
	lea	ecx, DWORD PTR [ecx+ecx*4]
	lea	ecx, DWORD PTR [eax+ecx*2]
	sub	esi, edi
	mov	eax, 715827883				; 2aaaaaabH
	imul	esi
	sar	edx, 1
	mov	eax, edx
	pop	edi
	shr	eax, 31					; 0000001fH
	add	ecx, edx
	pop	esi
	lea	eax, DWORD PTR [eax+ecx-10]
	pop	ebx
	add	esp, 16					; 00000010H
	ret	0
?size@?$deque@USMarker@CStatGraph@@V?$xalloc@USMarker@CStatGraph@@@@@stlp_std@@QBEIXZ ENDP ; stlp_std::deque<CStatGraph::SMarker,xalloc<CStatGraph::SMarker> >::size
; Function compile flags: /Ogtpy
; File d:\clearsky\sources\sdk\include\stlport\stl\_vector.h
_TEXT	ENDS
;	COMDAT ??1?$_Vector_base@USSubGraph@CStatGraph@@V?$xalloc@USSubGraph@CStatGraph@@@@@priv@stlp_std@@QAE@XZ
_TEXT	SEGMENT
??1?$_Vector_base@USSubGraph@CStatGraph@@V?$xalloc@USSubGraph@CStatGraph@@@@@priv@stlp_std@@QAE@XZ PROC ; stlp_std::priv::_Vector_base<CStatGraph::SSubGraph,xalloc<CStatGraph::SSubGraph> >::~_Vector_base<CStatGraph::SSubGraph,xalloc<CStatGraph::SSubGraph> >, COMDAT
; _this$ = eax

; 85   :     if (_M_start != _STLP_DEFAULT_CONSTRUCTED(pointer))

	mov	eax, DWORD PTR [eax]
	test	eax, eax
	je	SHORT $LN6@Vector_bas@5

; 86   :       _M_end_of_storage.deallocate(_M_start, _M_end_of_storage._M_data - _M_start);

	mov	ecx, DWORD PTR __imp_?Memory@@3VxrMemory@@A
	push	eax
	call	DWORD PTR __imp_?mem_free@xrMemory@@QAEXPAX@Z
$LN6@Vector_bas@5:

; 87   :   }

	ret	0
??1?$_Vector_base@USSubGraph@CStatGraph@@V?$xalloc@USSubGraph@CStatGraph@@@@@priv@stlp_std@@QAE@XZ ENDP ; stlp_std::priv::_Vector_base<CStatGraph::SSubGraph,xalloc<CStatGraph::SSubGraph> >::~_Vector_base<CStatGraph::SSubGraph,xalloc<CStatGraph::SSubGraph> >
; Function compile flags: /Ogtpy
_TEXT	ENDS
;	COMDAT ?end@?$_Impl_vector@USSubGraph@CStatGraph@@V?$xalloc@USSubGraph@CStatGraph@@@@@priv@stlp_std@@QAEPAUSSubGraph@CStatGraph@@XZ
_TEXT	SEGMENT
?end@?$_Impl_vector@USSubGraph@CStatGraph@@V?$xalloc@USSubGraph@CStatGraph@@@@@priv@stlp_std@@QAEPAUSSubGraph@CStatGraph@@XZ PROC ; stlp_std::priv::_Impl_vector<CStatGraph::SSubGraph,xalloc<CStatGraph::SSubGraph> >::end, COMDAT
; _this$ = eax

; 172  :   iterator end()               { return this->_M_finish; }

	mov	eax, DWORD PTR [eax+4]
	ret	0
?end@?$_Impl_vector@USSubGraph@CStatGraph@@V?$xalloc@USSubGraph@CStatGraph@@@@@priv@stlp_std@@QAEPAUSSubGraph@CStatGraph@@XZ ENDP ; stlp_std::priv::_Impl_vector<CStatGraph::SSubGraph,xalloc<CStatGraph::SSubGraph> >::end
; Function compile flags: /Ogtpy
_TEXT	ENDS
;	COMDAT ?begin@?$_Impl_vector@USSubGraph@CStatGraph@@V?$xalloc@USSubGraph@CStatGraph@@@@@priv@stlp_std@@QAEPAUSSubGraph@CStatGraph@@XZ
_TEXT	SEGMENT
?begin@?$_Impl_vector@USSubGraph@CStatGraph@@V?$xalloc@USSubGraph@CStatGraph@@@@@priv@stlp_std@@QAEPAUSSubGraph@CStatGraph@@XZ PROC ; stlp_std::priv::_Impl_vector<CStatGraph::SSubGraph,xalloc<CStatGraph::SSubGraph> >::begin, COMDAT
; _this$ = eax

; 170  :   iterator begin()             { return this->_M_start; }

	mov	eax, DWORD PTR [eax]
	ret	0
?begin@?$_Impl_vector@USSubGraph@CStatGraph@@V?$xalloc@USSubGraph@CStatGraph@@@@@priv@stlp_std@@QAEPAUSSubGraph@CStatGraph@@XZ ENDP ; stlp_std::priv::_Impl_vector<CStatGraph::SSubGraph,xalloc<CStatGraph::SSubGraph> >::begin
; Function compile flags: /Ogtpy
; File d:\clearsky\sources\engine\xrcore\_stl_extensions.h
_TEXT	ENDS
;	COMDAT ??0?$xalloc@USSubGraph@CStatGraph@@@@QAE@XZ
_TEXT	SEGMENT
??0?$xalloc@USSubGraph@CStatGraph@@@@QAE@XZ PROC	; xalloc<CStatGraph::SSubGraph>::xalloc<CStatGraph::SSubGraph>, COMDAT
; _this$ = eax

; 77   : 													xalloc			()										{	}

	ret	0
??0?$xalloc@USSubGraph@CStatGraph@@@@QAE@XZ ENDP	; xalloc<CStatGraph::SSubGraph>::xalloc<CStatGraph::SSubGraph>
; Function compile flags: /Ogtpy
; File d:\clearsky\sources\sdk\include\stlport\stl\pointers\_vector.h
_TEXT	ENDS
;	COMDAT ?size@?$vector@USSubGraph@CStatGraph@@V?$xalloc@USSubGraph@CStatGraph@@@@@stlp_std@@QBEIXZ
_TEXT	SEGMENT
?size@?$vector@USSubGraph@CStatGraph@@V?$xalloc@USSubGraph@CStatGraph@@@@@stlp_std@@QBEIXZ PROC ; stlp_std::vector<CStatGraph::SSubGraph,xalloc<CStatGraph::SSubGraph> >::size, COMDAT
; _this$ = eax

; 89   :   size_type size() const        { return _M_impl.size(); }

	mov	ecx, DWORD PTR [eax+4]
	sub	ecx, DWORD PTR [eax]
	mov	eax, 780903145				; 2e8ba2e9H
	imul	ecx
	sar	edx, 3
	mov	eax, edx
	shr	eax, 31					; 0000001fH
	add	eax, edx
	ret	0
?size@?$vector@USSubGraph@CStatGraph@@V?$xalloc@USSubGraph@CStatGraph@@@@@stlp_std@@QBEIXZ ENDP ; stlp_std::vector<CStatGraph::SSubGraph,xalloc<CStatGraph::SSubGraph> >::size
; Function compile flags: /Ogtpy
; File d:\clearsky\sources\sdk\include\stlport\stl\_deque.h
_TEXT	ENDS
;	COMDAT ??0?$_Deque_iterator@USElement@CStatGraph@@U?$_Nonconst_traits@USElement@CStatGraph@@@stlp_std@@@priv@stlp_std@@QAE@ABU012@@Z
_TEXT	SEGMENT
??0?$_Deque_iterator@USElement@CStatGraph@@U?$_Nonconst_traits@USElement@CStatGraph@@@stlp_std@@@priv@stlp_std@@QAE@ABU012@@Z PROC ; stlp_std::priv::_Deque_iterator<CStatGraph::SElement,stlp_std::_Nonconst_traits<CStatGraph::SElement> >::_Deque_iterator<CStatGraph::SElement,stlp_std::_Nonconst_traits<CStatGraph::SElement> >, COMDAT
; _this$ = eax
; ___x$ = ecx

; 184  :     _Deque_iterator_base<value_type>(__x) {}

	mov	edx, DWORD PTR [ecx]
	mov	DWORD PTR [eax], edx
	mov	edx, DWORD PTR [ecx+4]
	mov	DWORD PTR [eax+4], edx
	mov	edx, DWORD PTR [ecx+8]
	mov	DWORD PTR [eax+8], edx
	mov	ecx, DWORD PTR [ecx+12]
	mov	DWORD PTR [eax+12], ecx
	ret	0
??0?$_Deque_iterator@USElement@CStatGraph@@U?$_Nonconst_traits@USElement@CStatGraph@@@stlp_std@@@priv@stlp_std@@QAE@ABU012@@Z ENDP ; stlp_std::priv::_Deque_iterator<CStatGraph::SElement,stlp_std::_Nonconst_traits<CStatGraph::SElement> >::_Deque_iterator<CStatGraph::SElement,stlp_std::_Nonconst_traits<CStatGraph::SElement> >
; Function compile flags: /Ogtpy
_TEXT	ENDS
;	COMDAT ?pop_front@?$_Impl_deque@USElement@CStatGraph@@V?$xalloc@USElement@CStatGraph@@@@@priv@stlp_std@@QAEXXZ
_TEXT	SEGMENT
?pop_front@?$_Impl_deque@USElement@CStatGraph@@V?$xalloc@USElement@CStatGraph@@@@@priv@stlp_std@@QAEXXZ PROC ; stlp_std::priv::_Impl_deque<CStatGraph::SElement,xalloc<CStatGraph::SElement> >::pop_front, COMDAT
; _this$ = esi

; 717  :     _STLP_STD::_Destroy(this->_M_start._M_cur);
; 718  :     _M_pop_front_aux();

	mov	ecx, DWORD PTR [esi+8]
	mov	eax, DWORD PTR [esi]
	sub	ecx, 8
	cmp	eax, ecx
	je	SHORT $LN4@pop_front
	add	eax, 8
	mov	DWORD PTR [esi], eax

; 719  :   }

	ret	0

; 717  :     _STLP_STD::_Destroy(this->_M_start._M_cur);
; 718  :     _M_pop_front_aux();

$LN4@pop_front:
	mov	eax, DWORD PTR [esi+4]
	test	eax, eax
	je	SHORT $LN11@pop_front
	mov	ecx, DWORD PTR __imp_?Memory@@3VxrMemory@@A
	push	eax
	call	DWORD PTR __imp_?mem_free@xrMemory@@QAEXPAX@Z
$LN11@pop_front:
	mov	eax, DWORD PTR [esi+12]
	add	eax, 4
	mov	DWORD PTR [esi+12], eax
	mov	eax, DWORD PTR [eax]
	mov	DWORD PTR [esi+4], eax
	mov	edx, DWORD PTR [esi+4]
	add	eax, 128				; 00000080H
	mov	DWORD PTR [esi+8], eax
	mov	DWORD PTR [esi], edx

; 719  :   }

	ret	0
?pop_front@?$_Impl_deque@USElement@CStatGraph@@V?$xalloc@USElement@CStatGraph@@@@@priv@stlp_std@@QAEXXZ ENDP ; stlp_std::priv::_Impl_deque<CStatGraph::SElement,xalloc<CStatGraph::SElement> >::pop_front
; Function compile flags: /Ogtpy
; File d:\clearsky\sources\sdk\include\stlport\stl\pointers\_deque.h
_TEXT	ENDS
;	COMDAT ?size@?$deque@USElement@CStatGraph@@V?$xalloc@USElement@CStatGraph@@@@@stlp_std@@QBEIXZ
_TEXT	SEGMENT
$T211483 = -16						; size = 16
?size@?$deque@USElement@CStatGraph@@V?$xalloc@USElement@CStatGraph@@@@@stlp_std@@QBEIXZ PROC ; stlp_std::deque<CStatGraph::SElement,xalloc<CStatGraph::SElement> >::size, COMDAT
; _this$ = eax

; 151  :   size_type size() const     { return _M_impl.size(); }

	sub	esp, 16					; 00000010H
	mov	ecx, DWORD PTR [eax+4]
	mov	edx, DWORD PTR [eax]
	push	esi
	mov	esi, DWORD PTR [eax+12]
	push	edi
	mov	edi, DWORD PTR [eax+16]
	sub	edi, DWORD PTR [eax+20]
	mov	DWORD PTR $T211483[esp+28], ecx
	mov	ecx, DWORD PTR [eax+8]
	mov	eax, DWORD PTR [eax+28]
	sub	eax, esi
	sar	eax, 2
	sar	edi, 3
	shl	eax, 4
	add	edi, eax
	sub	ecx, edx
	sar	ecx, 3
	lea	eax, DWORD PTR [edi+ecx-16]
	pop	edi
	pop	esi
	add	esp, 16					; 00000010H
	ret	0
?size@?$deque@USElement@CStatGraph@@V?$xalloc@USElement@CStatGraph@@@@@stlp_std@@QBEIXZ ENDP ; stlp_std::deque<CStatGraph::SElement,xalloc<CStatGraph::SElement> >::size
; Function compile flags: /Ogtpy
; File d:\clearsky\sources\sdk\include\stlport\stl\_deque.h
_TEXT	ENDS
;	COMDAT ??H?$_Deque_iterator@USMarker@CStatGraph@@U?$_Nonconst_traits@USMarker@CStatGraph@@@stlp_std@@@priv@stlp_std@@QBE?AU012@H@Z
_TEXT	SEGMENT
___tmp$ = -20						; size = 16
??H?$_Deque_iterator@USMarker@CStatGraph@@U?$_Nonconst_traits@USMarker@CStatGraph@@@stlp_std@@@priv@stlp_std@@QBE?AU012@H@Z PROC ; stlp_std::priv::_Deque_iterator<CStatGraph::SMarker,stlp_std::_Nonconst_traits<CStatGraph::SMarker> >::operator+, COMDAT
; _this$ = eax
; ___$ReturnUdt$ = edi
; ___n$ = ebx

; 209  :   _Self operator+(difference_type __n) const {

	sub	esp, 24					; 00000018H

; 210  :     _Self __tmp = *this;

	mov	ecx, DWORD PTR [eax]
	mov	edx, DWORD PTR [eax+4]
	mov	DWORD PTR ___tmp$[esp+24], ecx
	mov	ecx, DWORD PTR [eax+8]
	mov	DWORD PTR ___tmp$[esp+28], edx
	mov	edx, DWORD PTR [eax+12]
	push	esi

; 211  :     return __tmp += __n;

	lea	esi, DWORD PTR ___tmp$[esp+28]
	mov	DWORD PTR ___tmp$[esp+36], ecx
	mov	DWORD PTR ___tmp$[esp+40], edx
	call	?_M_advance@?$_Deque_iterator_base@USMarker@CStatGraph@@@priv@stlp_std@@QAEXH@Z ; stlp_std::priv::_Deque_iterator_base<CStatGraph::SMarker>::_M_advance
	mov	eax, DWORD PTR ___tmp$[esp+28]
	mov	ecx, DWORD PTR ___tmp$[esp+32]
	mov	edx, DWORD PTR ___tmp$[esp+36]
	mov	DWORD PTR [edi], eax
	mov	eax, DWORD PTR ___tmp$[esp+40]
	mov	DWORD PTR [edi+4], ecx
	mov	DWORD PTR [edi+8], edx
	mov	DWORD PTR [edi+12], eax
	mov	eax, edi

; 212  :   }

	pop	esi
	add	esp, 24					; 00000018H
	ret	0
??H?$_Deque_iterator@USMarker@CStatGraph@@U?$_Nonconst_traits@USMarker@CStatGraph@@@stlp_std@@@priv@stlp_std@@QBE?AU012@H@Z ENDP ; stlp_std::priv::_Deque_iterator<CStatGraph::SMarker,stlp_std::_Nonconst_traits<CStatGraph::SMarker> >::operator+
; Function compile flags: /Ogtpy
; File d:\clearsky\sources\engine\xrcore\_stl_extensions.h
_TEXT	ENDS
;	COMDAT ??0?$xalloc@USMarker@CStatGraph@@@@QAE@XZ
_TEXT	SEGMENT
??0?$xalloc@USMarker@CStatGraph@@@@QAE@XZ PROC		; xalloc<CStatGraph::SMarker>::xalloc<CStatGraph::SMarker>, COMDAT
; _this$ = eax

; 77   : 													xalloc			()										{	}

	ret	0
??0?$xalloc@USMarker@CStatGraph@@@@QAE@XZ ENDP		; xalloc<CStatGraph::SMarker>::xalloc<CStatGraph::SMarker>
; Function compile flags: /Ogtpy
; File d:\clearsky\sources\sdk\include\stlport\stl\pointers\_deque.h
_TEXT	ENDS
;	COMDAT ?clear@?$deque@USMarker@CStatGraph@@V?$xalloc@USMarker@CStatGraph@@@@@stlp_std@@QAEXXZ
_TEXT	SEGMENT
?clear@?$deque@USMarker@CStatGraph@@V?$xalloc@USMarker@CStatGraph@@@@@stlp_std@@QAEXXZ PROC ; stlp_std::deque<CStatGraph::SMarker,xalloc<CStatGraph::SMarker> >::clear, COMDAT
; _this$ = edi

; 360  :   void clear() { _M_impl.clear(); }

	jmp	?clear@?$_Impl_deque@USMarker@CStatGraph@@V?$xalloc@USMarker@CStatGraph@@@@@priv@stlp_std@@QAEXXZ ; stlp_std::priv::_Impl_deque<CStatGraph::SMarker,xalloc<CStatGraph::SMarker> >::clear
?clear@?$deque@USMarker@CStatGraph@@V?$xalloc@USMarker@CStatGraph@@@@@stlp_std@@QAEXXZ ENDP ; stlp_std::deque<CStatGraph::SMarker,xalloc<CStatGraph::SMarker> >::clear
; Function compile flags: /Ogtpy
; File d:\clearsky\sources\engine\xrcore\_stl_extensions.h
_TEXT	ENDS
;	COMDAT ?size@?$xr_deque@USMarker@CStatGraph@@V?$xalloc@USMarker@CStatGraph@@@@@@QBEIXZ
_TEXT	SEGMENT
$T211539 = -16						; size = 16
?size@?$xr_deque@USMarker@CStatGraph@@V?$xalloc@USMarker@CStatGraph@@@@@@QBEIXZ PROC ; xr_deque<CStatGraph::SMarker,xalloc<CStatGraph::SMarker> >::size, COMDAT
; _this$ = ecx

; 170  : 	u32		size				() const							{return (u32)__super::size();	} 

	sub	esp, 16					; 00000010H
	mov	eax, DWORD PTR [ecx+4]
	mov	edx, DWORD PTR [ecx+16]
	sub	edx, DWORD PTR [ecx+20]
	mov	DWORD PTR $T211539[esp+20], eax
	mov	eax, 715827883				; 2aaaaaabH
	imul	edx
	push	ebx
	mov	ebx, DWORD PTR [ecx+12]
	push	esi
	mov	esi, DWORD PTR [ecx+8]
	push	edi
	mov	edi, DWORD PTR [ecx]
	mov	ecx, DWORD PTR [ecx+28]
	sar	edx, 1
	sub	ecx, ebx
	mov	eax, edx
	shr	eax, 31					; 0000001fH
	add	eax, edx
	sar	ecx, 2
	lea	ecx, DWORD PTR [ecx+ecx*4]
	lea	ecx, DWORD PTR [eax+ecx*2]
	sub	esi, edi
	mov	eax, 715827883				; 2aaaaaabH
	imul	esi
	sar	edx, 1
	mov	eax, edx
	pop	edi
	shr	eax, 31					; 0000001fH
	add	ecx, edx
	pop	esi
	lea	eax, DWORD PTR [eax+ecx-10]
	pop	ebx
	add	esp, 16					; 00000010H
	ret	0
?size@?$xr_deque@USMarker@CStatGraph@@V?$xalloc@USMarker@CStatGraph@@@@@@QBEIXZ ENDP ; xr_deque<CStatGraph::SMarker,xalloc<CStatGraph::SMarker> >::size
; Function compile flags: /Ogtpy
; File d:\clearsky\sources\sdk\include\stlport\stl\pointers\_vector.h
_TEXT	ENDS
;	COMDAT ?end@?$vector@USSubGraph@CStatGraph@@V?$xalloc@USSubGraph@CStatGraph@@@@@stlp_std@@QAEPAUSSubGraph@CStatGraph@@XZ
_TEXT	SEGMENT
?end@?$vector@USSubGraph@CStatGraph@@V?$xalloc@USSubGraph@CStatGraph@@@@@stlp_std@@QAEPAUSSubGraph@CStatGraph@@XZ PROC ; stlp_std::vector<CStatGraph::SSubGraph,xalloc<CStatGraph::SSubGraph> >::end, COMDAT
; _this$ = eax

; 81   :   iterator end()               { return cast_traits::to_value_type_ptr(_M_impl.end()); }

	mov	eax, DWORD PTR [eax+4]
	ret	0
?end@?$vector@USSubGraph@CStatGraph@@V?$xalloc@USSubGraph@CStatGraph@@@@@stlp_std@@QAEPAUSSubGraph@CStatGraph@@XZ ENDP ; stlp_std::vector<CStatGraph::SSubGraph,xalloc<CStatGraph::SSubGraph> >::end
; Function compile flags: /Ogtpy
_TEXT	ENDS
;	COMDAT ?begin@?$vector@USSubGraph@CStatGraph@@V?$xalloc@USSubGraph@CStatGraph@@@@@stlp_std@@QAEPAUSSubGraph@CStatGraph@@XZ
_TEXT	SEGMENT
?begin@?$vector@USSubGraph@CStatGraph@@V?$xalloc@USSubGraph@CStatGraph@@@@@stlp_std@@QAEPAUSSubGraph@CStatGraph@@XZ PROC ; stlp_std::vector<CStatGraph::SSubGraph,xalloc<CStatGraph::SSubGraph> >::begin, COMDAT
; _this$ = eax

; 79   :   iterator begin()             { return cast_traits::to_value_type_ptr(_M_impl.begin()); }

	mov	eax, DWORD PTR [eax]
	ret	0
?begin@?$vector@USSubGraph@CStatGraph@@V?$xalloc@USSubGraph@CStatGraph@@@@@stlp_std@@QAEPAUSSubGraph@CStatGraph@@XZ ENDP ; stlp_std::vector<CStatGraph::SSubGraph,xalloc<CStatGraph::SSubGraph> >::begin
; Function compile flags: /Ogtpy
; File d:\clearsky\sources\engine\xrcore\_stl_extensions.h
_TEXT	ENDS
;	COMDAT ?size@?$xr_vector@USSubGraph@CStatGraph@@V?$xalloc@USSubGraph@CStatGraph@@@@@@QBEIXZ
_TEXT	SEGMENT
?size@?$xr_vector@USSubGraph@CStatGraph@@V?$xalloc@USSubGraph@CStatGraph@@@@@@QBEIXZ PROC ; xr_vector<CStatGraph::SSubGraph,xalloc<CStatGraph::SSubGraph> >::size, COMDAT
; _this$ = eax

; 126  : 	u32		size				() const							{ return (u32)inherited::size();} 

	mov	ecx, DWORD PTR [eax+4]
	sub	ecx, DWORD PTR [eax]
	mov	eax, 780903145				; 2e8ba2e9H
	imul	ecx
	sar	edx, 3
	mov	eax, edx
	shr	eax, 31					; 0000001fH
	add	eax, edx
	ret	0
?size@?$xr_vector@USSubGraph@CStatGraph@@V?$xalloc@USSubGraph@CStatGraph@@@@@@QBEIXZ ENDP ; xr_vector<CStatGraph::SSubGraph,xalloc<CStatGraph::SSubGraph> >::size
; Function compile flags: /Ogtpy
_TEXT	ENDS
;	COMDAT ??0?$xalloc@USElement@CStatGraph@@@@QAE@XZ
_TEXT	SEGMENT
??0?$xalloc@USElement@CStatGraph@@@@QAE@XZ PROC		; xalloc<CStatGraph::SElement>::xalloc<CStatGraph::SElement>, COMDAT
; _this$ = eax

; 77   : 													xalloc			()										{	}

	ret	0
??0?$xalloc@USElement@CStatGraph@@@@QAE@XZ ENDP		; xalloc<CStatGraph::SElement>::xalloc<CStatGraph::SElement>
; Function compile flags: /Ogtpy
; File d:\clearsky\sources\sdk\include\stlport\stl\pointers\_deque.h
_TEXT	ENDS
;	COMDAT ?pop_front@?$deque@USElement@CStatGraph@@V?$xalloc@USElement@CStatGraph@@@@@stlp_std@@QAEXXZ
_TEXT	SEGMENT
?pop_front@?$deque@USElement@CStatGraph@@V?$xalloc@USElement@CStatGraph@@@@@stlp_std@@QAEXXZ PROC ; stlp_std::deque<CStatGraph::SElement,xalloc<CStatGraph::SElement> >::pop_front, COMDAT
; _this$ = esi

; 278  :   void pop_front() { _M_impl.pop_front(); }

	mov	ecx, DWORD PTR [esi+8]
	mov	eax, DWORD PTR [esi]
	sub	ecx, 8
	cmp	eax, ecx
	je	SHORT $LN6@pop_front@2
	add	eax, 8
	mov	DWORD PTR [esi], eax
	ret	0
$LN6@pop_front@2:
	mov	eax, DWORD PTR [esi+4]
	test	eax, eax
	je	SHORT $LN13@pop_front@2
	mov	ecx, DWORD PTR __imp_?Memory@@3VxrMemory@@A
	push	eax
	call	DWORD PTR __imp_?mem_free@xrMemory@@QAEXPAX@Z
$LN13@pop_front@2:
	mov	eax, DWORD PTR [esi+12]
	add	eax, 4
	mov	DWORD PTR [esi+12], eax
	mov	eax, DWORD PTR [eax]
	mov	DWORD PTR [esi+4], eax
	mov	edx, DWORD PTR [esi+4]
	add	eax, 128				; 00000080H
	mov	DWORD PTR [esi+8], eax
	mov	DWORD PTR [esi], edx
	ret	0
?pop_front@?$deque@USElement@CStatGraph@@V?$xalloc@USElement@CStatGraph@@@@@stlp_std@@QAEXXZ ENDP ; stlp_std::deque<CStatGraph::SElement,xalloc<CStatGraph::SElement> >::pop_front
; Function compile flags: /Ogtpy
; File d:\clearsky\sources\engine\xrcore\_stl_extensions.h
_TEXT	ENDS
;	COMDAT ?size@?$xr_deque@USElement@CStatGraph@@V?$xalloc@USElement@CStatGraph@@@@@@QBEIXZ
_TEXT	SEGMENT
$T211662 = -16						; size = 16
?size@?$xr_deque@USElement@CStatGraph@@V?$xalloc@USElement@CStatGraph@@@@@@QBEIXZ PROC ; xr_deque<CStatGraph::SElement,xalloc<CStatGraph::SElement> >::size, COMDAT
; _this$ = eax

; 170  : 	u32		size				() const							{return (u32)__super::size();	} 

	sub	esp, 16					; 00000010H
	mov	ecx, DWORD PTR [eax+4]
	mov	edx, DWORD PTR [eax]
	push	esi
	mov	esi, DWORD PTR [eax+12]
	push	edi
	mov	edi, DWORD PTR [eax+16]
	sub	edi, DWORD PTR [eax+20]
	mov	DWORD PTR $T211662[esp+28], ecx
	mov	ecx, DWORD PTR [eax+8]
	mov	eax, DWORD PTR [eax+28]
	sub	eax, esi
	sar	eax, 2
	sar	edi, 3
	shl	eax, 4
	add	edi, eax
	sub	ecx, edx
	sar	ecx, 3
	lea	eax, DWORD PTR [edi+ecx-16]
	pop	edi
	pop	esi
	add	esp, 16					; 00000010H
	ret	0
?size@?$xr_deque@USElement@CStatGraph@@V?$xalloc@USElement@CStatGraph@@@@@@QBEIXZ ENDP ; xr_deque<CStatGraph::SElement,xalloc<CStatGraph::SElement> >::size
; Function compile flags: /Ogtpy
; File d:\clearsky\sources\engine\include\xrrender\factoryptr.h
_TEXT	ENDS
;	COMDAT ??C?$FactoryPtr@VIStatGraphRender@@@@QBEPAVIStatGraphRender@@XZ
_TEXT	SEGMENT
??C?$FactoryPtr@VIStatGraphRender@@@@QBEPAVIStatGraphRender@@XZ PROC ; FactoryPtr<IStatGraphRender>::operator->, COMDAT
; _this$ = eax

; 40   : 	T* operator->() const {return m_pObject;}

	mov	eax, DWORD PTR [eax]
	ret	0
??C?$FactoryPtr@VIStatGraphRender@@@@QBEPAVIStatGraphRender@@XZ ENDP ; FactoryPtr<IStatGraphRender>::operator->
; Function compile flags: /Ogtpy
_TEXT	ENDS
;	COMDAT ??4?$FactoryPtr@VIStatGraphRender@@@@QAEAAV0@ABV0@@Z
_TEXT	SEGMENT
??4?$FactoryPtr@VIStatGraphRender@@@@QAEAAV0@ABV0@@Z PROC ; FactoryPtr<IStatGraphRender>::operator=, COMDAT
; _this$ = esi
; __in$ = edx

; 35   : 		m_pObject->Copy(*_in.m_pObject);

	mov	ecx, DWORD PTR [esi]
	mov	eax, DWORD PTR [ecx]
	mov	edx, DWORD PTR [edx]
	mov	eax, DWORD PTR [eax+4]
	push	edx
	call	eax

; 36   : 		return *this;

	mov	eax, esi

; 37   : 	}

	ret	0
??4?$FactoryPtr@VIStatGraphRender@@@@QAEAAV0@ABV0@@Z ENDP ; FactoryPtr<IStatGraphRender>::operator=
; Function compile flags: /Ogtpy
_TEXT	ENDS
;	COMDAT ??0?$FactoryPtr@VIStatGraphRender@@@@QAE@ABV0@@Z
_TEXT	SEGMENT
__in$ = 8						; size = 4
??0?$FactoryPtr@VIStatGraphRender@@@@QAE@ABV0@@Z PROC	; FactoryPtr<IStatGraphRender>::FactoryPtr<IStatGraphRender>, COMDAT
; _this$ = esi

; 28   : 	{
; 29   : 		CreateObject();

	mov	eax, DWORD PTR __imp_?RenderFactory@@3PAVIRenderFactory@@A
	mov	ecx, DWORD PTR [eax]
	mov	edx, DWORD PTR [ecx]
	mov	eax, DWORD PTR [edx+16]
	call	eax

; 30   : 		m_pObject->Copy(*_in.m_pObject);

	mov	ecx, DWORD PTR __in$[esp-4]
	mov	DWORD PTR [esi], eax
	mov	ecx, DWORD PTR [ecx]
	mov	edx, DWORD PTR [eax]
	mov	edx, DWORD PTR [edx+4]
	push	ecx
	mov	ecx, eax
	call	edx

; 31   : 	}

	mov	eax, esi
	ret	4
??0?$FactoryPtr@VIStatGraphRender@@@@QAE@ABV0@@Z ENDP	; FactoryPtr<IStatGraphRender>::FactoryPtr<IStatGraphRender>
; Function compile flags: /Ogtpy
_TEXT	ENDS
;	COMDAT ??1?$FactoryPtr@VIStatGraphRender@@@@QAE@XZ
_TEXT	SEGMENT
??1?$FactoryPtr@VIStatGraphRender@@@@QAE@XZ PROC	; FactoryPtr<IStatGraphRender>::~FactoryPtr<IStatGraphRender>, COMDAT
; _this$ = esi

; 25   : 	~FactoryPtr() { DestroyObject();}

	mov	eax, DWORD PTR __imp_?RenderFactory@@3PAVIRenderFactory@@A
	mov	ecx, DWORD PTR [eax]
	mov	edx, DWORD PTR [ecx]
	mov	eax, DWORD PTR [esi]
	mov	edx, DWORD PTR [edx+20]
	push	eax
	call	edx
	mov	DWORD PTR [esi], 0
	ret	0
??1?$FactoryPtr@VIStatGraphRender@@@@QAE@XZ ENDP	; FactoryPtr<IStatGraphRender>::~FactoryPtr<IStatGraphRender>
; Function compile flags: /Ogtpy
_TEXT	ENDS
;	COMDAT ??0?$FactoryPtr@VIStatGraphRender@@@@QAE@XZ
_TEXT	SEGMENT
??0?$FactoryPtr@VIStatGraphRender@@@@QAE@XZ PROC	; FactoryPtr<IStatGraphRender>::FactoryPtr<IStatGraphRender>, COMDAT
; _this$ = esi

; 24   : 	FactoryPtr() { CreateObject();}

	mov	eax, DWORD PTR __imp_?RenderFactory@@3PAVIRenderFactory@@A
	mov	ecx, DWORD PTR [eax]
	mov	edx, DWORD PTR [ecx]
	mov	eax, DWORD PTR [edx+16]
	call	eax
	mov	DWORD PTR [esi], eax
	mov	eax, esi
	ret	0
??0?$FactoryPtr@VIStatGraphRender@@@@QAE@XZ ENDP	; FactoryPtr<IStatGraphRender>::FactoryPtr<IStatGraphRender>
_TEXT	ENDS
PUBLIC	__real@3f800000
;	COMDAT __real@3f800000
; File d:\clearsky\sources\engine\xrcore\_vector2.h
CONST	SEGMENT
__real@3f800000 DD 03f800000r			; 1
; Function compile flags: /Ogtpy
CONST	ENDS
;	COMDAT ?set@?$_vector2@M@@QAEAAU1@HH@Z
_TEXT	SEGMENT
?set@?$_vector2@M@@QAEAAU1@HH@Z PROC			; _vector2<float>::set, COMDAT
; _this$ = eax

; 17   : 	IC SelfRef set(int _u, int _v)					{ x=T(_u); y=T(_v);				return *this;	}

	movss	xmm0, DWORD PTR __real@3f800000
	movss	DWORD PTR [eax], xmm0
	movss	DWORD PTR [eax+4], xmm0
	ret	0
?set@?$_vector2@M@@QAEAAU1@HH@Z ENDP			; _vector2<float>::set
; Function compile flags: /Ogtpy
; File d:\clearsky\sources\engine\xrengine\statgraph.cpp
_TEXT	ENDS
;	COMDAT ?OnRender@CStatGraph@@UAEXXZ
_TEXT	SEGMENT
?OnRender@CStatGraph@@UAEXXZ PROC			; CStatGraph::OnRender, COMDAT
; _this$ = ecx

; 46   : {

	mov	eax, ecx

; 47   : 	m_pRender->OnRender(*this);

	mov	ecx, DWORD PTR [eax+76]
	mov	edx, DWORD PTR [ecx]
	push	eax
	mov	eax, DWORD PTR [edx+16]
	call	eax

; 48   : 	/*
; 49   : 	RCache.OnFrameEnd();
; 50   : 
; 51   : 	RenderBack();
; 52   : 
; 53   : 	u32			TriElem = 0;
; 54   : 	u32			LineElem = 0;
; 55   : 	for (SubGraphVecIt it=subgraphs.begin(); it!=subgraphs.end(); it++)
; 56   : 	{
; 57   : 		switch (it->style)
; 58   : 		{
; 59   : 		case stBar: 
; 60   : 			{
; 61   : 				TriElem += it->elements.size()*4;
; 62   : 			}break;
; 63   : 		case stCurve: 
; 64   : 			{
; 65   : 				LineElem += it->elements.size()*2;
; 66   : 			}break;
; 67   : 		case stBarLine: 
; 68   : 			{
; 69   : 				LineElem += it->elements.size()*4;
; 70   : 			}break;
; 71   : 		case stPoint: 
; 72   : 			{
; 73   : 				//				TriElem += it->elements.size()*4;
; 74   : 			}break;
; 75   : 		};
; 76   : 	};
; 77   : 
; 78   : 	u32			dwOffsetTri = 0, dwOffsetLine = 0,dwCount;
; 79   : 	FVF::TL0uv* pv_Tri_start	= NULL;
; 80   : 	FVF::TL0uv* pv_Tri;
; 81   : 	FVF::TL0uv* pv_Line_start	= NULL;
; 82   : 	FVF::TL0uv* pv_Line;
; 83   : 
; 84   : 	if (TriElem)
; 85   : 	{
; 86   : 		pv_Tri_start = (FVF::TL0uv*)RCache.Vertex.Lock(TriElem,hGeomTri->vb_stride,dwOffsetTri);
; 87   : 		pv_Tri = pv_Tri_start;
; 88   : 
; 89   : 		pv_Tri = pv_Tri_start;
; 90   : 		for (SubGraphVecIt it=subgraphs.begin(); it!=subgraphs.end(); it++)
; 91   : 		{
; 92   : 			switch(it->style)
; 93   : 			{
; 94   : 			case stBar:		RenderBars		(&pv_Tri, &(it->elements));		break;
; 95   : 			};
; 96   : 		};
; 97   : 		dwCount 				= u32(pv_Tri-pv_Tri_start);
; 98   : 		RCache.Vertex.Unlock	(dwCount,hGeomTri->vb_stride);
; 99   : 		RCache.set_Geometry		(hGeomTri);
; 100  : 		RCache.Render	   		(D3DPT_TRIANGLELIST,dwOffsetTri,0, dwCount, 0, dwCount/2);
; 101  : 	};
; 102  : 
; 103  : 	if (LineElem)
; 104  : 	{
; 105  : 		pv_Line_start = (FVF::TL0uv*)RCache.Vertex.Lock(LineElem,hGeomLine->vb_stride,dwOffsetLine);
; 106  : 		pv_Line = pv_Line_start;
; 107  : 
; 108  : 		for (SubGraphVecIt it=subgraphs.begin(); it!=subgraphs.end(); it++)
; 109  : 		{
; 110  : 			switch(it->style)
; 111  : 			{
; 112  : 			case stCurve:	RenderLines		(&pv_Line, &(it->elements));	break;
; 113  : 			case stBarLine:	RenderBarLines	(&pv_Line, &(it->elements));	break;
; 114  : 			};
; 115  : 		};
; 116  : 
; 117  : 		dwCount 				= u32(pv_Line-pv_Line_start);
; 118  : 		RCache.Vertex.Unlock	(dwCount,hGeomLine->vb_stride);
; 119  : 		RCache.set_Geometry		(hGeomLine);
; 120  : 		RCache.Render	   		(D3DPT_LINELIST,dwOffsetLine,dwCount/2);
; 121  : 	};
; 122  : 
; 123  : 	if (!m_Markers.empty())
; 124  : 	{
; 125  : 		dwOffsetLine = 0;
; 126  : 		LineElem = m_Markers.size()*2;
; 127  : 
; 128  : 		pv_Line_start = (FVF::TL0uv*)RCache.Vertex.Lock(LineElem,hGeomLine->vb_stride,dwOffsetLine);
; 129  : 		pv_Line = pv_Line_start;
; 130  : 
; 131  : 		RenderMarkers		(&pv_Line, &(m_Markers));
; 132  : 
; 133  : 		dwCount 				= u32(pv_Line-pv_Line_start);
; 134  : 		RCache.Vertex.Unlock	(dwCount,hGeomLine->vb_stride);
; 135  : 		RCache.set_Geometry		(hGeomLine);
; 136  : 		RCache.Render	   		(D3DPT_LINELIST,dwOffsetLine,dwCount/2);
; 137  : 	}
; 138  : 	*/
; 139  : };

	ret	0
?OnRender@CStatGraph@@UAEXXZ ENDP			; CStatGraph::OnRender
_TEXT	ENDS
PUBLIC	?OnDeviceDestroy@CStatGraph@@QAEXXZ		; CStatGraph::OnDeviceDestroy
; Function compile flags: /Ogtpy
;	COMDAT ?OnDeviceDestroy@CStatGraph@@QAEXXZ
_TEXT	SEGMENT
?OnDeviceDestroy@CStatGraph@@QAEXXZ PROC		; CStatGraph::OnDeviceDestroy, COMDAT
; _this$ = ecx

; 40   : 	m_pRender->OnDeviceDestroy();

	mov	ecx, DWORD PTR [ecx+76]
	mov	eax, DWORD PTR [ecx]
	mov	edx, DWORD PTR [eax+12]
	jmp	edx
?OnDeviceDestroy@CStatGraph@@QAEXXZ ENDP		; CStatGraph::OnDeviceDestroy
_TEXT	ENDS
PUBLIC	?OnDeviceCreate@CStatGraph@@QAEXXZ		; CStatGraph::OnDeviceCreate
; Function compile flags: /Ogtpy
;	COMDAT ?OnDeviceCreate@CStatGraph@@QAEXXZ
_TEXT	SEGMENT
?OnDeviceCreate@CStatGraph@@QAEXXZ PROC			; CStatGraph::OnDeviceCreate, COMDAT
; _this$ = ecx

; 33   : 	m_pRender->OnDeviceCreate();

	mov	ecx, DWORD PTR [ecx+76]
	mov	eax, DWORD PTR [ecx]
	mov	edx, DWORD PTR [eax+8]
	jmp	edx
?OnDeviceCreate@CStatGraph@@QAEXXZ ENDP			; CStatGraph::OnDeviceCreate
_TEXT	ENDS
PUBLIC	?ClearMarkers@CStatGraph@@QAEXXZ		; CStatGraph::ClearMarkers
; Function compile flags: /Ogtpy
; File d:\clearsky\sources\engine\xrengine\statgraph.h
;	COMDAT ?ClearMarkers@CStatGraph@@QAEXXZ
_TEXT	SEGMENT
?ClearMarkers@CStatGraph@@QAEXXZ PROC			; CStatGraph::ClearMarkers, COMDAT
; _this$ = ecx

; 156  : 	{

	push	edi

; 157  : 		m_Markers.clear();

	lea	edi, DWORD PTR [ecx+80]
	call	?clear@?$_Impl_deque@USMarker@CStatGraph@@V?$xalloc@USMarker@CStatGraph@@@@@priv@stlp_std@@QAEXXZ ; stlp_std::priv::_Impl_deque<CStatGraph::SMarker,xalloc<CStatGraph::SMarker> >::clear
	pop	edi

; 158  : 	}

	ret	0
?ClearMarkers@CStatGraph@@QAEXXZ ENDP			; CStatGraph::ClearMarkers
_TEXT	ENDS
PUBLIC	?SetMinMax@CStatGraph@@QAEXMMI@Z		; CStatGraph::SetMinMax
; Function compile flags: /Ogtpy
;	COMDAT ?SetMinMax@CStatGraph@@QAEXMMI@Z
_TEXT	SEGMENT
$T211798 = -16						; size = 16
_it$117689 = 8						; size = 4
__mn$ = 8						; size = 4
__mx$ = 12						; size = 4
_item_count$ = 16					; size = 4
?SetMinMax@CStatGraph@@QAEXMMI@Z PROC			; CStatGraph::SetMinMax, COMDAT
; _this$ = ecx

; 108  :     {

	sub	esp, 16					; 00000010H

; 109  :         mn			= _mn;

	movss	xmm0, DWORD PTR __mn$[esp+12]

; 110  :         mx			= _mx;
; 111  :         max_item_count = item_count;

	mov	eax, DWORD PTR _item_count$[esp+12]
	push	esi
	push	edi
	mov	edi, ecx

; 112  : 		for (SubGraphVecIt it=subgraphs.begin(); it!=subgraphs.end(); it++)

	mov	esi, DWORD PTR [edi+4]
	cmp	esi, DWORD PTR [edi+8]
	movss	DWORD PTR [edi+16], xmm0
	movss	xmm0, DWORD PTR __mx$[esp+20]
	movss	DWORD PTR [edi+20], xmm0
	mov	DWORD PTR [edi+24], eax
	mov	DWORD PTR _it$117689[esp+20], esi
	je	$LN3@SetMinMax
	push	ebx
	add	esi, 32					; 00000020H
	push	ebp
	npad	7
$LL5@SetMinMax:

; 113  : 		{
; 114  : 			while(it->elements.size()>max_item_count) it->elements.pop_front();

	mov	edx, DWORD PTR [esi-24]
	mov	ebp, DWORD PTR [esi]
	mov	ebx, DWORD PTR [esi-12]
	sub	ebx, DWORD PTR [esi-8]
	mov	ecx, DWORD PTR [esi-28]
	mov	eax, DWORD PTR [esi-20]
	mov	DWORD PTR $T211798[esp+36], edx
	mov	edx, DWORD PTR [esi-16]
	sub	ebp, edx
	sar	ebp, 2
	sub	ebp, 1
	sar	ebx, 3
	shl	ebp, 4
	sub	eax, ecx
	add	ebx, ebp
	sar	eax, 3
	add	ebx, eax
	cmp	ebx, DWORD PTR [edi+24]
	jbe	SHORT $LN4@SetMinMax
$LL2@SetMinMax:
	mov	ecx, DWORD PTR [esi-20]
	mov	eax, DWORD PTR [esi-28]
	sub	ecx, 8
	cmp	eax, ecx
	je	SHORT $LN37@SetMinMax
	add	eax, 8
	mov	DWORD PTR [esi-28], eax
	jmp	SHORT $LN36@SetMinMax
$LN37@SetMinMax:
	mov	eax, DWORD PTR [esi-24]
	test	eax, eax
	je	SHORT $LN44@SetMinMax
	mov	ecx, DWORD PTR __imp_?Memory@@3VxrMemory@@A
	push	eax
	call	DWORD PTR __imp_?mem_free@xrMemory@@QAEXPAX@Z
$LN44@SetMinMax:
	mov	eax, DWORD PTR [esi-16]
	add	eax, 4
	mov	DWORD PTR [esi-16], eax
	mov	eax, DWORD PTR [eax]
	mov	DWORD PTR [esi-24], eax
	mov	edx, DWORD PTR [esi-24]
	add	eax, 128				; 00000080H
	mov	DWORD PTR [esi-20], eax
	mov	DWORD PTR [esi-28], edx
$LN36@SetMinMax:
	mov	edx, DWORD PTR [esi-16]
	mov	ebp, DWORD PTR [esi]
	mov	eax, DWORD PTR [esi-24]
	mov	ebx, DWORD PTR [esi-12]
	sub	ebx, DWORD PTR [esi-8]
	mov	ecx, DWORD PTR [esi-28]
	sub	ebp, edx
	sar	ebp, 2
	mov	DWORD PTR $T211798[esp+36], eax
	mov	eax, DWORD PTR [esi-20]
	sub	ebp, 1
	sar	ebx, 3
	shl	ebp, 4
	sub	eax, ecx
	add	ebx, ebp
	sar	eax, 3
	add	ebx, eax
	cmp	ebx, DWORD PTR [edi+24]
	ja	SHORT $LL2@SetMinMax
$LN4@SetMinMax:

; 112  : 		for (SubGraphVecIt it=subgraphs.begin(); it!=subgraphs.end(); it++)

	mov	eax, DWORD PTR _it$117689[esp+28]
	add	eax, 44					; 0000002cH
	add	esi, 44					; 0000002cH
	cmp	eax, DWORD PTR [edi+8]
	mov	DWORD PTR _it$117689[esp+28], eax
	jne	$LL5@SetMinMax
	pop	ebp
	pop	ebx
$LN3@SetMinMax:
	pop	edi
	pop	esi

; 115  : 		};
; 116  :     }

	add	esp, 16					; 00000010H
	ret	12					; 0000000cH
?SetMinMax@CStatGraph@@QAEXMMI@Z ENDP			; CStatGraph::SetMinMax
; Function compile flags: /Ogtpy
_TEXT	ENDS
;	COMDAT ?SetStyle@SSubGraph@CStatGraph@@QAEXW4EStyle@2@@Z
_TEXT	SEGMENT
?SetStyle@SSubGraph@CStatGraph@@QAEXW4EStyle@2@@Z PROC	; CStatGraph::SSubGraph::SetStyle, COMDAT
; _this$ = eax
; _s$ = ecx

; 42   : 			style = s;

	mov	DWORD PTR [eax], ecx

; 43   : 		};

	ret	0
?SetStyle@SSubGraph@CStatGraph@@QAEXW4EStyle@2@@Z ENDP	; CStatGraph::SSubGraph::SetStyle
; Function compile flags: /Ogtpy
_TEXT	ENDS
;	COMDAT ??0SElement@CStatGraph@@QAE@MI@Z
_TEXT	SEGMENT
??0SElement@CStatGraph@@QAE@MI@Z PROC			; CStatGraph::SElement::SElement, COMDAT
; _this$ = eax
; _d$ = xmm0s
; _clr$ = ecx

; 26   :         {
; 27   :         	color	= clr;

	mov	DWORD PTR [eax], ecx

; 28   :             data	= d;

	movss	DWORD PTR [eax+4], xmm0

; 29   :         }

	ret	0
??0SElement@CStatGraph@@QAE@MI@Z ENDP			; CStatGraph::SElement::SElement
; Function compile flags: /Ogtpy
; File d:\clearsky\sources\sdk\include\stlport\stl\_deque.h
;	COMDAT ?_M_decrement@?$_Deque_iterator_base@USElement@CStatGraph@@@priv@stlp_std@@QAEXXZ
_TEXT	SEGMENT
?_M_decrement@?$_Deque_iterator_base@USElement@CStatGraph@@@priv@stlp_std@@QAEXXZ PROC ; stlp_std::priv::_Deque_iterator_base<CStatGraph::SElement>::_M_decrement, COMDAT
; _this$ = eax

; 133  :     if (_M_cur == _M_first) {

	mov	ecx, DWORD PTR [eax]
	cmp	ecx, DWORD PTR [eax+4]
	jne	SHORT $LN6@M_decremen@2

; 134  :       _M_set_node(_M_node - 1);

	mov	ecx, DWORD PTR [eax+12]
	sub	ecx, 4
	mov	DWORD PTR [eax+12], ecx
	mov	ecx, DWORD PTR [ecx]
	mov	DWORD PTR [eax+4], ecx
	add	ecx, 128				; 00000080H
	mov	DWORD PTR [eax+8], ecx

; 135  :       _M_cur = _M_last;

	mov	DWORD PTR [eax], ecx
$LN6@M_decremen@2:

; 136  :     }
; 137  :     --_M_cur;

	add	DWORD PTR [eax], -8			; fffffff8H

; 138  :   }

	ret	0
?_M_decrement@?$_Deque_iterator_base@USElement@CStatGraph@@@priv@stlp_std@@QAEXXZ ENDP ; stlp_std::priv::_Deque_iterator_base<CStatGraph::SElement>::_M_decrement
; Function compile flags: /Ogtpy
_TEXT	ENDS
;	COMDAT ??F?$_Deque_iterator@USElement@CStatGraph@@U?$_Nonconst_traits@USElement@CStatGraph@@@stlp_std@@@priv@stlp_std@@QAEAAU012@XZ
_TEXT	SEGMENT
??F?$_Deque_iterator@USElement@CStatGraph@@U?$_Nonconst_traits@USElement@CStatGraph@@@stlp_std@@@priv@stlp_std@@QAEAAU012@XZ PROC ; stlp_std::priv::_Deque_iterator<CStatGraph::SElement,stlp_std::_Nonconst_traits<CStatGraph::SElement> >::operator--, COMDAT
; _this$ = eax

; 201  :   _Self& operator--() { this->_M_decrement(); return *this; }

	mov	ecx, DWORD PTR [eax]
	cmp	ecx, DWORD PTR [eax+4]
	jne	SHORT $LN8@operator@15
	mov	ecx, DWORD PTR [eax+12]
	sub	ecx, 4
	mov	DWORD PTR [eax+12], ecx
	mov	ecx, DWORD PTR [ecx]
	mov	DWORD PTR [eax+4], ecx
	add	ecx, 128				; 00000080H
	mov	DWORD PTR [eax+8], ecx
	mov	DWORD PTR [eax], ecx
$LN8@operator@15:
	add	DWORD PTR [eax], -8			; fffffff8H
	ret	0
??F?$_Deque_iterator@USElement@CStatGraph@@U?$_Nonconst_traits@USElement@CStatGraph@@@stlp_std@@@priv@stlp_std@@QAEAAU012@XZ ENDP ; stlp_std::priv::_Deque_iterator<CStatGraph::SElement,stlp_std::_Nonconst_traits<CStatGraph::SElement> >::operator--
; Function compile flags: /Ogtpy
; File d:\clearsky\sources\sdk\include\stlport\stl\_algobase.h
_TEXT	ENDS
;	COMDAT ??$__copy_backward@U?$_Deque_iterator@USElement@CStatGraph@@U?$_Nonconst_traits@USElement@CStatGraph@@@stlp_std@@@priv@stlp_std@@U123@H@priv@stlp_std@@YA?AU?$_Deque_iterator@USElement@CStatGraph@@U?$_Nonconst_traits@USElement@CStatGraph@@@stlp_std@@@01@U201@00ABUrandom_access_iterator_tag@1@PAH@Z
_TEXT	SEGMENT
___$ReturnUdt$ = 8					; size = 4
___first$ = 12						; size = 16
___last$ = 28						; size = 16
___result$ = 44						; size = 16
??$__copy_backward@U?$_Deque_iterator@USElement@CStatGraph@@U?$_Nonconst_traits@USElement@CStatGraph@@@stlp_std@@@priv@stlp_std@@U123@H@priv@stlp_std@@YA?AU?$_Deque_iterator@USElement@CStatGraph@@U?$_Nonconst_traits@USElement@CStatGraph@@@stlp_std@@@01@U201@00ABUrandom_access_iterator_tag@1@PAH@Z PROC ; stlp_std::priv::__copy_backward<stlp_std::priv::_Deque_iterator<CStatGraph::SElement,stlp_std::_Nonconst_traits<CStatGraph::SElement> >,stlp_std::priv::_Deque_iterator<CStatGraph::SElement,stlp_std::_Nonconst_traits<CStatGraph::SElement> >,int>, COMDAT

; 236  :   for (_Distance __n = __last - __first; __n > 0; --__n)

	mov	ecx, DWORD PTR ___last$[esp+8]
	sub	ecx, DWORD PTR ___first$[esp+8]
	mov	edx, DWORD PTR ___first$[esp+4]
	sub	edx, DWORD PTR ___first$[esp-4]
	mov	eax, DWORD PTR ___$ReturnUdt$[esp-4]
	sar	ecx, 2
	push	ebx
	mov	ebx, DWORD PTR ___result$[esp+12]
	shl	ecx, 4
	sar	edx, 3
	add	ecx, edx
	mov	edx, DWORD PTR ___last$[esp]
	push	ebp
	mov	ebp, DWORD PTR ___result$[esp+12]
	push	esi
	mov	esi, edx
	sub	esi, DWORD PTR ___last$[esp+12]
	push	edi
	mov	edi, DWORD PTR ___result$[esp+16]
	sar	esi, 3
	lea	esi, DWORD PTR [ecx+esi-16]
	test	esi, esi
	mov	ecx, DWORD PTR ___result$[esp+12]
	jle	SHORT $LN1@copy_backw@4
$LN3@copy_backw@4:

; 237  :     *--__result = *--__last;

	cmp	edx, DWORD PTR ___last$[esp+16]
	jne	SHORT $LN14@copy_backw@4
	mov	eax, DWORD PTR ___last$[esp+24]
	add	eax, -4					; fffffffcH
	mov	DWORD PTR ___last$[esp+24], eax
	mov	eax, DWORD PTR [eax]
	mov	DWORD PTR ___last$[esp+16], eax
	lea	edx, DWORD PTR [eax+128]
$LN14@copy_backw@4:
	sub	edx, 8
	cmp	ecx, edi
	jne	SHORT $LN23@copy_backw@4
	mov	edi, DWORD PTR [ebx-4]
	add	ebx, -4					; fffffffcH
	lea	ebp, DWORD PTR [edi+128]
	mov	ecx, ebp
$LN23@copy_backw@4:
	mov	eax, DWORD PTR [edx]
	sub	ecx, 8
	mov	DWORD PTR [ecx], eax
	mov	eax, DWORD PTR [edx+4]
	sub	esi, 1
	test	esi, esi
	mov	DWORD PTR [ecx+4], eax
	jg	SHORT $LN3@copy_backw@4

; 236  :   for (_Distance __n = __last - __first; __n > 0; --__n)

	mov	eax, DWORD PTR ___$ReturnUdt$[esp+12]
$LN1@copy_backw@4:

; 238  :   return __result;

	mov	DWORD PTR [eax], ecx
	mov	DWORD PTR [eax+4], edi

; 239  : }

	pop	edi
	pop	esi
	mov	DWORD PTR [eax+8], ebp
	pop	ebp
	mov	DWORD PTR [eax+12], ebx
	pop	ebx
	ret	0
??$__copy_backward@U?$_Deque_iterator@USElement@CStatGraph@@U?$_Nonconst_traits@USElement@CStatGraph@@@stlp_std@@@priv@stlp_std@@U123@H@priv@stlp_std@@YA?AU?$_Deque_iterator@USElement@CStatGraph@@U?$_Nonconst_traits@USElement@CStatGraph@@@stlp_std@@@01@U201@00ABUrandom_access_iterator_tag@1@PAH@Z ENDP ; stlp_std::priv::__copy_backward<stlp_std::priv::_Deque_iterator<CStatGraph::SElement,stlp_std::_Nonconst_traits<CStatGraph::SElement> >,stlp_std::priv::_Deque_iterator<CStatGraph::SElement,stlp_std::_Nonconst_traits<CStatGraph::SElement> >,int>
; Function compile flags: /Ogtpy
_TEXT	ENDS
;	COMDAT ??$__copy_backward_aux@U?$_Deque_iterator@USElement@CStatGraph@@U?$_Nonconst_traits@USElement@CStatGraph@@@stlp_std@@@priv@stlp_std@@U123@@priv@stlp_std@@YA?AU?$_Deque_iterator@USElement@CStatGraph@@U?$_Nonconst_traits@USElement@CStatGraph@@@stlp_std@@@01@U201@00ABU__false_type@1@@Z
_TEXT	SEGMENT
___first$ = 8						; size = 16
___last$ = 24						; size = 16
___result$ = 40						; size = 16
??$__copy_backward_aux@U?$_Deque_iterator@USElement@CStatGraph@@U?$_Nonconst_traits@USElement@CStatGraph@@@stlp_std@@@priv@stlp_std@@U123@@priv@stlp_std@@YA?AU?$_Deque_iterator@USElement@CStatGraph@@U?$_Nonconst_traits@USElement@CStatGraph@@@stlp_std@@@01@U201@00ABU__false_type@1@@Z PROC ; stlp_std::priv::__copy_backward_aux<stlp_std::priv::_Deque_iterator<CStatGraph::SElement,stlp_std::_Nonconst_traits<CStatGraph::SElement> >,stlp_std::priv::_Deque_iterator<CStatGraph::SElement,stlp_std::_Nonconst_traits<CStatGraph::SElement> > >, COMDAT
; ___$ReturnUdt$ = esi

; 298  : inline _OutputIter __copy_backward_aux(_InputIter __first, _InputIter __last, _OutputIter __result, const __false_type&) {

	push	ecx

; 299  :   return __copy_backward(__first, __last, __result, _STLP_ITERATOR_CATEGORY(__first,_InputIter), _STLP_DISTANCE_TYPE(__first, _InputIter));

	mov	ecx, DWORD PTR ___result$[esp]
	mov	edx, DWORD PTR ___result$[esp+4]
	sub	esp, 16					; 00000010H
	mov	eax, esp
	mov	DWORD PTR [eax], ecx
	mov	ecx, DWORD PTR ___result$[esp+24]
	mov	DWORD PTR [eax+4], edx
	mov	edx, DWORD PTR ___result$[esp+28]
	mov	DWORD PTR [eax+8], ecx
	mov	ecx, DWORD PTR ___last$[esp+16]
	mov	DWORD PTR [eax+12], edx
	mov	edx, DWORD PTR ___last$[esp+20]
	sub	esp, 16					; 00000010H
	mov	eax, esp
	mov	DWORD PTR [eax], ecx
	mov	ecx, DWORD PTR ___last$[esp+40]
	mov	DWORD PTR [eax+4], edx
	mov	edx, DWORD PTR ___last$[esp+44]
	mov	DWORD PTR [eax+8], ecx
	mov	ecx, DWORD PTR ___first$[esp+32]
	mov	DWORD PTR [eax+12], edx
	mov	edx, DWORD PTR ___first$[esp+36]
	sub	esp, 16					; 00000010H
	mov	eax, esp
	mov	DWORD PTR [eax], ecx
	mov	ecx, DWORD PTR ___first$[esp+56]
	mov	DWORD PTR [eax+4], edx
	mov	edx, DWORD PTR ___first$[esp+60]
	mov	DWORD PTR [eax+8], ecx
	push	esi
	mov	DWORD PTR [eax+12], edx
	call	??$__copy_backward@U?$_Deque_iterator@USElement@CStatGraph@@U?$_Nonconst_traits@USElement@CStatGraph@@@stlp_std@@@priv@stlp_std@@U123@H@priv@stlp_std@@YA?AU?$_Deque_iterator@USElement@CStatGraph@@U?$_Nonconst_traits@USElement@CStatGraph@@@stlp_std@@@01@U201@00ABUrandom_access_iterator_tag@1@PAH@Z ; stlp_std::priv::__copy_backward<stlp_std::priv::_Deque_iterator<CStatGraph::SElement,stlp_std::_Nonconst_traits<CStatGraph::SElement> >,stlp_std::priv::_Deque_iterator<CStatGraph::SElement,stlp_std::_Nonconst_traits<CStatGraph::SElement> >,int>
	add	esp, 52					; 00000034H
	mov	eax, esi
	pop	ecx

; 300  : }

	ret	0
??$__copy_backward_aux@U?$_Deque_iterator@USElement@CStatGraph@@U?$_Nonconst_traits@USElement@CStatGraph@@@stlp_std@@@priv@stlp_std@@U123@@priv@stlp_std@@YA?AU?$_Deque_iterator@USElement@CStatGraph@@U?$_Nonconst_traits@USElement@CStatGraph@@@stlp_std@@@01@U201@00ABU__false_type@1@@Z ENDP ; stlp_std::priv::__copy_backward_aux<stlp_std::priv::_Deque_iterator<CStatGraph::SElement,stlp_std::_Nonconst_traits<CStatGraph::SElement> >,stlp_std::priv::_Deque_iterator<CStatGraph::SElement,stlp_std::_Nonconst_traits<CStatGraph::SElement> > >
; Function compile flags: /Ogtpy
_TEXT	ENDS
;	COMDAT ??$copy_backward@U?$_Deque_iterator@USElement@CStatGraph@@U?$_Nonconst_traits@USElement@CStatGraph@@@stlp_std@@@priv@stlp_std@@U123@@stlp_std@@YA?AU?$_Deque_iterator@USElement@CStatGraph@@U?$_Nonconst_traits@USElement@CStatGraph@@@stlp_std@@@priv@0@U120@00@Z
_TEXT	SEGMENT
___first$ = 8						; size = 16
___last$ = 24						; size = 16
___result$ = 40						; size = 16
??$copy_backward@U?$_Deque_iterator@USElement@CStatGraph@@U?$_Nonconst_traits@USElement@CStatGraph@@@stlp_std@@@priv@stlp_std@@U123@@stlp_std@@YA?AU?$_Deque_iterator@USElement@CStatGraph@@U?$_Nonconst_traits@USElement@CStatGraph@@@stlp_std@@@priv@0@U120@00@Z PROC ; stlp_std::copy_backward<stlp_std::priv::_Deque_iterator<CStatGraph::SElement,stlp_std::_Nonconst_traits<CStatGraph::SElement> >,stlp_std::priv::_Deque_iterator<CStatGraph::SElement,stlp_std::_Nonconst_traits<CStatGraph::SElement> > >, COMDAT
; ___$ReturnUdt$ = eax

; 313  :   _STLP_DEBUG_CHECK(_STLP_PRIV __check_range(__first, __last))
; 314  :   return _STLP_PRIV __copy_backward_aux(__first, __last, __result, _BothPtrType< _InputIter, _OutputIter>::_Answer() );

	mov	ecx, DWORD PTR ___result$[esp-4]
	mov	edx, DWORD PTR ___result$[esp]
	push	esi
	mov	esi, eax
	sub	esp, 16					; 00000010H
	mov	eax, esp
	mov	DWORD PTR [eax], ecx
	mov	ecx, DWORD PTR ___result$[esp+24]
	mov	DWORD PTR [eax+4], edx
	mov	edx, DWORD PTR ___result$[esp+28]
	mov	DWORD PTR [eax+8], ecx
	mov	ecx, DWORD PTR ___last$[esp+16]
	mov	DWORD PTR [eax+12], edx
	mov	edx, DWORD PTR ___last$[esp+20]
	sub	esp, 16					; 00000010H
	mov	eax, esp
	mov	DWORD PTR [eax], ecx
	mov	ecx, DWORD PTR ___last$[esp+40]
	mov	DWORD PTR [eax+4], edx
	mov	edx, DWORD PTR ___last$[esp+44]
	mov	DWORD PTR [eax+8], ecx
	mov	ecx, DWORD PTR ___first$[esp+32]
	mov	DWORD PTR [eax+12], edx
	mov	edx, DWORD PTR ___first$[esp+36]
	sub	esp, 16					; 00000010H
	mov	eax, esp
	mov	DWORD PTR [eax], ecx
	mov	ecx, DWORD PTR ___first$[esp+56]
	mov	DWORD PTR [eax+4], edx
	mov	edx, DWORD PTR ___first$[esp+60]
	mov	DWORD PTR [eax+8], ecx
	mov	DWORD PTR [eax+12], edx
	call	??$__copy_backward_aux@U?$_Deque_iterator@USElement@CStatGraph@@U?$_Nonconst_traits@USElement@CStatGraph@@@stlp_std@@@priv@stlp_std@@U123@@priv@stlp_std@@YA?AU?$_Deque_iterator@USElement@CStatGraph@@U?$_Nonconst_traits@USElement@CStatGraph@@@stlp_std@@@01@U201@00ABU__false_type@1@@Z ; stlp_std::priv::__copy_backward_aux<stlp_std::priv::_Deque_iterator<CStatGraph::SElement,stlp_std::_Nonconst_traits<CStatGraph::SElement> >,stlp_std::priv::_Deque_iterator<CStatGraph::SElement,stlp_std::_Nonconst_traits<CStatGraph::SElement> > >
	add	esp, 48					; 00000030H
	mov	eax, esi

; 315  : }

	pop	esi
	ret	0
??$copy_backward@U?$_Deque_iterator@USElement@CStatGraph@@U?$_Nonconst_traits@USElement@CStatGraph@@@stlp_std@@@priv@stlp_std@@U123@@stlp_std@@YA?AU?$_Deque_iterator@USElement@CStatGraph@@U?$_Nonconst_traits@USElement@CStatGraph@@@stlp_std@@@priv@0@U120@00@Z ENDP ; stlp_std::copy_backward<stlp_std::priv::_Deque_iterator<CStatGraph::SElement,stlp_std::_Nonconst_traits<CStatGraph::SElement> >,stlp_std::priv::_Deque_iterator<CStatGraph::SElement,stlp_std::_Nonconst_traits<CStatGraph::SElement> > >
; Function compile flags: /Ogtpy
; File d:\clearsky\sources\sdk\include\stlport\stl\_deque.c
_TEXT	ENDS
;	COMDAT ?clear@?$_Impl_deque@USElement@CStatGraph@@V?$xalloc@USElement@CStatGraph@@@@@priv@stlp_std@@QAEXXZ
_TEXT	SEGMENT
?clear@?$_Impl_deque@USElement@CStatGraph@@V?$xalloc@USElement@CStatGraph@@@@@priv@stlp_std@@QAEXXZ PROC ; stlp_std::priv::_Impl_deque<CStatGraph::SElement,xalloc<CStatGraph::SElement> >::clear, COMDAT
; _this$ = edi

; 337  : void deque<_Tp,_Alloc>::clear() {

	push	ebx

; 338  :   for (_Map_pointer __node = this->_M_start._M_node + 1;
; 339  :        __node < this->_M_finish._M_node;
; 340  :        ++__node) {

	mov	ebx, DWORD PTR __imp_?mem_free@xrMemory@@QAEXPAX@Z
	push	esi
	mov	esi, DWORD PTR [edi+12]
	add	esi, 4
	cmp	esi, DWORD PTR [edi+28]
	jae	SHORT $LN3@clear@5
$LL5@clear@5:

; 341  :     _STLP_STD::_Destroy_Range(*__node, *__node + this->buffer_size());
; 342  :     this->_M_map_size.deallocate(*__node, this->buffer_size());

	mov	eax, DWORD PTR [esi]
	test	eax, eax
	je	SHORT $LN4@clear@5
	mov	ecx, DWORD PTR __imp_?Memory@@3VxrMemory@@A
	push	eax
	call	ebx
$LN4@clear@5:
	add	esi, 4
	cmp	esi, DWORD PTR [edi+28]
	jb	SHORT $LL5@clear@5
$LN3@clear@5:

; 343  :   }
; 344  : 
; 345  :   if (this->_M_start._M_node != this->_M_finish._M_node) {

	mov	eax, DWORD PTR [edi+12]
	cmp	eax, DWORD PTR [edi+28]
	je	SHORT $LN2@clear@5

; 346  :     _STLP_STD::_Destroy_Range(this->_M_start._M_cur, this->_M_start._M_last);
; 347  :     _STLP_STD::_Destroy_Range(this->_M_finish._M_first, this->_M_finish._M_cur);
; 348  :     this->_M_map_size.deallocate(this->_M_finish._M_first, this->buffer_size());

	mov	eax, DWORD PTR [edi+20]
	test	eax, eax
	je	SHORT $LN2@clear@5
