; Listing generated by Microsoft (R) Optimizing Compiler Version 14.00.50727.762 

	TITLE	D:\CLEARSKY\sources\engine\xrEngine\stdafx.cpp
	.686P
	.XMM
	include listing.inc
	.model	flat

INCLUDELIB OLDNAMES

PUBLIC	??_R4CLoadScreenRenderer@@6B@			; CLoadScreenRenderer::`RTTI Complete Object Locator'
PUBLIC	??_R3CLoadScreenRenderer@@8			; CLoadScreenRenderer::`RTTI Class Hierarchy Descriptor'
PUBLIC	??_R2CLoadScreenRenderer@@8			; CLoadScreenRenderer::`RTTI Base Class Array'
PUBLIC	??_R1A@?0A@EA@CLoadScreenRenderer@@8		; CLoadScreenRenderer::`RTTI Base Class Descriptor at (0,-1,0,64)'
PUBLIC	??_R0?AVCLoadScreenRenderer@@@8			; CLoadScreenRenderer `RTTI Type Descriptor'
PUBLIC	?StatPhysics@CRenderDevice@@EAGPAVCStatsPhysics@@XZ ; CRenderDevice::StatPhysics
PUBLIC	??_R4CRenderDevice@@6B@				; CRenderDevice::`RTTI Complete Object Locator'
PUBLIC	??_R3CRenderDevice@@8				; CRenderDevice::`RTTI Class Hierarchy Descriptor'
PUBLIC	??_R2CRenderDevice@@8				; CRenderDevice::`RTTI Base Class Array'
PUBLIC	??_R1A@?0A@EA@CRenderDevice@@8			; CRenderDevice::`RTTI Base Class Descriptor at (0,-1,0,64)'
PUBLIC	??_R0?AVCRenderDevice@@@8			; CRenderDevice `RTTI Type Descriptor'
PUBLIC	??_R4CRenderDeviceBase@@6B@			; CRenderDeviceBase::`RTTI Complete Object Locator'
PUBLIC	??_R3CRenderDeviceBase@@8			; CRenderDeviceBase::`RTTI Class Hierarchy Descriptor'
PUBLIC	??_R2CRenderDeviceBase@@8			; CRenderDeviceBase::`RTTI Base Class Array'
PUBLIC	??_R13?0A@EA@CRenderDeviceData@@8		; CRenderDeviceData::`RTTI Base Class Descriptor at (4,-1,0,64)'
PUBLIC	??_R3CRenderDeviceData@@8			; CRenderDeviceData::`RTTI Class Hierarchy Descriptor'
PUBLIC	??_R2CRenderDeviceData@@8			; CRenderDeviceData::`RTTI Base Class Array'
PUBLIC	??_R1A@?0A@EA@CRenderDeviceData@@8		; CRenderDeviceData::`RTTI Base Class Descriptor at (0,-1,0,64)'
PUBLIC	??_R0?AVCRenderDeviceData@@@8			; CRenderDeviceData `RTTI Type Descriptor'
PUBLIC	??_R1A@?0A@EA@CRenderDeviceBase@@8		; CRenderDeviceBase::`RTTI Base Class Descriptor at (0,-1,0,64)'
PUBLIC	??_R0?AVCRenderDeviceBase@@@8			; CRenderDeviceBase `RTTI Type Descriptor'
PUBLIC	??_R4IRenderDevice@@6B@				; IRenderDevice::`RTTI Complete Object Locator'
PUBLIC	??_R3IRenderDevice@@8				; IRenderDevice::`RTTI Class Hierarchy Descriptor'
PUBLIC	??_R2IRenderDevice@@8				; IRenderDevice::`RTTI Base Class Array'
PUBLIC	??_R1A@?0A@EA@IRenderDevice@@8			; IRenderDevice::`RTTI Base Class Descriptor at (0,-1,0,64)'
PUBLIC	??_R0?AVIRenderDevice@@@8			; IRenderDevice `RTTI Type Descriptor'
PUBLIC	??_R4CStats@@6B@				; CStats::`RTTI Complete Object Locator'
PUBLIC	??_R3CStats@@8					; CStats::`RTTI Class Hierarchy Descriptor'
PUBLIC	??_R2CStats@@8					; CStats::`RTTI Base Class Array'
PUBLIC	??_R17?0A@EA@CStatsPhysics@@8			; CStatsPhysics::`RTTI Base Class Descriptor at (8,-1,0,64)'
PUBLIC	??_R3CStatsPhysics@@8				; CStatsPhysics::`RTTI Class Hierarchy Descriptor'
PUBLIC	??_R2CStatsPhysics@@8				; CStatsPhysics::`RTTI Base Class Array'
PUBLIC	??_R1A@?0A@EA@CStatsPhysics@@8			; CStatsPhysics::`RTTI Base Class Descriptor at (0,-1,0,64)'
PUBLIC	??_R0?AVCStatsPhysics@@@8			; CStatsPhysics `RTTI Type Descriptor'
PUBLIC	??_R1A@?0A@EA@CStats@@8				; CStats::`RTTI Base Class Descriptor at (0,-1,0,64)'
PUBLIC	??_R0?AVCStats@@@8				; CStats `RTTI Type Descriptor'
PUBLIC	??_R4pureStats@@6B@				; pureStats::`RTTI Complete Object Locator'
PUBLIC	??_R3pureStats@@8				; pureStats::`RTTI Class Hierarchy Descriptor'
PUBLIC	??_R2pureStats@@8				; pureStats::`RTTI Base Class Array'
PUBLIC	??_R1A@?0A@EA@pureStats@@8			; pureStats::`RTTI Base Class Descriptor at (0,-1,0,64)'
PUBLIC	??_R0?AVpureStats@@@8				; pureStats `RTTI Type Descriptor'
PUBLIC	??_R4pureScreenResolutionChanged@@6B@		; pureScreenResolutionChanged::`RTTI Complete Object Locator'
PUBLIC	??_R3pureScreenResolutionChanged@@8		; pureScreenResolutionChanged::`RTTI Class Hierarchy Descriptor'
PUBLIC	??_R2pureScreenResolutionChanged@@8		; pureScreenResolutionChanged::`RTTI Base Class Array'
PUBLIC	??_R1A@?0A@EA@pureScreenResolutionChanged@@8	; pureScreenResolutionChanged::`RTTI Base Class Descriptor at (0,-1,0,64)'
PUBLIC	??_R0?AVpureScreenResolutionChanged@@@8		; pureScreenResolutionChanged `RTTI Type Descriptor'
PUBLIC	??_R4pureDeviceReset@@6B@			; pureDeviceReset::`RTTI Complete Object Locator'
PUBLIC	??_R3pureDeviceReset@@8				; pureDeviceReset::`RTTI Class Hierarchy Descriptor'
PUBLIC	??_R2pureDeviceReset@@8				; pureDeviceReset::`RTTI Base Class Array'
PUBLIC	??_R1A@?0A@EA@pureDeviceReset@@8		; pureDeviceReset::`RTTI Base Class Descriptor at (0,-1,0,64)'
PUBLIC	??_R0?AVpureDeviceReset@@@8			; pureDeviceReset `RTTI Type Descriptor'
PUBLIC	??_R4pureAppEnd@@6B@				; pureAppEnd::`RTTI Complete Object Locator'
PUBLIC	??_R3pureAppEnd@@8				; pureAppEnd::`RTTI Class Hierarchy Descriptor'
PUBLIC	??_R2pureAppEnd@@8				; pureAppEnd::`RTTI Base Class Array'
PUBLIC	??_R1A@?0A@EA@pureAppEnd@@8			; pureAppEnd::`RTTI Base Class Descriptor at (0,-1,0,64)'
PUBLIC	??_R0?AVpureAppEnd@@@8				; pureAppEnd `RTTI Type Descriptor'
PUBLIC	??_R4pureAppStart@@6B@				; pureAppStart::`RTTI Complete Object Locator'
PUBLIC	??_R3pureAppStart@@8				; pureAppStart::`RTTI Class Hierarchy Descriptor'
PUBLIC	??_R2pureAppStart@@8				; pureAppStart::`RTTI Base Class Array'
PUBLIC	??_R1A@?0A@EA@pureAppStart@@8			; pureAppStart::`RTTI Base Class Descriptor at (0,-1,0,64)'
PUBLIC	??_R0?AVpureAppStart@@@8			; pureAppStart `RTTI Type Descriptor'
PUBLIC	??_R4pureAppDeactivate@@6B@			; pureAppDeactivate::`RTTI Complete Object Locator'
PUBLIC	??_R3pureAppDeactivate@@8			; pureAppDeactivate::`RTTI Class Hierarchy Descriptor'
PUBLIC	??_R2pureAppDeactivate@@8			; pureAppDeactivate::`RTTI Base Class Array'
PUBLIC	??_R1A@?0A@EA@pureAppDeactivate@@8		; pureAppDeactivate::`RTTI Base Class Descriptor at (0,-1,0,64)'
PUBLIC	??_R0?AVpureAppDeactivate@@@8			; pureAppDeactivate `RTTI Type Descriptor'
PUBLIC	??_R4pureAppActivate@@6B@			; pureAppActivate::`RTTI Complete Object Locator'
PUBLIC	??_R3pureAppActivate@@8				; pureAppActivate::`RTTI Class Hierarchy Descriptor'
PUBLIC	??_R2pureAppActivate@@8				; pureAppActivate::`RTTI Base Class Array'
PUBLIC	??_R1A@?0A@EA@pureAppActivate@@8		; pureAppActivate::`RTTI Base Class Descriptor at (0,-1,0,64)'
PUBLIC	??_R0?AVpureAppActivate@@@8			; pureAppActivate `RTTI Type Descriptor'
PUBLIC	??_R4pureRender@@6B@				; pureRender::`RTTI Complete Object Locator'
PUBLIC	??_R3pureRender@@8				; pureRender::`RTTI Class Hierarchy Descriptor'
PUBLIC	??_R2pureRender@@8				; pureRender::`RTTI Base Class Array'
PUBLIC	??_R1A@?0A@EA@pureRender@@8			; pureRender::`RTTI Base Class Descriptor at (0,-1,0,64)'
PUBLIC	??_R0?AVpureRender@@@8				; pureRender `RTTI Type Descriptor'
PUBLIC	??_R4pureFrame@@6B@				; pureFrame::`RTTI Complete Object Locator'
PUBLIC	??_R3pureFrame@@8				; pureFrame::`RTTI Class Hierarchy Descriptor'
PUBLIC	??_R2pureFrame@@8				; pureFrame::`RTTI Base Class Array'
PUBLIC	??_R1A@?0A@EA@pureFrame@@8			; pureFrame::`RTTI Base Class Descriptor at (0,-1,0,64)'
PUBLIC	??_R0?AVpureFrame@@@8				; pureFrame `RTTI Type Descriptor'
PUBLIC	?shedule_Name@ISheduled@@UBE?AVshared_str@@XZ	; ISheduled::shedule_Name
PUBLIC	??_EISheduled@@UAEPAXI@Z			; ISheduled::`vector deleting destructor'
PUBLIC	??_R4ISheduled@@6B@				; ISheduled::`RTTI Complete Object Locator'
PUBLIC	??_R3ISheduled@@8				; ISheduled::`RTTI Class Hierarchy Descriptor'
PUBLIC	??_R2ISheduled@@8				; ISheduled::`RTTI Base Class Array'
PUBLIC	??_R1A@?0A@EA@ISheduled@@8			; ISheduled::`RTTI Base Class Descriptor at (0,-1,0,64)'
PUBLIC	??_R0?AVISheduled@@@8				; ISheduled `RTTI Type Descriptor'
PUBLIC	??_R4IEventReceiver@@6B@			; IEventReceiver::`RTTI Complete Object Locator'
PUBLIC	??_R3IEventReceiver@@8				; IEventReceiver::`RTTI Class Hierarchy Descriptor'
PUBLIC	??_R2IEventReceiver@@8				; IEventReceiver::`RTTI Base Class Array'
PUBLIC	??_R1A@?0A@EA@IEventReceiver@@8			; IEventReceiver::`RTTI Base Class Descriptor at (0,-1,0,64)'
PUBLIC	??_R0?AVIEventReceiver@@@8			; IEventReceiver `RTTI Type Descriptor'
PUBLIC	??_EDLL_Pure@@UAEPAXI@Z				; DLL_Pure::`vector deleting destructor'
PUBLIC	?_construct@DLL_Pure@@UAEPAV1@XZ		; DLL_Pure::_construct
PUBLIC	??_R4DLL_Pure@@6B@				; DLL_Pure::`RTTI Complete Object Locator'
PUBLIC	??_R3DLL_Pure@@8				; DLL_Pure::`RTTI Class Hierarchy Descriptor'
PUBLIC	??_R2DLL_Pure@@8				; DLL_Pure::`RTTI Base Class Array'
PUBLIC	??_R1A@?0A@EA@DLL_Pure@@8			; DLL_Pure::`RTTI Base Class Descriptor at (0,-1,0,64)'
PUBLIC	??_R0?AVDLL_Pure@@@8				; DLL_Pure `RTTI Type Descriptor'
PUBLIC	??_C@_0P@GHFPNOJB@bad?5allocation?$AA@		; `string'
PUBLIC	?begin@?$vector@V?$FastDelegate0@X@fastdelegate@@V?$xalloc@V?$FastDelegate0@X@fastdelegate@@@@@stlp_std@@QAEPAV?$FastDelegate0@X@fastdelegate@@XZ ; stlp_std::vector<fastdelegate::FastDelegate0<void>,xalloc<fastdelegate::FastDelegate0<void> > >::begin
PUBLIC	?end@?$vector@V?$FastDelegate0@X@fastdelegate@@V?$xalloc@V?$FastDelegate0@X@fastdelegate@@@@@stlp_std@@QAEPAV?$FastDelegate0@X@fastdelegate@@XZ ; stlp_std::vector<fastdelegate::FastDelegate0<void>,xalloc<fastdelegate::FastDelegate0<void> > >::end
PUBLIC	??$__copy@PAV?$FastDelegate0@X@fastdelegate@@PAV12@H@priv@stlp_std@@YAPAV?$FastDelegate0@X@fastdelegate@@PAV23@00ABUrandom_access_iterator_tag@1@PAH@Z ; stlp_std::priv::__copy<fastdelegate::FastDelegate0<void> *,fastdelegate::FastDelegate0<void> *,int>
PUBLIC	??$__copy_ptrs@PAV?$FastDelegate0@X@fastdelegate@@PAV12@@priv@stlp_std@@YAPAV?$FastDelegate0@X@fastdelegate@@PAV23@00ABU__false_type@1@@Z ; stlp_std::priv::__copy_ptrs<fastdelegate::FastDelegate0<void> *,fastdelegate::FastDelegate0<void> *>
PUBLIC	??$__destroy_aux@V?$FastDelegate0@X@fastdelegate@@@stlp_std@@YAXPAV?$FastDelegate0@X@fastdelegate@@ABU__true_type@0@@Z ; stlp_std::__destroy_aux<fastdelegate::FastDelegate0<void> >
PUBLIC	??$_Destroy@V?$FastDelegate0@X@fastdelegate@@@stlp_std@@YAXPAV?$FastDelegate0@X@fastdelegate@@@Z ; stlp_std::_Destroy<fastdelegate::FastDelegate0<void> >
PUBLIC	?_M_erase@?$_Impl_vector@V?$FastDelegate0@X@fastdelegate@@V?$xalloc@V?$FastDelegate0@X@fastdelegate@@@@@priv@stlp_std@@AAEPAV?$FastDelegate0@X@fastdelegate@@PAV45@ABU__false_type@3@@Z ; stlp_std::priv::_Impl_vector<fastdelegate::FastDelegate0<void>,xalloc<fastdelegate::FastDelegate0<void> > >::_M_erase
PUBLIC	?erase@?$_Impl_vector@V?$FastDelegate0@X@fastdelegate@@V?$xalloc@V?$FastDelegate0@X@fastdelegate@@@@@priv@stlp_std@@QAEPAV?$FastDelegate0@X@fastdelegate@@PAV45@@Z ; stlp_std::priv::_Impl_vector<fastdelegate::FastDelegate0<void>,xalloc<fastdelegate::FastDelegate0<void> > >::erase
PUBLIC	?to_value_type_ptr@?$_CastTraits@V?$FastDelegate0@X@fastdelegate@@V12@@priv@stlp_std@@SAPAV?$FastDelegate0@X@fastdelegate@@PAV45@@Z ; stlp_std::priv::_CastTraits<fastdelegate::FastDelegate0<void>,fastdelegate::FastDelegate0<void> >::to_value_type_ptr
PUBLIC	?to_storage_type_ptr@?$_CastTraits@V?$FastDelegate0@X@fastdelegate@@V12@@priv@stlp_std@@SAPAV?$FastDelegate0@X@fastdelegate@@PAV45@@Z ; stlp_std::priv::_CastTraits<fastdelegate::FastDelegate0<void>,fastdelegate::FastDelegate0<void> >::to_storage_type_ptr
PUBLIC	?erase@?$vector@V?$FastDelegate0@X@fastdelegate@@V?$xalloc@V?$FastDelegate0@X@fastdelegate@@@@@stlp_std@@QAEPAV?$FastDelegate0@X@fastdelegate@@PAV34@@Z ; stlp_std::vector<fastdelegate::FastDelegate0<void>,xalloc<fastdelegate::FastDelegate0<void> > >::erase
PUBLIC	?IsEqual@DelegateMemento@fastdelegate@@QBE_NABV12@@Z ; fastdelegate::DelegateMemento::IsEqual
PUBLIC	??8?$FastDelegate0@X@fastdelegate@@QBE_NABV01@@Z ; fastdelegate::FastDelegate0<void>::operator==
PUBLIC	??$__find@PAV?$FastDelegate0@X@fastdelegate@@V12@@priv@stlp_std@@YAPAV?$FastDelegate0@X@fastdelegate@@PAV23@0ABV23@ABUrandom_access_iterator_tag@1@@Z ; stlp_std::priv::__find<fastdelegate::FastDelegate0<void> *,fastdelegate::FastDelegate0<void> >
PUBLIC	??$find@PAV?$FastDelegate0@X@fastdelegate@@V12@@stlp_std@@YAPAV?$FastDelegate0@X@fastdelegate@@PAV12@0ABV12@@Z ; stlp_std::find<fastdelegate::FastDelegate0<void> *,fastdelegate::FastDelegate0<void> >
PUBLIC	??1?$xr_vector@Vshared_str@@V?$xalloc@Vshared_str@@@@@@QAE@XZ ; xr_vector<shared_str,xalloc<shared_str> >::~xr_vector<shared_str,xalloc<shared_str> >
PUBLIC	??0?$_STLP_alloc_proxy@PAVshared_str@@V1@V?$xalloc@Vshared_str@@@@@priv@stlp_std@@QAE@ABV?$xalloc@Vshared_str@@@@PAVshared_str@@@Z ; stlp_std::priv::_STLP_alloc_proxy<shared_str *,shared_str,xalloc<shared_str> >::_STLP_alloc_proxy<shared_str *,shared_str,xalloc<shared_str> >
PUBLIC	??0?$_Vector_base@Vshared_str@@V?$xalloc@Vshared_str@@@@@priv@stlp_std@@QAE@IABV?$xalloc@Vshared_str@@@@@Z ; stlp_std::priv::_Vector_base<shared_str,xalloc<shared_str> >::_Vector_base<shared_str,xalloc<shared_str> >
PUBLIC	??0?$xalloc@Vshared_str@@@@QAE@ABV0@@Z		; xalloc<shared_str>::xalloc<shared_str>
PUBLIC	?get_allocator@?$_Impl_vector@Vshared_str@@V?$xalloc@Vshared_str@@@@@priv@stlp_std@@QBE?AV?$xalloc@Vshared_str@@@@XZ ; stlp_std::priv::_Impl_vector<shared_str,xalloc<shared_str> >::get_allocator
PUBLIC	?begin@?$_Impl_vector@Vshared_str@@V?$xalloc@Vshared_str@@@@@priv@stlp_std@@QBEPBVshared_str@@XZ ; stlp_std::priv::_Impl_vector<shared_str,xalloc<shared_str> >::begin
PUBLIC	?end@?$_Impl_vector@Vshared_str@@V?$xalloc@Vshared_str@@@@@priv@stlp_std@@QBEPBVshared_str@@XZ ; stlp_std::priv::_Impl_vector<shared_str,xalloc<shared_str> >::end
PUBLIC	??0?$_Impl_vector@Vshared_str@@V?$xalloc@Vshared_str@@@@@priv@stlp_std@@QAE@ABV012@@Z ; stlp_std::priv::_Impl_vector<shared_str,xalloc<shared_str> >::_Impl_vector<shared_str,xalloc<shared_str> >
PUBLIC	??0?$vector@Vshared_str@@V?$xalloc@Vshared_str@@@@@stlp_std@@QAE@ABV01@@Z ; stlp_std::vector<shared_str,xalloc<shared_str> >::vector<shared_str,xalloc<shared_str> >
PUBLIC	??1?$_Vector_base@Vshared_str@@V?$xalloc@Vshared_str@@@@@priv@stlp_std@@QAE@XZ ; stlp_std::priv::_Vector_base<shared_str,xalloc<shared_str> >::~_Vector_base<shared_str,xalloc<shared_str> >
PUBLIC	??1?$_Impl_vector@Vshared_str@@V?$xalloc@Vshared_str@@@@@priv@stlp_std@@QAE@XZ ; stlp_std::priv::_Impl_vector<shared_str,xalloc<shared_str> >::~_Impl_vector<shared_str,xalloc<shared_str> >
PUBLIC	??1?$vector@Vshared_str@@V?$xalloc@Vshared_str@@@@@stlp_std@@QAE@XZ ; stlp_std::vector<shared_str,xalloc<shared_str> >::~vector<shared_str,xalloc<shared_str> >
PUBLIC	??0?$xr_vector@Vshared_str@@V?$xalloc@Vshared_str@@@@@@QAE@ABV0@@Z ; xr_vector<shared_str,xalloc<shared_str> >::xr_vector<shared_str,xalloc<shared_str> >
PUBLIC	?DestroyObject@?$FactoryPtr@VIStatsRender@@@@AAEXXZ ; FactoryPtr<IStatsRender>::DestroyObject
PUBLIC	??1?$FactoryPtr@VIStatsRender@@@@QAE@XZ		; FactoryPtr<IStatsRender>::~FactoryPtr<IStatsRender>
PUBLIC	?CreateObject@?$FactoryPtr@VIStatsRender@@@@AAEXXZ ; FactoryPtr<IStatsRender>::CreateObject
PUBLIC	??0?$FactoryPtr@VIStatsRender@@@@QAE@ABV0@@Z	; FactoryPtr<IStatsRender>::FactoryPtr<IStatsRender>
PUBLIC	??1?$CRegistrator@VpureStats@@@@QAE@XZ		; CRegistrator<pureStats>::~CRegistrator<pureStats>
PUBLIC	??0?$CRegistrator@VpureStats@@@@QAE@ABV0@@Z	; CRegistrator<pureStats>::CRegistrator<pureStats>
PUBLIC	??4?$CRegistrator@VpureDeviceReset@@@@QAEAAV0@ABV0@@Z ; CRegistrator<pureDeviceReset>::operator=
PUBLIC	?size@?$_Impl_vector@V?$FastDelegate0@X@fastdelegate@@V?$xalloc@V?$FastDelegate0@X@fastdelegate@@@@@priv@stlp_std@@QBEIXZ ; stlp_std::priv::_Impl_vector<fastdelegate::FastDelegate0<void>,xalloc<fastdelegate::FastDelegate0<void> > >::size
PUBLIC	?capacity@?$_Impl_vector@V?$FastDelegate0@X@fastdelegate@@V?$xalloc@V?$FastDelegate0@X@fastdelegate@@@@@priv@stlp_std@@QBEIXZ ; stlp_std::priv::_Impl_vector<fastdelegate::FastDelegate0<void>,xalloc<fastdelegate::FastDelegate0<void> > >::capacity
PUBLIC	?_M_clear@?$_Impl_vector@V?$FastDelegate0@X@fastdelegate@@V?$xalloc@V?$FastDelegate0@X@fastdelegate@@@@@priv@stlp_std@@AAEXXZ ; stlp_std::priv::_Impl_vector<fastdelegate::FastDelegate0<void>,xalloc<fastdelegate::FastDelegate0<void> > >::_M_clear
PUBLIC	??$xr_alloc@V?$FastDelegate0@X@fastdelegate@@@@YAPAV?$FastDelegate0@X@fastdelegate@@I@Z ; xr_alloc<fastdelegate::FastDelegate0<void> >
PUBLIC	?allocate@?$xalloc@V?$FastDelegate0@X@fastdelegate@@@@QBEPAV?$FastDelegate0@X@fastdelegate@@IPBX@Z ; xalloc<fastdelegate::FastDelegate0<void> >::allocate
PUBLIC	?allocate@?$_STLP_alloc_proxy@PAV?$FastDelegate0@X@fastdelegate@@V12@V?$xalloc@V?$FastDelegate0@X@fastdelegate@@@@@priv@stlp_std@@QAEPAV?$FastDelegate0@X@fastdelegate@@I@Z ; stlp_std::priv::_STLP_alloc_proxy<fastdelegate::FastDelegate0<void> *,fastdelegate::FastDelegate0<void>,xalloc<fastdelegate::FastDelegate0<void> > >::allocate
PUBLIC	?allocate@?$_STLP_alloc_proxy@PAV?$FastDelegate0@X@fastdelegate@@V12@V?$xalloc@V?$FastDelegate0@X@fastdelegate@@@@@priv@stlp_std@@AAEPAV?$FastDelegate0@X@fastdelegate@@IAAIABU__false_type@3@@Z ; stlp_std::priv::_STLP_alloc_proxy<fastdelegate::FastDelegate0<void> *,fastdelegate::FastDelegate0<void>,xalloc<fastdelegate::FastDelegate0<void> > >::allocate
PUBLIC	?allocate@?$_STLP_alloc_proxy@PAV?$FastDelegate0@X@fastdelegate@@V12@V?$xalloc@V?$FastDelegate0@X@fastdelegate@@@@@priv@stlp_std@@QAEPAV?$FastDelegate0@X@fastdelegate@@IAAI@Z ; stlp_std::priv::_STLP_alloc_proxy<fastdelegate::FastDelegate0<void> *,fastdelegate::FastDelegate0<void>,xalloc<fastdelegate::FastDelegate0<void> > >::allocate
PUBLIC	?_Answer@?$_BothPtrType@PBV?$FastDelegate0@X@fastdelegate@@PAV12@@stlp_std@@SA?AU__true_type@2@XZ ; stlp_std::_BothPtrType<fastdelegate::FastDelegate0<void> const *,fastdelegate::FastDelegate0<void> *>::_Answer
PUBLIC	??$_UseTrivialUCopy@V?$FastDelegate0@X@fastdelegate@@V12@@stlp_std@@YA?AU?$_TrivialUCopy@V?$FastDelegate0@X@fastdelegate@@V12@@0@PAV?$FastDelegate0@X@fastdelegate@@0@Z ; stlp_std::_UseTrivialUCopy<fastdelegate::FastDelegate0<void>,fastdelegate::FastDelegate0<void> >
PUBLIC	?_Answer@?$_TrivialUCopy@V?$FastDelegate0@X@fastdelegate@@V12@@stlp_std@@SA?AU__false_type@2@XZ ; stlp_std::_TrivialUCopy<fastdelegate::FastDelegate0<void>,fastdelegate::FastDelegate0<void> >::_Answer
PUBLIC	??$__ucopy_aux@PBV?$FastDelegate0@X@fastdelegate@@PAV12@@priv@stlp_std@@YAPAV?$FastDelegate0@X@fastdelegate@@PBV23@0PAV23@ABU__true_type@1@@Z ; stlp_std::priv::__ucopy_aux<fastdelegate::FastDelegate0<void> const *,fastdelegate::FastDelegate0<void> *>
PUBLIC	??$uninitialized_copy@PBV?$FastDelegate0@X@fastdelegate@@PAV12@@stlp_std@@YAPAV?$FastDelegate0@X@fastdelegate@@PBV12@0PAV12@@Z ; stlp_std::uninitialized_copy<fastdelegate::FastDelegate0<void> const *,fastdelegate::FastDelegate0<void> *>
PUBLIC	??$_M_allocate_and_copy@PBV?$FastDelegate0@X@fastdelegate@@@?$_Impl_vector@V?$FastDelegate0@X@fastdelegate@@V?$xalloc@V?$FastDelegate0@X@fastdelegate@@@@@priv@stlp_std@@AAEPAV?$FastDelegate0@X@fastdelegate@@AAIPBV34@1@Z ; stlp_std::priv::_Impl_vector<fastdelegate::FastDelegate0<void>,xalloc<fastdelegate::FastDelegate0<void> > >::_M_allocate_and_copy<fastdelegate::FastDelegate0<void> const *>
PUBLIC	??4?$FastDelegate0@X@fastdelegate@@QAEXABV01@@Z	; fastdelegate::FastDelegate0<void>::operator=
PUBLIC	??$__copy@PBV?$FastDelegate0@X@fastdelegate@@PAV12@H@priv@stlp_std@@YAPAV?$FastDelegate0@X@fastdelegate@@PBV23@0PAV23@ABUrandom_access_iterator_tag@1@PAH@Z ; stlp_std::priv::__copy<fastdelegate::FastDelegate0<void> const *,fastdelegate::FastDelegate0<void> *,int>
PUBLIC	??$__copy_ptrs@PBV?$FastDelegate0@X@fastdelegate@@PAV12@@priv@stlp_std@@YAPAV?$FastDelegate0@X@fastdelegate@@PBV23@0PAV23@ABU__false_type@1@@Z ; stlp_std::priv::__copy_ptrs<fastdelegate::FastDelegate0<void> const *,fastdelegate::FastDelegate0<void> *>
PUBLIC	??$__destroy_range_aux@PAV?$FastDelegate0@X@fastdelegate@@V12@@stlp_std@@YAXPAV?$FastDelegate0@X@fastdelegate@@00ABU__true_type@0@@Z ; stlp_std::__destroy_range_aux<fastdelegate::FastDelegate0<void> *,fastdelegate::FastDelegate0<void> >
PUBLIC	??$__destroy_range@PAV?$FastDelegate0@X@fastdelegate@@V12@@stlp_std@@YAXPAV?$FastDelegate0@X@fastdelegate@@00@Z ; stlp_std::__destroy_range<fastdelegate::FastDelegate0<void> *,fastdelegate::FastDelegate0<void> >
PUBLIC	??$_Destroy_Range@PAV?$FastDelegate0@X@fastdelegate@@@stlp_std@@YAXPAV?$FastDelegate0@X@fastdelegate@@0@Z ; stlp_std::_Destroy_Range<fastdelegate::FastDelegate0<void> *>
PUBLIC	??0DelegateMemento@fastdelegate@@QAE@XZ		; fastdelegate::DelegateMemento::DelegateMemento
PUBLIC	??0?$ClosurePtr@P8GenericClass@detail@fastdelegate@@AGXXZP6GXXZP6GXXZ@detail@fastdelegate@@QAE@XZ ; fastdelegate::detail::ClosurePtr<void (__stdcall fastdelegate::detail::GenericClass::*)(void),void (__stdcall*)(void),void (__stdcall*)(void)>::ClosurePtr<void (__stdcall fastdelegate::detail::GenericClass::*)(void),void (__stdcall*)(void),void (__stdcall*)(void)>
PUBLIC	?SetMementoFrom@DelegateMemento@fastdelegate@@IAEXABV12@@Z ; fastdelegate::DelegateMemento::SetMementoFrom
PUBLIC	??$CopyFrom@V?$FastDelegate0@X@fastdelegate@@@?$ClosurePtr@P8GenericClass@detail@fastdelegate@@AGXXZP6GXXZP6GXXZ@detail@fastdelegate@@QAEXPAV?$FastDelegate0@X@2@ABVDelegateMemento@2@@Z ; fastdelegate::detail::ClosurePtr<void (__stdcall fastdelegate::detail::GenericClass::*)(void),void (__stdcall*)(void),void (__stdcall*)(void)>::CopyFrom<fastdelegate::FastDelegate0<void> >
PUBLIC	??0?$FastDelegate0@X@fastdelegate@@QAE@ABV01@@Z	; fastdelegate::FastDelegate0<void>::FastDelegate0<void>
PUBLIC	??$_Param_Construct@V?$FastDelegate0@X@fastdelegate@@V12@@stlp_std@@YAXPAV?$FastDelegate0@X@fastdelegate@@ABV12@@Z ; stlp_std::_Param_Construct<fastdelegate::FastDelegate0<void>,fastdelegate::FastDelegate0<void> >
PUBLIC	??$__ucopy@PBV?$FastDelegate0@X@fastdelegate@@PAV12@H@priv@stlp_std@@YAPAV?$FastDelegate0@X@fastdelegate@@PBV23@0PAV23@ABUrandom_access_iterator_tag@1@PAH@Z ; stlp_std::priv::__ucopy<fastdelegate::FastDelegate0<void> const *,fastdelegate::FastDelegate0<void> *,int>
PUBLIC	??$__ucopy_ptrs@PBV?$FastDelegate0@X@fastdelegate@@PAV12@@priv@stlp_std@@YAPAV?$FastDelegate0@X@fastdelegate@@PBV23@0PAV23@ABU__false_type@1@@Z ; stlp_std::priv::__ucopy_ptrs<fastdelegate::FastDelegate0<void> const *,fastdelegate::FastDelegate0<void> *>
PUBLIC	??4?$_Impl_vector@V?$FastDelegate0@X@fastdelegate@@V?$xalloc@V?$FastDelegate0@X@fastdelegate@@@@@priv@stlp_std@@QAEAAV012@ABV012@@Z ; stlp_std::priv::_Impl_vector<fastdelegate::FastDelegate0<void>,xalloc<fastdelegate::FastDelegate0<void> > >::operator=
PUBLIC	??4?$vector@V?$FastDelegate0@X@fastdelegate@@V?$xalloc@V?$FastDelegate0@X@fastdelegate@@@@@stlp_std@@QAEAAV01@ABV01@@Z ; stlp_std::vector<fastdelegate::FastDelegate0<void>,xalloc<fastdelegate::FastDelegate0<void> > >::operator=
PUBLIC	??4?$xr_vector@V?$FastDelegate0@X@fastdelegate@@V?$xalloc@V?$FastDelegate0@X@fastdelegate@@@@@@QAEAAV0@ABV0@@Z ; xr_vector<fastdelegate::FastDelegate0<void>,xalloc<fastdelegate::FastDelegate0<void> > >::operator=
PUBLIC	?size@?$_Impl_vector@Vshared_str@@V?$xalloc@Vshared_str@@@@@priv@stlp_std@@QBEIXZ ; stlp_std::priv::_Impl_vector<shared_str,xalloc<shared_str> >::size
PUBLIC	?capacity@?$_Impl_vector@Vshared_str@@V?$xalloc@Vshared_str@@@@@priv@stlp_std@@QBEIXZ ; stlp_std::priv::_Impl_vector<shared_str,xalloc<shared_str> >::capacity
PUBLIC	??$xr_free@Vshared_str@@@@YAXAAPAVshared_str@@@Z ; xr_free<shared_str>
PUBLIC	?deallocate@?$xalloc@Vshared_str@@@@QBEXPAVshared_str@@I@Z ; xalloc<shared_str>::deallocate
PUBLIC	?end@?$_Impl_vector@Vshared_str@@V?$xalloc@Vshared_str@@@@@priv@stlp_std@@QAEPAVshared_str@@XZ ; stlp_std::priv::_Impl_vector<shared_str,xalloc<shared_str> >::end
PUBLIC	?rbegin@?$_Impl_vector@Vshared_str@@V?$xalloc@Vshared_str@@@@@priv@stlp_std@@QAE?AV?$reverse_iterator@PAVshared_str@@@3@XZ ; stlp_std::priv::_Impl_vector<shared_str,xalloc<shared_str> >::rbegin
PUBLIC	?begin@?$_Impl_vector@Vshared_str@@V?$xalloc@Vshared_str@@@@@priv@stlp_std@@QAEPAVshared_str@@XZ ; stlp_std::priv::_Impl_vector<shared_str,xalloc<shared_str> >::begin
PUBLIC	??0?$reverse_iterator@PAVshared_str@@@stlp_std@@QAE@PAVshared_str@@@Z ; stlp_std::reverse_iterator<shared_str *>::reverse_iterator<shared_str *>
PUBLIC	?rend@?$_Impl_vector@Vshared_str@@V?$xalloc@Vshared_str@@@@@priv@stlp_std@@QAE?AV?$reverse_iterator@PAVshared_str@@@3@XZ ; stlp_std::priv::_Impl_vector<shared_str,xalloc<shared_str> >::rend
PUBLIC	??0?$reverse_iterator@PAVshared_str@@@stlp_std@@QAE@ABV01@@Z ; stlp_std::reverse_iterator<shared_str *>::reverse_iterator<shared_str *>
PUBLIC	??D?$reverse_iterator@PAVshared_str@@@stlp_std@@QBEAAVshared_str@@XZ ; stlp_std::reverse_iterator<shared_str *>::operator*
PUBLIC	??E?$reverse_iterator@PAVshared_str@@@stlp_std@@QAEAAV01@XZ ; stlp_std::reverse_iterator<shared_str *>::operator++
PUBLIC	?base@?$reverse_iterator@PAVshared_str@@@stlp_std@@QBEPAVshared_str@@XZ ; stlp_std::reverse_iterator<shared_str *>::base
PUBLIC	??$?8PAVshared_str@@@stlp_std@@YA_NABV?$reverse_iterator@PAVshared_str@@@0@0@Z ; stlp_std::operator==<shared_str *>
PUBLIC	??$?9PAVshared_str@@@stlp_std@@YA_NABV?$reverse_iterator@PAVshared_str@@@0@0@Z ; stlp_std::operator!=<shared_str *>
PUBLIC	??$__destroy_range_aux@V?$reverse_iterator@PAVshared_str@@@stlp_std@@Vshared_str@@@stlp_std@@YAXV?$reverse_iterator@PAVshared_str@@@0@0PAVshared_str@@ABU__false_type@0@@Z ; stlp_std::__destroy_range_aux<stlp_std::reverse_iterator<shared_str *>,shared_str>
PUBLIC	??$__destroy_range@V?$reverse_iterator@PAVshared_str@@@stlp_std@@Vshared_str@@@stlp_std@@YAXV?$reverse_iterator@PAVshared_str@@@0@0PAVshared_str@@@Z ; stlp_std::__destroy_range<stlp_std::reverse_iterator<shared_str *>,shared_str>
PUBLIC	??$_Destroy_Range@V?$reverse_iterator@PAVshared_str@@@stlp_std@@@stlp_std@@YAXV?$reverse_iterator@PAVshared_str@@@0@0@Z ; stlp_std::_Destroy_Range<stlp_std::reverse_iterator<shared_str *> >
PUBLIC	?_M_clear@?$_Impl_vector@Vshared_str@@V?$xalloc@Vshared_str@@@@@priv@stlp_std@@AAEXXZ ; stlp_std::priv::_Impl_vector<shared_str,xalloc<shared_str> >::_M_clear
PUBLIC	??$xr_alloc@Vshared_str@@@@YAPAVshared_str@@I@Z	; xr_alloc<shared_str>
PUBLIC	?allocate@?$xalloc@Vshared_str@@@@QBEPAVshared_str@@IPBX@Z ; xalloc<shared_str>::allocate
PUBLIC	?allocate@?$_STLP_alloc_proxy@PAVshared_str@@V1@V?$xalloc@Vshared_str@@@@@priv@stlp_std@@QAEPAVshared_str@@I@Z ; stlp_std::priv::_STLP_alloc_proxy<shared_str *,shared_str,xalloc<shared_str> >::allocate
PUBLIC	?allocate@?$_STLP_alloc_proxy@PAVshared_str@@V1@V?$xalloc@Vshared_str@@@@@priv@stlp_std@@AAEPAVshared_str@@IAAIABU__false_type@3@@Z ; stlp_std::priv::_STLP_alloc_proxy<shared_str *,shared_str,xalloc<shared_str> >::allocate
PUBLIC	?allocate@?$_STLP_alloc_proxy@PAVshared_str@@V1@V?$xalloc@Vshared_str@@@@@priv@stlp_std@@QAEPAVshared_str@@IAAI@Z ; stlp_std::priv::_STLP_alloc_proxy<shared_str *,shared_str,xalloc<shared_str> >::allocate
PUBLIC	?_Answer@?$_BothPtrType@PBVshared_str@@PAV1@@stlp_std@@SA?AU__true_type@2@XZ ; stlp_std::_BothPtrType<shared_str const *,shared_str *>::_Answer
PUBLIC	??$_Param_Construct@Vshared_str@@V1@@stlp_std@@YAXPAVshared_str@@ABV1@@Z ; stlp_std::_Param_Construct<shared_str,shared_str>
PUBLIC	??$__ucopy@PBVshared_str@@PAV1@H@priv@stlp_std@@YAPAVshared_str@@PBV2@0PAV2@ABUrandom_access_iterator_tag@1@PAH@Z ; stlp_std::priv::__ucopy<shared_str const *,shared_str *,int>
PUBLIC	??$__ucopy_ptrs@PBVshared_str@@PAV1@@priv@stlp_std@@YAPAVshared_str@@PBV2@0PAV2@ABU__false_type@1@@Z ; stlp_std::priv::__ucopy_ptrs<shared_str const *,shared_str *>
PUBLIC	??$_UseTrivialUCopy@Vshared_str@@V1@@stlp_std@@YA?AU?$_TrivialUCopy@Vshared_str@@V1@@0@PAVshared_str@@0@Z ; stlp_std::_UseTrivialUCopy<shared_str,shared_str>
PUBLIC	?_Answer@?$_TrivialUCopy@Vshared_str@@V1@@stlp_std@@SA?AU__false_type@2@XZ ; stlp_std::_TrivialUCopy<shared_str,shared_str>::_Answer
PUBLIC	??$__ucopy_aux@PBVshared_str@@PAV1@@priv@stlp_std@@YAPAVshared_str@@PBV2@0PAV2@ABU__true_type@1@@Z ; stlp_std::priv::__ucopy_aux<shared_str const *,shared_str *>
PUBLIC	??$uninitialized_copy@PBVshared_str@@PAV1@@stlp_std@@YAPAVshared_str@@PBV1@0PAV1@@Z ; stlp_std::uninitialized_copy<shared_str const *,shared_str *>
PUBLIC	??$_M_allocate_and_copy@PBVshared_str@@@?$_Impl_vector@Vshared_str@@V?$xalloc@Vshared_str@@@@@priv@stlp_std@@AAEPAVshared_str@@AAIPBV3@1@Z ; stlp_std::priv::_Impl_vector<shared_str,xalloc<shared_str> >::_M_allocate_and_copy<shared_str const *>
PUBLIC	??$__copy@PBVshared_str@@PAV1@H@priv@stlp_std@@YAPAVshared_str@@PBV2@0PAV2@ABUrandom_access_iterator_tag@1@PAH@Z ; stlp_std::priv::__copy<shared_str const *,shared_str *,int>
PUBLIC	??$__copy_ptrs@PBVshared_str@@PAV1@@priv@stlp_std@@YAPAVshared_str@@PBV2@0PAV2@ABU__false_type@1@@Z ; stlp_std::priv::__copy_ptrs<shared_str const *,shared_str *>
PUBLIC	??_Gshared_str@@QAEPAXI@Z			; shared_str::`scalar deleting destructor'
PUBLIC	??$__destroy_aux@Vshared_str@@@stlp_std@@YAXPAVshared_str@@ABU__false_type@0@@Z ; stlp_std::__destroy_aux<shared_str>
PUBLIC	??$__destroy_range_aux@PAVshared_str@@V1@@stlp_std@@YAXPAVshared_str@@00ABU__false_type@0@@Z ; stlp_std::__destroy_range_aux<shared_str *,shared_str>
PUBLIC	??$__destroy_range@PAVshared_str@@V1@@stlp_std@@YAXPAVshared_str@@00@Z ; stlp_std::__destroy_range<shared_str *,shared_str>
PUBLIC	??$_Destroy_Range@PAVshared_str@@@stlp_std@@YAXPAVshared_str@@0@Z ; stlp_std::_Destroy_Range<shared_str *>
PUBLIC	??4?$_Impl_vector@Vshared_str@@V?$xalloc@Vshared_str@@@@@priv@stlp_std@@QAEAAV012@ABV012@@Z ; stlp_std::priv::_Impl_vector<shared_str,xalloc<shared_str> >::operator=
PUBLIC	??4?$vector@Vshared_str@@V?$xalloc@Vshared_str@@@@@stlp_std@@QAEAAV01@ABV01@@Z ; stlp_std::vector<shared_str,xalloc<shared_str> >::operator=
PUBLIC	??4?$xr_vector@Vshared_str@@V?$xalloc@Vshared_str@@@@@@QAEAAV0@ABV0@@Z ; xr_vector<shared_str,xalloc<shared_str> >::operator=
PUBLIC	??4?$FactoryPtr@VIStatsRender@@@@QAEAAV0@ABV0@@Z ; FactoryPtr<IStatsRender>::operator=
PUBLIC	??4?$CRegistrator@VpureStats@@@@QAEAAV0@ABV0@@Z	; CRegistrator<pureStats>::operator=
PUBLIC	??0?$xalloc@PAVCEvent@@@@QAE@XZ			; xalloc<CEvent *>::xalloc<CEvent *>
PUBLIC	??0?$xalloc@PAX@@QAE@ABV0@@Z			; xalloc<void *>::xalloc<void *>
PUBLIC	??0?$_STLP_alloc_proxy@PAPAXPAXV?$xalloc@PAX@@@priv@stlp_std@@QAE@ABV?$xalloc@PAX@@PAPAX@Z ; stlp_std::priv::_STLP_alloc_proxy<void * *,void *,xalloc<void *> >::_STLP_alloc_proxy<void * *,void *,xalloc<void *> >
PUBLIC	??0?$_Vector_base@PAXV?$xalloc@PAX@@@priv@stlp_std@@QAE@ABV?$xalloc@PAX@@@Z ; stlp_std::priv::_Vector_base<void *,xalloc<void *> >::_Vector_base<void *,xalloc<void *> >
PUBLIC	??0?$_Impl_vector@PAXV?$xalloc@PAX@@@priv@stlp_std@@QAE@ABV?$xalloc@PAX@@@Z ; stlp_std::priv::_Impl_vector<void *,xalloc<void *> >::_Impl_vector<void *,xalloc<void *> >
PUBLIC	??$?0PAVCEvent@@@?$xalloc@PAX@@QAE@ABV?$xalloc@PAVCEvent@@@@@Z ; xalloc<void *>::xalloc<void *><CEvent *>
PUBLIC	??0?$vector@PAVCEvent@@V?$xalloc@PAVCEvent@@@@@stlp_std@@QAE@ABV?$xalloc@PAVCEvent@@@@@Z ; stlp_std::vector<CEvent *,xalloc<CEvent *> >::vector<CEvent *,xalloc<CEvent *> >
PUBLIC	??0?$xr_vector@PAVCEvent@@V?$xalloc@PAVCEvent@@@@@@QAE@XZ ; xr_vector<CEvent *,xalloc<CEvent *> >::xr_vector<CEvent *,xalloc<CEvent *> >
PUBLIC	??0?$xalloc@UDeferred@CEventAPI@@@@QAE@XZ	; xalloc<CEventAPI::Deferred>::xalloc<CEventAPI::Deferred>
PUBLIC	??0?$xalloc@UDeferred@CEventAPI@@@@QAE@ABV0@@Z	; xalloc<CEventAPI::Deferred>::xalloc<CEventAPI::Deferred>
PUBLIC	??0?$_STLP_alloc_proxy@PAUDeferred@CEventAPI@@U12@V?$xalloc@UDeferred@CEventAPI@@@@@priv@stlp_std@@QAE@ABV?$xalloc@UDeferred@CEventAPI@@@@PAUDeferred@CEventAPI@@@Z ; stlp_std::priv::_STLP_alloc_proxy<CEventAPI::Deferred *,CEventAPI::Deferred,xalloc<CEventAPI::Deferred> >::_STLP_alloc_proxy<CEventAPI::Deferred *,CEventAPI::Deferred,xalloc<CEventAPI::Deferred> >
PUBLIC	??0?$_Vector_base@UDeferred@CEventAPI@@V?$xalloc@UDeferred@CEventAPI@@@@@priv@stlp_std@@QAE@ABV?$xalloc@UDeferred@CEventAPI@@@@@Z ; stlp_std::priv::_Vector_base<CEventAPI::Deferred,xalloc<CEventAPI::Deferred> >::_Vector_base<CEventAPI::Deferred,xalloc<CEventAPI::Deferred> >
PUBLIC	??0?$_Impl_vector@UDeferred@CEventAPI@@V?$xalloc@UDeferred@CEventAPI@@@@@priv@stlp_std@@QAE@ABV?$xalloc@UDeferred@CEventAPI@@@@@Z ; stlp_std::priv::_Impl_vector<CEventAPI::Deferred,xalloc<CEventAPI::Deferred> >::_Impl_vector<CEventAPI::Deferred,xalloc<CEventAPI::Deferred> >
PUBLIC	??0?$vector@UDeferred@CEventAPI@@V?$xalloc@UDeferred@CEventAPI@@@@@stlp_std@@QAE@ABV?$xalloc@UDeferred@CEventAPI@@@@@Z ; stlp_std::vector<CEventAPI::Deferred,xalloc<CEventAPI::Deferred> >::vector<CEventAPI::Deferred,xalloc<CEventAPI::Deferred> >
PUBLIC	??0?$xr_vector@UDeferred@CEventAPI@@V?$xalloc@UDeferred@CEventAPI@@@@@@QAE@XZ ; xr_vector<CEventAPI::Deferred,xalloc<CEventAPI::Deferred> >::xr_vector<CEventAPI::Deferred,xalloc<CEventAPI::Deferred> >
PUBLIC	??1?$_Vector_base@PAXV?$xalloc@PAX@@@priv@stlp_std@@QAE@XZ ; stlp_std::priv::_Vector_base<void *,xalloc<void *> >::~_Vector_base<void *,xalloc<void *> >
PUBLIC	??1?$_Impl_vector@PAXV?$xalloc@PAX@@@priv@stlp_std@@QAE@XZ ; stlp_std::priv::_Impl_vector<void *,xalloc<void *> >::~_Impl_vector<void *,xalloc<void *> >
PUBLIC	??1?$vector@PAVCEvent@@V?$xalloc@PAVCEvent@@@@@stlp_std@@QAE@XZ ; stlp_std::vector<CEvent *,xalloc<CEvent *> >::~vector<CEvent *,xalloc<CEvent *> >
PUBLIC	??1?$xr_vector@PAVCEvent@@V?$xalloc@PAVCEvent@@@@@@QAE@XZ ; xr_vector<CEvent *,xalloc<CEvent *> >::~xr_vector<CEvent *,xalloc<CEvent *> >
PUBLIC	??1?$_Vector_base@UDeferred@CEventAPI@@V?$xalloc@UDeferred@CEventAPI@@@@@priv@stlp_std@@QAE@XZ ; stlp_std::priv::_Vector_base<CEventAPI::Deferred,xalloc<CEventAPI::Deferred> >::~_Vector_base<CEventAPI::Deferred,xalloc<CEventAPI::Deferred> >
PUBLIC	??1?$_Impl_vector@UDeferred@CEventAPI@@V?$xalloc@UDeferred@CEventAPI@@@@@priv@stlp_std@@QAE@XZ ; stlp_std::priv::_Impl_vector<CEventAPI::Deferred,xalloc<CEventAPI::Deferred> >::~_Impl_vector<CEventAPI::Deferred,xalloc<CEventAPI::Deferred> >
PUBLIC	??1?$vector@UDeferred@CEventAPI@@V?$xalloc@UDeferred@CEventAPI@@@@@stlp_std@@QAE@XZ ; stlp_std::vector<CEventAPI::Deferred,xalloc<CEventAPI::Deferred> >::~vector<CEventAPI::Deferred,xalloc<CEventAPI::Deferred> >
PUBLIC	??1?$xr_vector@UDeferred@CEventAPI@@V?$xalloc@UDeferred@CEventAPI@@@@@@QAE@XZ ; xr_vector<CEventAPI::Deferred,xalloc<CEventAPI::Deferred> >::~xr_vector<CEventAPI::Deferred,xalloc<CEventAPI::Deferred> >
PUBLIC	?size@?$_Impl_vector@PAXV?$xalloc@PAX@@@priv@stlp_std@@QBEIXZ ; stlp_std::priv::_Impl_vector<void *,xalloc<void *> >::size
PUBLIC	?capacity@?$_Impl_vector@PAXV?$xalloc@PAX@@@priv@stlp_std@@QBEIXZ ; stlp_std::priv::_Impl_vector<void *,xalloc<void *> >::capacity
PUBLIC	??$xr_free@PAX@@YAXAAPAPAX@Z			; xr_free<void *>
PUBLIC	?deallocate@?$xalloc@PAX@@QBEXPAPAXI@Z		; xalloc<void *>::deallocate
PUBLIC	?end@?$_Impl_vector@PAXV?$xalloc@PAX@@@priv@stlp_std@@QAEPAPAXXZ ; stlp_std::priv::_Impl_vector<void *,xalloc<void *> >::end
PUBLIC	?rbegin@?$_Impl_vector@PAXV?$xalloc@PAX@@@priv@stlp_std@@QAE?AV?$reverse_iterator@PAPAX@3@XZ ; stlp_std::priv::_Impl_vector<void *,xalloc<void *> >::rbegin
PUBLIC	?begin@?$_Impl_vector@PAXV?$xalloc@PAX@@@priv@stlp_std@@QAEPAPAXXZ ; stlp_std::priv::_Impl_vector<void *,xalloc<void *> >::begin
PUBLIC	??0?$reverse_iterator@PAPAX@stlp_std@@QAE@PAPAX@Z ; stlp_std::reverse_iterator<void * *>::reverse_iterator<void * *>
PUBLIC	?rend@?$_Impl_vector@PAXV?$xalloc@PAX@@@priv@stlp_std@@QAE?AV?$reverse_iterator@PAPAX@3@XZ ; stlp_std::priv::_Impl_vector<void *,xalloc<void *> >::rend
PUBLIC	??0?$reverse_iterator@PAPAX@stlp_std@@QAE@ABV01@@Z ; stlp_std::reverse_iterator<void * *>::reverse_iterator<void * *>
PUBLIC	??$__destroy_range_aux@V?$reverse_iterator@PAPAX@stlp_std@@PAX@stlp_std@@YAXV?$reverse_iterator@PAPAX@0@0PAPAXABU__true_type@0@@Z ; stlp_std::__destroy_range_aux<stlp_std::reverse_iterator<void * *>,void *>
PUBLIC	??$__destroy_range@V?$reverse_iterator@PAPAX@stlp_std@@PAX@stlp_std@@YAXV?$reverse_iterator@PAPAX@0@0PAPAX@Z ; stlp_std::__destroy_range<stlp_std::reverse_iterator<void * *>,void *>
PUBLIC	??$_Destroy_Range@V?$reverse_iterator@PAPAX@stlp_std@@@stlp_std@@YAXV?$reverse_iterator@PAPAX@0@0@Z ; stlp_std::_Destroy_Range<stlp_std::reverse_iterator<void * *> >
PUBLIC	?_M_clear@?$_Impl_vector@PAXV?$xalloc@PAX@@@priv@stlp_std@@AAEXXZ ; stlp_std::priv::_Impl_vector<void *,xalloc<void *> >::_M_clear
PUBLIC	??$xr_alloc@PAX@@YAPAPAXI@Z			; xr_alloc<void *>
PUBLIC	?allocate@?$xalloc@PAX@@QBEPAPAXIPBX@Z		; xalloc<void *>::allocate
PUBLIC	?allocate@?$_STLP_alloc_proxy@PAPAXPAXV?$xalloc@PAX@@@priv@stlp_std@@QAEPAPAXI@Z ; stlp_std::priv::_STLP_alloc_proxy<void * *,void *,xalloc<void *> >::allocate
PUBLIC	?allocate@?$_STLP_alloc_proxy@PAPAXPAXV?$xalloc@PAX@@@priv@stlp_std@@AAEPAPAXIAAIABU__false_type@3@@Z ; stlp_std::priv::_STLP_alloc_proxy<void * *,void *,xalloc<void *> >::allocate
PUBLIC	?allocate@?$_STLP_alloc_proxy@PAPAXPAXV?$xalloc@PAX@@@priv@stlp_std@@QAEPAPAXIAAI@Z ; stlp_std::priv::_STLP_alloc_proxy<void * *,void *,xalloc<void *> >::allocate
PUBLIC	?_Answer@?$_BothPtrType@PBQAXPAPAX@stlp_std@@SA?AU__true_type@2@XZ ; stlp_std::_BothPtrType<void * const *,void * *>::_Answer
PUBLIC	??$_UseTrivialUCopy@PAXPAX@stlp_std@@YA?AU?$_TrivialUCopy@PAXPAX@0@PAPAX0@Z ; stlp_std::_UseTrivialUCopy<void *,void *>
PUBLIC	?_Answer@?$_TrivialUCopy@PAXPAX@stlp_std@@SA?AU__true_type@2@XZ ; stlp_std::_TrivialUCopy<void *,void *>::_Answer
PUBLIC	??$__ucopy_aux@PBQAXPAPAX@priv@stlp_std@@YAPAPAXPBQAX0PAPAXABU__true_type@1@@Z ; stlp_std::priv::__ucopy_aux<void * const *,void * *>
PUBLIC	??$uninitialized_copy@PBQAXPAPAX@stlp_std@@YAPAPAXPBQAX0PAPAX@Z ; stlp_std::uninitialized_copy<void * const *,void * *>
PUBLIC	??$_M_allocate_and_copy@PBQAX@?$_Impl_vector@PAXV?$xalloc@PAX@@@priv@stlp_std@@AAEPAPAXAAIPBQAX1@Z ; stlp_std::priv::_Impl_vector<void *,xalloc<void *> >::_M_allocate_and_copy<void * const *>
PUBLIC	??$__copy_ptrs@PBQAXPAPAX@priv@stlp_std@@YAPAPAXPBQAX0PAPAXABU__true_type@1@@Z ; stlp_std::priv::__copy_ptrs<void * const *,void * *>
PUBLIC	??$__destroy_range_aux@PAPAXPAX@stlp_std@@YAXPAPAX00ABU__true_type@0@@Z ; stlp_std::__destroy_range_aux<void * *,void *>
PUBLIC	??$__destroy_range@PAPAXPAX@stlp_std@@YAXPAPAX00@Z ; stlp_std::__destroy_range<void * *,void *>
PUBLIC	??$_Destroy_Range@PAPAX@stlp_std@@YAXPAPAX0@Z	; stlp_std::_Destroy_Range<void * *>
PUBLIC	??$__ucopy_ptrs@PBQAXPAPAX@priv@stlp_std@@YAPAPAXPBQAX0PAPAXABU__true_type@1@@Z ; stlp_std::priv::__ucopy_ptrs<void * const *,void * *>
PUBLIC	??4?$_Impl_vector@PAXV?$xalloc@PAX@@@priv@stlp_std@@QAEAAV012@ABV012@@Z ; stlp_std::priv::_Impl_vector<void *,xalloc<void *> >::operator=
PUBLIC	??4?$vector@PAVCEvent@@V?$xalloc@PAVCEvent@@@@@stlp_std@@QAEAAV01@ABV01@@Z ; stlp_std::vector<CEvent *,xalloc<CEvent *> >::operator=
PUBLIC	??4?$xr_vector@PAVCEvent@@V?$xalloc@PAVCEvent@@@@@@QAEAAV0@ABV0@@Z ; xr_vector<CEvent *,xalloc<CEvent *> >::operator=
PUBLIC	?size@?$_Impl_vector@UDeferred@CEventAPI@@V?$xalloc@UDeferred@CEventAPI@@@@@priv@stlp_std@@QBEIXZ ; stlp_std::priv::_Impl_vector<CEventAPI::Deferred,xalloc<CEventAPI::Deferred> >::size
PUBLIC	?capacity@?$_Impl_vector@UDeferred@CEventAPI@@V?$xalloc@UDeferred@CEventAPI@@@@@priv@stlp_std@@QBEIXZ ; stlp_std::priv::_Impl_vector<CEventAPI::Deferred,xalloc<CEventAPI::Deferred> >::capacity
PUBLIC	??$xr_free@UDeferred@CEventAPI@@@@YAXAAPAUDeferred@CEventAPI@@@Z ; xr_free<CEventAPI::Deferred>
PUBLIC	?deallocate@?$xalloc@UDeferred@CEventAPI@@@@QBEXPAUDeferred@CEventAPI@@I@Z ; xalloc<CEventAPI::Deferred>::deallocate
PUBLIC	?end@?$_Impl_vector@UDeferred@CEventAPI@@V?$xalloc@UDeferred@CEventAPI@@@@@priv@stlp_std@@QAEPAUDeferred@CEventAPI@@XZ ; stlp_std::priv::_Impl_vector<CEventAPI::Deferred,xalloc<CEventAPI::Deferred> >::end
PUBLIC	?rbegin@?$_Impl_vector@UDeferred@CEventAPI@@V?$xalloc@UDeferred@CEventAPI@@@@@priv@stlp_std@@QAE?AV?$reverse_iterator@PAUDeferred@CEventAPI@@@3@XZ ; stlp_std::priv::_Impl_vector<CEventAPI::Deferred,xalloc<CEventAPI::Deferred> >::rbegin
PUBLIC	?begin@?$_Impl_vector@UDeferred@CEventAPI@@V?$xalloc@UDeferred@CEventAPI@@@@@priv@stlp_std@@QAEPAUDeferred@CEventAPI@@XZ ; stlp_std::priv::_Impl_vector<CEventAPI::Deferred,xalloc<CEventAPI::Deferred> >::begin
PUBLIC	??0?$reverse_iterator@PAUDeferred@CEventAPI@@@stlp_std@@QAE@PAUDeferred@CEventAPI@@@Z ; stlp_std::reverse_iterator<CEventAPI::Deferred *>::reverse_iterator<CEventAPI::Deferred *>
PUBLIC	?rend@?$_Impl_vector@UDeferred@CEventAPI@@V?$xalloc@UDeferred@CEventAPI@@@@@priv@stlp_std@@QAE?AV?$reverse_iterator@PAUDeferred@CEventAPI@@@3@XZ ; stlp_std::priv::_Impl_vector<CEventAPI::Deferred,xalloc<CEventAPI::Deferred> >::rend
PUBLIC	??0?$reverse_iterator@PAUDeferred@CEventAPI@@@stlp_std@@QAE@ABV01@@Z ; stlp_std::reverse_iterator<CEventAPI::Deferred *>::reverse_iterator<CEventAPI::Deferred *>
PUBLIC	??$__destroy_range_aux@V?$reverse_iterator@PAUDeferred@CEventAPI@@@stlp_std@@UDeferred@CEventAPI@@@stlp_std@@YAXV?$reverse_iterator@PAUDeferred@CEventAPI@@@0@0PAUDeferred@CEventAPI@@ABU__true_type@0@@Z ; stlp_std::__destroy_range_aux<stlp_std::reverse_iterator<CEventAPI::Deferred *>,CEventAPI::Deferred>
PUBLIC	??$__destroy_range@V?$reverse_iterator@PAUDeferred@CEventAPI@@@stlp_std@@UDeferred@CEventAPI@@@stlp_std@@YAXV?$reverse_iterator@PAUDeferred@CEventAPI@@@0@0PAUDeferred@CEventAPI@@@Z ; stlp_std::__destroy_range<stlp_std::reverse_iterator<CEventAPI::Deferred *>,CEventAPI::Deferred>
PUBLIC	??$_Destroy_Range@V?$reverse_iterator@PAUDeferred@CEventAPI@@@stlp_std@@@stlp_std@@YAXV?$reverse_iterator@PAUDeferred@CEventAPI@@@0@0@Z ; stlp_std::_Destroy_Range<stlp_std::reverse_iterator<CEventAPI::Deferred *> >
PUBLIC	?_M_clear@?$_Impl_vector@UDeferred@CEventAPI@@V?$xalloc@UDeferred@CEventAPI@@@@@priv@stlp_std@@AAEXXZ ; stlp_std::priv::_Impl_vector<CEventAPI::Deferred,xalloc<CEventAPI::Deferred> >::_M_clear
PUBLIC	??$xr_alloc@UDeferred@CEventAPI@@@@YAPAUDeferred@CEventAPI@@I@Z ; xr_alloc<CEventAPI::Deferred>
PUBLIC	?allocate@?$xalloc@UDeferred@CEventAPI@@@@QBEPAUDeferred@CEventAPI@@IPBX@Z ; xalloc<CEventAPI::Deferred>::allocate
PUBLIC	?allocate@?$_STLP_alloc_proxy@PAUDeferred@CEventAPI@@U12@V?$xalloc@UDeferred@CEventAPI@@@@@priv@stlp_std@@QAEPAUDeferred@CEventAPI@@I@Z ; stlp_std::priv::_STLP_alloc_proxy<CEventAPI::Deferred *,CEventAPI::Deferred,xalloc<CEventAPI::Deferred> >::allocate
PUBLIC	?allocate@?$_STLP_alloc_proxy@PAUDeferred@CEventAPI@@U12@V?$xalloc@UDeferred@CEventAPI@@@@@priv@stlp_std@@AAEPAUDeferred@CEventAPI@@IAAIABU__false_type@3@@Z ; stlp_std::priv::_STLP_alloc_proxy<CEventAPI::Deferred *,CEventAPI::Deferred,xalloc<CEventAPI::Deferred> >::allocate
PUBLIC	?allocate@?$_STLP_alloc_proxy@PAUDeferred@CEventAPI@@U12@V?$xalloc@UDeferred@CEventAPI@@@@@priv@stlp_std@@QAEPAUDeferred@CEventAPI@@IAAI@Z ; stlp_std::priv::_STLP_alloc_proxy<CEventAPI::Deferred *,CEventAPI::Deferred,xalloc<CEventAPI::Deferred> >::allocate
PUBLIC	?_Answer@?$_BothPtrType@PBUDeferred@CEventAPI@@PAU12@@stlp_std@@SA?AU__true_type@2@XZ ; stlp_std::_BothPtrType<CEventAPI::Deferred const *,CEventAPI::Deferred *>::_Answer
PUBLIC	??$_UseTrivialUCopy@UDeferred@CEventAPI@@U12@@stlp_std@@YA?AU?$_TrivialUCopy@UDeferred@CEventAPI@@U12@@0@PAUDeferred@CEventAPI@@0@Z ; stlp_std::_UseTrivialUCopy<CEventAPI::Deferred,CEventAPI::Deferred>
PUBLIC	?_Answer@?$_TrivialUCopy@UDeferred@CEventAPI@@U12@@stlp_std@@SA?AU__true_type@2@XZ ; stlp_std::_TrivialUCopy<CEventAPI::Deferred,CEventAPI::Deferred>::_Answer
PUBLIC	??$__ucopy_aux@PBUDeferred@CEventAPI@@PAU12@@priv@stlp_std@@YAPAUDeferred@CEventAPI@@PBU23@0PAU23@ABU__true_type@1@@Z ; stlp_std::priv::__ucopy_aux<CEventAPI::Deferred const *,CEventAPI::Deferred *>
PUBLIC	??$uninitialized_copy@PBUDeferred@CEventAPI@@PAU12@@stlp_std@@YAPAUDeferred@CEventAPI@@PBU12@0PAU12@@Z ; stlp_std::uninitialized_copy<CEventAPI::Deferred const *,CEventAPI::Deferred *>
PUBLIC	??$_M_allocate_and_copy@PBUDeferred@CEventAPI@@@?$_Impl_vector@UDeferred@CEventAPI@@V?$xalloc@UDeferred@CEventAPI@@@@@priv@stlp_std@@AAEPAUDeferred@CEventAPI@@AAIPBU34@1@Z ; stlp_std::priv::_Impl_vector<CEventAPI::Deferred,xalloc<CEventAPI::Deferred> >::_M_allocate_and_copy<CEventAPI::Deferred const *>
PUBLIC	??$__copy_ptrs@PBUDeferred@CEventAPI@@PAU12@@priv@stlp_std@@YAPAUDeferred@CEventAPI@@PBU23@0PAU23@ABU__true_type@1@@Z ; stlp_std::priv::__copy_ptrs<CEventAPI::Deferred const *,CEventAPI::Deferred *>
PUBLIC	??$__destroy_range_aux@PAUDeferred@CEventAPI@@U12@@stlp_std@@YAXPAUDeferred@CEventAPI@@00ABU__true_type@0@@Z ; stlp_std::__destroy_range_aux<CEventAPI::Deferred *,CEventAPI::Deferred>
PUBLIC	??$__destroy_range@PAUDeferred@CEventAPI@@U12@@stlp_std@@YAXPAUDeferred@CEventAPI@@00@Z ; stlp_std::__destroy_range<CEventAPI::Deferred *,CEventAPI::Deferred>
PUBLIC	??$_Destroy_Range@PAUDeferred@CEventAPI@@@stlp_std@@YAXPAUDeferred@CEventAPI@@0@Z ; stlp_std::_Destroy_Range<CEventAPI::Deferred *>
PUBLIC	??$__ucopy_ptrs@PBUDeferred@CEventAPI@@PAU12@@priv@stlp_std@@YAPAUDeferred@CEventAPI@@PBU23@0PAU23@ABU__true_type@1@@Z ; stlp_std::priv::__ucopy_ptrs<CEventAPI::Deferred const *,CEventAPI::Deferred *>
PUBLIC	??4?$_Impl_vector@UDeferred@CEventAPI@@V?$xalloc@UDeferred@CEventAPI@@@@@priv@stlp_std@@QAEAAV012@ABV012@@Z ; stlp_std::priv::_Impl_vector<CEventAPI::Deferred,xalloc<CEventAPI::Deferred> >::operator=
PUBLIC	??4?$vector@UDeferred@CEventAPI@@V?$xalloc@UDeferred@CEventAPI@@@@@stlp_std@@QAEAAV01@ABV01@@Z ; stlp_std::vector<CEventAPI::Deferred,xalloc<CEventAPI::Deferred> >::operator=
PUBLIC	??4?$xr_vector@UDeferred@CEventAPI@@V?$xalloc@UDeferred@CEventAPI@@@@@@QAEAAV0@ABV0@@Z ; xr_vector<CEventAPI::Deferred,xalloc<CEventAPI::Deferred> >::operator=
PUBLIC	?_set@shared_str@@QAEXPBD@Z			; shared_str::_set
PUBLIC	??0shared_str@@QAE@PBD@Z			; shared_str::shared_str
PUBLIC	??0IRenderDevice@@QAE@XZ			; IRenderDevice::IRenderDevice
PUBLIC	??_V@YAXPAX@Z					; operator delete[]
PUBLIC	??0?$CRegistrator@VpureRender@@@@QAE@XZ		; CRegistrator<pureRender>::CRegistrator<pureRender>
PUBLIC	??0?$CRegistrator@VpureAppActivate@@@@QAE@XZ	; CRegistrator<pureAppActivate>::CRegistrator<pureAppActivate>
PUBLIC	??0?$CRegistrator@VpureAppDeactivate@@@@QAE@XZ	; CRegistrator<pureAppDeactivate>::CRegistrator<pureAppDeactivate>
PUBLIC	??0?$CRegistrator@VpureAppStart@@@@QAE@XZ	; CRegistrator<pureAppStart>::CRegistrator<pureAppStart>
PUBLIC	??0?$CRegistrator@VpureAppEnd@@@@QAE@XZ		; CRegistrator<pureAppEnd>::CRegistrator<pureAppEnd>
PUBLIC	??0?$CRegistrator@VpureScreenResolutionChanged@@@@QAE@XZ ; CRegistrator<pureScreenResolutionChanged>::CRegistrator<pureScreenResolutionChanged>
PUBLIC	?front@?$_Impl_vector@UItem@CSheduler@@V?$xalloc@UItem@CSheduler@@@@@priv@stlp_std@@QAEAAUItem@CSheduler@@XZ ; stlp_std::priv::_Impl_vector<CSheduler::Item,xalloc<CSheduler::Item> >::front
PUBLIC	?to_value_type_ref@?$_CastTraits@UItem@CSheduler@@U12@@priv@stlp_std@@SAAAUItem@CSheduler@@AAU45@@Z ; stlp_std::priv::_CastTraits<CSheduler::Item,CSheduler::Item>::to_value_type_ref
PUBLIC	?front@?$vector@UItem@CSheduler@@V?$xalloc@UItem@CSheduler@@@@@stlp_std@@QAEAAUItem@CSheduler@@XZ ; stlp_std::vector<CSheduler::Item,xalloc<CSheduler::Item> >::front
PUBLIC	??0IRenderDevice@@QAE@ABV0@@Z			; IRenderDevice::IRenderDevice
PUBLIC	??0?$xalloc@UItem@CSheduler@@@@QAE@XZ		; xalloc<CSheduler::Item>::xalloc<CSheduler::Item>
PUBLIC	??0?$_Vector_base@UItem@CSheduler@@V?$xalloc@UItem@CSheduler@@@@@priv@stlp_std@@QAE@ABV?$xalloc@UItem@CSheduler@@@@@Z ; stlp_std::priv::_Vector_base<CSheduler::Item,xalloc<CSheduler::Item> >::_Vector_base<CSheduler::Item,xalloc<CSheduler::Item> >
PUBLIC	??0?$_Impl_vector@UItem@CSheduler@@V?$xalloc@UItem@CSheduler@@@@@priv@stlp_std@@QAE@ABV?$xalloc@UItem@CSheduler@@@@@Z ; stlp_std::priv::_Impl_vector<CSheduler::Item,xalloc<CSheduler::Item> >::_Impl_vector<CSheduler::Item,xalloc<CSheduler::Item> >
PUBLIC	??0?$vector@UItem@CSheduler@@V?$xalloc@UItem@CSheduler@@@@@stlp_std@@QAE@ABV?$xalloc@UItem@CSheduler@@@@@Z ; stlp_std::vector<CSheduler::Item,xalloc<CSheduler::Item> >::vector<CSheduler::Item,xalloc<CSheduler::Item> >
PUBLIC	??0?$xr_vector@UItem@CSheduler@@V?$xalloc@UItem@CSheduler@@@@@@QAE@XZ ; xr_vector<CSheduler::Item,xalloc<CSheduler::Item> >::xr_vector<CSheduler::Item,xalloc<CSheduler::Item> >
PUBLIC	??0?$xalloc@UItemReg@CSheduler@@@@QAE@XZ	; xalloc<CSheduler::ItemReg>::xalloc<CSheduler::ItemReg>
PUBLIC	??0?$_Vector_base@UItemReg@CSheduler@@V?$xalloc@UItemReg@CSheduler@@@@@priv@stlp_std@@QAE@ABV?$xalloc@UItemReg@CSheduler@@@@@Z ; stlp_std::priv::_Vector_base<CSheduler::ItemReg,xalloc<CSheduler::ItemReg> >::_Vector_base<CSheduler::ItemReg,xalloc<CSheduler::ItemReg> >
PUBLIC	??0?$_Impl_vector@UItemReg@CSheduler@@V?$xalloc@UItemReg@CSheduler@@@@@priv@stlp_std@@QAE@ABV?$xalloc@UItemReg@CSheduler@@@@@Z ; stlp_std::priv::_Impl_vector<CSheduler::ItemReg,xalloc<CSheduler::ItemReg> >::_Impl_vector<CSheduler::ItemReg,xalloc<CSheduler::ItemReg> >
PUBLIC	??0?$vector@UItemReg@CSheduler@@V?$xalloc@UItemReg@CSheduler@@@@@stlp_std@@QAE@ABV?$xalloc@UItemReg@CSheduler@@@@@Z ; stlp_std::vector<CSheduler::ItemReg,xalloc<CSheduler::ItemReg> >::vector<CSheduler::ItemReg,xalloc<CSheduler::ItemReg> >
PUBLIC	??0?$xr_vector@UItemReg@CSheduler@@V?$xalloc@UItemReg@CSheduler@@@@@@QAE@XZ ; xr_vector<CSheduler::ItemReg,xalloc<CSheduler::ItemReg> >::xr_vector<CSheduler::ItemReg,xalloc<CSheduler::ItemReg> >
PUBLIC	??1?$CRegistrator@VpureRender@@@@QAE@XZ		; CRegistrator<pureRender>::~CRegistrator<pureRender>
PUBLIC	??0?$CRegistrator@VpureRender@@@@QAE@ABV0@@Z	; CRegistrator<pureRender>::CRegistrator<pureRender>
PUBLIC	??1?$CRegistrator@VpureAppActivate@@@@QAE@XZ	; CRegistrator<pureAppActivate>::~CRegistrator<pureAppActivate>
PUBLIC	??0?$CRegistrator@VpureAppActivate@@@@QAE@ABV0@@Z ; CRegistrator<pureAppActivate>::CRegistrator<pureAppActivate>
PUBLIC	??1?$CRegistrator@VpureAppDeactivate@@@@QAE@XZ	; CRegistrator<pureAppDeactivate>::~CRegistrator<pureAppDeactivate>
PUBLIC	??0?$CRegistrator@VpureAppDeactivate@@@@QAE@ABV0@@Z ; CRegistrator<pureAppDeactivate>::CRegistrator<pureAppDeactivate>
PUBLIC	??1?$CRegistrator@VpureAppStart@@@@QAE@XZ	; CRegistrator<pureAppStart>::~CRegistrator<pureAppStart>
PUBLIC	??0?$CRegistrator@VpureAppStart@@@@QAE@ABV0@@Z	; CRegistrator<pureAppStart>::CRegistrator<pureAppStart>
PUBLIC	??1?$CRegistrator@VpureAppEnd@@@@QAE@XZ		; CRegistrator<pureAppEnd>::~CRegistrator<pureAppEnd>
PUBLIC	??0?$CRegistrator@VpureAppEnd@@@@QAE@ABV0@@Z	; CRegistrator<pureAppEnd>::CRegistrator<pureAppEnd>
PUBLIC	??0?$CRegistrator@VpureFrame@@@@QAE@ABV0@@Z	; CRegistrator<pureFrame>::CRegistrator<pureFrame>
PUBLIC	??1?$CRegistrator@VpureScreenResolutionChanged@@@@QAE@XZ ; CRegistrator<pureScreenResolutionChanged>::~CRegistrator<pureScreenResolutionChanged>
PUBLIC	??0?$_Vector_base@U_REG_INFO@@V?$xalloc@U_REG_INFO@@@@@priv@stlp_std@@QAE@IABV?$xalloc@U_REG_INFO@@@@@Z ; stlp_std::priv::_Vector_base<_REG_INFO,xalloc<_REG_INFO> >::_Vector_base<_REG_INFO,xalloc<_REG_INFO> >
PUBLIC	?get_allocator@?$_Impl_vector@U_REG_INFO@@V?$xalloc@U_REG_INFO@@@@@priv@stlp_std@@QBE?AV?$xalloc@U_REG_INFO@@@@XZ ; stlp_std::priv::_Impl_vector<_REG_INFO,xalloc<_REG_INFO> >::get_allocator
PUBLIC	?begin@?$_Impl_vector@U_REG_INFO@@V?$xalloc@U_REG_INFO@@@@@priv@stlp_std@@QBEPBU_REG_INFO@@XZ ; stlp_std::priv::_Impl_vector<_REG_INFO,xalloc<_REG_INFO> >::begin
PUBLIC	?end@?$_Impl_vector@U_REG_INFO@@V?$xalloc@U_REG_INFO@@@@@priv@stlp_std@@QBEPBU_REG_INFO@@XZ ; stlp_std::priv::_Impl_vector<_REG_INFO,xalloc<_REG_INFO> >::end
PUBLIC	??0?$_Impl_vector@U_REG_INFO@@V?$xalloc@U_REG_INFO@@@@@priv@stlp_std@@QAE@ABV012@@Z ; stlp_std::priv::_Impl_vector<_REG_INFO,xalloc<_REG_INFO> >::_Impl_vector<_REG_INFO,xalloc<_REG_INFO> >
PUBLIC	??0?$vector@U_REG_INFO@@V?$xalloc@U_REG_INFO@@@@@stlp_std@@QAE@ABV01@@Z ; stlp_std::vector<_REG_INFO,xalloc<_REG_INFO> >::vector<_REG_INFO,xalloc<_REG_INFO> >
PUBLIC	??0?$xr_vector@U_REG_INFO@@V?$xalloc@U_REG_INFO@@@@@@QAE@ABV0@@Z ; xr_vector<_REG_INFO,xalloc<_REG_INFO> >::xr_vector<_REG_INFO,xalloc<_REG_INFO> >
PUBLIC	??0?$CRegistrator@VpureScreenResolutionChanged@@@@QAE@ABV0@@Z ; CRegistrator<pureScreenResolutionChanged>::CRegistrator<pureScreenResolutionChanged>
PUBLIC	??4IRenderDevice@@QAEAAV0@ABV0@@Z		; IRenderDevice::operator=
PUBLIC	??4?$CRegistrator@VpureRender@@@@QAEAAV0@ABV0@@Z ; CRegistrator<pureRender>::operator=
PUBLIC	??4?$CRegistrator@VpureAppActivate@@@@QAEAAV0@ABV0@@Z ; CRegistrator<pureAppActivate>::operator=
PUBLIC	??4?$CRegistrator@VpureAppDeactivate@@@@QAEAAV0@ABV0@@Z ; CRegistrator<pureAppDeactivate>::operator=
PUBLIC	??4?$CRegistrator@VpureAppStart@@@@QAEAAV0@ABV0@@Z ; CRegistrator<pureAppStart>::operator=
PUBLIC	??4?$CRegistrator@VpureAppEnd@@@@QAEAAV0@ABV0@@Z ; CRegistrator<pureAppEnd>::operator=
PUBLIC	??4?$CRegistrator@VpureFrame@@@@QAEAAV0@ABV0@@Z	; CRegistrator<pureFrame>::operator=
PUBLIC	?size@?$_Impl_vector@U_REG_INFO@@V?$xalloc@U_REG_INFO@@@@@priv@stlp_std@@QBEIXZ ; stlp_std::priv::_Impl_vector<_REG_INFO,xalloc<_REG_INFO> >::size
PUBLIC	?capacity@?$_Impl_vector@U_REG_INFO@@V?$xalloc@U_REG_INFO@@@@@priv@stlp_std@@QBEIXZ ; stlp_std::priv::_Impl_vector<_REG_INFO,xalloc<_REG_INFO> >::capacity
PUBLIC	?_M_clear@?$_Impl_vector@U_REG_INFO@@V?$xalloc@U_REG_INFO@@@@@priv@stlp_std@@AAEXXZ ; stlp_std::priv::_Impl_vector<_REG_INFO,xalloc<_REG_INFO> >::_M_clear
PUBLIC	??$xr_alloc@U_REG_INFO@@@@YAPAU_REG_INFO@@I@Z	; xr_alloc<_REG_INFO>
PUBLIC	?allocate@?$xalloc@U_REG_INFO@@@@QBEPAU_REG_INFO@@IPBX@Z ; xalloc<_REG_INFO>::allocate
PUBLIC	?allocate@?$_STLP_alloc_proxy@PAU_REG_INFO@@U1@V?$xalloc@U_REG_INFO@@@@@priv@stlp_std@@QAEPAU_REG_INFO@@I@Z ; stlp_std::priv::_STLP_alloc_proxy<_REG_INFO *,_REG_INFO,xalloc<_REG_INFO> >::allocate
PUBLIC	?allocate@?$_STLP_alloc_proxy@PAU_REG_INFO@@U1@V?$xalloc@U_REG_INFO@@@@@priv@stlp_std@@AAEPAU_REG_INFO@@IAAIABU__false_type@3@@Z ; stlp_std::priv::_STLP_alloc_proxy<_REG_INFO *,_REG_INFO,xalloc<_REG_INFO> >::allocate
PUBLIC	?allocate@?$_STLP_alloc_proxy@PAU_REG_INFO@@U1@V?$xalloc@U_REG_INFO@@@@@priv@stlp_std@@QAEPAU_REG_INFO@@IAAI@Z ; stlp_std::priv::_STLP_alloc_proxy<_REG_INFO *,_REG_INFO,xalloc<_REG_INFO> >::allocate
PUBLIC	?_Answer@?$_BothPtrType@PBU_REG_INFO@@PAU1@@stlp_std@@SA?AU__true_type@2@XZ ; stlp_std::_BothPtrType<_REG_INFO const *,_REG_INFO *>::_Answer
PUBLIC	??$__ucopy_ptrs@PBU_REG_INFO@@PAU1@@priv@stlp_std@@YAPAU_REG_INFO@@PBU2@0PAU2@ABU__true_type@1@@Z ; stlp_std::priv::__ucopy_ptrs<_REG_INFO const *,_REG_INFO *>
PUBLIC	??$_UseTrivialUCopy@U_REG_INFO@@U1@@stlp_std@@YA?AU?$_TrivialUCopy@U_REG_INFO@@U1@@0@PAU_REG_INFO@@0@Z ; stlp_std::_UseTrivialUCopy<_REG_INFO,_REG_INFO>
PUBLIC	?_Answer@?$_TrivialUCopy@U_REG_INFO@@U1@@stlp_std@@SA?AU__true_type@2@XZ ; stlp_std::_TrivialUCopy<_REG_INFO,_REG_INFO>::_Answer
PUBLIC	??$__ucopy_aux@PBU_REG_INFO@@PAU1@@priv@stlp_std@@YAPAU_REG_INFO@@PBU2@0PAU2@ABU__true_type@1@@Z ; stlp_std::priv::__ucopy_aux<_REG_INFO const *,_REG_INFO *>
PUBLIC	??$uninitialized_copy@PBU_REG_INFO@@PAU1@@stlp_std@@YAPAU_REG_INFO@@PBU1@0PAU1@@Z ; stlp_std::uninitialized_copy<_REG_INFO const *,_REG_INFO *>
PUBLIC	??$_M_allocate_and_copy@PBU_REG_INFO@@@?$_Impl_vector@U_REG_INFO@@V?$xalloc@U_REG_INFO@@@@@priv@stlp_std@@AAEPAU_REG_INFO@@AAIPBU3@1@Z ; stlp_std::priv::_Impl_vector<_REG_INFO,xalloc<_REG_INFO> >::_M_allocate_and_copy<_REG_INFO const *>
PUBLIC	??$__copy_ptrs@PBU_REG_INFO@@PAU1@@priv@stlp_std@@YAPAU_REG_INFO@@PBU2@0PAU2@ABU__true_type@1@@Z ; stlp_std::priv::__copy_ptrs<_REG_INFO const *,_REG_INFO *>
PUBLIC	??$__destroy_range_aux@PAU_REG_INFO@@U1@@stlp_std@@YAXPAU_REG_INFO@@00ABU__true_type@0@@Z ; stlp_std::__destroy_range_aux<_REG_INFO *,_REG_INFO>
PUBLIC	??$__destroy_range@PAU_REG_INFO@@U1@@stlp_std@@YAXPAU_REG_INFO@@00@Z ; stlp_std::__destroy_range<_REG_INFO *,_REG_INFO>
PUBLIC	??$_Destroy_Range@PAU_REG_INFO@@@stlp_std@@YAXPAU_REG_INFO@@0@Z ; stlp_std::_Destroy_Range<_REG_INFO *>
PUBLIC	??4?$_Impl_vector@U_REG_INFO@@V?$xalloc@U_REG_INFO@@@@@priv@stlp_std@@QAEAAV012@ABV012@@Z ; stlp_std::priv::_Impl_vector<_REG_INFO,xalloc<_REG_INFO> >::operator=
PUBLIC	??4?$vector@U_REG_INFO@@V?$xalloc@U_REG_INFO@@@@@stlp_std@@QAEAAV01@ABV01@@Z ; stlp_std::vector<_REG_INFO,xalloc<_REG_INFO> >::operator=
PUBLIC	??4?$xr_vector@U_REG_INFO@@V?$xalloc@U_REG_INFO@@@@@@QAEAAV0@ABV0@@Z ; xr_vector<_REG_INFO,xalloc<_REG_INFO> >::operator=
PUBLIC	??4?$CRegistrator@VpureScreenResolutionChanged@@@@QAEAAV0@ABV0@@Z ; CRegistrator<pureScreenResolutionChanged>::operator=
PUBLIC	??1?$xr_vector@UItem@CSheduler@@V?$xalloc@UItem@CSheduler@@@@@@QAE@XZ ; xr_vector<CSheduler::Item,xalloc<CSheduler::Item> >::~xr_vector<CSheduler::Item,xalloc<CSheduler::Item> >
PUBLIC	??0?$_STLP_alloc_proxy@PAUItem@CSheduler@@U12@V?$xalloc@UItem@CSheduler@@@@@priv@stlp_std@@QAE@ABV?$xalloc@UItem@CSheduler@@@@PAUItem@CSheduler@@@Z ; stlp_std::priv::_STLP_alloc_proxy<CSheduler::Item *,CSheduler::Item,xalloc<CSheduler::Item> >::_STLP_alloc_proxy<CSheduler::Item *,CSheduler::Item,xalloc<CSheduler::Item> >
PUBLIC	??0?$_Vector_base@UItem@CSheduler@@V?$xalloc@UItem@CSheduler@@@@@priv@stlp_std@@QAE@IABV?$xalloc@UItem@CSheduler@@@@@Z ; stlp_std::priv::_Vector_base<CSheduler::Item,xalloc<CSheduler::Item> >::_Vector_base<CSheduler::Item,xalloc<CSheduler::Item> >
PUBLIC	??0?$xalloc@UItem@CSheduler@@@@QAE@ABV0@@Z	; xalloc<CSheduler::Item>::xalloc<CSheduler::Item>
PUBLIC	?get_allocator@?$_Impl_vector@UItem@CSheduler@@V?$xalloc@UItem@CSheduler@@@@@priv@stlp_std@@QBE?AV?$xalloc@UItem@CSheduler@@@@XZ ; stlp_std::priv::_Impl_vector<CSheduler::Item,xalloc<CSheduler::Item> >::get_allocator
PUBLIC	?begin@?$_Impl_vector@UItem@CSheduler@@V?$xalloc@UItem@CSheduler@@@@@priv@stlp_std@@QBEPBUItem@CSheduler@@XZ ; stlp_std::priv::_Impl_vector<CSheduler::Item,xalloc<CSheduler::Item> >::begin
PUBLIC	?end@?$_Impl_vector@UItem@CSheduler@@V?$xalloc@UItem@CSheduler@@@@@priv@stlp_std@@QBEPBUItem@CSheduler@@XZ ; stlp_std::priv::_Impl_vector<CSheduler::Item,xalloc<CSheduler::Item> >::end
PUBLIC	??0?$_Impl_vector@UItem@CSheduler@@V?$xalloc@UItem@CSheduler@@@@@priv@stlp_std@@QAE@ABV012@@Z ; stlp_std::priv::_Impl_vector<CSheduler::Item,xalloc<CSheduler::Item> >::_Impl_vector<CSheduler::Item,xalloc<CSheduler::Item> >
PUBLIC	??0?$vector@UItem@CSheduler@@V?$xalloc@UItem@CSheduler@@@@@stlp_std@@QAE@ABV01@@Z ; stlp_std::vector<CSheduler::Item,xalloc<CSheduler::Item> >::vector<CSheduler::Item,xalloc<CSheduler::Item> >
PUBLIC	??1?$_Vector_base@UItem@CSheduler@@V?$xalloc@UItem@CSheduler@@@@@priv@stlp_std@@QAE@XZ ; stlp_std::priv::_Vector_base<CSheduler::Item,xalloc<CSheduler::Item> >::~_Vector_base<CSheduler::Item,xalloc<CSheduler::Item> >
PUBLIC	??1?$_Impl_vector@UItem@CSheduler@@V?$xalloc@UItem@CSheduler@@@@@priv@stlp_std@@QAE@XZ ; stlp_std::priv::_Impl_vector<CSheduler::Item,xalloc<CSheduler::Item> >::~_Impl_vector<CSheduler::Item,xalloc<CSheduler::Item> >
PUBLIC	??1?$vector@UItem@CSheduler@@V?$xalloc@UItem@CSheduler@@@@@stlp_std@@QAE@XZ ; stlp_std::vector<CSheduler::Item,xalloc<CSheduler::Item> >::~vector<CSheduler::Item,xalloc<CSheduler::Item> >
PUBLIC	??0?$xr_vector@UItem@CSheduler@@V?$xalloc@UItem@CSheduler@@@@@@QAE@ABV0@@Z ; xr_vector<CSheduler::Item,xalloc<CSheduler::Item> >::xr_vector<CSheduler::Item,xalloc<CSheduler::Item> >
PUBLIC	??1?$xr_vector@UItemReg@CSheduler@@V?$xalloc@UItemReg@CSheduler@@@@@@QAE@XZ ; xr_vector<CSheduler::ItemReg,xalloc<CSheduler::ItemReg> >::~xr_vector<CSheduler::ItemReg,xalloc<CSheduler::ItemReg> >
PUBLIC	??0?$_STLP_alloc_proxy@PAUItemReg@CSheduler@@U12@V?$xalloc@UItemReg@CSheduler@@@@@priv@stlp_std@@QAE@ABV?$xalloc@UItemReg@CSheduler@@@@PAUItemReg@CSheduler@@@Z ; stlp_std::priv::_STLP_alloc_proxy<CSheduler::ItemReg *,CSheduler::ItemReg,xalloc<CSheduler::ItemReg> >::_STLP_alloc_proxy<CSheduler::ItemReg *,CSheduler::ItemReg,xalloc<CSheduler::ItemReg> >
PUBLIC	??0?$_Vector_base@UItemReg@CSheduler@@V?$xalloc@UItemReg@CSheduler@@@@@priv@stlp_std@@QAE@IABV?$xalloc@UItemReg@CSheduler@@@@@Z ; stlp_std::priv::_Vector_base<CSheduler::ItemReg,xalloc<CSheduler::ItemReg> >::_Vector_base<CSheduler::ItemReg,xalloc<CSheduler::ItemReg> >
PUBLIC	??0?$xalloc@UItemReg@CSheduler@@@@QAE@ABV0@@Z	; xalloc<CSheduler::ItemReg>::xalloc<CSheduler::ItemReg>
PUBLIC	?get_allocator@?$_Impl_vector@UItemReg@CSheduler@@V?$xalloc@UItemReg@CSheduler@@@@@priv@stlp_std@@QBE?AV?$xalloc@UItemReg@CSheduler@@@@XZ ; stlp_std::priv::_Impl_vector<CSheduler::ItemReg,xalloc<CSheduler::ItemReg> >::get_allocator
PUBLIC	?begin@?$_Impl_vector@UItemReg@CSheduler@@V?$xalloc@UItemReg@CSheduler@@@@@priv@stlp_std@@QBEPBUItemReg@CSheduler@@XZ ; stlp_std::priv::_Impl_vector<CSheduler::ItemReg,xalloc<CSheduler::ItemReg> >::begin
PUBLIC	?end@?$_Impl_vector@UItemReg@CSheduler@@V?$xalloc@UItemReg@CSheduler@@@@@priv@stlp_std@@QBEPBUItemReg@CSheduler@@XZ ; stlp_std::priv::_Impl_vector<CSheduler::ItemReg,xalloc<CSheduler::ItemReg> >::end
PUBLIC	??0?$_Impl_vector@UItemReg@CSheduler@@V?$xalloc@UItemReg@CSheduler@@@@@priv@stlp_std@@QAE@ABV012@@Z ; stlp_std::priv::_Impl_vector<CSheduler::ItemReg,xalloc<CSheduler::ItemReg> >::_Impl_vector<CSheduler::ItemReg,xalloc<CSheduler::ItemReg> >
PUBLIC	??0?$vector@UItemReg@CSheduler@@V?$xalloc@UItemReg@CSheduler@@@@@stlp_std@@QAE@ABV01@@Z ; stlp_std::vector<CSheduler::ItemReg,xalloc<CSheduler::ItemReg> >::vector<CSheduler::ItemReg,xalloc<CSheduler::ItemReg> >
PUBLIC	??1?$_Vector_base@UItemReg@CSheduler@@V?$xalloc@UItemReg@CSheduler@@@@@priv@stlp_std@@QAE@XZ ; stlp_std::priv::_Vector_base<CSheduler::ItemReg,xalloc<CSheduler::ItemReg> >::~_Vector_base<CSheduler::ItemReg,xalloc<CSheduler::ItemReg> >
PUBLIC	??1?$_Impl_vector@UItemReg@CSheduler@@V?$xalloc@UItemReg@CSheduler@@@@@priv@stlp_std@@QAE@XZ ; stlp_std::priv::_Impl_vector<CSheduler::ItemReg,xalloc<CSheduler::ItemReg> >::~_Impl_vector<CSheduler::ItemReg,xalloc<CSheduler::ItemReg> >
PUBLIC	??1?$vector@UItemReg@CSheduler@@V?$xalloc@UItemReg@CSheduler@@@@@stlp_std@@QAE@XZ ; stlp_std::vector<CSheduler::ItemReg,xalloc<CSheduler::ItemReg> >::~vector<CSheduler::ItemReg,xalloc<CSheduler::ItemReg> >
PUBLIC	??0?$xr_vector@UItemReg@CSheduler@@V?$xalloc@UItemReg@CSheduler@@@@@@QAE@ABV0@@Z ; xr_vector<CSheduler::ItemReg,xalloc<CSheduler::ItemReg> >::xr_vector<CSheduler::ItemReg,xalloc<CSheduler::ItemReg> >
PUBLIC	?size@?$_Impl_vector@UItem@CSheduler@@V?$xalloc@UItem@CSheduler@@@@@priv@stlp_std@@QBEIXZ ; stlp_std::priv::_Impl_vector<CSheduler::Item,xalloc<CSheduler::Item> >::size
PUBLIC	?capacity@?$_Impl_vector@UItem@CSheduler@@V?$xalloc@UItem@CSheduler@@@@@priv@stlp_std@@QBEIXZ ; stlp_std::priv::_Impl_vector<CSheduler::Item,xalloc<CSheduler::Item> >::capacity
PUBLIC	??$xr_free@UItem@CSheduler@@@@YAXAAPAUItem@CSheduler@@@Z ; xr_free<CSheduler::Item>
PUBLIC	?deallocate@?$xalloc@UItem@CSheduler@@@@QBEXPAUItem@CSheduler@@I@Z ; xalloc<CSheduler::Item>::deallocate
PUBLIC	?end@?$_Impl_vector@UItem@CSheduler@@V?$xalloc@UItem@CSheduler@@@@@priv@stlp_std@@QAEPAUItem@CSheduler@@XZ ; stlp_std::priv::_Impl_vector<CSheduler::Item,xalloc<CSheduler::Item> >::end
PUBLIC	?rbegin@?$_Impl_vector@UItem@CSheduler@@V?$xalloc@UItem@CSheduler@@@@@priv@stlp_std@@QAE?AV?$reverse_iterator@PAUItem@CSheduler@@@3@XZ ; stlp_std::priv::_Impl_vector<CSheduler::Item,xalloc<CSheduler::Item> >::rbegin
PUBLIC	?begin@?$_Impl_vector@UItem@CSheduler@@V?$xalloc@UItem@CSheduler@@@@@priv@stlp_std@@QAEPAUItem@CSheduler@@XZ ; stlp_std::priv::_Impl_vector<CSheduler::Item,xalloc<CSheduler::Item> >::begin
PUBLIC	??0?$reverse_iterator@PAUItem@CSheduler@@@stlp_std@@QAE@PAUItem@CSheduler@@@Z ; stlp_std::reverse_iterator<CSheduler::Item *>::reverse_iterator<CSheduler::Item *>
PUBLIC	?rend@?$_Impl_vector@UItem@CSheduler@@V?$xalloc@UItem@CSheduler@@@@@priv@stlp_std@@QAE?AV?$reverse_iterator@PAUItem@CSheduler@@@3@XZ ; stlp_std::priv::_Impl_vector<CSheduler::Item,xalloc<CSheduler::Item> >::rend
PUBLIC	??0?$reverse_iterator@PAUItem@CSheduler@@@stlp_std@@QAE@ABV01@@Z ; stlp_std::reverse_iterator<CSheduler::Item *>::reverse_iterator<CSheduler::Item *>
PUBLIC	??D?$reverse_iterator@PAUItem@CSheduler@@@stlp_std@@QBEAAUItem@CSheduler@@XZ ; stlp_std::reverse_iterator<CSheduler::Item *>::operator*
PUBLIC	??E?$reverse_iterator@PAUItem@CSheduler@@@stlp_std@@QAEAAV01@XZ ; stlp_std::reverse_iterator<CSheduler::Item *>::operator++
PUBLIC	?base@?$reverse_iterator@PAUItem@CSheduler@@@stlp_std@@QBEPAUItem@CSheduler@@XZ ; stlp_std::reverse_iterator<CSheduler::Item *>::base
PUBLIC	??$?8PAUItem@CSheduler@@@stlp_std@@YA_NABV?$reverse_iterator@PAUItem@CSheduler@@@0@0@Z ; stlp_std::operator==<CSheduler::Item *>
PUBLIC	??$?9PAUItem@CSheduler@@@stlp_std@@YA_NABV?$reverse_iterator@PAUItem@CSheduler@@@0@0@Z ; stlp_std::operator!=<CSheduler::Item *>
PUBLIC	??$__destroy_range_aux@V?$reverse_iterator@PAUItem@CSheduler@@@stlp_std@@UItem@CSheduler@@@stlp_std@@YAXV?$reverse_iterator@PAUItem@CSheduler@@@0@0PAUItem@CSheduler@@ABU__false_type@0@@Z ; stlp_std::__destroy_range_aux<stlp_std::reverse_iterator<CSheduler::Item *>,CSheduler::Item>
PUBLIC	??$__destroy_range@V?$reverse_iterator@PAUItem@CSheduler@@@stlp_std@@UItem@CSheduler@@@stlp_std@@YAXV?$reverse_iterator@PAUItem@CSheduler@@@0@0PAUItem@CSheduler@@@Z ; stlp_std::__destroy_range<stlp_std::reverse_iterator<CSheduler::Item *>,CSheduler::Item>
PUBLIC	??$_Destroy_Range@V?$reverse_iterator@PAUItem@CSheduler@@@stlp_std@@@stlp_std@@YAXV?$reverse_iterator@PAUItem@CSheduler@@@0@0@Z ; stlp_std::_Destroy_Range<stlp_std::reverse_iterator<CSheduler::Item *> >
PUBLIC	?_M_clear@?$_Impl_vector@UItem@CSheduler@@V?$xalloc@UItem@CSheduler@@@@@priv@stlp_std@@AAEXXZ ; stlp_std::priv::_Impl_vector<CSheduler::Item,xalloc<CSheduler::Item> >::_M_clear
PUBLIC	??$xr_alloc@UItem@CSheduler@@@@YAPAUItem@CSheduler@@I@Z ; xr_alloc<CSheduler::Item>
PUBLIC	?allocate@?$xalloc@UItem@CSheduler@@@@QBEPAUItem@CSheduler@@IPBX@Z ; xalloc<CSheduler::Item>::allocate
PUBLIC	?allocate@?$_STLP_alloc_proxy@PAUItem@CSheduler@@U12@V?$xalloc@UItem@CSheduler@@@@@priv@stlp_std@@QAEPAUItem@CSheduler@@I@Z ; stlp_std::priv::_STLP_alloc_proxy<CSheduler::Item *,CSheduler::Item,xalloc<CSheduler::Item> >::allocate
PUBLIC	?allocate@?$_STLP_alloc_proxy@PAUItem@CSheduler@@U12@V?$xalloc@UItem@CSheduler@@@@@priv@stlp_std@@AAEPAUItem@CSheduler@@IAAIABU__false_type@3@@Z ; stlp_std::priv::_STLP_alloc_proxy<CSheduler::Item *,CSheduler::Item,xalloc<CSheduler::Item> >::allocate
PUBLIC	?allocate@?$_STLP_alloc_proxy@PAUItem@CSheduler@@U12@V?$xalloc@UItem@CSheduler@@@@@priv@stlp_std@@QAEPAUItem@CSheduler@@IAAI@Z ; stlp_std::priv::_STLP_alloc_proxy<CSheduler::Item *,CSheduler::Item,xalloc<CSheduler::Item> >::allocate
PUBLIC	?_Answer@?$_BothPtrType@PBUItem@CSheduler@@PAU12@@stlp_std@@SA?AU__true_type@2@XZ ; stlp_std::_BothPtrType<CSheduler::Item const *,CSheduler::Item *>::_Answer
PUBLIC	??2@YAPAXIPAX@Z					; operator new
PUBLIC	??0shared_str@@QAE@ABV0@@Z			; shared_str::shared_str
PUBLIC	??0Item@CSheduler@@QAE@ABU01@@Z			; CSheduler::Item::Item
PUBLIC	??$_Param_Construct@UItem@CSheduler@@U12@@stlp_std@@YAXPAUItem@CSheduler@@ABU12@@Z ; stlp_std::_Param_Construct<CSheduler::Item,CSheduler::Item>
PUBLIC	??$__ucopy@PBUItem@CSheduler@@PAU12@H@priv@stlp_std@@YAPAUItem@CSheduler@@PBU23@0PAU23@ABUrandom_access_iterator_tag@1@PAH@Z ; stlp_std::priv::__ucopy<CSheduler::Item const *,CSheduler::Item *,int>
PUBLIC	??$__ucopy_ptrs@PBUItem@CSheduler@@PAU12@@priv@stlp_std@@YAPAUItem@CSheduler@@PBU23@0PAU23@ABU__false_type@1@@Z ; stlp_std::priv::__ucopy_ptrs<CSheduler::Item const *,CSheduler::Item *>
PUBLIC	??$_UseTrivialUCopy@UItem@CSheduler@@U12@@stlp_std@@YA?AU?$_TrivialUCopy@UItem@CSheduler@@U12@@0@PAUItem@CSheduler@@0@Z ; stlp_std::_UseTrivialUCopy<CSheduler::Item,CSheduler::Item>
PUBLIC	?_Answer@?$_TrivialUCopy@UItem@CSheduler@@U12@@stlp_std@@SA?AU__false_type@2@XZ ; stlp_std::_TrivialUCopy<CSheduler::Item,CSheduler::Item>::_Answer
PUBLIC	??$__ucopy_aux@PBUItem@CSheduler@@PAU12@@priv@stlp_std@@YAPAUItem@CSheduler@@PBU23@0PAU23@ABU__true_type@1@@Z ; stlp_std::priv::__ucopy_aux<CSheduler::Item const *,CSheduler::Item *>
PUBLIC	??$uninitialized_copy@PBUItem@CSheduler@@PAU12@@stlp_std@@YAPAUItem@CSheduler@@PBU12@0PAU12@@Z ; stlp_std::uninitialized_copy<CSheduler::Item const *,CSheduler::Item *>
PUBLIC	??$_M_allocate_and_copy@PBUItem@CSheduler@@@?$_Impl_vector@UItem@CSheduler@@V?$xalloc@UItem@CSheduler@@@@@priv@stlp_std@@AAEPAUItem@CSheduler@@AAIPBU34@1@Z ; stlp_std::priv::_Impl_vector<CSheduler::Item,xalloc<CSheduler::Item> >::_M_allocate_and_copy<CSheduler::Item const *>
PUBLIC	?_set@shared_str@@QAEXABV1@@Z			; shared_str::_set
PUBLIC	??4shared_str@@QAEAAV0@ABV0@@Z			; shared_str::operator=
PUBLIC	??4Item@CSheduler@@QAEAAU01@ABU01@@Z		; CSheduler::Item::operator=
PUBLIC	??$__copy@PBUItem@CSheduler@@PAU12@H@priv@stlp_std@@YAPAUItem@CSheduler@@PBU23@0PAU23@ABUrandom_access_iterator_tag@1@PAH@Z ; stlp_std::priv::__copy<CSheduler::Item const *,CSheduler::Item *,int>
PUBLIC	??$__copy_ptrs@PBUItem@CSheduler@@PAU12@@priv@stlp_std@@YAPAUItem@CSheduler@@PBU23@0PAU23@ABU__false_type@1@@Z ; stlp_std::priv::__copy_ptrs<CSheduler::Item const *,CSheduler::Item *>
PUBLIC	?_dec@shared_str@@IAEXXZ			; shared_str::_dec
PUBLIC	??1shared_str@@QAE@XZ				; shared_str::~shared_str
PUBLIC	??1Item@CSheduler@@QAE@XZ			; CSheduler::Item::~Item
PUBLIC	??_GItem@CSheduler@@QAEPAXI@Z			; CSheduler::Item::`scalar deleting destructor'
PUBLIC	??$__destroy_aux@UItem@CSheduler@@@stlp_std@@YAXPAUItem@CSheduler@@ABU__false_type@0@@Z ; stlp_std::__destroy_aux<CSheduler::Item>
PUBLIC	??$__destroy_range_aux@PAUItem@CSheduler@@U12@@stlp_std@@YAXPAUItem@CSheduler@@00ABU__false_type@0@@Z ; stlp_std::__destroy_range_aux<CSheduler::Item *,CSheduler::Item>
PUBLIC	??$__destroy_range@PAUItem@CSheduler@@U12@@stlp_std@@YAXPAUItem@CSheduler@@00@Z ; stlp_std::__destroy_range<CSheduler::Item *,CSheduler::Item>
PUBLIC	??$_Destroy_Range@PAUItem@CSheduler@@@stlp_std@@YAXPAUItem@CSheduler@@0@Z ; stlp_std::_Destroy_Range<CSheduler::Item *>
PUBLIC	??4?$_Impl_vector@UItem@CSheduler@@V?$xalloc@UItem@CSheduler@@@@@priv@stlp_std@@QAEAAV012@ABV012@@Z ; stlp_std::priv::_Impl_vector<CSheduler::Item,xalloc<CSheduler::Item> >::operator=
PUBLIC	??4?$vector@UItem@CSheduler@@V?$xalloc@UItem@CSheduler@@@@@stlp_std@@QAEAAV01@ABV01@@Z ; stlp_std::vector<CSheduler::Item,xalloc<CSheduler::Item> >::operator=
PUBLIC	??4?$xr_vector@UItem@CSheduler@@V?$xalloc@UItem@CSheduler@@@@@@QAEAAV0@ABV0@@Z ; xr_vector<CSheduler::Item,xalloc<CSheduler::Item> >::operator=
PUBLIC	?size@?$_Impl_vector@UItemReg@CSheduler@@V?$xalloc@UItemReg@CSheduler@@@@@priv@stlp_std@@QBEIXZ ; stlp_std::priv::_Impl_vector<CSheduler::ItemReg,xalloc<CSheduler::ItemReg> >::size
PUBLIC	?capacity@?$_Impl_vector@UItemReg@CSheduler@@V?$xalloc@UItemReg@CSheduler@@@@@priv@stlp_std@@QBEIXZ ; stlp_std::priv::_Impl_vector<CSheduler::ItemReg,xalloc<CSheduler::ItemReg> >::capacity
PUBLIC	??$xr_free@UItemReg@CSheduler@@@@YAXAAPAUItemReg@CSheduler@@@Z ; xr_free<CSheduler::ItemReg>
PUBLIC	?deallocate@?$xalloc@UItemReg@CSheduler@@@@QBEXPAUItemReg@CSheduler@@I@Z ; xalloc<CSheduler::ItemReg>::deallocate
PUBLIC	?end@?$_Impl_vector@UItemReg@CSheduler@@V?$xalloc@UItemReg@CSheduler@@@@@priv@stlp_std@@QAEPAUItemReg@CSheduler@@XZ ; stlp_std::priv::_Impl_vector<CSheduler::ItemReg,xalloc<CSheduler::ItemReg> >::end
PUBLIC	?rbegin@?$_Impl_vector@UItemReg@CSheduler@@V?$xalloc@UItemReg@CSheduler@@@@@priv@stlp_std@@QAE?AV?$reverse_iterator@PAUItemReg@CSheduler@@@3@XZ ; stlp_std::priv::_Impl_vector<CSheduler::ItemReg,xalloc<CSheduler::ItemReg> >::rbegin
PUBLIC	?begin@?$_Impl_vector@UItemReg@CSheduler@@V?$xalloc@UItemReg@CSheduler@@@@@priv@stlp_std@@QAEPAUItemReg@CSheduler@@XZ ; stlp_std::priv::_Impl_vector<CSheduler::ItemReg,xalloc<CSheduler::ItemReg> >::begin
PUBLIC	??0?$reverse_iterator@PAUItemReg@CSheduler@@@stlp_std@@QAE@PAUItemReg@CSheduler@@@Z ; stlp_std::reverse_iterator<CSheduler::ItemReg *>::reverse_iterator<CSheduler::ItemReg *>
PUBLIC	?rend@?$_Impl_vector@UItemReg@CSheduler@@V?$xalloc@UItemReg@CSheduler@@@@@priv@stlp_std@@QAE?AV?$reverse_iterator@PAUItemReg@CSheduler@@@3@XZ ; stlp_std::priv::_Impl_vector<CSheduler::ItemReg,xalloc<CSheduler::ItemReg> >::rend
PUBLIC	??0?$reverse_iterator@PAUItemReg@CSheduler@@@stlp_std@@QAE@ABV01@@Z ; stlp_std::reverse_iterator<CSheduler::ItemReg *>::reverse_iterator<CSheduler::ItemReg *>
PUBLIC	??$__destroy_range_aux@V?$reverse_iterator@PAUItemReg@CSheduler@@@stlp_std@@UItemReg@CSheduler@@@stlp_std@@YAXV?$reverse_iterator@PAUItemReg@CSheduler@@@0@0PAUItemReg@CSheduler@@ABU__true_type@0@@Z ; stlp_std::__destroy_range_aux<stlp_std::reverse_iterator<CSheduler::ItemReg *>,CSheduler::ItemReg>
PUBLIC	??$__destroy_range@V?$reverse_iterator@PAUItemReg@CSheduler@@@stlp_std@@UItemReg@CSheduler@@@stlp_std@@YAXV?$reverse_iterator@PAUItemReg@CSheduler@@@0@0PAUItemReg@CSheduler@@@Z ; stlp_std::__destroy_range<stlp_std::reverse_iterator<CSheduler::ItemReg *>,CSheduler::ItemReg>
PUBLIC	??$_Destroy_Range@V?$reverse_iterator@PAUItemReg@CSheduler@@@stlp_std@@@stlp_std@@YAXV?$reverse_iterator@PAUItemReg@CSheduler@@@0@0@Z ; stlp_std::_Destroy_Range<stlp_std::reverse_iterator<CSheduler::ItemReg *> >
PUBLIC	?_M_clear@?$_Impl_vector@UItemReg@CSheduler@@V?$xalloc@UItemReg@CSheduler@@@@@priv@stlp_std@@AAEXXZ ; stlp_std::priv::_Impl_vector<CSheduler::ItemReg,xalloc<CSheduler::ItemReg> >::_M_clear
PUBLIC	??$xr_alloc@UItemReg@CSheduler@@@@YAPAUItemReg@CSheduler@@I@Z ; xr_alloc<CSheduler::ItemReg>
PUBLIC	?allocate@?$xalloc@UItemReg@CSheduler@@@@QBEPAUItemReg@CSheduler@@IPBX@Z ; xalloc<CSheduler::ItemReg>::allocate
PUBLIC	?allocate@?$_STLP_alloc_proxy@PAUItemReg@CSheduler@@U12@V?$xalloc@UItemReg@CSheduler@@@@@priv@stlp_std@@QAEPAUItemReg@CSheduler@@I@Z ; stlp_std::priv::_STLP_alloc_proxy<CSheduler::ItemReg *,CSheduler::ItemReg,xalloc<CSheduler::ItemReg> >::allocate
PUBLIC	?allocate@?$_STLP_alloc_proxy@PAUItemReg@CSheduler@@U12@V?$xalloc@UItemReg@CSheduler@@@@@priv@stlp_std@@AAEPAUItemReg@CSheduler@@IAAIABU__false_type@3@@Z ; stlp_std::priv::_STLP_alloc_proxy<CSheduler::ItemReg *,CSheduler::ItemReg,xalloc<CSheduler::ItemReg> >::allocate
PUBLIC	?allocate@?$_STLP_alloc_proxy@PAUItemReg@CSheduler@@U12@V?$xalloc@UItemReg@CSheduler@@@@@priv@stlp_std@@QAEPAUItemReg@CSheduler@@IAAI@Z ; stlp_std::priv::_STLP_alloc_proxy<CSheduler::ItemReg *,CSheduler::ItemReg,xalloc<CSheduler::ItemReg> >::allocate
PUBLIC	?_Answer@?$_BothPtrType@PBUItemReg@CSheduler@@PAU12@@stlp_std@@SA?AU__true_type@2@XZ ; stlp_std::_BothPtrType<CSheduler::ItemReg const *,CSheduler::ItemReg *>::_Answer
PUBLIC	?__ucopy_trivial@priv@stlp_std@@YAPAXPBX0PAX@Z	; stlp_std::priv::__ucopy_trivial
PUBLIC	??$__ucopy_ptrs@PBUItemReg@CSheduler@@PAU12@@priv@stlp_std@@YAPAUItemReg@CSheduler@@PBU23@0PAU23@ABU__true_type@1@@Z ; stlp_std::priv::__ucopy_ptrs<CSheduler::ItemReg const *,CSheduler::ItemReg *>
PUBLIC	??$_UseTrivialUCopy@UItemReg@CSheduler@@U12@@stlp_std@@YA?AU?$_TrivialUCopy@UItemReg@CSheduler@@U12@@0@PAUItemReg@CSheduler@@0@Z ; stlp_std::_UseTrivialUCopy<CSheduler::ItemReg,CSheduler::ItemReg>
PUBLIC	?_Answer@?$_TrivialUCopy@UItemReg@CSheduler@@U12@@stlp_std@@SA?AU__true_type@2@XZ ; stlp_std::_TrivialUCopy<CSheduler::ItemReg,CSheduler::ItemReg>::_Answer
PUBLIC	??$__ucopy_aux@PBUItemReg@CSheduler@@PAU12@@priv@stlp_std@@YAPAUItemReg@CSheduler@@PBU23@0PAU23@ABU__true_type@1@@Z ; stlp_std::priv::__ucopy_aux<CSheduler::ItemReg const *,CSheduler::ItemReg *>
PUBLIC	??$uninitialized_copy@PBUItemReg@CSheduler@@PAU12@@stlp_std@@YAPAUItemReg@CSheduler@@PBU12@0PAU12@@Z ; stlp_std::uninitialized_copy<CSheduler::ItemReg const *,CSheduler::ItemReg *>
PUBLIC	??$_M_allocate_and_copy@PBUItemReg@CSheduler@@@?$_Impl_vector@UItemReg@CSheduler@@V?$xalloc@UItemReg@CSheduler@@@@@priv@stlp_std@@AAEPAUItemReg@CSheduler@@AAIPBU34@1@Z ; stlp_std::priv::_Impl_vector<CSheduler::ItemReg,xalloc<CSheduler::ItemReg> >::_M_allocate_and_copy<CSheduler::ItemReg const *>
PUBLIC	?__copy_trivial@priv@stlp_std@@YAPAXPBX0PAX@Z	; stlp_std::priv::__copy_trivial
PUBLIC	??$__copy_ptrs@PBUItemReg@CSheduler@@PAU12@@priv@stlp_std@@YAPAUItemReg@CSheduler@@PBU23@0PAU23@ABU__true_type@1@@Z ; stlp_std::priv::__copy_ptrs<CSheduler::ItemReg const *,CSheduler::ItemReg *>
PUBLIC	??$__destroy_range_aux@PAUItemReg@CSheduler@@U12@@stlp_std@@YAXPAUItemReg@CSheduler@@00ABU__true_type@0@@Z ; stlp_std::__destroy_range_aux<CSheduler::ItemReg *,CSheduler::ItemReg>
PUBLIC	??$__destroy_range@PAUItemReg@CSheduler@@U12@@stlp_std@@YAXPAUItemReg@CSheduler@@00@Z ; stlp_std::__destroy_range<CSheduler::ItemReg *,CSheduler::ItemReg>
PUBLIC	??$_Destroy_Range@PAUItemReg@CSheduler@@@stlp_std@@YAXPAUItemReg@CSheduler@@0@Z ; stlp_std::_Destroy_Range<CSheduler::ItemReg *>
PUBLIC	??4?$_Impl_vector@UItemReg@CSheduler@@V?$xalloc@UItemReg@CSheduler@@@@@priv@stlp_std@@QAEAAV012@ABV012@@Z ; stlp_std::priv::_Impl_vector<CSheduler::ItemReg,xalloc<CSheduler::ItemReg> >::operator=
PUBLIC	??4?$vector@UItemReg@CSheduler@@V?$xalloc@UItemReg@CSheduler@@@@@stlp_std@@QAEAAV01@ABV01@@Z ; stlp_std::vector<CSheduler::ItemReg,xalloc<CSheduler::ItemReg> >::operator=
PUBLIC	??4?$xr_vector@UItemReg@CSheduler@@V?$xalloc@UItemReg@CSheduler@@@@@@QAEAAV0@ABV0@@Z ; xr_vector<CSheduler::ItemReg,xalloc<CSheduler::ItemReg> >::operator=
PUBLIC	??0?$CRegistrator@VpureFrame@@@@QAE@XZ		; CRegistrator<pureFrame>::CRegistrator<pureFrame>
PUBLIC	??1?$CRegistrator@VpureFrame@@@@QAE@XZ		; CRegistrator<pureFrame>::~CRegistrator<pureFrame>
PUBLIC	??0?$xalloc@U_REG_INFO@@@@QAE@XZ		; xalloc<_REG_INFO>::xalloc<_REG_INFO>
PUBLIC	??0?$xalloc@U_REG_INFO@@@@QAE@ABV0@@Z		; xalloc<_REG_INFO>::xalloc<_REG_INFO>
PUBLIC	??0?$_STLP_alloc_proxy@PAU_REG_INFO@@U1@V?$xalloc@U_REG_INFO@@@@@priv@stlp_std@@QAE@ABV?$xalloc@U_REG_INFO@@@@PAU_REG_INFO@@@Z ; stlp_std::priv::_STLP_alloc_proxy<_REG_INFO *,_REG_INFO,xalloc<_REG_INFO> >::_STLP_alloc_proxy<_REG_INFO *,_REG_INFO,xalloc<_REG_INFO> >
PUBLIC	??0?$_Vector_base@U_REG_INFO@@V?$xalloc@U_REG_INFO@@@@@priv@stlp_std@@QAE@ABV?$xalloc@U_REG_INFO@@@@@Z ; stlp_std::priv::_Vector_base<_REG_INFO,xalloc<_REG_INFO> >::_Vector_base<_REG_INFO,xalloc<_REG_INFO> >
PUBLIC	??0?$_Impl_vector@U_REG_INFO@@V?$xalloc@U_REG_INFO@@@@@priv@stlp_std@@QAE@ABV?$xalloc@U_REG_INFO@@@@@Z ; stlp_std::priv::_Impl_vector<_REG_INFO,xalloc<_REG_INFO> >::_Impl_vector<_REG_INFO,xalloc<_REG_INFO> >
PUBLIC	??0?$vector@U_REG_INFO@@V?$xalloc@U_REG_INFO@@@@@stlp_std@@QAE@ABV?$xalloc@U_REG_INFO@@@@@Z ; stlp_std::vector<_REG_INFO,xalloc<_REG_INFO> >::vector<_REG_INFO,xalloc<_REG_INFO> >
PUBLIC	??0?$xr_vector@U_REG_INFO@@V?$xalloc@U_REG_INFO@@@@@@QAE@XZ ; xr_vector<_REG_INFO,xalloc<_REG_INFO> >::xr_vector<_REG_INFO,xalloc<_REG_INFO> >
PUBLIC	??0?$CRegistrator@VpureDeviceReset@@@@QAE@XZ	; CRegistrator<pureDeviceReset>::CRegistrator<pureDeviceReset>
PUBLIC	??$xr_free@U_REG_INFO@@@@YAXAAPAU_REG_INFO@@@Z	; xr_free<_REG_INFO>
PUBLIC	?deallocate@?$xalloc@U_REG_INFO@@@@QBEXPAU_REG_INFO@@I@Z ; xalloc<_REG_INFO>::deallocate
PUBLIC	??1?$_Vector_base@U_REG_INFO@@V?$xalloc@U_REG_INFO@@@@@priv@stlp_std@@QAE@XZ ; stlp_std::priv::_Vector_base<_REG_INFO,xalloc<_REG_INFO> >::~_Vector_base<_REG_INFO,xalloc<_REG_INFO> >
PUBLIC	?end@?$_Impl_vector@U_REG_INFO@@V?$xalloc@U_REG_INFO@@@@@priv@stlp_std@@QAEPAU_REG_INFO@@XZ ; stlp_std::priv::_Impl_vector<_REG_INFO,xalloc<_REG_INFO> >::end
PUBLIC	?rbegin@?$_Impl_vector@U_REG_INFO@@V?$xalloc@U_REG_INFO@@@@@priv@stlp_std@@QAE?AV?$reverse_iterator@PAU_REG_INFO@@@3@XZ ; stlp_std::priv::_Impl_vector<_REG_INFO,xalloc<_REG_INFO> >::rbegin
PUBLIC	?begin@?$_Impl_vector@U_REG_INFO@@V?$xalloc@U_REG_INFO@@@@@priv@stlp_std@@QAEPAU_REG_INFO@@XZ ; stlp_std::priv::_Impl_vector<_REG_INFO,xalloc<_REG_INFO> >::begin
PUBLIC	??0?$reverse_iterator@PAU_REG_INFO@@@stlp_std@@QAE@PAU_REG_INFO@@@Z ; stlp_std::reverse_iterator<_REG_INFO *>::reverse_iterator<_REG_INFO *>
PUBLIC	?rend@?$_Impl_vector@U_REG_INFO@@V?$xalloc@U_REG_INFO@@@@@priv@stlp_std@@QAE?AV?$reverse_iterator@PAU_REG_INFO@@@3@XZ ; stlp_std::priv::_Impl_vector<_REG_INFO,xalloc<_REG_INFO> >::rend
PUBLIC	??0?$reverse_iterator@PAU_REG_INFO@@@stlp_std@@QAE@ABV01@@Z ; stlp_std::reverse_iterator<_REG_INFO *>::reverse_iterator<_REG_INFO *>
PUBLIC	??$__destroy_range_aux@V?$reverse_iterator@PAU_REG_INFO@@@stlp_std@@U_REG_INFO@@@stlp_std@@YAXV?$reverse_iterator@PAU_REG_INFO@@@0@0PAU_REG_INFO@@ABU__true_type@0@@Z ; stlp_std::__destroy_range_aux<stlp_std::reverse_iterator<_REG_INFO *>,_REG_INFO>
PUBLIC	??$__destroy_range@V?$reverse_iterator@PAU_REG_INFO@@@stlp_std@@U_REG_INFO@@@stlp_std@@YAXV?$reverse_iterator@PAU_REG_INFO@@@0@0PAU_REG_INFO@@@Z ; stlp_std::__destroy_range<stlp_std::reverse_iterator<_REG_INFO *>,_REG_INFO>
PUBLIC	??$_Destroy_Range@V?$reverse_iterator@PAU_REG_INFO@@@stlp_std@@@stlp_std@@YAXV?$reverse_iterator@PAU_REG_INFO@@@0@0@Z ; stlp_std::_Destroy_Range<stlp_std::reverse_iterator<_REG_INFO *> >
PUBLIC	??1?$_Impl_vector@U_REG_INFO@@V?$xalloc@U_REG_INFO@@@@@priv@stlp_std@@QAE@XZ ; stlp_std::priv::_Impl_vector<_REG_INFO,xalloc<_REG_INFO> >::~_Impl_vector<_REG_INFO,xalloc<_REG_INFO> >
PUBLIC	??1?$vector@U_REG_INFO@@V?$xalloc@U_REG_INFO@@@@@stlp_std@@QAE@XZ ; stlp_std::vector<_REG_INFO,xalloc<_REG_INFO> >::~vector<_REG_INFO,xalloc<_REG_INFO> >
PUBLIC	??1?$xr_vector@U_REG_INFO@@V?$xalloc@U_REG_INFO@@@@@@QAE@XZ ; xr_vector<_REG_INFO,xalloc<_REG_INFO> >::~xr_vector<_REG_INFO,xalloc<_REG_INFO> >
PUBLIC	??1?$CRegistrator@VpureDeviceReset@@@@QAE@XZ	; CRegistrator<pureDeviceReset>::~CRegistrator<pureDeviceReset>
PUBLIC	??0?$xalloc@V?$FastDelegate0@X@fastdelegate@@@@QAE@XZ ; xalloc<fastdelegate::FastDelegate0<void> >::xalloc<fastdelegate::FastDelegate0<void> >
PUBLIC	??0?$xalloc@V?$FastDelegate0@X@fastdelegate@@@@QAE@ABV0@@Z ; xalloc<fastdelegate::FastDelegate0<void> >::xalloc<fastdelegate::FastDelegate0<void> >
PUBLIC	??0?$_STLP_alloc_proxy@PAV?$FastDelegate0@X@fastdelegate@@V12@V?$xalloc@V?$FastDelegate0@X@fastdelegate@@@@@priv@stlp_std@@QAE@ABV?$xalloc@V?$FastDelegate0@X@fastdelegate@@@@PAV?$FastDelegate0@X@fastdelegate@@@Z ; stlp_std::priv::_STLP_alloc_proxy<fastdelegate::FastDelegate0<void> *,fastdelegate::FastDelegate0<void>,xalloc<fastdelegate::FastDelegate0<void> > >::_STLP_alloc_proxy<fastdelegate::FastDelegate0<void> *,fastdelegate::FastDelegate0<void>,xalloc<fastdelegate::FastDelegate0<void> > >
PUBLIC	??0?$_Vector_base@V?$FastDelegate0@X@fastdelegate@@V?$xalloc@V?$FastDelegate0@X@fastdelegate@@@@@priv@stlp_std@@QAE@ABV?$xalloc@V?$FastDelegate0@X@fastdelegate@@@@@Z ; stlp_std::priv::_Vector_base<fastdelegate::FastDelegate0<void>,xalloc<fastdelegate::FastDelegate0<void> > >::_Vector_base<fastdelegate::FastDelegate0<void>,xalloc<fastdelegate::FastDelegate0<void> > >
PUBLIC	??0?$_Impl_vector@V?$FastDelegate0@X@fastdelegate@@V?$xalloc@V?$FastDelegate0@X@fastdelegate@@@@@priv@stlp_std@@QAE@ABV?$xalloc@V?$FastDelegate0@X@fastdelegate@@@@@Z ; stlp_std::priv::_Impl_vector<fastdelegate::FastDelegate0<void>,xalloc<fastdelegate::FastDelegate0<void> > >::_Impl_vector<fastdelegate::FastDelegate0<void>,xalloc<fastdelegate::FastDelegate0<void> > >
PUBLIC	??0?$vector@V?$FastDelegate0@X@fastdelegate@@V?$xalloc@V?$FastDelegate0@X@fastdelegate@@@@@stlp_std@@QAE@ABV?$xalloc@V?$FastDelegate0@X@fastdelegate@@@@@Z ; stlp_std::vector<fastdelegate::FastDelegate0<void>,xalloc<fastdelegate::FastDelegate0<void> > >::vector<fastdelegate::FastDelegate0<void>,xalloc<fastdelegate::FastDelegate0<void> > >
PUBLIC	??0?$xr_vector@V?$FastDelegate0@X@fastdelegate@@V?$xalloc@V?$FastDelegate0@X@fastdelegate@@@@@@QAE@XZ ; xr_vector<fastdelegate::FastDelegate0<void>,xalloc<fastdelegate::FastDelegate0<void> > >::xr_vector<fastdelegate::FastDelegate0<void>,xalloc<fastdelegate::FastDelegate0<void> > >
PUBLIC	??$xr_free@V?$FastDelegate0@X@fastdelegate@@@@YAXAAPAV?$FastDelegate0@X@fastdelegate@@@Z ; xr_free<fastdelegate::FastDelegate0<void> >
PUBLIC	?deallocate@?$xalloc@V?$FastDelegate0@X@fastdelegate@@@@QBEXPAV?$FastDelegate0@X@fastdelegate@@I@Z ; xalloc<fastdelegate::FastDelegate0<void> >::deallocate
PUBLIC	??1?$_Vector_base@V?$FastDelegate0@X@fastdelegate@@V?$xalloc@V?$FastDelegate0@X@fastdelegate@@@@@priv@stlp_std@@QAE@XZ ; stlp_std::priv::_Vector_base<fastdelegate::FastDelegate0<void>,xalloc<fastdelegate::FastDelegate0<void> > >::~_Vector_base<fastdelegate::FastDelegate0<void>,xalloc<fastdelegate::FastDelegate0<void> > >
PUBLIC	?end@?$_Impl_vector@V?$FastDelegate0@X@fastdelegate@@V?$xalloc@V?$FastDelegate0@X@fastdelegate@@@@@priv@stlp_std@@QAEPAV?$FastDelegate0@X@fastdelegate@@XZ ; stlp_std::priv::_Impl_vector<fastdelegate::FastDelegate0<void>,xalloc<fastdelegate::FastDelegate0<void> > >::end
PUBLIC	?rbegin@?$_Impl_vector@V?$FastDelegate0@X@fastdelegate@@V?$xalloc@V?$FastDelegate0@X@fastdelegate@@@@@priv@stlp_std@@QAE?AV?$reverse_iterator@PAV?$FastDelegate0@X@fastdelegate@@@3@XZ ; stlp_std::priv::_Impl_vector<fastdelegate::FastDelegate0<void>,xalloc<fastdelegate::FastDelegate0<void> > >::rbegin
PUBLIC	?begin@?$_Impl_vector@V?$FastDelegate0@X@fastdelegate@@V?$xalloc@V?$FastDelegate0@X@fastdelegate@@@@@priv@stlp_std@@QAEPAV?$FastDelegate0@X@fastdelegate@@XZ ; stlp_std::priv::_Impl_vector<fastdelegate::FastDelegate0<void>,xalloc<fastdelegate::FastDelegate0<void> > >::begin
PUBLIC	??0?$reverse_iterator@PAV?$FastDelegate0@X@fastdelegate@@@stlp_std@@QAE@PAV?$FastDelegate0@X@fastdelegate@@@Z ; stlp_std::reverse_iterator<fastdelegate::FastDelegate0<void> *>::reverse_iterator<fastdelegate::FastDelegate0<void> *>
PUBLIC	?rend@?$_Impl_vector@V?$FastDelegate0@X@fastdelegate@@V?$xalloc@V?$FastDelegate0@X@fastdelegate@@@@@priv@stlp_std@@QAE?AV?$reverse_iterator@PAV?$FastDelegate0@X@fastdelegate@@@3@XZ ; stlp_std::priv::_Impl_vector<fastdelegate::FastDelegate0<void>,xalloc<fastdelegate::FastDelegate0<void> > >::rend
PUBLIC	??0?$reverse_iterator@PAV?$FastDelegate0@X@fastdelegate@@@stlp_std@@QAE@ABV01@@Z ; stlp_std::reverse_iterator<fastdelegate::FastDelegate0<void> *>::reverse_iterator<fastdelegate::FastDelegate0<void> *>
PUBLIC	??$__destroy_range_aux@V?$reverse_iterator@PAV?$FastDelegate0@X@fastdelegate@@@stlp_std@@V?$FastDelegate0@X@fastdelegate@@@stlp_std@@YAXV?$reverse_iterator@PAV?$FastDelegate0@X@fastdelegate@@@0@0PAV?$FastDelegate0@X@fastdelegate@@ABU__true_type@0@@Z ; stlp_std::__destroy_range_aux<stlp_std::reverse_iterator<fastdelegate::FastDelegate0<void> *>,fastdelegate::FastDelegate0<void> >
PUBLIC	??$__destroy_range@V?$reverse_iterator@PAV?$FastDelegate0@X@fastdelegate@@@stlp_std@@V?$FastDelegate0@X@fastdelegate@@@stlp_std@@YAXV?$reverse_iterator@PAV?$FastDelegate0@X@fastdelegate@@@0@0PAV?$FastDelegate0@X@fastdelegate@@@Z ; stlp_std::__destroy_range<stlp_std::reverse_iterator<fastdelegate::FastDelegate0<void> *>,fastdelegate::FastDelegate0<void> >
PUBLIC	??$_Destroy_Range@V?$reverse_iterator@PAV?$FastDelegate0@X@fastdelegate@@@stlp_std@@@stlp_std@@YAXV?$reverse_iterator@PAV?$FastDelegate0@X@fastdelegate@@@0@0@Z ; stlp_std::_Destroy_Range<stlp_std::reverse_iterator<fastdelegate::FastDelegate0<void> *> >
PUBLIC	??1?$_Impl_vector@V?$FastDelegate0@X@fastdelegate@@V?$xalloc@V?$FastDelegate0@X@fastdelegate@@@@@priv@stlp_std@@QAE@XZ ; stlp_std::priv::_Impl_vector<fastdelegate::FastDelegate0<void>,xalloc<fastdelegate::FastDelegate0<void> > >::~_Impl_vector<fastdelegate::FastDelegate0<void>,xalloc<fastdelegate::FastDelegate0<void> > >
PUBLIC	??1?$vector@V?$FastDelegate0@X@fastdelegate@@V?$xalloc@V?$FastDelegate0@X@fastdelegate@@@@@stlp_std@@QAE@XZ ; stlp_std::vector<fastdelegate::FastDelegate0<void>,xalloc<fastdelegate::FastDelegate0<void> > >::~vector<fastdelegate::FastDelegate0<void>,xalloc<fastdelegate::FastDelegate0<void> > >
PUBLIC	??1?$xr_vector@V?$FastDelegate0@X@fastdelegate@@V?$xalloc@V?$FastDelegate0@X@fastdelegate@@@@@@QAE@XZ ; xr_vector<fastdelegate::FastDelegate0<void>,xalloc<fastdelegate::FastDelegate0<void> > >::~xr_vector<fastdelegate::FastDelegate0<void>,xalloc<fastdelegate::FastDelegate0<void> > >
PUBLIC	___@@_PchSym_@00@UxovzihpbUhlfixvhUvmtrmvUcivmtrmvUivovzhvPhvxfilnUhgwzucOlyq@
PUBLIC	??_C@_07CIFAGBMG@unknown?$AA@			; `string'
PUBLIC	??_7DLL_Pure@@6B@				; DLL_Pure::`vftable'
PUBLIC	??_7IEventReceiver@@6B@				; IEventReceiver::`vftable'
PUBLIC	??_7ISheduled@@6B@				; ISheduled::`vftable'
PUBLIC	??_7pureFrame@@6B@				; pureFrame::`vftable'
PUBLIC	??_7pureRender@@6B@				; pureRender::`vftable'
PUBLIC	??_7pureAppActivate@@6B@			; pureAppActivate::`vftable'
PUBLIC	??_7pureAppDeactivate@@6B@			; pureAppDeactivate::`vftable'
PUBLIC	??_7pureAppStart@@6B@				; pureAppStart::`vftable'
PUBLIC	??_7pureAppEnd@@6B@				; pureAppEnd::`vftable'
PUBLIC	??_7pureDeviceReset@@6B@			; pureDeviceReset::`vftable'
PUBLIC	??_7pureScreenResolutionChanged@@6B@		; pureScreenResolutionChanged::`vftable'
PUBLIC	??_7pureStats@@6B@				; pureStats::`vftable'
PUBLIC	??_7CStats@@6B@					; CStats::`vftable'
PUBLIC	??_7IRenderDevice@@6B@				; IRenderDevice::`vftable'
PUBLIC	??_7CRenderDeviceBase@@6B@			; CRenderDeviceBase::`vftable'
PUBLIC	??_7CRenderDevice@@6B@				; CRenderDevice::`vftable'
PUBLIC	??_7CLoadScreenRenderer@@6B@			; CLoadScreenRenderer::`vftable'
EXTRN	__imp_?qpc_overhead@CPU@@3_KA:QWORD
EXTRN	__imp_?GetElapsed_ticks@CTimerBase@@QBE_KXZ:PROC
EXTRN	__imp_?GetElapsed_ticks@CTimer@@ABE_KAB_K@Z:PROC
EXTRN	__imp_?time_factor@CTimer@@QAEXABM@Z:PROC
EXTRN	__imp_?time_factor@CTimer@@QBEABMXZ:PROC
EXTRN	__imp_??0CStatTimer@@QAE@XZ:PROC
EXTRN	__imp_?RenderFactory@@3PAVIRenderFactory@@A:DWORD
EXTRN	__imp_?dock@str_container@@QAEPAUstr_value@@PBD@Z:PROC
EXTRN	__imp_?g_pStringContainer@@3PAVstr_container@@A:DWORD
EXTRN	__imp_??0CTimer_paused@@QAE@XZ:PROC
EXTRN	__imp_??1CTimer_paused@@UAE@XZ:PROC
EXTRN	__imp_??1CTimer_paused_ex@@UAE@XZ:PROC
EXTRN	__imp_??_7CTimer_paused_ex@@6B@:QWORD
EXTRN	__imp_??0CTimer_paused_ex@@QAE@ABV0@@Z:PROC
EXTRN	__imp_??_7CTimer_paused@@6B@:QWORD
EXTRN	__imp_??0CTimer_paused@@QAE@ABV0@@Z:PROC
EXTRN	__imp_??4CTimer_paused_ex@@QAEAAV0@ABV0@@Z:PROC
EXTRN	__imp_??4CTimer_paused@@QAEAAV0@ABV0@@Z:PROC
EXTRN	__imp__memmove:PROC
EXTRN	__imp_??0xrCriticalSection@@QAE@XZ:PROC
EXTRN	__imp_??1xrCriticalSection@@QAE@XZ:PROC
EXTRN	__imp_??0CTimerBase@@QAE@XZ:PROC
EXTRN	__imp_??0CTimer@@QAE@XZ:PROC
EXTRN	__imp_?QPC@CPU@@YA_KXZ:PROC
EXTRN	__imp_?Start@CTimerBase@@QAEXXZ:PROC
EXTRN	__imp_?Start@CTimer@@QAEXXZ:PROC
EXTRN	__purecall:PROC
EXTRN	??_7type_info@@6B@:QWORD			; type_info::`vftable'
EXTRN	__imp_?GetElapsed_ms@CTimer@@QBEIXZ:PROC
___@@_PchSym_@00@UxovzihpbUhlfixvhUvmtrmvUcivmtrmvUivovzhvPhvxfilnUhgwzucOlyq@ DD 01H DUP (?)
;	COMDAT ??_7CLoadScreenRenderer@@6B@
CONST	SEGMENT
??_7CLoadScreenRenderer@@6B@ DD FLAT:??_R4CLoadScreenRenderer@@6B@ ; CLoadScreenRenderer::`vftable'
	DD	FLAT:?OnRender@CLoadScreenRenderer@@UAEXXZ
CONST	ENDS
;	COMDAT ??_R4CLoadScreenRenderer@@6B@
rdata$r	SEGMENT
??_R4CLoadScreenRenderer@@6B@ DD 00H			; CLoadScreenRenderer::`RTTI Complete Object Locator'
	DD	00H
	DD	00H
	DD	FLAT:??_R0?AVCLoadScreenRenderer@@@8
	DD	FLAT:??_R3CLoadScreenRenderer@@8
rdata$r	ENDS
;	COMDAT ??_R3CLoadScreenRenderer@@8
rdata$r	SEGMENT
??_R3CLoadScreenRenderer@@8 DD 00H			; CLoadScreenRenderer::`RTTI Class Hierarchy Descriptor'
	DD	00H
	DD	02H
	DD	FLAT:??_R2CLoadScreenRenderer@@8
rdata$r	ENDS
;	COMDAT ??_R2CLoadScreenRenderer@@8
rdata$r	SEGMENT
??_R2CLoadScreenRenderer@@8 DD FLAT:??_R1A@?0A@EA@CLoadScreenRenderer@@8 ; CLoadScreenRenderer::`RTTI Base Class Array'
	DD	FLAT:??_R1A@?0A@EA@pureRender@@8
rdata$r	ENDS
;	COMDAT ??_R1A@?0A@EA@CLoadScreenRenderer@@8
rdata$r	SEGMENT
??_R1A@?0A@EA@CLoadScreenRenderer@@8 DD FLAT:??_R0?AVCLoadScreenRenderer@@@8 ; CLoadScreenRenderer::`RTTI Base Class Descriptor at (0,-1,0,64)'
	DD	01H
	DD	00H
	DD	0ffffffffH
	DD	00H
	DD	040H
	DD	FLAT:??_R3CLoadScreenRenderer@@8
rdata$r	ENDS
;	COMDAT ??_R0?AVCLoadScreenRenderer@@@8
_DATA	SEGMENT
??_R0?AVCLoadScreenRenderer@@@8 DD FLAT:??_7type_info@@6B@ ; CLoadScreenRenderer `RTTI Type Descriptor'
	DD	00H
	DB	'.?AVCLoadScreenRenderer@@', 00H
_DATA	ENDS
;	COMDAT ??_7CRenderDevice@@6B@
CONST	SEGMENT
??_7CRenderDevice@@6B@ DD FLAT:??_R4CRenderDevice@@6B@	; CRenderDevice::`vftable'
	DD	FLAT:?StatPhysics@CRenderDevice@@EAGPAVCStatsPhysics@@XZ
	DD	FLAT:?AddSeqFrame@CRenderDevice@@EAGXPAVpureFrame@@_N@Z
	DD	FLAT:?RemoveSeqFrame@CRenderDevice@@EAGXPAVpureFrame@@@Z
CONST	ENDS
;	COMDAT ??_R4CRenderDevice@@6B@
rdata$r	SEGMENT
??_R4CRenderDevice@@6B@ DD 00H				; CRenderDevice::`RTTI Complete Object Locator'
	DD	00H
	DD	00H
	DD	FLAT:??_R0?AVCRenderDevice@@@8
	DD	FLAT:??_R3CRenderDevice@@8
rdata$r	ENDS
;	COMDAT ??_R3CRenderDevice@@8
rdata$r	SEGMENT
??_R3CRenderDevice@@8 DD 00H				; CRenderDevice::`RTTI Class Hierarchy Descriptor'
	DD	01H
	DD	04H
	DD	FLAT:??_R2CRenderDevice@@8
rdata$r	ENDS
;	COMDAT ??_R2CRenderDevice@@8
rdata$r	SEGMENT
??_R2CRenderDevice@@8 DD FLAT:??_R1A@?0A@EA@CRenderDevice@@8 ; CRenderDevice::`RTTI Base Class Array'
	DD	FLAT:??_R1A@?0A@EA@CRenderDeviceBase@@8
	DD	FLAT:??_R1A@?0A@EA@IRenderDevice@@8
	DD	FLAT:??_R13?0A@EA@CRenderDeviceData@@8
rdata$r	ENDS
;	COMDAT ??_R1A@?0A@EA@CRenderDevice@@8
rdata$r	SEGMENT
??_R1A@?0A@EA@CRenderDevice@@8 DD FLAT:??_R0?AVCRenderDevice@@@8 ; CRenderDevice::`RTTI Base Class Descriptor at (0,-1,0,64)'
	DD	03H
	DD	00H
	DD	0ffffffffH
	DD	00H
	DD	040H
	DD	FLAT:??_R3CRenderDevice@@8
rdata$r	ENDS
;	COMDAT ??_R0?AVCRenderDevice@@@8
_DATA	SEGMENT
??_R0?AVCRenderDevice@@@8 DD FLAT:??_7type_info@@6B@	; CRenderDevice `RTTI Type Descriptor'
	DD	00H
	DB	'.?AVCRenderDevice@@', 00H
_DATA	ENDS
;	COMDAT ??_7CRenderDeviceBase@@6B@
CONST	SEGMENT
??_7CRenderDeviceBase@@6B@ DD FLAT:??_R4CRenderDeviceBase@@6B@ ; CRenderDeviceBase::`vftable'
	DD	FLAT:__purecall
	DD	FLAT:__purecall
	DD	FLAT:__purecall
CONST	ENDS
;	COMDAT ??_R4CRenderDeviceBase@@6B@
rdata$r	SEGMENT
??_R4CRenderDeviceBase@@6B@ DD 00H			; CRenderDeviceBase::`RTTI Complete Object Locator'
	DD	00H
	DD	00H
	DD	FLAT:??_R0?AVCRenderDeviceBase@@@8
	DD	FLAT:??_R3CRenderDeviceBase@@8
rdata$r	ENDS
;	COMDAT ??_R3CRenderDeviceBase@@8
rdata$r	SEGMENT
??_R3CRenderDeviceBase@@8 DD 00H			; CRenderDeviceBase::`RTTI Class Hierarchy Descriptor'
	DD	01H
	DD	03H
	DD	FLAT:??_R2CRenderDeviceBase@@8
rdata$r	ENDS
;	COMDAT ??_R2CRenderDeviceBase@@8
rdata$r	SEGMENT
??_R2CRenderDeviceBase@@8 DD FLAT:??_R1A@?0A@EA@CRenderDeviceBase@@8 ; CRenderDeviceBase::`RTTI Base Class Array'
	DD	FLAT:??_R1A@?0A@EA@IRenderDevice@@8
	DD	FLAT:??_R13?0A@EA@CRenderDeviceData@@8
rdata$r	ENDS
;	COMDAT ??_R13?0A@EA@CRenderDeviceData@@8
rdata$r	SEGMENT
??_R13?0A@EA@CRenderDeviceData@@8 DD FLAT:??_R0?AVCRenderDeviceData@@@8 ; CRenderDeviceData::`RTTI Base Class Descriptor at (4,-1,0,64)'
	DD	00H
	DD	04H
	DD	0ffffffffH
	DD	00H
	DD	040H
	DD	FLAT:??_R3CRenderDeviceData@@8
rdata$r	ENDS
;	COMDAT ??_R3CRenderDeviceData@@8
rdata$r	SEGMENT
??_R3CRenderDeviceData@@8 DD 00H			; CRenderDeviceData::`RTTI Class Hierarchy Descriptor'
	DD	00H
	DD	01H
	DD	FLAT:??_R2CRenderDeviceData@@8
rdata$r	ENDS
;	COMDAT ??_R2CRenderDeviceData@@8
rdata$r	SEGMENT
??_R2CRenderDeviceData@@8 DD FLAT:??_R1A@?0A@EA@CRenderDeviceData@@8 ; CRenderDeviceData::`RTTI Base Class Array'
rdata$r	ENDS
;	COMDAT ??_R1A@?0A@EA@CRenderDeviceData@@8
rdata$r	SEGMENT
??_R1A@?0A@EA@CRenderDeviceData@@8 DD FLAT:??_R0?AVCRenderDeviceData@@@8 ; CRenderDeviceData::`RTTI Base Class Descriptor at (0,-1,0,64)'
	DD	00H
	DD	00H
	DD	0ffffffffH
	DD	00H
	DD	040H
	DD	FLAT:??_R3CRenderDeviceData@@8
rdata$r	ENDS
;	COMDAT ??_R0?AVCRenderDeviceData@@@8
_DATA	SEGMENT
??_R0?AVCRenderDeviceData@@@8 DD FLAT:??_7type_info@@6B@ ; CRenderDeviceData `RTTI Type Descriptor'
	DD	00H
	DB	'.?AVCRenderDeviceData@@', 00H
_DATA	ENDS
;	COMDAT ??_R1A@?0A@EA@CRenderDeviceBase@@8
rdata$r	SEGMENT
??_R1A@?0A@EA@CRenderDeviceBase@@8 DD FLAT:??_R0?AVCRenderDeviceBase@@@8 ; CRenderDeviceBase::`RTTI Base Class Descriptor at (0,-1,0,64)'
	DD	02H
	DD	00H
	DD	0ffffffffH
	DD	00H
	DD	040H
	DD	FLAT:??_R3CRenderDeviceBase@@8
rdata$r	ENDS
;	COMDAT ??_R0?AVCRenderDeviceBase@@@8
_DATA	SEGMENT
??_R0?AVCRenderDeviceBase@@@8 DD FLAT:??_7type_info@@6B@ ; CRenderDeviceBase `RTTI Type Descriptor'
	DD	00H
	DB	'.?AVCRenderDeviceBase@@', 00H
_DATA	ENDS
;	COMDAT ??_7IRenderDevice@@6B@
CONST	SEGMENT
??_7IRenderDevice@@6B@ DD FLAT:??_R4IRenderDevice@@6B@	; IRenderDevice::`vftable'
	DD	FLAT:__purecall
	DD	FLAT:__purecall
	DD	FLAT:__purecall
CONST	ENDS
;	COMDAT ??_R4IRenderDevice@@6B@
rdata$r	SEGMENT
??_R4IRenderDevice@@6B@ DD 00H				; IRenderDevice::`RTTI Complete Object Locator'
	DD	00H
	DD	00H
	DD	FLAT:??_R0?AVIRenderDevice@@@8
	DD	FLAT:??_R3IRenderDevice@@8
rdata$r	ENDS
;	COMDAT ??_R3IRenderDevice@@8
rdata$r	SEGMENT
??_R3IRenderDevice@@8 DD 00H				; IRenderDevice::`RTTI Class Hierarchy Descriptor'
	DD	00H
	DD	01H
	DD	FLAT:??_R2IRenderDevice@@8
rdata$r	ENDS
;	COMDAT ??_R2IRenderDevice@@8
rdata$r	SEGMENT
??_R2IRenderDevice@@8 DD FLAT:??_R1A@?0A@EA@IRenderDevice@@8 ; IRenderDevice::`RTTI Base Class Array'
rdata$r	ENDS
;	COMDAT ??_R1A@?0A@EA@IRenderDevice@@8
rdata$r	SEGMENT
??_R1A@?0A@EA@IRenderDevice@@8 DD FLAT:??_R0?AVIRenderDevice@@@8 ; IRenderDevice::`RTTI Base Class Descriptor at (0,-1,0,64)'
	DD	00H
	DD	00H
	DD	0ffffffffH
	DD	00H
	DD	040H
	DD	FLAT:??_R3IRenderDevice@@8
rdata$r	ENDS
;	COMDAT ??_R0?AVIRenderDevice@@@8
_DATA	SEGMENT
??_R0?AVIRenderDevice@@@8 DD FLAT:??_7type_info@@6B@	; IRenderDevice `RTTI Type Descriptor'
	DD	00H
	DB	'.?AVIRenderDevice@@', 00H
_DATA	ENDS
;	COMDAT ??_7CStats@@6B@
CONST	SEGMENT
??_7CStats@@6B@ DD FLAT:??_R4CStats@@6B@		; CStats::`vftable'
	DD	FLAT:?OnRender@CStats@@UAEXXZ
CONST	ENDS
;	COMDAT ??_R4CStats@@6B@
rdata$r	SEGMENT
??_R4CStats@@6B@ DD 00H					; CStats::`RTTI Complete Object Locator'
	DD	00H
	DD	00H
	DD	FLAT:??_R0?AVCStats@@@8
	DD	FLAT:??_R3CStats@@8
rdata$r	ENDS
;	COMDAT ??_R3CStats@@8
rdata$r	SEGMENT
??_R3CStats@@8 DD 00H					; CStats::`RTTI Class Hierarchy Descriptor'
	DD	01H
	DD	03H
	DD	FLAT:??_R2CStats@@8
rdata$r	ENDS
;	COMDAT ??_R2CStats@@8
rdata$r	SEGMENT
??_R2CStats@@8 DD FLAT:??_R1A@?0A@EA@CStats@@8		; CStats::`RTTI Base Class Array'
	DD	FLAT:??_R1A@?0A@EA@pureRender@@8
	DD	FLAT:??_R17?0A@EA@CStatsPhysics@@8
rdata$r	ENDS
;	COMDAT ??_R17?0A@EA@CStatsPhysics@@8
rdata$r	SEGMENT
??_R17?0A@EA@CStatsPhysics@@8 DD FLAT:??_R0?AVCStatsPhysics@@@8 ; CStatsPhysics::`RTTI Base Class Descriptor at (8,-1,0,64)'
	DD	00H
	DD	08H
	DD	0ffffffffH
	DD	00H
	DD	040H
	DD	FLAT:??_R3CStatsPhysics@@8
rdata$r	ENDS
;	COMDAT ??_R3CStatsPhysics@@8
rdata$r	SEGMENT
??_R3CStatsPhysics@@8 DD 00H				; CStatsPhysics::`RTTI Class Hierarchy Descriptor'
	DD	00H
	DD	01H
	DD	FLAT:??_R2CStatsPhysics@@8
rdata$r	ENDS
;	COMDAT ??_R2CStatsPhysics@@8
rdata$r	SEGMENT
??_R2CStatsPhysics@@8 DD FLAT:??_R1A@?0A@EA@CStatsPhysics@@8 ; CStatsPhysics::`RTTI Base Class Array'
rdata$r	ENDS
;	COMDAT ??_R1A@?0A@EA@CStatsPhysics@@8
rdata$r	SEGMENT
??_R1A@?0A@EA@CStatsPhysics@@8 DD FLAT:??_R0?AVCStatsPhysics@@@8 ; CStatsPhysics::`RTTI Base Class Descriptor at (0,-1,0,64)'
	DD	00H
	DD	00H
	DD	0ffffffffH
	DD	00H
	DD	040H
	DD	FLAT:??_R3CStatsPhysics@@8
rdata$r	ENDS
;	COMDAT ??_R0?AVCStatsPhysics@@@8
_DATA	SEGMENT
??_R0?AVCStatsPhysics@@@8 DD FLAT:??_7type_info@@6B@	; CStatsPhysics `RTTI Type Descriptor'
	DD	00H
	DB	'.?AVCStatsPhysics@@', 00H
_DATA	ENDS
;	COMDAT ??_R1A@?0A@EA@CStats@@8
rdata$r	SEGMENT
??_R1A@?0A@EA@CStats@@8 DD FLAT:??_R0?AVCStats@@@8	; CStats::`RTTI Base Class Descriptor at (0,-1,0,64)'
	DD	02H
	DD	00H
	DD	0ffffffffH
	DD	00H
	DD	040H
	DD	FLAT:??_R3CStats@@8
rdata$r	ENDS
;	COMDAT ??_R0?AVCStats@@@8
_DATA	SEGMENT
??_R0?AVCStats@@@8 DD FLAT:??_7type_info@@6B@		; CStats `RTTI Type Descriptor'
	DD	00H
	DB	'.?AVCStats@@', 00H
_DATA	ENDS
;	COMDAT ??_7pureStats@@6B@
CONST	SEGMENT
??_7pureStats@@6B@ DD FLAT:??_R4pureStats@@6B@		; pureStats::`vftable'
	DD	FLAT:__purecall
CONST	ENDS
;	COMDAT ??_R4pureStats@@6B@
rdata$r	SEGMENT
??_R4pureStats@@6B@ DD 00H				; pureStats::`RTTI Complete Object Locator'
	DD	00H
	DD	00H
	DD	FLAT:??_R0?AVpureStats@@@8
	DD	FLAT:??_R3pureStats@@8
rdata$r	ENDS
;	COMDAT ??_R3pureStats@@8
rdata$r	SEGMENT
??_R3pureStats@@8 DD 00H				; pureStats::`RTTI Class Hierarchy Descriptor'
	DD	00H
	DD	01H
	DD	FLAT:??_R2pureStats@@8
rdata$r	ENDS
;	COMDAT ??_R2pureStats@@8
rdata$r	SEGMENT
??_R2pureStats@@8 DD FLAT:??_R1A@?0A@EA@pureStats@@8	; pureStats::`RTTI Base Class Array'
rdata$r	ENDS
;	COMDAT ??_R1A@?0A@EA@pureStats@@8
rdata$r	SEGMENT
??_R1A@?0A@EA@pureStats@@8 DD FLAT:??_R0?AVpureStats@@@8 ; pureStats::`RTTI Base Class Descriptor at (0,-1,0,64)'
	DD	00H
	DD	00H
	DD	0ffffffffH
	DD	00H
	DD	040H
	DD	FLAT:??_R3pureStats@@8
rdata$r	ENDS
;	COMDAT ??_R0?AVpureStats@@@8
_DATA	SEGMENT
??_R0?AVpureStats@@@8 DD FLAT:??_7type_info@@6B@	; pureStats `RTTI Type Descriptor'
	DD	00H
	DB	'.?AVpureStats@@', 00H
_DATA	ENDS
;	COMDAT ??_7pureScreenResolutionChanged@@6B@
CONST	SEGMENT
??_7pureScreenResolutionChanged@@6B@ DD FLAT:??_R4pureScreenResolutionChanged@@6B@ ; pureScreenResolutionChanged::`vftable'
	DD	FLAT:__purecall
CONST	ENDS
;	COMDAT ??_R4pureScreenResolutionChanged@@6B@
rdata$r	SEGMENT
??_R4pureScreenResolutionChanged@@6B@ DD 00H		; pureScreenResolutionChanged::`RTTI Complete Object Locator'
	DD	00H
	DD	00H
	DD	FLAT:??_R0?AVpureScreenResolutionChanged@@@8
	DD	FLAT:??_R3pureScreenResolutionChanged@@8
rdata$r	ENDS
;	COMDAT ??_R3pureScreenResolutionChanged@@8
rdata$r	SEGMENT
??_R3pureScreenResolutionChanged@@8 DD 00H		; pureScreenResolutionChanged::`RTTI Class Hierarchy Descriptor'
	DD	00H
	DD	01H
	DD	FLAT:??_R2pureScreenResolutionChanged@@8
rdata$r	ENDS
;	COMDAT ??_R2pureScreenResolutionChanged@@8
rdata$r	SEGMENT
??_R2pureScreenResolutionChanged@@8 DD FLAT:??_R1A@?0A@EA@pureScreenResolutionChanged@@8 ; pureScreenResolutionChanged::`RTTI Base Class Array'
rdata$r	ENDS
;	COMDAT ??_R1A@?0A@EA@pureScreenResolutionChanged@@8
rdata$r	SEGMENT
??_R1A@?0A@EA@pureScreenResolutionChanged@@8 DD FLAT:??_R0?AVpureScreenResolutionChanged@@@8 ; pureScreenResolutionChanged::`RTTI Base Class Descriptor at (0,-1,0,64)'
	DD	00H
	DD	00H
	DD	0ffffffffH
	DD	00H
	DD	040H
	DD	FLAT:??_R3pureScreenResolutionChanged@@8
rdata$r	ENDS
;	COMDAT ??_R0?AVpureScreenResolutionChanged@@@8
_DATA	SEGMENT
??_R0?AVpureScreenResolutionChanged@@@8 DD FLAT:??_7type_info@@6B@ ; pureScreenResolutionChanged `RTTI Type Descriptor'
	DD	00H
	DB	'.?AVpureScreenResolutionChanged@@', 00H
_DATA	ENDS
;	COMDAT ??_7pureDeviceReset@@6B@
CONST	SEGMENT
??_7pureDeviceReset@@6B@ DD FLAT:??_R4pureDeviceReset@@6B@ ; pureDeviceReset::`vftable'
	DD	FLAT:__purecall
CONST	ENDS
;	COMDAT ??_R4pureDeviceReset@@6B@
rdata$r	SEGMENT
??_R4pureDeviceReset@@6B@ DD 00H			; pureDeviceReset::`RTTI Complete Object Locator'
	DD	00H
	DD	00H
	DD	FLAT:??_R0?AVpureDeviceReset@@@8
	DD	FLAT:??_R3pureDeviceReset@@8
rdata$r	ENDS
;	COMDAT ??_R3pureDeviceReset@@8
rdata$r	SEGMENT
??_R3pureDeviceReset@@8 DD 00H				; pureDeviceReset::`RTTI Class Hierarchy Descriptor'
	DD	00H
	DD	01H
	DD	FLAT:??_R2pureDeviceReset@@8
rdata$r	ENDS
;	COMDAT ??_R2pureDeviceReset@@8
rdata$r	SEGMENT
??_R2pureDeviceReset@@8 DD FLAT:??_R1A@?0A@EA@pureDeviceReset@@8 ; pureDeviceReset::`RTTI Base Class Array'
rdata$r	ENDS
;	COMDAT ??_R1A@?0A@EA@pureDeviceReset@@8
rdata$r	SEGMENT
??_R1A@?0A@EA@pureDeviceReset@@8 DD FLAT:??_R0?AVpureDeviceReset@@@8 ; pureDeviceReset::`RTTI Base Class Descriptor at (0,-1,0,64)'
	DD	00H
	DD	00H
	DD	0ffffffffH
	DD	00H
	DD	040H
	DD	FLAT:??_R3pureDeviceReset@@8
rdata$r	ENDS
;	COMDAT ??_R0?AVpureDeviceReset@@@8
_DATA	SEGMENT
??_R0?AVpureDeviceReset@@@8 DD FLAT:??_7type_info@@6B@	; pureDeviceReset `RTTI Type Descriptor'
	DD	00H
	DB	'.?AVpureDeviceReset@@', 00H
_DATA	ENDS
;	COMDAT ??_7pureAppEnd@@6B@
CONST	SEGMENT
??_7pureAppEnd@@6B@ DD FLAT:??_R4pureAppEnd@@6B@	; pureAppEnd::`vftable'
	DD	FLAT:__purecall
CONST	ENDS
;	COMDAT ??_R4pureAppEnd@@6B@
rdata$r	SEGMENT
??_R4pureAppEnd@@6B@ DD 00H				; pureAppEnd::`RTTI Complete Object Locator'
	DD	00H
	DD	00H
	DD	FLAT:??_R0?AVpureAppEnd@@@8
	DD	FLAT:??_R3pureAppEnd@@8
rdata$r	ENDS
;	COMDAT ??_R3pureAppEnd@@8
rdata$r	SEGMENT
??_R3pureAppEnd@@8 DD 00H				; pureAppEnd::`RTTI Class Hierarchy Descriptor'
	DD	00H
	DD	01H
	DD	FLAT:??_R2pureAppEnd@@8
rdata$r	ENDS
;	COMDAT ??_R2pureAppEnd@@8
rdata$r	SEGMENT
??_R2pureAppEnd@@8 DD FLAT:??_R1A@?0A@EA@pureAppEnd@@8	; pureAppEnd::`RTTI Base Class Array'
rdata$r	ENDS
;	COMDAT ??_R1A@?0A@EA@pureAppEnd@@8
rdata$r	SEGMENT
??_R1A@?0A@EA@pureAppEnd@@8 DD FLAT:??_R0?AVpureAppEnd@@@8 ; pureAppEnd::`RTTI Base Class Descriptor at (0,-1,0,64)'
	DD	00H
	DD	00H
	DD	0ffffffffH
	DD	00H
	DD	040H
	DD	FLAT:??_R3pureAppEnd@@8
rdata$r	ENDS
;	COMDAT ??_R0?AVpureAppEnd@@@8
_DATA	SEGMENT
??_R0?AVpureAppEnd@@@8 DD FLAT:??_7type_info@@6B@	; pureAppEnd `RTTI Type Descriptor'
	DD	00H
	DB	'.?AVpureAppEnd@@', 00H
_DATA	ENDS
;	COMDAT ??_7pureAppStart@@6B@
CONST	SEGMENT
??_7pureAppStart@@6B@ DD FLAT:??_R4pureAppStart@@6B@	; pureAppStart::`vftable'
	DD	FLAT:__purecall
CONST	ENDS
;	COMDAT ??_R4pureAppStart@@6B@
rdata$r	SEGMENT
??_R4pureAppStart@@6B@ DD 00H				; pureAppStart::`RTTI Complete Object Locator'
	DD	00H
	DD	00H
	DD	FLAT:??_R0?AVpureAppStart@@@8
	DD	FLAT:??_R3pureAppStart@@8
rdata$r	ENDS
;	COMDAT ??_R3pureAppStart@@8
rdata$r	SEGMENT
??_R3pureAppStart@@8 DD 00H				; pureAppStart::`RTTI Class Hierarchy Descriptor'
	DD	00H
	DD	01H
	DD	FLAT:??_R2pureAppStart@@8
rdata$r	ENDS
;	COMDAT ??_R2pureAppStart@@8
rdata$r	SEGMENT
??_R2pureAppStart@@8 DD FLAT:??_R1A@?0A@EA@pureAppStart@@8 ; pureAppStart::`RTTI Base Class Array'
rdata$r	ENDS
;	COMDAT ??_R1A@?0A@EA@pureAppStart@@8
rdata$r	SEGMENT
??_R1A@?0A@EA@pureAppStart@@8 DD FLAT:??_R0?AVpureAppStart@@@8 ; pureAppStart::`RTTI Base Class Descriptor at (0,-1,0,64)'
	DD	00H
	DD	00H
	DD	0ffffffffH
	DD	00H
	DD	040H
	DD	FLAT:??_R3pureAppStart@@8
rdata$r	ENDS
;	COMDAT ??_R0?AVpureAppStart@@@8
_DATA	SEGMENT
??_R0?AVpureAppStart@@@8 DD FLAT:??_7type_info@@6B@	; pureAppStart `RTTI Type Descriptor'
	DD	00H
	DB	'.?AVpureAppStart@@', 00H
_DATA	ENDS
;	COMDAT ??_7pureAppDeactivate@@6B@
CONST	SEGMENT
??_7pureAppDeactivate@@6B@ DD FLAT:??_R4pureAppDeactivate@@6B@ ; pureAppDeactivate::`vftable'
	DD	FLAT:__purecall
CONST	ENDS
;	COMDAT ??_R4pureAppDeactivate@@6B@
rdata$r	SEGMENT
??_R4pureAppDeactivate@@6B@ DD 00H			; pureAppDeactivate::`RTTI Complete Object Locator'
	DD	00H
	DD	00H
	DD	FLAT:??_R0?AVpureAppDeactivate@@@8
	DD	FLAT:??_R3pureAppDeactivate@@8
rdata$r	ENDS
;	COMDAT ??_R3pureAppDeactivate@@8
rdata$r	SEGMENT
??_R3pureAppDeactivate@@8 DD 00H			; pureAppDeactivate::`RTTI Class Hierarchy Descriptor'
	DD	00H
	DD	01H
	DD	FLAT:??_R2pureAppDeactivate@@8
rdata$r	ENDS
;	COMDAT ??_R2pureAppDeactivate@@8
rdata$r	SEGMENT
??_R2pureAppDeactivate@@8 DD FLAT:??_R1A@?0A@EA@pureAppDeactivate@@8 ; pureAppDeactivate::`RTTI Base Class Array'
rdata$r	ENDS
;	COMDAT ??_R1A@?0A@EA@pureAppDeactivate@@8
rdata$r	SEGMENT
??_R1A@?0A@EA@pureAppDeactivate@@8 DD FLAT:??_R0?AVpureAppDeactivate@@@8 ; pureAppDeactivate::`RTTI Base Class Descriptor at (0,-1,0,64)'
	DD	00H
	DD	00H
	DD	0ffffffffH
	DD	00H
	DD	040H
	DD	FLAT:??_R3pureAppDeactivate@@8
rdata$r	ENDS
;	COMDAT ??_R0?AVpureAppDeactivate@@@8
_DATA	SEGMENT
??_R0?AVpureAppDeactivate@@@8 DD FLAT:??_7type_info@@6B@ ; pureAppDeactivate `RTTI Type Descriptor'
	DD	00H
	DB	'.?AVpureAppDeactivate@@', 00H
_DATA	ENDS
;	COMDAT ??_7pureAppActivate@@6B@
CONST	SEGMENT
??_7pureAppActivate@@6B@ DD FLAT:??_R4pureAppActivate@@6B@ ; pureAppActivate::`vftable'
	DD	FLAT:__purecall
CONST	ENDS
;	COMDAT ??_R4pureAppActivate@@6B@
rdata$r	SEGMENT
??_R4pureAppActivate@@6B@ DD 00H			; pureAppActivate::`RTTI Complete Object Locator'
	DD	00H
	DD	00H
	DD	FLAT:??_R0?AVpureAppActivate@@@8
	DD	FLAT:??_R3pureAppActivate@@8
rdata$r	ENDS
;	COMDAT ??_R3pureAppActivate@@8
rdata$r	SEGMENT
??_R3pureAppActivate@@8 DD 00H				; pureAppActivate::`RTTI Class Hierarchy Descriptor'
	DD	00H
	DD	01H
	DD	FLAT:??_R2pureAppActivate@@8
rdata$r	ENDS
;	COMDAT ??_R2pureAppActivate@@8
rdata$r	SEGMENT
??_R2pureAppActivate@@8 DD FLAT:??_R1A@?0A@EA@pureAppActivate@@8 ; pureAppActivate::`RTTI Base Class Array'
rdata$r	ENDS
;	COMDAT ??_R1A@?0A@EA@pureAppActivate@@8
rdata$r	SEGMENT
??_R1A@?0A@EA@pureAppActivate@@8 DD FLAT:??_R0?AVpureAppActivate@@@8 ; pureAppActivate::`RTTI Base Class Descriptor at (0,-1,0,64)'
	DD	00H
	DD	00H
	DD	0ffffffffH
	DD	00H
	DD	040H
	DD	FLAT:??_R3pureAppActivate@@8
rdata$r	ENDS
;	COMDAT ??_R0?AVpureAppActivate@@@8
_DATA	SEGMENT
??_R0?AVpureAppActivate@@@8 DD FLAT:??_7type_info@@6B@	; pureAppActivate `RTTI Type Descriptor'
	DD	00H
	DB	'.?AVpureAppActivate@@', 00H
_DATA	ENDS
;	COMDAT ??_7pureRender@@6B@
CONST	SEGMENT
??_7pureRender@@6B@ DD FLAT:??_R4pureRender@@6B@	; pureRender::`vftable'
	DD	FLAT:__purecall
CONST	ENDS
;	COMDAT ??_R4pureRender@@6B@
rdata$r	SEGMENT
??_R4pureRender@@6B@ DD 00H				; pureRender::`RTTI Complete Object Locator'
	DD	00H
	DD	00H
	DD	FLAT:??_R0?AVpureRender@@@8
	DD	FLAT:??_R3pureRender@@8
rdata$r	ENDS
;	COMDAT ??_R3pureRender@@8
rdata$r	SEGMENT
??_R3pureRender@@8 DD 00H				; pureRender::`RTTI Class Hierarchy Descriptor'
	DD	00H
	DD	01H
	DD	FLAT:??_R2pureRender@@8
rdata$r	ENDS
;	COMDAT ??_R2pureRender@@8
rdata$r	SEGMENT
??_R2pureRender@@8 DD FLAT:??_R1A@?0A@EA@pureRender@@8	; pureRender::`RTTI Base Class Array'
rdata$r	ENDS
;	COMDAT ??_R1A@?0A@EA@pureRender@@8
rdata$r	SEGMENT
??_R1A@?0A@EA@pureRender@@8 DD FLAT:??_R0?AVpureRender@@@8 ; pureRender::`RTTI Base Class Descriptor at (0,-1,0,64)'
	DD	00H
	DD	00H
	DD	0ffffffffH
	DD	00H
	DD	040H
	DD	FLAT:??_R3pureRender@@8
rdata$r	ENDS
;	COMDAT ??_R0?AVpureRender@@@8
_DATA	SEGMENT
??_R0?AVpureRender@@@8 DD FLAT:??_7type_info@@6B@	; pureRender `RTTI Type Descriptor'
	DD	00H
	DB	'.?AVpureRender@@', 00H
_DATA	ENDS
;	COMDAT ??_7pureFrame@@6B@
CONST	SEGMENT
??_7pureFrame@@6B@ DD FLAT:??_R4pureFrame@@6B@		; pureFrame::`vftable'
	DD	FLAT:__purecall
CONST	ENDS
;	COMDAT ??_R4pureFrame@@6B@
rdata$r	SEGMENT
??_R4pureFrame@@6B@ DD 00H				; pureFrame::`RTTI Complete Object Locator'
	DD	00H
	DD	00H
	DD	FLAT:??_R0?AVpureFrame@@@8
	DD	FLAT:??_R3pureFrame@@8
rdata$r	ENDS
;	COMDAT ??_R3pureFrame@@8
rdata$r	SEGMENT
??_R3pureFrame@@8 DD 00H				; pureFrame::`RTTI Class Hierarchy Descriptor'
	DD	00H
	DD	01H
	DD	FLAT:??_R2pureFrame@@8
rdata$r	ENDS
;	COMDAT ??_R2pureFrame@@8
rdata$r	SEGMENT
??_R2pureFrame@@8 DD FLAT:??_R1A@?0A@EA@pureFrame@@8	; pureFrame::`RTTI Base Class Array'
rdata$r	ENDS
;	COMDAT ??_R1A@?0A@EA@pureFrame@@8
rdata$r	SEGMENT
??_R1A@?0A@EA@pureFrame@@8 DD FLAT:??_R0?AVpureFrame@@@8 ; pureFrame::`RTTI Base Class Descriptor at (0,-1,0,64)'
	DD	00H
	DD	00H
	DD	0ffffffffH
	DD	00H
	DD	040H
	DD	FLAT:??_R3pureFrame@@8
rdata$r	ENDS
;	COMDAT ??_R0?AVpureFrame@@@8
_DATA	SEGMENT
??_R0?AVpureFrame@@@8 DD FLAT:??_7type_info@@6B@	; pureFrame `RTTI Type Descriptor'
	DD	00H
	DB	'.?AVpureFrame@@', 00H
_DATA	ENDS
;	COMDAT ??_7ISheduled@@6B@
CONST	SEGMENT
??_7ISheduled@@6B@ DD FLAT:??_R4ISheduled@@6B@		; ISheduled::`vftable'
	DD	FLAT:??_EISheduled@@UAEPAXI@Z
	DD	FLAT:__purecall
	DD	FLAT:?shedule_Update@ISheduled@@UAEXI@Z
	DD	FLAT:?shedule_Name@ISheduled@@UBE?AVshared_str@@XZ
	DD	FLAT:__purecall
CONST	ENDS
;	COMDAT ??_R4ISheduled@@6B@
rdata$r	SEGMENT
??_R4ISheduled@@6B@ DD 00H				; ISheduled::`RTTI Complete Object Locator'
	DD	00H
	DD	00H
	DD	FLAT:??_R0?AVISheduled@@@8
	DD	FLAT:??_R3ISheduled@@8
rdata$r	ENDS
;	COMDAT ??_R3ISheduled@@8
rdata$r	SEGMENT
??_R3ISheduled@@8 DD 00H				; ISheduled::`RTTI Class Hierarchy Descriptor'
	DD	00H
	DD	01H
	DD	FLAT:??_R2ISheduled@@8
rdata$r	ENDS
;	COMDAT ??_R2ISheduled@@8
rdata$r	SEGMENT
??_R2ISheduled@@8 DD FLAT:??_R1A@?0A@EA@ISheduled@@8	; ISheduled::`RTTI Base Class Array'
rdata$r	ENDS
;	COMDAT ??_R1A@?0A@EA@ISheduled@@8
rdata$r	SEGMENT
??_R1A@?0A@EA@ISheduled@@8 DD FLAT:??_R0?AVISheduled@@@8 ; ISheduled::`RTTI Base Class Descriptor at (0,-1,0,64)'
	DD	00H
	DD	00H
	DD	0ffffffffH
	DD	00H
	DD	040H
	DD	FLAT:??_R3ISheduled@@8
rdata$r	ENDS
;	COMDAT ??_R0?AVISheduled@@@8
_DATA	SEGMENT
??_R0?AVISheduled@@@8 DD FLAT:??_7type_info@@6B@	; ISheduled `RTTI Type Descriptor'
	DD	00H
	DB	'.?AVISheduled@@', 00H
_DATA	ENDS
;	COMDAT ??_7IEventReceiver@@6B@
CONST	SEGMENT
??_7IEventReceiver@@6B@ DD FLAT:??_R4IEventReceiver@@6B@ ; IEventReceiver::`vftable'
	DD	FLAT:__purecall
CONST	ENDS
;	COMDAT ??_R4IEventReceiver@@6B@
rdata$r	SEGMENT
??_R4IEventReceiver@@6B@ DD 00H				; IEventReceiver::`RTTI Complete Object Locator'
	DD	00H
	DD	00H
	DD	FLAT:??_R0?AVIEventReceiver@@@8
	DD	FLAT:??_R3IEventReceiver@@8
rdata$r	ENDS
;	COMDAT ??_R3IEventReceiver@@8
rdata$r	SEGMENT
??_R3IEventReceiver@@8 DD 00H				; IEventReceiver::`RTTI Class Hierarchy Descriptor'
	DD	00H
	DD	01H
	DD	FLAT:??_R2IEventReceiver@@8
rdata$r	ENDS
;	COMDAT ??_R2IEventReceiver@@8
rdata$r	SEGMENT
??_R2IEventReceiver@@8 DD FLAT:??_R1A@?0A@EA@IEventReceiver@@8 ; IEventReceiver::`RTTI Base Class Array'
rdata$r	ENDS
;	COMDAT ??_R1A@?0A@EA@IEventReceiver@@8
rdata$r	SEGMENT
??_R1A@?0A@EA@IEventReceiver@@8 DD FLAT:??_R0?AVIEventReceiver@@@8 ; IEventReceiver::`RTTI Base Class Descriptor at (0,-1,0,64)'
	DD	00H
	DD	00H
	DD	0ffffffffH
	DD	00H
	DD	040H
	DD	FLAT:??_R3IEventReceiver@@8
rdata$r	ENDS
;	COMDAT ??_R0?AVIEventReceiver@@@8
_DATA	SEGMENT
??_R0?AVIEventReceiver@@@8 DD FLAT:??_7type_info@@6B@	; IEventReceiver `RTTI Type Descriptor'
	DD	00H
	DB	'.?AVIEventReceiver@@', 00H
_DATA	ENDS
;	COMDAT ??_7DLL_Pure@@6B@
CONST	SEGMENT
??_7DLL_Pure@@6B@ DD FLAT:??_R4DLL_Pure@@6B@		; DLL_Pure::`vftable'
	DD	FLAT:?_construct@DLL_Pure@@UAEPAV1@XZ
	DD	FLAT:??_EDLL_Pure@@UAEPAXI@Z
CONST	ENDS
;	COMDAT ??_R4DLL_Pure@@6B@
rdata$r	SEGMENT
??_R4DLL_Pure@@6B@ DD 00H				; DLL_Pure::`RTTI Complete Object Locator'
	DD	00H
	DD	00H
	DD	FLAT:??_R0?AVDLL_Pure@@@8
	DD	FLAT:??_R3DLL_Pure@@8
rdata$r	ENDS
;	COMDAT ??_R3DLL_Pure@@8
rdata$r	SEGMENT
??_R3DLL_Pure@@8 DD 00H					; DLL_Pure::`RTTI Class Hierarchy Descriptor'
	DD	00H
	DD	01H
	DD	FLAT:??_R2DLL_Pure@@8
rdata$r	ENDS
;	COMDAT ??_R2DLL_Pure@@8
rdata$r	SEGMENT
??_R2DLL_Pure@@8 DD FLAT:??_R1A@?0A@EA@DLL_Pure@@8	; DLL_Pure::`RTTI Base Class Array'
rdata$r	ENDS
;	COMDAT ??_R1A@?0A@EA@DLL_Pure@@8
rdata$r	SEGMENT
??_R1A@?0A@EA@DLL_Pure@@8 DD FLAT:??_R0?AVDLL_Pure@@@8	; DLL_Pure::`RTTI Base Class Descriptor at (0,-1,0,64)'
	DD	00H
	DD	00H
	DD	0ffffffffH
	DD	00H
	DD	040H
	DD	FLAT:??_R3DLL_Pure@@8
rdata$r	ENDS
;	COMDAT ??_R0?AVDLL_Pure@@@8
_DATA	SEGMENT
??_R0?AVDLL_Pure@@@8 DD FLAT:??_7type_info@@6B@		; DLL_Pure `RTTI Type Descriptor'
	DD	00H
	DB	'.?AVDLL_Pure@@', 00H
_DATA	ENDS
;	COMDAT ??_C@_07CIFAGBMG@unknown?$AA@
CONST	SEGMENT
??_C@_07CIFAGBMG@unknown?$AA@ DB 'unknown', 00H		; `string'
CONST	ENDS
;	COMDAT ??_C@_0P@GHFPNOJB@bad?5allocation?$AA@
CONST	SEGMENT
??_C@_0P@GHFPNOJB@bad?5allocation?$AA@ DB 'bad allocation', 00H ; `string'
	ORG $+3
__bad_alloc_Message DD FLAT:??_C@_0P@GHFPNOJB@bad?5allocation?$AA@
_EPS_L	DD	03a83126fr			; 0.001
; Function compile flags: /Ogtpy
; File d:\clearsky\sources\sdk\include\stlport\stl\_iterator.h
;	COMDAT ?base@?$reverse_iterator@PAUItem@CSheduler@@@stlp_std@@QBEPAUItem@CSheduler@@XZ
_TEXT	SEGMENT
?base@?$reverse_iterator@PAUItem@CSheduler@@@stlp_std@@QBEPAUItem@CSheduler@@XZ PROC ; stlp_std::reverse_iterator<CSheduler::Item *>::base, COMDAT
; _this$ = eax

; 75   :   iterator_type base() const { return current; }

	mov	eax, DWORD PTR [eax]
	ret	0
?base@?$reverse_iterator@PAUItem@CSheduler@@@stlp_std@@QBEPAUItem@CSheduler@@XZ ENDP ; stlp_std::reverse_iterator<CSheduler::Item *>::base
; Function compile flags: /Ogtpy
_TEXT	ENDS
;	COMDAT ?base@?$reverse_iterator@PAVshared_str@@@stlp_std@@QBEPAVshared_str@@XZ
_TEXT	SEGMENT
?base@?$reverse_iterator@PAVshared_str@@@stlp_std@@QBEPAVshared_str@@XZ PROC ; stlp_std::reverse_iterator<shared_str *>::base, COMDAT
; _this$ = eax

; 75   :   iterator_type base() const { return current; }

	mov	eax, DWORD PTR [eax]
	ret	0
?base@?$reverse_iterator@PAVshared_str@@@stlp_std@@QBEPAVshared_str@@XZ ENDP ; stlp_std::reverse_iterator<shared_str *>::base
; Function compile flags: /Ogtpy
_TEXT	ENDS
;	COMDAT ??$?8PAUItem@CSheduler@@@stlp_std@@YA_NABV?$reverse_iterator@PAUItem@CSheduler@@@0@0@Z
_TEXT	SEGMENT
??$?8PAUItem@CSheduler@@@stlp_std@@YA_NABV?$reverse_iterator@PAUItem@CSheduler@@@0@0@Z PROC ; stlp_std::operator==<CSheduler::Item *>, COMDAT
; ___x$ = eax
; ___y$ = edx

; 116  : { return __x.base() == __y.base(); }

	mov	ecx, DWORD PTR [eax]
	xor	eax, eax
	cmp	ecx, DWORD PTR [edx]
	sete	al
	ret	0
??$?8PAUItem@CSheduler@@@stlp_std@@YA_NABV?$reverse_iterator@PAUItem@CSheduler@@@0@0@Z ENDP ; stlp_std::operator==<CSheduler::Item *>
; Function compile flags: /Ogtpy
_TEXT	ENDS
;	COMDAT ??$?8PAVshared_str@@@stlp_std@@YA_NABV?$reverse_iterator@PAVshared_str@@@0@0@Z
_TEXT	SEGMENT
??$?8PAVshared_str@@@stlp_std@@YA_NABV?$reverse_iterator@PAVshared_str@@@0@0@Z PROC ; stlp_std::operator==<shared_str *>, COMDAT
; ___x$ = eax
; ___y$ = edx

; 116  : { return __x.base() == __y.base(); }

	mov	ecx, DWORD PTR [eax]
	xor	eax, eax
	cmp	ecx, DWORD PTR [edx]
	sete	al
	ret	0
??$?8PAVshared_str@@@stlp_std@@YA_NABV?$reverse_iterator@PAVshared_str@@@0@0@Z ENDP ; stlp_std::operator==<shared_str *>
; Function compile flags: /Ogtpy
; File d:\clearsky\sources\sdk\include\stlport\stl\type_traits.h
_TEXT	ENDS
;	COMDAT ??$_UseTrivialUCopy@V?$FastDelegate0@X@fastdelegate@@V12@@stlp_std@@YA?AU?$_TrivialUCopy@V?$FastDelegate0@X@fastdelegate@@V12@@0@PAV?$FastDelegate0@X@fastdelegate@@0@Z
_TEXT	SEGMENT
??$_UseTrivialUCopy@V?$FastDelegate0@X@fastdelegate@@V12@@stlp_std@@YA?AU?$_TrivialUCopy@V?$FastDelegate0@X@fastdelegate@@V12@@0@PAV?$FastDelegate0@X@fastdelegate@@0@Z PROC ; stlp_std::_UseTrivialUCopy<fastdelegate::FastDelegate0<void>,fastdelegate::FastDelegate0<void> >, COMDAT

; 489  : { return _TrivialUCopy<_Src, _Dst>(); }

	xor	al, al
	ret	0
??$_UseTrivialUCopy@V?$FastDelegate0@X@fastdelegate@@V12@@stlp_std@@YA?AU?$_TrivialUCopy@V?$FastDelegate0@X@fastdelegate@@V12@@0@PAV?$FastDelegate0@X@fastdelegate@@0@Z ENDP ; stlp_std::_UseTrivialUCopy<fastdelegate::FastDelegate0<void>,fastdelegate::FastDelegate0<void> >
; Function compile flags: /Ogtpy
_TEXT	ENDS
;	COMDAT ??$_UseTrivialUCopy@U_REG_INFO@@U1@@stlp_std@@YA?AU?$_TrivialUCopy@U_REG_INFO@@U1@@0@PAU_REG_INFO@@0@Z
_TEXT	SEGMENT
??$_UseTrivialUCopy@U_REG_INFO@@U1@@stlp_std@@YA?AU?$_TrivialUCopy@U_REG_INFO@@U1@@0@PAU_REG_INFO@@0@Z PROC ; stlp_std::_UseTrivialUCopy<_REG_INFO,_REG_INFO>, COMDAT

; 489  : { return _TrivialUCopy<_Src, _Dst>(); }

	xor	al, al
	ret	0
??$_UseTrivialUCopy@U_REG_INFO@@U1@@stlp_std@@YA?AU?$_TrivialUCopy@U_REG_INFO@@U1@@0@PAU_REG_INFO@@0@Z ENDP ; stlp_std::_UseTrivialUCopy<_REG_INFO,_REG_INFO>
; Function compile flags: /Ogtpy
_TEXT	ENDS
;	COMDAT ??$_UseTrivialUCopy@UItemReg@CSheduler@@U12@@stlp_std@@YA?AU?$_TrivialUCopy@UItemReg@CSheduler@@U12@@0@PAUItemReg@CSheduler@@0@Z
_TEXT	SEGMENT
??$_UseTrivialUCopy@UItemReg@CSheduler@@U12@@stlp_std@@YA?AU?$_TrivialUCopy@UItemReg@CSheduler@@U12@@0@PAUItemReg@CSheduler@@0@Z PROC ; stlp_std::_UseTrivialUCopy<CSheduler::ItemReg,CSheduler::ItemReg>, COMDAT

; 489  : { return _TrivialUCopy<_Src, _Dst>(); }

	xor	al, al
	ret	0
??$_UseTrivialUCopy@UItemReg@CSheduler@@U12@@stlp_std@@YA?AU?$_TrivialUCopy@UItemReg@CSheduler@@U12@@0@PAUItemReg@CSheduler@@0@Z ENDP ; stlp_std::_UseTrivialUCopy<CSheduler::ItemReg,CSheduler::ItemReg>
; Function compile flags: /Ogtpy
_TEXT	ENDS
;	COMDAT ??$_UseTrivialUCopy@UItem@CSheduler@@U12@@stlp_std@@YA?AU?$_TrivialUCopy@UItem@CSheduler@@U12@@0@PAUItem@CSheduler@@0@Z
_TEXT	SEGMENT
??$_UseTrivialUCopy@UItem@CSheduler@@U12@@stlp_std@@YA?AU?$_TrivialUCopy@UItem@CSheduler@@U12@@0@PAUItem@CSheduler@@0@Z PROC ; stlp_std::_UseTrivialUCopy<CSheduler::Item,CSheduler::Item>, COMDAT

; 489  : { return _TrivialUCopy<_Src, _Dst>(); }

	xor	al, al
	ret	0
??$_UseTrivialUCopy@UItem@CSheduler@@U12@@stlp_std@@YA?AU?$_TrivialUCopy@UItem@CSheduler@@U12@@0@PAUItem@CSheduler@@0@Z ENDP ; stlp_std::_UseTrivialUCopy<CSheduler::Item,CSheduler::Item>
; Function compile flags: /Ogtpy
_TEXT	ENDS
;	COMDAT ??$_UseTrivialUCopy@UDeferred@CEventAPI@@U12@@stlp_std@@YA?AU?$_TrivialUCopy@UDeferred@CEventAPI@@U12@@0@PAUDeferred@CEventAPI@@0@Z
_TEXT	SEGMENT
??$_UseTrivialUCopy@UDeferred@CEventAPI@@U12@@stlp_std@@YA?AU?$_TrivialUCopy@UDeferred@CEventAPI@@U12@@0@PAUDeferred@CEventAPI@@0@Z PROC ; stlp_std::_UseTrivialUCopy<CEventAPI::Deferred,CEventAPI::Deferred>, COMDAT

; 489  : { return _TrivialUCopy<_Src, _Dst>(); }

	xor	al, al
	ret	0
??$_UseTrivialUCopy@UDeferred@CEventAPI@@U12@@stlp_std@@YA?AU?$_TrivialUCopy@UDeferred@CEventAPI@@U12@@0@PAUDeferred@CEventAPI@@0@Z ENDP ; stlp_std::_UseTrivialUCopy<CEventAPI::Deferred,CEventAPI::Deferred>
; Function compile flags: /Ogtpy
_TEXT	ENDS
;	COMDAT ??$_UseTrivialUCopy@Vshared_str@@V1@@stlp_std@@YA?AU?$_TrivialUCopy@Vshared_str@@V1@@0@PAVshared_str@@0@Z
_TEXT	SEGMENT
??$_UseTrivialUCopy@Vshared_str@@V1@@stlp_std@@YA?AU?$_TrivialUCopy@Vshared_str@@V1@@0@PAVshared_str@@0@Z PROC ; stlp_std::_UseTrivialUCopy<shared_str,shared_str>, COMDAT

; 489  : { return _TrivialUCopy<_Src, _Dst>(); }

	xor	al, al
	ret	0
??$_UseTrivialUCopy@Vshared_str@@V1@@stlp_std@@YA?AU?$_TrivialUCopy@Vshared_str@@V1@@0@PAVshared_str@@0@Z ENDP ; stlp_std::_UseTrivialUCopy<shared_str,shared_str>
; Function compile flags: /Ogtpy
_TEXT	ENDS
;	COMDAT ??$_UseTrivialUCopy@PAXPAX@stlp_std@@YA?AU?$_TrivialUCopy@PAXPAX@0@PAPAX0@Z
_TEXT	SEGMENT
??$_UseTrivialUCopy@PAXPAX@stlp_std@@YA?AU?$_TrivialUCopy@PAXPAX@0@PAPAX0@Z PROC ; stlp_std::_UseTrivialUCopy<void *,void *>, COMDAT

; 489  : { return _TrivialUCopy<_Src, _Dst>(); }

	xor	al, al
	ret	0
??$_UseTrivialUCopy@PAXPAX@stlp_std@@YA?AU?$_TrivialUCopy@PAXPAX@0@PAPAX0@Z ENDP ; stlp_std::_UseTrivialUCopy<void *,void *>
; Function compile flags: /Ogtpy
_TEXT	ENDS
;	COMDAT ?_Answer@?$_TrivialUCopy@V?$FastDelegate0@X@fastdelegate@@V12@@stlp_std@@SA?AU__false_type@2@XZ
_TEXT	SEGMENT
?_Answer@?$_TrivialUCopy@V?$FastDelegate0@X@fastdelegate@@V12@@stlp_std@@SA?AU__false_type@2@XZ PROC ; stlp_std::_TrivialUCopy<fastdelegate::FastDelegate0<void>,fastdelegate::FastDelegate0<void> >::_Answer, COMDAT

; 407  :   static _Ret _Answer() { return _Ret(); }

	xor	al, al
	ret	0
?_Answer@?$_TrivialUCopy@V?$FastDelegate0@X@fastdelegate@@V12@@stlp_std@@SA?AU__false_type@2@XZ ENDP ; stlp_std::_TrivialUCopy<fastdelegate::FastDelegate0<void>,fastdelegate::FastDelegate0<void> >::_Answer
; Function compile flags: /Ogtpy
_TEXT	ENDS
;	COMDAT ?_Answer@?$_TrivialUCopy@U_REG_INFO@@U1@@stlp_std@@SA?AU__true_type@2@XZ
_TEXT	SEGMENT
?_Answer@?$_TrivialUCopy@U_REG_INFO@@U1@@stlp_std@@SA?AU__true_type@2@XZ PROC ; stlp_std::_TrivialUCopy<_REG_INFO,_REG_INFO>::_Answer, COMDAT

; 407  :   static _Ret _Answer() { return _Ret(); }

	xor	al, al
	ret	0
?_Answer@?$_TrivialUCopy@U_REG_INFO@@U1@@stlp_std@@SA?AU__true_type@2@XZ ENDP ; stlp_std::_TrivialUCopy<_REG_INFO,_REG_INFO>::_Answer
; Function compile flags: /Ogtpy
_TEXT	ENDS
;	COMDAT ?_Answer@?$_TrivialUCopy@UItemReg@CSheduler@@U12@@stlp_std@@SA?AU__true_type@2@XZ
_TEXT	SEGMENT
?_Answer@?$_TrivialUCopy@UItemReg@CSheduler@@U12@@stlp_std@@SA?AU__true_type@2@XZ PROC ; stlp_std::_TrivialUCopy<CSheduler::ItemReg,CSheduler::ItemReg>::_Answer, COMDAT

; 407  :   static _Ret _Answer() { return _Ret(); }

	xor	al, al
	ret	0
?_Answer@?$_TrivialUCopy@UItemReg@CSheduler@@U12@@stlp_std@@SA?AU__true_type@2@XZ ENDP ; stlp_std::_TrivialUCopy<CSheduler::ItemReg,CSheduler::ItemReg>::_Answer
; Function compile flags: /Ogtpy
_TEXT	ENDS
;	COMDAT ?_Answer@?$_TrivialUCopy@UItem@CSheduler@@U12@@stlp_std@@SA?AU__false_type@2@XZ
_TEXT	SEGMENT
?_Answer@?$_TrivialUCopy@UItem@CSheduler@@U12@@stlp_std@@SA?AU__false_type@2@XZ PROC ; stlp_std::_TrivialUCopy<CSheduler::Item,CSheduler::Item>::_Answer, COMDAT

; 407  :   static _Ret _Answer() { return _Ret(); }

	xor	al, al
	ret	0
?_Answer@?$_TrivialUCopy@UItem@CSheduler@@U12@@stlp_std@@SA?AU__false_type@2@XZ ENDP ; stlp_std::_TrivialUCopy<CSheduler::Item,CSheduler::Item>::_Answer
; Function compile flags: /Ogtpy
_TEXT	ENDS
;	COMDAT ?_Answer@?$_TrivialUCopy@UDeferred@CEventAPI@@U12@@stlp_std@@SA?AU__true_type@2@XZ
_TEXT	SEGMENT
?_Answer@?$_TrivialUCopy@UDeferred@CEventAPI@@U12@@stlp_std@@SA?AU__true_type@2@XZ PROC ; stlp_std::_TrivialUCopy<CEventAPI::Deferred,CEventAPI::Deferred>::_Answer, COMDAT

; 407  :   static _Ret _Answer() { return _Ret(); }

	xor	al, al
	ret	0
?_Answer@?$_TrivialUCopy@UDeferred@CEventAPI@@U12@@stlp_std@@SA?AU__true_type@2@XZ ENDP ; stlp_std::_TrivialUCopy<CEventAPI::Deferred,CEventAPI::Deferred>::_Answer
; Function compile flags: /Ogtpy
_TEXT	ENDS
;	COMDAT ?_Answer@?$_TrivialUCopy@Vshared_str@@V1@@stlp_std@@SA?AU__false_type@2@XZ
_TEXT	SEGMENT
?_Answer@?$_TrivialUCopy@Vshared_str@@V1@@stlp_std@@SA?AU__false_type@2@XZ PROC ; stlp_std::_TrivialUCopy<shared_str,shared_str>::_Answer, COMDAT

; 407  :   static _Ret _Answer() { return _Ret(); }

	xor	al, al
	ret	0
?_Answer@?$_TrivialUCopy@Vshared_str@@V1@@stlp_std@@SA?AU__false_type@2@XZ ENDP ; stlp_std::_TrivialUCopy<shared_str,shared_str>::_Answer
; Function compile flags: /Ogtpy
_TEXT	ENDS
;	COMDAT ?_Answer@?$_TrivialUCopy@PAXPAX@stlp_std@@SA?AU__true_type@2@XZ
_TEXT	SEGMENT
?_Answer@?$_TrivialUCopy@PAXPAX@stlp_std@@SA?AU__true_type@2@XZ PROC ; stlp_std::_TrivialUCopy<void *,void *>::_Answer, COMDAT

; 407  :   static _Ret _Answer() { return _Ret(); }

	xor	al, al
	ret	0
?_Answer@?$_TrivialUCopy@PAXPAX@stlp_std@@SA?AU__true_type@2@XZ ENDP ; stlp_std::_TrivialUCopy<void *,void *>::_Answer
; Function compile flags: /Ogtpy
; File d:\clearsky\sources\sdk\include\stlport\stl\_iterator.h
_TEXT	ENDS
;	COMDAT ??$?9PAUItem@CSheduler@@@stlp_std@@YA_NABV?$reverse_iterator@PAUItem@CSheduler@@@0@0@Z
_TEXT	SEGMENT
??$?9PAUItem@CSheduler@@@stlp_std@@YA_NABV?$reverse_iterator@PAUItem@CSheduler@@@0@0@Z PROC ; stlp_std::operator!=<CSheduler::Item *>, COMDAT
; ___x$ = eax
; ___y$ = edx

; 127  : { return !(__x == __y); }

	mov	ecx, DWORD PTR [eax]
	xor	eax, eax
	cmp	ecx, DWORD PTR [edx]
	setne	al
	ret	0
??$?9PAUItem@CSheduler@@@stlp_std@@YA_NABV?$reverse_iterator@PAUItem@CSheduler@@@0@0@Z ENDP ; stlp_std::operator!=<CSheduler::Item *>
; Function compile flags: /Ogtpy
_TEXT	ENDS
;	COMDAT ??$?9PAVshared_str@@@stlp_std@@YA_NABV?$reverse_iterator@PAVshared_str@@@0@0@Z
_TEXT	SEGMENT
??$?9PAVshared_str@@@stlp_std@@YA_NABV?$reverse_iterator@PAVshared_str@@@0@0@Z PROC ; stlp_std::operator!=<shared_str *>, COMDAT
; ___x$ = eax
; ___y$ = edx

; 127  : { return !(__x == __y); }

	mov	ecx, DWORD PTR [eax]
	xor	eax, eax
	cmp	ecx, DWORD PTR [edx]
	setne	al
	ret	0
??$?9PAVshared_str@@@stlp_std@@YA_NABV?$reverse_iterator@PAVshared_str@@@0@0@Z ENDP ; stlp_std::operator!=<shared_str *>
; Function compile flags: /Ogtpy
; File d:\clearsky\sources\sdk\include\stlport\stl\_construct.h
_TEXT	ENDS
;	COMDAT ??$__destroy_range_aux@PAV?$FastDelegate0@X@fastdelegate@@V12@@stlp_std@@YAXPAV?$FastDelegate0@X@fastdelegate@@00ABU__true_type@0@@Z
_TEXT	SEGMENT
??$__destroy_range_aux@PAV?$FastDelegate0@X@fastdelegate@@V12@@stlp_std@@YAXPAV?$FastDelegate0@X@fastdelegate@@00ABU__true_type@0@@Z PROC ; stlp_std::__destroy_range_aux<fastdelegate::FastDelegate0<void> *,fastdelegate::FastDelegate0<void> >, COMDAT

; 169  : __destroy_range_aux(_ForwardIterator, _ForwardIterator, _Tp*, const __true_type& /*_Trivial_destructor*/) {}

	ret	0
??$__destroy_range_aux@PAV?$FastDelegate0@X@fastdelegate@@V12@@stlp_std@@YAXPAV?$FastDelegate0@X@fastdelegate@@00ABU__true_type@0@@Z ENDP ; stlp_std::__destroy_range_aux<fastdelegate::FastDelegate0<void> *,fastdelegate::FastDelegate0<void> >
; Function compile flags: /Ogtpy
_TEXT	ENDS
;	COMDAT ??$__destroy_range_aux@PAU_REG_INFO@@U1@@stlp_std@@YAXPAU_REG_INFO@@00ABU__true_type@0@@Z
_TEXT	SEGMENT
??$__destroy_range_aux@PAU_REG_INFO@@U1@@stlp_std@@YAXPAU_REG_INFO@@00ABU__true_type@0@@Z PROC ; stlp_std::__destroy_range_aux<_REG_INFO *,_REG_INFO>, COMDAT

; 169  : __destroy_range_aux(_ForwardIterator, _ForwardIterator, _Tp*, const __true_type& /*_Trivial_destructor*/) {}

	ret	0
??$__destroy_range_aux@PAU_REG_INFO@@U1@@stlp_std@@YAXPAU_REG_INFO@@00ABU__true_type@0@@Z ENDP ; stlp_std::__destroy_range_aux<_REG_INFO *,_REG_INFO>
; Function compile flags: /Ogtpy
_TEXT	ENDS
;	COMDAT ??$__destroy_range_aux@PAUItemReg@CSheduler@@U12@@stlp_std@@YAXPAUItemReg@CSheduler@@00ABU__true_type@0@@Z
_TEXT	SEGMENT
??$__destroy_range_aux@PAUItemReg@CSheduler@@U12@@stlp_std@@YAXPAUItemReg@CSheduler@@00ABU__true_type@0@@Z PROC ; stlp_std::__destroy_range_aux<CSheduler::ItemReg *,CSheduler::ItemReg>, COMDAT

; 169  : __destroy_range_aux(_ForwardIterator, _ForwardIterator, _Tp*, const __true_type& /*_Trivial_destructor*/) {}

	ret	0
??$__destroy_range_aux@PAUItemReg@CSheduler@@U12@@stlp_std@@YAXPAUItemReg@CSheduler@@00ABU__true_type@0@@Z ENDP ; stlp_std::__destroy_range_aux<CSheduler::ItemReg *,CSheduler::ItemReg>
; Function compile flags: /Ogtpy
_TEXT	ENDS
;	COMDAT ??$__destroy_range_aux@PAUDeferred@CEventAPI@@U12@@stlp_std@@YAXPAUDeferred@CEventAPI@@00ABU__true_type@0@@Z
_TEXT	SEGMENT
??$__destroy_range_aux@PAUDeferred@CEventAPI@@U12@@stlp_std@@YAXPAUDeferred@CEventAPI@@00ABU__true_type@0@@Z PROC ; stlp_std::__destroy_range_aux<CEventAPI::Deferred *,CEventAPI::Deferred>, COMDAT

; 169  : __destroy_range_aux(_ForwardIterator, _ForwardIterator, _Tp*, const __true_type& /*_Trivial_destructor*/) {}

	ret	0
??$__destroy_range_aux@PAUDeferred@CEventAPI@@U12@@stlp_std@@YAXPAUDeferred@CEventAPI@@00ABU__true_type@0@@Z ENDP ; stlp_std::__destroy_range_aux<CEventAPI::Deferred *,CEventAPI::Deferred>
; Function compile flags: /Ogtpy
_TEXT	ENDS
;	COMDAT ??$__destroy_range_aux@PAPAXPAX@stlp_std@@YAXPAPAX00ABU__true_type@0@@Z
_TEXT	SEGMENT
??$__destroy_range_aux@PAPAXPAX@stlp_std@@YAXPAPAX00ABU__true_type@0@@Z PROC ; stlp_std::__destroy_range_aux<void * *,void *>, COMDAT

; 169  : __destroy_range_aux(_ForwardIterator, _ForwardIterator, _Tp*, const __true_type& /*_Trivial_destructor*/) {}

	ret	0
??$__destroy_range_aux@PAPAXPAX@stlp_std@@YAXPAPAX00ABU__true_type@0@@Z ENDP ; stlp_std::__destroy_range_aux<void * *,void *>
; Function compile flags: /Ogtpy
; File d:\clearsky\sources\sdk\include\stlport\stl\type_traits.h
_TEXT	ENDS
;	COMDAT ?_Answer@?$_BothPtrType@PBV?$FastDelegate0@X@fastdelegate@@PAV12@@stlp_std@@SA?AU__true_type@2@XZ
_TEXT	SEGMENT
?_Answer@?$_BothPtrType@PBV?$FastDelegate0@X@fastdelegate@@PAV12@@stlp_std@@SA?AU__true_type@2@XZ PROC ; stlp_std::_BothPtrType<fastdelegate::FastDelegate0<void> const *,fastdelegate::FastDelegate0<void> *>::_Answer, COMDAT

; 468  :   static _Ret _Answer() { return _Ret(); }

	xor	al, al
	ret	0
?_Answer@?$_BothPtrType@PBV?$FastDelegate0@X@fastdelegate@@PAV12@@stlp_std@@SA?AU__true_type@2@XZ ENDP ; stlp_std::_BothPtrType<fastdelegate::FastDelegate0<void> const *,fastdelegate::FastDelegate0<void> *>::_Answer
; Function compile flags: /Ogtpy
_TEXT	ENDS
;	COMDAT ?_Answer@?$_BothPtrType@PBU_REG_INFO@@PAU1@@stlp_std@@SA?AU__true_type@2@XZ
_TEXT	SEGMENT
?_Answer@?$_BothPtrType@PBU_REG_INFO@@PAU1@@stlp_std@@SA?AU__true_type@2@XZ PROC ; stlp_std::_BothPtrType<_REG_INFO const *,_REG_INFO *>::_Answer, COMDAT

; 468  :   static _Ret _Answer() { return _Ret(); }

	xor	al, al
	ret	0
?_Answer@?$_BothPtrType@PBU_REG_INFO@@PAU1@@stlp_std@@SA?AU__true_type@2@XZ ENDP ; stlp_std::_BothPtrType<_REG_INFO const *,_REG_INFO *>::_Answer
; Function compile flags: /Ogtpy
_TEXT	ENDS
;	COMDAT ?_Answer@?$_BothPtrType@PBUItemReg@CSheduler@@PAU12@@stlp_std@@SA?AU__true_type@2@XZ
_TEXT	SEGMENT
?_Answer@?$_BothPtrType@PBUItemReg@CSheduler@@PAU12@@stlp_std@@SA?AU__true_type@2@XZ PROC ; stlp_std::_BothPtrType<CSheduler::ItemReg const *,CSheduler::ItemReg *>::_Answer, COMDAT

; 468  :   static _Ret _Answer() { return _Ret(); }

	xor	al, al
	ret	0
?_Answer@?$_BothPtrType@PBUItemReg@CSheduler@@PAU12@@stlp_std@@SA?AU__true_type@2@XZ ENDP ; stlp_std::_BothPtrType<CSheduler::ItemReg const *,CSheduler::ItemReg *>::_Answer
; Function compile flags: /Ogtpy
_TEXT	ENDS
;	COMDAT ?_Answer@?$_BothPtrType@PBUItem@CSheduler@@PAU12@@stlp_std@@SA?AU__true_type@2@XZ
_TEXT	SEGMENT
?_Answer@?$_BothPtrType@PBUItem@CSheduler@@PAU12@@stlp_std@@SA?AU__true_type@2@XZ PROC ; stlp_std::_BothPtrType<CSheduler::Item const *,CSheduler::Item *>::_Answer, COMDAT

; 468  :   static _Ret _Answer() { return _Ret(); }

	xor	al, al
	ret	0
?_Answer@?$_BothPtrType@PBUItem@CSheduler@@PAU12@@stlp_std@@SA?AU__true_type@2@XZ ENDP ; stlp_std::_BothPtrType<CSheduler::Item const *,CSheduler::Item *>::_Answer
; Function compile flags: /Ogtpy
_TEXT	ENDS
;	COMDAT ?_Answer@?$_BothPtrType@PBUDeferred@CEventAPI@@PAU12@@stlp_std@@SA?AU__true_type@2@XZ
_TEXT	SEGMENT
?_Answer@?$_BothPtrType@PBUDeferred@CEventAPI@@PAU12@@stlp_std@@SA?AU__true_type@2@XZ PROC ; stlp_std::_BothPtrType<CEventAPI::Deferred const *,CEventAPI::Deferred *>::_Answer, COMDAT

; 468  :   static _Ret _Answer() { return _Ret(); }

	xor	al, al
	ret	0
?_Answer@?$_BothPtrType@PBUDeferred@CEventAPI@@PAU12@@stlp_std@@SA?AU__true_type@2@XZ ENDP ; stlp_std::_BothPtrType<CEventAPI::Deferred const *,CEventAPI::Deferred *>::_Answer
; Function compile flags: /Ogtpy
_TEXT	ENDS
;	COMDAT ?_Answer@?$_BothPtrType@PBVshared_str@@PAV1@@stlp_std@@SA?AU__true_type@2@XZ
_TEXT	SEGMENT
?_Answer@?$_BothPtrType@PBVshared_str@@PAV1@@stlp_std@@SA?AU__true_type@2@XZ PROC ; stlp_std::_BothPtrType<shared_str const *,shared_str *>::_Answer, COMDAT

; 468  :   static _Ret _Answer() { return _Ret(); }

	xor	al, al
	ret	0
?_Answer@?$_BothPtrType@PBVshared_str@@PAV1@@stlp_std@@SA?AU__true_type@2@XZ ENDP ; stlp_std::_BothPtrType<shared_str const *,shared_str *>::_Answer
; Function compile flags: /Ogtpy
_TEXT	ENDS
;	COMDAT ?_Answer@?$_BothPtrType@PBQAXPAPAX@stlp_std@@SA?AU__true_type@2@XZ
_TEXT	SEGMENT
?_Answer@?$_BothPtrType@PBQAXPAPAX@stlp_std@@SA?AU__true_type@2@XZ PROC ; stlp_std::_BothPtrType<void * const *,void * *>::_Answer, COMDAT

; 468  :   static _Ret _Answer() { return _Ret(); }

	xor	al, al
	ret	0
?_Answer@?$_BothPtrType@PBQAXPAPAX@stlp_std@@SA?AU__true_type@2@XZ ENDP ; stlp_std::_BothPtrType<void * const *,void * *>::_Answer
; Function compile flags: /Ogtpy
; File d:\clearsky\sources\sdk\include\stlport\stl\_iterator.h
_TEXT	ENDS
;	COMDAT ??E?$reverse_iterator@PAUItem@CSheduler@@@stlp_std@@QAEAAV01@XZ
_TEXT	SEGMENT
??E?$reverse_iterator@PAUItem@CSheduler@@@stlp_std@@QAEAAV01@XZ PROC ; stlp_std::reverse_iterator<CSheduler::Item *>::operator++, COMDAT
; _this$ = eax

; 82   :     --current;

	add	DWORD PTR [eax], -20			; ffffffecH

; 83   :     return *this;
; 84   :   }

	ret	0
??E?$reverse_iterator@PAUItem@CSheduler@@@stlp_std@@QAEAAV01@XZ ENDP ; stlp_std::reverse_iterator<CSheduler::Item *>::operator++
; Function compile flags: /Ogtpy
_TEXT	ENDS
;	COMDAT ??D?$reverse_iterator@PAUItem@CSheduler@@@stlp_std@@QBEAAUItem@CSheduler@@XZ
_TEXT	SEGMENT
??D?$reverse_iterator@PAUItem@CSheduler@@@stlp_std@@QBEAAUItem@CSheduler@@XZ PROC ; stlp_std::reverse_iterator<CSheduler::Item *>::operator*, COMDAT
; _this$ = eax

; 77   :     _Iterator __tmp = current;
; 78   :     return *--__tmp;

	mov	eax, DWORD PTR [eax]
	sub	eax, 20					; 00000014H

; 79   :   }

	ret	0
??D?$reverse_iterator@PAUItem@CSheduler@@@stlp_std@@QBEAAUItem@CSheduler@@XZ ENDP ; stlp_std::reverse_iterator<CSheduler::Item *>::operator*
; Function compile flags: /Ogtpy
_TEXT	ENDS
;	COMDAT ??E?$reverse_iterator@PAVshared_str@@@stlp_std@@QAEAAV01@XZ
_TEXT	SEGMENT
??E?$reverse_iterator@PAVshared_str@@@stlp_std@@QAEAAV01@XZ PROC ; stlp_std::reverse_iterator<shared_str *>::operator++, COMDAT
; _this$ = eax

; 82   :     --current;

	add	DWORD PTR [eax], -4			; fffffffcH

; 83   :     return *this;
; 84   :   }

	ret	0
??E?$reverse_iterator@PAVshared_str@@@stlp_std@@QAEAAV01@XZ ENDP ; stlp_std::reverse_iterator<shared_str *>::operator++
; Function compile flags: /Ogtpy
_TEXT	ENDS
;	COMDAT ??D?$reverse_iterator@PAVshared_str@@@stlp_std@@QBEAAVshared_str@@XZ
_TEXT	SEGMENT
??D?$reverse_iterator@PAVshared_str@@@stlp_std@@QBEAAVshared_str@@XZ PROC ; stlp_std::reverse_iterator<shared_str *>::operator*, COMDAT
; _this$ = eax

; 77   :     _Iterator __tmp = current;
; 78   :     return *--__tmp;

	mov	eax, DWORD PTR [eax]
	sub	eax, 4

; 79   :   }

	ret	0
??D?$reverse_iterator@PAVshared_str@@@stlp_std@@QBEAAVshared_str@@XZ ENDP ; stlp_std::reverse_iterator<shared_str *>::operator*
; Function compile flags: /Ogtpy
; File d:\clearsky\sources\engine\xrcore\xrmemory.h
_TEXT	ENDS
;	COMDAT ??$xr_alloc@V?$FastDelegate0@X@fastdelegate@@@@YAPAV?$FastDelegate0@X@fastdelegate@@I@Z
_TEXT	SEGMENT
??$xr_alloc@V?$FastDelegate0@X@fastdelegate@@@@YAPAV?$FastDelegate0@X@fastdelegate@@I@Z PROC ; xr_alloc<fastdelegate::FastDelegate0<void> >, COMDAT
; _count$ = eax

; 109  : 	IC T*		xr_alloc	(u32 count)				{	return  (T*)Memory.mem_alloc(count*sizeof(T));	}

	lea	ecx, DWORD PTR [eax*8]
	push	ecx
	mov	ecx, DWORD PTR __imp_?Memory@@3VxrMemory@@A
	call	DWORD PTR __imp_?mem_alloc@xrMemory@@QAEPAXI@Z
	ret	0
??$xr_alloc@V?$FastDelegate0@X@fastdelegate@@@@YAPAV?$FastDelegate0@X@fastdelegate@@I@Z ENDP ; xr_alloc<fastdelegate::FastDelegate0<void> >
; Function compile flags: /Ogtpy
_TEXT	ENDS
;	COMDAT ??$xr_alloc@UDeferred@CEventAPI@@@@YAPAUDeferred@CEventAPI@@I@Z
_TEXT	SEGMENT
??$xr_alloc@UDeferred@CEventAPI@@@@YAPAUDeferred@CEventAPI@@I@Z PROC ; xr_alloc<CEventAPI::Deferred>, COMDAT
; _count$ = eax

; 109  : 	IC T*		xr_alloc	(u32 count)				{	return  (T*)Memory.mem_alloc(count*sizeof(T));	}

	mov	ecx, DWORD PTR __imp_?Memory@@3VxrMemory@@A
	lea	eax, DWORD PTR [eax+eax*2]
	add	eax, eax
	add	eax, eax
	add	eax, eax
	push	eax
	call	DWORD PTR __imp_?mem_alloc@xrMemory@@QAEPAXI@Z
	ret	0
??$xr_alloc@UDeferred@CEventAPI@@@@YAPAUDeferred@CEventAPI@@I@Z ENDP ; xr_alloc<CEventAPI::Deferred>
; Function compile flags: /Ogtpy
_TEXT	ENDS
;	COMDAT ??$xr_alloc@PAX@@YAPAPAXI@Z
_TEXT	SEGMENT
??$xr_alloc@PAX@@YAPAPAXI@Z PROC			; xr_alloc<void *>, COMDAT
; _count$ = eax

; 109  : 	IC T*		xr_alloc	(u32 count)				{	return  (T*)Memory.mem_alloc(count*sizeof(T));	}

	lea	ecx, DWORD PTR [eax*4]
	push	ecx
	mov	ecx, DWORD PTR __imp_?Memory@@3VxrMemory@@A
	call	DWORD PTR __imp_?mem_alloc@xrMemory@@QAEPAXI@Z
	ret	0
??$xr_alloc@PAX@@YAPAPAXI@Z ENDP			; xr_alloc<void *>
; Function compile flags: /Ogtpy
; File d:\clearsky\sources\sdk\include\stlport\stl\_construct.h
_TEXT	ENDS
;	COMDAT ??$__destroy_range_aux@V?$reverse_iterator@PAV?$FastDelegate0@X@fastdelegate@@@stlp_std@@V?$FastDelegate0@X@fastdelegate@@@stlp_std@@YAXV?$reverse_iterator@PAV?$FastDelegate0@X@fastdelegate@@@0@0PAV?$FastDelegate0@X@fastdelegate@@ABU__true_type@0@@Z
_TEXT	SEGMENT
___formal$ = 8						; size = 4
___formal$ = 12						; size = 4
??$__destroy_range_aux@V?$reverse_iterator@PAV?$FastDelegate0@X@fastdelegate@@@stlp_std@@V?$FastDelegate0@X@fastdelegate@@@stlp_std@@YAXV?$reverse_iterator@PAV?$FastDelegate0@X@fastdelegate@@@0@0PAV?$FastDelegate0@X@fastdelegate@@ABU__true_type@0@@Z PROC ; stlp_std::__destroy_range_aux<stlp_std::reverse_iterator<fastdelegate::FastDelegate0<void> *>,fastdelegate::FastDelegate0<void> >, COMDAT

; 169  : __destroy_range_aux(_ForwardIterator, _ForwardIterator, _Tp*, const __true_type& /*_Trivial_destructor*/) {}

	ret	0
??$__destroy_range_aux@V?$reverse_iterator@PAV?$FastDelegate0@X@fastdelegate@@@stlp_std@@V?$FastDelegate0@X@fastdelegate@@@stlp_std@@YAXV?$reverse_iterator@PAV?$FastDelegate0@X@fastdelegate@@@0@0PAV?$FastDelegate0@X@fastdelegate@@ABU__true_type@0@@Z ENDP ; stlp_std::__destroy_range_aux<stlp_std::reverse_iterator<fastdelegate::FastDelegate0<void> *>,fastdelegate::FastDelegate0<void> >
; Function compile flags: /Ogtpy
_TEXT	ENDS
;	COMDAT ??$__destroy_range_aux@V?$reverse_iterator@PAU_REG_INFO@@@stlp_std@@U_REG_INFO@@@stlp_std@@YAXV?$reverse_iterator@PAU_REG_INFO@@@0@0PAU_REG_INFO@@ABU__true_type@0@@Z
_TEXT	SEGMENT
___formal$ = 8						; size = 4
___formal$ = 12						; size = 4
??$__destroy_range_aux@V?$reverse_iterator@PAU_REG_INFO@@@stlp_std@@U_REG_INFO@@@stlp_std@@YAXV?$reverse_iterator@PAU_REG_INFO@@@0@0PAU_REG_INFO@@ABU__true_type@0@@Z PROC ; stlp_std::__destroy_range_aux<stlp_std::reverse_iterator<_REG_INFO *>,_REG_INFO>, COMDAT

; 169  : __destroy_range_aux(_ForwardIterator, _ForwardIterator, _Tp*, const __true_type& /*_Trivial_destructor*/) {}

	ret	0
??$__destroy_range_aux@V?$reverse_iterator@PAU_REG_INFO@@@stlp_std@@U_REG_INFO@@@stlp_std@@YAXV?$reverse_iterator@PAU_REG_INFO@@@0@0PAU_REG_INFO@@ABU__true_type@0@@Z ENDP ; stlp_std::__destroy_range_aux<stlp_std::reverse_iterator<_REG_INFO *>,_REG_INFO>
; Function compile flags: /Ogtpy
_TEXT	ENDS
;	COMDAT ??$__destroy_range_aux@V?$reverse_iterator@PAUItemReg@CSheduler@@@stlp_std@@UItemReg@CSheduler@@@stlp_std@@YAXV?$reverse_iterator@PAUItemReg@CSheduler@@@0@0PAUItemReg@CSheduler@@ABU__true_type@0@@Z
_TEXT	SEGMENT
___formal$ = 8						; size = 4
___formal$ = 12						; size = 4
??$__destroy_range_aux@V?$reverse_iterator@PAUItemReg@CSheduler@@@stlp_std@@UItemReg@CSheduler@@@stlp_std@@YAXV?$reverse_iterator@PAUItemReg@CSheduler@@@0@0PAUItemReg@CSheduler@@ABU__true_type@0@@Z PROC ; stlp_std::__destroy_range_aux<stlp_std::reverse_iterator<CSheduler::ItemReg *>,CSheduler::ItemReg>, COMDAT

; 169  : __destroy_range_aux(_ForwardIterator, _ForwardIterator, _Tp*, const __true_type& /*_Trivial_destructor*/) {}

	ret	0
??$__destroy_range_aux@V?$reverse_iterator@PAUItemReg@CSheduler@@@stlp_std@@UItemReg@CSheduler@@@stlp_std@@YAXV?$reverse_iterator@PAUItemReg@CSheduler@@@0@0PAUItemReg@CSheduler@@ABU__true_type@0@@Z ENDP ; stlp_std::__destroy_range_aux<stlp_std::reverse_iterator<CSheduler::ItemReg *>,CSheduler::ItemReg>
; Function compile flags: /Ogtpy
_TEXT	ENDS
;	COMDAT ??$__destroy_range_aux@V?$reverse_iterator@PAUDeferred@CEventAPI@@@stlp_std@@UDeferred@CEventAPI@@@stlp_std@@YAXV?$reverse_iterator@PAUDeferred@CEventAPI@@@0@0PAUDeferred@CEventAPI@@ABU__true_type@0@@Z
_TEXT	SEGMENT
___formal$ = 8						; size = 4
___formal$ = 12						; size = 4
??$__destroy_range_aux@V?$reverse_iterator@PAUDeferred@CEventAPI@@@stlp_std@@UDeferred@CEventAPI@@@stlp_std@@YAXV?$reverse_iterator@PAUDeferred@CEventAPI@@@0@0PAUDeferred@CEventAPI@@ABU__true_type@0@@Z PROC ; stlp_std::__destroy_range_aux<stlp_std::reverse_iterator<CEventAPI::Deferred *>,CEventAPI::Deferred>, COMDAT

; 169  : __destroy_range_aux(_ForwardIterator, _ForwardIterator, _Tp*, const __true_type& /*_Trivial_destructor*/) {}

	ret	0
??$__destroy_range_aux@V?$reverse_iterator@PAUDeferred@CEventAPI@@@stlp_std@@UDeferred@CEventAPI@@@stlp_std@@YAXV?$reverse_iterator@PAUDeferred@CEventAPI@@@0@0PAUDeferred@CEventAPI@@ABU__true_type@0@@Z ENDP ; stlp_std::__destroy_range_aux<stlp_std::reverse_iterator<CEventAPI::Deferred *>,CEventAPI::Deferred>
; Function compile flags: /Ogtpy
_TEXT	ENDS
;	COMDAT ??$__destroy_range_aux@V?$reverse_iterator@PAPAX@stlp_std@@PAX@stlp_std@@YAXV?$reverse_iterator@PAPAX@0@0PAPAXABU__true_type@0@@Z
_TEXT	SEGMENT
___formal$ = 8						; size = 4
___formal$ = 12						; size = 4
??$__destroy_range_aux@V?$reverse_iterator@PAPAX@stlp_std@@PAX@stlp_std@@YAXV?$reverse_iterator@PAPAX@0@0PAPAXABU__true_type@0@@Z PROC ; stlp_std::__destroy_range_aux<stlp_std::reverse_iterator<void * *>,void *>, COMDAT

; 169  : __destroy_range_aux(_ForwardIterator, _ForwardIterator, _Tp*, const __true_type& /*_Trivial_destructor*/) {}

	ret	0
??$__destroy_range_aux@V?$reverse_iterator@PAPAX@stlp_std@@PAX@stlp_std@@YAXV?$reverse_iterator@PAPAX@0@0PAPAXABU__true_type@0@@Z ENDP ; stlp_std::__destroy_range_aux<stlp_std::reverse_iterator<void * *>,void *>
; Function compile flags: /Ogtpy
_TEXT	ENDS
;	COMDAT ??$__destroy_range@PAV?$FastDelegate0@X@fastdelegate@@V12@@stlp_std@@YAXPAV?$FastDelegate0@X@fastdelegate@@00@Z
_TEXT	SEGMENT
??$__destroy_range@PAV?$FastDelegate0@X@fastdelegate@@V12@@stlp_std@@YAXPAV?$FastDelegate0@X@fastdelegate@@00@Z PROC ; stlp_std::__destroy_range<fastdelegate::FastDelegate0<void> *,fastdelegate::FastDelegate0<void> >, COMDAT

; 175  :   typedef typename __type_traits<_Tp>::has_trivial_destructor _Trivial_destructor;
; 176  :   __destroy_range_aux(__first, __last, __ptr, _Trivial_destructor());
; 177  : }

	ret	0
??$__destroy_range@PAV?$FastDelegate0@X@fastdelegate@@V12@@stlp_std@@YAXPAV?$FastDelegate0@X@fastdelegate@@00@Z ENDP ; stlp_std::__destroy_range<fastdelegate::FastDelegate0<void> *,fastdelegate::FastDelegate0<void> >
; Function compile flags: /Ogtpy
_TEXT	ENDS
;	COMDAT ??$__destroy_range@PAU_REG_INFO@@U1@@stlp_std@@YAXPAU_REG_INFO@@00@Z
_TEXT	SEGMENT
??$__destroy_range@PAU_REG_INFO@@U1@@stlp_std@@YAXPAU_REG_INFO@@00@Z PROC ; stlp_std::__destroy_range<_REG_INFO *,_REG_INFO>, COMDAT

; 175  :   typedef typename __type_traits<_Tp>::has_trivial_destructor _Trivial_destructor;
; 176  :   __destroy_range_aux(__first, __last, __ptr, _Trivial_destructor());
; 177  : }

	ret	0
??$__destroy_range@PAU_REG_INFO@@U1@@stlp_std@@YAXPAU_REG_INFO@@00@Z ENDP ; stlp_std::__destroy_range<_REG_INFO *,_REG_INFO>
; Function compile flags: /Ogtpy
_TEXT	ENDS
;	COMDAT ??$__destroy_range@PAUItemReg@CSheduler@@U12@@stlp_std@@YAXPAUItemReg@CSheduler@@00@Z
_TEXT	SEGMENT
??$__destroy_range@PAUItemReg@CSheduler@@U12@@stlp_std@@YAXPAUItemReg@CSheduler@@00@Z PROC ; stlp_std::__destroy_range<CSheduler::ItemReg *,CSheduler::ItemReg>, COMDAT

; 175  :   typedef typename __type_traits<_Tp>::has_trivial_destructor _Trivial_destructor;
; 176  :   __destroy_range_aux(__first, __last, __ptr, _Trivial_destructor());
; 177  : }

	ret	0
??$__destroy_range@PAUItemReg@CSheduler@@U12@@stlp_std@@YAXPAUItemReg@CSheduler@@00@Z ENDP ; stlp_std::__destroy_range<CSheduler::ItemReg *,CSheduler::ItemReg>
; Function compile flags: /Ogtpy
_TEXT	ENDS
;	COMDAT ??$__destroy_range@PAUDeferred@CEventAPI@@U12@@stlp_std@@YAXPAUDeferred@CEventAPI@@00@Z
_TEXT	SEGMENT
??$__destroy_range@PAUDeferred@CEventAPI@@U12@@stlp_std@@YAXPAUDeferred@CEventAPI@@00@Z PROC ; stlp_std::__destroy_range<CEventAPI::Deferred *,CEventAPI::Deferred>, COMDAT

; 175  :   typedef typename __type_traits<_Tp>::has_trivial_destructor _Trivial_destructor;
; 176  :   __destroy_range_aux(__first, __last, __ptr, _Trivial_destructor());
; 177  : }

	ret	0
??$__destroy_range@PAUDeferred@CEventAPI@@U12@@stlp_std@@YAXPAUDeferred@CEventAPI@@00@Z ENDP ; stlp_std::__destroy_range<CEventAPI::Deferred *,CEventAPI::Deferred>
; Function compile flags: /Ogtpy
_TEXT	ENDS
;	COMDAT ??$__destroy_range@PAPAXPAX@stlp_std@@YAXPAPAX00@Z
_TEXT	SEGMENT
??$__destroy_range@PAPAXPAX@stlp_std@@YAXPAPAX00@Z PROC	; stlp_std::__destroy_range<void * *,void *>, COMDAT

; 175  :   typedef typename __type_traits<_Tp>::has_trivial_destructor _Trivial_destructor;
; 176  :   __destroy_range_aux(__first, __last, __ptr, _Trivial_destructor());
; 177  : }

	ret	0
??$__destroy_range@PAPAXPAX@stlp_std@@YAXPAPAX00@Z ENDP	; stlp_std::__destroy_range<void * *,void *>
; Function compile flags: /Ogtpy
; File d:\clearsky\sources\engine\xrcore\_stl_extensions.h
_TEXT	ENDS
;	COMDAT ?allocate@?$xalloc@V?$FastDelegate0@X@fastdelegate@@@@QBEPAV?$FastDelegate0@X@fastdelegate@@IPBX@Z
_TEXT	SEGMENT
?allocate@?$xalloc@V?$FastDelegate0@X@fastdelegate@@@@QBEPAV?$FastDelegate0@X@fastdelegate@@IPBX@Z PROC ; xalloc<fastdelegate::FastDelegate0<void> >::allocate, COMDAT
; _n$ = eax

; 81   : 							pointer					allocate		(size_type n, const void* p=0) const	{	return xr_alloc<T>((u32)n);	}

	lea	ecx, DWORD PTR [eax*8]
	push	ecx
	mov	ecx, DWORD PTR __imp_?Memory@@3VxrMemory@@A
	call	DWORD PTR __imp_?mem_alloc@xrMemory@@QAEPAXI@Z
	ret	0
?allocate@?$xalloc@V?$FastDelegate0@X@fastdelegate@@@@QBEPAV?$FastDelegate0@X@fastdelegate@@IPBX@Z ENDP ; xalloc<fastdelegate::FastDelegate0<void> >::allocate
; Function compile flags: /Ogtpy
_TEXT	ENDS
;	COMDAT ?allocate@?$xalloc@UDeferred@CEventAPI@@@@QBEPAUDeferred@CEventAPI@@IPBX@Z
_TEXT	SEGMENT
?allocate@?$xalloc@UDeferred@CEventAPI@@@@QBEPAUDeferred@CEventAPI@@IPBX@Z PROC ; xalloc<CEventAPI::Deferred>::allocate, COMDAT
; _n$ = eax

; 81   : 							pointer					allocate		(size_type n, const void* p=0) const	{	return xr_alloc<T>((u32)n);	}

	mov	ecx, DWORD PTR __imp_?Memory@@3VxrMemory@@A
	lea	eax, DWORD PTR [eax+eax*2]
	add	eax, eax
	add	eax, eax
	add	eax, eax
	push	eax
	call	DWORD PTR __imp_?mem_alloc@xrMemory@@QAEPAXI@Z
	ret	0
?allocate@?$xalloc@UDeferred@CEventAPI@@@@QBEPAUDeferred@CEventAPI@@IPBX@Z ENDP ; xalloc<CEventAPI::Deferred>::allocate
; Function compile flags: /Ogtpy
_TEXT	ENDS
;	COMDAT ?allocate@?$xalloc@PAX@@QBEPAPAXIPBX@Z
_TEXT	SEGMENT
?allocate@?$xalloc@PAX@@QBEPAPAXIPBX@Z PROC		; xalloc<void *>::allocate, COMDAT
; _n$ = eax

; 81   : 							pointer					allocate		(size_type n, const void* p=0) const	{	return xr_alloc<T>((u32)n);	}

	lea	ecx, DWORD PTR [eax*4]
	push	ecx
	mov	ecx, DWORD PTR __imp_?Memory@@3VxrMemory@@A
	call	DWORD PTR __imp_?mem_alloc@xrMemory@@QAEPAXI@Z
	ret	0
?allocate@?$xalloc@PAX@@QBEPAPAXIPBX@Z ENDP		; xalloc<void *>::allocate
; Function compile flags: /Ogtpy
; File d:\clearsky\sources\sdk\include\stlport\stl\_alloc.h
_TEXT	ENDS
;	COMDAT ?allocate@?$_STLP_alloc_proxy@PAV?$FastDelegate0@X@fastdelegate@@V12@V?$xalloc@V?$FastDelegate0@X@fastdelegate@@@@@priv@stlp_std@@QAEPAV?$FastDelegate0@X@fastdelegate@@I@Z
_TEXT	SEGMENT
?allocate@?$_STLP_alloc_proxy@PAV?$FastDelegate0@X@fastdelegate@@V12@V?$xalloc@V?$FastDelegate0@X@fastdelegate@@@@@priv@stlp_std@@QAEPAV?$FastDelegate0@X@fastdelegate@@I@Z PROC ; stlp_std::priv::_STLP_alloc_proxy<fastdelegate::FastDelegate0<void> *,fastdelegate::FastDelegate0<void>,xalloc<fastdelegate::FastDelegate0<void> > >::allocate, COMDAT
; ___n$ = eax

; 633  :   { return _Base::allocate(__n); }

	lea	ecx, DWORD PTR [eax*8]
	push	ecx
	mov	ecx, DWORD PTR __imp_?Memory@@3VxrMemory@@A
	call	DWORD PTR __imp_?mem_alloc@xrMemory@@QAEPAXI@Z
	ret	0
?allocate@?$_STLP_alloc_proxy@PAV?$FastDelegate0@X@fastdelegate@@V12@V?$xalloc@V?$FastDelegate0@X@fastdelegate@@@@@priv@stlp_std@@QAEPAV?$FastDelegate0@X@fastdelegate@@I@Z ENDP ; stlp_std::priv::_STLP_alloc_proxy<fastdelegate::FastDelegate0<void> *,fastdelegate::FastDelegate0<void>,xalloc<fastdelegate::FastDelegate0<void> > >::allocate
; Function compile flags: /Ogtpy
_TEXT	ENDS
;	COMDAT ?allocate@?$_STLP_alloc_proxy@PAUDeferred@CEventAPI@@U12@V?$xalloc@UDeferred@CEventAPI@@@@@priv@stlp_std@@QAEPAUDeferred@CEventAPI@@I@Z
_TEXT	SEGMENT
?allocate@?$_STLP_alloc_proxy@PAUDeferred@CEventAPI@@U12@V?$xalloc@UDeferred@CEventAPI@@@@@priv@stlp_std@@QAEPAUDeferred@CEventAPI@@I@Z PROC ; stlp_std::priv::_STLP_alloc_proxy<CEventAPI::Deferred *,CEventAPI::Deferred,xalloc<CEventAPI::Deferred> >::allocate, COMDAT
; ___n$ = eax

; 633  :   { return _Base::allocate(__n); }

	mov	ecx, DWORD PTR __imp_?Memory@@3VxrMemory@@A
	lea	eax, DWORD PTR [eax+eax*2]
	add	eax, eax
	add	eax, eax
	add	eax, eax
	push	eax
	call	DWORD PTR __imp_?mem_alloc@xrMemory@@QAEPAXI@Z
	ret	0
?allocate@?$_STLP_alloc_proxy@PAUDeferred@CEventAPI@@U12@V?$xalloc@UDeferred@CEventAPI@@@@@priv@stlp_std@@QAEPAUDeferred@CEventAPI@@I@Z ENDP ; stlp_std::priv::_STLP_alloc_proxy<CEventAPI::Deferred *,CEventAPI::Deferred,xalloc<CEventAPI::Deferred> >::allocate
; Function compile flags: /Ogtpy
_TEXT	ENDS
;	COMDAT ?allocate@?$_STLP_alloc_proxy@PAPAXPAXV?$xalloc@PAX@@@priv@stlp_std@@QAEPAPAXI@Z
_TEXT	SEGMENT
?allocate@?$_STLP_alloc_proxy@PAPAXPAXV?$xalloc@PAX@@@priv@stlp_std@@QAEPAPAXI@Z PROC ; stlp_std::priv::_STLP_alloc_proxy<void * *,void *,xalloc<void *> >::allocate, COMDAT
; ___n$ = eax

; 633  :   { return _Base::allocate(__n); }

	lea	ecx, DWORD PTR [eax*4]
	push	ecx
	mov	ecx, DWORD PTR __imp_?Memory@@3VxrMemory@@A
	call	DWORD PTR __imp_?mem_alloc@xrMemory@@QAEPAXI@Z
	ret	0
?allocate@?$_STLP_alloc_proxy@PAPAXPAXV?$xalloc@PAX@@@priv@stlp_std@@QAEPAPAXI@Z ENDP ; stlp_std::priv::_STLP_alloc_proxy<void * *,void *,xalloc<void *> >::allocate
; Function compile flags: /Ogtpy
_TEXT	ENDS
;	COMDAT ?allocate@?$_STLP_alloc_proxy@PAV?$FastDelegate0@X@fastdelegate@@V12@V?$xalloc@V?$FastDelegate0@X@fastdelegate@@@@@priv@stlp_std@@AAEPAV?$FastDelegate0@X@fastdelegate@@IAAIABU__false_type@3@@Z
_TEXT	SEGMENT
?allocate@?$_STLP_alloc_proxy@PAV?$FastDelegate0@X@fastdelegate@@V12@V?$xalloc@V?$FastDelegate0@X@fastdelegate@@@@@priv@stlp_std@@AAEPAV?$FastDelegate0@X@fastdelegate@@IAAIABU__false_type@3@@Z PROC ; stlp_std::priv::_STLP_alloc_proxy<fastdelegate::FastDelegate0<void> *,fastdelegate::FastDelegate0<void>,xalloc<fastdelegate::FastDelegate0<void> > >::allocate, COMDAT
; ___n$ = eax
; ___allocated_n$ = ecx

; 640  :   { __allocated_n = __n; return allocate(__n); }

	lea	edx, DWORD PTR [eax*8]
	mov	DWORD PTR [ecx], eax
	mov	ecx, DWORD PTR __imp_?Memory@@3VxrMemory@@A
	push	edx
	call	DWORD PTR __imp_?mem_alloc@xrMemory@@QAEPAXI@Z
	ret	0
?allocate@?$_STLP_alloc_proxy@PAV?$FastDelegate0@X@fastdelegate@@V12@V?$xalloc@V?$FastDelegate0@X@fastdelegate@@@@@priv@stlp_std@@AAEPAV?$FastDelegate0@X@fastdelegate@@IAAIABU__false_type@3@@Z ENDP ; stlp_std::priv::_STLP_alloc_proxy<fastdelegate::FastDelegate0<void> *,fastdelegate::FastDelegate0<void>,xalloc<fastdelegate::FastDelegate0<void> > >::allocate
; Function compile flags: /Ogtpy
_TEXT	ENDS
;	COMDAT ?allocate@?$_STLP_alloc_proxy@PAUDeferred@CEventAPI@@U12@V?$xalloc@UDeferred@CEventAPI@@@@@priv@stlp_std@@AAEPAUDeferred@CEventAPI@@IAAIABU__false_type@3@@Z
_TEXT	SEGMENT
?allocate@?$_STLP_alloc_proxy@PAUDeferred@CEventAPI@@U12@V?$xalloc@UDeferred@CEventAPI@@@@@priv@stlp_std@@AAEPAUDeferred@CEventAPI@@IAAIABU__false_type@3@@Z PROC ; stlp_std::priv::_STLP_alloc_proxy<CEventAPI::Deferred *,CEventAPI::Deferred,xalloc<CEventAPI::Deferred> >::allocate, COMDAT
; ___n$ = eax
; ___allocated_n$ = ecx

; 640  :   { __allocated_n = __n; return allocate(__n); }

	lea	edx, DWORD PTR [eax+eax*2]
	add	edx, edx
	add	edx, edx
	add	edx, edx
	mov	DWORD PTR [ecx], eax
	mov	ecx, DWORD PTR __imp_?Memory@@3VxrMemory@@A
	push	edx
	call	DWORD PTR __imp_?mem_alloc@xrMemory@@QAEPAXI@Z
	ret	0
?allocate@?$_STLP_alloc_proxy@PAUDeferred@CEventAPI@@U12@V?$xalloc@UDeferred@CEventAPI@@@@@priv@stlp_std@@AAEPAUDeferred@CEventAPI@@IAAIABU__false_type@3@@Z ENDP ; stlp_std::priv::_STLP_alloc_proxy<CEventAPI::Deferred *,CEventAPI::Deferred,xalloc<CEventAPI::Deferred> >::allocate
; Function compile flags: /Ogtpy
_TEXT	ENDS
;	COMDAT ?allocate@?$_STLP_alloc_proxy@PAPAXPAXV?$xalloc@PAX@@@priv@stlp_std@@AAEPAPAXIAAIABU__false_type@3@@Z
_TEXT	SEGMENT
?allocate@?$_STLP_alloc_proxy@PAPAXPAXV?$xalloc@PAX@@@priv@stlp_std@@AAEPAPAXIAAIABU__false_type@3@@Z PROC ; stlp_std::priv::_STLP_alloc_proxy<void * *,void *,xalloc<void *> >::allocate, COMDAT
; ___n$ = eax
; ___allocated_n$ = ecx

; 640  :   { __allocated_n = __n; return allocate(__n); }

	lea	edx, DWORD PTR [eax*4]
	mov	DWORD PTR [ecx], eax
	mov	ecx, DWORD PTR __imp_?Memory@@3VxrMemory@@A
	push	edx
	call	DWORD PTR __imp_?mem_alloc@xrMemory@@QAEPAXI@Z
	ret	0
?allocate@?$_STLP_alloc_proxy@PAPAXPAXV?$xalloc@PAX@@@priv@stlp_std@@AAEPAPAXIAAIABU__false_type@3@@Z ENDP ; stlp_std::priv::_STLP_alloc_proxy<void * *,void *,xalloc<void *> >::allocate
; Function compile flags: /Ogtpy
_TEXT	ENDS
;	COMDAT ?allocate@?$_STLP_alloc_proxy@PAV?$FastDelegate0@X@fastdelegate@@V12@V?$xalloc@V?$FastDelegate0@X@fastdelegate@@@@@priv@stlp_std@@QAEPAV?$FastDelegate0@X@fastdelegate@@IAAI@Z
_TEXT	SEGMENT
?allocate@?$_STLP_alloc_proxy@PAV?$FastDelegate0@X@fastdelegate@@V12@V?$xalloc@V?$FastDelegate0@X@fastdelegate@@@@@priv@stlp_std@@QAEPAV?$FastDelegate0@X@fastdelegate@@IAAI@Z PROC ; stlp_std::priv::_STLP_alloc_proxy<fastdelegate::FastDelegate0<void> *,fastdelegate::FastDelegate0<void>,xalloc<fastdelegate::FastDelegate0<void> > >::allocate, COMDAT
; ___n$ = eax
; ___allocated_n$ = ecx

; 611  : #if !defined (__BORLANDC__)
; 612  :     typedef typename _IsSTLportClass<_MaybeReboundAlloc>::_Ret _STLportAlloc;
; 613  : #else
; 614  :     typedef typename __bool2type<_IsSTLportClass<_MaybeReboundAlloc>::_Is>::_Ret _STLportAlloc;
; 615  : #endif
; 616  :     return allocate(__n, __allocated_n, _STLportAlloc());

	lea	edx, DWORD PTR [eax*8]
	mov	DWORD PTR [ecx], eax
	mov	ecx, DWORD PTR __imp_?Memory@@3VxrMemory@@A
	push	edx
	call	DWORD PTR __imp_?mem_alloc@xrMemory@@QAEPAXI@Z

; 617  :   }

	ret	0
?allocate@?$_STLP_alloc_proxy@PAV?$FastDelegate0@X@fastdelegate@@V12@V?$xalloc@V?$FastDelegate0@X@fastdelegate@@@@@priv@stlp_std@@QAEPAV?$FastDelegate0@X@fastdelegate@@IAAI@Z ENDP ; stlp_std::priv::_STLP_alloc_proxy<fastdelegate::FastDelegate0<void> *,fastdelegate::FastDelegate0<void>,xalloc<fastdelegate::FastDelegate0<void> > >::allocate
; Function compile flags: /Ogtpy
_TEXT	ENDS
;	COMDAT ?allocate@?$_STLP_alloc_proxy@PAUDeferred@CEventAPI@@U12@V?$xalloc@UDeferred@CEventAPI@@@@@priv@stlp_std@@QAEPAUDeferred@CEventAPI@@IAAI@Z
_TEXT	SEGMENT
?allocate@?$_STLP_alloc_proxy@PAUDeferred@CEventAPI@@U12@V?$xalloc@UDeferred@CEventAPI@@@@@priv@stlp_std@@QAEPAUDeferred@CEventAPI@@IAAI@Z PROC ; stlp_std::priv::_STLP_alloc_proxy<CEventAPI::Deferred *,CEventAPI::Deferred,xalloc<CEventAPI::Deferred> >::allocate, COMDAT
; ___n$ = eax
; ___allocated_n$ = ecx

; 611  : #if !defined (__BORLANDC__)
; 612  :     typedef typename _IsSTLportClass<_MaybeReboundAlloc>::_Ret _STLportAlloc;
; 613  : #else
; 614  :     typedef typename __bool2type<_IsSTLportClass<_MaybeReboundAlloc>::_Is>::_Ret _STLportAlloc;
; 615  : #endif
; 616  :     return allocate(__n, __allocated_n, _STLportAlloc());

	lea	edx, DWORD PTR [eax+eax*2]
	add	edx, edx
	add	edx, edx
	add	edx, edx
	mov	DWORD PTR [ecx], eax
	mov	ecx, DWORD PTR __imp_?Memory@@3VxrMemory@@A
	push	edx
	call	DWORD PTR __imp_?mem_alloc@xrMemory@@QAEPAXI@Z

; 617  :   }

	ret	0
?allocate@?$_STLP_alloc_proxy@PAUDeferred@CEventAPI@@U12@V?$xalloc@UDeferred@CEventAPI@@@@@priv@stlp_std@@QAEPAUDeferred@CEventAPI@@IAAI@Z ENDP ; stlp_std::priv::_STLP_alloc_proxy<CEventAPI::Deferred *,CEventAPI::Deferred,xalloc<CEventAPI::Deferred> >::allocate
; Function compile flags: /Ogtpy
_TEXT	ENDS
;	COMDAT ?allocate@?$_STLP_alloc_proxy@PAPAXPAXV?$xalloc@PAX@@@priv@stlp_std@@QAEPAPAXIAAI@Z
_TEXT	SEGMENT
?allocate@?$_STLP_alloc_proxy@PAPAXPAXV?$xalloc@PAX@@@priv@stlp_std@@QAEPAPAXIAAI@Z PROC ; stlp_std::priv::_STLP_alloc_proxy<void * *,void *,xalloc<void *> >::allocate, COMDAT
; ___n$ = eax
; ___allocated_n$ = ecx

; 611  : #if !defined (__BORLANDC__)
; 612  :     typedef typename _IsSTLportClass<_MaybeReboundAlloc>::_Ret _STLportAlloc;
; 613  : #else
; 614  :     typedef typename __bool2type<_IsSTLportClass<_MaybeReboundAlloc>::_Is>::_Ret _STLportAlloc;
; 615  : #endif
; 616  :     return allocate(__n, __allocated_n, _STLportAlloc());

	lea	edx, DWORD PTR [eax*4]
	mov	DWORD PTR [ecx], eax
	mov	ecx, DWORD PTR __imp_?Memory@@3VxrMemory@@A
	push	edx
	call	DWORD PTR __imp_?mem_alloc@xrMemory@@QAEPAXI@Z

; 617  :   }

	ret	0
?allocate@?$_STLP_alloc_proxy@PAPAXPAXV?$xalloc@PAX@@@priv@stlp_std@@QAEPAPAXIAAI@Z ENDP ; stlp_std::priv::_STLP_alloc_proxy<void * *,void *,xalloc<void *> >::allocate
; Function compile flags: /Ogtpy
; File d:\clearsky\sources\sdk\include\stlport\stl\_construct.h
_TEXT	ENDS
;	COMDAT ??$__destroy_aux@V?$FastDelegate0@X@fastdelegate@@@stlp_std@@YAXPAV?$FastDelegate0@X@fastdelegate@@ABU__true_type@0@@Z
_TEXT	SEGMENT
??$__destroy_aux@V?$FastDelegate0@X@fastdelegate@@@stlp_std@@YAXPAV?$FastDelegate0@X@fastdelegate@@ABU__true_type@0@@Z PROC ; stlp_std::__destroy_aux<fastdelegate::FastDelegate0<void> >, COMDAT

; 56   : inline void __destroy_aux(_Tp*, const __true_type& /*_Trivial_destructor*/) {}

	ret	0
??$__destroy_aux@V?$FastDelegate0@X@fastdelegate@@@stlp_std@@YAXPAV?$FastDelegate0@X@fastdelegate@@ABU__true_type@0@@Z ENDP ; stlp_std::__destroy_aux<fastdelegate::FastDelegate0<void> >
; Function compile flags: /Ogtpy
_TEXT	ENDS
;	COMDAT ??$_Destroy_Range@PAV?$FastDelegate0@X@fastdelegate@@@stlp_std@@YAXPAV?$FastDelegate0@X@fastdelegate@@0@Z
_TEXT	SEGMENT
??$_Destroy_Range@PAV?$FastDelegate0@X@fastdelegate@@@stlp_std@@YAXPAV?$FastDelegate0@X@fastdelegate@@0@Z PROC ; stlp_std::_Destroy_Range<fastdelegate::FastDelegate0<void> *>, COMDAT

; 181  :   __destroy_range(__first, __last, _STLP_VALUE_TYPE(__first, _ForwardIterator));
; 182  : }

	ret	0
??$_Destroy_Range@PAV?$FastDelegate0@X@fastdelegate@@@stlp_std@@YAXPAV?$FastDelegate0@X@fastdelegate@@0@Z ENDP ; stlp_std::_Destroy_Range<fastdelegate::FastDelegate0<void> *>
; Function compile flags: /Ogtpy
_TEXT	ENDS
;	COMDAT ??$_Destroy_Range@PAU_REG_INFO@@@stlp_std@@YAXPAU_REG_INFO@@0@Z
_TEXT	SEGMENT
??$_Destroy_Range@PAU_REG_INFO@@@stlp_std@@YAXPAU_REG_INFO@@0@Z PROC ; stlp_std::_Destroy_Range<_REG_INFO *>, COMDAT

; 181  :   __destroy_range(__first, __last, _STLP_VALUE_TYPE(__first, _ForwardIterator));
; 182  : }

	ret	0
??$_Destroy_Range@PAU_REG_INFO@@@stlp_std@@YAXPAU_REG_INFO@@0@Z ENDP ; stlp_std::_Destroy_Range<_REG_INFO *>
; Function compile flags: /Ogtpy
_TEXT	ENDS
;	COMDAT ??$_Destroy_Range@PAUItemReg@CSheduler@@@stlp_std@@YAXPAUItemReg@CSheduler@@0@Z
_TEXT	SEGMENT
??$_Destroy_Range@PAUItemReg@CSheduler@@@stlp_std@@YAXPAUItemReg@CSheduler@@0@Z PROC ; stlp_std::_Destroy_Range<CSheduler::ItemReg *>, COMDAT

; 181  :   __destroy_range(__first, __last, _STLP_VALUE_TYPE(__first, _ForwardIterator));
; 182  : }

	ret	0
??$_Destroy_Range@PAUItemReg@CSheduler@@@stlp_std@@YAXPAUItemReg@CSheduler@@0@Z ENDP ; stlp_std::_Destroy_Range<CSheduler::ItemReg *>
; Function compile flags: /Ogtpy
_TEXT	ENDS
;	COMDAT ??$_Destroy_Range@PAUDeferred@CEventAPI@@@stlp_std@@YAXPAUDeferred@CEventAPI@@0@Z
_TEXT	SEGMENT
??$_Destroy_Range@PAUDeferred@CEventAPI@@@stlp_std@@YAXPAUDeferred@CEventAPI@@0@Z PROC ; stlp_std::_Destroy_Range<CEventAPI::Deferred *>, COMDAT

; 181  :   __destroy_range(__first, __last, _STLP_VALUE_TYPE(__first, _ForwardIterator));
; 182  : }

	ret	0
??$_Destroy_Range@PAUDeferred@CEventAPI@@@stlp_std@@YAXPAUDeferred@CEventAPI@@0@Z ENDP ; stlp_std::_Destroy_Range<CEventAPI::Deferred *>
; Function compile flags: /Ogtpy
_TEXT	ENDS
;	COMDAT ??$_Destroy_Range@PAPAX@stlp_std@@YAXPAPAX0@Z
_TEXT	SEGMENT
??$_Destroy_Range@PAPAX@stlp_std@@YAXPAPAX0@Z PROC	; stlp_std::_Destroy_Range<void * *>, COMDAT

; 181  :   __destroy_range(__first, __last, _STLP_VALUE_TYPE(__first, _ForwardIterator));
; 182  : }

	ret	0
??$_Destroy_Range@PAPAX@stlp_std@@YAXPAPAX0@Z ENDP	; stlp_std::_Destroy_Range<void * *>
; Function compile flags: /Ogtpy
; File d:\clearsky\sources\sdk\include\stlport\stl\_iterator.h
_TEXT	ENDS
;	COMDAT ??0?$reverse_iterator@PAV?$FastDelegate0@X@fastdelegate@@@stlp_std@@QAE@ABV01@@Z
_TEXT	SEGMENT
??0?$reverse_iterator@PAV?$FastDelegate0@X@fastdelegate@@@stlp_std@@QAE@ABV01@@Z PROC ; stlp_std::reverse_iterator<fastdelegate::FastDelegate0<void> *>::reverse_iterator<fastdelegate::FastDelegate0<void> *>, COMDAT
; _this$ = eax
; ___x$ = ecx

; 66   :   reverse_iterator(const _Self& __x) : current(__x.current) {}

	mov	edx, DWORD PTR [ecx]
	mov	DWORD PTR [eax], edx
	ret	0
??0?$reverse_iterator@PAV?$FastDelegate0@X@fastdelegate@@@stlp_std@@QAE@ABV01@@Z ENDP ; stlp_std::reverse_iterator<fastdelegate::FastDelegate0<void> *>::reverse_iterator<fastdelegate::FastDelegate0<void> *>
; Function compile flags: /Ogtpy
_TEXT	ENDS
;	COMDAT ??0?$reverse_iterator@PAU_REG_INFO@@@stlp_std@@QAE@ABV01@@Z
_TEXT	SEGMENT
??0?$reverse_iterator@PAU_REG_INFO@@@stlp_std@@QAE@ABV01@@Z PROC ; stlp_std::reverse_iterator<_REG_INFO *>::reverse_iterator<_REG_INFO *>, COMDAT
; _this$ = eax
; ___x$ = ecx

; 66   :   reverse_iterator(const _Self& __x) : current(__x.current) {}

	mov	edx, DWORD PTR [ecx]
	mov	DWORD PTR [eax], edx
	ret	0
??0?$reverse_iterator@PAU_REG_INFO@@@stlp_std@@QAE@ABV01@@Z ENDP ; stlp_std::reverse_iterator<_REG_INFO *>::reverse_iterator<_REG_INFO *>
; Function compile flags: /Ogtpy
_TEXT	ENDS
;	COMDAT ??0?$reverse_iterator@PAUItemReg@CSheduler@@@stlp_std@@QAE@ABV01@@Z
_TEXT	SEGMENT
??0?$reverse_iterator@PAUItemReg@CSheduler@@@stlp_std@@QAE@ABV01@@Z PROC ; stlp_std::reverse_iterator<CSheduler::ItemReg *>::reverse_iterator<CSheduler::ItemReg *>, COMDAT
; _this$ = eax
; ___x$ = ecx

; 66   :   reverse_iterator(const _Self& __x) : current(__x.current) {}

	mov	edx, DWORD PTR [ecx]
	mov	DWORD PTR [eax], edx
	ret	0
??0?$reverse_iterator@PAUItemReg@CSheduler@@@stlp_std@@QAE@ABV01@@Z ENDP ; stlp_std::reverse_iterator<CSheduler::ItemReg *>::reverse_iterator<CSheduler::ItemReg *>
; Function compile flags: /Ogtpy
_TEXT	ENDS
;	COMDAT ??0?$reverse_iterator@PAUItem@CSheduler@@@stlp_std@@QAE@ABV01@@Z
_TEXT	SEGMENT
??0?$reverse_iterator@PAUItem@CSheduler@@@stlp_std@@QAE@ABV01@@Z PROC ; stlp_std::reverse_iterator<CSheduler::Item *>::reverse_iterator<CSheduler::Item *>, COMDAT
; _this$ = eax
; ___x$ = ecx

; 66   :   reverse_iterator(const _Self& __x) : current(__x.current) {}

	mov	edx, DWORD PTR [ecx]
	mov	DWORD PTR [eax], edx
	ret	0
??0?$reverse_iterator@PAUItem@CSheduler@@@stlp_std@@QAE@ABV01@@Z ENDP ; stlp_std::reverse_iterator<CSheduler::Item *>::reverse_iterator<CSheduler::Item *>
; Function compile flags: /Ogtpy
_TEXT	ENDS
;	COMDAT ??0?$reverse_iterator@PAUDeferred@CEventAPI@@@stlp_std@@QAE@ABV01@@Z
_TEXT	SEGMENT
??0?$reverse_iterator@PAUDeferred@CEventAPI@@@stlp_std@@QAE@ABV01@@Z PROC ; stlp_std::reverse_iterator<CEventAPI::Deferred *>::reverse_iterator<CEventAPI::Deferred *>, COMDAT
; _this$ = eax
; ___x$ = ecx

; 66   :   reverse_iterator(const _Self& __x) : current(__x.current) {}

	mov	edx, DWORD PTR [ecx]
	mov	DWORD PTR [eax], edx
	ret	0
??0?$reverse_iterator@PAUDeferred@CEventAPI@@@stlp_std@@QAE@ABV01@@Z ENDP ; stlp_std::reverse_iterator<CEventAPI::Deferred *>::reverse_iterator<CEventAPI::Deferred *>
; Function compile flags: /Ogtpy
_TEXT	ENDS
;	COMDAT ??0?$reverse_iterator@PAVshared_str@@@stlp_std@@QAE@ABV01@@Z
_TEXT	SEGMENT
??0?$reverse_iterator@PAVshared_str@@@stlp_std@@QAE@ABV01@@Z PROC ; stlp_std::reverse_iterator<shared_str *>::reverse_iterator<shared_str *>, COMDAT
; _this$ = eax
; ___x$ = ecx

; 66   :   reverse_iterator(const _Self& __x) : current(__x.current) {}

	mov	edx, DWORD PTR [ecx]
	mov	DWORD PTR [eax], edx
	ret	0
??0?$reverse_iterator@PAVshared_str@@@stlp_std@@QAE@ABV01@@Z ENDP ; stlp_std::reverse_iterator<shared_str *>::reverse_iterator<shared_str *>
; Function compile flags: /Ogtpy
_TEXT	ENDS
;	COMDAT ??0?$reverse_iterator@PAPAX@stlp_std@@QAE@ABV01@@Z
_TEXT	SEGMENT
??0?$reverse_iterator@PAPAX@stlp_std@@QAE@ABV01@@Z PROC	; stlp_std::reverse_iterator<void * *>::reverse_iterator<void * *>, COMDAT
; _this$ = eax
; ___x$ = ecx

; 66   :   reverse_iterator(const _Self& __x) : current(__x.current) {}

	mov	edx, DWORD PTR [ecx]
	mov	DWORD PTR [eax], edx
	ret	0
??0?$reverse_iterator@PAPAX@stlp_std@@QAE@ABV01@@Z ENDP	; stlp_std::reverse_iterator<void * *>::reverse_iterator<void * *>
; Function compile flags: /Ogtpy
; File d:\clearsky\sources\sdk\include\stlport\stl\_vector.h
_TEXT	ENDS
;	COMDAT ?capacity@?$_Impl_vector@V?$FastDelegate0@X@fastdelegate@@V?$xalloc@V?$FastDelegate0@X@fastdelegate@@@@@priv@stlp_std@@QBEIXZ
_TEXT	SEGMENT
?capacity@?$_Impl_vector@V?$FastDelegate0@X@fastdelegate@@V?$xalloc@V?$FastDelegate0@X@fastdelegate@@@@@priv@stlp_std@@QBEIXZ PROC ; stlp_std::priv::_Impl_vector<fastdelegate::FastDelegate0<void>,xalloc<fastdelegate::FastDelegate0<void> > >::capacity, COMDAT
; _this$ = ecx

; 187  :   size_type capacity() const    { return size_type(this->_M_end_of_storage._M_data - this->_M_start); }

	mov	eax, DWORD PTR [ecx+8]
	sub	eax, DWORD PTR [ecx]
	sar	eax, 3
	ret	0
?capacity@?$_Impl_vector@V?$FastDelegate0@X@fastdelegate@@V?$xalloc@V?$FastDelegate0@X@fastdelegate@@@@@priv@stlp_std@@QBEIXZ ENDP ; stlp_std::priv::_Impl_vector<fastdelegate::FastDelegate0<void>,xalloc<fastdelegate::FastDelegate0<void> > >::capacity
; Function compile flags: /Ogtpy
_TEXT	ENDS
;	COMDAT ?size@?$_Impl_vector@V?$FastDelegate0@X@fastdelegate@@V?$xalloc@V?$FastDelegate0@X@fastdelegate@@@@@priv@stlp_std@@QBEIXZ
_TEXT	SEGMENT
?size@?$_Impl_vector@V?$FastDelegate0@X@fastdelegate@@V?$xalloc@V?$FastDelegate0@X@fastdelegate@@@@@priv@stlp_std@@QBEIXZ PROC ; stlp_std::priv::_Impl_vector<fastdelegate::FastDelegate0<void>,xalloc<fastdelegate::FastDelegate0<void> > >::size, COMDAT
; _this$ = ecx

; 180  :   size_type size() const        { return size_type(this->_M_finish - this->_M_start); }

	mov	eax, DWORD PTR [ecx+4]
	sub	eax, DWORD PTR [ecx]
	sar	eax, 3
	ret	0
?size@?$_Impl_vector@V?$FastDelegate0@X@fastdelegate@@V?$xalloc@V?$FastDelegate0@X@fastdelegate@@@@@priv@stlp_std@@QBEIXZ ENDP ; stlp_std::priv::_Impl_vector<fastdelegate::FastDelegate0<void>,xalloc<fastdelegate::FastDelegate0<void> > >::size
; Function compile flags: /Ogtpy
_TEXT	ENDS
;	COMDAT ?capacity@?$_Impl_vector@U_REG_INFO@@V?$xalloc@U_REG_INFO@@@@@priv@stlp_std@@QBEIXZ
_TEXT	SEGMENT
?capacity@?$_Impl_vector@U_REG_INFO@@V?$xalloc@U_REG_INFO@@@@@priv@stlp_std@@QBEIXZ PROC ; stlp_std::priv::_Impl_vector<_REG_INFO,xalloc<_REG_INFO> >::capacity, COMDAT
; _this$ = eax

; 187  :   size_type capacity() const    { return size_type(this->_M_end_of_storage._M_data - this->_M_start); }

	mov	ecx, DWORD PTR [eax+8]
	sub	ecx, DWORD PTR [eax]
	mov	eax, 715827883				; 2aaaaaabH
	imul	ecx
	sar	edx, 1
	mov	eax, edx
	shr	eax, 31					; 0000001fH
	add	eax, edx
	ret	0
?capacity@?$_Impl_vector@U_REG_INFO@@V?$xalloc@U_REG_INFO@@@@@priv@stlp_std@@QBEIXZ ENDP ; stlp_std::priv::_Impl_vector<_REG_INFO,xalloc<_REG_INFO> >::capacity
; Function compile flags: /Ogtpy
_TEXT	ENDS
;	COMDAT ?capacity@?$_Impl_vector@UItemReg@CSheduler@@V?$xalloc@UItemReg@CSheduler@@@@@priv@stlp_std@@QBEIXZ
_TEXT	SEGMENT
?capacity@?$_Impl_vector@UItemReg@CSheduler@@V?$xalloc@UItemReg@CSheduler@@@@@priv@stlp_std@@QBEIXZ PROC ; stlp_std::priv::_Impl_vector<CSheduler::ItemReg,xalloc<CSheduler::ItemReg> >::capacity, COMDAT
; _this$ = eax

; 187  :   size_type capacity() const    { return size_type(this->_M_end_of_storage._M_data - this->_M_start); }

	mov	ecx, DWORD PTR [eax+8]
	sub	ecx, DWORD PTR [eax]
	mov	eax, 715827883				; 2aaaaaabH
	imul	ecx
	sar	edx, 1
	mov	eax, edx
	shr	eax, 31					; 0000001fH
	add	eax, edx
	ret	0
?capacity@?$_Impl_vector@UItemReg@CSheduler@@V?$xalloc@UItemReg@CSheduler@@@@@priv@stlp_std@@QBEIXZ ENDP ; stlp_std::priv::_Impl_vector<CSheduler::ItemReg,xalloc<CSheduler::ItemReg> >::capacity
; Function compile flags: /Ogtpy
_TEXT	ENDS
;	COMDAT ?capacity@?$_Impl_vector@UItem@CSheduler@@V?$xalloc@UItem@CSheduler@@@@@priv@stlp_std@@QBEIXZ
_TEXT	SEGMENT
?capacity@?$_Impl_vector@UItem@CSheduler@@V?$xalloc@UItem@CSheduler@@@@@priv@stlp_std@@QBEIXZ PROC ; stlp_std::priv::_Impl_vector<CSheduler::Item,xalloc<CSheduler::Item> >::capacity, COMDAT
; _this$ = eax

; 187  :   size_type capacity() const    { return size_type(this->_M_end_of_storage._M_data - this->_M_start); }

	mov	ecx, DWORD PTR [eax+8]
	sub	ecx, DWORD PTR [eax]
	mov	eax, 1717986919				; 66666667H
	imul	ecx
	sar	edx, 3
	mov	eax, edx
	shr	eax, 31					; 0000001fH
	add	eax, edx
	ret	0
?capacity@?$_Impl_vector@UItem@CSheduler@@V?$xalloc@UItem@CSheduler@@@@@priv@stlp_std@@QBEIXZ ENDP ; stlp_std::priv::_Impl_vector<CSheduler::Item,xalloc<CSheduler::Item> >::capacity
; Function compile flags: /Ogtpy
_TEXT	ENDS
;	COMDAT ?capacity@?$_Impl_vector@UDeferred@CEventAPI@@V?$xalloc@UDeferred@CEventAPI@@@@@priv@stlp_std@@QBEIXZ
_TEXT	SEGMENT
?capacity@?$_Impl_vector@UDeferred@CEventAPI@@V?$xalloc@UDeferred@CEventAPI@@@@@priv@stlp_std@@QBEIXZ PROC ; stlp_std::priv::_Impl_vector<CEventAPI::Deferred,xalloc<CEventAPI::Deferred> >::capacity, COMDAT
; _this$ = eax

; 187  :   size_type capacity() const    { return size_type(this->_M_end_of_storage._M_data - this->_M_start); }

	mov	ecx, DWORD PTR [eax+8]
	sub	ecx, DWORD PTR [eax]
	mov	eax, 715827883				; 2aaaaaabH
	imul	ecx
	sar	edx, 2
	mov	eax, edx
	shr	eax, 31					; 0000001fH
	add	eax, edx
	ret	0
?capacity@?$_Impl_vector@UDeferred@CEventAPI@@V?$xalloc@UDeferred@CEventAPI@@@@@priv@stlp_std@@QBEIXZ ENDP ; stlp_std::priv::_Impl_vector<CEventAPI::Deferred,xalloc<CEventAPI::Deferred> >::capacity
; Function compile flags: /Ogtpy
_TEXT	ENDS
;	COMDAT ?size@?$_Impl_vector@UDeferred@CEventAPI@@V?$xalloc@UDeferred@CEventAPI@@@@@priv@stlp_std@@QBEIXZ
_TEXT	SEGMENT
?size@?$_Impl_vector@UDeferred@CEventAPI@@V?$xalloc@UDeferred@CEventAPI@@@@@priv@stlp_std@@QBEIXZ PROC ; stlp_std::priv::_Impl_vector<CEventAPI::Deferred,xalloc<CEventAPI::Deferred> >::size, COMDAT
; _this$ = eax

; 180  :   size_type size() const        { return size_type(this->_M_finish - this->_M_start); }

	mov	ecx, DWORD PTR [eax+4]
	sub	ecx, DWORD PTR [eax]
	mov	eax, 715827883				; 2aaaaaabH
	imul	ecx
	sar	edx, 2
	mov	eax, edx
	shr	eax, 31					; 0000001fH
	add	eax, edx
	ret	0
?size@?$_Impl_vector@UDeferred@CEventAPI@@V?$xalloc@UDeferred@CEventAPI@@@@@priv@stlp_std@@QBEIXZ ENDP ; stlp_std::priv::_Impl_vector<CEventAPI::Deferred,xalloc<CEventAPI::Deferred> >::size
; Function compile flags: /Ogtpy
_TEXT	ENDS
;	COMDAT ?capacity@?$_Impl_vector@Vshared_str@@V?$xalloc@Vshared_str@@@@@priv@stlp_std@@QBEIXZ
_TEXT	SEGMENT
?capacity@?$_Impl_vector@Vshared_str@@V?$xalloc@Vshared_str@@@@@priv@stlp_std@@QBEIXZ PROC ; stlp_std::priv::_Impl_vector<shared_str,xalloc<shared_str> >::capacity, COMDAT
; _this$ = ecx

; 187  :   size_type capacity() const    { return size_type(this->_M_end_of_storage._M_data - this->_M_start); }

	mov	eax, DWORD PTR [ecx+8]
	sub	eax, DWORD PTR [ecx]
	sar	eax, 2
	ret	0
?capacity@?$_Impl_vector@Vshared_str@@V?$xalloc@Vshared_str@@@@@priv@stlp_std@@QBEIXZ ENDP ; stlp_std::priv::_Impl_vector<shared_str,xalloc<shared_str> >::capacity
; Function compile flags: /Ogtpy
_TEXT	ENDS
;	COMDAT ?capacity@?$_Impl_vector@PAXV?$xalloc@PAX@@@priv@stlp_std@@QBEIXZ
_TEXT	SEGMENT
?capacity@?$_Impl_vector@PAXV?$xalloc@PAX@@@priv@stlp_std@@QBEIXZ PROC ; stlp_std::priv::_Impl_vector<void *,xalloc<void *> >::capacity, COMDAT
; _this$ = ecx

; 187  :   size_type capacity() const    { return size_type(this->_M_end_of_storage._M_data - this->_M_start); }

	mov	eax, DWORD PTR [ecx+8]
	sub	eax, DWORD PTR [ecx]
	sar	eax, 2
	ret	0
?capacity@?$_Impl_vector@PAXV?$xalloc@PAX@@@priv@stlp_std@@QBEIXZ ENDP ; stlp_std::priv::_Impl_vector<void *,xalloc<void *> >::capacity
; Function compile flags: /Ogtpy
_TEXT	ENDS
;	COMDAT ?size@?$_Impl_vector@PAXV?$xalloc@PAX@@@priv@stlp_std@@QBEIXZ
_TEXT	SEGMENT
?size@?$_Impl_vector@PAXV?$xalloc@PAX@@@priv@stlp_std@@QBEIXZ PROC ; stlp_std::priv::_Impl_vector<void *,xalloc<void *> >::size, COMDAT
; _this$ = ecx

; 180  :   size_type size() const        { return size_type(this->_M_finish - this->_M_start); }

	mov	eax, DWORD PTR [ecx+4]
	sub	eax, DWORD PTR [ecx]
	sar	eax, 2
	ret	0
?size@?$_Impl_vector@PAXV?$xalloc@PAX@@@priv@stlp_std@@QBEIXZ ENDP ; stlp_std::priv::_Impl_vector<void *,xalloc<void *> >::size
; Function compile flags: /Ogtpy
; File d:\clearsky\sources\engine\xrcore\xrmemory.h
_TEXT	ENDS
;	COMDAT ??$xr_alloc@U_REG_INFO@@@@YAPAU_REG_INFO@@I@Z
_TEXT	SEGMENT
??$xr_alloc@U_REG_INFO@@@@YAPAU_REG_INFO@@I@Z PROC	; xr_alloc<_REG_INFO>, COMDAT
; _count$ = eax

; 109  : 	IC T*		xr_alloc	(u32 count)				{	return  (T*)Memory.mem_alloc(count*sizeof(T));	}

	mov	ecx, DWORD PTR __imp_?Memory@@3VxrMemory@@A
	lea	eax, DWORD PTR [eax+eax*2]
	add	eax, eax
	add	eax, eax
	push	eax
	call	DWORD PTR __imp_?mem_alloc@xrMemory@@QAEPAXI@Z
	ret	0
??$xr_alloc@U_REG_INFO@@@@YAPAU_REG_INFO@@I@Z ENDP	; xr_alloc<_REG_INFO>
; Function compile flags: /Ogtpy
_TEXT	ENDS
;	COMDAT ??$xr_alloc@UItemReg@CSheduler@@@@YAPAUItemReg@CSheduler@@I@Z
_TEXT	SEGMENT
??$xr_alloc@UItemReg@CSheduler@@@@YAPAUItemReg@CSheduler@@I@Z PROC ; xr_alloc<CSheduler::ItemReg>, COMDAT
; _count$ = eax

; 109  : 	IC T*		xr_alloc	(u32 count)				{	return  (T*)Memory.mem_alloc(count*sizeof(T));	}

	mov	ecx, DWORD PTR __imp_?Memory@@3VxrMemory@@A
	lea	eax, DWORD PTR [eax+eax*2]
	add	eax, eax
	add	eax, eax
	push	eax
	call	DWORD PTR __imp_?mem_alloc@xrMemory@@QAEPAXI@Z
	ret	0
??$xr_alloc@UItemReg@CSheduler@@@@YAPAUItemReg@CSheduler@@I@Z ENDP ; xr_alloc<CSheduler::ItemReg>
; Function compile flags: /Ogtpy
_TEXT	ENDS
;	COMDAT ??$xr_alloc@UItem@CSheduler@@@@YAPAUItem@CSheduler@@I@Z
_TEXT	SEGMENT
??$xr_alloc@UItem@CSheduler@@@@YAPAUItem@CSheduler@@I@Z PROC ; xr_alloc<CSheduler::Item>, COMDAT
; _count$ = eax

; 109  : 	IC T*		xr_alloc	(u32 count)				{	return  (T*)Memory.mem_alloc(count*sizeof(T));	}

	mov	ecx, DWORD PTR __imp_?Memory@@3VxrMemory@@A
	lea	eax, DWORD PTR [eax+eax*4]
	add	eax, eax
	add	eax, eax
	push	eax
	call	DWORD PTR __imp_?mem_alloc@xrMemory@@QAEPAXI@Z
	ret	0
??$xr_alloc@UItem@CSheduler@@@@YAPAUItem@CSheduler@@I@Z ENDP ; xr_alloc<CSheduler::Item>
; Function compile flags: /Ogtpy
_TEXT	ENDS
;	COMDAT ??$xr_alloc@Vshared_str@@@@YAPAVshared_str@@I@Z
_TEXT	SEGMENT
??$xr_alloc@Vshared_str@@@@YAPAVshared_str@@I@Z PROC	; xr_alloc<shared_str>, COMDAT
; _count$ = eax

; 109  : 	IC T*		xr_alloc	(u32 count)				{	return  (T*)Memory.mem_alloc(count*sizeof(T));	}

	lea	ecx, DWORD PTR [eax*4]
	push	ecx
	mov	ecx, DWORD PTR __imp_?Memory@@3VxrMemory@@A
	call	DWORD PTR __imp_?mem_alloc@xrMemory@@QAEPAXI@Z
	ret	0
??$xr_alloc@Vshared_str@@@@YAPAVshared_str@@I@Z ENDP	; xr_alloc<shared_str>
; Function compile flags: /Ogtpy
; File d:\clearsky\sources\sdk\include\stlport\stl\_construct.h
_TEXT	ENDS
;	COMDAT ??$_Destroy@V?$FastDelegate0@X@fastdelegate@@@stlp_std@@YAXPAV?$FastDelegate0@X@fastdelegate@@@Z
_TEXT	SEGMENT
??$_Destroy@V?$FastDelegate0@X@fastdelegate@@@stlp_std@@YAXPAV?$FastDelegate0@X@fastdelegate@@@Z PROC ; stlp_std::_Destroy<fastdelegate::FastDelegate0<void> >, COMDAT

; 60   : #if defined (_STLP_MSVC) && (_STLP_MSVC <= 1010)
; 61   :   __pointer;
; 62   : #endif
; 63   :   typedef typename __type_traits<_Tp>::has_trivial_destructor _Trivial_destructor;
; 64   :   __destroy_aux(__pointer, _Trivial_destructor());
; 65   : #if defined (_STLP_DEBUG_UNINITIALIZED)
; 66   :   memset(__REINTERPRET_CAST(char*, __pointer), _STLP_SHRED_BYTE, sizeof(_Tp));
; 67   : #endif
; 68   : }

	ret	0
??$_Destroy@V?$FastDelegate0@X@fastdelegate@@@stlp_std@@YAXPAV?$FastDelegate0@X@fastdelegate@@@Z ENDP ; stlp_std::_Destroy<fastdelegate::FastDelegate0<void> >
; Function compile flags: /Ogtpy
; File d:\clearsky\sources\engine\xrcore\xrmemory.h
_TEXT	ENDS
;	COMDAT ??$xr_free@V?$FastDelegate0@X@fastdelegate@@@@YAXAAPAV?$FastDelegate0@X@fastdelegate@@@Z
_TEXT	SEGMENT
??$xr_free@V?$FastDelegate0@X@fastdelegate@@@@YAXAAPAV?$FastDelegate0@X@fastdelegate@@@Z PROC ; xr_free<fastdelegate::FastDelegate0<void> >, COMDAT
; _P$ = esi

; 111  : 	IC void		xr_free		(T* &P)					{	if (P) { Memory.mem_free((void*)P); P=NULL;	};	}

	mov	eax, DWORD PTR [esi]
	test	eax, eax
	je	SHORT $LN1@xr_free@49
	mov	ecx, DWORD PTR __imp_?Memory@@3VxrMemory@@A
	push	eax
	call	DWORD PTR __imp_?mem_free@xrMemory@@QAEXPAX@Z
	mov	DWORD PTR [esi], 0
$LN1@xr_free@49:
	ret	0
??$xr_free@V?$FastDelegate0@X@fastdelegate@@@@YAXAAPAV?$FastDelegate0@X@fastdelegate@@@Z ENDP ; xr_free<fastdelegate::FastDelegate0<void> >
; Function compile flags: /Ogtpy
_TEXT	ENDS
;	COMDAT ??$xr_free@U_REG_INFO@@@@YAXAAPAU_REG_INFO@@@Z
_TEXT	SEGMENT
??$xr_free@U_REG_INFO@@@@YAXAAPAU_REG_INFO@@@Z PROC	; xr_free<_REG_INFO>, COMDAT
; _P$ = esi

; 111  : 	IC void		xr_free		(T* &P)					{	if (P) { Memory.mem_free((void*)P); P=NULL;	};	}

	mov	eax, DWORD PTR [esi]
	test	eax, eax
	je	SHORT $LN1@xr_free@50
	mov	ecx, DWORD PTR __imp_?Memory@@3VxrMemory@@A
	push	eax
	call	DWORD PTR __imp_?mem_free@xrMemory@@QAEXPAX@Z
	mov	DWORD PTR [esi], 0
$LN1@xr_free@50:
	ret	0
??$xr_free@U_REG_INFO@@@@YAXAAPAU_REG_INFO@@@Z ENDP	; xr_free<_REG_INFO>
; Function compile flags: /Ogtpy
_TEXT	ENDS
;	COMDAT ??$xr_free@UItemReg@CSheduler@@@@YAXAAPAUItemReg@CSheduler@@@Z
_TEXT	SEGMENT
??$xr_free@UItemReg@CSheduler@@@@YAXAAPAUItemReg@CSheduler@@@Z PROC ; xr_free<CSheduler::ItemReg>, COMDAT
; _P$ = esi

; 111  : 	IC void		xr_free		(T* &P)					{	if (P) { Memory.mem_free((void*)P); P=NULL;	};	}

	mov	eax, DWORD PTR [esi]
	test	eax, eax
	je	SHORT $LN1@xr_free@51
	mov	ecx, DWORD PTR __imp_?Memory@@3VxrMemory@@A
	push	eax
	call	DWORD PTR __imp_?mem_free@xrMemory@@QAEXPAX@Z
	mov	DWORD PTR [esi], 0
$LN1@xr_free@51:
	ret	0
??$xr_free@UItemReg@CSheduler@@@@YAXAAPAUItemReg@CSheduler@@@Z ENDP ; xr_free<CSheduler::ItemReg>
; Function compile flags: /Ogtpy
_TEXT	ENDS
;	COMDAT ??$xr_free@UItem@CSheduler@@@@YAXAAPAUItem@CSheduler@@@Z
_TEXT	SEGMENT
??$xr_free@UItem@CSheduler@@@@YAXAAPAUItem@CSheduler@@@Z PROC ; xr_free<CSheduler::Item>, COMDAT
; _P$ = esi

; 111  : 	IC void		xr_free		(T* &P)					{	if (P) { Memory.mem_free((void*)P); P=NULL;	};	}

	mov	eax, DWORD PTR [esi]
	test	eax, eax
	je	SHORT $LN1@xr_free@52
	mov	ecx, DWORD PTR __imp_?Memory@@3VxrMemory@@A
	push	eax
	call	DWORD PTR __imp_?mem_free@xrMemory@@QAEXPAX@Z
	mov	DWORD PTR [esi], 0
$LN1@xr_free@52:
	ret	0
??$xr_free@UItem@CSheduler@@@@YAXAAPAUItem@CSheduler@@@Z ENDP ; xr_free<CSheduler::Item>
; Function compile flags: /Ogtpy
_TEXT	ENDS
;	COMDAT ??$xr_free@UDeferred@CEventAPI@@@@YAXAAPAUDeferred@CEventAPI@@@Z
_TEXT	SEGMENT
??$xr_free@UDeferred@CEventAPI@@@@YAXAAPAUDeferred@CEventAPI@@@Z PROC ; xr_free<CEventAPI::Deferred>, COMDAT
; _P$ = esi

; 111  : 	IC void		xr_free		(T* &P)					{	if (P) { Memory.mem_free((void*)P); P=NULL;	};	}

	mov	eax, DWORD PTR [esi]
	test	eax, eax
	je	SHORT $LN1@xr_free@53
	mov	ecx, DWORD PTR __imp_?Memory@@3VxrMemory@@A
	push	eax
	call	DWORD PTR __imp_?mem_free@xrMemory@@QAEXPAX@Z
	mov	DWORD PTR [esi], 0
$LN1@xr_free@53:
	ret	0
??$xr_free@UDeferred@CEventAPI@@@@YAXAAPAUDeferred@CEventAPI@@@Z ENDP ; xr_free<CEventAPI::Deferred>
; Function compile flags: /Ogtpy
_TEXT	ENDS
;	COMDAT ??$xr_free@Vshared_str@@@@YAXAAPAVshared_str@@@Z
_TEXT	SEGMENT
??$xr_free@Vshared_str@@@@YAXAAPAVshared_str@@@Z PROC	; xr_free<shared_str>, COMDAT
; _P$ = esi

; 111  : 	IC void		xr_free		(T* &P)					{	if (P) { Memory.mem_free((void*)P); P=NULL;	};	}

	mov	eax, DWORD PTR [esi]
	test	eax, eax
	je	SHORT $LN1@xr_free@54
	mov	ecx, DWORD PTR __imp_?Memory@@3VxrMemory@@A
	push	eax
	call	DWORD PTR __imp_?mem_free@xrMemory@@QAEXPAX@Z
	mov	DWORD PTR [esi], 0
$LN1@xr_free@54:
	ret	0
??$xr_free@Vshared_str@@@@YAXAAPAVshared_str@@@Z ENDP	; xr_free<shared_str>
; Function compile flags: /Ogtpy
_TEXT	ENDS
;	COMDAT ??$xr_free@PAX@@YAXAAPAPAX@Z
_TEXT	SEGMENT
??$xr_free@PAX@@YAXAAPAPAX@Z PROC			; xr_free<void *>, COMDAT
; _P$ = esi

; 111  : 	IC void		xr_free		(T* &P)					{	if (P) { Memory.mem_free((void*)P); P=NULL;	};	}

	mov	eax, DWORD PTR [esi]
	test	eax, eax
	je	SHORT $LN1@xr_free@55
	mov	ecx, DWORD PTR __imp_?Memory@@3VxrMemory@@A
	push	eax
	call	DWORD PTR __imp_?mem_free@xrMemory@@QAEXPAX@Z
	mov	DWORD PTR [esi], 0
$LN1@xr_free@55:
	ret	0
??$xr_free@PAX@@YAXAAPAPAX@Z ENDP			; xr_free<void *>
; Function compile flags: /Ogtpy
; File d:\clearsky\sources\engine\xrcore\_stl_extensions.h
_TEXT	ENDS
;	COMDAT ??$?0PAVCEvent@@@?$xalloc@PAX@@QAE@ABV?$xalloc@PAVCEvent@@@@@Z
_TEXT	SEGMENT
??$?0PAVCEvent@@@?$xalloc@PAX@@QAE@ABV?$xalloc@PAVCEvent@@@@@Z PROC ; xalloc<void *>::xalloc<void *><CEvent *>, COMDAT
; _this$ = eax

; 79   : 	template<class _Other>							xalloc			(const xalloc<_Other>&)					{	}

	ret	0
??$?0PAVCEvent@@@?$xalloc@PAX@@QAE@ABV?$xalloc@PAVCEvent@@@@@Z ENDP ; xalloc<void *>::xalloc<void *><CEvent *>
; Function compile flags: /Ogtpy
_TEXT	ENDS
;	COMDAT ?allocate@?$xalloc@U_REG_INFO@@@@QBEPAU_REG_INFO@@IPBX@Z
_TEXT	SEGMENT
?allocate@?$xalloc@U_REG_INFO@@@@QBEPAU_REG_INFO@@IPBX@Z PROC ; xalloc<_REG_INFO>::allocate, COMDAT
; _n$ = eax

; 81   : 							pointer					allocate		(size_type n, const void* p=0) const	{	return xr_alloc<T>((u32)n);	}

	mov	ecx, DWORD PTR __imp_?Memory@@3VxrMemory@@A
	lea	eax, DWORD PTR [eax+eax*2]
	add	eax, eax
	add	eax, eax
	push	eax
	call	DWORD PTR __imp_?mem_alloc@xrMemory@@QAEPAXI@Z
	ret	0
?allocate@?$xalloc@U_REG_INFO@@@@QBEPAU_REG_INFO@@IPBX@Z ENDP ; xalloc<_REG_INFO>::allocate
; Function compile flags: /Ogtpy
_TEXT	ENDS
;	COMDAT ?allocate@?$xalloc@UItemReg@CSheduler@@@@QBEPAUItemReg@CSheduler@@IPBX@Z
_TEXT	SEGMENT
?allocate@?$xalloc@UItemReg@CSheduler@@@@QBEPAUItemReg@CSheduler@@IPBX@Z PROC ; xalloc<CSheduler::ItemReg>::allocate, COMDAT
; _n$ = eax

; 81   : 							pointer					allocate		(size_type n, const void* p=0) const	{	return xr_alloc<T>((u32)n);	}

	mov	ecx, DWORD PTR __imp_?Memory@@3VxrMemory@@A
	lea	eax, DWORD PTR [eax+eax*2]
	add	eax, eax
	add	eax, eax
	push	eax
	call	DWORD PTR __imp_?mem_alloc@xrMemory@@QAEPAXI@Z
	ret	0
?allocate@?$xalloc@UItemReg@CSheduler@@@@QBEPAUItemReg@CSheduler@@IPBX@Z ENDP ; xalloc<CSheduler::ItemReg>::allocate
; Function compile flags: /Ogtpy
_TEXT	ENDS
;	COMDAT ?allocate@?$xalloc@UItem@CSheduler@@@@QBEPAUItem@CSheduler@@IPBX@Z
_TEXT	SEGMENT
?allocate@?$xalloc@UItem@CSheduler@@@@QBEPAUItem@CSheduler@@IPBX@Z PROC ; xalloc<CSheduler::Item>::allocate, COMDAT
; _n$ = eax

; 81   : 							pointer					allocate		(size_type n, const void* p=0) const	{	return xr_alloc<T>((u32)n);	}

	mov	ecx, DWORD PTR __imp_?Memory@@3VxrMemory@@A
	lea	eax, DWORD PTR [eax+eax*4]
	add	eax, eax
	add	eax, eax
	push	eax
	call	DWORD PTR __imp_?mem_alloc@xrMemory@@QAEPAXI@Z
	ret	0
?allocate@?$xalloc@UItem@CSheduler@@@@QBEPAUItem@CSheduler@@IPBX@Z ENDP ; xalloc<CSheduler::Item>::allocate
; Function compile flags: /Ogtpy
_TEXT	ENDS
;	COMDAT ?allocate@?$xalloc@Vshared_str@@@@QBEPAVshared_str@@IPBX@Z
_TEXT	SEGMENT
?allocate@?$xalloc@Vshared_str@@@@QBEPAVshared_str@@IPBX@Z PROC ; xalloc<shared_str>::allocate, COMDAT
; _n$ = eax

; 81   : 							pointer					allocate		(size_type n, const void* p=0) const	{	return xr_alloc<T>((u32)n);	}

	lea	ecx, DWORD PTR [eax*4]
	push	ecx
	mov	ecx, DWORD PTR __imp_?Memory@@3VxrMemory@@A
	call	DWORD PTR __imp_?mem_alloc@xrMemory@@QAEPAXI@Z
	ret	0
?allocate@?$xalloc@Vshared_str@@@@QBEPAVshared_str@@IPBX@Z ENDP ; xalloc<shared_str>::allocate
; Function compile flags: /Ogtpy
_TEXT	ENDS
;	COMDAT ??0?$xalloc@V?$FastDelegate0@X@fastdelegate@@@@QAE@ABV0@@Z
_TEXT	SEGMENT
??0?$xalloc@V?$FastDelegate0@X@fastdelegate@@@@QAE@ABV0@@Z PROC ; xalloc<fastdelegate::FastDelegate0<void> >::xalloc<fastdelegate::FastDelegate0<void> >, COMDAT
; _this$ = eax

; 78   : 													xalloc			(const xalloc<T>&)						{	}

	ret	0
??0?$xalloc@V?$FastDelegate0@X@fastdelegate@@@@QAE@ABV0@@Z ENDP ; xalloc<fastdelegate::FastDelegate0<void> >::xalloc<fastdelegate::FastDelegate0<void> >
; Function compile flags: /Ogtpy
; File d:\clearsky\sources\sdk\include\stlport\stl\_alloc.h
_TEXT	ENDS
;	COMDAT ?allocate@?$_STLP_alloc_proxy@PAU_REG_INFO@@U1@V?$xalloc@U_REG_INFO@@@@@priv@stlp_std@@QAEPAU_REG_INFO@@I@Z
_TEXT	SEGMENT
?allocate@?$_STLP_alloc_proxy@PAU_REG_INFO@@U1@V?$xalloc@U_REG_INFO@@@@@priv@stlp_std@@QAEPAU_REG_INFO@@I@Z PROC ; stlp_std::priv::_STLP_alloc_proxy<_REG_INFO *,_REG_INFO,xalloc<_REG_INFO> >::allocate, COMDAT
; ___n$ = eax

; 633  :   { return _Base::allocate(__n); }

	mov	ecx, DWORD PTR __imp_?Memory@@3VxrMemory@@A
	lea	eax, DWORD PTR [eax+eax*2]
	add	eax, eax
	add	eax, eax
	push	eax
	call	DWORD PTR __imp_?mem_alloc@xrMemory@@QAEPAXI@Z
	ret	0
?allocate@?$_STLP_alloc_proxy@PAU_REG_INFO@@U1@V?$xalloc@U_REG_INFO@@@@@priv@stlp_std@@QAEPAU_REG_INFO@@I@Z ENDP ; stlp_std::priv::_STLP_alloc_proxy<_REG_INFO *,_REG_INFO,xalloc<_REG_INFO> >::allocate
; Function compile flags: /Ogtpy
_TEXT	ENDS
;	COMDAT ?allocate@?$_STLP_alloc_proxy@PAUItemReg@CSheduler@@U12@V?$xalloc@UItemReg@CSheduler@@@@@priv@stlp_std@@QAEPAUItemReg@CSheduler@@I@Z
_TEXT	SEGMENT
?allocate@?$_STLP_alloc_proxy@PAUItemReg@CSheduler@@U12@V?$xalloc@UItemReg@CSheduler@@@@@priv@stlp_std@@QAEPAUItemReg@CSheduler@@I@Z PROC ; stlp_std::priv::_STLP_alloc_proxy<CSheduler::ItemReg *,CSheduler::ItemReg,xalloc<CSheduler::ItemReg> >::allocate, COMDAT
; ___n$ = eax

; 633  :   { return _Base::allocate(__n); }

	mov	ecx, DWORD PTR __imp_?Memory@@3VxrMemory@@A
	lea	eax, DWORD PTR [eax+eax*2]
	add	eax, eax
	add	eax, eax
	push	eax
	call	DWORD PTR __imp_?mem_alloc@xrMemory@@QAEPAXI@Z
	ret	0
?allocate@?$_STLP_alloc_proxy@PAUItemReg@CSheduler@@U12@V?$xalloc@UItemReg@CSheduler@@@@@priv@stlp_std@@QAEPAUItemReg@CSheduler@@I@Z ENDP ; stlp_std::priv::_STLP_alloc_proxy<CSheduler::ItemReg *,CSheduler::ItemReg,xalloc<CSheduler::ItemReg> >::allocate
; Function compile flags: /Ogtpy
_TEXT	ENDS
;	COMDAT ?allocate@?$_STLP_alloc_proxy@PAUItem@CSheduler@@U12@V?$xalloc@UItem@CSheduler@@@@@priv@stlp_std@@QAEPAUItem@CSheduler@@I@Z
_TEXT	SEGMENT
?allocate@?$_STLP_alloc_proxy@PAUItem@CSheduler@@U12@V?$xalloc@UItem@CSheduler@@@@@priv@stlp_std@@QAEPAUItem@CSheduler@@I@Z PROC ; stlp_std::priv::_STLP_alloc_proxy<CSheduler::Item *,CSheduler::Item,xalloc<CSheduler::Item> >::allocate, COMDAT
; ___n$ = eax

; 633  :   { return _Base::allocate(__n); }

	mov	ecx, DWORD PTR __imp_?Memory@@3VxrMemory@@A
	lea	eax, DWORD PTR [eax+eax*4]
	add	eax, eax
	add	eax, eax
	push	eax
	call	DWORD PTR __imp_?mem_alloc@xrMemory@@QAEPAXI@Z
	ret	0
?allocate@?$_STLP_alloc_proxy@PAUItem@CSheduler@@U12@V?$xalloc@UItem@CSheduler@@@@@priv@stlp_std@@QAEPAUItem@CSheduler@@I@Z ENDP ; stlp_std::priv::_STLP_alloc_proxy<CSheduler::Item *,CSheduler::Item,xalloc<CSheduler::Item> >::allocate
; Function compile flags: /Ogtpy
; File d:\clearsky\sources\engine\xrcore\_stl_extensions.h
_TEXT	ENDS
;	COMDAT ??0?$xalloc@UDeferred@CEventAPI@@@@QAE@ABV0@@Z
_TEXT	SEGMENT
??0?$xalloc@UDeferred@CEventAPI@@@@QAE@ABV0@@Z PROC	; xalloc<CEventAPI::Deferred>::xalloc<CEventAPI::Deferred>, COMDAT
; _this$ = eax

; 78   : 													xalloc			(const xalloc<T>&)						{	}

	ret	0
??0?$xalloc@UDeferred@CEventAPI@@@@QAE@ABV0@@Z ENDP	; xalloc<CEventAPI::Deferred>::xalloc<CEventAPI::Deferred>
; Function compile flags: /Ogtpy
; File d:\clearsky\sources\sdk\include\stlport\stl\_alloc.h
_TEXT	ENDS
;	COMDAT ?allocate@?$_STLP_alloc_proxy@PAVshared_str@@V1@V?$xalloc@Vshared_str@@@@@priv@stlp_std@@QAEPAVshared_str@@I@Z
_TEXT	SEGMENT
?allocate@?$_STLP_alloc_proxy@PAVshared_str@@V1@V?$xalloc@Vshared_str@@@@@priv@stlp_std@@QAEPAVshared_str@@I@Z PROC ; stlp_std::priv::_STLP_alloc_proxy<shared_str *,shared_str,xalloc<shared_str> >::allocate, COMDAT
; ___n$ = eax

; 633  :   { return _Base::allocate(__n); }

	lea	ecx, DWORD PTR [eax*4]
	push	ecx
	mov	ecx, DWORD PTR __imp_?Memory@@3VxrMemory@@A
	call	DWORD PTR __imp_?mem_alloc@xrMemory@@QAEPAXI@Z
	ret	0
?allocate@?$_STLP_alloc_proxy@PAVshared_str@@V1@V?$xalloc@Vshared_str@@@@@priv@stlp_std@@QAEPAVshared_str@@I@Z ENDP ; stlp_std::priv::_STLP_alloc_proxy<shared_str *,shared_str,xalloc<shared_str> >::allocate
; Function compile flags: /Ogtpy
; File d:\clearsky\sources\engine\xrcore\_stl_extensions.h
_TEXT	ENDS
;	COMDAT ??0?$xalloc@PAX@@QAE@ABV0@@Z
_TEXT	SEGMENT
??0?$xalloc@PAX@@QAE@ABV0@@Z PROC			; xalloc<void *>::xalloc<void *>, COMDAT
; _this$ = eax

; 78   : 													xalloc			(const xalloc<T>&)						{	}

	ret	0
??0?$xalloc@PAX@@QAE@ABV0@@Z ENDP			; xalloc<void *>::xalloc<void *>
; Function compile flags: /Ogtpy
; File d:\clearsky\sources\sdk\include\stlport\stl\_alloc.h
_TEXT	ENDS
;	COMDAT ??0?$_STLP_alloc_proxy@PAV?$FastDelegate0@X@fastdelegate@@V12@V?$xalloc@V?$FastDelegate0@X@fastdelegate@@@@@priv@stlp_std@@QAE@ABV?$xalloc@V?$FastDelegate0@X@fastdelegate@@@@PAV?$FastDelegate0@X@fastdelegate@@@Z
_TEXT	SEGMENT
??0?$_STLP_alloc_proxy@PAV?$FastDelegate0@X@fastdelegate@@V12@V?$xalloc@V?$FastDelegate0@X@fastdelegate@@@@@priv@stlp_std@@QAE@ABV?$xalloc@V?$FastDelegate0@X@fastdelegate@@@@PAV?$FastDelegate0@X@fastdelegate@@@Z PROC ; stlp_std::priv::_STLP_alloc_proxy<fastdelegate::FastDelegate0<void> *,fastdelegate::FastDelegate0<void>,xalloc<fastdelegate::FastDelegate0<void> > >::_STLP_alloc_proxy<fastdelegate::FastDelegate0<void> *,fastdelegate::FastDelegate0<void>,xalloc<fastdelegate::FastDelegate0<void> > >, COMDAT
; _this$ = eax

; 571  :     _MaybeReboundAlloc(__a), _M_data(__p) {}

	mov	DWORD PTR [eax], 0
	ret	0
??0?$_STLP_alloc_proxy@PAV?$FastDelegate0@X@fastdelegate@@V12@V?$xalloc@V?$FastDelegate0@X@fastdelegate@@@@@priv@stlp_std@@QAE@ABV?$xalloc@V?$FastDelegate0@X@fastdelegate@@@@PAV?$FastDelegate0@X@fastdelegate@@@Z ENDP ; stlp_std::priv::_STLP_alloc_proxy<fastdelegate::FastDelegate0<void> *,fastdelegate::FastDelegate0<void>,xalloc<fastdelegate::FastDelegate0<void> > >::_STLP_alloc_proxy<fastdelegate::FastDelegate0<void> *,fastdelegate::FastDelegate0<void>,xalloc<fastdelegate::FastDelegate0<void> > >
; Function compile flags: /Ogtpy
_TEXT	ENDS
;	COMDAT ?allocate@?$_STLP_alloc_proxy@PAU_REG_INFO@@U1@V?$xalloc@U_REG_INFO@@@@@priv@stlp_std@@AAEPAU_REG_INFO@@IAAIABU__false_type@3@@Z
_TEXT	SEGMENT
?allocate@?$_STLP_alloc_proxy@PAU_REG_INFO@@U1@V?$xalloc@U_REG_INFO@@@@@priv@stlp_std@@AAEPAU_REG_INFO@@IAAIABU__false_type@3@@Z PROC ; stlp_std::priv::_STLP_alloc_proxy<_REG_INFO *,_REG_INFO,xalloc<_REG_INFO> >::allocate, COMDAT
; ___n$ = eax
; ___allocated_n$ = ecx

; 640  :   { __allocated_n = __n; return allocate(__n); }

	lea	edx, DWORD PTR [eax+eax*2]
	add	edx, edx
	add	edx, edx
	mov	DWORD PTR [ecx], eax
	mov	ecx, DWORD PTR __imp_?Memory@@3VxrMemory@@A
	push	edx
	call	DWORD PTR __imp_?mem_alloc@xrMemory@@QAEPAXI@Z
	ret	0
?allocate@?$_STLP_alloc_proxy@PAU_REG_INFO@@U1@V?$xalloc@U_REG_INFO@@@@@priv@stlp_std@@AAEPAU_REG_INFO@@IAAIABU__false_type@3@@Z ENDP ; stlp_std::priv::_STLP_alloc_proxy<_REG_INFO *,_REG_INFO,xalloc<_REG_INFO> >::allocate
; Function compile flags: /Ogtpy
_TEXT	ENDS
;	COMDAT ?allocate@?$_STLP_alloc_proxy@PAUItemReg@CSheduler@@U12@V?$xalloc@UItemReg@CSheduler@@@@@priv@stlp_std@@AAEPAUItemReg@CSheduler@@IAAIABU__false_type@3@@Z
_TEXT	SEGMENT
?allocate@?$_STLP_alloc_proxy@PAUItemReg@CSheduler@@U12@V?$xalloc@UItemReg@CSheduler@@@@@priv@stlp_std@@AAEPAUItemReg@CSheduler@@IAAIABU__false_type@3@@Z PROC ; stlp_std::priv::_STLP_alloc_proxy<CSheduler::ItemReg *,CSheduler::ItemReg,xalloc<CSheduler::ItemReg> >::allocate, COMDAT
; ___n$ = eax
; ___allocated_n$ = ecx

; 640  :   { __allocated_n = __n; return allocate(__n); }

	lea	edx, DWORD PTR [eax+eax*2]
	add	edx, edx
	add	edx, edx
	mov	DWORD PTR [ecx], eax
	mov	ecx, DWORD PTR __imp_?Memory@@3VxrMemory@@A
	push	edx
	call	DWORD PTR __imp_?mem_alloc@xrMemory@@QAEPAXI@Z
	ret	0
?allocate@?$_STLP_alloc_proxy@PAUItemReg@CSheduler@@U12@V?$xalloc@UItemReg@CSheduler@@@@@priv@stlp_std@@AAEPAUItemReg@CSheduler@@IAAIABU__false_type@3@@Z ENDP ; stlp_std::priv::_STLP_alloc_proxy<CSheduler::ItemReg *,CSheduler::ItemReg,xalloc<CSheduler::ItemReg> >::allocate
; Function compile flags: /Ogtpy
_TEXT	ENDS
;	COMDAT ?allocate@?$_STLP_alloc_proxy@PAUItem@CSheduler@@U12@V?$xalloc@UItem@CSheduler@@@@@priv@stlp_std@@AAEPAUItem@CSheduler@@IAAIABU__false_type@3@@Z
_TEXT	SEGMENT
?allocate@?$_STLP_alloc_proxy@PAUItem@CSheduler@@U12@V?$xalloc@UItem@CSheduler@@@@@priv@stlp_std@@AAEPAUItem@CSheduler@@IAAIABU__false_type@3@@Z PROC ; stlp_std::priv::_STLP_alloc_proxy<CSheduler::Item *,CSheduler::Item,xalloc<CSheduler::Item> >::allocate, COMDAT
; ___n$ = eax
; ___allocated_n$ = ecx

; 640  :   { __allocated_n = __n; return allocate(__n); }

	lea	edx, DWORD PTR [eax+eax*4]
	add	edx, edx
	add	edx, edx
	mov	DWORD PTR [ecx], eax
	mov	ecx, DWORD PTR __imp_?Memory@@3VxrMemory@@A
	push	edx
	call	DWORD PTR __imp_?mem_alloc@xrMemory@@QAEPAXI@Z
	ret	0
?allocate@?$_STLP_alloc_proxy@PAUItem@CSheduler@@U12@V?$xalloc@UItem@CSheduler@@@@@priv@stlp_std@@AAEPAUItem@CSheduler@@IAAIABU__false_type@3@@Z ENDP ; stlp_std::priv::_STLP_alloc_proxy<CSheduler::Item *,CSheduler::Item,xalloc<CSheduler::Item> >::allocate
; Function compile flags: /Ogtpy
_TEXT	ENDS
;	COMDAT ??0?$_STLP_alloc_proxy@PAUDeferred@CEventAPI@@U12@V?$xalloc@UDeferred@CEventAPI@@@@@priv@stlp_std@@QAE@ABV?$xalloc@UDeferred@CEventAPI@@@@PAUDeferred@CEventAPI@@@Z
_TEXT	SEGMENT
??0?$_STLP_alloc_proxy@PAUDeferred@CEventAPI@@U12@V?$xalloc@UDeferred@CEventAPI@@@@@priv@stlp_std@@QAE@ABV?$xalloc@UDeferred@CEventAPI@@@@PAUDeferred@CEventAPI@@@Z PROC ; stlp_std::priv::_STLP_alloc_proxy<CEventAPI::Deferred *,CEventAPI::Deferred,xalloc<CEventAPI::Deferred> >::_STLP_alloc_proxy<CEventAPI::Deferred *,CEventAPI::Deferred,xalloc<CEventAPI::Deferred> >, COMDAT
; _this$ = eax

; 571  :     _MaybeReboundAlloc(__a), _M_data(__p) {}

	mov	DWORD PTR [eax], 0
	ret	0
??0?$_STLP_alloc_proxy@PAUDeferred@CEventAPI@@U12@V?$xalloc@UDeferred@CEventAPI@@@@@priv@stlp_std@@QAE@ABV?$xalloc@UDeferred@CEventAPI@@@@PAUDeferred@CEventAPI@@@Z ENDP ; stlp_std::priv::_STLP_alloc_proxy<CEventAPI::Deferred *,CEventAPI::Deferred,xalloc<CEventAPI::Deferred> >::_STLP_alloc_proxy<CEventAPI::Deferred *,CEventAPI::Deferred,xalloc<CEventAPI::Deferred> >
; Function compile flags: /Ogtpy
_TEXT	ENDS
;	COMDAT ?allocate@?$_STLP_alloc_proxy@PAVshared_str@@V1@V?$xalloc@Vshared_str@@@@@priv@stlp_std@@AAEPAVshared_str@@IAAIABU__false_type@3@@Z
_TEXT	SEGMENT
?allocate@?$_STLP_alloc_proxy@PAVshared_str@@V1@V?$xalloc@Vshared_str@@@@@priv@stlp_std@@AAEPAVshared_str@@IAAIABU__false_type@3@@Z PROC ; stlp_std::priv::_STLP_alloc_proxy<shared_str *,shared_str,xalloc<shared_str> >::allocate, COMDAT
; ___n$ = eax
; ___allocated_n$ = ecx

; 640  :   { __allocated_n = __n; return allocate(__n); }

	lea	edx, DWORD PTR [eax*4]
	mov	DWORD PTR [ecx], eax
	mov	ecx, DWORD PTR __imp_?Memory@@3VxrMemory@@A
	push	edx
	call	DWORD PTR __imp_?mem_alloc@xrMemory@@QAEPAXI@Z
	ret	0
?allocate@?$_STLP_alloc_proxy@PAVshared_str@@V1@V?$xalloc@Vshared_str@@@@@priv@stlp_std@@AAEPAVshared_str@@IAAIABU__false_type@3@@Z ENDP ; stlp_std::priv::_STLP_alloc_proxy<shared_str *,shared_str,xalloc<shared_str> >::allocate
; Function compile flags: /Ogtpy
_TEXT	ENDS
;	COMDAT ??0?$_STLP_alloc_proxy@PAPAXPAXV?$xalloc@PAX@@@priv@stlp_std@@QAE@ABV?$xalloc@PAX@@PAPAX@Z
_TEXT	SEGMENT
??0?$_STLP_alloc_proxy@PAPAXPAXV?$xalloc@PAX@@@priv@stlp_std@@QAE@ABV?$xalloc@PAX@@PAPAX@Z PROC ; stlp_std::priv::_STLP_alloc_proxy<void * *,void *,xalloc<void *> >::_STLP_alloc_proxy<void * *,void *,xalloc<void *> >, COMDAT
; _this$ = eax
; ___p$ = ecx

; 571  :     _MaybeReboundAlloc(__a), _M_data(__p) {}

	mov	DWORD PTR [eax], ecx
	ret	0
??0?$_STLP_alloc_proxy@PAPAXPAXV?$xalloc@PAX@@@priv@stlp_std@@QAE@ABV?$xalloc@PAX@@PAPAX@Z ENDP ; stlp_std::priv::_STLP_alloc_proxy<void * *,void *,xalloc<void *> >::_STLP_alloc_proxy<void * *,void *,xalloc<void *> >
; Function compile flags: /Ogtpy
; File d:\clearsky\sources\sdk\include\stlport\stl\_vector.h
_TEXT	ENDS
;	COMDAT ??0?$_Vector_base@V?$FastDelegate0@X@fastdelegate@@V?$xalloc@V?$FastDelegate0@X@fastdelegate@@@@@priv@stlp_std@@QAE@ABV?$xalloc@V?$FastDelegate0@X@fastdelegate@@@@@Z
_TEXT	SEGMENT
??0?$_Vector_base@V?$FastDelegate0@X@fastdelegate@@V?$xalloc@V?$FastDelegate0@X@fastdelegate@@@@@priv@stlp_std@@QAE@ABV?$xalloc@V?$FastDelegate0@X@fastdelegate@@@@@Z PROC ; stlp_std::priv::_Vector_base<fastdelegate::FastDelegate0<void>,xalloc<fastdelegate::FastDelegate0<void> > >::_Vector_base<fastdelegate::FastDelegate0<void>,xalloc<fastdelegate::FastDelegate0<void> > >, COMDAT
; _this$ = eax

; 67   :     : _M_start(0), _M_finish(0), _M_end_of_storage(__a, 0) {}

	xor	ecx, ecx
	mov	DWORD PTR [eax], ecx
	mov	DWORD PTR [eax+4], ecx
	mov	DWORD PTR [eax+8], ecx
	ret	0
??0?$_Vector_base@V?$FastDelegate0@X@fastdelegate@@V?$xalloc@V?$FastDelegate0@X@fastdelegate@@@@@priv@stlp_std@@QAE@ABV?$xalloc@V?$FastDelegate0@X@fastdelegate@@@@@Z ENDP ; stlp_std::priv::_Vector_base<fastdelegate::FastDelegate0<void>,xalloc<fastdelegate::FastDelegate0<void> > >::_Vector_base<fastdelegate::FastDelegate0<void>,xalloc<fastdelegate::FastDelegate0<void> > >
; Function compile flags: /Ogtpy
; File d:\clearsky\sources\sdk\include\stlport\stl\_alloc.h
_TEXT	ENDS
;	COMDAT ?allocate@?$_STLP_alloc_proxy@PAU_REG_INFO@@U1@V?$xalloc@U_REG_INFO@@@@@priv@stlp_std@@QAEPAU_REG_INFO@@IAAI@Z
_TEXT	SEGMENT
?allocate@?$_STLP_alloc_proxy@PAU_REG_INFO@@U1@V?$xalloc@U_REG_INFO@@@@@priv@stlp_std@@QAEPAU_REG_INFO@@IAAI@Z PROC ; stlp_std::priv::_STLP_alloc_proxy<_REG_INFO *,_REG_INFO,xalloc<_REG_INFO> >::allocate, COMDAT
; ___n$ = eax
; ___allocated_n$ = ecx

; 611  : #if !defined (__BORLANDC__)
; 612  :     typedef typename _IsSTLportClass<_MaybeReboundAlloc>::_Ret _STLportAlloc;
; 613  : #else
; 614  :     typedef typename __bool2type<_IsSTLportClass<_MaybeReboundAlloc>::_Is>::_Ret _STLportAlloc;
; 615  : #endif
; 616  :     return allocate(__n, __allocated_n, _STLportAlloc());

	lea	edx, DWORD PTR [eax+eax*2]
	add	edx, edx
	add	edx, edx
	mov	DWORD PTR [ecx], eax
	mov	ecx, DWORD PTR __imp_?Memory@@3VxrMemory@@A
	push	edx
	call	DWORD PTR __imp_?mem_alloc@xrMemory@@QAEPAXI@Z

; 617  :   }

	ret	0
?allocate@?$_STLP_alloc_proxy@PAU_REG_INFO@@U1@V?$xalloc@U_REG_INFO@@@@@priv@stlp_std@@QAEPAU_REG_INFO@@IAAI@Z ENDP ; stlp_std::priv::_STLP_alloc_proxy<_REG_INFO *,_REG_INFO,xalloc<_REG_INFO> >::allocate
; Function compile flags: /Ogtpy
; File d:\clearsky\sources\engine\xrcore\_stl_extensions.h
_TEXT	ENDS
;	COMDAT ??0?$xalloc@U_REG_INFO@@@@QAE@ABV0@@Z
_TEXT	SEGMENT
??0?$xalloc@U_REG_INFO@@@@QAE@ABV0@@Z PROC		; xalloc<_REG_INFO>::xalloc<_REG_INFO>, COMDAT
; _this$ = eax

; 78   : 													xalloc			(const xalloc<T>&)						{	}

	ret	0
??0?$xalloc@U_REG_INFO@@@@QAE@ABV0@@Z ENDP		; xalloc<_REG_INFO>::xalloc<_REG_INFO>
; Function compile flags: /Ogtpy
; File d:\clearsky\sources\sdk\include\stlport\stl\_alloc.h
_TEXT	ENDS
;	COMDAT ?allocate@?$_STLP_alloc_proxy@PAUItemReg@CSheduler@@U12@V?$xalloc@UItemReg@CSheduler@@@@@priv@stlp_std@@QAEPAUItemReg@CSheduler@@IAAI@Z
_TEXT	SEGMENT
?allocate@?$_STLP_alloc_proxy@PAUItemReg@CSheduler@@U12@V?$xalloc@UItemReg@CSheduler@@@@@priv@stlp_std@@QAEPAUItemReg@CSheduler@@IAAI@Z PROC ; stlp_std::priv::_STLP_alloc_proxy<CSheduler::ItemReg *,CSheduler::ItemReg,xalloc<CSheduler::ItemReg> >::allocate, COMDAT
; ___n$ = eax
; ___allocated_n$ = ecx

; 611  : #if !defined (__BORLANDC__)
; 612  :     typedef typename _IsSTLportClass<_MaybeReboundAlloc>::_Ret _STLportAlloc;
; 613  : #else
; 614  :     typedef typename __bool2type<_IsSTLportClass<_MaybeReboundAlloc>::_Is>::_Ret _STLportAlloc;
; 615  : #endif
; 616  :     return allocate(__n, __allocated_n, _STLportAlloc());

	lea	edx, DWORD PTR [eax+eax*2]
	add	edx, edx
	add	edx, edx
	mov	DWORD PTR [ecx], eax
	mov	ecx, DWORD PTR __imp_?Memory@@3VxrMemory@@A
	push	edx
	call	DWORD PTR __imp_?mem_alloc@xrMemory@@QAEPAXI@Z

; 617  :   }

	ret	0
?allocate@?$_STLP_alloc_proxy@PAUItemReg@CSheduler@@U12@V?$xalloc@UItemReg@CSheduler@@@@@priv@stlp_std@@QAEPAUItemReg@CSheduler@@IAAI@Z ENDP ; stlp_std::priv::_STLP_alloc_proxy<CSheduler::ItemReg *,CSheduler::ItemReg,xalloc<CSheduler::ItemReg> >::allocate
; Function compile flags: /Ogtpy
; File d:\clearsky\sources\engine\xrcore\_stl_extensions.h
_TEXT	ENDS
;	COMDAT ??0?$xalloc@UItemReg@CSheduler@@@@QAE@ABV0@@Z
_TEXT	SEGMENT
??0?$xalloc@UItemReg@CSheduler@@@@QAE@ABV0@@Z PROC	; xalloc<CSheduler::ItemReg>::xalloc<CSheduler::ItemReg>, COMDAT
; _this$ = eax

; 78   : 													xalloc			(const xalloc<T>&)						{	}

	ret	0
??0?$xalloc@UItemReg@CSheduler@@@@QAE@ABV0@@Z ENDP	; xalloc<CSheduler::ItemReg>::xalloc<CSheduler::ItemReg>
; Function compile flags: /Ogtpy
; File d:\clearsky\sources\sdk\include\stlport\stl\_alloc.h
_TEXT	ENDS
;	COMDAT ?allocate@?$_STLP_alloc_proxy@PAUItem@CSheduler@@U12@V?$xalloc@UItem@CSheduler@@@@@priv@stlp_std@@QAEPAUItem@CSheduler@@IAAI@Z
_TEXT	SEGMENT
?allocate@?$_STLP_alloc_proxy@PAUItem@CSheduler@@U12@V?$xalloc@UItem@CSheduler@@@@@priv@stlp_std@@QAEPAUItem@CSheduler@@IAAI@Z PROC ; stlp_std::priv::_STLP_alloc_proxy<CSheduler::Item *,CSheduler::Item,xalloc<CSheduler::Item> >::allocate, COMDAT
; ___n$ = eax
; ___allocated_n$ = ecx

; 611  : #if !defined (__BORLANDC__)
; 612  :     typedef typename _IsSTLportClass<_MaybeReboundAlloc>::_Ret _STLportAlloc;
; 613  : #else
; 614  :     typedef typename __bool2type<_IsSTLportClass<_MaybeReboundAlloc>::_Is>::_Ret _STLportAlloc;
; 615  : #endif
; 616  :     return allocate(__n, __allocated_n, _STLportAlloc());

	lea	edx, DWORD PTR [eax+eax*4]
	add	edx, edx
	add	edx, edx
	mov	DWORD PTR [ecx], eax
	mov	ecx, DWORD PTR __imp_?Memory@@3VxrMemory@@A
	push	edx
	call	DWORD PTR __imp_?mem_alloc@xrMemory@@QAEPAXI@Z

; 617  :   }

	ret	0
?allocate@?$_STLP_alloc_proxy@PAUItem@CSheduler@@U12@V?$xalloc@UItem@CSheduler@@@@@priv@stlp_std@@QAEPAUItem@CSheduler@@IAAI@Z ENDP ; stlp_std::priv::_STLP_alloc_proxy<CSheduler::Item *,CSheduler::Item,xalloc<CSheduler::Item> >::allocate
; Function compile flags: /Ogtpy
; File d:\clearsky\sources\engine\xrcore\_stl_extensions.h
_TEXT	ENDS
;	COMDAT ??0?$xalloc@UItem@CSheduler@@@@QAE@ABV0@@Z
_TEXT	SEGMENT
??0?$xalloc@UItem@CSheduler@@@@QAE@ABV0@@Z PROC		; xalloc<CSheduler::Item>::xalloc<CSheduler::Item>, COMDAT
; _this$ = eax

; 78   : 													xalloc			(const xalloc<T>&)						{	}

	ret	0
??0?$xalloc@UItem@CSheduler@@@@QAE@ABV0@@Z ENDP		; xalloc<CSheduler::Item>::xalloc<CSheduler::Item>
; Function compile flags: /Ogtpy
; File d:\clearsky\sources\sdk\include\stlport\stl\_vector.h
_TEXT	ENDS
;	COMDAT ??0?$_Vector_base@UDeferred@CEventAPI@@V?$xalloc@UDeferred@CEventAPI@@@@@priv@stlp_std@@QAE@ABV?$xalloc@UDeferred@CEventAPI@@@@@Z
_TEXT	SEGMENT
??0?$_Vector_base@UDeferred@CEventAPI@@V?$xalloc@UDeferred@CEventAPI@@@@@priv@stlp_std@@QAE@ABV?$xalloc@UDeferred@CEventAPI@@@@@Z PROC ; stlp_std::priv::_Vector_base<CEventAPI::Deferred,xalloc<CEventAPI::Deferred> >::_Vector_base<CEventAPI::Deferred,xalloc<CEventAPI::Deferred> >, COMDAT
; _this$ = eax

; 67   :     : _M_start(0), _M_finish(0), _M_end_of_storage(__a, 0) {}

	xor	ecx, ecx
	mov	DWORD PTR [eax], ecx
	mov	DWORD PTR [eax+4], ecx
	mov	DWORD PTR [eax+8], ecx
	ret	0
??0?$_Vector_base@UDeferred@CEventAPI@@V?$xalloc@UDeferred@CEventAPI@@@@@priv@stlp_std@@QAE@ABV?$xalloc@UDeferred@CEventAPI@@@@@Z ENDP ; stlp_std::priv::_Vector_base<CEventAPI::Deferred,xalloc<CEventAPI::Deferred> >::_Vector_base<CEventAPI::Deferred,xalloc<CEventAPI::Deferred> >
; Function compile flags: /Ogtpy
; File d:\clearsky\sources\sdk\include\stlport\stl\_alloc.h
_TEXT	ENDS
;	COMDAT ?allocate@?$_STLP_alloc_proxy@PAVshared_str@@V1@V?$xalloc@Vshared_str@@@@@priv@stlp_std@@QAEPAVshared_str@@IAAI@Z
_TEXT	SEGMENT
?allocate@?$_STLP_alloc_proxy@PAVshared_str@@V1@V?$xalloc@Vshared_str@@@@@priv@stlp_std@@QAEPAVshared_str@@IAAI@Z PROC ; stlp_std::priv::_STLP_alloc_proxy<shared_str *,shared_str,xalloc<shared_str> >::allocate, COMDAT
; ___n$ = eax
; ___allocated_n$ = ecx

; 611  : #if !defined (__BORLANDC__)
; 612  :     typedef typename _IsSTLportClass<_MaybeReboundAlloc>::_Ret _STLportAlloc;
; 613  : #else
; 614  :     typedef typename __bool2type<_IsSTLportClass<_MaybeReboundAlloc>::_Is>::_Ret _STLportAlloc;
; 615  : #endif
; 616  :     return allocate(__n, __allocated_n, _STLportAlloc());

	lea	edx, DWORD PTR [eax*4]
	mov	DWORD PTR [ecx], eax
	mov	ecx, DWORD PTR __imp_?Memory@@3VxrMemory@@A
	push	edx
	call	DWORD PTR __imp_?mem_alloc@xrMemory@@QAEPAXI@Z

; 617  :   }

	ret	0
?allocate@?$_STLP_alloc_proxy@PAVshared_str@@V1@V?$xalloc@Vshared_str@@@@@priv@stlp_std@@QAEPAVshared_str@@IAAI@Z ENDP ; stlp_std::priv::_STLP_alloc_proxy<shared_str *,shared_str,xalloc<shared_str> >::allocate
; Function compile flags: /Ogtpy
; File d:\clearsky\sources\engine\xrcore\_stl_extensions.h
_TEXT	ENDS
;	COMDAT ??0?$xalloc@Vshared_str@@@@QAE@ABV0@@Z
_TEXT	SEGMENT
??0?$xalloc@Vshared_str@@@@QAE@ABV0@@Z PROC		; xalloc<shared_str>::xalloc<shared_str>, COMDAT
; _this$ = eax

; 78   : 													xalloc			(const xalloc<T>&)						{	}

	ret	0
??0?$xalloc@Vshared_str@@@@QAE@ABV0@@Z ENDP		; xalloc<shared_str>::xalloc<shared_str>
; Function compile flags: /Ogtpy
; File d:\clearsky\sources\sdk\include\stlport\stl\_vector.h
_TEXT	ENDS
;	COMDAT ??0?$_Vector_base@PAXV?$xalloc@PAX@@@priv@stlp_std@@QAE@ABV?$xalloc@PAX@@@Z
_TEXT	SEGMENT
??0?$_Vector_base@PAXV?$xalloc@PAX@@@priv@stlp_std@@QAE@ABV?$xalloc@PAX@@@Z PROC ; stlp_std::priv::_Vector_base<void *,xalloc<void *> >::_Vector_base<void *,xalloc<void *> >, COMDAT
; _this$ = eax

; 67   :     : _M_start(0), _M_finish(0), _M_end_of_storage(__a, 0) {}

	xor	ecx, ecx
	mov	DWORD PTR [eax], ecx
	mov	DWORD PTR [eax+4], ecx
	mov	DWORD PTR [eax+8], ecx
	ret	0
??0?$_Vector_base@PAXV?$xalloc@PAX@@@priv@stlp_std@@QAE@ABV?$xalloc@PAX@@@Z ENDP ; stlp_std::priv::_Vector_base<void *,xalloc<void *> >::_Vector_base<void *,xalloc<void *> >
; Function compile flags: /Ogtpy
; File d:\clearsky\sources\sdk\include\stlport\stl\_iterator.h
_TEXT	ENDS
;	COMDAT ??0?$reverse_iterator@PAV?$FastDelegate0@X@fastdelegate@@@stlp_std@@QAE@PAV?$FastDelegate0@X@fastdelegate@@@Z
_TEXT	SEGMENT
??0?$reverse_iterator@PAV?$FastDelegate0@X@fastdelegate@@@stlp_std@@QAE@PAV?$FastDelegate0@X@fastdelegate@@@Z PROC ; stlp_std::reverse_iterator<fastdelegate::FastDelegate0<void> *>::reverse_iterator<fastdelegate::FastDelegate0<void> *>, COMDAT
; _this$ = eax
; ___x$ = ecx

; 65   :   explicit reverse_iterator(iterator_type __x) : current(__x) {}

	mov	DWORD PTR [eax], ecx
	ret	0
??0?$reverse_iterator@PAV?$FastDelegate0@X@fastdelegate@@@stlp_std@@QAE@PAV?$FastDelegate0@X@fastdelegate@@@Z ENDP ; stlp_std::reverse_iterator<fastdelegate::FastDelegate0<void> *>::reverse_iterator<fastdelegate::FastDelegate0<void> *>
; Function compile flags: /Ogtpy
_TEXT	ENDS
;	COMDAT ??0?$reverse_iterator@PAU_REG_INFO@@@stlp_std@@QAE@PAU_REG_INFO@@@Z
_TEXT	SEGMENT
??0?$reverse_iterator@PAU_REG_INFO@@@stlp_std@@QAE@PAU_REG_INFO@@@Z PROC ; stlp_std::reverse_iterator<_REG_INFO *>::reverse_iterator<_REG_INFO *>, COMDAT
; _this$ = eax
; ___x$ = ecx

; 65   :   explicit reverse_iterator(iterator_type __x) : current(__x) {}

	mov	DWORD PTR [eax], ecx
	ret	0
??0?$reverse_iterator@PAU_REG_INFO@@@stlp_std@@QAE@PAU_REG_INFO@@@Z ENDP ; stlp_std::reverse_iterator<_REG_INFO *>::reverse_iterator<_REG_INFO *>
; Function compile flags: /Ogtpy
_TEXT	ENDS
;	COMDAT ??0?$reverse_iterator@PAUItemReg@CSheduler@@@stlp_std@@QAE@PAUItemReg@CSheduler@@@Z
_TEXT	SEGMENT
??0?$reverse_iterator@PAUItemReg@CSheduler@@@stlp_std@@QAE@PAUItemReg@CSheduler@@@Z PROC ; stlp_std::reverse_iterator<CSheduler::ItemReg *>::reverse_iterator<CSheduler::ItemReg *>, COMDAT
; _this$ = eax
; ___x$ = ecx

; 65   :   explicit reverse_iterator(iterator_type __x) : current(__x) {}

	mov	DWORD PTR [eax], ecx
	ret	0
??0?$reverse_iterator@PAUItemReg@CSheduler@@@stlp_std@@QAE@PAUItemReg@CSheduler@@@Z ENDP ; stlp_std::reverse_iterator<CSheduler::ItemReg *>::reverse_iterator<CSheduler::ItemReg *>
; Function compile flags: /Ogtpy
_TEXT	ENDS
;	COMDAT ??0?$reverse_iterator@PAUItem@CSheduler@@@stlp_std@@QAE@PAUItem@CSheduler@@@Z
_TEXT	SEGMENT
??0?$reverse_iterator@PAUItem@CSheduler@@@stlp_std@@QAE@PAUItem@CSheduler@@@Z PROC ; stlp_std::reverse_iterator<CSheduler::Item *>::reverse_iterator<CSheduler::Item *>, COMDAT
; _this$ = eax
; ___x$ = ecx

; 65   :   explicit reverse_iterator(iterator_type __x) : current(__x) {}

	mov	DWORD PTR [eax], ecx
	ret	0
??0?$reverse_iterator@PAUItem@CSheduler@@@stlp_std@@QAE@PAUItem@CSheduler@@@Z ENDP ; stlp_std::reverse_iterator<CSheduler::Item *>::reverse_iterator<CSheduler::Item *>
; Function compile flags: /Ogtpy
_TEXT	ENDS
;	COMDAT ??0?$reverse_iterator@PAUDeferred@CEventAPI@@@stlp_std@@QAE@PAUDeferred@CEventAPI@@@Z
_TEXT	SEGMENT
??0?$reverse_iterator@PAUDeferred@CEventAPI@@@stlp_std@@QAE@PAUDeferred@CEventAPI@@@Z PROC ; stlp_std::reverse_iterator<CEventAPI::Deferred *>::reverse_iterator<CEventAPI::Deferred *>, COMDAT
; _this$ = eax
; ___x$ = ecx

; 65   :   explicit reverse_iterator(iterator_type __x) : current(__x) {}

	mov	DWORD PTR [eax], ecx
	ret	0
??0?$reverse_iterator@PAUDeferred@CEventAPI@@@stlp_std@@QAE@PAUDeferred@CEventAPI@@@Z ENDP ; stlp_std::reverse_iterator<CEventAPI::Deferred *>::reverse_iterator<CEventAPI::Deferred *>
; Function compile flags: /Ogtpy
_TEXT	ENDS
;	COMDAT ??0?$reverse_iterator@PAVshared_str@@@stlp_std@@QAE@PAVshared_str@@@Z
_TEXT	SEGMENT
??0?$reverse_iterator@PAVshared_str@@@stlp_std@@QAE@PAVshared_str@@@Z PROC ; stlp_std::reverse_iterator<shared_str *>::reverse_iterator<shared_str *>, COMDAT
; _this$ = eax
; ___x$ = ecx

; 65   :   explicit reverse_iterator(iterator_type __x) : current(__x) {}

	mov	DWORD PTR [eax], ecx
	ret	0
??0?$reverse_iterator@PAVshared_str@@@stlp_std@@QAE@PAVshared_str@@@Z ENDP ; stlp_std::reverse_iterator<shared_str *>::reverse_iterator<shared_str *>
; Function compile flags: /Ogtpy
_TEXT	ENDS
;	COMDAT ??0?$reverse_iterator@PAPAX@stlp_std@@QAE@PAPAX@Z
_TEXT	SEGMENT
??0?$reverse_iterator@PAPAX@stlp_std@@QAE@PAPAX@Z PROC	; stlp_std::reverse_iterator<void * *>::reverse_iterator<void * *>, COMDAT
; _this$ = eax
; ___x$ = ecx

; 65   :   explicit reverse_iterator(iterator_type __x) : current(__x) {}

	mov	DWORD PTR [eax], ecx
	ret	0
??0?$reverse_iterator@PAPAX@stlp_std@@QAE@PAPAX@Z ENDP	; stlp_std::reverse_iterator<void * *>::reverse_iterator<void * *>
; Function compile flags: /Ogtpy
; File d:\clearsky\sources\engine\xrcore\_stl_extensions.h
_TEXT	ENDS
;	COMDAT ?deallocate@?$xalloc@V?$FastDelegate0@X@fastdelegate@@@@QBEXPAV?$FastDelegate0@X@fastdelegate@@I@Z
_TEXT	SEGMENT
?deallocate@?$xalloc@V?$FastDelegate0@X@fastdelegate@@@@QBEXPAV?$FastDelegate0@X@fastdelegate@@I@Z PROC ; xalloc<fastdelegate::FastDelegate0<void> >::deallocate, COMDAT
; _p$ = eax

; 83   : 							void					deallocate		(pointer p, size_type n) const			{	xr_free	(p);				}

	test	eax, eax
	je	SHORT $LN3@deallocate@40
	mov	ecx, DWORD PTR __imp_?Memory@@3VxrMemory@@A
	push	eax
	call	DWORD PTR __imp_?mem_free@xrMemory@@QAEXPAX@Z
$LN3@deallocate@40:
	ret	0
?deallocate@?$xalloc@V?$FastDelegate0@X@fastdelegate@@@@QBEXPAV?$FastDelegate0@X@fastdelegate@@I@Z ENDP ; xalloc<fastdelegate::FastDelegate0<void> >::deallocate
; Function compile flags: /Ogtpy
; File d:\clearsky\sources\sdk\include\stlport\stl\_vector.h
_TEXT	ENDS
;	COMDAT ?size@?$_Impl_vector@U_REG_INFO@@V?$xalloc@U_REG_INFO@@@@@priv@stlp_std@@QBEIXZ
_TEXT	SEGMENT
?size@?$_Impl_vector@U_REG_INFO@@V?$xalloc@U_REG_INFO@@@@@priv@stlp_std@@QBEIXZ PROC ; stlp_std::priv::_Impl_vector<_REG_INFO,xalloc<_REG_INFO> >::size, COMDAT
; _this$ = eax

; 180  :   size_type size() const        { return size_type(this->_M_finish - this->_M_start); }

	mov	ecx, DWORD PTR [eax+4]
	sub	ecx, DWORD PTR [eax]
	mov	eax, 715827883				; 2aaaaaabH
	imul	ecx
	sar	edx, 1
	mov	eax, edx
	shr	eax, 31					; 0000001fH
	add	eax, edx
	ret	0
?size@?$_Impl_vector@U_REG_INFO@@V?$xalloc@U_REG_INFO@@@@@priv@stlp_std@@QBEIXZ ENDP ; stlp_std::priv::_Impl_vector<_REG_INFO,xalloc<_REG_INFO> >::size
; Function compile flags: /Ogtpy
_TEXT	ENDS
;	COMDAT ?end@?$_Impl_vector@U_REG_INFO@@V?$xalloc@U_REG_INFO@@@@@priv@stlp_std@@QBEPBU_REG_INFO@@XZ
_TEXT	SEGMENT
?end@?$_Impl_vector@U_REG_INFO@@V?$xalloc@U_REG_INFO@@@@@priv@stlp_std@@QBEPBU_REG_INFO@@XZ PROC ; stlp_std::priv::_Impl_vector<_REG_INFO,xalloc<_REG_INFO> >::end, COMDAT
; _this$ = eax

; 173  :   const_iterator end() const   { return this->_M_finish; }

	mov	eax, DWORD PTR [eax+4]
	ret	0
?end@?$_Impl_vector@U_REG_INFO@@V?$xalloc@U_REG_INFO@@@@@priv@stlp_std@@QBEPBU_REG_INFO@@XZ ENDP ; stlp_std::priv::_Impl_vector<_REG_INFO,xalloc<_REG_INFO> >::end
; Function compile flags: /Ogtpy
_TEXT	ENDS
;	COMDAT ?end@?$_Impl_vector@U_REG_INFO@@V?$xalloc@U_REG_INFO@@@@@priv@stlp_std@@QAEPAU_REG_INFO@@XZ
_TEXT	SEGMENT
?end@?$_Impl_vector@U_REG_INFO@@V?$xalloc@U_REG_INFO@@@@@priv@stlp_std@@QAEPAU_REG_INFO@@XZ PROC ; stlp_std::priv::_Impl_vector<_REG_INFO,xalloc<_REG_INFO> >::end, COMDAT
; _this$ = eax

; 172  :   iterator end()               { return this->_M_finish; }

	mov	eax, DWORD PTR [eax+4]
	ret	0
?end@?$_Impl_vector@U_REG_INFO@@V?$xalloc@U_REG_INFO@@@@@priv@stlp_std@@QAEPAU_REG_INFO@@XZ ENDP ; stlp_std::priv::_Impl_vector<_REG_INFO,xalloc<_REG_INFO> >::end
; Function compile flags: /Ogtpy
_TEXT	ENDS
;	COMDAT ?begin@?$_Impl_vector@U_REG_INFO@@V?$xalloc@U_REG_INFO@@@@@priv@stlp_std@@QBEPBU_REG_INFO@@XZ
_TEXT	SEGMENT
?begin@?$_Impl_vector@U_REG_INFO@@V?$xalloc@U_REG_INFO@@@@@priv@stlp_std@@QBEPBU_REG_INFO@@XZ PROC ; stlp_std::priv::_Impl_vector<_REG_INFO,xalloc<_REG_INFO> >::begin, COMDAT
; _this$ = eax

; 171  :   const_iterator begin() const { return this->_M_start; }

	mov	eax, DWORD PTR [eax]
	ret	0
?begin@?$_Impl_vector@U_REG_INFO@@V?$xalloc@U_REG_INFO@@@@@priv@stlp_std@@QBEPBU_REG_INFO@@XZ ENDP ; stlp_std::priv::_Impl_vector<_REG_INFO,xalloc<_REG_INFO> >::begin
; Function compile flags: /Ogtpy
_TEXT	ENDS
;	COMDAT ?begin@?$_Impl_vector@U_REG_INFO@@V?$xalloc@U_REG_INFO@@@@@priv@stlp_std@@QAEPAU_REG_INFO@@XZ
_TEXT	SEGMENT
?begin@?$_Impl_vector@U_REG_INFO@@V?$xalloc@U_REG_INFO@@@@@priv@stlp_std@@QAEPAU_REG_INFO@@XZ PROC ; stlp_std::priv::_Impl_vector<_REG_INFO,xalloc<_REG_INFO> >::begin, COMDAT
; _this$ = eax

; 170  :   iterator begin()             { return this->_M_start; }

	mov	eax, DWORD PTR [eax]
	ret	0
?begin@?$_Impl_vector@U_REG_INFO@@V?$xalloc@U_REG_INFO@@@@@priv@stlp_std@@QAEPAU_REG_INFO@@XZ ENDP ; stlp_std::priv::_Impl_vector<_REG_INFO,xalloc<_REG_INFO> >::begin
; Function compile flags: /Ogtpy
_TEXT	ENDS
;	COMDAT ?get_allocator@?$_Impl_vector@U_REG_INFO@@V?$xalloc@U_REG_INFO@@@@@priv@stlp_std@@QBE?AV?$xalloc@U_REG_INFO@@@@XZ
_TEXT	SEGMENT
?get_allocator@?$_Impl_vector@U_REG_INFO@@V?$xalloc@U_REG_INFO@@@@@priv@stlp_std@@QBE?AV?$xalloc@U_REG_INFO@@@@XZ PROC ; stlp_std::priv::_Impl_vector<_REG_INFO,xalloc<_REG_INFO> >::get_allocator, COMDAT
; ___$ReturnUdt$ = eax

; 134  :   { return _STLP_CONVERT_ALLOCATOR((const allocator_type&)this->_M_end_of_storage, _Tp); }

	ret	0
?get_allocator@?$_Impl_vector@U_REG_INFO@@V?$xalloc@U_REG_INFO@@@@@priv@stlp_std@@QBE?AV?$xalloc@U_REG_INFO@@@@XZ ENDP ; stlp_std::priv::_Impl_vector<_REG_INFO,xalloc<_REG_INFO> >::get_allocator
; Function compile flags: /Ogtpy
; File d:\clearsky\sources\engine\xrcore\_stl_extensions.h
_TEXT	ENDS
;	COMDAT ?deallocate@?$xalloc@U_REG_INFO@@@@QBEXPAU_REG_INFO@@I@Z
_TEXT	SEGMENT
?deallocate@?$xalloc@U_REG_INFO@@@@QBEXPAU_REG_INFO@@I@Z PROC ; xalloc<_REG_INFO>::deallocate, COMDAT
; _p$ = eax

; 83   : 							void					deallocate		(pointer p, size_type n) const			{	xr_free	(p);				}

	test	eax, eax
	je	SHORT $LN3@deallocate@41
	mov	ecx, DWORD PTR __imp_?Memory@@3VxrMemory@@A
	push	eax
	call	DWORD PTR __imp_?mem_free@xrMemory@@QAEXPAX@Z
$LN3@deallocate@41:
	ret	0
?deallocate@?$xalloc@U_REG_INFO@@@@QBEXPAU_REG_INFO@@I@Z ENDP ; xalloc<_REG_INFO>::deallocate
; Function compile flags: /Ogtpy
_TEXT	ENDS
;	COMDAT ??0?$xalloc@U_REG_INFO@@@@QAE@XZ
_TEXT	SEGMENT
??0?$xalloc@U_REG_INFO@@@@QAE@XZ PROC			; xalloc<_REG_INFO>::xalloc<_REG_INFO>, COMDAT
; _this$ = eax

; 77   : 													xalloc			()										{	}

	ret	0
??0?$xalloc@U_REG_INFO@@@@QAE@XZ ENDP			; xalloc<_REG_INFO>::xalloc<_REG_INFO>
; Function compile flags: /Ogtpy
; File d:\clearsky\sources\sdk\include\stlport\stl\_vector.h
_TEXT	ENDS
;	COMDAT ?size@?$_Impl_vector@UItemReg@CSheduler@@V?$xalloc@UItemReg@CSheduler@@@@@priv@stlp_std@@QBEIXZ
_TEXT	SEGMENT
?size@?$_Impl_vector@UItemReg@CSheduler@@V?$xalloc@UItemReg@CSheduler@@@@@priv@stlp_std@@QBEIXZ PROC ; stlp_std::priv::_Impl_vector<CSheduler::ItemReg,xalloc<CSheduler::ItemReg> >::size, COMDAT
; _this$ = eax

; 180  :   size_type size() const        { return size_type(this->_M_finish - this->_M_start); }

	mov	ecx, DWORD PTR [eax+4]
	sub	ecx, DWORD PTR [eax]
	mov	eax, 715827883				; 2aaaaaabH
	imul	ecx
	sar	edx, 1
	mov	eax, edx
	shr	eax, 31					; 0000001fH
	add	eax, edx
	ret	0
?size@?$_Impl_vector@UItemReg@CSheduler@@V?$xalloc@UItemReg@CSheduler@@@@@priv@stlp_std@@QBEIXZ ENDP ; stlp_std::priv::_Impl_vector<CSheduler::ItemReg,xalloc<CSheduler::ItemReg> >::size
; Function compile flags: /Ogtpy
_TEXT	ENDS
;	COMDAT ?end@?$_Impl_vector@UItemReg@CSheduler@@V?$xalloc@UItemReg@CSheduler@@@@@priv@stlp_std@@QBEPBUItemReg@CSheduler@@XZ
_TEXT	SEGMENT
?end@?$_Impl_vector@UItemReg@CSheduler@@V?$xalloc@UItemReg@CSheduler@@@@@priv@stlp_std@@QBEPBUItemReg@CSheduler@@XZ PROC ; stlp_std::priv::_Impl_vector<CSheduler::ItemReg,xalloc<CSheduler::ItemReg> >::end, COMDAT
; _this$ = eax

; 173  :   const_iterator end() const   { return this->_M_finish; }

	mov	eax, DWORD PTR [eax+4]
	ret	0
?end@?$_Impl_vector@UItemReg@CSheduler@@V?$xalloc@UItemReg@CSheduler@@@@@priv@stlp_std@@QBEPBUItemReg@CSheduler@@XZ ENDP ; stlp_std::priv::_Impl_vector<CSheduler::ItemReg,xalloc<CSheduler::ItemReg> >::end
; Function compile flags: /Ogtpy
_TEXT	ENDS
;	COMDAT ?end@?$_Impl_vector@UItemReg@CSheduler@@V?$xalloc@UItemReg@CSheduler@@@@@priv@stlp_std@@QAEPAUItemReg@CSheduler@@XZ
_TEXT	SEGMENT
?end@?$_Impl_vector@UItemReg@CSheduler@@V?$xalloc@UItemReg@CSheduler@@@@@priv@stlp_std@@QAEPAUItemReg@CSheduler@@XZ PROC ; stlp_std::priv::_Impl_vector<CSheduler::ItemReg,xalloc<CSheduler::ItemReg> >::end, COMDAT
; _this$ = eax

; 172  :   iterator end()               { return this->_M_finish; }

	mov	eax, DWORD PTR [eax+4]
	ret	0
?end@?$_Impl_vector@UItemReg@CSheduler@@V?$xalloc@UItemReg@CSheduler@@@@@priv@stlp_std@@QAEPAUItemReg@CSheduler@@XZ ENDP ; stlp_std::priv::_Impl_vector<CSheduler::ItemReg,xalloc<CSheduler::ItemReg> >::end
; Function compile flags: /Ogtpy
_TEXT	ENDS
;	COMDAT ?begin@?$_Impl_vector@UItemReg@CSheduler@@V?$xalloc@UItemReg@CSheduler@@@@@priv@stlp_std@@QBEPBUItemReg@CSheduler@@XZ
_TEXT	SEGMENT
?begin@?$_Impl_vector@UItemReg@CSheduler@@V?$xalloc@UItemReg@CSheduler@@@@@priv@stlp_std@@QBEPBUItemReg@CSheduler@@XZ PROC ; stlp_std::priv::_Impl_vector<CSheduler::ItemReg,xalloc<CSheduler::ItemReg> >::begin, COMDAT
; _this$ = eax

; 171  :   const_iterator begin() const { return this->_M_start; }

	mov	eax, DWORD PTR [eax]
	ret	0
?begin@?$_Impl_vector@UItemReg@CSheduler@@V?$xalloc@UItemReg@CSheduler@@@@@priv@stlp_std@@QBEPBUItemReg@CSheduler@@XZ ENDP ; stlp_std::priv::_Impl_vector<CSheduler::ItemReg,xalloc<CSheduler::ItemReg> >::begin
; Function compile flags: /Ogtpy
_TEXT	ENDS
;	COMDAT ?begin@?$_Impl_vector@UItemReg@CSheduler@@V?$xalloc@UItemReg@CSheduler@@@@@priv@stlp_std@@QAEPAUItemReg@CSheduler@@XZ
_TEXT	SEGMENT
?begin@?$_Impl_vector@UItemReg@CSheduler@@V?$xalloc@UItemReg@CSheduler@@@@@priv@stlp_std@@QAEPAUItemReg@CSheduler@@XZ PROC ; stlp_std::priv::_Impl_vector<CSheduler::ItemReg,xalloc<CSheduler::ItemReg> >::begin, COMDAT
; _this$ = eax

; 170  :   iterator begin()             { return this->_M_start; }

	mov	eax, DWORD PTR [eax]
	ret	0
?begin@?$_Impl_vector@UItemReg@CSheduler@@V?$xalloc@UItemReg@CSheduler@@@@@priv@stlp_std@@QAEPAUItemReg@CSheduler@@XZ ENDP ; stlp_std::priv::_Impl_vector<CSheduler::ItemReg,xalloc<CSheduler::ItemReg> >::begin
; Function compile flags: /Ogtpy
_TEXT	ENDS
;	COMDAT ?get_allocator@?$_Impl_vector@UItemReg@CSheduler@@V?$xalloc@UItemReg@CSheduler@@@@@priv@stlp_std@@QBE?AV?$xalloc@UItemReg@CSheduler@@@@XZ
_TEXT	SEGMENT
?get_allocator@?$_Impl_vector@UItemReg@CSheduler@@V?$xalloc@UItemReg@CSheduler@@@@@priv@stlp_std@@QBE?AV?$xalloc@UItemReg@CSheduler@@@@XZ PROC ; stlp_std::priv::_Impl_vector<CSheduler::ItemReg,xalloc<CSheduler::ItemReg> >::get_allocator, COMDAT
; ___$ReturnUdt$ = eax

; 134  :   { return _STLP_CONVERT_ALLOCATOR((const allocator_type&)this->_M_end_of_storage, _Tp); }

	ret	0
?get_allocator@?$_Impl_vector@UItemReg@CSheduler@@V?$xalloc@UItemReg@CSheduler@@@@@priv@stlp_std@@QBE?AV?$xalloc@UItemReg@CSheduler@@@@XZ ENDP ; stlp_std::priv::_Impl_vector<CSheduler::ItemReg,xalloc<CSheduler::ItemReg> >::get_allocator
; Function compile flags: /Ogtpy
; File d:\clearsky\sources\engine\xrcore\_stl_extensions.h
_TEXT	ENDS
;	COMDAT ?deallocate@?$xalloc@UItemReg@CSheduler@@@@QBEXPAUItemReg@CSheduler@@I@Z
_TEXT	SEGMENT
?deallocate@?$xalloc@UItemReg@CSheduler@@@@QBEXPAUItemReg@CSheduler@@I@Z PROC ; xalloc<CSheduler::ItemReg>::deallocate, COMDAT
; _p$ = eax

; 83   : 							void					deallocate		(pointer p, size_type n) const			{	xr_free	(p);				}

	test	eax, eax
	je	SHORT $LN3@deallocate@42
	mov	ecx, DWORD PTR __imp_?Memory@@3VxrMemory@@A
	push	eax
	call	DWORD PTR __imp_?mem_free@xrMemory@@QAEXPAX@Z
$LN3@deallocate@42:
	ret	0
?deallocate@?$xalloc@UItemReg@CSheduler@@@@QBEXPAUItemReg@CSheduler@@I@Z ENDP ; xalloc<CSheduler::ItemReg>::deallocate
; Function compile flags: /Ogtpy
; File d:\clearsky\sources\sdk\include\stlport\stl\_vector.h
_TEXT	ENDS
;	COMDAT ?size@?$_Impl_vector@UItem@CSheduler@@V?$xalloc@UItem@CSheduler@@@@@priv@stlp_std@@QBEIXZ
_TEXT	SEGMENT
?size@?$_Impl_vector@UItem@CSheduler@@V?$xalloc@UItem@CSheduler@@@@@priv@stlp_std@@QBEIXZ PROC ; stlp_std::priv::_Impl_vector<CSheduler::Item,xalloc<CSheduler::Item> >::size, COMDAT
; _this$ = eax

; 180  :   size_type size() const        { return size_type(this->_M_finish - this->_M_start); }

	mov	ecx, DWORD PTR [eax+4]
	sub	ecx, DWORD PTR [eax]
	mov	eax, 1717986919				; 66666667H
	imul	ecx
	sar	edx, 3
	mov	eax, edx
	shr	eax, 31					; 0000001fH
	add	eax, edx
	ret	0
?size@?$_Impl_vector@UItem@CSheduler@@V?$xalloc@UItem@CSheduler@@@@@priv@stlp_std@@QBEIXZ ENDP ; stlp_std::priv::_Impl_vector<CSheduler::Item,xalloc<CSheduler::Item> >::size
; Function compile flags: /Ogtpy
_TEXT	ENDS
;	COMDAT ?end@?$_Impl_vector@UItem@CSheduler@@V?$xalloc@UItem@CSheduler@@@@@priv@stlp_std@@QBEPBUItem@CSheduler@@XZ
_TEXT	SEGMENT
?end@?$_Impl_vector@UItem@CSheduler@@V?$xalloc@UItem@CSheduler@@@@@priv@stlp_std@@QBEPBUItem@CSheduler@@XZ PROC ; stlp_std::priv::_Impl_vector<CSheduler::Item,xalloc<CSheduler::Item> >::end, COMDAT
; _this$ = eax

; 173  :   const_iterator end() const   { return this->_M_finish; }

	mov	eax, DWORD PTR [eax+4]
	ret	0
?end@?$_Impl_vector@UItem@CSheduler@@V?$xalloc@UItem@CSheduler@@@@@priv@stlp_std@@QBEPBUItem@CSheduler@@XZ ENDP ; stlp_std::priv::_Impl_vector<CSheduler::Item,xalloc<CSheduler::Item> >::end
; Function compile flags: /Ogtpy
_TEXT	ENDS
;	COMDAT ?end@?$_Impl_vector@UItem@CSheduler@@V?$xalloc@UItem@CSheduler@@@@@priv@stlp_std@@QAEPAUItem@CSheduler@@XZ
_TEXT	SEGMENT
?end@?$_Impl_vector@UItem@CSheduler@@V?$xalloc@UItem@CSheduler@@@@@priv@stlp_std@@QAEPAUItem@CSheduler@@XZ PROC ; stlp_std::priv::_Impl_vector<CSheduler::Item,xalloc<CSheduler::Item> >::end, COMDAT
; _this$ = eax

; 172  :   iterator end()               { return this->_M_finish; }

	mov	eax, DWORD PTR [eax+4]
	ret	0
?end@?$_Impl_vector@UItem@CSheduler@@V?$xalloc@UItem@CSheduler@@@@@priv@stlp_std@@QAEPAUItem@CSheduler@@XZ ENDP ; stlp_std::priv::_Impl_vector<CSheduler::Item,xalloc<CSheduler::Item> >::end
; Function compile flags: /Ogtpy
_TEXT	ENDS
;	COMDAT ?begin@?$_Impl_vector@UItem@CSheduler@@V?$xalloc@UItem@CSheduler@@@@@priv@stlp_std@@QBEPBUItem@CSheduler@@XZ
_TEXT	SEGMENT
?begin@?$_Impl_vector@UItem@CSheduler@@V?$xalloc@UItem@CSheduler@@@@@priv@stlp_std@@QBEPBUItem@CSheduler@@XZ PROC ; stlp_std::priv::_Impl_vector<CSheduler::Item,xalloc<CSheduler::Item> >::begin, COMDAT
; _this$ = eax

; 171  :   const_iterator begin() const { return this->_M_start; }

	mov	eax, DWORD PTR [eax]
	ret	0
?begin@?$_Impl_vector@UItem@CSheduler@@V?$xalloc@UItem@CSheduler@@@@@priv@stlp_std@@QBEPBUItem@CSheduler@@XZ ENDP ; stlp_std::priv::_Impl_vector<CSheduler::Item,xalloc<CSheduler::Item> >::begin
; Function compile flags: /Ogtpy
_TEXT	ENDS
;	COMDAT ?begin@?$_Impl_vector@UItem@CSheduler@@V?$xalloc@UItem@CSheduler@@@@@priv@stlp_std@@QAEPAUItem@CSheduler@@XZ
_TEXT	SEGMENT
?begin@?$_Impl_vector@UItem@CSheduler@@V?$xalloc@UItem@CSheduler@@@@@priv@stlp_std@@QAEPAUItem@CSheduler@@XZ PROC ; stlp_std::priv::_Impl_vector<CSheduler::Item,xalloc<CSheduler::Item> >::begin, COMDAT
; _this$ = eax

; 170  :   iterator begin()             { return this->_M_start; }

	mov	eax, DWORD PTR [eax]
	ret	0
?begin@?$_Impl_vector@UItem@CSheduler@@V?$xalloc@UItem@CSheduler@@@@@priv@stlp_std@@QAEPAUItem@CSheduler@@XZ ENDP ; stlp_std::priv::_Impl_vector<CSheduler::Item,xalloc<CSheduler::Item> >::begin
; Function compile flags: /Ogtpy
_TEXT	ENDS
;	COMDAT ?get_allocator@?$_Impl_vector@UItem@CSheduler@@V?$xalloc@UItem@CSheduler@@@@@priv@stlp_std@@QBE?AV?$xalloc@UItem@CSheduler@@@@XZ
_TEXT	SEGMENT
?get_allocator@?$_Impl_vector@UItem@CSheduler@@V?$xalloc@UItem@CSheduler@@@@@priv@stlp_std@@QBE?AV?$xalloc@UItem@CSheduler@@@@XZ PROC ; stlp_std::priv::_Impl_vector<CSheduler::Item,xalloc<CSheduler::Item> >::get_allocator, COMDAT
; ___$ReturnUdt$ = eax

; 134  :   { return _STLP_CONVERT_ALLOCATOR((const allocator_type&)this->_M_end_of_storage, _Tp); }

	ret	0
?get_allocator@?$_Impl_vector@UItem@CSheduler@@V?$xalloc@UItem@CSheduler@@@@@priv@stlp_std@@QBE?AV?$xalloc@UItem@CSheduler@@@@XZ ENDP ; stlp_std::priv::_Impl_vector<CSheduler::Item,xalloc<CSheduler::Item> >::get_allocator
; Function compile flags: /Ogtpy
; File d:\clearsky\sources\engine\xrcore\_stl_extensions.h
_TEXT	ENDS
;	COMDAT ?deallocate@?$xalloc@UItem@CSheduler@@@@QBEXPAUItem@CSheduler@@I@Z
_TEXT	SEGMENT
?deallocate@?$xalloc@UItem@CSheduler@@@@QBEXPAUItem@CSheduler@@I@Z PROC ; xalloc<CSheduler::Item>::deallocate, COMDAT
; _p$ = eax

; 83   : 							void					deallocate		(pointer p, size_type n) const			{	xr_free	(p);				}

	test	eax, eax
	je	SHORT $LN3@deallocate@43
	mov	ecx, DWORD PTR __imp_?Memory@@3VxrMemory@@A
	push	eax
	call	DWORD PTR __imp_?mem_free@xrMemory@@QAEXPAX@Z
$LN3@deallocate@43:
	ret	0
?deallocate@?$xalloc@UItem@CSheduler@@@@QBEXPAUItem@CSheduler@@I@Z ENDP ; xalloc<CSheduler::Item>::deallocate
; Function compile flags: /Ogtpy
; File d:\clearsky\sources\sdk\include\stlport\stl\_vector.h
_TEXT	ENDS
;	COMDAT ?end@?$_Impl_vector@UDeferred@CEventAPI@@V?$xalloc@UDeferred@CEventAPI@@@@@priv@stlp_std@@QAEPAUDeferred@CEventAPI@@XZ
_TEXT	SEGMENT
?end@?$_Impl_vector@UDeferred@CEventAPI@@V?$xalloc@UDeferred@CEventAPI@@@@@priv@stlp_std@@QAEPAUDeferred@CEventAPI@@XZ PROC ; stlp_std::priv::_Impl_vector<CEventAPI::Deferred,xalloc<CEventAPI::Deferred> >::end, COMDAT
; _this$ = eax

; 172  :   iterator end()               { return this->_M_finish; }

	mov	eax, DWORD PTR [eax+4]
	ret	0
?end@?$_Impl_vector@UDeferred@CEventAPI@@V?$xalloc@UDeferred@CEventAPI@@@@@priv@stlp_std@@QAEPAUDeferred@CEventAPI@@XZ ENDP ; stlp_std::priv::_Impl_vector<CEventAPI::Deferred,xalloc<CEventAPI::Deferred> >::end
; Function compile flags: /Ogtpy
_TEXT	ENDS
;	COMDAT ?begin@?$_Impl_vector@UDeferred@CEventAPI@@V?$xalloc@UDeferred@CEventAPI@@@@@priv@stlp_std@@QAEPAUDeferred@CEventAPI@@XZ
_TEXT	SEGMENT
?begin@?$_Impl_vector@UDeferred@CEventAPI@@V?$xalloc@UDeferred@CEventAPI@@@@@priv@stlp_std@@QAEPAUDeferred@CEventAPI@@XZ PROC ; stlp_std::priv::_Impl_vector<CEventAPI::Deferred,xalloc<CEventAPI::Deferred> >::begin, COMDAT
; _this$ = eax

; 170  :   iterator begin()             { return this->_M_start; }

	mov	eax, DWORD PTR [eax]
	ret	0
?begin@?$_Impl_vector@UDeferred@CEventAPI@@V?$xalloc@UDeferred@CEventAPI@@@@@priv@stlp_std@@QAEPAUDeferred@CEventAPI@@XZ ENDP ; stlp_std::priv::_Impl_vector<CEventAPI::Deferred,xalloc<CEventAPI::Deferred> >::begin
; Function compile flags: /Ogtpy
; File d:\clearsky\sources\engine\xrcore\_stl_extensions.h
_TEXT	ENDS
;	COMDAT ?deallocate@?$xalloc@UDeferred@CEventAPI@@@@QBEXPAUDeferred@CEventAPI@@I@Z
_TEXT	SEGMENT
?deallocate@?$xalloc@UDeferred@CEventAPI@@@@QBEXPAUDeferred@CEventAPI@@I@Z PROC ; xalloc<CEventAPI::Deferred>::deallocate, COMDAT
; _p$ = eax

; 83   : 							void					deallocate		(pointer p, size_type n) const			{	xr_free	(p);				}

	test	eax, eax
	je	SHORT $LN3@deallocate@44
	mov	ecx, DWORD PTR __imp_?Memory@@3VxrMemory@@A
	push	eax
	call	DWORD PTR __imp_?mem_free@xrMemory@@QAEXPAX@Z
$LN3@deallocate@44:
	ret	0
?deallocate@?$xalloc@UDeferred@CEventAPI@@@@QBEXPAUDeferred@CEventAPI@@I@Z ENDP ; xalloc<CEventAPI::Deferred>::deallocate
; Function compile flags: /Ogtpy
; File d:\clearsky\sources\sdk\include\stlport\stl\_vector.h
_TEXT	ENDS
;	COMDAT ?size@?$_Impl_vector@Vshared_str@@V?$xalloc@Vshared_str@@@@@priv@stlp_std@@QBEIXZ
_TEXT	SEGMENT
?size@?$_Impl_vector@Vshared_str@@V?$xalloc@Vshared_str@@@@@priv@stlp_std@@QBEIXZ PROC ; stlp_std::priv::_Impl_vector<shared_str,xalloc<shared_str> >::size, COMDAT
; _this$ = ecx

; 180  :   size_type size() const        { return size_type(this->_M_finish - this->_M_start); }

	mov	eax, DWORD PTR [ecx+4]
	sub	eax, DWORD PTR [ecx]
	sar	eax, 2
	ret	0
?size@?$_Impl_vector@Vshared_str@@V?$xalloc@Vshared_str@@@@@priv@stlp_std@@QBEIXZ ENDP ; stlp_std::priv::_Impl_vector<shared_str,xalloc<shared_str> >::size
; Function compile flags: /Ogtpy
_TEXT	ENDS
;	COMDAT ?end@?$_Impl_vector@Vshared_str@@V?$xalloc@Vshared_str@@@@@priv@stlp_std@@QBEPBVshared_str@@XZ
_TEXT	SEGMENT
?end@?$_Impl_vector@Vshared_str@@V?$xalloc@Vshared_str@@@@@priv@stlp_std@@QBEPBVshared_str@@XZ PROC ; stlp_std::priv::_Impl_vector<shared_str,xalloc<shared_str> >::end, COMDAT
; _this$ = eax

; 173  :   const_iterator end() const   { return this->_M_finish; }

	mov	eax, DWORD PTR [eax+4]
	ret	0
?end@?$_Impl_vector@Vshared_str@@V?$xalloc@Vshared_str@@@@@priv@stlp_std@@QBEPBVshared_str@@XZ ENDP ; stlp_std::priv::_Impl_vector<shared_str,xalloc<shared_str> >::end
; Function compile flags: /Ogtpy
_TEXT	ENDS
;	COMDAT ?end@?$_Impl_vector@Vshared_str@@V?$xalloc@Vshared_str@@@@@priv@stlp_std@@QAEPAVshared_str@@XZ
_TEXT	SEGMENT
?end@?$_Impl_vector@Vshared_str@@V?$xalloc@Vshared_str@@@@@priv@stlp_std@@QAEPAVshared_str@@XZ PROC ; stlp_std::priv::_Impl_vector<shared_str,xalloc<shared_str> >::end, COMDAT
; _this$ = eax

; 172  :   iterator end()               { return this->_M_finish; }

	mov	eax, DWORD PTR [eax+4]
	ret	0
?end@?$_Impl_vector@Vshared_str@@V?$xalloc@Vshared_str@@@@@priv@stlp_std@@QAEPAVshared_str@@XZ ENDP ; stlp_std::priv::_Impl_vector<shared_str,xalloc<shared_str> >::end
; Function compile flags: /Ogtpy
_TEXT	ENDS
;	COMDAT ?begin@?$_Impl_vector@Vshared_str@@V?$xalloc@Vshared_str@@@@@priv@stlp_std@@QBEPBVshared_str@@XZ
_TEXT	SEGMENT
?begin@?$_Impl_vector@Vshared_str@@V?$xalloc@Vshared_str@@@@@priv@stlp_std@@QBEPBVshared_str@@XZ PROC ; stlp_std::priv::_Impl_vector<shared_str,xalloc<shared_str> >::begin, COMDAT
; _this$ = eax

; 171  :   const_iterator begin() const { return this->_M_start; }

	mov	eax, DWORD PTR [eax]
	ret	0
?begin@?$_Impl_vector@Vshared_str@@V?$xalloc@Vshared_str@@@@@priv@stlp_std@@QBEPBVshared_str@@XZ ENDP ; stlp_std::priv::_Impl_vector<shared_str,xalloc<shared_str> >::begin
; Function compile flags: /Ogtpy
_TEXT	ENDS
;	COMDAT ?begin@?$_Impl_vector@Vshared_str@@V?$xalloc@Vshared_str@@@@@priv@stlp_std@@QAEPAVshared_str@@XZ
_TEXT	SEGMENT
?begin@?$_Impl_vector@Vshared_str@@V?$xalloc@Vshared_str@@@@@priv@stlp_std@@QAEPAVshared_str@@XZ PROC ; stlp_std::priv::_Impl_vector<shared_str,xalloc<shared_str> >::begin, COMDAT
; _this$ = eax

; 170  :   iterator begin()             { return this->_M_start; }

	mov	eax, DWORD PTR [eax]
	ret	0
?begin@?$_Impl_vector@Vshared_str@@V?$xalloc@Vshared_str@@@@@priv@stlp_std@@QAEPAVshared_str@@XZ ENDP ; stlp_std::priv::_Impl_vector<shared_str,xalloc<shared_str> >::begin
; Function compile flags: /Ogtpy
_TEXT	ENDS
;	COMDAT ?get_allocator@?$_Impl_vector@Vshared_str@@V?$xalloc@Vshared_str@@@@@priv@stlp_std@@QBE?AV?$xalloc@Vshared_str@@@@XZ
_TEXT	SEGMENT
?get_allocator@?$_Impl_vector@Vshared_str@@V?$xalloc@Vshared_str@@@@@priv@stlp_std@@QBE?AV?$xalloc@Vshared_str@@@@XZ PROC ; stlp_std::priv::_Impl_vector<shared_str,xalloc<shared_str> >::get_allocator, COMDAT
; ___$ReturnUdt$ = eax

; 134  :   { return _STLP_CONVERT_ALLOCATOR((const allocator_type&)this->_M_end_of_storage, _Tp); }

	ret	0
?get_allocator@?$_Impl_vector@Vshared_str@@V?$xalloc@Vshared_str@@@@@priv@stlp_std@@QBE?AV?$xalloc@Vshared_str@@@@XZ ENDP ; stlp_std::priv::_Impl_vector<shared_str,xalloc<shared_str> >::get_allocator
; Function compile flags: /Ogtpy
; File d:\clearsky\sources\engine\xrcore\_stl_extensions.h
_TEXT	ENDS
;	COMDAT ?deallocate@?$xalloc@Vshared_str@@@@QBEXPAVshared_str@@I@Z
_TEXT	SEGMENT
?deallocate@?$xalloc@Vshared_str@@@@QBEXPAVshared_str@@I@Z PROC ; xalloc<shared_str>::deallocate, COMDAT
; _p$ = eax

; 83   : 							void					deallocate		(pointer p, size_type n) const			{	xr_free	(p);				}

	test	eax, eax
	je	SHORT $LN3@deallocate@45
	mov	ecx, DWORD PTR __imp_?Memory@@3VxrMemory@@A
	push	eax
	call	DWORD PTR __imp_?mem_free@xrMemory@@QAEXPAX@Z
$LN3@deallocate@45:
	ret	0
?deallocate@?$xalloc@Vshared_str@@@@QBEXPAVshared_str@@I@Z ENDP ; xalloc<shared_str>::deallocate
; Function compile flags: /Ogtpy
_TEXT	ENDS
;	COMDAT ?deallocate@?$xalloc@PAX@@QBEXPAPAXI@Z
_TEXT	SEGMENT
?deallocate@?$xalloc@PAX@@QBEXPAPAXI@Z PROC		; xalloc<void *>::deallocate, COMDAT
; _p$ = eax

; 83   : 							void					deallocate		(pointer p, size_type n) const			{	xr_free	(p);				}

	test	eax, eax
	je	SHORT $LN3@deallocate@46
	mov	ecx, DWORD PTR __imp_?Memory@@3VxrMemory@@A
	push	eax
	call	DWORD PTR __imp_?mem_free@xrMemory@@QAEXPAX@Z
$LN3@deallocate@46:
	ret	0
?deallocate@?$xalloc@PAX@@QBEXPAPAXI@Z ENDP		; xalloc<void *>::deallocate
; Function compile flags: /Ogtpy
; File d:\clearsky\sources\sdk\include\stlport\stl\_vector.h
_TEXT	ENDS
;	COMDAT ?end@?$_Impl_vector@PAXV?$xalloc@PAX@@@priv@stlp_std@@QAEPAPAXXZ
_TEXT	SEGMENT
?end@?$_Impl_vector@PAXV?$xalloc@PAX@@@priv@stlp_std@@QAEPAPAXXZ PROC ; stlp_std::priv::_Impl_vector<void *,xalloc<void *> >::end, COMDAT
; _this$ = eax

; 172  :   iterator end()               { return this->_M_finish; }

	mov	eax, DWORD PTR [eax+4]
	ret	0
?end@?$_Impl_vector@PAXV?$xalloc@PAX@@@priv@stlp_std@@QAEPAPAXXZ ENDP ; stlp_std::priv::_Impl_vector<void *,xalloc<void *> >::end
; Function compile flags: /Ogtpy
_TEXT	ENDS
;	COMDAT ?begin@?$_Impl_vector@PAXV?$xalloc@PAX@@@priv@stlp_std@@QAEPAPAXXZ
_TEXT	SEGMENT
?begin@?$_Impl_vector@PAXV?$xalloc@PAX@@@priv@stlp_std@@QAEPAPAXXZ PROC ; stlp_std::priv::_Impl_vector<void *,xalloc<void *> >::begin, COMDAT
; _this$ = eax

; 170  :   iterator begin()             { return this->_M_start; }

	mov	eax, DWORD PTR [eax]
	ret	0
?begin@?$_Impl_vector@PAXV?$xalloc@PAX@@@priv@stlp_std@@QAEPAPAXXZ ENDP ; stlp_std::priv::_Impl_vector<void *,xalloc<void *> >::begin
; Function compile flags: /Ogtpy
; File d:\clearsky\sources\sdk\include\stlport\stl\pointers\_tools.h
_TEXT	ENDS
;	COMDAT ?to_storage_type_ptr@?$_CastTraits@V?$FastDelegate0@X@fastdelegate@@V12@@priv@stlp_std@@SAPAV?$FastDelegate0@X@fastdelegate@@PAV45@@Z
_TEXT	SEGMENT
?to_storage_type_ptr@?$_CastTraits@V?$FastDelegate0@X@fastdelegate@@V12@@priv@stlp_std@@SAPAV?$FastDelegate0@X@fastdelegate@@PAV45@@Z PROC ; stlp_std::priv::_CastTraits<fastdelegate::FastDelegate0<void>,fastdelegate::FastDelegate0<void> >::to_storage_type_ptr, COMDAT
; ___ptr$ = eax

; 248  :   { return __ptr; }

	ret	0
?to_storage_type_ptr@?$_CastTraits@V?$FastDelegate0@X@fastdelegate@@V12@@priv@stlp_std@@SAPAV?$FastDelegate0@X@fastdelegate@@PAV45@@Z ENDP ; stlp_std::priv::_CastTraits<fastdelegate::FastDelegate0<void>,fastdelegate::FastDelegate0<void> >::to_storage_type_ptr
; Function compile flags: /Ogtpy
_TEXT	ENDS
;	COMDAT ?to_value_type_ptr@?$_CastTraits@V?$FastDelegate0@X@fastdelegate@@V12@@priv@stlp_std@@SAPAV?$FastDelegate0@X@fastdelegate@@PAV45@@Z
_TEXT	SEGMENT
?to_value_type_ptr@?$_CastTraits@V?$FastDelegate0@X@fastdelegate@@V12@@priv@stlp_std@@SAPAV?$FastDelegate0@X@fastdelegate@@PAV45@@Z PROC ; stlp_std::priv::_CastTraits<fastdelegate::FastDelegate0<void>,fastdelegate::FastDelegate0<void> >::to_value_type_ptr, COMDAT
; ___ptr$ = eax

; 237  :   { return __ptr; }

	ret	0
?to_value_type_ptr@?$_CastTraits@V?$FastDelegate0@X@fastdelegate@@V12@@priv@stlp_std@@SAPAV?$FastDelegate0@X@fastdelegate@@PAV45@@Z ENDP ; stlp_std::priv::_CastTraits<fastdelegate::FastDelegate0<void>,fastdelegate::FastDelegate0<void> >::to_value_type_ptr
; Function compile flags: /Ogtpy
_TEXT	ENDS
;	COMDAT ?to_value_type_ref@?$_CastTraits@UItem@CSheduler@@U12@@priv@stlp_std@@SAAAUItem@CSheduler@@AAU45@@Z
_TEXT	SEGMENT
?to_value_type_ref@?$_CastTraits@UItem@CSheduler@@U12@@priv@stlp_std@@SAAAUItem@CSheduler@@AAU45@@Z PROC ; stlp_std::priv::_CastTraits<CSheduler::Item,CSheduler::Item>::to_value_type_ref, COMDAT
; ___ref$ = eax

; 243  :   { return __ref; }

	ret	0
?to_value_type_ref@?$_CastTraits@UItem@CSheduler@@U12@@priv@stlp_std@@SAAAUItem@CSheduler@@AAU45@@Z ENDP ; stlp_std::priv::_CastTraits<CSheduler::Item,CSheduler::Item>::to_value_type_ref
; Function compile flags: /Ogtpy
; File d:\clearsky\sources\sdk\include\stlport\stl\_vector.h
_TEXT	ENDS
;	COMDAT ??1?$_Vector_base@V?$FastDelegate0@X@fastdelegate@@V?$xalloc@V?$FastDelegate0@X@fastdelegate@@@@@priv@stlp_std@@QAE@XZ
_TEXT	SEGMENT
??1?$_Vector_base@V?$FastDelegate0@X@fastdelegate@@V?$xalloc@V?$FastDelegate0@X@fastdelegate@@@@@priv@stlp_std@@QAE@XZ PROC ; stlp_std::priv::_Vector_base<fastdelegate::FastDelegate0<void>,xalloc<fastdelegate::FastDelegate0<void> > >::~_Vector_base<fastdelegate::FastDelegate0<void>,xalloc<fastdelegate::FastDelegate0<void> > >, COMDAT
; _this$ = eax

; 85   :     if (_M_start != _STLP_DEFAULT_CONSTRUCTED(pointer))

	mov	eax, DWORD PTR [eax]
	test	eax, eax
	je	SHORT $LN6@Vector_bas@25

; 86   :       _M_end_of_storage.deallocate(_M_start, _M_end_of_storage._M_data - _M_start);

	mov	ecx, DWORD PTR __imp_?Memory@@3VxrMemory@@A
	push	eax
	call	DWORD PTR __imp_?mem_free@xrMemory@@QAEXPAX@Z
$LN6@Vector_bas@25:

; 87   :   }

	ret	0
??1?$_Vector_base@V?$FastDelegate0@X@fastdelegate@@V?$xalloc@V?$FastDelegate0@X@fastdelegate@@@@@priv@stlp_std@@QAE@XZ ENDP ; stlp_std::priv::_Vector_base<fastdelegate::FastDelegate0<void>,xalloc<fastdelegate::FastDelegate0<void> > >::~_Vector_base<fastdelegate::FastDelegate0<void>,xalloc<fastdelegate::FastDelegate0<void> > >
; Function compile flags: /Ogtpy
_TEXT	ENDS
;	COMDAT ?end@?$_Impl_vector@V?$FastDelegate0@X@fastdelegate@@V?$xalloc@V?$FastDelegate0@X@fastdelegate@@@@@priv@stlp_std@@QAEPAV?$FastDelegate0@X@fastdelegate@@XZ
_TEXT	SEGMENT
?end@?$_Impl_vector@V?$FastDelegate0@X@fastdelegate@@V?$xalloc@V?$FastDelegate0@X@fastdelegate@@@@@priv@stlp_std@@QAEPAV?$FastDelegate0@X@fastdelegate@@XZ PROC ; stlp_std::priv::_Impl_vector<fastdelegate::FastDelegate0<void>,xalloc<fastdelegate::FastDelegate0<void> > >::end, COMDAT
; _this$ = eax

; 172  :   iterator end()               { return this->_M_finish; }

	mov	eax, DWORD PTR [eax+4]
	ret	0
?end@?$_Impl_vector@V?$FastDelegate0@X@fastdelegate@@V?$xalloc@V?$FastDelegate0@X@fastdelegate@@@@@priv@stlp_std@@QAEPAV?$FastDelegate0@X@fastdelegate@@XZ ENDP ; stlp_std::priv::_Impl_vector<fastdelegate::FastDelegate0<void>,xalloc<fastdelegate::FastDelegate0<void> > >::end
; Function compile flags: /Ogtpy
_TEXT	ENDS
;	COMDAT ?begin@?$_Impl_vector@V?$FastDelegate0@X@fastdelegate@@V?$xalloc@V?$FastDelegate0@X@fastdelegate@@@@@priv@stlp_std@@QAEPAV?$FastDelegate0@X@fastdelegate@@XZ
_TEXT	SEGMENT
?begin@?$_Impl_vector@V?$FastDelegate0@X@fastdelegate@@V?$xalloc@V?$FastDelegate0@X@fastdelegate@@@@@priv@stlp_std@@QAEPAV?$FastDelegate0@X@fastdelegate@@XZ PROC ; stlp_std::priv::_Impl_vector<fastdelegate::FastDelegate0<void>,xalloc<fastdelegate::FastDelegate0<void> > >::begin, COMDAT
; _this$ = eax

; 170  :   iterator begin()             { return this->_M_start; }

	mov	eax, DWORD PTR [eax]
	ret	0
?begin@?$_Impl_vector@V?$FastDelegate0@X@fastdelegate@@V?$xalloc@V?$FastDelegate0@X@fastdelegate@@@@@priv@stlp_std@@QAEPAV?$FastDelegate0@X@fastdelegate@@XZ ENDP ; stlp_std::priv::_Impl_vector<fastdelegate::FastDelegate0<void>,xalloc<fastdelegate::FastDelegate0<void> > >::begin
; Function compile flags: /Ogtpy
; File d:\clearsky\sources\engine\xrcore\_stl_extensions.h
_TEXT	ENDS
;	COMDAT ??0?$xalloc@V?$FastDelegate0@X@fastdelegate@@@@QAE@XZ
_TEXT	SEGMENT
??0?$xalloc@V?$FastDelegate0@X@fastdelegate@@@@QAE@XZ PROC ; xalloc<fastdelegate::FastDelegate0<void> >::xalloc<fastdelegate::FastDelegate0<void> >, COMDAT
; _this$ = eax

; 77   : 													xalloc			()										{	}

	ret	0
??0?$xalloc@V?$FastDelegate0@X@fastdelegate@@@@QAE@XZ ENDP ; xalloc<fastdelegate::FastDelegate0<void> >::xalloc<fastdelegate::FastDelegate0<void> >
; Function compile flags: /Ogtpy
; File d:\clearsky\sources\sdk\include\stlport\stl\_vector.h
_TEXT	ENDS
;	COMDAT ??1?$_Vector_base@U_REG_INFO@@V?$xalloc@U_REG_INFO@@@@@priv@stlp_std@@QAE@XZ
_TEXT	SEGMENT
??1?$_Vector_base@U_REG_INFO@@V?$xalloc@U_REG_INFO@@@@@priv@stlp_std@@QAE@XZ PROC ; stlp_std::priv::_Vector_base<_REG_INFO,xalloc<_REG_INFO> >::~_Vector_base<_REG_INFO,xalloc<_REG_INFO> >, COMDAT
; _this$ = eax

; 85   :     if (_M_start != _STLP_DEFAULT_CONSTRUCTED(pointer))

	mov	eax, DWORD PTR [eax]
	test	eax, eax
	je	SHORT $LN6@Vector_bas@26

; 86   :       _M_end_of_storage.deallocate(_M_start, _M_end_of_storage._M_data - _M_start);

	mov	ecx, DWORD PTR __imp_?Memory@@3VxrMemory@@A
	push	eax
	call	DWORD PTR __imp_?mem_free@xrMemory@@QAEXPAX@Z
$LN6@Vector_bas@26:

; 87   :   }

	ret	0
??1?$_Vector_base@U_REG_INFO@@V?$xalloc@U_REG_INFO@@@@@priv@stlp_std@@QAE@XZ ENDP ; stlp_std::priv::_Vector_base<_REG_INFO,xalloc<_REG_INFO> >::~_Vector_base<_REG_INFO,xalloc<_REG_INFO> >
; Function compile flags: /Ogtpy
_TEXT	ENDS
;	COMDAT ?rend@?$_Impl_vector@U_REG_INFO@@V?$xalloc@U_REG_INFO@@@@@priv@stlp_std@@QAE?AV?$reverse_iterator@PAU_REG_INFO@@@3@XZ
_TEXT	SEGMENT
?rend@?$_Impl_vector@U_REG_INFO@@V?$xalloc@U_REG_INFO@@@@@priv@stlp_std@@QAE?AV?$reverse_iterator@PAU_REG_INFO@@@3@XZ PROC ; stlp_std::priv::_Impl_vector<_REG_INFO,xalloc<_REG_INFO> >::rend, COMDAT
; _this$ = ecx
; ___$ReturnUdt$ = eax

; 177  :   reverse_iterator rend()                { return reverse_iterator(begin()); }

	mov	edx, DWORD PTR [ecx]
	mov	DWORD PTR [eax], edx
	ret	0
?rend@?$_Impl_vector@U_REG_INFO@@V?$xalloc@U_REG_INFO@@@@@priv@stlp_std@@QAE?AV?$reverse_iterator@PAU_REG_INFO@@@3@XZ ENDP ; stlp_std::priv::_Impl_vector<_REG_INFO,xalloc<_REG_INFO> >::rend
; Function compile flags: /Ogtpy
_TEXT	ENDS
;	COMDAT ?rbegin@?$_Impl_vector@U_REG_INFO@@V?$xalloc@U_REG_INFO@@@@@priv@stlp_std@@QAE?AV?$reverse_iterator@PAU_REG_INFO@@@3@XZ
_TEXT	SEGMENT
?rbegin@?$_Impl_vector@U_REG_INFO@@V?$xalloc@U_REG_INFO@@@@@priv@stlp_std@@QAE?AV?$reverse_iterator@PAU_REG_INFO@@@3@XZ PROC ; stlp_std::priv::_Impl_vector<_REG_INFO,xalloc<_REG_INFO> >::rbegin, COMDAT
; _this$ = ecx
; ___$ReturnUdt$ = eax

; 175  :   reverse_iterator rbegin()              { return reverse_iterator(end()); }

	mov	edx, DWORD PTR [ecx+4]
	mov	DWORD PTR [eax], edx
	ret	0
?rbegin@?$_Impl_vector@U_REG_INFO@@V?$xalloc@U_REG_INFO@@@@@priv@stlp_std@@QAE?AV?$reverse_iterator@PAU_REG_INFO@@@3@XZ ENDP ; stlp_std::priv::_Impl_vector<_REG_INFO,xalloc<_REG_INFO> >::rbegin
; Function compile flags: /Ogtpy
_TEXT	ENDS
;	COMDAT ??1?$_Vector_base@UItemReg@CSheduler@@V?$xalloc@UItemReg@CSheduler@@@@@priv@stlp_std@@QAE@XZ
_TEXT	SEGMENT
??1?$_Vector_base@UItemReg@CSheduler@@V?$xalloc@UItemReg@CSheduler@@@@@priv@stlp_std@@QAE@XZ PROC ; stlp_std::priv::_Vector_base<CSheduler::ItemReg,xalloc<CSheduler::ItemReg> >::~_Vector_base<CSheduler::ItemReg,xalloc<CSheduler::ItemReg> >, COMDAT
; _this$ = eax

; 85   :     if (_M_start != _STLP_DEFAULT_CONSTRUCTED(pointer))

	mov	eax, DWORD PTR [eax]
	test	eax, eax
	je	SHORT $LN6@Vector_bas@27

; 86   :       _M_end_of_storage.deallocate(_M_start, _M_end_of_storage._M_data - _M_start);

	mov	ecx, DWORD PTR __imp_?Memory@@3VxrMemory@@A
	push	eax
	call	DWORD PTR __imp_?mem_free@xrMemory@@QAEXPAX@Z
$LN6@Vector_bas@27:

; 87   :   }

	ret	0
??1?$_Vector_base@UItemReg@CSheduler@@V?$xalloc@UItemReg@CSheduler@@@@@priv@stlp_std@@QAE@XZ ENDP ; stlp_std::priv::_Vector_base<CSheduler::ItemReg,xalloc<CSheduler::ItemReg> >::~_Vector_base<CSheduler::ItemReg,xalloc<CSheduler::ItemReg> >
; Function compile flags: /Ogtpy
_TEXT	ENDS
;	COMDAT ?rend@?$_Impl_vector@UItemReg@CSheduler@@V?$xalloc@UItemReg@CSheduler@@@@@priv@stlp_std@@QAE?AV?$reverse_iterator@PAUItemReg@CSheduler@@@3@XZ
_TEXT	SEGMENT
?rend@?$_Impl_vector@UItemReg@CSheduler@@V?$xalloc@UItemReg@CSheduler@@@@@priv@stlp_std@@QAE?AV?$reverse_iterator@PAUItemReg@CSheduler@@@3@XZ PROC ; stlp_std::priv::_Impl_vector<CSheduler::ItemReg,xalloc<CSheduler::ItemReg> >::rend, COMDAT
; _this$ = ecx
; ___$ReturnUdt$ = eax

; 177  :   reverse_iterator rend()                { return reverse_iterator(begin()); }

	mov	edx, DWORD PTR [ecx]
	mov	DWORD PTR [eax], edx
	ret	0
?rend@?$_Impl_vector@UItemReg@CSheduler@@V?$xalloc@UItemReg@CSheduler@@@@@priv@stlp_std@@QAE?AV?$reverse_iterator@PAUItemReg@CSheduler@@@3@XZ ENDP ; stlp_std::priv::_Impl_vector<CSheduler::ItemReg,xalloc<CSheduler::ItemReg> >::rend
; Function compile flags: /Ogtpy
_TEXT	ENDS
;	COMDAT ?rbegin@?$_Impl_vector@UItemReg@CSheduler@@V?$xalloc@UItemReg@CSheduler@@@@@priv@stlp_std@@QAE?AV?$reverse_iterator@PAUItemReg@CSheduler@@@3@XZ
_TEXT	SEGMENT
?rbegin@?$_Impl_vector@UItemReg@CSheduler@@V?$xalloc@UItemReg@CSheduler@@@@@priv@stlp_std@@QAE?AV?$reverse_iterator@PAUItemReg@CSheduler@@@3@XZ PROC ; stlp_std::priv::_Impl_vector<CSheduler::ItemReg,xalloc<CSheduler::ItemReg> >::rbegin, COMDAT
; _this$ = ecx
; ___$ReturnUdt$ = eax

; 175  :   reverse_iterator rbegin()              { return reverse_iterator(end()); }

	mov	edx, DWORD PTR [ecx+4]
	mov	DWORD PTR [eax], edx
	ret	0
?rbegin@?$_Impl_vector@UItemReg@CSheduler@@V?$xalloc@UItemReg@CSheduler@@@@@priv@stlp_std@@QAE?AV?$reverse_iterator@PAUItemReg@CSheduler@@@3@XZ ENDP ; stlp_std::priv::_Impl_vector<CSheduler::ItemReg,xalloc<CSheduler::ItemReg> >::rbegin
; Function compile flags: /Ogtpy
; File d:\clearsky\sources\engine\xrcore\_stl_extensions.h
_TEXT	ENDS
;	COMDAT ??0?$xalloc@UItemReg@CSheduler@@@@QAE@XZ
_TEXT	SEGMENT
??0?$xalloc@UItemReg@CSheduler@@@@QAE@XZ PROC		; xalloc<CSheduler::ItemReg>::xalloc<CSheduler::ItemReg>, COMDAT
; _this$ = eax

; 77   : 													xalloc			()										{	}

	ret	0
??0?$xalloc@UItemReg@CSheduler@@@@QAE@XZ ENDP		; xalloc<CSheduler::ItemReg>::xalloc<CSheduler::ItemReg>
; Function compile flags: /Ogtpy
; File d:\clearsky\sources\sdk\include\stlport\stl\_vector.h
_TEXT	ENDS
;	COMDAT ??1?$_Vector_base@UItem@CSheduler@@V?$xalloc@UItem@CSheduler@@@@@priv@stlp_std@@QAE@XZ
_TEXT	SEGMENT
??1?$_Vector_base@UItem@CSheduler@@V?$xalloc@UItem@CSheduler@@@@@priv@stlp_std@@QAE@XZ PROC ; stlp_std::priv::_Vector_base<CSheduler::Item,xalloc<CSheduler::Item> >::~_Vector_base<CSheduler::Item,xalloc<CSheduler::Item> >, COMDAT
; _this$ = eax

; 85   :     if (_M_start != _STLP_DEFAULT_CONSTRUCTED(pointer))

	mov	eax, DWORD PTR [eax]
	test	eax, eax
	je	SHORT $LN6@Vector_bas@28

; 86   :       _M_end_of_storage.deallocate(_M_start, _M_end_of_storage._M_data - _M_start);

	mov	ecx, DWORD PTR __imp_?Memory@@3VxrMemory@@A
	push	eax
	call	DWORD PTR __imp_?mem_free@xrMemory@@QAEXPAX@Z
$LN6@Vector_bas@28:

; 87   :   }

	ret	0
??1?$_Vector_base@UItem@CSheduler@@V?$xalloc@UItem@CSheduler@@@@@priv@stlp_std@@QAE@XZ ENDP ; stlp_std::priv::_Vector_base<CSheduler::Item,xalloc<CSheduler::Item> >::~_Vector_base<CSheduler::Item,xalloc<CSheduler::Item> >
; Function compile flags: /Ogtpy
_TEXT	ENDS
;	COMDAT ?front@?$_Impl_vector@UItem@CSheduler@@V?$xalloc@UItem@CSheduler@@@@@priv@stlp_std@@QAEAAUItem@CSheduler@@XZ
_TEXT	SEGMENT
?front@?$_Impl_vector@UItem@CSheduler@@V?$xalloc@UItem@CSheduler@@@@@priv@stlp_std@@QAEAAUItem@CSheduler@@XZ PROC ; stlp_std::priv::_Impl_vector<CSheduler::Item,xalloc<CSheduler::Item> >::front, COMDAT
; _this$ = eax

; 193  :   reference front()             { return *begin(); }

	mov	eax, DWORD PTR [eax]
	ret	0
?front@?$_Impl_vector@UItem@CSheduler@@V?$xalloc@UItem@CSheduler@@@@@priv@stlp_std@@QAEAAUItem@CSheduler@@XZ ENDP ; stlp_std::priv::_Impl_vector<CSheduler::Item,xalloc<CSheduler::Item> >::front
; Function compile flags: /Ogtpy
_TEXT	ENDS
;	COMDAT ?rend@?$_Impl_vector@UItem@CSheduler@@V?$xalloc@UItem@CSheduler@@@@@priv@stlp_std@@QAE?AV?$reverse_iterator@PAUItem@CSheduler@@@3@XZ
_TEXT	SEGMENT
?rend@?$_Impl_vector@UItem@CSheduler@@V?$xalloc@UItem@CSheduler@@@@@priv@stlp_std@@QAE?AV?$reverse_iterator@PAUItem@CSheduler@@@3@XZ PROC ; stlp_std::priv::_Impl_vector<CSheduler::Item,xalloc<CSheduler::Item> >::rend, COMDAT
; _this$ = ecx
; ___$ReturnUdt$ = eax

; 177  :   reverse_iterator rend()                { return reverse_iterator(begin()); }

	mov	edx, DWORD PTR [ecx]
	mov	DWORD PTR [eax], edx
	ret	0
?rend@?$_Impl_vector@UItem@CSheduler@@V?$xalloc@UItem@CSheduler@@@@@priv@stlp_std@@QAE?AV?$reverse_iterator@PAUItem@CSheduler@@@3@XZ ENDP ; stlp_std::priv::_Impl_vector<CSheduler::Item,xalloc<CSheduler::Item> >::rend
; Function compile flags: /Ogtpy
_TEXT	ENDS
;	COMDAT ?rbegin@?$_Impl_vector@UItem@CSheduler@@V?$xalloc@UItem@CSheduler@@@@@priv@stlp_std@@QAE?AV?$reverse_iterator@PAUItem@CSheduler@@@3@XZ
_TEXT	SEGMENT
?rbegin@?$_Impl_vector@UItem@CSheduler@@V?$xalloc@UItem@CSheduler@@@@@priv@stlp_std@@QAE?AV?$reverse_iterator@PAUItem@CSheduler@@@3@XZ PROC ; stlp_std::priv::_Impl_vector<CSheduler::Item,xalloc<CSheduler::Item> >::rbegin, COMDAT
; _this$ = ecx
; ___$ReturnUdt$ = eax

; 175  :   reverse_iterator rbegin()              { return reverse_iterator(end()); }

	mov	edx, DWORD PTR [ecx+4]
	mov	DWORD PTR [eax], edx
	ret	0
