; Listing generated by Microsoft (R) Optimizing Compiler Version 14.00.50727.762 

	TITLE	D:\CLEARSKY\sources\engine\xrEngine\x_ray.cpp
	.686P
	.XMM
	include listing.inc
	.model	flat

INCLUDELIB OLDNAMES

PUBLIC	?Load_GameSpecific_After@IGame_Level@@UAEHXZ	; IGame_Level::Load_GameSpecific_After
PUBLIC	?Load_GameSpecific_Before@IGame_Level@@UAEHXZ	; IGame_Level::Load_GameSpecific_Before
PUBLIC	??_ECCC_LoadCFG_custom@@UAEPAXI@Z		; CCC_LoadCFG_custom::`vector deleting destructor'
PUBLIC	??_R4CCC_LoadCFG_custom@@6B@			; CCC_LoadCFG_custom::`RTTI Complete Object Locator'
PUBLIC	??_R3CCC_LoadCFG_custom@@8			; CCC_LoadCFG_custom::`RTTI Class Hierarchy Descriptor'
PUBLIC	??_R2CCC_LoadCFG_custom@@8			; CCC_LoadCFG_custom::`RTTI Base Class Array'
PUBLIC	??_R1A@?0A@EA@CCC_LoadCFG_custom@@8		; CCC_LoadCFG_custom::`RTTI Base Class Descriptor at (0,-1,0,64)'
PUBLIC	??_R0?AVCCC_LoadCFG_custom@@@8			; CCC_LoadCFG_custom `RTTI Type Descriptor'
PUBLIC	?allow@CCC_LoadCFG@@UAE_NPBD@Z			; CCC_LoadCFG::allow
PUBLIC	??_ECCC_LoadCFG@@UAEPAXI@Z			; CCC_LoadCFG::`vector deleting destructor'
PUBLIC	??_R4CCC_LoadCFG@@6B@				; CCC_LoadCFG::`RTTI Complete Object Locator'
PUBLIC	??_R3CCC_LoadCFG@@8				; CCC_LoadCFG::`RTTI Class Hierarchy Descriptor'
PUBLIC	??_R2CCC_LoadCFG@@8				; CCC_LoadCFG::`RTTI Base Class Array'
PUBLIC	??_R1A@?0A@EA@CCC_LoadCFG@@8			; CCC_LoadCFG::`RTTI Base Class Descriptor at (0,-1,0,64)'
PUBLIC	??_R0?AVCCC_LoadCFG@@@8				; CCC_LoadCFG `RTTI Type Descriptor'
PUBLIC	?fill_tips@CCC_String@@UAEXAAV?$xr_vector@Vshared_str@@V?$xalloc@Vshared_str@@@@@@I@Z ; CCC_String::fill_tips
PUBLIC	?Info@CCC_String@@UAEXAAY0BAA@D@Z		; CCC_String::Info
PUBLIC	?Status@CCC_String@@UAEXAAY0BAA@D@Z		; CCC_String::Status
PUBLIC	?Execute@CCC_String@@UAEXPBD@Z			; CCC_String::Execute
PUBLIC	??_ECCC_String@@UAEPAXI@Z			; CCC_String::`vector deleting destructor'
PUBLIC	??_R4CCC_String@@6B@				; CCC_String::`RTTI Complete Object Locator'
PUBLIC	??_R3CCC_String@@8				; CCC_String::`RTTI Class Hierarchy Descriptor'
PUBLIC	??_R2CCC_String@@8				; CCC_String::`RTTI Base Class Array'
PUBLIC	??_R1A@?0A@EA@CCC_String@@8			; CCC_String::`RTTI Base Class Descriptor at (0,-1,0,64)'
PUBLIC	??_R0?AVCCC_String@@@8				; CCC_String `RTTI Type Descriptor'
PUBLIC	?fill_tips@CCC_Integer@@UAEXAAV?$xr_vector@Vshared_str@@V?$xalloc@Vshared_str@@@@@@I@Z ; CCC_Integer::fill_tips
PUBLIC	?Info@CCC_Integer@@UAEXAAY0BAA@D@Z		; CCC_Integer::Info
PUBLIC	?Status@CCC_Integer@@UAEXAAY0BAA@D@Z		; CCC_Integer::Status
PUBLIC	?Execute@CCC_Integer@@UAEXPBD@Z			; CCC_Integer::Execute
PUBLIC	??_ECCC_Integer@@UAEPAXI@Z			; CCC_Integer::`vector deleting destructor'
PUBLIC	??_R4CCC_Integer@@6B@				; CCC_Integer::`RTTI Complete Object Locator'
PUBLIC	??_R3CCC_Integer@@8				; CCC_Integer::`RTTI Class Hierarchy Descriptor'
PUBLIC	??_R2CCC_Integer@@8				; CCC_Integer::`RTTI Base Class Array'
PUBLIC	??_R1A@?0A@EA@CCC_Integer@@8			; CCC_Integer::`RTTI Base Class Descriptor at (0,-1,0,64)'
PUBLIC	??_R0?AVCCC_Integer@@@8				; CCC_Integer `RTTI Type Descriptor'
PUBLIC	?fill_tips@CCC_Vector3@@UAEXAAV?$xr_vector@Vshared_str@@V?$xalloc@Vshared_str@@@@@@I@Z ; CCC_Vector3::fill_tips
PUBLIC	?Info@CCC_Vector3@@UAEXAAY0BAA@D@Z		; CCC_Vector3::Info
PUBLIC	?Status@CCC_Vector3@@UAEXAAY0BAA@D@Z		; CCC_Vector3::Status
PUBLIC	?Execute@CCC_Vector3@@UAEXPBD@Z			; CCC_Vector3::Execute
PUBLIC	??_ECCC_Vector3@@UAEPAXI@Z			; CCC_Vector3::`vector deleting destructor'
PUBLIC	??_R4CCC_Vector3@@6B@				; CCC_Vector3::`RTTI Complete Object Locator'
PUBLIC	??_R3CCC_Vector3@@8				; CCC_Vector3::`RTTI Class Hierarchy Descriptor'
PUBLIC	??_R2CCC_Vector3@@8				; CCC_Vector3::`RTTI Base Class Array'
PUBLIC	??_R1A@?0A@EA@CCC_Vector3@@8			; CCC_Vector3::`RTTI Base Class Descriptor at (0,-1,0,64)'
PUBLIC	??_R0?AVCCC_Vector3@@@8				; CCC_Vector3 `RTTI Type Descriptor'
PUBLIC	?fill_tips@CCC_Float@@UAEXAAV?$xr_vector@Vshared_str@@V?$xalloc@Vshared_str@@@@@@I@Z ; CCC_Float::fill_tips
PUBLIC	?Info@CCC_Float@@UAEXAAY0BAA@D@Z		; CCC_Float::Info
PUBLIC	?Status@CCC_Float@@UAEXAAY0BAA@D@Z		; CCC_Float::Status
PUBLIC	?Execute@CCC_Float@@UAEXPBD@Z			; CCC_Float::Execute
PUBLIC	??_ECCC_Float@@UAEPAXI@Z			; CCC_Float::`vector deleting destructor'
PUBLIC	??_R4CCC_Float@@6B@				; CCC_Float::`RTTI Complete Object Locator'
PUBLIC	??_R3CCC_Float@@8				; CCC_Float::`RTTI Class Hierarchy Descriptor'
PUBLIC	??_R2CCC_Float@@8				; CCC_Float::`RTTI Base Class Array'
PUBLIC	??_R1A@?0A@EA@CCC_Float@@8			; CCC_Float::`RTTI Base Class Descriptor at (0,-1,0,64)'
PUBLIC	??_R0?AVCCC_Float@@@8				; CCC_Float `RTTI Type Descriptor'
PUBLIC	?GetToken@CCC_Token@@UAEPAUxr_token@@XZ		; CCC_Token::GetToken
PUBLIC	?fill_tips@CCC_Token@@UAEXAAV?$xr_vector@Vshared_str@@V?$xalloc@Vshared_str@@@@@@I@Z ; CCC_Token::fill_tips
PUBLIC	?Info@CCC_Token@@UAEXAAY0BAA@D@Z		; CCC_Token::Info
PUBLIC	?Status@CCC_Token@@UAEXAAY0BAA@D@Z		; CCC_Token::Status
PUBLIC	?Execute@CCC_Token@@UAEXPBD@Z			; CCC_Token::Execute
PUBLIC	??_ECCC_Token@@UAEPAXI@Z			; CCC_Token::`vector deleting destructor'
PUBLIC	??_R4CCC_Token@@6B@				; CCC_Token::`RTTI Complete Object Locator'
PUBLIC	??_R3CCC_Token@@8				; CCC_Token::`RTTI Class Hierarchy Descriptor'
PUBLIC	??_R2CCC_Token@@8				; CCC_Token::`RTTI Base Class Array'
PUBLIC	??_R1A@?0A@EA@CCC_Token@@8			; CCC_Token::`RTTI Base Class Descriptor at (0,-1,0,64)'
PUBLIC	??_R0?AVCCC_Token@@@8				; CCC_Token `RTTI Type Descriptor'
PUBLIC	?fill_tips@CCC_ToggleMask@@UAEXAAV?$xr_vector@Vshared_str@@V?$xalloc@Vshared_str@@@@@@I@Z ; CCC_ToggleMask::fill_tips
PUBLIC	?Info@CCC_ToggleMask@@UAEXAAY0BAA@D@Z		; CCC_ToggleMask::Info
PUBLIC	?Status@CCC_ToggleMask@@UAEXAAY0BAA@D@Z		; CCC_ToggleMask::Status
PUBLIC	?Execute@CCC_ToggleMask@@UAEXPBD@Z		; CCC_ToggleMask::Execute
PUBLIC	??_ECCC_ToggleMask@@UAEPAXI@Z			; CCC_ToggleMask::`vector deleting destructor'
PUBLIC	??_R4CCC_ToggleMask@@6B@			; CCC_ToggleMask::`RTTI Complete Object Locator'
PUBLIC	??_R3CCC_ToggleMask@@8				; CCC_ToggleMask::`RTTI Class Hierarchy Descriptor'
PUBLIC	??_R2CCC_ToggleMask@@8				; CCC_ToggleMask::`RTTI Base Class Array'
PUBLIC	??_R1A@?0A@EA@CCC_ToggleMask@@8			; CCC_ToggleMask::`RTTI Base Class Descriptor at (0,-1,0,64)'
PUBLIC	??_R0?AVCCC_ToggleMask@@@8			; CCC_ToggleMask `RTTI Type Descriptor'
PUBLIC	?fill_tips@CCC_Mask@@UAEXAAV?$xr_vector@Vshared_str@@V?$xalloc@Vshared_str@@@@@@I@Z ; CCC_Mask::fill_tips
PUBLIC	?Info@CCC_Mask@@UAEXAAY0BAA@D@Z			; CCC_Mask::Info
PUBLIC	?Status@CCC_Mask@@UAEXAAY0BAA@D@Z		; CCC_Mask::Status
PUBLIC	?Execute@CCC_Mask@@UAEXPBD@Z			; CCC_Mask::Execute
PUBLIC	??_ECCC_Mask@@UAEPAXI@Z				; CCC_Mask::`vector deleting destructor'
PUBLIC	??_R4CCC_Mask@@6B@				; CCC_Mask::`RTTI Complete Object Locator'
PUBLIC	??_R3CCC_Mask@@8				; CCC_Mask::`RTTI Class Hierarchy Descriptor'
PUBLIC	??_R2CCC_Mask@@8				; CCC_Mask::`RTTI Base Class Array'
PUBLIC	??_R1A@?0A@EA@CCC_Mask@@8			; CCC_Mask::`RTTI Base Class Descriptor at (0,-1,0,64)'
PUBLIC	??_R0?AVCCC_Mask@@@8				; CCC_Mask `RTTI Type Descriptor'
PUBLIC	??_R4_SoundProcessor@@6B@			; _SoundProcessor::`RTTI Complete Object Locator'
PUBLIC	??_R3_SoundProcessor@@8				; _SoundProcessor::`RTTI Class Hierarchy Descriptor'
PUBLIC	??_R2_SoundProcessor@@8				; _SoundProcessor::`RTTI Base Class Array'
PUBLIC	??_R1A@?0A@EA@_SoundProcessor@@8		; _SoundProcessor::`RTTI Base Class Descriptor at (0,-1,0,64)'
PUBLIC	??_R0?AU_SoundProcessor@@@8			; _SoundProcessor `RTTI Type Descriptor'
PUBLIC	??_R4CTextConsole@@6BpureScreenResolutionChanged@@@ ; CTextConsole::`RTTI Complete Object Locator'
PUBLIC	??_R4CTextConsole@@6BpureFrame@@@		; CTextConsole::`RTTI Complete Object Locator'
PUBLIC	??_ECTextConsole@@UAEPAXI@Z			; CTextConsole::`vector deleting destructor'
PUBLIC	??_R4CTextConsole@@6BpureRender@@@		; CTextConsole::`RTTI Complete Object Locator'
PUBLIC	??_R3CTextConsole@@8				; CTextConsole::`RTTI Class Hierarchy Descriptor'
PUBLIC	??_R2CTextConsole@@8				; CTextConsole::`RTTI Base Class Array'
PUBLIC	??_R1A@?0A@EA@CTextConsole@@8			; CTextConsole::`RTTI Base Class Descriptor at (0,-1,0,64)'
PUBLIC	??_R0?AVCTextConsole@@@8			; CTextConsole `RTTI Type Descriptor'
PUBLIC	?OnEvent@CApplication@@UAEXPAVCEvent@@_K1@Z	; CApplication::OnEvent
PUBLIC	??_R4CApplication@@6BIEventReceiver@@@		; CApplication::`RTTI Complete Object Locator'
PUBLIC	??_ECApplication@@UAEPAXI@Z			; CApplication::`vector deleting destructor'
PUBLIC	?OnFrame@CApplication@@UAGXXZ			; CApplication::OnFrame
PUBLIC	??_R4CApplication@@6BpureFrame@@@		; CApplication::`RTTI Complete Object Locator'
PUBLIC	??_R3CApplication@@8				; CApplication::`RTTI Class Hierarchy Descriptor'
PUBLIC	??_R2CApplication@@8				; CApplication::`RTTI Base Class Array'
PUBLIC	??_R13?0A@EA@IEventReceiver@@8			; IEventReceiver::`RTTI Base Class Descriptor at (4,-1,0,64)'
PUBLIC	??_R1A@?0A@EA@CApplication@@8			; CApplication::`RTTI Base Class Descriptor at (0,-1,0,64)'
PUBLIC	??_R0?AVCApplication@@@8			; CApplication `RTTI Type Descriptor'
PUBLIC	??_R4CConsole@@6BpureScreenResolutionChanged@@@	; CConsole::`RTTI Complete Object Locator'
PUBLIC	??_R4CConsole@@6BpureFrame@@@			; CConsole::`RTTI Complete Object Locator'
PUBLIC	??_ECConsole@@UAEPAXI@Z				; CConsole::`vector deleting destructor'
PUBLIC	??_R4CConsole@@6BpureRender@@@			; CConsole::`RTTI Complete Object Locator'
PUBLIC	??_R3CConsole@@8				; CConsole::`RTTI Class Hierarchy Descriptor'
PUBLIC	??_R2CConsole@@8				; CConsole::`RTTI Base Class Array'
PUBLIC	??_R17?0A@EA@pureScreenResolutionChanged@@8	; pureScreenResolutionChanged::`RTTI Base Class Descriptor at (8,-1,0,64)'
PUBLIC	??_R13?0A@EA@pureFrame@@8			; pureFrame::`RTTI Base Class Descriptor at (4,-1,0,64)'
PUBLIC	??_R1A@?0A@EA@CConsole@@8			; CConsole::`RTTI Base Class Descriptor at (0,-1,0,64)'
PUBLIC	??_R0?AVCConsole@@@8				; CConsole `RTTI Type Descriptor'
PUBLIC	?fill_tips@IConsole_Command@@UAEXAAV?$xr_vector@Vshared_str@@V?$xalloc@Vshared_str@@@@@@I@Z ; IConsole_Command::fill_tips
PUBLIC	?Save@IConsole_Command@@UAEXPAVIWriter@@@Z	; IConsole_Command::Save
PUBLIC	?Info@IConsole_Command@@UAEXAAY0BAA@D@Z		; IConsole_Command::Info
PUBLIC	?Status@IConsole_Command@@UAEXAAY0BAA@D@Z	; IConsole_Command::Status
PUBLIC	??_EIConsole_Command@@UAEPAXI@Z			; IConsole_Command::`vector deleting destructor'
PUBLIC	??_R4IConsole_Command@@6B@			; IConsole_Command::`RTTI Complete Object Locator'
PUBLIC	??_R3IConsole_Command@@8			; IConsole_Command::`RTTI Class Hierarchy Descriptor'
PUBLIC	??_R2IConsole_Command@@8			; IConsole_Command::`RTTI Base Class Array'
PUBLIC	??_R1A@?0A@EA@IConsole_Command@@8		; IConsole_Command::`RTTI Base Class Descriptor at (0,-1,0,64)'
PUBLIC	??_R0?AVIConsole_Command@@@8			; IConsole_Command `RTTI Type Descriptor'
PUBLIC	??_R4CInput@@6BpureAppDeactivate@@@		; CInput::`RTTI Complete Object Locator'
PUBLIC	??_R4CInput@@6BpureAppActivate@@@		; CInput::`RTTI Complete Object Locator'
PUBLIC	??_R4CInput@@6BpureFrame@@@			; CInput::`RTTI Complete Object Locator'
PUBLIC	??_R3CInput@@8					; CInput::`RTTI Class Hierarchy Descriptor'
PUBLIC	??_R2CInput@@8					; CInput::`RTTI Base Class Array'
PUBLIC	??_R17?0A@EA@pureAppDeactivate@@8		; pureAppDeactivate::`RTTI Base Class Descriptor at (8,-1,0,64)'
PUBLIC	??_R13?0A@EA@pureAppActivate@@8			; pureAppActivate::`RTTI Base Class Descriptor at (4,-1,0,64)'
PUBLIC	??_R1A@?0A@EA@CInput@@8				; CInput::`RTTI Base Class Descriptor at (0,-1,0,64)'
PUBLIC	??_R0?AVCInput@@@8				; CInput `RTTI Type Descriptor'
PUBLIC	??_R4IGame_Persistent@@6BpureFrame@@@		; IGame_Persistent::`RTTI Complete Object Locator'
PUBLIC	??_R4IGame_Persistent@@6BpureAppDeactivate@@@	; IGame_Persistent::`RTTI Complete Object Locator'
PUBLIC	??_R4IGame_Persistent@@6BpureAppActivate@@@	; IGame_Persistent::`RTTI Complete Object Locator'
PUBLIC	??_R4IGame_Persistent@@6BpureAppEnd@@@		; IGame_Persistent::`RTTI Complete Object Locator'
PUBLIC	??_R4IGame_Persistent@@6BpureAppStart@@@	; IGame_Persistent::`RTTI Complete Object Locator'
PUBLIC	?CanBePaused@IGame_Persistent@@UAE_NXZ		; IGame_Persistent::CanBePaused
PUBLIC	?LoadTitle@IGame_Persistent@@UAEX_NVshared_str@@@Z ; IGame_Persistent::LoadTitle
PUBLIC	?OnSectorChanged@IGame_Persistent@@UAEXH@Z	; IGame_Persistent::OnSectorChanged
PUBLIC	?SetBaseDof@IGame_Persistent@@UAEXABU?$_vector3@M@@@Z ; IGame_Persistent::SetBaseDof
PUBLIC	?GetCurrentDof@IGame_Persistent@@UAEXAAU?$_vector3@M@@@Z ; IGame_Persistent::GetCurrentDof
PUBLIC	?UpdateGameType@IGame_Persistent@@UAEXXZ	; IGame_Persistent::UpdateGameType
PUBLIC	?OnRenderPPUI_PP@IGame_Persistent@@UAEXXZ	; IGame_Persistent::OnRenderPPUI_PP
PUBLIC	?OnRenderPPUI_main@IGame_Persistent@@UAEXXZ	; IGame_Persistent::OnRenderPPUI_main
PUBLIC	?OnRenderPPUI_query@IGame_Persistent@@UAE_NXZ	; IGame_Persistent::OnRenderPPUI_query
PUBLIC	??_EIGame_Persistent@@UAEPAXI@Z			; IGame_Persistent::`vector deleting destructor'
PUBLIC	??_R4IGame_Persistent@@6BDLL_Pure@@@		; IGame_Persistent::`RTTI Complete Object Locator'
PUBLIC	??_R3IGame_Persistent@@8			; IGame_Persistent::`RTTI Class Hierarchy Descriptor'
PUBLIC	??_R2IGame_Persistent@@8			; IGame_Persistent::`RTTI Base Class Array'
PUBLIC	??_R1CA@?0A@EA@pureFrame@@8			; pureFrame::`RTTI Base Class Descriptor at (32,-1,0,64)'
PUBLIC	??_R1BM@?0A@EA@pureAppDeactivate@@8		; pureAppDeactivate::`RTTI Base Class Descriptor at (28,-1,0,64)'
PUBLIC	??_R1BI@?0A@EA@pureAppActivate@@8		; pureAppActivate::`RTTI Base Class Descriptor at (24,-1,0,64)'
PUBLIC	??_R1BE@?0A@EA@pureAppEnd@@8			; pureAppEnd::`RTTI Base Class Descriptor at (20,-1,0,64)'
PUBLIC	??_R1BA@?0A@EA@pureAppStart@@8			; pureAppStart::`RTTI Base Class Descriptor at (16,-1,0,64)'
PUBLIC	??_R1A@?0A@EA@IGame_Persistent@@8		; IGame_Persistent::`RTTI Base Class Descriptor at (0,-1,0,64)'
PUBLIC	??_R0?AVIGame_Persistent@@@8			; IGame_Persistent `RTTI Type Descriptor'
PUBLIC	??_EIGame_ObjectPool@@UAEPAXI@Z			; IGame_ObjectPool::`vector deleting destructor'
PUBLIC	??_R4IGame_ObjectPool@@6B@			; IGame_ObjectPool::`RTTI Complete Object Locator'
PUBLIC	??_R3IGame_ObjectPool@@8			; IGame_ObjectPool::`RTTI Class Hierarchy Descriptor'
PUBLIC	??_R2IGame_ObjectPool@@8			; IGame_ObjectPool::`RTTI Base Class Array'
PUBLIC	??_R1A@?0A@EA@IGame_ObjectPool@@8		; IGame_ObjectPool::`RTTI Base Class Descriptor at (0,-1,0,64)'
PUBLIC	??_R0?AVIGame_ObjectPool@@@8			; IGame_ObjectPool `RTTI Type Descriptor'
PUBLIC	?IR_OnKeyboardHold@IInputReceiver@@UAEXH@Z	; IInputReceiver::IR_OnKeyboardHold
PUBLIC	?IR_OnKeyboardRelease@IInputReceiver@@UAEXH@Z	; IInputReceiver::IR_OnKeyboardRelease
PUBLIC	?IR_OnKeyboardPress@IInputReceiver@@UAEXH@Z	; IInputReceiver::IR_OnKeyboardPress
PUBLIC	?IR_OnMouseStop@IInputReceiver@@UAEXHH@Z	; IInputReceiver::IR_OnMouseStop
PUBLIC	?IR_OnMouseMove@IInputReceiver@@UAEXHH@Z	; IInputReceiver::IR_OnMouseMove
PUBLIC	?IR_OnMouseWheel@IInputReceiver@@UAEXH@Z	; IInputReceiver::IR_OnMouseWheel
PUBLIC	?IR_OnMouseHold@IInputReceiver@@UAEXH@Z		; IInputReceiver::IR_OnMouseHold
PUBLIC	?IR_OnMouseRelease@IInputReceiver@@UAEXH@Z	; IInputReceiver::IR_OnMouseRelease
PUBLIC	?IR_OnMousePress@IInputReceiver@@UAEXH@Z	; IInputReceiver::IR_OnMousePress
PUBLIC	??_R4IInputReceiver@@6B@			; IInputReceiver::`RTTI Complete Object Locator'
PUBLIC	??_R3IInputReceiver@@8				; IInputReceiver::`RTTI Class Hierarchy Descriptor'
PUBLIC	??_R2IInputReceiver@@8				; IInputReceiver::`RTTI Base Class Array'
PUBLIC	??_R1A@?0A@EA@IInputReceiver@@8			; IInputReceiver::`RTTI Base Class Descriptor at (0,-1,0,64)'
PUBLIC	??_R0?AVIInputReceiver@@@8			; IInputReceiver `RTTI Type Descriptor'
PUBLIC	??_C@_0M@LPGGMLOD@texture1600?$AA@		; `string'
PUBLIC	??_C@_07JDHEGGGP@texture?$AA@			; `string'
PUBLIC	??_C@_0L@OJPGPGKH@texture800?$AA@		; `string'
PUBLIC	??_C@_03MKABNOCG@Dec?$AA@			; `string'
PUBLIC	??_C@_03JPJOFNIA@Nov?$AA@			; `string'
PUBLIC	??_C@_03BMAOKBAD@Oct?$AA@			; `string'
PUBLIC	??_C@_03GGCAPAJC@Sep?$AA@			; `string'
PUBLIC	??_C@_03IFJFEIGA@Aug?$AA@			; `string'
PUBLIC	??_C@_03LBGABGKK@Jul?$AA@			; `string'
PUBLIC	??_C@_03IDFGHECI@Jun?$AA@			; `string'
PUBLIC	??_C@_03CNMDKL@May?$AA@				; `string'
PUBLIC	??_C@_03LEOLGMJP@Apr?$AA@			; `string'
PUBLIC	??_C@_03ODNJBKGA@Mar?$AA@			; `string'
PUBLIC	??_C@_03HJBDCHOM@Feb?$AA@			; `string'
PUBLIC	??_C@_03JIHJHPIE@Jan?$AA@			; `string'
PUBLIC	?iFloor@@YAHM@Z					; iFloor
PUBLIC	?begin@?$_Impl_vector@Uarchive@CLocatorAPI@@V?$xalloc@Uarchive@CLocatorAPI@@@@@priv@stlp_std@@QAEPAUarchive@CLocatorAPI@@XZ ; stlp_std::priv::_Impl_vector<CLocatorAPI::archive,xalloc<CLocatorAPI::archive> >::begin
PUBLIC	?begin@?$vector@Uarchive@CLocatorAPI@@V?$xalloc@Uarchive@CLocatorAPI@@@@@stlp_std@@QAEPAUarchive@CLocatorAPI@@XZ ; stlp_std::vector<CLocatorAPI::archive,xalloc<CLocatorAPI::archive> >::begin
PUBLIC	?end@?$_Impl_vector@Uarchive@CLocatorAPI@@V?$xalloc@Uarchive@CLocatorAPI@@@@@priv@stlp_std@@QAEPAUarchive@CLocatorAPI@@XZ ; stlp_std::priv::_Impl_vector<CLocatorAPI::archive,xalloc<CLocatorAPI::archive> >::end
PUBLIC	?to_value_type_ptr@?$_CastTraits@Uarchive@CLocatorAPI@@U12@@priv@stlp_std@@SAPAUarchive@CLocatorAPI@@PAU45@@Z ; stlp_std::priv::_CastTraits<CLocatorAPI::archive,CLocatorAPI::archive>::to_value_type_ptr
PUBLIC	?end@?$vector@Uarchive@CLocatorAPI@@V?$xalloc@Uarchive@CLocatorAPI@@@@@stlp_std@@QAEPAUarchive@CLocatorAPI@@XZ ; stlp_std::vector<CLocatorAPI::archive,xalloc<CLocatorAPI::archive> >::end
PUBLIC	?begin@?$_Rb_tree@HU?$less@H@stlp_std@@U?$pair@$$CBHI@2@U?$_Select1st@U?$pair@$$CBHI@stlp_std@@@priv@2@U?$_MapTraitsT@U?$pair@$$CBHI@stlp_std@@@52@V?$xalloc@U?$pair@HI@stlp_std@@@@@priv@stlp_std@@QAE?AU?$_Rb_tree_iterator@U?$pair@$$CBHI@stlp_std@@U?$_MapTraitsT@U?$pair@$$CBHI@stlp_std@@@priv@2@@23@XZ ; stlp_std::priv::_Rb_tree<int,stlp_std::less<int>,stlp_std::pair<int const ,unsigned int>,stlp_std::priv::_Select1st<stlp_std::pair<int const ,unsigned int> >,stlp_std::priv::_MapTraitsT<stlp_std::pair<int const ,unsigned int> >,xalloc<stlp_std::pair<int,unsigned int> > >::begin
PUBLIC	?rend@?$_Rb_tree@HU?$less@H@stlp_std@@U?$pair@$$CBHI@2@U?$_Select1st@U?$pair@$$CBHI@stlp_std@@@priv@2@U?$_MapTraitsT@U?$pair@$$CBHI@stlp_std@@@52@V?$xalloc@U?$pair@HI@stlp_std@@@@@priv@stlp_std@@QAE?AV?$reverse_iterator@U?$_Rb_tree_iterator@U?$pair@$$CBHI@stlp_std@@U?$_MapTraitsT@U?$pair@$$CBHI@stlp_std@@@priv@2@@priv@stlp_std@@@3@XZ ; stlp_std::priv::_Rb_tree<int,stlp_std::less<int>,stlp_std::pair<int const ,unsigned int>,stlp_std::priv::_Select1st<stlp_std::pair<int const ,unsigned int> >,stlp_std::priv::_MapTraitsT<stlp_std::pair<int const ,unsigned int> >,xalloc<stlp_std::pair<int,unsigned int> > >::rend
PUBLIC	?rend@?$map@HIU?$less@H@stlp_std@@V?$xalloc@U?$pair@HI@stlp_std@@@@@stlp_std@@QAE?AV?$reverse_iterator@U?$_Rb_tree_iterator@U?$pair@$$CBHI@stlp_std@@U?$_MapTraitsT@U?$pair@$$CBHI@stlp_std@@@priv@2@@priv@stlp_std@@@2@XZ ; stlp_std::map<int,unsigned int,stlp_std::less<int>,xalloc<stlp_std::pair<int,unsigned int> > >::rend
PUBLIC	??4?$vector@PAVISpatial@@V?$xalloc@PAVISpatial@@@@@stlp_std@@QAEAAV01@ABV01@@Z ; stlp_std::vector<ISpatial *,xalloc<ISpatial *> >::operator=
PUBLIC	??4?$xr_vector@PAVISpatial@@V?$xalloc@PAVISpatial@@@@@@QAEAAV0@ABV0@@Z ; xr_vector<ISpatial *,xalloc<ISpatial *> >::operator=
PUBLIC	?size@?$_Impl_vector@Uref_sound@@V?$xalloc@Uref_sound@@@@@priv@stlp_std@@QBEIXZ ; stlp_std::priv::_Impl_vector<ref_sound,xalloc<ref_sound> >::size
PUBLIC	?capacity@?$_Impl_vector@Uref_sound@@V?$xalloc@Uref_sound@@@@@priv@stlp_std@@QBEIXZ ; stlp_std::priv::_Impl_vector<ref_sound,xalloc<ref_sound> >::capacity
PUBLIC	??$xr_free@Uref_sound@@@@YAXAAPAUref_sound@@@Z	; xr_free<ref_sound>
PUBLIC	?deallocate@?$xalloc@Uref_sound@@@@QBEXPAUref_sound@@I@Z ; xalloc<ref_sound>::deallocate
PUBLIC	?end@?$_Impl_vector@Uref_sound@@V?$xalloc@Uref_sound@@@@@priv@stlp_std@@QAEPAUref_sound@@XZ ; stlp_std::priv::_Impl_vector<ref_sound,xalloc<ref_sound> >::end
PUBLIC	?rbegin@?$_Impl_vector@Uref_sound@@V?$xalloc@Uref_sound@@@@@priv@stlp_std@@QAE?AV?$reverse_iterator@PAUref_sound@@@3@XZ ; stlp_std::priv::_Impl_vector<ref_sound,xalloc<ref_sound> >::rbegin
PUBLIC	?begin@?$_Impl_vector@Uref_sound@@V?$xalloc@Uref_sound@@@@@priv@stlp_std@@QAEPAUref_sound@@XZ ; stlp_std::priv::_Impl_vector<ref_sound,xalloc<ref_sound> >::begin
PUBLIC	??0?$reverse_iterator@PAUref_sound@@@stlp_std@@QAE@PAUref_sound@@@Z ; stlp_std::reverse_iterator<ref_sound *>::reverse_iterator<ref_sound *>
PUBLIC	?rend@?$_Impl_vector@Uref_sound@@V?$xalloc@Uref_sound@@@@@priv@stlp_std@@QAE?AV?$reverse_iterator@PAUref_sound@@@3@XZ ; stlp_std::priv::_Impl_vector<ref_sound,xalloc<ref_sound> >::rend
PUBLIC	??0?$reverse_iterator@PAUref_sound@@@stlp_std@@QAE@ABV01@@Z ; stlp_std::reverse_iterator<ref_sound *>::reverse_iterator<ref_sound *>
PUBLIC	??D?$reverse_iterator@PAUref_sound@@@stlp_std@@QBEAAUref_sound@@XZ ; stlp_std::reverse_iterator<ref_sound *>::operator*
PUBLIC	??E?$reverse_iterator@PAUref_sound@@@stlp_std@@QAEAAV01@XZ ; stlp_std::reverse_iterator<ref_sound *>::operator++
PUBLIC	?base@?$reverse_iterator@PAUref_sound@@@stlp_std@@QBEPAUref_sound@@XZ ; stlp_std::reverse_iterator<ref_sound *>::base
PUBLIC	??$?8PAUref_sound@@@stlp_std@@YA_NABV?$reverse_iterator@PAUref_sound@@@0@0@Z ; stlp_std::operator==<ref_sound *>
PUBLIC	??$?9PAUref_sound@@@stlp_std@@YA_NABV?$reverse_iterator@PAUref_sound@@@0@0@Z ; stlp_std::operator!=<ref_sound *>
PUBLIC	??$__destroy_range_aux@V?$reverse_iterator@PAUref_sound@@@stlp_std@@Uref_sound@@@stlp_std@@YAXV?$reverse_iterator@PAUref_sound@@@0@0PAUref_sound@@ABU__false_type@0@@Z ; stlp_std::__destroy_range_aux<stlp_std::reverse_iterator<ref_sound *>,ref_sound>
PUBLIC	??$__destroy_range@V?$reverse_iterator@PAUref_sound@@@stlp_std@@Uref_sound@@@stlp_std@@YAXV?$reverse_iterator@PAUref_sound@@@0@0PAUref_sound@@@Z ; stlp_std::__destroy_range<stlp_std::reverse_iterator<ref_sound *>,ref_sound>
PUBLIC	??$_Destroy_Range@V?$reverse_iterator@PAUref_sound@@@stlp_std@@@stlp_std@@YAXV?$reverse_iterator@PAUref_sound@@@0@0@Z ; stlp_std::_Destroy_Range<stlp_std::reverse_iterator<ref_sound *> >
PUBLIC	?_M_clear@?$_Impl_vector@Uref_sound@@V?$xalloc@Uref_sound@@@@@priv@stlp_std@@AAEXXZ ; stlp_std::priv::_Impl_vector<ref_sound,xalloc<ref_sound> >::_M_clear
PUBLIC	??$xr_alloc@Uref_sound@@@@YAPAUref_sound@@I@Z	; xr_alloc<ref_sound>
PUBLIC	?allocate@?$xalloc@Uref_sound@@@@QBEPAUref_sound@@IPBX@Z ; xalloc<ref_sound>::allocate
PUBLIC	?allocate@?$_STLP_alloc_proxy@PAUref_sound@@U1@V?$xalloc@Uref_sound@@@@@priv@stlp_std@@QAEPAUref_sound@@I@Z ; stlp_std::priv::_STLP_alloc_proxy<ref_sound *,ref_sound,xalloc<ref_sound> >::allocate
PUBLIC	?allocate@?$_STLP_alloc_proxy@PAUref_sound@@U1@V?$xalloc@Uref_sound@@@@@priv@stlp_std@@AAEPAUref_sound@@IAAIABU__false_type@3@@Z ; stlp_std::priv::_STLP_alloc_proxy<ref_sound *,ref_sound,xalloc<ref_sound> >::allocate
PUBLIC	?allocate@?$_STLP_alloc_proxy@PAUref_sound@@U1@V?$xalloc@Uref_sound@@@@@priv@stlp_std@@QAEPAUref_sound@@IAAI@Z ; stlp_std::priv::_STLP_alloc_proxy<ref_sound *,ref_sound,xalloc<ref_sound> >::allocate
PUBLIC	?_Answer@?$_BothPtrType@PBUref_sound@@PAU1@@stlp_std@@SA?AU__true_type@2@XZ ; stlp_std::_BothPtrType<ref_sound const *,ref_sound *>::_Answer
PUBLIC	??$_UseTrivialUCopy@Uref_sound@@U1@@stlp_std@@YA?AU?$_TrivialUCopy@Uref_sound@@U1@@0@PAUref_sound@@0@Z ; stlp_std::_UseTrivialUCopy<ref_sound,ref_sound>
PUBLIC	?_Answer@?$_TrivialUCopy@Uref_sound@@U1@@stlp_std@@SA?AU__false_type@2@XZ ; stlp_std::_TrivialUCopy<ref_sound,ref_sound>::_Answer
PUBLIC	??$__ucopy_aux@PBUref_sound@@PAU1@@priv@stlp_std@@YAPAUref_sound@@PBU2@0PAU2@ABU__true_type@1@@Z ; stlp_std::priv::__ucopy_aux<ref_sound const *,ref_sound *>
PUBLIC	??$uninitialized_copy@PBUref_sound@@PAU1@@stlp_std@@YAPAUref_sound@@PBU1@0PAU1@@Z ; stlp_std::uninitialized_copy<ref_sound const *,ref_sound *>
PUBLIC	??$_M_allocate_and_copy@PBUref_sound@@@?$_Impl_vector@Uref_sound@@V?$xalloc@Uref_sound@@@@@priv@stlp_std@@AAEPAUref_sound@@AAIPBU3@1@Z ; stlp_std::priv::_Impl_vector<ref_sound,xalloc<ref_sound> >::_M_allocate_and_copy<ref_sound const *>
PUBLIC	??4ref_sound@@QAEAAU0@ABU0@@Z			; ref_sound::operator=
PUBLIC	??$__copy@PBUref_sound@@PAU1@H@priv@stlp_std@@YAPAUref_sound@@PBU2@0PAU2@ABUrandom_access_iterator_tag@1@PAH@Z ; stlp_std::priv::__copy<ref_sound const *,ref_sound *,int>
PUBLIC	??$__copy_ptrs@PBUref_sound@@PAU1@@priv@stlp_std@@YAPAUref_sound@@PBU2@0PAU2@ABU__false_type@1@@Z ; stlp_std::priv::__copy_ptrs<ref_sound const *,ref_sound *>
PUBLIC	??1ref_sound@@QAE@XZ				; ref_sound::~ref_sound
PUBLIC	??_Gref_sound@@QAEPAXI@Z			; ref_sound::`scalar deleting destructor'
PUBLIC	??$__destroy_aux@Uref_sound@@@stlp_std@@YAXPAUref_sound@@ABU__false_type@0@@Z ; stlp_std::__destroy_aux<ref_sound>
PUBLIC	??$__destroy_range_aux@PAUref_sound@@U1@@stlp_std@@YAXPAUref_sound@@00ABU__false_type@0@@Z ; stlp_std::__destroy_range_aux<ref_sound *,ref_sound>
PUBLIC	??$__destroy_range@PAUref_sound@@U1@@stlp_std@@YAXPAUref_sound@@00@Z ; stlp_std::__destroy_range<ref_sound *,ref_sound>
PUBLIC	??$_Destroy_Range@PAUref_sound@@@stlp_std@@YAXPAUref_sound@@0@Z ; stlp_std::_Destroy_Range<ref_sound *>
PUBLIC	??0ref_sound@@QAE@ABU0@@Z			; ref_sound::ref_sound
PUBLIC	??$_Param_Construct@Uref_sound@@U1@@stlp_std@@YAXPAUref_sound@@ABU1@@Z ; stlp_std::_Param_Construct<ref_sound,ref_sound>
PUBLIC	??$__ucopy@PBUref_sound@@PAU1@H@priv@stlp_std@@YAPAUref_sound@@PBU2@0PAU2@ABUrandom_access_iterator_tag@1@PAH@Z ; stlp_std::priv::__ucopy<ref_sound const *,ref_sound *,int>
PUBLIC	??$__ucopy_ptrs@PBUref_sound@@PAU1@@priv@stlp_std@@YAPAUref_sound@@PBU2@0PAU2@ABU__false_type@1@@Z ; stlp_std::priv::__ucopy_ptrs<ref_sound const *,ref_sound *>
PUBLIC	??4?$_Impl_vector@Uref_sound@@V?$xalloc@Uref_sound@@@@@priv@stlp_std@@QAEAAV012@ABV012@@Z ; stlp_std::priv::_Impl_vector<ref_sound,xalloc<ref_sound> >::operator=
PUBLIC	??4?$vector@Uref_sound@@V?$xalloc@Uref_sound@@@@@stlp_std@@QAEAAV01@ABV01@@Z ; stlp_std::vector<ref_sound,xalloc<ref_sound> >::operator=
PUBLIC	??4?$xr_vector@Uref_sound@@V?$xalloc@Uref_sound@@@@@@QAEAAV0@ABV0@@Z ; xr_vector<ref_sound,xalloc<ref_sound> >::operator=
PUBLIC	?size@?$_Impl_vector@U_esound_delegate@IGame_Level@@V?$xalloc@U_esound_delegate@IGame_Level@@@@@priv@stlp_std@@QBEIXZ ; stlp_std::priv::_Impl_vector<IGame_Level::_esound_delegate,xalloc<IGame_Level::_esound_delegate> >::size
PUBLIC	?capacity@?$_Impl_vector@U_esound_delegate@IGame_Level@@V?$xalloc@U_esound_delegate@IGame_Level@@@@@priv@stlp_std@@QBEIXZ ; stlp_std::priv::_Impl_vector<IGame_Level::_esound_delegate,xalloc<IGame_Level::_esound_delegate> >::capacity
PUBLIC	??$xr_free@U_esound_delegate@IGame_Level@@@@YAXAAPAU_esound_delegate@IGame_Level@@@Z ; xr_free<IGame_Level::_esound_delegate>
PUBLIC	?deallocate@?$xalloc@U_esound_delegate@IGame_Level@@@@QBEXPAU_esound_delegate@IGame_Level@@I@Z ; xalloc<IGame_Level::_esound_delegate>::deallocate
PUBLIC	?end@?$_Impl_vector@U_esound_delegate@IGame_Level@@V?$xalloc@U_esound_delegate@IGame_Level@@@@@priv@stlp_std@@QAEPAU_esound_delegate@IGame_Level@@XZ ; stlp_std::priv::_Impl_vector<IGame_Level::_esound_delegate,xalloc<IGame_Level::_esound_delegate> >::end
PUBLIC	?rbegin@?$_Impl_vector@U_esound_delegate@IGame_Level@@V?$xalloc@U_esound_delegate@IGame_Level@@@@@priv@stlp_std@@QAE?AV?$reverse_iterator@PAU_esound_delegate@IGame_Level@@@3@XZ ; stlp_std::priv::_Impl_vector<IGame_Level::_esound_delegate,xalloc<IGame_Level::_esound_delegate> >::rbegin
PUBLIC	?begin@?$_Impl_vector@U_esound_delegate@IGame_Level@@V?$xalloc@U_esound_delegate@IGame_Level@@@@@priv@stlp_std@@QAEPAU_esound_delegate@IGame_Level@@XZ ; stlp_std::priv::_Impl_vector<IGame_Level::_esound_delegate,xalloc<IGame_Level::_esound_delegate> >::begin
PUBLIC	??0?$reverse_iterator@PAU_esound_delegate@IGame_Level@@@stlp_std@@QAE@PAU_esound_delegate@IGame_Level@@@Z ; stlp_std::reverse_iterator<IGame_Level::_esound_delegate *>::reverse_iterator<IGame_Level::_esound_delegate *>
PUBLIC	?rend@?$_Impl_vector@U_esound_delegate@IGame_Level@@V?$xalloc@U_esound_delegate@IGame_Level@@@@@priv@stlp_std@@QAE?AV?$reverse_iterator@PAU_esound_delegate@IGame_Level@@@3@XZ ; stlp_std::priv::_Impl_vector<IGame_Level::_esound_delegate,xalloc<IGame_Level::_esound_delegate> >::rend
PUBLIC	??0?$reverse_iterator@PAU_esound_delegate@IGame_Level@@@stlp_std@@QAE@ABV01@@Z ; stlp_std::reverse_iterator<IGame_Level::_esound_delegate *>::reverse_iterator<IGame_Level::_esound_delegate *>
PUBLIC	??D?$reverse_iterator@PAU_esound_delegate@IGame_Level@@@stlp_std@@QBEAAU_esound_delegate@IGame_Level@@XZ ; stlp_std::reverse_iterator<IGame_Level::_esound_delegate *>::operator*
PUBLIC	??E?$reverse_iterator@PAU_esound_delegate@IGame_Level@@@stlp_std@@QAEAAV01@XZ ; stlp_std::reverse_iterator<IGame_Level::_esound_delegate *>::operator++
PUBLIC	?base@?$reverse_iterator@PAU_esound_delegate@IGame_Level@@@stlp_std@@QBEPAU_esound_delegate@IGame_Level@@XZ ; stlp_std::reverse_iterator<IGame_Level::_esound_delegate *>::base
PUBLIC	??$?8PAU_esound_delegate@IGame_Level@@@stlp_std@@YA_NABV?$reverse_iterator@PAU_esound_delegate@IGame_Level@@@0@0@Z ; stlp_std::operator==<IGame_Level::_esound_delegate *>
PUBLIC	??$?9PAU_esound_delegate@IGame_Level@@@stlp_std@@YA_NABV?$reverse_iterator@PAU_esound_delegate@IGame_Level@@@0@0@Z ; stlp_std::operator!=<IGame_Level::_esound_delegate *>
PUBLIC	??$__destroy_range_aux@V?$reverse_iterator@PAU_esound_delegate@IGame_Level@@@stlp_std@@U_esound_delegate@IGame_Level@@@stlp_std@@YAXV?$reverse_iterator@PAU_esound_delegate@IGame_Level@@@0@0PAU_esound_delegate@IGame_Level@@ABU__false_type@0@@Z ; stlp_std::__destroy_range_aux<stlp_std::reverse_iterator<IGame_Level::_esound_delegate *>,IGame_Level::_esound_delegate>
PUBLIC	??$__destroy_range@V?$reverse_iterator@PAU_esound_delegate@IGame_Level@@@stlp_std@@U_esound_delegate@IGame_Level@@@stlp_std@@YAXV?$reverse_iterator@PAU_esound_delegate@IGame_Level@@@0@0PAU_esound_delegate@IGame_Level@@@Z ; stlp_std::__destroy_range<stlp_std::reverse_iterator<IGame_Level::_esound_delegate *>,IGame_Level::_esound_delegate>
PUBLIC	??$_Destroy_Range@V?$reverse_iterator@PAU_esound_delegate@IGame_Level@@@stlp_std@@@stlp_std@@YAXV?$reverse_iterator@PAU_esound_delegate@IGame_Level@@@0@0@Z ; stlp_std::_Destroy_Range<stlp_std::reverse_iterator<IGame_Level::_esound_delegate *> >
PUBLIC	?_M_clear@?$_Impl_vector@U_esound_delegate@IGame_Level@@V?$xalloc@U_esound_delegate@IGame_Level@@@@@priv@stlp_std@@AAEXXZ ; stlp_std::priv::_Impl_vector<IGame_Level::_esound_delegate,xalloc<IGame_Level::_esound_delegate> >::_M_clear
PUBLIC	??$xr_alloc@U_esound_delegate@IGame_Level@@@@YAPAU_esound_delegate@IGame_Level@@I@Z ; xr_alloc<IGame_Level::_esound_delegate>
PUBLIC	?allocate@?$xalloc@U_esound_delegate@IGame_Level@@@@QBEPAU_esound_delegate@IGame_Level@@IPBX@Z ; xalloc<IGame_Level::_esound_delegate>::allocate
PUBLIC	?allocate@?$_STLP_alloc_proxy@PAU_esound_delegate@IGame_Level@@U12@V?$xalloc@U_esound_delegate@IGame_Level@@@@@priv@stlp_std@@QAEPAU_esound_delegate@IGame_Level@@I@Z ; stlp_std::priv::_STLP_alloc_proxy<IGame_Level::_esound_delegate *,IGame_Level::_esound_delegate,xalloc<IGame_Level::_esound_delegate> >::allocate
PUBLIC	?allocate@?$_STLP_alloc_proxy@PAU_esound_delegate@IGame_Level@@U12@V?$xalloc@U_esound_delegate@IGame_Level@@@@@priv@stlp_std@@AAEPAU_esound_delegate@IGame_Level@@IAAIABU__false_type@3@@Z ; stlp_std::priv::_STLP_alloc_proxy<IGame_Level::_esound_delegate *,IGame_Level::_esound_delegate,xalloc<IGame_Level::_esound_delegate> >::allocate
PUBLIC	?allocate@?$_STLP_alloc_proxy@PAU_esound_delegate@IGame_Level@@U12@V?$xalloc@U_esound_delegate@IGame_Level@@@@@priv@stlp_std@@QAEPAU_esound_delegate@IGame_Level@@IAAI@Z ; stlp_std::priv::_STLP_alloc_proxy<IGame_Level::_esound_delegate *,IGame_Level::_esound_delegate,xalloc<IGame_Level::_esound_delegate> >::allocate
PUBLIC	?_Answer@?$_BothPtrType@PBU_esound_delegate@IGame_Level@@PAU12@@stlp_std@@SA?AU__true_type@2@XZ ; stlp_std::_BothPtrType<IGame_Level::_esound_delegate const *,IGame_Level::_esound_delegate *>::_Answer
PUBLIC	??$_UseTrivialUCopy@U_esound_delegate@IGame_Level@@U12@@stlp_std@@YA?AU?$_TrivialUCopy@U_esound_delegate@IGame_Level@@U12@@0@PAU_esound_delegate@IGame_Level@@0@Z ; stlp_std::_UseTrivialUCopy<IGame_Level::_esound_delegate,IGame_Level::_esound_delegate>
PUBLIC	?_Answer@?$_TrivialUCopy@U_esound_delegate@IGame_Level@@U12@@stlp_std@@SA?AU__false_type@2@XZ ; stlp_std::_TrivialUCopy<IGame_Level::_esound_delegate,IGame_Level::_esound_delegate>::_Answer
PUBLIC	??$__ucopy_aux@PBU_esound_delegate@IGame_Level@@PAU12@@priv@stlp_std@@YAPAU_esound_delegate@IGame_Level@@PBU23@0PAU23@ABU__true_type@1@@Z ; stlp_std::priv::__ucopy_aux<IGame_Level::_esound_delegate const *,IGame_Level::_esound_delegate *>
PUBLIC	??$uninitialized_copy@PBU_esound_delegate@IGame_Level@@PAU12@@stlp_std@@YAPAU_esound_delegate@IGame_Level@@PBU12@0PAU12@@Z ; stlp_std::uninitialized_copy<IGame_Level::_esound_delegate const *,IGame_Level::_esound_delegate *>
PUBLIC	??$_M_allocate_and_copy@PBU_esound_delegate@IGame_Level@@@?$_Impl_vector@U_esound_delegate@IGame_Level@@V?$xalloc@U_esound_delegate@IGame_Level@@@@@priv@stlp_std@@AAEPAU_esound_delegate@IGame_Level@@AAIPBU34@1@Z ; stlp_std::priv::_Impl_vector<IGame_Level::_esound_delegate,xalloc<IGame_Level::_esound_delegate> >::_M_allocate_and_copy<IGame_Level::_esound_delegate const *>
PUBLIC	?_set@?$resptr_base@Vref_sound_data@@@@QAEXPAVref_sound_data@@@Z ; resptr_base<ref_sound_data>::_set
PUBLIC	?_get@?$resptr_base@Vref_sound_data@@@@QBEPAVref_sound_data@@XZ ; resptr_base<ref_sound_data>::_get
PUBLIC	?_set@?$resptr_base@Vref_sound_data@@@@QAEXABV1@@Z ; resptr_base<ref_sound_data>::_set
PUBLIC	??4?$resptr_core@Vref_sound_data@@V?$resptr_base@Vref_sound_data@@@@@@QAEAAV0@ABV0@@Z ; resptr_core<ref_sound_data,resptr_base<ref_sound_data> >::operator=
PUBLIC	??4_esound_delegate@IGame_Level@@QAEAAU01@ABU01@@Z ; IGame_Level::_esound_delegate::operator=
PUBLIC	??$__copy@PBU_esound_delegate@IGame_Level@@PAU12@H@priv@stlp_std@@YAPAU_esound_delegate@IGame_Level@@PBU23@0PAU23@ABUrandom_access_iterator_tag@1@PAH@Z ; stlp_std::priv::__copy<IGame_Level::_esound_delegate const *,IGame_Level::_esound_delegate *,int>
PUBLIC	??$__copy_ptrs@PBU_esound_delegate@IGame_Level@@PAU12@@priv@stlp_std@@YAPAU_esound_delegate@IGame_Level@@PBU23@0PAU23@ABU__false_type@1@@Z ; stlp_std::priv::__copy_ptrs<IGame_Level::_esound_delegate const *,IGame_Level::_esound_delegate *>
PUBLIC	??1_esound_delegate@IGame_Level@@QAE@XZ		; IGame_Level::_esound_delegate::~_esound_delegate
PUBLIC	??_G_esound_delegate@IGame_Level@@QAEPAXI@Z	; IGame_Level::_esound_delegate::`scalar deleting destructor'
PUBLIC	??$__destroy_aux@U_esound_delegate@IGame_Level@@@stlp_std@@YAXPAU_esound_delegate@IGame_Level@@ABU__false_type@0@@Z ; stlp_std::__destroy_aux<IGame_Level::_esound_delegate>
PUBLIC	??$__destroy_range_aux@PAU_esound_delegate@IGame_Level@@U12@@stlp_std@@YAXPAU_esound_delegate@IGame_Level@@00ABU__false_type@0@@Z ; stlp_std::__destroy_range_aux<IGame_Level::_esound_delegate *,IGame_Level::_esound_delegate>
PUBLIC	??$__destroy_range@PAU_esound_delegate@IGame_Level@@U12@@stlp_std@@YAXPAU_esound_delegate@IGame_Level@@00@Z ; stlp_std::__destroy_range<IGame_Level::_esound_delegate *,IGame_Level::_esound_delegate>
PUBLIC	??$_Destroy_Range@PAU_esound_delegate@IGame_Level@@@stlp_std@@YAXPAU_esound_delegate@IGame_Level@@0@Z ; stlp_std::_Destroy_Range<IGame_Level::_esound_delegate *>
PUBLIC	?_inc@?$resptr_base@Vref_sound_data@@@@IAEXXZ	; resptr_base<ref_sound_data>::_inc
PUBLIC	??0?$resptr_core@Vref_sound_data@@V?$resptr_base@Vref_sound_data@@@@@@QAE@ABV0@@Z ; resptr_core<ref_sound_data,resptr_base<ref_sound_data> >::resptr_core<ref_sound_data,resptr_base<ref_sound_data> >
PUBLIC	??R?$xr_special_free@$00Vref_sound_data@@@@QAEXAAPAVref_sound_data@@@Z ; xr_special_free<1,ref_sound_data>::operator()
PUBLIC	??$xr_delete@Vref_sound_data@@@@YAXAAPAVref_sound_data@@@Z ; xr_delete<ref_sound_data>
PUBLIC	?_dec@?$resptr_base@Vref_sound_data@@@@IAEXXZ	; resptr_base<ref_sound_data>::_dec
PUBLIC	??1?$resptr_core@Vref_sound_data@@V?$resptr_base@Vref_sound_data@@@@@@QAE@XZ ; resptr_core<ref_sound_data,resptr_base<ref_sound_data> >::~resptr_core<ref_sound_data,resptr_base<ref_sound_data> >
PUBLIC	??0_esound_delegate@IGame_Level@@QAE@ABU01@@Z	; IGame_Level::_esound_delegate::_esound_delegate
PUBLIC	??$_Param_Construct@U_esound_delegate@IGame_Level@@U12@@stlp_std@@YAXPAU_esound_delegate@IGame_Level@@ABU12@@Z ; stlp_std::_Param_Construct<IGame_Level::_esound_delegate,IGame_Level::_esound_delegate>
PUBLIC	??$__ucopy@PBU_esound_delegate@IGame_Level@@PAU12@H@priv@stlp_std@@YAPAU_esound_delegate@IGame_Level@@PBU23@0PAU23@ABUrandom_access_iterator_tag@1@PAH@Z ; stlp_std::priv::__ucopy<IGame_Level::_esound_delegate const *,IGame_Level::_esound_delegate *,int>
PUBLIC	??$__ucopy_ptrs@PBU_esound_delegate@IGame_Level@@PAU12@@priv@stlp_std@@YAPAU_esound_delegate@IGame_Level@@PBU23@0PAU23@ABU__false_type@1@@Z ; stlp_std::priv::__ucopy_ptrs<IGame_Level::_esound_delegate const *,IGame_Level::_esound_delegate *>
PUBLIC	??4?$_Impl_vector@U_esound_delegate@IGame_Level@@V?$xalloc@U_esound_delegate@IGame_Level@@@@@priv@stlp_std@@QAEAAV012@ABV012@@Z ; stlp_std::priv::_Impl_vector<IGame_Level::_esound_delegate,xalloc<IGame_Level::_esound_delegate> >::operator=
PUBLIC	??4?$vector@U_esound_delegate@IGame_Level@@V?$xalloc@U_esound_delegate@IGame_Level@@@@@stlp_std@@QAEAAV01@ABV01@@Z ; stlp_std::vector<IGame_Level::_esound_delegate,xalloc<IGame_Level::_esound_delegate> >::operator=
PUBLIC	??4?$xr_vector@U_esound_delegate@IGame_Level@@V?$xalloc@U_esound_delegate@IGame_Level@@@@@@QAEAAV0@ABV0@@Z ; xr_vector<IGame_Level::_esound_delegate,xalloc<IGame_Level::_esound_delegate> >::operator=
PUBLIC	??0?$reverse_iterator@U?$_Rb_tree_iterator@U?$pair@$$CBHI@stlp_std@@U?$_MapTraitsT@U?$pair@$$CBHI@stlp_std@@@priv@2@@priv@stlp_std@@@stlp_std@@QAE@U?$_Rb_tree_iterator@U?$pair@$$CBHI@stlp_std@@U?$_MapTraitsT@U?$pair@$$CBHI@stlp_std@@@priv@2@@priv@1@@Z ; stlp_std::reverse_iterator<stlp_std::priv::_Rb_tree_iterator<stlp_std::pair<int const ,unsigned int>,stlp_std::priv::_MapTraitsT<stlp_std::pair<int const ,unsigned int> > > >::reverse_iterator<stlp_std::priv::_Rb_tree_iterator<stlp_std::pair<int const ,unsigned int>,stlp_std::priv::_MapTraitsT<stlp_std::pair<int const ,unsigned int> > > >
PUBLIC	?rbegin@?$_Rb_tree@HU?$less@H@stlp_std@@U?$pair@$$CBHI@2@U?$_Select1st@U?$pair@$$CBHI@stlp_std@@@priv@2@U?$_MapTraitsT@U?$pair@$$CBHI@stlp_std@@@52@V?$xalloc@U?$pair@HI@stlp_std@@@@@priv@stlp_std@@QAE?AV?$reverse_iterator@U?$_Rb_tree_iterator@U?$pair@$$CBHI@stlp_std@@U?$_MapTraitsT@U?$pair@$$CBHI@stlp_std@@@priv@2@@priv@stlp_std@@@3@XZ ; stlp_std::priv::_Rb_tree<int,stlp_std::less<int>,stlp_std::pair<int const ,unsigned int>,stlp_std::priv::_Select1st<stlp_std::pair<int const ,unsigned int> >,stlp_std::priv::_MapTraitsT<stlp_std::pair<int const ,unsigned int> >,xalloc<stlp_std::pair<int,unsigned int> > >::rbegin
PUBLIC	?rbegin@?$map@HIU?$less@H@stlp_std@@V?$xalloc@U?$pair@HI@stlp_std@@@@@stlp_std@@QAE?AV?$reverse_iterator@U?$_Rb_tree_iterator@U?$pair@$$CBHI@stlp_std@@U?$_MapTraitsT@U?$pair@$$CBHI@stlp_std@@@priv@2@@priv@stlp_std@@@2@XZ ; stlp_std::map<int,unsigned int,stlp_std::less<int>,xalloc<stlp_std::pair<int,unsigned int> > >::rbegin
PUBLIC	??0?$_Rb_tree_iterator@U?$pair@$$CBHI@stlp_std@@U?$_MapTraitsT@U?$pair@$$CBHI@stlp_std@@@priv@2@@priv@stlp_std@@QAE@ABU012@@Z ; stlp_std::priv::_Rb_tree_iterator<stlp_std::pair<int const ,unsigned int>,stlp_std::priv::_MapTraitsT<stlp_std::pair<int const ,unsigned int> > >::_Rb_tree_iterator<stlp_std::pair<int const ,unsigned int>,stlp_std::priv::_MapTraitsT<stlp_std::pair<int const ,unsigned int> > >
PUBLIC	?_M_decrement@?$_Rb_global@_N@priv@stlp_std@@SAPAU_Rb_tree_node_base@23@PAU423@@Z ; stlp_std::priv::_Rb_global<bool>::_M_decrement
PUBLIC	??F?$_Rb_tree_iterator@U?$pair@$$CBHI@stlp_std@@U?$_MapTraitsT@U?$pair@$$CBHI@stlp_std@@@priv@2@@priv@stlp_std@@QAEAAU012@XZ ; stlp_std::priv::_Rb_tree_iterator<stlp_std::pair<int const ,unsigned int>,stlp_std::priv::_MapTraitsT<stlp_std::pair<int const ,unsigned int> > >::operator--
PUBLIC	??D?$reverse_iterator@U?$_Rb_tree_iterator@U?$pair@$$CBHI@stlp_std@@U?$_MapTraitsT@U?$pair@$$CBHI@stlp_std@@@priv@2@@priv@stlp_std@@@stlp_std@@QBEAAU?$pair@$$CBHI@1@XZ ; stlp_std::reverse_iterator<stlp_std::priv::_Rb_tree_iterator<stlp_std::pair<int const ,unsigned int>,stlp_std::priv::_MapTraitsT<stlp_std::pair<int const ,unsigned int> > > >::operator*
PUBLIC	??C?$reverse_iterator@U?$_Rb_tree_iterator@U?$pair@$$CBHI@stlp_std@@U?$_MapTraitsT@U?$pair@$$CBHI@stlp_std@@@priv@2@@priv@stlp_std@@@stlp_std@@QBEPAU?$pair@$$CBHI@1@XZ ; stlp_std::reverse_iterator<stlp_std::priv::_Rb_tree_iterator<stlp_std::pair<int const ,unsigned int>,stlp_std::priv::_MapTraitsT<stlp_std::pair<int const ,unsigned int> > > >::operator->
PUBLIC	?end@?$_Rb_tree@HU?$less@H@stlp_std@@U?$pair@$$CBHI@2@U?$_Select1st@U?$pair@$$CBHI@stlp_std@@@priv@2@U?$_MapTraitsT@U?$pair@$$CBHI@stlp_std@@@52@V?$xalloc@U?$pair@HI@stlp_std@@@@@priv@stlp_std@@QAE?AU?$_Rb_tree_iterator@U?$pair@$$CBHI@stlp_std@@U?$_MapTraitsT@U?$pair@$$CBHI@stlp_std@@@priv@2@@23@XZ ; stlp_std::priv::_Rb_tree<int,stlp_std::less<int>,stlp_std::pair<int const ,unsigned int>,stlp_std::priv::_Select1st<stlp_std::pair<int const ,unsigned int> >,stlp_std::priv::_MapTraitsT<stlp_std::pair<int const ,unsigned int> >,xalloc<stlp_std::pair<int,unsigned int> > >::end
PUBLIC	?end@?$map@HIU?$less@H@stlp_std@@V?$xalloc@U?$pair@HI@stlp_std@@@@@stlp_std@@QAE?AU?$_Rb_tree_iterator@U?$pair@$$CBHI@stlp_std@@U?$_MapTraitsT@U?$pair@$$CBHI@stlp_std@@@priv@2@@priv@2@XZ ; stlp_std::map<int,unsigned int,stlp_std::less<int>,xalloc<stlp_std::pair<int,unsigned int> > >::end
PUBLIC	??D?$_Rb_tree_iterator@U?$pair@$$CBHI@stlp_std@@U?$_MapTraitsT@U?$pair@$$CBHI@stlp_std@@@priv@2@@priv@stlp_std@@QBEAAU?$pair@$$CBHI@2@XZ ; stlp_std::priv::_Rb_tree_iterator<stlp_std::pair<int const ,unsigned int>,stlp_std::priv::_MapTraitsT<stlp_std::pair<int const ,unsigned int> > >::operator*
PUBLIC	??C?$_Rb_tree_iterator@U?$pair@$$CBHI@stlp_std@@U?$_MapTraitsT@U?$pair@$$CBHI@stlp_std@@@priv@2@@priv@stlp_std@@QBEPAU?$pair@$$CBHI@2@XZ ; stlp_std::priv::_Rb_tree_iterator<stlp_std::pair<int const ,unsigned int>,stlp_std::priv::_MapTraitsT<stlp_std::pair<int const ,unsigned int> > >::operator->
PUBLIC	??9?$_Rb_tree_iterator@U?$pair@$$CBHI@stlp_std@@U?$_MapTraitsT@U?$pair@$$CBHI@stlp_std@@@priv@2@@priv@stlp_std@@QBE_NU?$_Rb_tree_iterator@U?$pair@$$CBHI@stlp_std@@U?$_ConstMapTraitsT@U?$pair@$$CBHI@stlp_std@@@priv@2@@12@@Z ; stlp_std::priv::_Rb_tree_iterator<stlp_std::pair<int const ,unsigned int>,stlp_std::priv::_MapTraitsT<stlp_std::pair<int const ,unsigned int> > >::operator!=
PUBLIC	??0?$_Rb_tree_iterator@U?$pair@$$CBHI@stlp_std@@U?$_MapTraitsT@U?$pair@$$CBHI@stlp_std@@@priv@2@@priv@stlp_std@@QAE@PAU_Rb_tree_node_base@12@@Z ; stlp_std::priv::_Rb_tree_iterator<stlp_std::pair<int const ,unsigned int>,stlp_std::priv::_MapTraitsT<stlp_std::pair<int const ,unsigned int> > >::_Rb_tree_iterator<stlp_std::pair<int const ,unsigned int>,stlp_std::priv::_MapTraitsT<stlp_std::pair<int const ,unsigned int> > >
PUBLIC	??R?$less@H@stlp_std@@QBE_NABH0@Z		; stlp_std::less<int>::operator()
PUBLIC	??R?$_Select1st@U?$pair@$$CBHI@stlp_std@@@priv@stlp_std@@QBEABHABU?$pair@$$CBHI@2@@Z ; stlp_std::priv::_Select1st<stlp_std::pair<int const ,unsigned int> >::operator()
PUBLIC	?_S_key@?$_Rb_tree@HU?$less@H@stlp_std@@U?$pair@$$CBHI@2@U?$_Select1st@U?$pair@$$CBHI@stlp_std@@@priv@2@U?$_MapTraitsT@U?$pair@$$CBHI@stlp_std@@@52@V?$xalloc@U?$pair@HI@stlp_std@@@@@priv@stlp_std@@KAABHPAU_Rb_tree_node_base@23@@Z ; stlp_std::priv::_Rb_tree<int,stlp_std::less<int>,stlp_std::pair<int const ,unsigned int>,stlp_std::priv::_Select1st<stlp_std::pair<int const ,unsigned int> >,stlp_std::priv::_MapTraitsT<stlp_std::pair<int const ,unsigned int> >,xalloc<stlp_std::pair<int,unsigned int> > >::_S_key
PUBLIC	??$_M_find@H@?$_Rb_tree@HU?$less@H@stlp_std@@U?$pair@$$CBHI@2@U?$_Select1st@U?$pair@$$CBHI@stlp_std@@@priv@2@U?$_MapTraitsT@U?$pair@$$CBHI@stlp_std@@@52@V?$xalloc@U?$pair@HI@stlp_std@@@@@priv@stlp_std@@ABEPAU_Rb_tree_node_base@12@ABH@Z ; stlp_std::priv::_Rb_tree<int,stlp_std::less<int>,stlp_std::pair<int const ,unsigned int>,stlp_std::priv::_Select1st<stlp_std::pair<int const ,unsigned int> >,stlp_std::priv::_MapTraitsT<stlp_std::pair<int const ,unsigned int> >,xalloc<stlp_std::pair<int,unsigned int> > >::_M_find<int>
PUBLIC	??$find@H@?$_Rb_tree@HU?$less@H@stlp_std@@U?$pair@$$CBHI@2@U?$_Select1st@U?$pair@$$CBHI@stlp_std@@@priv@2@U?$_MapTraitsT@U?$pair@$$CBHI@stlp_std@@@52@V?$xalloc@U?$pair@HI@stlp_std@@@@@priv@stlp_std@@QAE?AU?$_Rb_tree_iterator@U?$pair@$$CBHI@stlp_std@@U?$_MapTraitsT@U?$pair@$$CBHI@stlp_std@@@priv@2@@12@ABH@Z ; stlp_std::priv::_Rb_tree<int,stlp_std::less<int>,stlp_std::pair<int const ,unsigned int>,stlp_std::priv::_Select1st<stlp_std::pair<int const ,unsigned int> >,stlp_std::priv::_MapTraitsT<stlp_std::pair<int const ,unsigned int> >,xalloc<stlp_std::pair<int,unsigned int> > >::find<int>
PUBLIC	??$find@H@?$map@HIU?$less@H@stlp_std@@V?$xalloc@U?$pair@HI@stlp_std@@@@@stlp_std@@QAE?AU?$_Rb_tree_iterator@U?$pair@$$CBHI@stlp_std@@U?$_MapTraitsT@U?$pair@$$CBHI@stlp_std@@@priv@2@@priv@1@ABH@Z ; stlp_std::map<int,unsigned int,stlp_std::less<int>,xalloc<stlp_std::pair<int,unsigned int> > >::find<int>
PUBLIC	??0_Rb_tree_base_iterator@priv@stlp_std@@QAE@PAU_Rb_tree_node_base@12@@Z ; stlp_std::priv::_Rb_tree_base_iterator::_Rb_tree_base_iterator
PUBLIC	??0?$_Rb_tree_iterator@U?$pair@$$CBHI@stlp_std@@U?$_ConstMapTraitsT@U?$pair@$$CBHI@stlp_std@@@priv@2@@priv@stlp_std@@QAE@ABU?$_Rb_tree_iterator@U?$pair@$$CBHI@stlp_std@@U?$_MapTraitsT@U?$pair@$$CBHI@stlp_std@@@priv@2@@12@@Z ; stlp_std::priv::_Rb_tree_iterator<stlp_std::pair<int const ,unsigned int>,stlp_std::priv::_ConstMapTraitsT<stlp_std::pair<int const ,unsigned int> > >::_Rb_tree_iterator<stlp_std::pair<int const ,unsigned int>,stlp_std::priv::_ConstMapTraitsT<stlp_std::pair<int const ,unsigned int> > >
PUBLIC	?xr_strcmp@@YAHPBD0@Z				; xr_strcmp
PUBLIC	?_M_throw_length_error@?$_Vector_base@Vshared_str@@V?$xalloc@Vshared_str@@@@@priv@stlp_std@@IBEXXZ ; stlp_std::priv::_Vector_base<shared_str,xalloc<shared_str> >::_M_throw_length_error
PUBLIC	?max_size@?$xalloc@Vshared_str@@@@QBEIXZ	; xalloc<shared_str>::max_size
PUBLIC	?max_size@?$_Impl_vector@Vshared_str@@V?$xalloc@Vshared_str@@@@@priv@stlp_std@@QBEIXZ ; stlp_std::priv::_Impl_vector<shared_str,xalloc<shared_str> >::max_size
PUBLIC	?_Answer@?$_BothPtrType@PAVshared_str@@PAV1@@stlp_std@@SA?AU__true_type@2@XZ ; stlp_std::_BothPtrType<shared_str *,shared_str *>::_Answer
PUBLIC	??$__ucopy_aux@PAVshared_str@@PAV1@@priv@stlp_std@@YAPAVshared_str@@PAV2@00ABU__true_type@1@@Z ; stlp_std::priv::__ucopy_aux<shared_str *,shared_str *>
PUBLIC	??$uninitialized_copy@PAVshared_str@@PAV1@@stlp_std@@YAPAVshared_str@@PAV1@00@Z ; stlp_std::uninitialized_copy<shared_str *,shared_str *>
PUBLIC	??$_M_allocate_and_copy@PAVshared_str@@@?$_Impl_vector@Vshared_str@@V?$xalloc@Vshared_str@@@@@priv@stlp_std@@AAEPAVshared_str@@AAIPAV3@1@Z ; stlp_std::priv::_Impl_vector<shared_str,xalloc<shared_str> >::_M_allocate_and_copy<shared_str *>
PUBLIC	?reserve@?$_Impl_vector@Vshared_str@@V?$xalloc@Vshared_str@@@@@priv@stlp_std@@QAEXI@Z ; stlp_std::priv::_Impl_vector<shared_str,xalloc<shared_str> >::reserve
PUBLIC	?reserve@?$vector@Vshared_str@@V?$xalloc@Vshared_str@@@@@stlp_std@@QAEXI@Z ; stlp_std::vector<shared_str,xalloc<shared_str> >::reserve
PUBLIC	?begin@?$vector@Vshared_str@@V?$xalloc@Vshared_str@@@@@stlp_std@@QAEPAVshared_str@@XZ ; stlp_std::vector<shared_str,xalloc<shared_str> >::begin
PUBLIC	?end@?$vector@Vshared_str@@V?$xalloc@Vshared_str@@@@@stlp_std@@QAEPAVshared_str@@XZ ; stlp_std::vector<shared_str,xalloc<shared_str> >::end
PUBLIC	??$__copy@PAVshared_str@@PAV1@H@priv@stlp_std@@YAPAVshared_str@@PAV2@00ABUrandom_access_iterator_tag@1@PAH@Z ; stlp_std::priv::__copy<shared_str *,shared_str *,int>
PUBLIC	??$__copy_ptrs@PAVshared_str@@PAV1@@priv@stlp_std@@YAPAVshared_str@@PAV2@00ABU__false_type@1@@Z ; stlp_std::priv::__copy_ptrs<shared_str *,shared_str *>
PUBLIC	?_M_erase@?$_Impl_vector@Vshared_str@@V?$xalloc@Vshared_str@@@@@priv@stlp_std@@AAEPAVshared_str@@PAV4@0ABU__false_type@3@@Z ; stlp_std::priv::_Impl_vector<shared_str,xalloc<shared_str> >::_M_erase
PUBLIC	?erase@?$_Impl_vector@Vshared_str@@V?$xalloc@Vshared_str@@@@@priv@stlp_std@@QAEPAVshared_str@@PAV4@0@Z ; stlp_std::priv::_Impl_vector<shared_str,xalloc<shared_str> >::erase
PUBLIC	?to_value_type_ptr@?$_CastTraits@Vshared_str@@V1@@priv@stlp_std@@SAPAVshared_str@@PAV4@@Z ; stlp_std::priv::_CastTraits<shared_str,shared_str>::to_value_type_ptr
PUBLIC	?to_storage_type_ptr@?$_CastTraits@Vshared_str@@V1@@priv@stlp_std@@SAPAVshared_str@@PAV4@@Z ; stlp_std::priv::_CastTraits<shared_str,shared_str>::to_storage_type_ptr
PUBLIC	?erase@?$vector@Vshared_str@@V?$xalloc@Vshared_str@@@@@stlp_std@@QAEPAVshared_str@@PAV3@0@Z ; stlp_std::vector<shared_str,xalloc<shared_str> >::erase
PUBLIC	?clear_not_free@?$xr_vector@Vshared_str@@V?$xalloc@Vshared_str@@@@@@QAEXXZ ; xr_vector<shared_str,xalloc<shared_str> >::clear_not_free
PUBLIC	??0?$FactoryPtr@VIApplicationRender@@@@QAE@ABV0@@Z ; FactoryPtr<IApplicationRender>::FactoryPtr<IApplicationRender>
PUBLIC	??0?$_Vector_base@UsLevelInfo@CApplication@@V?$xalloc@UsLevelInfo@CApplication@@@@@priv@stlp_std@@QAE@IABV?$xalloc@UsLevelInfo@CApplication@@@@@Z ; stlp_std::priv::_Vector_base<CApplication::sLevelInfo,xalloc<CApplication::sLevelInfo> >::_Vector_base<CApplication::sLevelInfo,xalloc<CApplication::sLevelInfo> >
PUBLIC	?get_allocator@?$_Impl_vector@UsLevelInfo@CApplication@@V?$xalloc@UsLevelInfo@CApplication@@@@@priv@stlp_std@@QBE?AV?$xalloc@UsLevelInfo@CApplication@@@@XZ ; stlp_std::priv::_Impl_vector<CApplication::sLevelInfo,xalloc<CApplication::sLevelInfo> >::get_allocator
PUBLIC	?begin@?$_Impl_vector@UsLevelInfo@CApplication@@V?$xalloc@UsLevelInfo@CApplication@@@@@priv@stlp_std@@QBEPBUsLevelInfo@CApplication@@XZ ; stlp_std::priv::_Impl_vector<CApplication::sLevelInfo,xalloc<CApplication::sLevelInfo> >::begin
PUBLIC	?end@?$_Impl_vector@UsLevelInfo@CApplication@@V?$xalloc@UsLevelInfo@CApplication@@@@@priv@stlp_std@@QBEPBUsLevelInfo@CApplication@@XZ ; stlp_std::priv::_Impl_vector<CApplication::sLevelInfo,xalloc<CApplication::sLevelInfo> >::end
PUBLIC	??0?$_Impl_vector@UsLevelInfo@CApplication@@V?$xalloc@UsLevelInfo@CApplication@@@@@priv@stlp_std@@QAE@ABV012@@Z ; stlp_std::priv::_Impl_vector<CApplication::sLevelInfo,xalloc<CApplication::sLevelInfo> >::_Impl_vector<CApplication::sLevelInfo,xalloc<CApplication::sLevelInfo> >
PUBLIC	??0?$vector@UsLevelInfo@CApplication@@V?$xalloc@UsLevelInfo@CApplication@@@@@stlp_std@@QAE@ABV01@@Z ; stlp_std::vector<CApplication::sLevelInfo,xalloc<CApplication::sLevelInfo> >::vector<CApplication::sLevelInfo,xalloc<CApplication::sLevelInfo> >
PUBLIC	??0?$xr_vector@UsLevelInfo@CApplication@@V?$xalloc@UsLevelInfo@CApplication@@@@@@QAE@ABV0@@Z ; xr_vector<CApplication::sLevelInfo,xalloc<CApplication::sLevelInfo> >::xr_vector<CApplication::sLevelInfo,xalloc<CApplication::sLevelInfo> >
PUBLIC	??1?$xr_map@HIU?$less@H@stlp_std@@V?$xalloc@U?$pair@HI@stlp_std@@@@@@QAE@XZ ; xr_map<int,unsigned int,stlp_std::less<int>,xalloc<stlp_std::pair<int,unsigned int> > >::~xr_map<int,unsigned int,stlp_std::less<int>,xalloc<stlp_std::pair<int,unsigned int> > >
PUBLIC	??$?0U?$_Rb_tree_node@U?$pair@$$CBHI@stlp_std@@@priv@stlp_std@@@?$xalloc@U?$pair@$$CBHI@stlp_std@@@@QAE@ABV?$xalloc@U?$_Rb_tree_node@U?$pair@$$CBHI@stlp_std@@@priv@stlp_std@@@@@Z ; xalloc<stlp_std::pair<int const ,unsigned int> >::xalloc<stlp_std::pair<int const ,unsigned int> ><stlp_std::priv::_Rb_tree_node<stlp_std::pair<int const ,unsigned int> > >
PUBLIC	?get_allocator@?$_Rb_tree_base@U?$pair@$$CBHI@stlp_std@@V?$xalloc@U?$pair@HI@stlp_std@@@@@priv@stlp_std@@QBE?AV?$xalloc@U?$pair@$$CBHI@stlp_std@@@@XZ ; stlp_std::priv::_Rb_tree_base<stlp_std::pair<int const ,unsigned int>,xalloc<stlp_std::pair<int,unsigned int> > >::get_allocator
PUBLIC	?_M_empty_initialize@?$_Rb_tree_base@U?$pair@$$CBHI@stlp_std@@V?$xalloc@U?$pair@HI@stlp_std@@@@@priv@stlp_std@@IAEXXZ ; stlp_std::priv::_Rb_tree_base<stlp_std::pair<int const ,unsigned int>,xalloc<stlp_std::pair<int,unsigned int> > >::_M_empty_initialize
PUBLIC	??0?$xalloc@U?$_Rb_tree_node@U?$pair@$$CBHI@stlp_std@@@priv@stlp_std@@@@QAE@ABV0@@Z ; xalloc<stlp_std::priv::_Rb_tree_node<stlp_std::pair<int const ,unsigned int> > >::xalloc<stlp_std::priv::_Rb_tree_node<stlp_std::pair<int const ,unsigned int> > >
PUBLIC	??0?$_STLP_alloc_proxy@U_Rb_tree_node_base@priv@stlp_std@@U?$_Rb_tree_node@U?$pair@$$CBHI@stlp_std@@@23@V?$xalloc@U?$_Rb_tree_node@U?$pair@$$CBHI@stlp_std@@@priv@stlp_std@@@@@priv@stlp_std@@QAE@ABV?$xalloc@U?$_Rb_tree_node@U?$pair@$$CBHI@stlp_std@@@priv@stlp_std@@@@U_Rb_tree_node_base@12@@Z ; stlp_std::priv::_STLP_alloc_proxy<stlp_std::priv::_Rb_tree_node_base,stlp_std::priv::_Rb_tree_node<stlp_std::pair<int const ,unsigned int> >,xalloc<stlp_std::priv::_Rb_tree_node<stlp_std::pair<int const ,unsigned int> > > >::_STLP_alloc_proxy<stlp_std::priv::_Rb_tree_node_base,stlp_std::priv::_Rb_tree_node<stlp_std::pair<int const ,unsigned int> >,xalloc<stlp_std::priv::_Rb_tree_node<stlp_std::pair<int const ,unsigned int> > > >
PUBLIC	??$?0U?$pair@$$CBHI@stlp_std@@@?$xalloc@U?$_Rb_tree_node@U?$pair@$$CBHI@stlp_std@@@priv@stlp_std@@@@QAE@ABV?$xalloc@U?$pair@$$CBHI@stlp_std@@@@@Z ; xalloc<stlp_std::priv::_Rb_tree_node<stlp_std::pair<int const ,unsigned int> > >::xalloc<stlp_std::priv::_Rb_tree_node<stlp_std::pair<int const ,unsigned int> > ><stlp_std::pair<int const ,unsigned int> >
PUBLIC	??0?$_Rb_tree_base@U?$pair@$$CBHI@stlp_std@@V?$xalloc@U?$pair@HI@stlp_std@@@@@priv@stlp_std@@IAE@ABV?$xalloc@U?$pair@$$CBHI@stlp_std@@@@@Z ; stlp_std::priv::_Rb_tree_base<stlp_std::pair<int const ,unsigned int>,xalloc<stlp_std::pair<int,unsigned int> > >::_Rb_tree_base<stlp_std::pair<int const ,unsigned int>,xalloc<stlp_std::pair<int,unsigned int> > >
PUBLIC	??0?$_Rb_tree@HU?$less@H@stlp_std@@U?$pair@$$CBHI@2@U?$_Select1st@U?$pair@$$CBHI@stlp_std@@@priv@2@U?$_MapTraitsT@U?$pair@$$CBHI@stlp_std@@@52@V?$xalloc@U?$pair@HI@stlp_std@@@@@priv@stlp_std@@QAE@ABV012@@Z ; stlp_std::priv::_Rb_tree<int,stlp_std::less<int>,stlp_std::pair<int const ,unsigned int>,stlp_std::priv::_Select1st<stlp_std::pair<int const ,unsigned int> >,stlp_std::priv::_MapTraitsT<stlp_std::pair<int const ,unsigned int> >,xalloc<stlp_std::pair<int,unsigned int> > >::_Rb_tree<int,stlp_std::less<int>,stlp_std::pair<int const ,unsigned int>,stlp_std::priv::_Select1st<stlp_std::pair<int const ,unsigned int> >,stlp_std::priv::_MapTraitsT<stlp_std::pair<int const ,unsigned int> >,xalloc<stlp_std::pair<int,unsigned int> > >
PUBLIC	??0?$map@HIU?$less@H@stlp_std@@V?$xalloc@U?$pair@HI@stlp_std@@@@@stlp_std@@QAE@ABV01@@Z ; stlp_std::map<int,unsigned int,stlp_std::less<int>,xalloc<stlp_std::pair<int,unsigned int> > >::map<int,unsigned int,stlp_std::less<int>,xalloc<stlp_std::pair<int,unsigned int> > >
PUBLIC	??1?$_Rb_tree@HU?$less@H@stlp_std@@U?$pair@$$CBHI@2@U?$_Select1st@U?$pair@$$CBHI@stlp_std@@@priv@2@U?$_MapTraitsT@U?$pair@$$CBHI@stlp_std@@@52@V?$xalloc@U?$pair@HI@stlp_std@@@@@priv@stlp_std@@QAE@XZ ; stlp_std::priv::_Rb_tree<int,stlp_std::less<int>,stlp_std::pair<int const ,unsigned int>,stlp_std::priv::_Select1st<stlp_std::pair<int const ,unsigned int> >,stlp_std::priv::_MapTraitsT<stlp_std::pair<int const ,unsigned int> >,xalloc<stlp_std::pair<int,unsigned int> > >::~_Rb_tree<int,stlp_std::less<int>,stlp_std::pair<int const ,unsigned int>,stlp_std::priv::_Select1st<stlp_std::pair<int const ,unsigned int> >,stlp_std::priv::_MapTraitsT<stlp_std::pair<int const ,unsigned int> >,xalloc<stlp_std::pair<int,unsigned int> > >
PUBLIC	??1?$map@HIU?$less@H@stlp_std@@V?$xalloc@U?$pair@HI@stlp_std@@@@@stlp_std@@QAE@XZ ; stlp_std::map<int,unsigned int,stlp_std::less<int>,xalloc<stlp_std::pair<int,unsigned int> > >::~map<int,unsigned int,stlp_std::less<int>,xalloc<stlp_std::pair<int,unsigned int> > >
PUBLIC	??0?$xr_map@HIU?$less@H@stlp_std@@V?$xalloc@U?$pair@HI@stlp_std@@@@@@QAE@ABV0@@Z ; xr_map<int,unsigned int,stlp_std::less<int>,xalloc<stlp_std::pair<int,unsigned int> > >::xr_map<int,unsigned int,stlp_std::less<int>,xalloc<stlp_std::pair<int,unsigned int> > >
PUBLIC	??Dshared_str@@QBEPBDXZ				; shared_str::operator*
PUBLIC	??$xr_strcpy@$0CAA@@@YAHAAY0CAA@DPBD@Z		; xr_strcpy<512>
PUBLIC	??$_strlwr_s@$0CAA@@@YAHAAY0CAA@D@Z		; _strlwr_s<512>
PUBLIC	??4?$FactoryPtr@VIApplicationRender@@@@QAEAAV0@ABV0@@Z ; FactoryPtr<IApplicationRender>::operator=
PUBLIC	?capacity@?$_Impl_vector@UsLevelInfo@CApplication@@V?$xalloc@UsLevelInfo@CApplication@@@@@priv@stlp_std@@QBEIXZ ; stlp_std::priv::_Impl_vector<CApplication::sLevelInfo,xalloc<CApplication::sLevelInfo> >::capacity
PUBLIC	?_Answer@?$_BothPtrType@PBUsLevelInfo@CApplication@@PAU12@@stlp_std@@SA?AU__true_type@2@XZ ; stlp_std::_BothPtrType<CApplication::sLevelInfo const *,CApplication::sLevelInfo *>::_Answer
PUBLIC	??$__ucopy_ptrs@PBUsLevelInfo@CApplication@@PAU12@@priv@stlp_std@@YAPAUsLevelInfo@CApplication@@PBU23@0PAU23@ABU__true_type@1@@Z ; stlp_std::priv::__ucopy_ptrs<CApplication::sLevelInfo const *,CApplication::sLevelInfo *>
PUBLIC	??$_UseTrivialUCopy@UsLevelInfo@CApplication@@U12@@stlp_std@@YA?AU?$_TrivialUCopy@UsLevelInfo@CApplication@@U12@@0@PAUsLevelInfo@CApplication@@0@Z ; stlp_std::_UseTrivialUCopy<CApplication::sLevelInfo,CApplication::sLevelInfo>
PUBLIC	?_Answer@?$_TrivialUCopy@UsLevelInfo@CApplication@@U12@@stlp_std@@SA?AU__true_type@2@XZ ; stlp_std::_TrivialUCopy<CApplication::sLevelInfo,CApplication::sLevelInfo>::_Answer
PUBLIC	??$__ucopy_aux@PBUsLevelInfo@CApplication@@PAU12@@priv@stlp_std@@YAPAUsLevelInfo@CApplication@@PBU23@0PAU23@ABU__true_type@1@@Z ; stlp_std::priv::__ucopy_aux<CApplication::sLevelInfo const *,CApplication::sLevelInfo *>
PUBLIC	??$uninitialized_copy@PBUsLevelInfo@CApplication@@PAU12@@stlp_std@@YAPAUsLevelInfo@CApplication@@PBU12@0PAU12@@Z ; stlp_std::uninitialized_copy<CApplication::sLevelInfo const *,CApplication::sLevelInfo *>
PUBLIC	??$_M_allocate_and_copy@PBUsLevelInfo@CApplication@@@?$_Impl_vector@UsLevelInfo@CApplication@@V?$xalloc@UsLevelInfo@CApplication@@@@@priv@stlp_std@@AAEPAUsLevelInfo@CApplication@@AAIPBU34@1@Z ; stlp_std::priv::_Impl_vector<CApplication::sLevelInfo,xalloc<CApplication::sLevelInfo> >::_M_allocate_and_copy<CApplication::sLevelInfo const *>
PUBLIC	??$__copy_ptrs@PBUsLevelInfo@CApplication@@PAU12@@priv@stlp_std@@YAPAUsLevelInfo@CApplication@@PBU23@0PAU23@ABU__true_type@1@@Z ; stlp_std::priv::__copy_ptrs<CApplication::sLevelInfo const *,CApplication::sLevelInfo *>
PUBLIC	??4?$_Impl_vector@UsLevelInfo@CApplication@@V?$xalloc@UsLevelInfo@CApplication@@@@@priv@stlp_std@@QAEAAV012@ABV012@@Z ; stlp_std::priv::_Impl_vector<CApplication::sLevelInfo,xalloc<CApplication::sLevelInfo> >::operator=
PUBLIC	??4?$vector@UsLevelInfo@CApplication@@V?$xalloc@UsLevelInfo@CApplication@@@@@stlp_std@@QAEAAV01@ABV01@@Z ; stlp_std::vector<CApplication::sLevelInfo,xalloc<CApplication::sLevelInfo> >::operator=
PUBLIC	??4?$xr_vector@UsLevelInfo@CApplication@@V?$xalloc@UsLevelInfo@CApplication@@@@@@QAEAAV0@ABV0@@Z ; xr_vector<CApplication::sLevelInfo,xalloc<CApplication::sLevelInfo> >::operator=
PUBLIC	?_M_root@?$_Rb_tree@HU?$less@H@stlp_std@@U?$pair@$$CBHI@2@U?$_Select1st@U?$pair@$$CBHI@stlp_std@@@priv@2@U?$_MapTraitsT@U?$pair@$$CBHI@stlp_std@@@52@V?$xalloc@U?$pair@HI@stlp_std@@@@@priv@stlp_std@@IBEPAU_Rb_tree_node_base@23@XZ ; stlp_std::priv::_Rb_tree<int,stlp_std::less<int>,stlp_std::pair<int const ,unsigned int>,stlp_std::priv::_Select1st<stlp_std::pair<int const ,unsigned int> >,stlp_std::priv::_MapTraitsT<stlp_std::pair<int const ,unsigned int> >,xalloc<stlp_std::pair<int,unsigned int> > >::_M_root
PUBLIC	?_S_minimum@?$_Rb_tree@HU?$less@H@stlp_std@@U?$pair@$$CBHI@2@U?$_Select1st@U?$pair@$$CBHI@stlp_std@@@priv@2@U?$_MapTraitsT@U?$pair@$$CBHI@stlp_std@@@52@V?$xalloc@U?$pair@HI@stlp_std@@@@@priv@stlp_std@@KAPAU_Rb_tree_node_base@23@PAU423@@Z ; stlp_std::priv::_Rb_tree<int,stlp_std::less<int>,stlp_std::pair<int const ,unsigned int>,stlp_std::priv::_Select1st<stlp_std::pair<int const ,unsigned int> >,stlp_std::priv::_MapTraitsT<stlp_std::pair<int const ,unsigned int> >,xalloc<stlp_std::pair<int,unsigned int> > >::_S_minimum
PUBLIC	?_S_maximum@?$_Rb_tree@HU?$less@H@stlp_std@@U?$pair@$$CBHI@2@U?$_Select1st@U?$pair@$$CBHI@stlp_std@@@priv@2@U?$_MapTraitsT@U?$pair@$$CBHI@stlp_std@@@52@V?$xalloc@U?$pair@HI@stlp_std@@@@@priv@stlp_std@@KAPAU_Rb_tree_node_base@23@PAU423@@Z ; stlp_std::priv::_Rb_tree<int,stlp_std::less<int>,stlp_std::pair<int const ,unsigned int>,stlp_std::priv::_Select1st<stlp_std::pair<int const ,unsigned int> >,stlp_std::priv::_MapTraitsT<stlp_std::pair<int const ,unsigned int> >,xalloc<stlp_std::pair<int,unsigned int> > >::_S_maximum
PUBLIC	??$xr_alloc@U?$_Rb_tree_node@U?$pair@$$CBHI@stlp_std@@@priv@stlp_std@@@@YAPAU?$_Rb_tree_node@U?$pair@$$CBHI@stlp_std@@@priv@stlp_std@@I@Z ; xr_alloc<stlp_std::priv::_Rb_tree_node<stlp_std::pair<int const ,unsigned int> > >
PUBLIC	?allocate@?$xalloc@U?$_Rb_tree_node@U?$pair@$$CBHI@stlp_std@@@priv@stlp_std@@@@QBEPAU?$_Rb_tree_node@U?$pair@$$CBHI@stlp_std@@@priv@stlp_std@@IPBX@Z ; xalloc<stlp_std::priv::_Rb_tree_node<stlp_std::pair<int const ,unsigned int> > >::allocate
PUBLIC	?allocate@?$_STLP_alloc_proxy@U_Rb_tree_node_base@priv@stlp_std@@U?$_Rb_tree_node@U?$pair@$$CBHI@stlp_std@@@23@V?$xalloc@U?$_Rb_tree_node@U?$pair@$$CBHI@stlp_std@@@priv@stlp_std@@@@@priv@stlp_std@@QAEPAU?$_Rb_tree_node@U?$pair@$$CBHI@stlp_std@@@23@I@Z ; stlp_std::priv::_STLP_alloc_proxy<stlp_std::priv::_Rb_tree_node_base,stlp_std::priv::_Rb_tree_node<stlp_std::pair<int const ,unsigned int> >,xalloc<stlp_std::priv::_Rb_tree_node<stlp_std::pair<int const ,unsigned int> > > >::allocate
PUBLIC	??0?$pair@$$CBHI@stlp_std@@QAE@ABU01@@Z		; stlp_std::pair<int const ,unsigned int>::pair<int const ,unsigned int>
PUBLIC	??$_Copy_Construct@U?$pair@$$CBHI@stlp_std@@@stlp_std@@YAXPAU?$pair@$$CBHI@0@ABU10@@Z ; stlp_std::_Copy_Construct<stlp_std::pair<int const ,unsigned int> >
PUBLIC	?_M_create_node@?$_Rb_tree@HU?$less@H@stlp_std@@U?$pair@$$CBHI@2@U?$_Select1st@U?$pair@$$CBHI@stlp_std@@@priv@2@U?$_MapTraitsT@U?$pair@$$CBHI@stlp_std@@@52@V?$xalloc@U?$pair@HI@stlp_std@@@@@priv@stlp_std@@IAEPAU_Rb_tree_node_base@23@ABU?$pair@$$CBHI@3@@Z ; stlp_std::priv::_Rb_tree<int,stlp_std::less<int>,stlp_std::pair<int const ,unsigned int>,stlp_std::priv::_Select1st<stlp_std::pair<int const ,unsigned int> >,stlp_std::priv::_MapTraitsT<stlp_std::pair<int const ,unsigned int> >,xalloc<stlp_std::pair<int,unsigned int> > >::_M_create_node
PUBLIC	?_S_color@?$_Rb_tree@HU?$less@H@stlp_std@@U?$pair@$$CBHI@2@U?$_Select1st@U?$pair@$$CBHI@stlp_std@@@priv@2@U?$_MapTraitsT@U?$pair@$$CBHI@stlp_std@@@52@V?$xalloc@U?$pair@HI@stlp_std@@@@@priv@stlp_std@@KAAA_NPAU_Rb_tree_node_base@23@@Z ; stlp_std::priv::_Rb_tree<int,stlp_std::less<int>,stlp_std::pair<int const ,unsigned int>,stlp_std::priv::_Select1st<stlp_std::pair<int const ,unsigned int> >,stlp_std::priv::_MapTraitsT<stlp_std::pair<int const ,unsigned int> >,xalloc<stlp_std::pair<int,unsigned int> > >::_S_color
PUBLIC	?_M_clone_node@?$_Rb_tree@HU?$less@H@stlp_std@@U?$pair@$$CBHI@2@U?$_Select1st@U?$pair@$$CBHI@stlp_std@@@priv@2@U?$_MapTraitsT@U?$pair@$$CBHI@stlp_std@@@52@V?$xalloc@U?$pair@HI@stlp_std@@@@@priv@stlp_std@@IAEPAU_Rb_tree_node_base@23@PAU423@@Z ; stlp_std::priv::_Rb_tree<int,stlp_std::less<int>,stlp_std::pair<int const ,unsigned int>,stlp_std::priv::_Select1st<stlp_std::pair<int const ,unsigned int> >,stlp_std::priv::_MapTraitsT<stlp_std::pair<int const ,unsigned int> >,xalloc<stlp_std::pair<int,unsigned int> > >::_M_clone_node
PUBLIC	?_S_parent@?$_Rb_tree@HU?$less@H@stlp_std@@U?$pair@$$CBHI@2@U?$_Select1st@U?$pair@$$CBHI@stlp_std@@@priv@2@U?$_MapTraitsT@U?$pair@$$CBHI@stlp_std@@@52@V?$xalloc@U?$pair@HI@stlp_std@@@@@priv@stlp_std@@KAAAPAU_Rb_tree_node_base@23@PAU423@@Z ; stlp_std::priv::_Rb_tree<int,stlp_std::less<int>,stlp_std::pair<int const ,unsigned int>,stlp_std::priv::_Select1st<stlp_std::pair<int const ,unsigned int> >,stlp_std::priv::_MapTraitsT<stlp_std::pair<int const ,unsigned int> >,xalloc<stlp_std::pair<int,unsigned int> > >::_S_parent
PUBLIC	?_M_copy@?$_Rb_tree@HU?$less@H@stlp_std@@U?$pair@$$CBHI@2@U?$_Select1st@U?$pair@$$CBHI@stlp_std@@@priv@2@U?$_MapTraitsT@U?$pair@$$CBHI@stlp_std@@@52@V?$xalloc@U?$pair@HI@stlp_std@@@@@priv@stlp_std@@AAEPAU_Rb_tree_node_base@23@PAU423@0@Z ; stlp_std::priv::_Rb_tree<int,stlp_std::less<int>,stlp_std::pair<int const ,unsigned int>,stlp_std::priv::_Select1st<stlp_std::pair<int const ,unsigned int> >,stlp_std::priv::_MapTraitsT<stlp_std::pair<int const ,unsigned int> >,xalloc<stlp_std::pair<int,unsigned int> > >::_M_copy
PUBLIC	?_M_root@?$_Rb_tree@HU?$less@H@stlp_std@@U?$pair@$$CBHI@2@U?$_Select1st@U?$pair@$$CBHI@stlp_std@@@priv@2@U?$_MapTraitsT@U?$pair@$$CBHI@stlp_std@@@52@V?$xalloc@U?$pair@HI@stlp_std@@@@@priv@stlp_std@@IAEAAPAU_Rb_tree_node_base@23@XZ ; stlp_std::priv::_Rb_tree<int,stlp_std::less<int>,stlp_std::pair<int const ,unsigned int>,stlp_std::priv::_Select1st<stlp_std::pair<int const ,unsigned int> >,stlp_std::priv::_MapTraitsT<stlp_std::pair<int const ,unsigned int> >,xalloc<stlp_std::pair<int,unsigned int> > >::_M_root
PUBLIC	?_M_leftmost@?$_Rb_tree@HU?$less@H@stlp_std@@U?$pair@$$CBHI@2@U?$_Select1st@U?$pair@$$CBHI@stlp_std@@@priv@2@U?$_MapTraitsT@U?$pair@$$CBHI@stlp_std@@@52@V?$xalloc@U?$pair@HI@stlp_std@@@@@priv@stlp_std@@IAEAAPAU_Rb_tree_node_base@23@XZ ; stlp_std::priv::_Rb_tree<int,stlp_std::less<int>,stlp_std::pair<int const ,unsigned int>,stlp_std::priv::_Select1st<stlp_std::pair<int const ,unsigned int> >,stlp_std::priv::_MapTraitsT<stlp_std::pair<int const ,unsigned int> >,xalloc<stlp_std::pair<int,unsigned int> > >::_M_leftmost
PUBLIC	?_M_rightmost@?$_Rb_tree@HU?$less@H@stlp_std@@U?$pair@$$CBHI@2@U?$_Select1st@U?$pair@$$CBHI@stlp_std@@@priv@2@U?$_MapTraitsT@U?$pair@$$CBHI@stlp_std@@@52@V?$xalloc@U?$pair@HI@stlp_std@@@@@priv@stlp_std@@IAEAAPAU_Rb_tree_node_base@23@XZ ; stlp_std::priv::_Rb_tree<int,stlp_std::less<int>,stlp_std::pair<int const ,unsigned int>,stlp_std::priv::_Select1st<stlp_std::pair<int const ,unsigned int> >,stlp_std::priv::_MapTraitsT<stlp_std::pair<int const ,unsigned int> >,xalloc<stlp_std::pair<int,unsigned int> > >::_M_rightmost
PUBLIC	??$xr_free@U?$_Rb_tree_node@U?$pair@$$CBHI@stlp_std@@@priv@stlp_std@@@@YAXAAPAU?$_Rb_tree_node@U?$pair@$$CBHI@stlp_std@@@priv@stlp_std@@@Z ; xr_free<stlp_std::priv::_Rb_tree_node<stlp_std::pair<int const ,unsigned int> > >
PUBLIC	?deallocate@?$xalloc@U?$_Rb_tree_node@U?$pair@$$CBHI@stlp_std@@@priv@stlp_std@@@@QBEXPAU?$_Rb_tree_node@U?$pair@$$CBHI@stlp_std@@@priv@stlp_std@@I@Z ; xalloc<stlp_std::priv::_Rb_tree_node<stlp_std::pair<int const ,unsigned int> > >::deallocate
PUBLIC	?_S_left@?$_Rb_tree@HU?$less@H@stlp_std@@U?$pair@$$CBHI@2@U?$_Select1st@U?$pair@$$CBHI@stlp_std@@@priv@2@U?$_MapTraitsT@U?$pair@$$CBHI@stlp_std@@@52@V?$xalloc@U?$pair@HI@stlp_std@@@@@priv@stlp_std@@KAAAPAU_Rb_tree_node_base@23@PAU423@@Z ; stlp_std::priv::_Rb_tree<int,stlp_std::less<int>,stlp_std::pair<int const ,unsigned int>,stlp_std::priv::_Select1st<stlp_std::pair<int const ,unsigned int> >,stlp_std::priv::_MapTraitsT<stlp_std::pair<int const ,unsigned int> >,xalloc<stlp_std::pair<int,unsigned int> > >::_S_left
PUBLIC	?_S_right@?$_Rb_tree@HU?$less@H@stlp_std@@U?$pair@$$CBHI@2@U?$_Select1st@U?$pair@$$CBHI@stlp_std@@@priv@2@U?$_MapTraitsT@U?$pair@$$CBHI@stlp_std@@@52@V?$xalloc@U?$pair@HI@stlp_std@@@@@priv@stlp_std@@KAAAPAU_Rb_tree_node_base@23@PAU423@@Z ; stlp_std::priv::_Rb_tree<int,stlp_std::less<int>,stlp_std::pair<int const ,unsigned int>,stlp_std::priv::_Select1st<stlp_std::pair<int const ,unsigned int> >,stlp_std::priv::_MapTraitsT<stlp_std::pair<int const ,unsigned int> >,xalloc<stlp_std::pair<int,unsigned int> > >::_S_right
PUBLIC	?_S_value@?$_Rb_tree@HU?$less@H@stlp_std@@U?$pair@$$CBHI@2@U?$_Select1st@U?$pair@$$CBHI@stlp_std@@@priv@2@U?$_MapTraitsT@U?$pair@$$CBHI@stlp_std@@@52@V?$xalloc@U?$pair@HI@stlp_std@@@@@priv@stlp_std@@KAAAU?$pair@$$CBHI@3@PAU_Rb_tree_node_base@23@@Z ; stlp_std::priv::_Rb_tree<int,stlp_std::less<int>,stlp_std::pair<int const ,unsigned int>,stlp_std::priv::_Select1st<stlp_std::pair<int const ,unsigned int> >,stlp_std::priv::_MapTraitsT<stlp_std::pair<int const ,unsigned int> >,xalloc<stlp_std::pair<int,unsigned int> > >::_S_value
PUBLIC	??$__destroy_aux@U?$pair@$$CBHI@stlp_std@@@stlp_std@@YAXPAU?$pair@$$CBHI@0@ABU__true_type@0@@Z ; stlp_std::__destroy_aux<stlp_std::pair<int const ,unsigned int> >
PUBLIC	??$_Destroy@U?$pair@$$CBHI@stlp_std@@@stlp_std@@YAXPAU?$pair@$$CBHI@0@@Z ; stlp_std::_Destroy<stlp_std::pair<int const ,unsigned int> >
PUBLIC	?_M_erase@?$_Rb_tree@HU?$less@H@stlp_std@@U?$pair@$$CBHI@2@U?$_Select1st@U?$pair@$$CBHI@stlp_std@@@priv@2@U?$_MapTraitsT@U?$pair@$$CBHI@stlp_std@@@52@V?$xalloc@U?$pair@HI@stlp_std@@@@@priv@stlp_std@@AAEXPAU_Rb_tree_node_base@23@@Z ; stlp_std::priv::_Rb_tree<int,stlp_std::less<int>,stlp_std::pair<int const ,unsigned int>,stlp_std::priv::_Select1st<stlp_std::pair<int const ,unsigned int> >,stlp_std::priv::_MapTraitsT<stlp_std::pair<int const ,unsigned int> >,xalloc<stlp_std::pair<int,unsigned int> > >::_M_erase
PUBLIC	?clear@?$_Rb_tree@HU?$less@H@stlp_std@@U?$pair@$$CBHI@2@U?$_Select1st@U?$pair@$$CBHI@stlp_std@@@priv@2@U?$_MapTraitsT@U?$pair@$$CBHI@stlp_std@@@52@V?$xalloc@U?$pair@HI@stlp_std@@@@@priv@stlp_std@@QAEXXZ ; stlp_std::priv::_Rb_tree<int,stlp_std::less<int>,stlp_std::pair<int const ,unsigned int>,stlp_std::priv::_Select1st<stlp_std::pair<int const ,unsigned int> >,stlp_std::priv::_MapTraitsT<stlp_std::pair<int const ,unsigned int> >,xalloc<stlp_std::pair<int,unsigned int> > >::clear
PUBLIC	??4?$_Rb_tree@HU?$less@H@stlp_std@@U?$pair@$$CBHI@2@U?$_Select1st@U?$pair@$$CBHI@stlp_std@@@priv@2@U?$_MapTraitsT@U?$pair@$$CBHI@stlp_std@@@52@V?$xalloc@U?$pair@HI@stlp_std@@@@@priv@stlp_std@@QAEAAV012@ABV012@@Z ; stlp_std::priv::_Rb_tree<int,stlp_std::less<int>,stlp_std::pair<int const ,unsigned int>,stlp_std::priv::_Select1st<stlp_std::pair<int const ,unsigned int> >,stlp_std::priv::_MapTraitsT<stlp_std::pair<int const ,unsigned int> >,xalloc<stlp_std::pair<int,unsigned int> > >::operator=
PUBLIC	??4?$map@HIU?$less@H@stlp_std@@V?$xalloc@U?$pair@HI@stlp_std@@@@@stlp_std@@QAEAAV01@ABV01@@Z ; stlp_std::map<int,unsigned int,stlp_std::less<int>,xalloc<stlp_std::pair<int,unsigned int> > >::operator=
PUBLIC	??4?$xr_map@HIU?$less@H@stlp_std@@V?$xalloc@U?$pair@HI@stlp_std@@@@@@QAEAAV0@ABV0@@Z ; xr_map<int,unsigned int,stlp_std::less<int>,xalloc<stlp_std::pair<int,unsigned int> > >::operator=
PUBLIC	?size@?$vector@PAVCObject@@V?$xalloc@PAVCObject@@@@@stlp_std@@QBEIXZ ; stlp_std::vector<CObject *,xalloc<CObject *> >::size
PUBLIC	?size@?$xr_vector@PAVCObject@@V?$xalloc@PAVCObject@@@@@@QBEIXZ ; xr_vector<CObject *,xalloc<CObject *> >::size
PUBLIC	?to_value_type_ptr@?$_CastTraits@PAXPAVCObject@@@priv@stlp_std@@SAPAPAVCObject@@PAPAX@Z ; stlp_std::priv::_CastTraits<void *,CObject *>::to_value_type_ptr
PUBLIC	?begin@?$vector@PAVCObject@@V?$xalloc@PAVCObject@@@@@stlp_std@@QAEPAPAVCObject@@XZ ; stlp_std::vector<CObject *,xalloc<CObject *> >::begin
PUBLIC	??A?$xr_vector@PAVCObject@@V?$xalloc@PAVCObject@@@@@@QAEAAPAVCObject@@I@Z ; xr_vector<CObject *,xalloc<CObject *> >::operator[]
PUBLIC	??$xr_strcat@$0BAA@@@YAHAAY0BAA@DPBD@Z		; xr_strcat<256>
PUBLIC	??1?$xr_vector@USRelcasePair@CObjectList@@V?$xalloc@USRelcasePair@CObjectList@@@@@@QAE@XZ ; xr_vector<CObjectList::SRelcasePair,xalloc<CObjectList::SRelcasePair> >::~xr_vector<CObjectList::SRelcasePair,xalloc<CObjectList::SRelcasePair> >
PUBLIC	??0?$_STLP_alloc_proxy@PAUSRelcasePair@CObjectList@@U12@V?$xalloc@USRelcasePair@CObjectList@@@@@priv@stlp_std@@QAE@ABV?$xalloc@USRelcasePair@CObjectList@@@@PAUSRelcasePair@CObjectList@@@Z ; stlp_std::priv::_STLP_alloc_proxy<CObjectList::SRelcasePair *,CObjectList::SRelcasePair,xalloc<CObjectList::SRelcasePair> >::_STLP_alloc_proxy<CObjectList::SRelcasePair *,CObjectList::SRelcasePair,xalloc<CObjectList::SRelcasePair> >
PUBLIC	??0?$_Vector_base@USRelcasePair@CObjectList@@V?$xalloc@USRelcasePair@CObjectList@@@@@priv@stlp_std@@QAE@IABV?$xalloc@USRelcasePair@CObjectList@@@@@Z ; stlp_std::priv::_Vector_base<CObjectList::SRelcasePair,xalloc<CObjectList::SRelcasePair> >::_Vector_base<CObjectList::SRelcasePair,xalloc<CObjectList::SRelcasePair> >
PUBLIC	??0?$xalloc@USRelcasePair@CObjectList@@@@QAE@ABV0@@Z ; xalloc<CObjectList::SRelcasePair>::xalloc<CObjectList::SRelcasePair>
PUBLIC	?get_allocator@?$_Impl_vector@USRelcasePair@CObjectList@@V?$xalloc@USRelcasePair@CObjectList@@@@@priv@stlp_std@@QBE?AV?$xalloc@USRelcasePair@CObjectList@@@@XZ ; stlp_std::priv::_Impl_vector<CObjectList::SRelcasePair,xalloc<CObjectList::SRelcasePair> >::get_allocator
PUBLIC	?begin@?$_Impl_vector@USRelcasePair@CObjectList@@V?$xalloc@USRelcasePair@CObjectList@@@@@priv@stlp_std@@QBEPBUSRelcasePair@CObjectList@@XZ ; stlp_std::priv::_Impl_vector<CObjectList::SRelcasePair,xalloc<CObjectList::SRelcasePair> >::begin
PUBLIC	?end@?$_Impl_vector@USRelcasePair@CObjectList@@V?$xalloc@USRelcasePair@CObjectList@@@@@priv@stlp_std@@QBEPBUSRelcasePair@CObjectList@@XZ ; stlp_std::priv::_Impl_vector<CObjectList::SRelcasePair,xalloc<CObjectList::SRelcasePair> >::end
PUBLIC	??0?$_Impl_vector@USRelcasePair@CObjectList@@V?$xalloc@USRelcasePair@CObjectList@@@@@priv@stlp_std@@QAE@ABV012@@Z ; stlp_std::priv::_Impl_vector<CObjectList::SRelcasePair,xalloc<CObjectList::SRelcasePair> >::_Impl_vector<CObjectList::SRelcasePair,xalloc<CObjectList::SRelcasePair> >
PUBLIC	??0?$vector@USRelcasePair@CObjectList@@V?$xalloc@USRelcasePair@CObjectList@@@@@stlp_std@@QAE@ABV01@@Z ; stlp_std::vector<CObjectList::SRelcasePair,xalloc<CObjectList::SRelcasePair> >::vector<CObjectList::SRelcasePair,xalloc<CObjectList::SRelcasePair> >
PUBLIC	??1?$_Vector_base@USRelcasePair@CObjectList@@V?$xalloc@USRelcasePair@CObjectList@@@@@priv@stlp_std@@QAE@XZ ; stlp_std::priv::_Vector_base<CObjectList::SRelcasePair,xalloc<CObjectList::SRelcasePair> >::~_Vector_base<CObjectList::SRelcasePair,xalloc<CObjectList::SRelcasePair> >
PUBLIC	??1?$_Impl_vector@USRelcasePair@CObjectList@@V?$xalloc@USRelcasePair@CObjectList@@@@@priv@stlp_std@@QAE@XZ ; stlp_std::priv::_Impl_vector<CObjectList::SRelcasePair,xalloc<CObjectList::SRelcasePair> >::~_Impl_vector<CObjectList::SRelcasePair,xalloc<CObjectList::SRelcasePair> >
PUBLIC	??1?$vector@USRelcasePair@CObjectList@@V?$xalloc@USRelcasePair@CObjectList@@@@@stlp_std@@QAE@XZ ; stlp_std::vector<CObjectList::SRelcasePair,xalloc<CObjectList::SRelcasePair> >::~vector<CObjectList::SRelcasePair,xalloc<CObjectList::SRelcasePair> >
PUBLIC	??0?$xr_vector@USRelcasePair@CObjectList@@V?$xalloc@USRelcasePair@CObjectList@@@@@@QAE@ABV0@@Z ; xr_vector<CObjectList::SRelcasePair,xalloc<CObjectList::SRelcasePair> >::xr_vector<CObjectList::SRelcasePair,xalloc<CObjectList::SRelcasePair> >
PUBLIC	??1?$xr_vector@PAVCObject@@V?$xalloc@PAVCObject@@@@@@QAE@XZ ; xr_vector<CObject *,xalloc<CObject *> >::~xr_vector<CObject *,xalloc<CObject *> >
PUBLIC	??0?$vector@PAVCObject@@V?$xalloc@PAVCObject@@@@@stlp_std@@QAE@ABV01@@Z ; stlp_std::vector<CObject *,xalloc<CObject *> >::vector<CObject *,xalloc<CObject *> >
PUBLIC	??1?$vector@PAVCObject@@V?$xalloc@PAVCObject@@@@@stlp_std@@QAE@XZ ; stlp_std::vector<CObject *,xalloc<CObject *> >::~vector<CObject *,xalloc<CObject *> >
PUBLIC	??0?$xr_vector@PAVCObject@@V?$xalloc@PAVCObject@@@@@@QAE@ABV0@@Z ; xr_vector<CObject *,xalloc<CObject *> >::xr_vector<CObject *,xalloc<CObject *> >
PUBLIC	??0damn_keys_filter@@QAE@XZ			; damn_keys_filter::damn_keys_filter
PUBLIC	??1damn_keys_filter@@QAE@XZ			; damn_keys_filter::~damn_keys_filter
PUBLIC	??$xr_new@VCCC_LoadCFG_custom@@$$BY09$$CBD@@YAPAVCCC_LoadCFG_custom@@AAY09$$CBD@Z ; xr_new<CCC_LoadCFG_custom,char const [10]>
PUBLIC	??R?$xr_special_free@$00VCCC_LoadCFG_custom@@@@QAEXAAPAVCCC_LoadCFG_custom@@@Z ; xr_special_free<1,CCC_LoadCFG_custom>::operator()
PUBLIC	??$xr_delete@VCCC_LoadCFG_custom@@@@YAXAAPAVCCC_LoadCFG_custom@@@Z ; xr_delete<CCC_LoadCFG_custom>
PUBLIC	?size@?$_Impl_vector@USRelcasePair@CObjectList@@V?$xalloc@USRelcasePair@CObjectList@@@@@priv@stlp_std@@QBEIXZ ; stlp_std::priv::_Impl_vector<CObjectList::SRelcasePair,xalloc<CObjectList::SRelcasePair> >::size
PUBLIC	?capacity@?$_Impl_vector@USRelcasePair@CObjectList@@V?$xalloc@USRelcasePair@CObjectList@@@@@priv@stlp_std@@QBEIXZ ; stlp_std::priv::_Impl_vector<CObjectList::SRelcasePair,xalloc<CObjectList::SRelcasePair> >::capacity
PUBLIC	??$xr_free@USRelcasePair@CObjectList@@@@YAXAAPAUSRelcasePair@CObjectList@@@Z ; xr_free<CObjectList::SRelcasePair>
PUBLIC	?deallocate@?$xalloc@USRelcasePair@CObjectList@@@@QBEXPAUSRelcasePair@CObjectList@@I@Z ; xalloc<CObjectList::SRelcasePair>::deallocate
PUBLIC	?end@?$_Impl_vector@USRelcasePair@CObjectList@@V?$xalloc@USRelcasePair@CObjectList@@@@@priv@stlp_std@@QAEPAUSRelcasePair@CObjectList@@XZ ; stlp_std::priv::_Impl_vector<CObjectList::SRelcasePair,xalloc<CObjectList::SRelcasePair> >::end
PUBLIC	?rbegin@?$_Impl_vector@USRelcasePair@CObjectList@@V?$xalloc@USRelcasePair@CObjectList@@@@@priv@stlp_std@@QAE?AV?$reverse_iterator@PAUSRelcasePair@CObjectList@@@3@XZ ; stlp_std::priv::_Impl_vector<CObjectList::SRelcasePair,xalloc<CObjectList::SRelcasePair> >::rbegin
PUBLIC	?begin@?$_Impl_vector@USRelcasePair@CObjectList@@V?$xalloc@USRelcasePair@CObjectList@@@@@priv@stlp_std@@QAEPAUSRelcasePair@CObjectList@@XZ ; stlp_std::priv::_Impl_vector<CObjectList::SRelcasePair,xalloc<CObjectList::SRelcasePair> >::begin
PUBLIC	??0?$reverse_iterator@PAUSRelcasePair@CObjectList@@@stlp_std@@QAE@PAUSRelcasePair@CObjectList@@@Z ; stlp_std::reverse_iterator<CObjectList::SRelcasePair *>::reverse_iterator<CObjectList::SRelcasePair *>
PUBLIC	?rend@?$_Impl_vector@USRelcasePair@CObjectList@@V?$xalloc@USRelcasePair@CObjectList@@@@@priv@stlp_std@@QAE?AV?$reverse_iterator@PAUSRelcasePair@CObjectList@@@3@XZ ; stlp_std::priv::_Impl_vector<CObjectList::SRelcasePair,xalloc<CObjectList::SRelcasePair> >::rend
PUBLIC	??0?$reverse_iterator@PAUSRelcasePair@CObjectList@@@stlp_std@@QAE@ABV01@@Z ; stlp_std::reverse_iterator<CObjectList::SRelcasePair *>::reverse_iterator<CObjectList::SRelcasePair *>
PUBLIC	??$__destroy_range_aux@V?$reverse_iterator@PAUSRelcasePair@CObjectList@@@stlp_std@@USRelcasePair@CObjectList@@@stlp_std@@YAXV?$reverse_iterator@PAUSRelcasePair@CObjectList@@@0@0PAUSRelcasePair@CObjectList@@ABU__true_type@0@@Z ; stlp_std::__destroy_range_aux<stlp_std::reverse_iterator<CObjectList::SRelcasePair *>,CObjectList::SRelcasePair>
PUBLIC	??$__destroy_range@V?$reverse_iterator@PAUSRelcasePair@CObjectList@@@stlp_std@@USRelcasePair@CObjectList@@@stlp_std@@YAXV?$reverse_iterator@PAUSRelcasePair@CObjectList@@@0@0PAUSRelcasePair@CObjectList@@@Z ; stlp_std::__destroy_range<stlp_std::reverse_iterator<CObjectList::SRelcasePair *>,CObjectList::SRelcasePair>
PUBLIC	??$_Destroy_Range@V?$reverse_iterator@PAUSRelcasePair@CObjectList@@@stlp_std@@@stlp_std@@YAXV?$reverse_iterator@PAUSRelcasePair@CObjectList@@@0@0@Z ; stlp_std::_Destroy_Range<stlp_std::reverse_iterator<CObjectList::SRelcasePair *> >
PUBLIC	?_M_clear@?$_Impl_vector@USRelcasePair@CObjectList@@V?$xalloc@USRelcasePair@CObjectList@@@@@priv@stlp_std@@AAEXXZ ; stlp_std::priv::_Impl_vector<CObjectList::SRelcasePair,xalloc<CObjectList::SRelcasePair> >::_M_clear
PUBLIC	??$xr_alloc@USRelcasePair@CObjectList@@@@YAPAUSRelcasePair@CObjectList@@I@Z ; xr_alloc<CObjectList::SRelcasePair>
PUBLIC	?allocate@?$xalloc@USRelcasePair@CObjectList@@@@QBEPAUSRelcasePair@CObjectList@@IPBX@Z ; xalloc<CObjectList::SRelcasePair>::allocate
PUBLIC	?allocate@?$_STLP_alloc_proxy@PAUSRelcasePair@CObjectList@@U12@V?$xalloc@USRelcasePair@CObjectList@@@@@priv@stlp_std@@QAEPAUSRelcasePair@CObjectList@@I@Z ; stlp_std::priv::_STLP_alloc_proxy<CObjectList::SRelcasePair *,CObjectList::SRelcasePair,xalloc<CObjectList::SRelcasePair> >::allocate
PUBLIC	?allocate@?$_STLP_alloc_proxy@PAUSRelcasePair@CObjectList@@U12@V?$xalloc@USRelcasePair@CObjectList@@@@@priv@stlp_std@@AAEPAUSRelcasePair@CObjectList@@IAAIABU__false_type@3@@Z ; stlp_std::priv::_STLP_alloc_proxy<CObjectList::SRelcasePair *,CObjectList::SRelcasePair,xalloc<CObjectList::SRelcasePair> >::allocate
PUBLIC	?allocate@?$_STLP_alloc_proxy@PAUSRelcasePair@CObjectList@@U12@V?$xalloc@USRelcasePair@CObjectList@@@@@priv@stlp_std@@QAEPAUSRelcasePair@CObjectList@@IAAI@Z ; stlp_std::priv::_STLP_alloc_proxy<CObjectList::SRelcasePair *,CObjectList::SRelcasePair,xalloc<CObjectList::SRelcasePair> >::allocate
PUBLIC	?_Answer@?$_BothPtrType@PBUSRelcasePair@CObjectList@@PAU12@@stlp_std@@SA?AU__true_type@2@XZ ; stlp_std::_BothPtrType<CObjectList::SRelcasePair const *,CObjectList::SRelcasePair *>::_Answer
PUBLIC	??0?$ClosurePtr@P8GenericClass@detail@fastdelegate@@AGXPAVCObject@@@ZP6GX0@ZP6GX0@Z@detail@fastdelegate@@QAE@XZ ; fastdelegate::detail::ClosurePtr<void (__stdcall fastdelegate::detail::GenericClass::*)(CObject *),void (__stdcall*)(CObject *),void (__stdcall*)(CObject *)>::ClosurePtr<void (__stdcall fastdelegate::detail::GenericClass::*)(CObject *),void (__stdcall*)(CObject *),void (__stdcall*)(CObject *)>
PUBLIC	??0?$FastDelegate1@PAVCObject@@X@fastdelegate@@QAE@ABV01@@Z ; fastdelegate::FastDelegate1<CObject *,void>::FastDelegate1<CObject *,void>
PUBLIC	??0SRelcasePair@CObjectList@@QAE@ABU01@@Z	; CObjectList::SRelcasePair::SRelcasePair
PUBLIC	??$_Param_Construct@USRelcasePair@CObjectList@@U12@@stlp_std@@YAXPAUSRelcasePair@CObjectList@@ABU12@@Z ; stlp_std::_Param_Construct<CObjectList::SRelcasePair,CObjectList::SRelcasePair>
PUBLIC	??$__ucopy@PBUSRelcasePair@CObjectList@@PAU12@H@priv@stlp_std@@YAPAUSRelcasePair@CObjectList@@PBU23@0PAU23@ABUrandom_access_iterator_tag@1@PAH@Z ; stlp_std::priv::__ucopy<CObjectList::SRelcasePair const *,CObjectList::SRelcasePair *,int>
PUBLIC	??$__ucopy_ptrs@PBUSRelcasePair@CObjectList@@PAU12@@priv@stlp_std@@YAPAUSRelcasePair@CObjectList@@PBU23@0PAU23@ABU__false_type@1@@Z ; stlp_std::priv::__ucopy_ptrs<CObjectList::SRelcasePair const *,CObjectList::SRelcasePair *>
PUBLIC	??$_UseTrivialUCopy@USRelcasePair@CObjectList@@U12@@stlp_std@@YA?AU?$_TrivialUCopy@USRelcasePair@CObjectList@@U12@@0@PAUSRelcasePair@CObjectList@@0@Z ; stlp_std::_UseTrivialUCopy<CObjectList::SRelcasePair,CObjectList::SRelcasePair>
PUBLIC	?_Answer@?$_TrivialUCopy@USRelcasePair@CObjectList@@U12@@stlp_std@@SA?AU__false_type@2@XZ ; stlp_std::_TrivialUCopy<CObjectList::SRelcasePair,CObjectList::SRelcasePair>::_Answer
PUBLIC	??$__ucopy_aux@PBUSRelcasePair@CObjectList@@PAU12@@priv@stlp_std@@YAPAUSRelcasePair@CObjectList@@PBU23@0PAU23@ABU__true_type@1@@Z ; stlp_std::priv::__ucopy_aux<CObjectList::SRelcasePair const *,CObjectList::SRelcasePair *>
PUBLIC	??$uninitialized_copy@PBUSRelcasePair@CObjectList@@PAU12@@stlp_std@@YAPAUSRelcasePair@CObjectList@@PBU12@0PAU12@@Z ; stlp_std::uninitialized_copy<CObjectList::SRelcasePair const *,CObjectList::SRelcasePair *>
PUBLIC	??$_M_allocate_and_copy@PBUSRelcasePair@CObjectList@@@?$_Impl_vector@USRelcasePair@CObjectList@@V?$xalloc@USRelcasePair@CObjectList@@@@@priv@stlp_std@@AAEPAUSRelcasePair@CObjectList@@AAIPBU34@1@Z ; stlp_std::priv::_Impl_vector<CObjectList::SRelcasePair,xalloc<CObjectList::SRelcasePair> >::_M_allocate_and_copy<CObjectList::SRelcasePair const *>
PUBLIC	??$CopyFrom@V?$FastDelegate1@PAVCObject@@X@fastdelegate@@@?$ClosurePtr@P8GenericClass@detail@fastdelegate@@AGXPAVCObject@@@ZP6GX0@ZP6GX0@Z@detail@fastdelegate@@QAEXPAV?$FastDelegate1@PAVCObject@@X@2@ABVDelegateMemento@2@@Z ; fastdelegate::detail::ClosurePtr<void (__stdcall fastdelegate::detail::GenericClass::*)(CObject *),void (__stdcall*)(CObject *),void (__stdcall*)(CObject *)>::CopyFrom<fastdelegate::FastDelegate1<CObject *,void> >
PUBLIC	??4?$FastDelegate1@PAVCObject@@X@fastdelegate@@QAEXABV01@@Z ; fastdelegate::FastDelegate1<CObject *,void>::operator=
PUBLIC	??4SRelcasePair@CObjectList@@QAEAAU01@ABU01@@Z	; CObjectList::SRelcasePair::operator=
PUBLIC	??$__copy@PBUSRelcasePair@CObjectList@@PAU12@H@priv@stlp_std@@YAPAUSRelcasePair@CObjectList@@PBU23@0PAU23@ABUrandom_access_iterator_tag@1@PAH@Z ; stlp_std::priv::__copy<CObjectList::SRelcasePair const *,CObjectList::SRelcasePair *,int>
PUBLIC	??$__copy_ptrs@PBUSRelcasePair@CObjectList@@PAU12@@priv@stlp_std@@YAPAUSRelcasePair@CObjectList@@PBU23@0PAU23@ABU__false_type@1@@Z ; stlp_std::priv::__copy_ptrs<CObjectList::SRelcasePair const *,CObjectList::SRelcasePair *>
PUBLIC	??$__destroy_range_aux@PAUSRelcasePair@CObjectList@@U12@@stlp_std@@YAXPAUSRelcasePair@CObjectList@@00ABU__true_type@0@@Z ; stlp_std::__destroy_range_aux<CObjectList::SRelcasePair *,CObjectList::SRelcasePair>
PUBLIC	??$__destroy_range@PAUSRelcasePair@CObjectList@@U12@@stlp_std@@YAXPAUSRelcasePair@CObjectList@@00@Z ; stlp_std::__destroy_range<CObjectList::SRelcasePair *,CObjectList::SRelcasePair>
PUBLIC	??$_Destroy_Range@PAUSRelcasePair@CObjectList@@@stlp_std@@YAXPAUSRelcasePair@CObjectList@@0@Z ; stlp_std::_Destroy_Range<CObjectList::SRelcasePair *>
PUBLIC	??4?$_Impl_vector@USRelcasePair@CObjectList@@V?$xalloc@USRelcasePair@CObjectList@@@@@priv@stlp_std@@QAEAAV012@ABV012@@Z ; stlp_std::priv::_Impl_vector<CObjectList::SRelcasePair,xalloc<CObjectList::SRelcasePair> >::operator=
PUBLIC	??4?$vector@USRelcasePair@CObjectList@@V?$xalloc@USRelcasePair@CObjectList@@@@@stlp_std@@QAEAAV01@ABV01@@Z ; stlp_std::vector<CObjectList::SRelcasePair,xalloc<CObjectList::SRelcasePair> >::operator=
PUBLIC	??4?$xr_vector@USRelcasePair@CObjectList@@V?$xalloc@USRelcasePair@CObjectList@@@@@@QAEAAV0@ABV0@@Z ; xr_vector<CObjectList::SRelcasePair,xalloc<CObjectList::SRelcasePair> >::operator=
PUBLIC	?DestroyObject@?$FactoryPtr@VIEnvDescriptorRender@@@@AAEXXZ ; FactoryPtr<IEnvDescriptorRender>::DestroyObject
PUBLIC	??1?$FactoryPtr@VIEnvDescriptorRender@@@@QAE@XZ	; FactoryPtr<IEnvDescriptorRender>::~FactoryPtr<IEnvDescriptorRender>
PUBLIC	?CreateObject@?$FactoryPtr@VIEnvDescriptorRender@@@@AAEXXZ ; FactoryPtr<IEnvDescriptorRender>::CreateObject
PUBLIC	??0?$FactoryPtr@VIEnvDescriptorRender@@@@QAE@ABV0@@Z ; FactoryPtr<IEnvDescriptorRender>::FactoryPtr<IEnvDescriptorRender>
PUBLIC	??4?$vector@PAVCObject@@V?$xalloc@PAVCObject@@@@@stlp_std@@QAEAAV01@ABV01@@Z ; stlp_std::vector<CObject *,xalloc<CObject *> >::operator=
PUBLIC	??4?$xr_vector@PAVCObject@@V?$xalloc@PAVCObject@@@@@@QAEAAV0@ABV0@@Z ; xr_vector<CObject *,xalloc<CObject *> >::operator=
PUBLIC	??4?$FactoryPtr@VIEnvDescriptorRender@@@@QAEAAV0@ABV0@@Z ; FactoryPtr<IEnvDescriptorRender>::operator=
PUBLIC	??1?$xr_vector@PAVCLAItem@@V?$xalloc@PAVCLAItem@@@@@@QAE@XZ ; xr_vector<CLAItem *,xalloc<CLAItem *> >::~xr_vector<CLAItem *,xalloc<CLAItem *> >
PUBLIC	??0?$vector@PAVCLAItem@@V?$xalloc@PAVCLAItem@@@@@stlp_std@@QAE@ABV01@@Z ; stlp_std::vector<CLAItem *,xalloc<CLAItem *> >::vector<CLAItem *,xalloc<CLAItem *> >
PUBLIC	??1?$vector@PAVCLAItem@@V?$xalloc@PAVCLAItem@@@@@stlp_std@@QAE@XZ ; stlp_std::vector<CLAItem *,xalloc<CLAItem *> >::~vector<CLAItem *,xalloc<CLAItem *> >
PUBLIC	??0?$xr_vector@PAVCLAItem@@V?$xalloc@PAVCLAItem@@@@@@QAE@ABV0@@Z ; xr_vector<CLAItem *,xalloc<CLAItem *> >::xr_vector<CLAItem *,xalloc<CLAItem *> >
PUBLIC	?set@?$_vector2@H@@QAEAAU1@HH@Z			; _vector2<int>::set
PUBLIC	??4?$vector@PAVCLAItem@@V?$xalloc@PAVCLAItem@@@@@stlp_std@@QAEAAV01@ABV01@@Z ; stlp_std::vector<CLAItem *,xalloc<CLAItem *> >::operator=
PUBLIC	??4?$xr_vector@PAVCLAItem@@V?$xalloc@PAVCLAItem@@@@@@QAEAAV0@ABV0@@Z ; xr_vector<CLAItem *,xalloc<CLAItem *> >::operator=
PUBLIC	?DestroyObject@?$FactoryPtr@VIEnvDescriptorMixerRender@@@@AAEXXZ ; FactoryPtr<IEnvDescriptorMixerRender>::DestroyObject
PUBLIC	??1?$FactoryPtr@VIEnvDescriptorMixerRender@@@@QAE@XZ ; FactoryPtr<IEnvDescriptorMixerRender>::~FactoryPtr<IEnvDescriptorMixerRender>
PUBLIC	?CreateObject@?$FactoryPtr@VIEnvDescriptorMixerRender@@@@AAEXXZ ; FactoryPtr<IEnvDescriptorMixerRender>::CreateObject
PUBLIC	??0?$FactoryPtr@VIEnvDescriptorMixerRender@@@@QAE@ABV0@@Z ; FactoryPtr<IEnvDescriptorMixerRender>::FactoryPtr<IEnvDescriptorMixerRender>
PUBLIC	??1?$xr_vector@PAVIInputReceiver@@V?$xalloc@PAVIInputReceiver@@@@@@QAE@XZ ; xr_vector<IInputReceiver *,xalloc<IInputReceiver *> >::~xr_vector<IInputReceiver *,xalloc<IInputReceiver *> >
PUBLIC	??0?$vector@PAVIInputReceiver@@V?$xalloc@PAVIInputReceiver@@@@@stlp_std@@QAE@ABV01@@Z ; stlp_std::vector<IInputReceiver *,xalloc<IInputReceiver *> >::vector<IInputReceiver *,xalloc<IInputReceiver *> >
PUBLIC	??1?$vector@PAVIInputReceiver@@V?$xalloc@PAVIInputReceiver@@@@@stlp_std@@QAE@XZ ; stlp_std::vector<IInputReceiver *,xalloc<IInputReceiver *> >::~vector<IInputReceiver *,xalloc<IInputReceiver *> >
PUBLIC	??0?$xr_vector@PAVIInputReceiver@@V?$xalloc@PAVIInputReceiver@@@@@@QAE@ABV0@@Z ; xr_vector<IInputReceiver *,xalloc<IInputReceiver *> >::xr_vector<IInputReceiver *,xalloc<IInputReceiver *> >
PUBLIC	??$xr_new@VCGameFont@@PBDPBDI@@YAPAVCGameFont@@ABQBD0ABI@Z ; xr_new<CGameFont,char const *,char const *,unsigned int>
PUBLIC	??4?$FactoryPtr@VIEnvDescriptorMixerRender@@@@QAEAAV0@ABV0@@Z ; FactoryPtr<IEnvDescriptorMixerRender>::operator=
PUBLIC	??4?$vector@PAVIInputReceiver@@V?$xalloc@PAVIInputReceiver@@@@@stlp_std@@QAEAAV01@ABV01@@Z ; stlp_std::vector<IInputReceiver *,xalloc<IInputReceiver *> >::operator=
PUBLIC	??4?$xr_vector@PAVIInputReceiver@@V?$xalloc@PAVIInputReceiver@@@@@@QAEAAV0@ABV0@@Z ; xr_vector<IInputReceiver *,xalloc<IInputReceiver *> >::operator=
PUBLIC	?CreateObject@?$FactoryPtr@VIApplicationRender@@@@AAEXXZ ; FactoryPtr<IApplicationRender>::CreateObject
PUBLIC	??0?$FactoryPtr@VIApplicationRender@@@@QAE@XZ	; FactoryPtr<IApplicationRender>::FactoryPtr<IApplicationRender>
PUBLIC	?_M_set@?$_Impl_vector@U_REG_INFO@@V?$xalloc@U_REG_INFO@@@@@priv@stlp_std@@AAEXPAU_REG_INFO@@00@Z ; stlp_std::priv::_Impl_vector<_REG_INFO,xalloc<_REG_INFO> >::_M_set
PUBLIC	??$__fill_n@PAU_REG_INFO@@IU1@@priv@stlp_std@@YAPAU_REG_INFO@@PAU2@IABU2@@Z ; stlp_std::priv::__fill_n<_REG_INFO *,unsigned int,_REG_INFO>
PUBLIC	?_M_insert_overflow@?$_Impl_vector@U_REG_INFO@@V?$xalloc@U_REG_INFO@@@@@priv@stlp_std@@AAEXPAU_REG_INFO@@ABU4@ABU__true_type@3@I_N@Z ; stlp_std::priv::_Impl_vector<_REG_INFO,xalloc<_REG_INFO> >::_M_insert_overflow
PUBLIC	??$_Copy_Construct@U_REG_INFO@@@stlp_std@@YAXPAU_REG_INFO@@ABU1@@Z ; stlp_std::_Copy_Construct<_REG_INFO>
PUBLIC	?push_back@?$_Impl_vector@U_REG_INFO@@V?$xalloc@U_REG_INFO@@@@@priv@stlp_std@@QAEXABU_REG_INFO@@@Z ; stlp_std::priv::_Impl_vector<_REG_INFO,xalloc<_REG_INFO> >::push_back
PUBLIC	?to_storage_type_cref@?$_CastTraits@U_REG_INFO@@U1@@priv@stlp_std@@SAABU_REG_INFO@@ABU4@@Z ; stlp_std::priv::_CastTraits<_REG_INFO,_REG_INFO>::to_storage_type_cref
PUBLIC	?push_back@?$vector@U_REG_INFO@@V?$xalloc@U_REG_INFO@@@@@stlp_std@@QAEXABU_REG_INFO@@@Z ; stlp_std::vector<_REG_INFO,xalloc<_REG_INFO> >::push_back
PUBLIC	?Add@?$CRegistrator@VpureFrame@@@@QAEXPAVpureFrame@@HI@Z ; CRegistrator<pureFrame>::Add
PUBLIC	??0?$xalloc@UsLevelInfo@CApplication@@@@QAE@XZ	; xalloc<CApplication::sLevelInfo>::xalloc<CApplication::sLevelInfo>
PUBLIC	??0?$xalloc@UsLevelInfo@CApplication@@@@QAE@ABV0@@Z ; xalloc<CApplication::sLevelInfo>::xalloc<CApplication::sLevelInfo>
PUBLIC	??0?$_STLP_alloc_proxy@PAUsLevelInfo@CApplication@@U12@V?$xalloc@UsLevelInfo@CApplication@@@@@priv@stlp_std@@QAE@ABV?$xalloc@UsLevelInfo@CApplication@@@@PAUsLevelInfo@CApplication@@@Z ; stlp_std::priv::_STLP_alloc_proxy<CApplication::sLevelInfo *,CApplication::sLevelInfo,xalloc<CApplication::sLevelInfo> >::_STLP_alloc_proxy<CApplication::sLevelInfo *,CApplication::sLevelInfo,xalloc<CApplication::sLevelInfo> >
PUBLIC	??0?$_Vector_base@UsLevelInfo@CApplication@@V?$xalloc@UsLevelInfo@CApplication@@@@@priv@stlp_std@@QAE@ABV?$xalloc@UsLevelInfo@CApplication@@@@@Z ; stlp_std::priv::_Vector_base<CApplication::sLevelInfo,xalloc<CApplication::sLevelInfo> >::_Vector_base<CApplication::sLevelInfo,xalloc<CApplication::sLevelInfo> >
PUBLIC	??0?$_Impl_vector@UsLevelInfo@CApplication@@V?$xalloc@UsLevelInfo@CApplication@@@@@priv@stlp_std@@QAE@ABV?$xalloc@UsLevelInfo@CApplication@@@@@Z ; stlp_std::priv::_Impl_vector<CApplication::sLevelInfo,xalloc<CApplication::sLevelInfo> >::_Impl_vector<CApplication::sLevelInfo,xalloc<CApplication::sLevelInfo> >
PUBLIC	??0?$vector@UsLevelInfo@CApplication@@V?$xalloc@UsLevelInfo@CApplication@@@@@stlp_std@@QAE@ABV?$xalloc@UsLevelInfo@CApplication@@@@@Z ; stlp_std::vector<CApplication::sLevelInfo,xalloc<CApplication::sLevelInfo> >::vector<CApplication::sLevelInfo,xalloc<CApplication::sLevelInfo> >
PUBLIC	??0?$xr_vector@UsLevelInfo@CApplication@@V?$xalloc@UsLevelInfo@CApplication@@@@@@QAE@XZ ; xr_vector<CApplication::sLevelInfo,xalloc<CApplication::sLevelInfo> >::xr_vector<CApplication::sLevelInfo,xalloc<CApplication::sLevelInfo> >
PUBLIC	?DestroyObject@?$FactoryPtr@VIApplicationRender@@@@AAEXXZ ; FactoryPtr<IApplicationRender>::DestroyObject
PUBLIC	??1?$FactoryPtr@VIApplicationRender@@@@QAE@XZ	; FactoryPtr<IApplicationRender>::~FactoryPtr<IApplicationRender>
PUBLIC	?empty@?$_Impl_vector@U_REG_INFO@@V?$xalloc@U_REG_INFO@@@@@priv@stlp_std@@QBE_NXZ ; stlp_std::priv::_Impl_vector<_REG_INFO,xalloc<_REG_INFO> >::empty
PUBLIC	?empty@?$vector@U_REG_INFO@@V?$xalloc@U_REG_INFO@@@@@stlp_std@@QBE_NXZ ; stlp_std::vector<_REG_INFO,xalloc<_REG_INFO> >::empty
PUBLIC	??$__destroy_aux@U_REG_INFO@@@stlp_std@@YAXPAU_REG_INFO@@ABU__true_type@0@@Z ; stlp_std::__destroy_aux<_REG_INFO>
PUBLIC	??$_Destroy@U_REG_INFO@@@stlp_std@@YAXPAU_REG_INFO@@@Z ; stlp_std::_Destroy<_REG_INFO>
PUBLIC	?pop_back@?$_Impl_vector@U_REG_INFO@@V?$xalloc@U_REG_INFO@@@@@priv@stlp_std@@QAEXXZ ; stlp_std::priv::_Impl_vector<_REG_INFO,xalloc<_REG_INFO> >::pop_back
PUBLIC	?pop_back@?$vector@U_REG_INFO@@V?$xalloc@U_REG_INFO@@@@@stlp_std@@QAEXXZ ; stlp_std::vector<_REG_INFO,xalloc<_REG_INFO> >::pop_back
PUBLIC	?size@?$vector@U_REG_INFO@@V?$xalloc@U_REG_INFO@@@@@stlp_std@@QBEIXZ ; stlp_std::vector<_REG_INFO,xalloc<_REG_INFO> >::size
PUBLIC	?size@?$xr_vector@U_REG_INFO@@V?$xalloc@U_REG_INFO@@@@@@QBEIXZ ; xr_vector<_REG_INFO,xalloc<_REG_INFO> >::size
PUBLIC	??$__copy_ptrs@PAU_REG_INFO@@PAU1@@priv@stlp_std@@YAPAU_REG_INFO@@PAU2@00ABU__true_type@1@@Z ; stlp_std::priv::__copy_ptrs<_REG_INFO *,_REG_INFO *>
PUBLIC	?_M_erase@?$_Impl_vector@U_REG_INFO@@V?$xalloc@U_REG_INFO@@@@@priv@stlp_std@@AAEPAU_REG_INFO@@PAU4@0ABU__false_type@3@@Z ; stlp_std::priv::_Impl_vector<_REG_INFO,xalloc<_REG_INFO> >::_M_erase
PUBLIC	?erase@?$_Impl_vector@U_REG_INFO@@V?$xalloc@U_REG_INFO@@@@@priv@stlp_std@@QAEPAU_REG_INFO@@PAU4@0@Z ; stlp_std::priv::_Impl_vector<_REG_INFO,xalloc<_REG_INFO> >::erase
PUBLIC	?clear@?$_Impl_vector@U_REG_INFO@@V?$xalloc@U_REG_INFO@@@@@priv@stlp_std@@QAEXXZ ; stlp_std::priv::_Impl_vector<_REG_INFO,xalloc<_REG_INFO> >::clear
PUBLIC	?clear@?$vector@U_REG_INFO@@V?$xalloc@U_REG_INFO@@@@@stlp_std@@QAEXXZ ; stlp_std::vector<_REG_INFO,xalloc<_REG_INFO> >::clear
PUBLIC	?clear_and_free@?$xr_vector@U_REG_INFO@@V?$xalloc@U_REG_INFO@@@@@@QAEXXZ ; xr_vector<_REG_INFO,xalloc<_REG_INFO> >::clear_and_free
PUBLIC	?clear@?$xr_vector@U_REG_INFO@@V?$xalloc@U_REG_INFO@@@@@@QAEXXZ ; xr_vector<_REG_INFO,xalloc<_REG_INFO> >::clear
PUBLIC	?to_value_type_ptr@?$_CastTraits@U_REG_INFO@@U1@@priv@stlp_std@@SAPAU_REG_INFO@@PAU4@@Z ; stlp_std::priv::_CastTraits<_REG_INFO,_REG_INFO>::to_value_type_ptr
PUBLIC	?begin@?$vector@U_REG_INFO@@V?$xalloc@U_REG_INFO@@@@@stlp_std@@QAEPAU_REG_INFO@@XZ ; stlp_std::vector<_REG_INFO,xalloc<_REG_INFO> >::begin
PUBLIC	??A?$xr_vector@U_REG_INFO@@V?$xalloc@U_REG_INFO@@@@@@QAEAAU_REG_INFO@@I@Z ; xr_vector<_REG_INFO,xalloc<_REG_INFO> >::operator[]
PUBLIC	?_REG_Compare@?$CRegistrator@VpureFrame@@@@CAHPBX0@Z ; CRegistrator<pureFrame>::_REG_Compare
PUBLIC	?Resort@?$CRegistrator@VpureFrame@@@@QAEXXZ	; CRegistrator<pureFrame>::Resort
PUBLIC	?Remove@?$CRegistrator@VpureFrame@@@@QAEXPAVpureFrame@@@Z ; CRegistrator<pureFrame>::Remove
PUBLIC	??1?$_Vector_base@UsLevelInfo@CApplication@@V?$xalloc@UsLevelInfo@CApplication@@@@@priv@stlp_std@@QAE@XZ ; stlp_std::priv::_Vector_base<CApplication::sLevelInfo,xalloc<CApplication::sLevelInfo> >::~_Vector_base<CApplication::sLevelInfo,xalloc<CApplication::sLevelInfo> >
PUBLIC	??1?$_Impl_vector@UsLevelInfo@CApplication@@V?$xalloc@UsLevelInfo@CApplication@@@@@priv@stlp_std@@QAE@XZ ; stlp_std::priv::_Impl_vector<CApplication::sLevelInfo,xalloc<CApplication::sLevelInfo> >::~_Impl_vector<CApplication::sLevelInfo,xalloc<CApplication::sLevelInfo> >
PUBLIC	??1?$vector@UsLevelInfo@CApplication@@V?$xalloc@UsLevelInfo@CApplication@@@@@stlp_std@@QAE@XZ ; stlp_std::vector<CApplication::sLevelInfo,xalloc<CApplication::sLevelInfo> >::~vector<CApplication::sLevelInfo,xalloc<CApplication::sLevelInfo> >
PUBLIC	??1?$xr_vector@UsLevelInfo@CApplication@@V?$xalloc@UsLevelInfo@CApplication@@@@@@QAE@XZ ; xr_vector<CApplication::sLevelInfo,xalloc<CApplication::sLevelInfo> >::~xr_vector<CApplication::sLevelInfo,xalloc<CApplication::sLevelInfo> >
PUBLIC	??_GCGameFont@@QAEPAXI@Z			; CGameFont::`scalar deleting destructor'
PUBLIC	??R?$xr_special_free@$0A@VCGameFont@@@@QAEXAAPAVCGameFont@@@Z ; xr_special_free<0,CGameFont>::operator()
PUBLIC	??$xr_delete@VCGameFont@@@@YAXAAPAVCGameFont@@@Z ; xr_delete<CGameFont>
PUBLIC	??0?$allocator@D@stlp_std@@QAE@XZ		; stlp_std::allocator<char>::allocator<char>
PUBLIC	?length@?$char_traits@D@stlp_std@@SAIPBD@Z	; stlp_std::char_traits<char>::length
PUBLIC	??0?$allocator@D@stlp_std@@QAE@ABV01@@Z		; stlp_std::allocator<char>::allocator<char>
PUBLIC	??0?$_STLP_alloc_proxy@PADDV?$allocator@D@stlp_std@@@priv@stlp_std@@QAE@ABV?$allocator@D@2@PAD@Z ; stlp_std::priv::_STLP_alloc_proxy<char *,char,stlp_std::allocator<char> >::_STLP_alloc_proxy<char *,char,stlp_std::allocator<char> >
PUBLIC	??0?$_String_base@DV?$allocator@D@stlp_std@@@priv@stlp_std@@IAE@ABV?$allocator@D@2@@Z ; stlp_std::priv::_String_base<char,stlp_std::allocator<char> >::_String_base<char,stlp_std::allocator<char> >
PUBLIC	?uninitialized_copy@stlp_std@@YAPADPBD0PAD@Z	; stlp_std::uninitialized_copy
PUBLIC	?_M_Start@?$_String_base@DV?$allocator@D@stlp_std@@@priv@stlp_std@@IAEPADXZ ; stlp_std::priv::_String_base<char,stlp_std::allocator<char> >::_M_Start
PUBLIC	?__stl_new@stlp_std@@YAPAXI@Z			; stlp_std::__stl_new
PUBLIC	?allocate@__new_alloc@stlp_std@@SAPAXI@Z	; stlp_std::__new_alloc::allocate
PUBLIC	?allocate@?$allocator@D@stlp_std@@QAEPADIAAI@Z	; stlp_std::allocator<char>::allocate
PUBLIC	?allocate@?$_STLP_alloc_proxy@PADDV?$allocator@D@stlp_std@@@priv@stlp_std@@AAEPADIAAIABU__true_type@3@@Z ; stlp_std::priv::_STLP_alloc_proxy<char *,char,stlp_std::allocator<char> >::allocate
PUBLIC	?allocate@?$_STLP_alloc_proxy@PADDV?$allocator@D@stlp_std@@@priv@stlp_std@@QAEPADIAAI@Z ; stlp_std::priv::_STLP_alloc_proxy<char *,char,stlp_std::allocator<char> >::allocate
PUBLIC	??$min@I@stlp_std@@YAABIABI0@Z			; stlp_std::min<unsigned int>
PUBLIC	?max_size@?$allocator@D@stlp_std@@QBEIXZ	; stlp_std::allocator<char>::max_size
PUBLIC	?max_size@?$_String_base@DV?$allocator@D@stlp_std@@@priv@stlp_std@@IBEIXZ ; stlp_std::priv::_String_base<char,stlp_std::allocator<char> >::max_size
PUBLIC	?__stl_throw_length_error@stlp_std@@YAXPBD@Z	; stlp_std::__stl_throw_length_error
PUBLIC	?_M_throw_length_error@?$_String_base@DV?$allocator@D@stlp_std@@@priv@stlp_std@@IBEXXZ ; stlp_std::priv::_String_base<char,stlp_std::allocator<char> >::_M_throw_length_error
PUBLIC	?_M_allocate_block@?$_String_base@DV?$allocator@D@stlp_std@@@priv@stlp_std@@IAEXI@Z ; stlp_std::priv::_String_base<char,stlp_std::allocator<char> >::_M_allocate_block
PUBLIC	?_M_Finish@?$_String_base@DV?$allocator@D@stlp_std@@@priv@stlp_std@@IAEPADXZ ; stlp_std::priv::_String_base<char,stlp_std::allocator<char> >::_M_Finish
PUBLIC	?_M_construct_null_aux@?$basic_string@DV?$char_traits@D@stlp_std@@V?$allocator@D@2@@stlp_std@@IBEXPADABU__true_type@2@@Z ; stlp_std::basic_string<char,stlp_std::char_traits<char>,stlp_std::allocator<char> >::_M_construct_null_aux
PUBLIC	?_M_terminate_string_aux@?$basic_string@DV?$char_traits@D@stlp_std@@V?$allocator@D@2@@stlp_std@@IAEXABU__true_type@2@@Z ; stlp_std::basic_string<char,stlp_std::char_traits<char>,stlp_std::allocator<char> >::_M_terminate_string_aux
PUBLIC	?_M_force_terminate_string@?$basic_string@DV?$char_traits@D@stlp_std@@V?$allocator@D@2@@stlp_std@@IAEXABU__false_type@2@@Z ; stlp_std::basic_string<char,stlp_std::char_traits<char>,stlp_std::allocator<char> >::_M_force_terminate_string
PUBLIC	?_M_terminate_string@?$basic_string@DV?$char_traits@D@stlp_std@@V?$allocator@D@2@@stlp_std@@IAEXXZ ; stlp_std::basic_string<char,stlp_std::char_traits<char>,stlp_std::allocator<char> >::_M_terminate_string
PUBLIC	?copy@?$__char_traits_base@DH@stlp_std@@SAPADPADPBDI@Z ; stlp_std::__char_traits_base<char,int>::copy
PUBLIC	?_M_copy@?$basic_string@DV?$char_traits@D@stlp_std@@V?$allocator@D@2@@stlp_std@@IAEXPBD0PAD@Z ; stlp_std::basic_string<char,stlp_std::char_traits<char>,stlp_std::allocator<char> >::_M_copy
PUBLIC	?_M_range_initialize@?$basic_string@DV?$char_traits@D@stlp_std@@V?$allocator@D@2@@stlp_std@@IAEXPBD0@Z ; stlp_std::basic_string<char,stlp_std::char_traits<char>,stlp_std::allocator<char> >::_M_range_initialize
PUBLIC	??0?$basic_string@DV?$char_traits@D@stlp_std@@V?$allocator@D@2@@stlp_std@@QAE@PBDABV?$allocator@D@1@@Z ; stlp_std::basic_string<char,stlp_std::char_traits<char>,stlp_std::allocator<char> >::basic_string<char,stlp_std::char_traits<char>,stlp_std::allocator<char> >
PUBLIC	??1?$allocator@D@stlp_std@@QAE@XZ		; stlp_std::allocator<char>::~allocator<char>
PUBLIC	??1?$_STLP_alloc_proxy@PADDV?$allocator@D@stlp_std@@@priv@stlp_std@@QAE@XZ ; stlp_std::priv::_STLP_alloc_proxy<char *,char,stlp_std::allocator<char> >::~_STLP_alloc_proxy<char *,char,stlp_std::allocator<char> >
PUBLIC	?__stl_delete@stlp_std@@YAXPAX@Z		; stlp_std::__stl_delete
PUBLIC	?deallocate@__new_alloc@stlp_std@@SAXPAXI@Z	; stlp_std::__new_alloc::deallocate
PUBLIC	?deallocate@?$allocator@D@stlp_std@@QAEXPADI@Z	; stlp_std::allocator<char>::deallocate
PUBLIC	?_M_deallocate_block@?$_String_base@DV?$allocator@D@stlp_std@@@priv@stlp_std@@IAEXXZ ; stlp_std::priv::_String_base<char,stlp_std::allocator<char> >::_M_deallocate_block
PUBLIC	??1?$_String_base@DV?$allocator@D@stlp_std@@@priv@stlp_std@@IAE@XZ ; stlp_std::priv::_String_base<char,stlp_std::allocator<char> >::~_String_base<char,stlp_std::allocator<char> >
PUBLIC	?_Destroy_Range@stlp_std@@YAXPAD0@Z		; stlp_std::_Destroy_Range
PUBLIC	?_M_using_static_buf@?$_String_base@DV?$allocator@D@stlp_std@@@priv@stlp_std@@IBE_NXZ ; stlp_std::priv::_String_base<char,stlp_std::allocator<char> >::_M_using_static_buf
PUBLIC	?_M_destroy_range@?$_String_base@DV?$allocator@D@stlp_std@@@priv@stlp_std@@IAEXII@Z ; stlp_std::priv::_String_base<char,stlp_std::allocator<char> >::_M_destroy_range
PUBLIC	??1?$basic_string@DV?$char_traits@D@stlp_std@@V?$allocator@D@2@@stlp_std@@QAE@XZ ; stlp_std::basic_string<char,stlp_std::char_traits<char>,stlp_std::allocator<char> >::~basic_string<char,stlp_std::char_traits<char>,stlp_std::allocator<char> >
PUBLIC	?make_string@@YA?AV?$basic_string@DV?$char_traits@D@stlp_std@@V?$allocator@D@2@@stlp_std@@PBDZZ ; make_string
PUBLIC	??0?$xalloc@Vshared_str@@@@QAE@XZ		; xalloc<shared_str>::xalloc<shared_str>
PUBLIC	??0?$_Vector_base@Vshared_str@@V?$xalloc@Vshared_str@@@@@priv@stlp_std@@QAE@ABV?$xalloc@Vshared_str@@@@@Z ; stlp_std::priv::_Vector_base<shared_str,xalloc<shared_str> >::_Vector_base<shared_str,xalloc<shared_str> >
PUBLIC	??0?$_Impl_vector@Vshared_str@@V?$xalloc@Vshared_str@@@@@priv@stlp_std@@QAE@ABV?$xalloc@Vshared_str@@@@@Z ; stlp_std::priv::_Impl_vector<shared_str,xalloc<shared_str> >::_Impl_vector<shared_str,xalloc<shared_str> >
PUBLIC	??0?$vector@Vshared_str@@V?$xalloc@Vshared_str@@@@@stlp_std@@QAE@ABV?$xalloc@Vshared_str@@@@@Z ; stlp_std::vector<shared_str,xalloc<shared_str> >::vector<shared_str,xalloc<shared_str> >
PUBLIC	??0?$xr_vector@Vshared_str@@V?$xalloc@Vshared_str@@@@@@QAE@XZ ; xr_vector<shared_str,xalloc<shared_str> >::xr_vector<shared_str,xalloc<shared_str> >
PUBLIC	??0path_excluder_predicate@@QAE@PBV?$xr_vector@Vshared_str@@V?$xalloc@Vshared_str@@@@@@@Z ; path_excluder_predicate::path_excluder_predicate
PUBLIC	?is_allow_include@path_excluder_predicate@@QAG_NPBD@Z ; path_excluder_predicate::is_allow_include
PUBLIC	?clear@DelegateMemento@fastdelegate@@QAEXXZ	; fastdelegate::DelegateMemento::clear
PUBLIC	?clear@?$FastDelegate1@PBD_N@fastdelegate@@QAEXXZ ; fastdelegate::FastDelegate1<char const *,bool>::clear
PUBLIC	??0?$FastDelegate1@PBD_N@fastdelegate@@QAE@XZ	; fastdelegate::FastDelegate1<char const *,bool>::FastDelegate1<char const *,bool>
PUBLIC	??0?$FastDelegate@$$A6A_NPBD@Z@fastdelegate@@QAE@XZ ; fastdelegate::FastDelegate<bool __cdecl(char const *)>::FastDelegate<bool __cdecl(char const *)>
PUBLIC	??$xr_new@VCInifile@@$$BY0CAI@DH@@YAPAVCInifile@@AAY0CAI@$$CBDABH@Z ; xr_new<CInifile,char [520],int>
PUBLIC	??$implicit_cast@PAUpath_excluder_predicate@@PAU1@@detail@fastdelegate@@YAPAUpath_excluder_predicate@@PAU2@@Z ; fastdelegate::detail::implicit_cast<path_excluder_predicate *,path_excluder_predicate *>
PUBLIC	??$Convert@Upath_excluder_predicate@@P81@AG_NPBD@ZP8GenericClass@detail@fastdelegate@@AEXXZ@?$SimplifyMemFunc@$03@detail@fastdelegate@@SGPAVGenericClass@12@PAUpath_excluder_predicate@@P84@AG_NPBD@ZAAP8312@AEXXZ@Z ; fastdelegate::detail::SimplifyMemFunc<4>::Convert<path_excluder_predicate,bool (__stdcall path_excluder_predicate::*)(char const *),void (__thiscall fastdelegate::detail::GenericClass::*)(void)>
PUBLIC	??$bindmemfunc@Upath_excluder_predicate@@P81@AG_NPBD@Z@?$ClosurePtr@P8GenericClass@detail@fastdelegate@@AG_NPBD@ZP6G_N0@ZP6G_N0@Z@detail@fastdelegate@@QAEXPAUpath_excluder_predicate@@P83@AG_NPBD@Z@Z ; fastdelegate::detail::ClosurePtr<bool (__stdcall fastdelegate::detail::GenericClass::*)(char const *),bool (__stdcall*)(char const *),bool (__stdcall*)(char const *)>::bindmemfunc<path_excluder_predicate,bool (__stdcall path_excluder_predicate::*)(char const *)>
PUBLIC	??$bind@Upath_excluder_predicate@@U1@@?$FastDelegate1@PBD_N@fastdelegate@@QAEXPAUpath_excluder_predicate@@P82@AG_NPBD@Z@Z ; fastdelegate::FastDelegate1<char const *,bool>::bind<path_excluder_predicate,path_excluder_predicate>
PUBLIC	??0?$ClosurePtr@P8GenericClass@detail@fastdelegate@@AG_NPBD@ZP6G_N0@ZP6G_N0@Z@detail@fastdelegate@@QAE@XZ ; fastdelegate::detail::ClosurePtr<bool (__stdcall fastdelegate::detail::GenericClass::*)(char const *),bool (__stdcall*)(char const *),bool (__stdcall*)(char const *)>::ClosurePtr<bool (__stdcall fastdelegate::detail::GenericClass::*)(char const *),bool (__stdcall*)(char const *),bool (__stdcall*)(char const *)>
PUBLIC	??$CopyFrom@V?$FastDelegate1@PBD_N@fastdelegate@@@?$ClosurePtr@P8GenericClass@detail@fastdelegate@@AG_NPBD@ZP6G_N0@ZP6G_N0@Z@detail@fastdelegate@@QAEXPAV?$FastDelegate1@PBD_N@2@ABVDelegateMemento@2@@Z ; fastdelegate::detail::ClosurePtr<bool (__stdcall fastdelegate::detail::GenericClass::*)(char const *),bool (__stdcall*)(char const *),bool (__stdcall*)(char const *)>::CopyFrom<fastdelegate::FastDelegate1<char const *,bool> >
PUBLIC	??0?$FastDelegate1@PBD_N@fastdelegate@@QAE@ABV01@@Z ; fastdelegate::FastDelegate1<char const *,bool>::FastDelegate1<char const *,bool>
PUBLIC	??0?$FastDelegate@$$A6A_NPBD@Z@fastdelegate@@QAE@ABV01@@Z ; fastdelegate::FastDelegate<bool __cdecl(char const *)>::FastDelegate<bool __cdecl(char const *)>
PUBLIC	??$xr_new@VCInifile@@$$BY0CAI@DHHHHV?$FastDelegate@$$A6A_NPBD@Z@fastdelegate@@@@YAPAVCInifile@@AAY0CAI@$$CBDABH111ABV?$FastDelegate@$$A6A_NPBD@Z@fastdelegate@@@Z ; xr_new<CInifile,char [520],int,int,int,int,fastdelegate::FastDelegate<bool __cdecl(char const *)> >
PUBLIC	?c_str@shared_str@@QBEPBDXZ			; shared_str::c_str
PUBLIC	??$xr_new@VCConsole@@@@YAPAVCConsole@@XZ	; xr_new<CConsole>
PUBLIC	??$xr_strcpy@$0EA@@@YAHAAY0EA@DPBD@Z		; xr_strcpy<64>
PUBLIC	?set@?$_vector2@M@@QAEAAU1@MM@Z			; _vector2<float>::set
PUBLIC	??$xr_new@VCInput@@H@@YAPAVCInput@@ABH@Z	; xr_new<CInput,int>
PUBLIC	??1?$xr_vector@U?$_vector3@M@@V?$xalloc@U?$_vector3@M@@@@@@QAE@XZ ; xr_vector<_vector3<float>,xalloc<_vector3<float> > >::~xr_vector<_vector3<float>,xalloc<_vector3<float> > >
PUBLIC	??0?$_STLP_alloc_proxy@PAU?$_vector3@M@@U1@V?$xalloc@U?$_vector3@M@@@@@priv@stlp_std@@QAE@ABV?$xalloc@U?$_vector3@M@@@@PAU?$_vector3@M@@@Z ; stlp_std::priv::_STLP_alloc_proxy<_vector3<float> *,_vector3<float>,xalloc<_vector3<float> > >::_STLP_alloc_proxy<_vector3<float> *,_vector3<float>,xalloc<_vector3<float> > >
PUBLIC	??0?$_Vector_base@U?$_vector3@M@@V?$xalloc@U?$_vector3@M@@@@@priv@stlp_std@@QAE@IABV?$xalloc@U?$_vector3@M@@@@@Z ; stlp_std::priv::_Vector_base<_vector3<float>,xalloc<_vector3<float> > >::_Vector_base<_vector3<float>,xalloc<_vector3<float> > >
PUBLIC	??0?$xalloc@U?$_vector3@M@@@@QAE@ABV0@@Z	; xalloc<_vector3<float> >::xalloc<_vector3<float> >
PUBLIC	?get_allocator@?$_Impl_vector@U?$_vector3@M@@V?$xalloc@U?$_vector3@M@@@@@priv@stlp_std@@QBE?AV?$xalloc@U?$_vector3@M@@@@XZ ; stlp_std::priv::_Impl_vector<_vector3<float>,xalloc<_vector3<float> > >::get_allocator
PUBLIC	?begin@?$_Impl_vector@U?$_vector3@M@@V?$xalloc@U?$_vector3@M@@@@@priv@stlp_std@@QBEPBU?$_vector3@M@@XZ ; stlp_std::priv::_Impl_vector<_vector3<float>,xalloc<_vector3<float> > >::begin
PUBLIC	?end@?$_Impl_vector@U?$_vector3@M@@V?$xalloc@U?$_vector3@M@@@@@priv@stlp_std@@QBEPBU?$_vector3@M@@XZ ; stlp_std::priv::_Impl_vector<_vector3<float>,xalloc<_vector3<float> > >::end
PUBLIC	??0?$_Impl_vector@U?$_vector3@M@@V?$xalloc@U?$_vector3@M@@@@@priv@stlp_std@@QAE@ABV012@@Z ; stlp_std::priv::_Impl_vector<_vector3<float>,xalloc<_vector3<float> > >::_Impl_vector<_vector3<float>,xalloc<_vector3<float> > >
PUBLIC	??0?$vector@U?$_vector3@M@@V?$xalloc@U?$_vector3@M@@@@@stlp_std@@QAE@ABV01@@Z ; stlp_std::vector<_vector3<float>,xalloc<_vector3<float> > >::vector<_vector3<float>,xalloc<_vector3<float> > >
PUBLIC	??1?$_Vector_base@U?$_vector3@M@@V?$xalloc@U?$_vector3@M@@@@@priv@stlp_std@@QAE@XZ ; stlp_std::priv::_Vector_base<_vector3<float>,xalloc<_vector3<float> > >::~_Vector_base<_vector3<float>,xalloc<_vector3<float> > >
PUBLIC	??1?$_Impl_vector@U?$_vector3@M@@V?$xalloc@U?$_vector3@M@@@@@priv@stlp_std@@QAE@XZ ; stlp_std::priv::_Impl_vector<_vector3<float>,xalloc<_vector3<float> > >::~_Impl_vector<_vector3<float>,xalloc<_vector3<float> > >
PUBLIC	??1?$vector@U?$_vector3@M@@V?$xalloc@U?$_vector3@M@@@@@stlp_std@@QAE@XZ ; stlp_std::vector<_vector3<float>,xalloc<_vector3<float> > >::~vector<_vector3<float>,xalloc<_vector3<float> > >
PUBLIC	??0?$xr_vector@U?$_vector3@M@@V?$xalloc@U?$_vector3@M@@@@@@QAE@ABV0@@Z ; xr_vector<_vector3<float>,xalloc<_vector3<float> > >::xr_vector<_vector3<float>,xalloc<_vector3<float> > >
PUBLIC	??1?$xr_vector@GV?$xalloc@G@@@@QAE@XZ		; xr_vector<unsigned short,xalloc<unsigned short> >::~xr_vector<unsigned short,xalloc<unsigned short> >
PUBLIC	??0?$_STLP_alloc_proxy@PAGGV?$xalloc@G@@@priv@stlp_std@@QAE@ABV?$xalloc@G@@PAG@Z ; stlp_std::priv::_STLP_alloc_proxy<unsigned short *,unsigned short,xalloc<unsigned short> >::_STLP_alloc_proxy<unsigned short *,unsigned short,xalloc<unsigned short> >
PUBLIC	??0?$_Vector_base@GV?$xalloc@G@@@priv@stlp_std@@QAE@IABV?$xalloc@G@@@Z ; stlp_std::priv::_Vector_base<unsigned short,xalloc<unsigned short> >::_Vector_base<unsigned short,xalloc<unsigned short> >
PUBLIC	??0?$xalloc@G@@QAE@ABV0@@Z			; xalloc<unsigned short>::xalloc<unsigned short>
PUBLIC	?get_allocator@?$_Impl_vector@GV?$xalloc@G@@@priv@stlp_std@@QBE?AV?$xalloc@G@@XZ ; stlp_std::priv::_Impl_vector<unsigned short,xalloc<unsigned short> >::get_allocator
PUBLIC	?begin@?$_Impl_vector@GV?$xalloc@G@@@priv@stlp_std@@QBEPBGXZ ; stlp_std::priv::_Impl_vector<unsigned short,xalloc<unsigned short> >::begin
PUBLIC	?end@?$_Impl_vector@GV?$xalloc@G@@@priv@stlp_std@@QBEPBGXZ ; stlp_std::priv::_Impl_vector<unsigned short,xalloc<unsigned short> >::end
PUBLIC	??0?$_Impl_vector@GV?$xalloc@G@@@priv@stlp_std@@QAE@ABV012@@Z ; stlp_std::priv::_Impl_vector<unsigned short,xalloc<unsigned short> >::_Impl_vector<unsigned short,xalloc<unsigned short> >
PUBLIC	??0?$vector@GV?$xalloc@G@@@stlp_std@@QAE@ABV01@@Z ; stlp_std::vector<unsigned short,xalloc<unsigned short> >::vector<unsigned short,xalloc<unsigned short> >
PUBLIC	??1?$_Vector_base@GV?$xalloc@G@@@priv@stlp_std@@QAE@XZ ; stlp_std::priv::_Vector_base<unsigned short,xalloc<unsigned short> >::~_Vector_base<unsigned short,xalloc<unsigned short> >
PUBLIC	??1?$_Impl_vector@GV?$xalloc@G@@@priv@stlp_std@@QAE@XZ ; stlp_std::priv::_Impl_vector<unsigned short,xalloc<unsigned short> >::~_Impl_vector<unsigned short,xalloc<unsigned short> >
PUBLIC	??1?$vector@GV?$xalloc@G@@@stlp_std@@QAE@XZ	; stlp_std::vector<unsigned short,xalloc<unsigned short> >::~vector<unsigned short,xalloc<unsigned short> >
PUBLIC	??0?$xr_vector@GV?$xalloc@G@@@@QAE@ABV0@@Z	; xr_vector<unsigned short,xalloc<unsigned short> >::xr_vector<unsigned short,xalloc<unsigned short> >
PUBLIC	?DestroyObject@?$FactoryPtr@VIEnvironmentRender@@@@AAEXXZ ; FactoryPtr<IEnvironmentRender>::DestroyObject
PUBLIC	??1?$FactoryPtr@VIEnvironmentRender@@@@QAE@XZ	; FactoryPtr<IEnvironmentRender>::~FactoryPtr<IEnvironmentRender>
PUBLIC	?CreateObject@?$FactoryPtr@VIEnvironmentRender@@@@AAEXXZ ; FactoryPtr<IEnvironmentRender>::CreateObject
PUBLIC	??0?$FactoryPtr@VIEnvironmentRender@@@@QAE@ABV0@@Z ; FactoryPtr<IEnvironmentRender>::FactoryPtr<IEnvironmentRender>
PUBLIC	??1?$xr_vector@PAVCEnvAmbient@@V?$xalloc@PAVCEnvAmbient@@@@@@QAE@XZ ; xr_vector<CEnvAmbient *,xalloc<CEnvAmbient *> >::~xr_vector<CEnvAmbient *,xalloc<CEnvAmbient *> >
PUBLIC	??0?$vector@PAVCEnvAmbient@@V?$xalloc@PAVCEnvAmbient@@@@@stlp_std@@QAE@ABV01@@Z ; stlp_std::vector<CEnvAmbient *,xalloc<CEnvAmbient *> >::vector<CEnvAmbient *,xalloc<CEnvAmbient *> >
PUBLIC	??1?$vector@PAVCEnvAmbient@@V?$xalloc@PAVCEnvAmbient@@@@@stlp_std@@QAE@XZ ; stlp_std::vector<CEnvAmbient *,xalloc<CEnvAmbient *> >::~vector<CEnvAmbient *,xalloc<CEnvAmbient *> >
PUBLIC	??0?$xr_vector@PAVCEnvAmbient@@V?$xalloc@PAVCEnvAmbient@@@@@@QAE@ABV0@@Z ; xr_vector<CEnvAmbient *,xalloc<CEnvAmbient *> >::xr_vector<CEnvAmbient *,xalloc<CEnvAmbient *> >
PUBLIC	??1?$xr_map@Vshared_str@@V?$xr_vector@PAVCEnvDescriptor@@V?$xalloc@PAVCEnvDescriptor@@@@@@Ustr_pred@CEnvironment@@V?$xalloc@U?$pair@Vshared_str@@V?$xr_vector@PAVCEnvDescriptor@@V?$xalloc@PAVCEnvDescriptor@@@@@@@stlp_std@@@@@@QAE@XZ ; xr_map<shared_str,xr_vector<CEnvDescriptor *,xalloc<CEnvDescriptor *> >,CEnvironment::str_pred,xalloc<stlp_std::pair<shared_str,xr_vector<CEnvDescriptor *,xalloc<CEnvDescriptor *> > > > >::~xr_map<shared_str,xr_vector<CEnvDescriptor *,xalloc<CEnvDescriptor *> >,CEnvironment::str_pred,xalloc<stlp_std::pair<shared_str,xr_vector<CEnvDescriptor *,xalloc<CEnvDescriptor *> > > > >
PUBLIC	??$?0U?$_Rb_tree_node@U?$pair@$$CBVshared_str@@V?$xr_vector@PAVCEnvDescriptor@@V?$xalloc@PAVCEnvDescriptor@@@@@@@stlp_std@@@priv@stlp_std@@@?$xalloc@U?$pair@$$CBVshared_str@@V?$xr_vector@PAVCEnvDescriptor@@V?$xalloc@PAVCEnvDescriptor@@@@@@@stlp_std@@@@QAE@ABV?$xalloc@U?$_Rb_tree_node@U?$pair@$$CBVshared_str@@V?$xr_vector@PAVCEnvDescriptor@@V?$xalloc@PAVCEnvDescriptor@@@@@@@stlp_std@@@priv@stlp_std@@@@@Z ; xalloc<stlp_std::pair<shared_str const ,xr_vector<CEnvDescriptor *,xalloc<CEnvDescriptor *> > > >::xalloc<stlp_std::pair<shared_str const ,xr_vector<CEnvDescriptor *,xalloc<CEnvDescriptor *> > > ><stlp_std::priv::_Rb_tree_node<stlp_std::pair<shared_str const ,xr_vector<CEnvDescriptor *,xalloc<CEnvDescriptor *> > > > >
PUBLIC	?get_allocator@?$_Rb_tree_base@U?$pair@$$CBVshared_str@@V?$xr_vector@PAVCEnvDescriptor@@V?$xalloc@PAVCEnvDescriptor@@@@@@@stlp_std@@V?$xalloc@U?$pair@Vshared_str@@V?$xr_vector@PAVCEnvDescriptor@@V?$xalloc@PAVCEnvDescriptor@@@@@@@stlp_std@@@@@priv@stlp_std@@QBE?AV?$xalloc@U?$pair@$$CBVshared_str@@V?$xr_vector@PAVCEnvDescriptor@@V?$xalloc@PAVCEnvDescriptor@@@@@@@stlp_std@@@@XZ ; stlp_std::priv::_Rb_tree_base<stlp_std::pair<shared_str const ,xr_vector<CEnvDescriptor *,xalloc<CEnvDescriptor *> > >,xalloc<stlp_std::pair<shared_str,xr_vector<CEnvDescriptor *,xalloc<CEnvDescriptor *> > > > >::get_allocator
PUBLIC	?_M_empty_initialize@?$_Rb_tree_base@U?$pair@$$CBVshared_str@@V?$xr_vector@PAVCEnvDescriptor@@V?$xalloc@PAVCEnvDescriptor@@@@@@@stlp_std@@V?$xalloc@U?$pair@Vshared_str@@V?$xr_vector@PAVCEnvDescriptor@@V?$xalloc@PAVCEnvDescriptor@@@@@@@stlp_std@@@@@priv@stlp_std@@IAEXXZ ; stlp_std::priv::_Rb_tree_base<stlp_std::pair<shared_str const ,xr_vector<CEnvDescriptor *,xalloc<CEnvDescriptor *> > >,xalloc<stlp_std::pair<shared_str,xr_vector<CEnvDescriptor *,xalloc<CEnvDescriptor *> > > > >::_M_empty_initialize
PUBLIC	??0?$xalloc@U?$_Rb_tree_node@U?$pair@$$CBVshared_str@@V?$xr_vector@PAVCEnvDescriptor@@V?$xalloc@PAVCEnvDescriptor@@@@@@@stlp_std@@@priv@stlp_std@@@@QAE@ABV0@@Z ; xalloc<stlp_std::priv::_Rb_tree_node<stlp_std::pair<shared_str const ,xr_vector<CEnvDescriptor *,xalloc<CEnvDescriptor *> > > > >::xalloc<stlp_std::priv::_Rb_tree_node<stlp_std::pair<shared_str const ,xr_vector<CEnvDescriptor *,xalloc<CEnvDescriptor *> > > > >
PUBLIC	??0?$_STLP_alloc_proxy@U_Rb_tree_node_base@priv@stlp_std@@U?$_Rb_tree_node@U?$pair@$$CBVshared_str@@V?$xr_vector@PAVCEnvDescriptor@@V?$xalloc@PAVCEnvDescriptor@@@@@@@stlp_std@@@23@V?$xalloc@U?$_Rb_tree_node@U?$pair@$$CBVshared_str@@V?$xr_vector@PAVCEnvDescriptor@@V?$xalloc@PAVCEnvDescriptor@@@@@@@stlp_std@@@priv@stlp_std@@@@@priv@stlp_std@@QAE@ABV?$xalloc@U?$_Rb_tree_node@U?$pair@$$CBVshared_str@@V?$xr_vector@PAVCEnvDescriptor@@V?$xalloc@PAVCEnvDescriptor@@@@@@@stlp_std@@@priv@stlp_std@@@@U_Rb_tree_node_base@12@@Z ; stlp_std::priv::_STLP_alloc_proxy<stlp_std::priv::_Rb_tree_node_base,stlp_std::priv::_Rb_tree_node<stlp_std::pair<shared_str const ,xr_vector<CEnvDescriptor *,xalloc<CEnvDescriptor *> > > >,xalloc<stlp_std::priv::_Rb_tree_node<stlp_std::pair<shared_str const ,xr_vector<CEnvDescriptor *,xalloc<CEnvDescriptor *> > > > > >::_STLP_alloc_proxy<stlp_std::priv::_Rb_tree_node_base,stlp_std::priv::_Rb_tree_node<stlp_std::pair<shared_str const ,xr_vector<CEnvDescriptor *,xalloc<CEnvDescriptor *> > > >,xalloc<stlp_std::priv::_Rb_tree_node<stlp_std::pair<shared_str const ,xr_vector<CEnvDescriptor *,xalloc<CEnvDescriptor *> > > > > >
PUBLIC	??$?0U?$pair@$$CBVshared_str@@V?$xr_vector@PAVCEnvDescriptor@@V?$xalloc@PAVCEnvDescriptor@@@@@@@stlp_std@@@?$xalloc@U?$_Rb_tree_node@U?$pair@$$CBVshared_str@@V?$xr_vector@PAVCEnvDescriptor@@V?$xalloc@PAVCEnvDescriptor@@@@@@@stlp_std@@@priv@stlp_std@@@@QAE@ABV?$xalloc@U?$pair@$$CBVshared_str@@V?$xr_vector@PAVCEnvDescriptor@@V?$xalloc@PAVCEnvDescriptor@@@@@@@stlp_std@@@@@Z ; xalloc<stlp_std::priv::_Rb_tree_node<stlp_std::pair<shared_str const ,xr_vector<CEnvDescriptor *,xalloc<CEnvDescriptor *> > > > >::xalloc<stlp_std::priv::_Rb_tree_node<stlp_std::pair<shared_str const ,xr_vector<CEnvDescriptor *,xalloc<CEnvDescriptor *> > > > ><stlp_std::pair<shared_str const ,xr_vector<CEnvDescriptor *,xalloc<CEnvDescriptor *> > > >
PUBLIC	??0?$_Rb_tree_base@U?$pair@$$CBVshared_str@@V?$xr_vector@PAVCEnvDescriptor@@V?$xalloc@PAVCEnvDescriptor@@@@@@@stlp_std@@V?$xalloc@U?$pair@Vshared_str@@V?$xr_vector@PAVCEnvDescriptor@@V?$xalloc@PAVCEnvDescriptor@@@@@@@stlp_std@@@@@priv@stlp_std@@IAE@ABV?$xalloc@U?$pair@$$CBVshared_str@@V?$xr_vector@PAVCEnvDescriptor@@V?$xalloc@PAVCEnvDescriptor@@@@@@@stlp_std@@@@@Z ; stlp_std::priv::_Rb_tree_base<stlp_std::pair<shared_str const ,xr_vector<CEnvDescriptor *,xalloc<CEnvDescriptor *> > >,xalloc<stlp_std::pair<shared_str,xr_vector<CEnvDescriptor *,xalloc<CEnvDescriptor *> > > > >::_Rb_tree_base<stlp_std::pair<shared_str const ,xr_vector<CEnvDescriptor *,xalloc<CEnvDescriptor *> > >,xalloc<stlp_std::pair<shared_str,xr_vector<CEnvDescriptor *,xalloc<CEnvDescriptor *> > > > >
PUBLIC	??0?$_Rb_tree@Vshared_str@@Ustr_pred@CEnvironment@@U?$pair@$$CBVshared_str@@V?$xr_vector@PAVCEnvDescriptor@@V?$xalloc@PAVCEnvDescriptor@@@@@@@stlp_std@@U?$_Select1st@U?$pair@$$CBVshared_str@@V?$xr_vector@PAVCEnvDescriptor@@V?$xalloc@PAVCEnvDescriptor@@@@@@@stlp_std@@@priv@5@U?$_MapTraitsT@U?$pair@$$CBVshared_str@@V?$xr_vector@PAVCEnvDescriptor@@V?$xalloc@PAVCEnvDescriptor@@@@@@@stlp_std@@@75@V?$xalloc@U?$pair@Vshared_str@@V?$xr_vector@PAVCEnvDescriptor@@V?$xalloc@PAVCEnvDescriptor@@@@@@@stlp_std@@@@@priv@stlp_std@@QAE@ABV012@@Z ; stlp_std::priv::_Rb_tree<shared_str,CEnvironment::str_pred,stlp_std::pair<shared_str const ,xr_vector<CEnvDescriptor *,xalloc<CEnvDescriptor *> > >,stlp_std::priv::_Select1st<stlp_std::pair<shared_str const ,xr_vector<CEnvDescriptor *,xalloc<CEnvDescriptor *> > > >,stlp_std::priv::_MapTraitsT<stlp_std::pair<shared_str const ,xr_vector<CEnvDescriptor *,xalloc<CEnvDescriptor *> > > >,xalloc<stlp_std::pair<shared_str,xr_vector<CEnvDescriptor *,xalloc<CEnvDescriptor *> > > > >::_Rb_tree<shared_str,CEnvironment::str_pred,stlp_std::pair<shared_str const ,xr_vector<CEnvDescriptor *,xalloc<CEnvDescriptor *> > >,stlp_std::priv::_Select1st<stlp_std::pair<shared_str const ,xr_vector<CEnvDescriptor *,xalloc<CEnvDescriptor *> > > >,stlp_std::priv::_MapTraitsT<stlp_std::pair<shared_str const ,xr_vector<CEnvDescriptor *,xalloc<CEnvDescriptor *> > > >,xalloc<stlp_std::pair<shared_str,xr_vector<CEnvDescriptor *,xalloc<CEnvDescriptor *> > > > >
PUBLIC	??0?$map@Vshared_str@@V?$xr_vector@PAVCEnvDescriptor@@V?$xalloc@PAVCEnvDescriptor@@@@@@Ustr_pred@CEnvironment@@V?$xalloc@U?$pair@Vshared_str@@V?$xr_vector@PAVCEnvDescriptor@@V?$xalloc@PAVCEnvDescriptor@@@@@@@stlp_std@@@@@stlp_std@@QAE@ABV01@@Z ; stlp_std::map<shared_str,xr_vector<CEnvDescriptor *,xalloc<CEnvDescriptor *> >,CEnvironment::str_pred,xalloc<stlp_std::pair<shared_str,xr_vector<CEnvDescriptor *,xalloc<CEnvDescriptor *> > > > >::map<shared_str,xr_vector<CEnvDescriptor *,xalloc<CEnvDescriptor *> >,CEnvironment::str_pred,xalloc<stlp_std::pair<shared_str,xr_vector<CEnvDescriptor *,xalloc<CEnvDescriptor *> > > > >
PUBLIC	??1?$_Rb_tree@Vshared_str@@Ustr_pred@CEnvironment@@U?$pair@$$CBVshared_str@@V?$xr_vector@PAVCEnvDescriptor@@V?$xalloc@PAVCEnvDescriptor@@@@@@@stlp_std@@U?$_Select1st@U?$pair@$$CBVshared_str@@V?$xr_vector@PAVCEnvDescriptor@@V?$xalloc@PAVCEnvDescriptor@@@@@@@stlp_std@@@priv@5@U?$_MapTraitsT@U?$pair@$$CBVshared_str@@V?$xr_vector@PAVCEnvDescriptor@@V?$xalloc@PAVCEnvDescriptor@@@@@@@stlp_std@@@75@V?$xalloc@U?$pair@Vshared_str@@V?$xr_vector@PAVCEnvDescriptor@@V?$xalloc@PAVCEnvDescriptor@@@@@@@stlp_std@@@@@priv@stlp_std@@QAE@XZ ; stlp_std::priv::_Rb_tree<shared_str,CEnvironment::str_pred,stlp_std::pair<shared_str const ,xr_vector<CEnvDescriptor *,xalloc<CEnvDescriptor *> > >,stlp_std::priv::_Select1st<stlp_std::pair<shared_str const ,xr_vector<CEnvDescriptor *,xalloc<CEnvDescriptor *> > > >,stlp_std::priv::_MapTraitsT<stlp_std::pair<shared_str const ,xr_vector<CEnvDescriptor *,xalloc<CEnvDescriptor *> > > >,xalloc<stlp_std::pair<shared_str,xr_vector<CEnvDescriptor *,xalloc<CEnvDescriptor *> > > > >::~_Rb_tree<shared_str,CEnvironment::str_pred,stlp_std::pair<shared_str const ,xr_vector<CEnvDescriptor *,xalloc<CEnvDescriptor *> > >,stlp_std::priv::_Select1st<stlp_std::pair<shared_str const ,xr_vector<CEnvDescriptor *,xalloc<CEnvDescriptor *> > > >,stlp_std::priv::_MapTraitsT<stlp_std::pair<shared_str const ,xr_vector<CEnvDescriptor *,xalloc<CEnvDescriptor *> > > >,xalloc<stlp_std::pair<shared_str,xr_vector<CEnvDescriptor *,xalloc<CEnvDescriptor *> > > > >
PUBLIC	??1?$map@Vshared_str@@V?$xr_vector@PAVCEnvDescriptor@@V?$xalloc@PAVCEnvDescriptor@@@@@@Ustr_pred@CEnvironment@@V?$xalloc@U?$pair@Vshared_str@@V?$xr_vector@PAVCEnvDescriptor@@V?$xalloc@PAVCEnvDescriptor@@@@@@@stlp_std@@@@@stlp_std@@QAE@XZ ; stlp_std::map<shared_str,xr_vector<CEnvDescriptor *,xalloc<CEnvDescriptor *> >,CEnvironment::str_pred,xalloc<stlp_std::pair<shared_str,xr_vector<CEnvDescriptor *,xalloc<CEnvDescriptor *> > > > >::~map<shared_str,xr_vector<CEnvDescriptor *,xalloc<CEnvDescriptor *> >,CEnvironment::str_pred,xalloc<stlp_std::pair<shared_str,xr_vector<CEnvDescriptor *,xalloc<CEnvDescriptor *> > > > >
PUBLIC	??0?$xr_map@Vshared_str@@V?$xr_vector@PAVCEnvDescriptor@@V?$xalloc@PAVCEnvDescriptor@@@@@@Ustr_pred@CEnvironment@@V?$xalloc@U?$pair@Vshared_str@@V?$xr_vector@PAVCEnvDescriptor@@V?$xalloc@PAVCEnvDescriptor@@@@@@@stlp_std@@@@@@QAE@ABV0@@Z ; xr_map<shared_str,xr_vector<CEnvDescriptor *,xalloc<CEnvDescriptor *> >,CEnvironment::str_pred,xalloc<stlp_std::pair<shared_str,xr_vector<CEnvDescriptor *,xalloc<CEnvDescriptor *> > > > >::xr_map<shared_str,xr_vector<CEnvDescriptor *,xalloc<CEnvDescriptor *> >,CEnvironment::str_pred,xalloc<stlp_std::pair<shared_str,xr_vector<CEnvDescriptor *,xalloc<CEnvDescriptor *> > > > >
PUBLIC	??1?$xr_vector@VCEnvModifier@@V?$xalloc@VCEnvModifier@@@@@@QAE@XZ ; xr_vector<CEnvModifier,xalloc<CEnvModifier> >::~xr_vector<CEnvModifier,xalloc<CEnvModifier> >
PUBLIC	??0?$_STLP_alloc_proxy@PAVCEnvModifier@@V1@V?$xalloc@VCEnvModifier@@@@@priv@stlp_std@@QAE@ABV?$xalloc@VCEnvModifier@@@@PAVCEnvModifier@@@Z ; stlp_std::priv::_STLP_alloc_proxy<CEnvModifier *,CEnvModifier,xalloc<CEnvModifier> >::_STLP_alloc_proxy<CEnvModifier *,CEnvModifier,xalloc<CEnvModifier> >
PUBLIC	??0?$_Vector_base@VCEnvModifier@@V?$xalloc@VCEnvModifier@@@@@priv@stlp_std@@QAE@IABV?$xalloc@VCEnvModifier@@@@@Z ; stlp_std::priv::_Vector_base<CEnvModifier,xalloc<CEnvModifier> >::_Vector_base<CEnvModifier,xalloc<CEnvModifier> >
PUBLIC	??0?$xalloc@VCEnvModifier@@@@QAE@ABV0@@Z	; xalloc<CEnvModifier>::xalloc<CEnvModifier>
PUBLIC	?get_allocator@?$_Impl_vector@VCEnvModifier@@V?$xalloc@VCEnvModifier@@@@@priv@stlp_std@@QBE?AV?$xalloc@VCEnvModifier@@@@XZ ; stlp_std::priv::_Impl_vector<CEnvModifier,xalloc<CEnvModifier> >::get_allocator
PUBLIC	?begin@?$_Impl_vector@VCEnvModifier@@V?$xalloc@VCEnvModifier@@@@@priv@stlp_std@@QBEPBVCEnvModifier@@XZ ; stlp_std::priv::_Impl_vector<CEnvModifier,xalloc<CEnvModifier> >::begin
PUBLIC	?end@?$_Impl_vector@VCEnvModifier@@V?$xalloc@VCEnvModifier@@@@@priv@stlp_std@@QBEPBVCEnvModifier@@XZ ; stlp_std::priv::_Impl_vector<CEnvModifier,xalloc<CEnvModifier> >::end
PUBLIC	??0?$_Impl_vector@VCEnvModifier@@V?$xalloc@VCEnvModifier@@@@@priv@stlp_std@@QAE@ABV012@@Z ; stlp_std::priv::_Impl_vector<CEnvModifier,xalloc<CEnvModifier> >::_Impl_vector<CEnvModifier,xalloc<CEnvModifier> >
PUBLIC	??0?$vector@VCEnvModifier@@V?$xalloc@VCEnvModifier@@@@@stlp_std@@QAE@ABV01@@Z ; stlp_std::vector<CEnvModifier,xalloc<CEnvModifier> >::vector<CEnvModifier,xalloc<CEnvModifier> >
PUBLIC	??1?$_Vector_base@VCEnvModifier@@V?$xalloc@VCEnvModifier@@@@@priv@stlp_std@@QAE@XZ ; stlp_std::priv::_Vector_base<CEnvModifier,xalloc<CEnvModifier> >::~_Vector_base<CEnvModifier,xalloc<CEnvModifier> >
PUBLIC	??1?$_Impl_vector@VCEnvModifier@@V?$xalloc@VCEnvModifier@@@@@priv@stlp_std@@QAE@XZ ; stlp_std::priv::_Impl_vector<CEnvModifier,xalloc<CEnvModifier> >::~_Impl_vector<CEnvModifier,xalloc<CEnvModifier> >
PUBLIC	??1?$vector@VCEnvModifier@@V?$xalloc@VCEnvModifier@@@@@stlp_std@@QAE@XZ ; stlp_std::vector<CEnvModifier,xalloc<CEnvModifier> >::~vector<CEnvModifier,xalloc<CEnvModifier> >
PUBLIC	??0?$xr_vector@VCEnvModifier@@V?$xalloc@VCEnvModifier@@@@@@QAE@ABV0@@Z ; xr_vector<CEnvModifier,xalloc<CEnvModifier> >::xr_vector<CEnvModifier,xalloc<CEnvModifier> >
PUBLIC	?set@?$_vector3@M@@QAEAAU1@MMM@Z		; _vector3<float>::set
PUBLIC	?set@?$_vector2@M@@QAEAAU1@ABU1@@Z		; _vector2<float>::set
PUBLIC	??_GCInput@@QAEPAXI@Z				; CInput::`scalar deleting destructor'
PUBLIC	??R?$xr_special_free@$00VCInput@@@@QAEXAAPAVCInput@@@Z ; xr_special_free<1,CInput>::operator()
PUBLIC	??$xr_delete@VCInput@@@@YAXAAPAVCInput@@@Z	; xr_delete<CInput>
PUBLIC	?size@?$_Impl_vector@U?$_vector3@M@@V?$xalloc@U?$_vector3@M@@@@@priv@stlp_std@@QBEIXZ ; stlp_std::priv::_Impl_vector<_vector3<float>,xalloc<_vector3<float> > >::size
PUBLIC	?capacity@?$_Impl_vector@U?$_vector3@M@@V?$xalloc@U?$_vector3@M@@@@@priv@stlp_std@@QBEIXZ ; stlp_std::priv::_Impl_vector<_vector3<float>,xalloc<_vector3<float> > >::capacity
PUBLIC	??$xr_free@U?$_vector3@M@@@@YAXAAPAU?$_vector3@M@@@Z ; xr_free<_vector3<float> >
PUBLIC	?deallocate@?$xalloc@U?$_vector3@M@@@@QBEXPAU?$_vector3@M@@I@Z ; xalloc<_vector3<float> >::deallocate
PUBLIC	?end@?$_Impl_vector@U?$_vector3@M@@V?$xalloc@U?$_vector3@M@@@@@priv@stlp_std@@QAEPAU?$_vector3@M@@XZ ; stlp_std::priv::_Impl_vector<_vector3<float>,xalloc<_vector3<float> > >::end
PUBLIC	?rbegin@?$_Impl_vector@U?$_vector3@M@@V?$xalloc@U?$_vector3@M@@@@@priv@stlp_std@@QAE?AV?$reverse_iterator@PAU?$_vector3@M@@@3@XZ ; stlp_std::priv::_Impl_vector<_vector3<float>,xalloc<_vector3<float> > >::rbegin
PUBLIC	?begin@?$_Impl_vector@U?$_vector3@M@@V?$xalloc@U?$_vector3@M@@@@@priv@stlp_std@@QAEPAU?$_vector3@M@@XZ ; stlp_std::priv::_Impl_vector<_vector3<float>,xalloc<_vector3<float> > >::begin
PUBLIC	??0?$reverse_iterator@PAU?$_vector3@M@@@stlp_std@@QAE@PAU?$_vector3@M@@@Z ; stlp_std::reverse_iterator<_vector3<float> *>::reverse_iterator<_vector3<float> *>
PUBLIC	?rend@?$_Impl_vector@U?$_vector3@M@@V?$xalloc@U?$_vector3@M@@@@@priv@stlp_std@@QAE?AV?$reverse_iterator@PAU?$_vector3@M@@@3@XZ ; stlp_std::priv::_Impl_vector<_vector3<float>,xalloc<_vector3<float> > >::rend
PUBLIC	??0?$reverse_iterator@PAU?$_vector3@M@@@stlp_std@@QAE@ABV01@@Z ; stlp_std::reverse_iterator<_vector3<float> *>::reverse_iterator<_vector3<float> *>
PUBLIC	??$__destroy_range_aux@V?$reverse_iterator@PAU?$_vector3@M@@@stlp_std@@U?$_vector3@M@@@stlp_std@@YAXV?$reverse_iterator@PAU?$_vector3@M@@@0@0PAU?$_vector3@M@@ABU__true_type@0@@Z ; stlp_std::__destroy_range_aux<stlp_std::reverse_iterator<_vector3<float> *>,_vector3<float> >
PUBLIC	??$__destroy_range@V?$reverse_iterator@PAU?$_vector3@M@@@stlp_std@@U?$_vector3@M@@@stlp_std@@YAXV?$reverse_iterator@PAU?$_vector3@M@@@0@0PAU?$_vector3@M@@@Z ; stlp_std::__destroy_range<stlp_std::reverse_iterator<_vector3<float> *>,_vector3<float> >
PUBLIC	??$_Destroy_Range@V?$reverse_iterator@PAU?$_vector3@M@@@stlp_std@@@stlp_std@@YAXV?$reverse_iterator@PAU?$_vector3@M@@@0@0@Z ; stlp_std::_Destroy_Range<stlp_std::reverse_iterator<_vector3<float> *> >
PUBLIC	?_M_clear@?$_Impl_vector@U?$_vector3@M@@V?$xalloc@U?$_vector3@M@@@@@priv@stlp_std@@AAEXXZ ; stlp_std::priv::_Impl_vector<_vector3<float>,xalloc<_vector3<float> > >::_M_clear
PUBLIC	??$__destroy_range_aux@PAU?$_vector3@M@@U1@@stlp_std@@YAXPAU?$_vector3@M@@00ABU__true_type@0@@Z ; stlp_std::__destroy_range_aux<_vector3<float> *,_vector3<float> >
PUBLIC	??$__destroy_range@PAU?$_vector3@M@@U1@@stlp_std@@YAXPAU?$_vector3@M@@00@Z ; stlp_std::__destroy_range<_vector3<float> *,_vector3<float> >
PUBLIC	??$_Destroy_Range@PAU?$_vector3@M@@@stlp_std@@YAXPAU?$_vector3@M@@0@Z ; stlp_std::_Destroy_Range<_vector3<float> *>
PUBLIC	??$xr_alloc@U?$_vector3@M@@@@YAPAU?$_vector3@M@@I@Z ; xr_alloc<_vector3<float> >
PUBLIC	?allocate@?$xalloc@U?$_vector3@M@@@@QBEPAU?$_vector3@M@@IPBX@Z ; xalloc<_vector3<float> >::allocate
PUBLIC	?allocate@?$_STLP_alloc_proxy@PAU?$_vector3@M@@U1@V?$xalloc@U?$_vector3@M@@@@@priv@stlp_std@@QAEPAU?$_vector3@M@@I@Z ; stlp_std::priv::_STLP_alloc_proxy<_vector3<float> *,_vector3<float>,xalloc<_vector3<float> > >::allocate
PUBLIC	?allocate@?$_STLP_alloc_proxy@PAU?$_vector3@M@@U1@V?$xalloc@U?$_vector3@M@@@@@priv@stlp_std@@AAEPAU?$_vector3@M@@IAAIABU__false_type@3@@Z ; stlp_std::priv::_STLP_alloc_proxy<_vector3<float> *,_vector3<float>,xalloc<_vector3<float> > >::allocate
PUBLIC	?allocate@?$_STLP_alloc_proxy@PAU?$_vector3@M@@U1@V?$xalloc@U?$_vector3@M@@@@@priv@stlp_std@@QAEPAU?$_vector3@M@@IAAI@Z ; stlp_std::priv::_STLP_alloc_proxy<_vector3<float> *,_vector3<float>,xalloc<_vector3<float> > >::allocate
PUBLIC	?_Answer@?$_BothPtrType@PBU?$_vector3@M@@PAU1@@stlp_std@@SA?AU__true_type@2@XZ ; stlp_std::_BothPtrType<_vector3<float> const *,_vector3<float> *>::_Answer
PUBLIC	??$__ucopy_ptrs@PBU?$_vector3@M@@PAU1@@priv@stlp_std@@YAPAU?$_vector3@M@@PBU2@0PAU2@ABU__true_type@1@@Z ; stlp_std::priv::__ucopy_ptrs<_vector3<float> const *,_vector3<float> *>
PUBLIC	??$_UseTrivialUCopy@U?$_vector3@M@@U1@@stlp_std@@YA?AU?$_TrivialUCopy@U?$_vector3@M@@U1@@0@PAU?$_vector3@M@@0@Z ; stlp_std::_UseTrivialUCopy<_vector3<float>,_vector3<float> >
PUBLIC	?_Answer@?$_TrivialUCopy@U?$_vector3@M@@U1@@stlp_std@@SA?AU__true_type@2@XZ ; stlp_std::_TrivialUCopy<_vector3<float>,_vector3<float> >::_Answer
PUBLIC	??$__ucopy_aux@PBU?$_vector3@M@@PAU1@@priv@stlp_std@@YAPAU?$_vector3@M@@PBU2@0PAU2@ABU__true_type@1@@Z ; stlp_std::priv::__ucopy_aux<_vector3<float> const *,_vector3<float> *>
PUBLIC	??$uninitialized_copy@PBU?$_vector3@M@@PAU1@@stlp_std@@YAPAU?$_vector3@M@@PBU1@0PAU1@@Z ; stlp_std::uninitialized_copy<_vector3<float> const *,_vector3<float> *>
PUBLIC	??$_M_allocate_and_copy@PBU?$_vector3@M@@@?$_Impl_vector@U?$_vector3@M@@V?$xalloc@U?$_vector3@M@@@@@priv@stlp_std@@AAEPAU?$_vector3@M@@AAIPBU3@1@Z ; stlp_std::priv::_Impl_vector<_vector3<float>,xalloc<_vector3<float> > >::_M_allocate_and_copy<_vector3<float> const *>
PUBLIC	??$__copy_ptrs@PBU?$_vector3@M@@PAU1@@priv@stlp_std@@YAPAU?$_vector3@M@@PBU2@0PAU2@ABU__true_type@1@@Z ; stlp_std::priv::__copy_ptrs<_vector3<float> const *,_vector3<float> *>
PUBLIC	??4?$_Impl_vector@U?$_vector3@M@@V?$xalloc@U?$_vector3@M@@@@@priv@stlp_std@@QAEAAV012@ABV012@@Z ; stlp_std::priv::_Impl_vector<_vector3<float>,xalloc<_vector3<float> > >::operator=
PUBLIC	??4?$vector@U?$_vector3@M@@V?$xalloc@U?$_vector3@M@@@@@stlp_std@@QAEAAV01@ABV01@@Z ; stlp_std::vector<_vector3<float>,xalloc<_vector3<float> > >::operator=
PUBLIC	??4?$xr_vector@U?$_vector3@M@@V?$xalloc@U?$_vector3@M@@@@@@QAEAAV0@ABV0@@Z ; xr_vector<_vector3<float>,xalloc<_vector3<float> > >::operator=
PUBLIC	?size@?$_Impl_vector@GV?$xalloc@G@@@priv@stlp_std@@QBEIXZ ; stlp_std::priv::_Impl_vector<unsigned short,xalloc<unsigned short> >::size
PUBLIC	?capacity@?$_Impl_vector@GV?$xalloc@G@@@priv@stlp_std@@QBEIXZ ; stlp_std::priv::_Impl_vector<unsigned short,xalloc<unsigned short> >::capacity
PUBLIC	??$xr_free@G@@YAXAAPAG@Z			; xr_free<unsigned short>
PUBLIC	?deallocate@?$xalloc@G@@QBEXPAGI@Z		; xalloc<unsigned short>::deallocate
PUBLIC	?end@?$_Impl_vector@GV?$xalloc@G@@@priv@stlp_std@@QAEPAGXZ ; stlp_std::priv::_Impl_vector<unsigned short,xalloc<unsigned short> >::end
PUBLIC	?rbegin@?$_Impl_vector@GV?$xalloc@G@@@priv@stlp_std@@QAE?AV?$reverse_iterator@PAG@3@XZ ; stlp_std::priv::_Impl_vector<unsigned short,xalloc<unsigned short> >::rbegin
PUBLIC	?begin@?$_Impl_vector@GV?$xalloc@G@@@priv@stlp_std@@QAEPAGXZ ; stlp_std::priv::_Impl_vector<unsigned short,xalloc<unsigned short> >::begin
PUBLIC	??0?$reverse_iterator@PAG@stlp_std@@QAE@PAG@Z	; stlp_std::reverse_iterator<unsigned short *>::reverse_iterator<unsigned short *>
PUBLIC	?rend@?$_Impl_vector@GV?$xalloc@G@@@priv@stlp_std@@QAE?AV?$reverse_iterator@PAG@3@XZ ; stlp_std::priv::_Impl_vector<unsigned short,xalloc<unsigned short> >::rend
PUBLIC	??0?$reverse_iterator@PAG@stlp_std@@QAE@ABV01@@Z ; stlp_std::reverse_iterator<unsigned short *>::reverse_iterator<unsigned short *>
PUBLIC	??$__destroy_range_aux@V?$reverse_iterator@PAG@stlp_std@@G@stlp_std@@YAXV?$reverse_iterator@PAG@0@0PAGABU__true_type@0@@Z ; stlp_std::__destroy_range_aux<stlp_std::reverse_iterator<unsigned short *>,unsigned short>
PUBLIC	??$__destroy_range@V?$reverse_iterator@PAG@stlp_std@@G@stlp_std@@YAXV?$reverse_iterator@PAG@0@0PAG@Z ; stlp_std::__destroy_range<stlp_std::reverse_iterator<unsigned short *>,unsigned short>
PUBLIC	??$_Destroy_Range@V?$reverse_iterator@PAG@stlp_std@@@stlp_std@@YAXV?$reverse_iterator@PAG@0@0@Z ; stlp_std::_Destroy_Range<stlp_std::reverse_iterator<unsigned short *> >
PUBLIC	?_M_clear@?$_Impl_vector@GV?$xalloc@G@@@priv@stlp_std@@AAEXXZ ; stlp_std::priv::_Impl_vector<unsigned short,xalloc<unsigned short> >::_M_clear
PUBLIC	??$xr_alloc@G@@YAPAGI@Z				; xr_alloc<unsigned short>
PUBLIC	?allocate@?$xalloc@G@@QBEPAGIPBX@Z		; xalloc<unsigned short>::allocate
PUBLIC	?allocate@?$_STLP_alloc_proxy@PAGGV?$xalloc@G@@@priv@stlp_std@@QAEPAGI@Z ; stlp_std::priv::_STLP_alloc_proxy<unsigned short *,unsigned short,xalloc<unsigned short> >::allocate
PUBLIC	?allocate@?$_STLP_alloc_proxy@PAGGV?$xalloc@G@@@priv@stlp_std@@AAEPAGIAAIABU__false_type@3@@Z ; stlp_std::priv::_STLP_alloc_proxy<unsigned short *,unsigned short,xalloc<unsigned short> >::allocate
PUBLIC	?allocate@?$_STLP_alloc_proxy@PAGGV?$xalloc@G@@@priv@stlp_std@@QAEPAGIAAI@Z ; stlp_std::priv::_STLP_alloc_proxy<unsigned short *,unsigned short,xalloc<unsigned short> >::allocate
PUBLIC	?_Answer@?$_BothPtrType@PBGPAG@stlp_std@@SA?AU__true_type@2@XZ ; stlp_std::_BothPtrType<unsigned short const *,unsigned short *>::_Answer
PUBLIC	??$__ucopy_ptrs@PBGPAG@priv@stlp_std@@YAPAGPBG0PAGABU__true_type@1@@Z ; stlp_std::priv::__ucopy_ptrs<unsigned short const *,unsigned short *>
PUBLIC	??$_UseTrivialUCopy@GG@stlp_std@@YA?AU?$_TrivialUCopy@GG@0@PAG0@Z ; stlp_std::_UseTrivialUCopy<unsigned short,unsigned short>
PUBLIC	?_Answer@?$_TrivialUCopy@GG@stlp_std@@SA?AU__true_type@2@XZ ; stlp_std::_TrivialUCopy<unsigned short,unsigned short>::_Answer
PUBLIC	??$__ucopy_aux@PBGPAG@priv@stlp_std@@YAPAGPBG0PAGABU__true_type@1@@Z ; stlp_std::priv::__ucopy_aux<unsigned short const *,unsigned short *>
PUBLIC	??$uninitialized_copy@PBGPAG@stlp_std@@YAPAGPBG0PAG@Z ; stlp_std::uninitialized_copy<unsigned short const *,unsigned short *>
PUBLIC	??$_M_allocate_and_copy@PBG@?$_Impl_vector@GV?$xalloc@G@@@priv@stlp_std@@AAEPAGAAIPBG1@Z ; stlp_std::priv::_Impl_vector<unsigned short,xalloc<unsigned short> >::_M_allocate_and_copy<unsigned short const *>
PUBLIC	??$__copy_ptrs@PBGPAG@priv@stlp_std@@YAPAGPBG0PAGABU__true_type@1@@Z ; stlp_std::priv::__copy_ptrs<unsigned short const *,unsigned short *>
PUBLIC	??$__destroy_range_aux@PAGG@stlp_std@@YAXPAG00ABU__true_type@0@@Z ; stlp_std::__destroy_range_aux<unsigned short *,unsigned short>
PUBLIC	??$__destroy_range@PAGG@stlp_std@@YAXPAG00@Z	; stlp_std::__destroy_range<unsigned short *,unsigned short>
PUBLIC	??$_Destroy_Range@PAG@stlp_std@@YAXPAG0@Z	; stlp_std::_Destroy_Range<unsigned short *>
PUBLIC	??4?$_Impl_vector@GV?$xalloc@G@@@priv@stlp_std@@QAEAAV012@ABV012@@Z ; stlp_std::priv::_Impl_vector<unsigned short,xalloc<unsigned short> >::operator=
PUBLIC	??4?$vector@GV?$xalloc@G@@@stlp_std@@QAEAAV01@ABV01@@Z ; stlp_std::vector<unsigned short,xalloc<unsigned short> >::operator=
PUBLIC	??4?$xr_vector@GV?$xalloc@G@@@@QAEAAV0@ABV0@@Z	; xr_vector<unsigned short,xalloc<unsigned short> >::operator=
PUBLIC	??4?$FactoryPtr@VIEnvironmentRender@@@@QAEAAV0@ABV0@@Z ; FactoryPtr<IEnvironmentRender>::operator=
PUBLIC	??4?$vector@PAVCEnvAmbient@@V?$xalloc@PAVCEnvAmbient@@@@@stlp_std@@QAEAAV01@ABV01@@Z ; stlp_std::vector<CEnvAmbient *,xalloc<CEnvAmbient *> >::operator=
PUBLIC	??4?$xr_vector@PAVCEnvAmbient@@V?$xalloc@PAVCEnvAmbient@@@@@@QAEAAV0@ABV0@@Z ; xr_vector<CEnvAmbient *,xalloc<CEnvAmbient *> >::operator=
PUBLIC	?_M_root@?$_Rb_tree@Vshared_str@@Ustr_pred@CEnvironment@@U?$pair@$$CBVshared_str@@V?$xr_vector@PAVCEnvDescriptor@@V?$xalloc@PAVCEnvDescriptor@@@@@@@stlp_std@@U?$_Select1st@U?$pair@$$CBVshared_str@@V?$xr_vector@PAVCEnvDescriptor@@V?$xalloc@PAVCEnvDescriptor@@@@@@@stlp_std@@@priv@5@U?$_MapTraitsT@U?$pair@$$CBVshared_str@@V?$xr_vector@PAVCEnvDescriptor@@V?$xalloc@PAVCEnvDescriptor@@@@@@@stlp_std@@@75@V?$xalloc@U?$pair@Vshared_str@@V?$xr_vector@PAVCEnvDescriptor@@V?$xalloc@PAVCEnvDescriptor@@@@@@@stlp_std@@@@@priv@stlp_std@@IBEPAU_Rb_tree_node_base@23@XZ ; stlp_std::priv::_Rb_tree<shared_str,CEnvironment::str_pred,stlp_std::pair<shared_str const ,xr_vector<CEnvDescriptor *,xalloc<CEnvDescriptor *> > >,stlp_std::priv::_Select1st<stlp_std::pair<shared_str const ,xr_vector<CEnvDescriptor *,xalloc<CEnvDescriptor *> > > >,stlp_std::priv::_MapTraitsT<stlp_std::pair<shared_str const ,xr_vector<CEnvDescriptor *,xalloc<CEnvDescriptor *> > > >,xalloc<stlp_std::pair<shared_str,xr_vector<CEnvDescriptor *,xalloc<CEnvDescriptor *> > > > >::_M_root
PUBLIC	?_S_minimum@?$_Rb_tree@Vshared_str@@Ustr_pred@CEnvironment@@U?$pair@$$CBVshared_str@@V?$xr_vector@PAVCEnvDescriptor@@V?$xalloc@PAVCEnvDescriptor@@@@@@@stlp_std@@U?$_Select1st@U?$pair@$$CBVshared_str@@V?$xr_vector@PAVCEnvDescriptor@@V?$xalloc@PAVCEnvDescriptor@@@@@@@stlp_std@@@priv@5@U?$_MapTraitsT@U?$pair@$$CBVshared_str@@V?$xr_vector@PAVCEnvDescriptor@@V?$xalloc@PAVCEnvDescriptor@@@@@@@stlp_std@@@75@V?$xalloc@U?$pair@Vshared_str@@V?$xr_vector@PAVCEnvDescriptor@@V?$xalloc@PAVCEnvDescriptor@@@@@@@stlp_std@@@@@priv@stlp_std@@KAPAU_Rb_tree_node_base@23@PAU423@@Z ; stlp_std::priv::_Rb_tree<shared_str,CEnvironment::str_pred,stlp_std::pair<shared_str const ,xr_vector<CEnvDescriptor *,xalloc<CEnvDescriptor *> > >,stlp_std::priv::_Select1st<stlp_std::pair<shared_str const ,xr_vector<CEnvDescriptor *,xalloc<CEnvDescriptor *> > > >,stlp_std::priv::_MapTraitsT<stlp_std::pair<shared_str const ,xr_vector<CEnvDescriptor *,xalloc<CEnvDescriptor *> > > >,xalloc<stlp_std::pair<shared_str,xr_vector<CEnvDescriptor *,xalloc<CEnvDescriptor *> > > > >::_S_minimum
PUBLIC	?_S_maximum@?$_Rb_tree@Vshared_str@@Ustr_pred@CEnvironment@@U?$pair@$$CBVshared_str@@V?$xr_vector@PAVCEnvDescriptor@@V?$xalloc@PAVCEnvDescriptor@@@@@@@stlp_std@@U?$_Select1st@U?$pair@$$CBVshared_str@@V?$xr_vector@PAVCEnvDescriptor@@V?$xalloc@PAVCEnvDescriptor@@@@@@@stlp_std@@@priv@5@U?$_MapTraitsT@U?$pair@$$CBVshared_str@@V?$xr_vector@PAVCEnvDescriptor@@V?$xalloc@PAVCEnvDescriptor@@@@@@@stlp_std@@@75@V?$xalloc@U?$pair@Vshared_str@@V?$xr_vector@PAVCEnvDescriptor@@V?$xalloc@PAVCEnvDescriptor@@@@@@@stlp_std@@@@@priv@stlp_std@@KAPAU_Rb_tree_node_base@23@PAU423@@Z ; stlp_std::priv::_Rb_tree<shared_str,CEnvironment::str_pred,stlp_std::pair<shared_str const ,xr_vector<CEnvDescriptor *,xalloc<CEnvDescriptor *> > >,stlp_std::priv::_Select1st<stlp_std::pair<shared_str const ,xr_vector<CEnvDescriptor *,xalloc<CEnvDescriptor *> > > >,stlp_std::priv::_MapTraitsT<stlp_std::pair<shared_str const ,xr_vector<CEnvDescriptor *,xalloc<CEnvDescriptor *> > > >,xalloc<stlp_std::pair<shared_str,xr_vector<CEnvDescriptor *,xalloc<CEnvDescriptor *> > > > >::_S_maximum
PUBLIC	??$xr_alloc@U?$_Rb_tree_node@U?$pair@$$CBVshared_str@@V?$xr_vector@PAVCEnvDescriptor@@V?$xalloc@PAVCEnvDescriptor@@@@@@@stlp_std@@@priv@stlp_std@@@@YAPAU?$_Rb_tree_node@U?$pair@$$CBVshared_str@@V?$xr_vector@PAVCEnvDescriptor@@V?$xalloc@PAVCEnvDescriptor@@@@@@@stlp_std@@@priv@stlp_std@@I@Z ; xr_alloc<stlp_std::priv::_Rb_tree_node<stlp_std::pair<shared_str const ,xr_vector<CEnvDescriptor *,xalloc<CEnvDescriptor *> > > > >
PUBLIC	?allocate@?$xalloc@U?$_Rb_tree_node@U?$pair@$$CBVshared_str@@V?$xr_vector@PAVCEnvDescriptor@@V?$xalloc@PAVCEnvDescriptor@@@@@@@stlp_std@@@priv@stlp_std@@@@QBEPAU?$_Rb_tree_node@U?$pair@$$CBVshared_str@@V?$xr_vector@PAVCEnvDescriptor@@V?$xalloc@PAVCEnvDescriptor@@@@@@@stlp_std@@@priv@stlp_std@@IPBX@Z ; xalloc<stlp_std::priv::_Rb_tree_node<stlp_std::pair<shared_str const ,xr_vector<CEnvDescriptor *,xalloc<CEnvDescriptor *> > > > >::allocate
PUBLIC	?allocate@?$_STLP_alloc_proxy@U_Rb_tree_node_base@priv@stlp_std@@U?$_Rb_tree_node@U?$pair@$$CBVshared_str@@V?$xr_vector@PAVCEnvDescriptor@@V?$xalloc@PAVCEnvDescriptor@@@@@@@stlp_std@@@23@V?$xalloc@U?$_Rb_tree_node@U?$pair@$$CBVshared_str@@V?$xr_vector@PAVCEnvDescriptor@@V?$xalloc@PAVCEnvDescriptor@@@@@@@stlp_std@@@priv@stlp_std@@@@@priv@stlp_std@@QAEPAU?$_Rb_tree_node@U?$pair@$$CBVshared_str@@V?$xr_vector@PAVCEnvDescriptor@@V?$xalloc@PAVCEnvDescriptor@@@@@@@stlp_std@@@23@I@Z ; stlp_std::priv::_STLP_alloc_proxy<stlp_std::priv::_Rb_tree_node_base,stlp_std::priv::_Rb_tree_node<stlp_std::pair<shared_str const ,xr_vector<CEnvDescriptor *,xalloc<CEnvDescriptor *> > > >,xalloc<stlp_std::priv::_Rb_tree_node<stlp_std::pair<shared_str const ,xr_vector<CEnvDescriptor *,xalloc<CEnvDescriptor *> > > > > >::allocate
PUBLIC	??0?$vector@PAVCEnvDescriptor@@V?$xalloc@PAVCEnvDescriptor@@@@@stlp_std@@QAE@ABV01@@Z ; stlp_std::vector<CEnvDescriptor *,xalloc<CEnvDescriptor *> >::vector<CEnvDescriptor *,xalloc<CEnvDescriptor *> >
PUBLIC	??0?$xr_vector@PAVCEnvDescriptor@@V?$xalloc@PAVCEnvDescriptor@@@@@@QAE@ABV0@@Z ; xr_vector<CEnvDescriptor *,xalloc<CEnvDescriptor *> >::xr_vector<CEnvDescriptor *,xalloc<CEnvDescriptor *> >
PUBLIC	??0?$pair@$$CBVshared_str@@V?$xr_vector@PAVCEnvDescriptor@@V?$xalloc@PAVCEnvDescriptor@@@@@@@stlp_std@@QAE@ABU01@@Z ; stlp_std::pair<shared_str const ,xr_vector<CEnvDescriptor *,xalloc<CEnvDescriptor *> > >::pair<shared_str const ,xr_vector<CEnvDescriptor *,xalloc<CEnvDescriptor *> > >
PUBLIC	??$_Copy_Construct@U?$pair@$$CBVshared_str@@V?$xr_vector@PAVCEnvDescriptor@@V?$xalloc@PAVCEnvDescriptor@@@@@@@stlp_std@@@stlp_std@@YAXPAU?$pair@$$CBVshared_str@@V?$xr_vector@PAVCEnvDescriptor@@V?$xalloc@PAVCEnvDescriptor@@@@@@@0@ABU10@@Z ; stlp_std::_Copy_Construct<stlp_std::pair<shared_str const ,xr_vector<CEnvDescriptor *,xalloc<CEnvDescriptor *> > > >
PUBLIC	?_M_create_node@?$_Rb_tree@Vshared_str@@Ustr_pred@CEnvironment@@U?$pair@$$CBVshared_str@@V?$xr_vector@PAVCEnvDescriptor@@V?$xalloc@PAVCEnvDescriptor@@@@@@@stlp_std@@U?$_Select1st@U?$pair@$$CBVshared_str@@V?$xr_vector@PAVCEnvDescriptor@@V?$xalloc@PAVCEnvDescriptor@@@@@@@stlp_std@@@priv@5@U?$_MapTraitsT@U?$pair@$$CBVshared_str@@V?$xr_vector@PAVCEnvDescriptor@@V?$xalloc@PAVCEnvDescriptor@@@@@@@stlp_std@@@75@V?$xalloc@U?$pair@Vshared_str@@V?$xr_vector@PAVCEnvDescriptor@@V?$xalloc@PAVCEnvDescriptor@@@@@@@stlp_std@@@@@priv@stlp_std@@IAEPAU_Rb_tree_node_base@23@ABU?$pair@$$CBVshared_str@@V?$xr_vector@PAVCEnvDescriptor@@V?$xalloc@PAVCEnvDescriptor@@@@@@@3@@Z ; stlp_std::priv::_Rb_tree<shared_str,CEnvironment::str_pred,stlp_std::pair<shared_str const ,xr_vector<CEnvDescriptor *,xalloc<CEnvDescriptor *> > >,stlp_std::priv::_Select1st<stlp_std::pair<shared_str const ,xr_vector<CEnvDescriptor *,xalloc<CEnvDescriptor *> > > >,stlp_std::priv::_MapTraitsT<stlp_std::pair<shared_str const ,xr_vector<CEnvDescriptor *,xalloc<CEnvDescriptor *> > > >,xalloc<stlp_std::pair<shared_str,xr_vector<CEnvDescriptor *,xalloc<CEnvDescriptor *> > > > >::_M_create_node
PUBLIC	?_S_color@?$_Rb_tree@Vshared_str@@Ustr_pred@CEnvironment@@U?$pair@$$CBVshared_str@@V?$xr_vector@PAVCEnvDescriptor@@V?$xalloc@PAVCEnvDescriptor@@@@@@@stlp_std@@U?$_Select1st@U?$pair@$$CBVshared_str@@V?$xr_vector@PAVCEnvDescriptor@@V?$xalloc@PAVCEnvDescriptor@@@@@@@stlp_std@@@priv@5@U?$_MapTraitsT@U?$pair@$$CBVshared_str@@V?$xr_vector@PAVCEnvDescriptor@@V?$xalloc@PAVCEnvDescriptor@@@@@@@stlp_std@@@75@V?$xalloc@U?$pair@Vshared_str@@V?$xr_vector@PAVCEnvDescriptor@@V?$xalloc@PAVCEnvDescriptor@@@@@@@stlp_std@@@@@priv@stlp_std@@KAAA_NPAU_Rb_tree_node_base@23@@Z ; stlp_std::priv::_Rb_tree<shared_str,CEnvironment::str_pred,stlp_std::pair<shared_str const ,xr_vector<CEnvDescriptor *,xalloc<CEnvDescriptor *> > >,stlp_std::priv::_Select1st<stlp_std::pair<shared_str const ,xr_vector<CEnvDescriptor *,xalloc<CEnvDescriptor *> > > >,stlp_std::priv::_MapTraitsT<stlp_std::pair<shared_str const ,xr_vector<CEnvDescriptor *,xalloc<CEnvDescriptor *> > > >,xalloc<stlp_std::pair<shared_str,xr_vector<CEnvDescriptor *,xalloc<CEnvDescriptor *> > > > >::_S_color
PUBLIC	?_M_clone_node@?$_Rb_tree@Vshared_str@@Ustr_pred@CEnvironment@@U?$pair@$$CBVshared_str@@V?$xr_vector@PAVCEnvDescriptor@@V?$xalloc@PAVCEnvDescriptor@@@@@@@stlp_std@@U?$_Select1st@U?$pair@$$CBVshared_str@@V?$xr_vector@PAVCEnvDescriptor@@V?$xalloc@PAVCEnvDescriptor@@@@@@@stlp_std@@@priv@5@U?$_MapTraitsT@U?$pair@$$CBVshared_str@@V?$xr_vector@PAVCEnvDescriptor@@V?$xalloc@PAVCEnvDescriptor@@@@@@@stlp_std@@@75@V?$xalloc@U?$pair@Vshared_str@@V?$xr_vector@PAVCEnvDescriptor@@V?$xalloc@PAVCEnvDescriptor@@@@@@@stlp_std@@@@@priv@stlp_std@@IAEPAU_Rb_tree_node_base@23@PAU423@@Z ; stlp_std::priv::_Rb_tree<shared_str,CEnvironment::str_pred,stlp_std::pair<shared_str const ,xr_vector<CEnvDescriptor *,xalloc<CEnvDescriptor *> > >,stlp_std::priv::_Select1st<stlp_std::pair<shared_str const ,xr_vector<CEnvDescriptor *,xalloc<CEnvDescriptor *> > > >,stlp_std::priv::_MapTraitsT<stlp_std::pair<shared_str const ,xr_vector<CEnvDescriptor *,xalloc<CEnvDescriptor *> > > >,xalloc<stlp_std::pair<shared_str,xr_vector<CEnvDescriptor *,xalloc<CEnvDescriptor *> > > > >::_M_clone_node
PUBLIC	?_S_parent@?$_Rb_tree@Vshared_str@@Ustr_pred@CEnvironment@@U?$pair@$$CBVshared_str@@V?$xr_vector@PAVCEnvDescriptor@@V?$xalloc@PAVCEnvDescriptor@@@@@@@stlp_std@@U?$_Select1st@U?$pair@$$CBVshared_str@@V?$xr_vector@PAVCEnvDescriptor@@V?$xalloc@PAVCEnvDescriptor@@@@@@@stlp_std@@@priv@5@U?$_MapTraitsT@U?$pair@$$CBVshared_str@@V?$xr_vector@PAVCEnvDescriptor@@V?$xalloc@PAVCEnvDescriptor@@@@@@@stlp_std@@@75@V?$xalloc@U?$pair@Vshared_str@@V?$xr_vector@PAVCEnvDescriptor@@V?$xalloc@PAVCEnvDescriptor@@@@@@@stlp_std@@@@@priv@stlp_std@@KAAAPAU_Rb_tree_node_base@23@PAU423@@Z ; stlp_std::priv::_Rb_tree<shared_str,CEnvironment::str_pred,stlp_std::pair<shared_str const ,xr_vector<CEnvDescriptor *,xalloc<CEnvDescriptor *> > >,stlp_std::priv::_Select1st<stlp_std::pair<shared_str const ,xr_vector<CEnvDescriptor *,xalloc<CEnvDescriptor *> > > >,stlp_std::priv::_MapTraitsT<stlp_std::pair<shared_str const ,xr_vector<CEnvDescriptor *,xalloc<CEnvDescriptor *> > > >,xalloc<stlp_std::pair<shared_str,xr_vector<CEnvDescriptor *,xalloc<CEnvDescriptor *> > > > >::_S_parent
PUBLIC	?_M_copy@?$_Rb_tree@Vshared_str@@Ustr_pred@CEnvironment@@U?$pair@$$CBVshared_str@@V?$xr_vector@PAVCEnvDescriptor@@V?$xalloc@PAVCEnvDescriptor@@@@@@@stlp_std@@U?$_Select1st@U?$pair@$$CBVshared_str@@V?$xr_vector@PAVCEnvDescriptor@@V?$xalloc@PAVCEnvDescriptor@@@@@@@stlp_std@@@priv@5@U?$_MapTraitsT@U?$pair@$$CBVshared_str@@V?$xr_vector@PAVCEnvDescriptor@@V?$xalloc@PAVCEnvDescriptor@@@@@@@stlp_std@@@75@V?$xalloc@U?$pair@Vshared_str@@V?$xr_vector@PAVCEnvDescriptor@@V?$xalloc@PAVCEnvDescriptor@@@@@@@stlp_std@@@@@priv@stlp_std@@AAEPAU_Rb_tree_node_base@23@PAU423@0@Z ; stlp_std::priv::_Rb_tree<shared_str,CEnvironment::str_pred,stlp_std::pair<shared_str const ,xr_vector<CEnvDescriptor *,xalloc<CEnvDescriptor *> > >,stlp_std::priv::_Select1st<stlp_std::pair<shared_str const ,xr_vector<CEnvDescriptor *,xalloc<CEnvDescriptor *> > > >,stlp_std::priv::_MapTraitsT<stlp_std::pair<shared_str const ,xr_vector<CEnvDescriptor *,xalloc<CEnvDescriptor *> > > >,xalloc<stlp_std::pair<shared_str,xr_vector<CEnvDescriptor *,xalloc<CEnvDescriptor *> > > > >::_M_copy
PUBLIC	?_M_root@?$_Rb_tree@Vshared_str@@Ustr_pred@CEnvironment@@U?$pair@$$CBVshared_str@@V?$xr_vector@PAVCEnvDescriptor@@V?$xalloc@PAVCEnvDescriptor@@@@@@@stlp_std@@U?$_Select1st@U?$pair@$$CBVshared_str@@V?$xr_vector@PAVCEnvDescriptor@@V?$xalloc@PAVCEnvDescriptor@@@@@@@stlp_std@@@priv@5@U?$_MapTraitsT@U?$pair@$$CBVshared_str@@V?$xr_vector@PAVCEnvDescriptor@@V?$xalloc@PAVCEnvDescriptor@@@@@@@stlp_std@@@75@V?$xalloc@U?$pair@Vshared_str@@V?$xr_vector@PAVCEnvDescriptor@@V?$xalloc@PAVCEnvDescriptor@@@@@@@stlp_std@@@@@priv@stlp_std@@IAEAAPAU_Rb_tree_node_base@23@XZ ; stlp_std::priv::_Rb_tree<shared_str,CEnvironment::str_pred,stlp_std::pair<shared_str const ,xr_vector<CEnvDescriptor *,xalloc<CEnvDescriptor *> > >,stlp_std::priv::_Select1st<stlp_std::pair<shared_str const ,xr_vector<CEnvDescriptor *,xalloc<CEnvDescriptor *> > > >,stlp_std::priv::_MapTraitsT<stlp_std::pair<shared_str const ,xr_vector<CEnvDescriptor *,xalloc<CEnvDescriptor *> > > >,xalloc<stlp_std::pair<shared_str,xr_vector<CEnvDescriptor *,xalloc<CEnvDescriptor *> > > > >::_M_root
PUBLIC	?_M_leftmost@?$_Rb_tree@Vshared_str@@Ustr_pred@CEnvironment@@U?$pair@$$CBVshared_str@@V?$xr_vector@PAVCEnvDescriptor@@V?$xalloc@PAVCEnvDescriptor@@@@@@@stlp_std@@U?$_Select1st@U?$pair@$$CBVshared_str@@V?$xr_vector@PAVCEnvDescriptor@@V?$xalloc@PAVCEnvDescriptor@@@@@@@stlp_std@@@priv@5@U?$_MapTraitsT@U?$pair@$$CBVshared_str@@V?$xr_vector@PAVCEnvDescriptor@@V?$xalloc@PAVCEnvDescriptor@@@@@@@stlp_std@@@75@V?$xalloc@U?$pair@Vshared_str@@V?$xr_vector@PAVCEnvDescriptor@@V?$xalloc@PAVCEnvDescriptor@@@@@@@stlp_std@@@@@priv@stlp_std@@IAEAAPAU_Rb_tree_node_base@23@XZ ; stlp_std::priv::_Rb_tree<shared_str,CEnvironment::str_pred,stlp_std::pair<shared_str const ,xr_vector<CEnvDescriptor *,xalloc<CEnvDescriptor *> > >,stlp_std::priv::_Select1st<stlp_std::pair<shared_str const ,xr_vector<CEnvDescriptor *,xalloc<CEnvDescriptor *> > > >,stlp_std::priv::_MapTraitsT<stlp_std::pair<shared_str const ,xr_vector<CEnvDescriptor *,xalloc<CEnvDescriptor *> > > >,xalloc<stlp_std::pair<shared_str,xr_vector<CEnvDescriptor *,xalloc<CEnvDescriptor *> > > > >::_M_leftmost
PUBLIC	?_M_rightmost@?$_Rb_tree@Vshared_str@@Ustr_pred@CEnvironment@@U?$pair@$$CBVshared_str@@V?$xr_vector@PAVCEnvDescriptor@@V?$xalloc@PAVCEnvDescriptor@@@@@@@stlp_std@@U?$_Select1st@U?$pair@$$CBVshared_str@@V?$xr_vector@PAVCEnvDescriptor@@V?$xalloc@PAVCEnvDescriptor@@@@@@@stlp_std@@@priv@5@U?$_MapTraitsT@U?$pair@$$CBVshared_str@@V?$xr_vector@PAVCEnvDescriptor@@V?$xalloc@PAVCEnvDescriptor@@@@@@@stlp_std@@@75@V?$xalloc@U?$pair@Vshared_str@@V?$xr_vector@PAVCEnvDescriptor@@V?$xalloc@PAVCEnvDescriptor@@@@@@@stlp_std@@@@@priv@stlp_std@@IAEAAPAU_Rb_tree_node_base@23@XZ ; stlp_std::priv::_Rb_tree<shared_str,CEnvironment::str_pred,stlp_std::pair<shared_str const ,xr_vector<CEnvDescriptor *,xalloc<CEnvDescriptor *> > >,stlp_std::priv::_Select1st<stlp_std::pair<shared_str const ,xr_vector<CEnvDescriptor *,xalloc<CEnvDescriptor *> > > >,stlp_std::priv::_MapTraitsT<stlp_std::pair<shared_str const ,xr_vector<CEnvDescriptor *,xalloc<CEnvDescriptor *> > > >,xalloc<stlp_std::pair<shared_str,xr_vector<CEnvDescriptor *,xalloc<CEnvDescriptor *> > > > >::_M_rightmost
PUBLIC	??$xr_free@U?$_Rb_tree_node@U?$pair@$$CBVshared_str@@V?$xr_vector@PAVCEnvDescriptor@@V?$xalloc@PAVCEnvDescriptor@@@@@@@stlp_std@@@priv@stlp_std@@@@YAXAAPAU?$_Rb_tree_node@U?$pair@$$CBVshared_str@@V?$xr_vector@PAVCEnvDescriptor@@V?$xalloc@PAVCEnvDescriptor@@@@@@@stlp_std@@@priv@stlp_std@@@Z ; xr_free<stlp_std::priv::_Rb_tree_node<stlp_std::pair<shared_str const ,xr_vector<CEnvDescriptor *,xalloc<CEnvDescriptor *> > > > >
PUBLIC	?deallocate@?$xalloc@U?$_Rb_tree_node@U?$pair@$$CBVshared_str@@V?$xr_vector@PAVCEnvDescriptor@@V?$xalloc@PAVCEnvDescriptor@@@@@@@stlp_std@@@priv@stlp_std@@@@QBEXPAU?$_Rb_tree_node@U?$pair@$$CBVshared_str@@V?$xr_vector@PAVCEnvDescriptor@@V?$xalloc@PAVCEnvDescriptor@@@@@@@stlp_std@@@priv@stlp_std@@I@Z ; xalloc<stlp_std::priv::_Rb_tree_node<stlp_std::pair<shared_str const ,xr_vector<CEnvDescriptor *,xalloc<CEnvDescriptor *> > > > >::deallocate
PUBLIC	?_S_left@?$_Rb_tree@Vshared_str@@Ustr_pred@CEnvironment@@U?$pair@$$CBVshared_str@@V?$xr_vector@PAVCEnvDescriptor@@V?$xalloc@PAVCEnvDescriptor@@@@@@@stlp_std@@U?$_Select1st@U?$pair@$$CBVshared_str@@V?$xr_vector@PAVCEnvDescriptor@@V?$xalloc@PAVCEnvDescriptor@@@@@@@stlp_std@@@priv@5@U?$_MapTraitsT@U?$pair@$$CBVshared_str@@V?$xr_vector@PAVCEnvDescriptor@@V?$xalloc@PAVCEnvDescriptor@@@@@@@stlp_std@@@75@V?$xalloc@U?$pair@Vshared_str@@V?$xr_vector@PAVCEnvDescriptor@@V?$xalloc@PAVCEnvDescriptor@@@@@@@stlp_std@@@@@priv@stlp_std@@KAAAPAU_Rb_tree_node_base@23@PAU423@@Z ; stlp_std::priv::_Rb_tree<shared_str,CEnvironment::str_pred,stlp_std::pair<shared_str const ,xr_vector<CEnvDescriptor *,xalloc<CEnvDescriptor *> > >,stlp_std::priv::_Select1st<stlp_std::pair<shared_str const ,xr_vector<CEnvDescriptor *,xalloc<CEnvDescriptor *> > > >,stlp_std::priv::_MapTraitsT<stlp_std::pair<shared_str const ,xr_vector<CEnvDescriptor *,xalloc<CEnvDescriptor *> > > >,xalloc<stlp_std::pair<shared_str,xr_vector<CEnvDescriptor *,xalloc<CEnvDescriptor *> > > > >::_S_left
PUBLIC	?_S_right@?$_Rb_tree@Vshared_str@@Ustr_pred@CEnvironment@@U?$pair@$$CBVshared_str@@V?$xr_vector@PAVCEnvDescriptor@@V?$xalloc@PAVCEnvDescriptor@@@@@@@stlp_std@@U?$_Select1st@U?$pair@$$CBVshared_str@@V?$xr_vector@PAVCEnvDescriptor@@V?$xalloc@PAVCEnvDescriptor@@@@@@@stlp_std@@@priv@5@U?$_MapTraitsT@U?$pair@$$CBVshared_str@@V?$xr_vector@PAVCEnvDescriptor@@V?$xalloc@PAVCEnvDescriptor@@@@@@@stlp_std@@@75@V?$xalloc@U?$pair@Vshared_str@@V?$xr_vector@PAVCEnvDescriptor@@V?$xalloc@PAVCEnvDescriptor@@@@@@@stlp_std@@@@@priv@stlp_std@@KAAAPAU_Rb_tree_node_base@23@PAU423@@Z ; stlp_std::priv::_Rb_tree<shared_str,CEnvironment::str_pred,stlp_std::pair<shared_str const ,xr_vector<CEnvDescriptor *,xalloc<CEnvDescriptor *> > >,stlp_std::priv::_Select1st<stlp_std::pair<shared_str const ,xr_vector<CEnvDescriptor *,xalloc<CEnvDescriptor *> > > >,stlp_std::priv::_MapTraitsT<stlp_std::pair<shared_str const ,xr_vector<CEnvDescriptor *,xalloc<CEnvDescriptor *> > > >,xalloc<stlp_std::pair<shared_str,xr_vector<CEnvDescriptor *,xalloc<CEnvDescriptor *> > > > >::_S_right
PUBLIC	?_S_value@?$_Rb_tree@Vshared_str@@Ustr_pred@CEnvironment@@U?$pair@$$CBVshared_str@@V?$xr_vector@PAVCEnvDescriptor@@V?$xalloc@PAVCEnvDescriptor@@@@@@@stlp_std@@U?$_Select1st@U?$pair@$$CBVshared_str@@V?$xr_vector@PAVCEnvDescriptor@@V?$xalloc@PAVCEnvDescriptor@@@@@@@stlp_std@@@priv@5@U?$_MapTraitsT@U?$pair@$$CBVshared_str@@V?$xr_vector@PAVCEnvDescriptor@@V?$xalloc@PAVCEnvDescriptor@@@@@@@stlp_std@@@75@V?$xalloc@U?$pair@Vshared_str@@V?$xr_vector@PAVCEnvDescriptor@@V?$xalloc@PAVCEnvDescriptor@@@@@@@stlp_std@@@@@priv@stlp_std@@KAAAU?$pair@$$CBVshared_str@@V?$xr_vector@PAVCEnvDescriptor@@V?$xalloc@PAVCEnvDescriptor@@@@@@@3@PAU_Rb_tree_node_base@23@@Z ; stlp_std::priv::_Rb_tree<shared_str,CEnvironment::str_pred,stlp_std::pair<shared_str const ,xr_vector<CEnvDescriptor *,xalloc<CEnvDescriptor *> > >,stlp_std::priv::_Select1st<stlp_std::pair<shared_str const ,xr_vector<CEnvDescriptor *,xalloc<CEnvDescriptor *> > > >,stlp_std::priv::_MapTraitsT<stlp_std::pair<shared_str const ,xr_vector<CEnvDescriptor *,xalloc<CEnvDescriptor *> > > >,xalloc<stlp_std::pair<shared_str,xr_vector<CEnvDescriptor *,xalloc<CEnvDescriptor *> > > > >::_S_value
PUBLIC	??1?$vector@PAVCEnvDescriptor@@V?$xalloc@PAVCEnvDescriptor@@@@@stlp_std@@QAE@XZ ; stlp_std::vector<CEnvDescriptor *,xalloc<CEnvDescriptor *> >::~vector<CEnvDescriptor *,xalloc<CEnvDescriptor *> >
PUBLIC	??1?$xr_vector@PAVCEnvDescriptor@@V?$xalloc@PAVCEnvDescriptor@@@@@@QAE@XZ ; xr_vector<CEnvDescriptor *,xalloc<CEnvDescriptor *> >::~xr_vector<CEnvDescriptor *,xalloc<CEnvDescriptor *> >
PUBLIC	??1?$pair@$$CBVshared_str@@V?$xr_vector@PAVCEnvDescriptor@@V?$xalloc@PAVCEnvDescriptor@@@@@@@stlp_std@@QAE@XZ ; stlp_std::pair<shared_str const ,xr_vector<CEnvDescriptor *,xalloc<CEnvDescriptor *> > >::~pair<shared_str const ,xr_vector<CEnvDescriptor *,xalloc<CEnvDescriptor *> > >
PUBLIC	??_G?$pair@$$CBVshared_str@@V?$xr_vector@PAVCEnvDescriptor@@V?$xalloc@PAVCEnvDescriptor@@@@@@@stlp_std@@QAEPAXI@Z ; stlp_std::pair<shared_str const ,xr_vector<CEnvDescriptor *,xalloc<CEnvDescriptor *> > >::`scalar deleting destructor'
PUBLIC	??$__destroy_aux@U?$pair@$$CBVshared_str@@V?$xr_vector@PAVCEnvDescriptor@@V?$xalloc@PAVCEnvDescriptor@@@@@@@stlp_std@@@stlp_std@@YAXPAU?$pair@$$CBVshared_str@@V?$xr_vector@PAVCEnvDescriptor@@V?$xalloc@PAVCEnvDescriptor@@@@@@@0@ABU__false_type@0@@Z ; stlp_std::__destroy_aux<stlp_std::pair<shared_str const ,xr_vector<CEnvDescriptor *,xalloc<CEnvDescriptor *> > > >
PUBLIC	??$_Destroy@U?$pair@$$CBVshared_str@@V?$xr_vector@PAVCEnvDescriptor@@V?$xalloc@PAVCEnvDescriptor@@@@@@@stlp_std@@@stlp_std@@YAXPAU?$pair@$$CBVshared_str@@V?$xr_vector@PAVCEnvDescriptor@@V?$xalloc@PAVCEnvDescriptor@@@@@@@0@@Z ; stlp_std::_Destroy<stlp_std::pair<shared_str const ,xr_vector<CEnvDescriptor *,xalloc<CEnvDescriptor *> > > >
PUBLIC	?_M_erase@?$_Rb_tree@Vshared_str@@Ustr_pred@CEnvironment@@U?$pair@$$CBVshared_str@@V?$xr_vector@PAVCEnvDescriptor@@V?$xalloc@PAVCEnvDescriptor@@@@@@@stlp_std@@U?$_Select1st@U?$pair@$$CBVshared_str@@V?$xr_vector@PAVCEnvDescriptor@@V?$xalloc@PAVCEnvDescriptor@@@@@@@stlp_std@@@priv@5@U?$_MapTraitsT@U?$pair@$$CBVshared_str@@V?$xr_vector@PAVCEnvDescriptor@@V?$xalloc@PAVCEnvDescriptor@@@@@@@stlp_std@@@75@V?$xalloc@U?$pair@Vshared_str@@V?$xr_vector@PAVCEnvDescriptor@@V?$xalloc@PAVCEnvDescriptor@@@@@@@stlp_std@@@@@priv@stlp_std@@AAEXPAU_Rb_tree_node_base@23@@Z ; stlp_std::priv::_Rb_tree<shared_str,CEnvironment::str_pred,stlp_std::pair<shared_str const ,xr_vector<CEnvDescriptor *,xalloc<CEnvDescriptor *> > >,stlp_std::priv::_Select1st<stlp_std::pair<shared_str const ,xr_vector<CEnvDescriptor *,xalloc<CEnvDescriptor *> > > >,stlp_std::priv::_MapTraitsT<stlp_std::pair<shared_str const ,xr_vector<CEnvDescriptor *,xalloc<CEnvDescriptor *> > > >,xalloc<stlp_std::pair<shared_str,xr_vector<CEnvDescriptor *,xalloc<CEnvDescriptor *> > > > >::_M_erase
PUBLIC	?clear@?$_Rb_tree@Vshared_str@@Ustr_pred@CEnvironment@@U?$pair@$$CBVshared_str@@V?$xr_vector@PAVCEnvDescriptor@@V?$xalloc@PAVCEnvDescriptor@@@@@@@stlp_std@@U?$_Select1st@U?$pair@$$CBVshared_str@@V?$xr_vector@PAVCEnvDescriptor@@V?$xalloc@PAVCEnvDescriptor@@@@@@@stlp_std@@@priv@5@U?$_MapTraitsT@U?$pair@$$CBVshared_str@@V?$xr_vector@PAVCEnvDescriptor@@V?$xalloc@PAVCEnvDescriptor@@@@@@@stlp_std@@@75@V?$xalloc@U?$pair@Vshared_str@@V?$xr_vector@PAVCEnvDescriptor@@V?$xalloc@PAVCEnvDescriptor@@@@@@@stlp_std@@@@@priv@stlp_std@@QAEXXZ ; stlp_std::priv::_Rb_tree<shared_str,CEnvironment::str_pred,stlp_std::pair<shared_str const ,xr_vector<CEnvDescriptor *,xalloc<CEnvDescriptor *> > >,stlp_std::priv::_Select1st<stlp_std::pair<shared_str const ,xr_vector<CEnvDescriptor *,xalloc<CEnvDescriptor *> > > >,stlp_std::priv::_MapTraitsT<stlp_std::pair<shared_str const ,xr_vector<CEnvDescriptor *,xalloc<CEnvDescriptor *> > > >,xalloc<stlp_std::pair<shared_str,xr_vector<CEnvDescriptor *,xalloc<CEnvDescriptor *> > > > >::clear
PUBLIC	??4?$_Rb_tree@Vshared_str@@Ustr_pred@CEnvironment@@U?$pair@$$CBVshared_str@@V?$xr_vector@PAVCEnvDescriptor@@V?$xalloc@PAVCEnvDescriptor@@@@@@@stlp_std@@U?$_Select1st@U?$pair@$$CBVshared_str@@V?$xr_vector@PAVCEnvDescriptor@@V?$xalloc@PAVCEnvDescriptor@@@@@@@stlp_std@@@priv@5@U?$_MapTraitsT@U?$pair@$$CBVshared_str@@V?$xr_vector@PAVCEnvDescriptor@@V?$xalloc@PAVCEnvDescriptor@@@@@@@stlp_std@@@75@V?$xalloc@U?$pair@Vshared_str@@V?$xr_vector@PAVCEnvDescriptor@@V?$xalloc@PAVCEnvDescriptor@@@@@@@stlp_std@@@@@priv@stlp_std@@QAEAAV012@ABV012@@Z ; stlp_std::priv::_Rb_tree<shared_str,CEnvironment::str_pred,stlp_std::pair<shared_str const ,xr_vector<CEnvDescriptor *,xalloc<CEnvDescriptor *> > >,stlp_std::priv::_Select1st<stlp_std::pair<shared_str const ,xr_vector<CEnvDescriptor *,xalloc<CEnvDescriptor *> > > >,stlp_std::priv::_MapTraitsT<stlp_std::pair<shared_str const ,xr_vector<CEnvDescriptor *,xalloc<CEnvDescriptor *> > > >,xalloc<stlp_std::pair<shared_str,xr_vector<CEnvDescriptor *,xalloc<CEnvDescriptor *> > > > >::operator=
PUBLIC	??4?$map@Vshared_str@@V?$xr_vector@PAVCEnvDescriptor@@V?$xalloc@PAVCEnvDescriptor@@@@@@Ustr_pred@CEnvironment@@V?$xalloc@U?$pair@Vshared_str@@V?$xr_vector@PAVCEnvDescriptor@@V?$xalloc@PAVCEnvDescriptor@@@@@@@stlp_std@@@@@stlp_std@@QAEAAV01@ABV01@@Z ; stlp_std::map<shared_str,xr_vector<CEnvDescriptor *,xalloc<CEnvDescriptor *> >,CEnvironment::str_pred,xalloc<stlp_std::pair<shared_str,xr_vector<CEnvDescriptor *,xalloc<CEnvDescriptor *> > > > >::operator=
PUBLIC	??4?$xr_map@Vshared_str@@V?$xr_vector@PAVCEnvDescriptor@@V?$xalloc@PAVCEnvDescriptor@@@@@@Ustr_pred@CEnvironment@@V?$xalloc@U?$pair@Vshared_str@@V?$xr_vector@PAVCEnvDescriptor@@V?$xalloc@PAVCEnvDescriptor@@@@@@@stlp_std@@@@@@QAEAAV0@ABV0@@Z ; xr_map<shared_str,xr_vector<CEnvDescriptor *,xalloc<CEnvDescriptor *> >,CEnvironment::str_pred,xalloc<stlp_std::pair<shared_str,xr_vector<CEnvDescriptor *,xalloc<CEnvDescriptor *> > > > >::operator=
PUBLIC	?size@?$_Impl_vector@VCEnvModifier@@V?$xalloc@VCEnvModifier@@@@@priv@stlp_std@@QBEIXZ ; stlp_std::priv::_Impl_vector<CEnvModifier,xalloc<CEnvModifier> >::size
PUBLIC	?capacity@?$_Impl_vector@VCEnvModifier@@V?$xalloc@VCEnvModifier@@@@@priv@stlp_std@@QBEIXZ ; stlp_std::priv::_Impl_vector<CEnvModifier,xalloc<CEnvModifier> >::capacity
PUBLIC	??$xr_free@VCEnvModifier@@@@YAXAAPAVCEnvModifier@@@Z ; xr_free<CEnvModifier>
PUBLIC	?deallocate@?$xalloc@VCEnvModifier@@@@QBEXPAVCEnvModifier@@I@Z ; xalloc<CEnvModifier>::deallocate
PUBLIC	?end@?$_Impl_vector@VCEnvModifier@@V?$xalloc@VCEnvModifier@@@@@priv@stlp_std@@QAEPAVCEnvModifier@@XZ ; stlp_std::priv::_Impl_vector<CEnvModifier,xalloc<CEnvModifier> >::end
PUBLIC	?rbegin@?$_Impl_vector@VCEnvModifier@@V?$xalloc@VCEnvModifier@@@@@priv@stlp_std@@QAE?AV?$reverse_iterator@PAVCEnvModifier@@@3@XZ ; stlp_std::priv::_Impl_vector<CEnvModifier,xalloc<CEnvModifier> >::rbegin
PUBLIC	?begin@?$_Impl_vector@VCEnvModifier@@V?$xalloc@VCEnvModifier@@@@@priv@stlp_std@@QAEPAVCEnvModifier@@XZ ; stlp_std::priv::_Impl_vector<CEnvModifier,xalloc<CEnvModifier> >::begin
PUBLIC	??0?$reverse_iterator@PAVCEnvModifier@@@stlp_std@@QAE@PAVCEnvModifier@@@Z ; stlp_std::reverse_iterator<CEnvModifier *>::reverse_iterator<CEnvModifier *>
PUBLIC	?rend@?$_Impl_vector@VCEnvModifier@@V?$xalloc@VCEnvModifier@@@@@priv@stlp_std@@QAE?AV?$reverse_iterator@PAVCEnvModifier@@@3@XZ ; stlp_std::priv::_Impl_vector<CEnvModifier,xalloc<CEnvModifier> >::rend
PUBLIC	??0?$reverse_iterator@PAVCEnvModifier@@@stlp_std@@QAE@ABV01@@Z ; stlp_std::reverse_iterator<CEnvModifier *>::reverse_iterator<CEnvModifier *>
PUBLIC	??$__destroy_range_aux@V?$reverse_iterator@PAVCEnvModifier@@@stlp_std@@VCEnvModifier@@@stlp_std@@YAXV?$reverse_iterator@PAVCEnvModifier@@@0@0PAVCEnvModifier@@ABU__true_type@0@@Z ; stlp_std::__destroy_range_aux<stlp_std::reverse_iterator<CEnvModifier *>,CEnvModifier>
PUBLIC	??$__destroy_range@V?$reverse_iterator@PAVCEnvModifier@@@stlp_std@@VCEnvModifier@@@stlp_std@@YAXV?$reverse_iterator@PAVCEnvModifier@@@0@0PAVCEnvModifier@@@Z ; stlp_std::__destroy_range<stlp_std::reverse_iterator<CEnvModifier *>,CEnvModifier>
PUBLIC	??$_Destroy_Range@V?$reverse_iterator@PAVCEnvModifier@@@stlp_std@@@stlp_std@@YAXV?$reverse_iterator@PAVCEnvModifier@@@0@0@Z ; stlp_std::_Destroy_Range<stlp_std::reverse_iterator<CEnvModifier *> >
PUBLIC	?_M_clear@?$_Impl_vector@VCEnvModifier@@V?$xalloc@VCEnvModifier@@@@@priv@stlp_std@@AAEXXZ ; stlp_std::priv::_Impl_vector<CEnvModifier,xalloc<CEnvModifier> >::_M_clear
PUBLIC	??$xr_alloc@VCEnvModifier@@@@YAPAVCEnvModifier@@I@Z ; xr_alloc<CEnvModifier>
PUBLIC	?allocate@?$xalloc@VCEnvModifier@@@@QBEPAVCEnvModifier@@IPBX@Z ; xalloc<CEnvModifier>::allocate
PUBLIC	?allocate@?$_STLP_alloc_proxy@PAVCEnvModifier@@V1@V?$xalloc@VCEnvModifier@@@@@priv@stlp_std@@QAEPAVCEnvModifier@@I@Z ; stlp_std::priv::_STLP_alloc_proxy<CEnvModifier *,CEnvModifier,xalloc<CEnvModifier> >::allocate
PUBLIC	?allocate@?$_STLP_alloc_proxy@PAVCEnvModifier@@V1@V?$xalloc@VCEnvModifier@@@@@priv@stlp_std@@AAEPAVCEnvModifier@@IAAIABU__false_type@3@@Z ; stlp_std::priv::_STLP_alloc_proxy<CEnvModifier *,CEnvModifier,xalloc<CEnvModifier> >::allocate
PUBLIC	?allocate@?$_STLP_alloc_proxy@PAVCEnvModifier@@V1@V?$xalloc@VCEnvModifier@@@@@priv@stlp_std@@QAEPAVCEnvModifier@@IAAI@Z ; stlp_std::priv::_STLP_alloc_proxy<CEnvModifier *,CEnvModifier,xalloc<CEnvModifier> >::allocate
PUBLIC	?_Answer@?$_BothPtrType@PBVCEnvModifier@@PAV1@@stlp_std@@SA?AU__true_type@2@XZ ; stlp_std::_BothPtrType<CEnvModifier const *,CEnvModifier *>::_Answer
PUBLIC	??$__ucopy_ptrs@PBVCEnvModifier@@PAV1@@priv@stlp_std@@YAPAVCEnvModifier@@PBV2@0PAV2@ABU__true_type@1@@Z ; stlp_std::priv::__ucopy_ptrs<CEnvModifier const *,CEnvModifier *>
PUBLIC	??$_UseTrivialUCopy@VCEnvModifier@@V1@@stlp_std@@YA?AU?$_TrivialUCopy@VCEnvModifier@@V1@@0@PAVCEnvModifier@@0@Z ; stlp_std::_UseTrivialUCopy<CEnvModifier,CEnvModifier>
PUBLIC	?_Answer@?$_TrivialUCopy@VCEnvModifier@@V1@@stlp_std@@SA?AU__true_type@2@XZ ; stlp_std::_TrivialUCopy<CEnvModifier,CEnvModifier>::_Answer
PUBLIC	??$__ucopy_aux@PBVCEnvModifier@@PAV1@@priv@stlp_std@@YAPAVCEnvModifier@@PBV2@0PAV2@ABU__true_type@1@@Z ; stlp_std::priv::__ucopy_aux<CEnvModifier const *,CEnvModifier *>
PUBLIC	??$uninitialized_copy@PBVCEnvModifier@@PAV1@@stlp_std@@YAPAVCEnvModifier@@PBV1@0PAV1@@Z ; stlp_std::uninitialized_copy<CEnvModifier const *,CEnvModifier *>
PUBLIC	??$_M_allocate_and_copy@PBVCEnvModifier@@@?$_Impl_vector@VCEnvModifier@@V?$xalloc@VCEnvModifier@@@@@priv@stlp_std@@AAEPAVCEnvModifier@@AAIPBV3@1@Z ; stlp_std::priv::_Impl_vector<CEnvModifier,xalloc<CEnvModifier> >::_M_allocate_and_copy<CEnvModifier const *>
PUBLIC	??$__copy_ptrs@PBVCEnvModifier@@PAV1@@priv@stlp_std@@YAPAVCEnvModifier@@PBV2@0PAV2@ABU__true_type@1@@Z ; stlp_std::priv::__copy_ptrs<CEnvModifier const *,CEnvModifier *>
PUBLIC	??$__destroy_range_aux@PAVCEnvModifier@@V1@@stlp_std@@YAXPAVCEnvModifier@@00ABU__true_type@0@@Z ; stlp_std::__destroy_range_aux<CEnvModifier *,CEnvModifier>
PUBLIC	??$__destroy_range@PAVCEnvModifier@@V1@@stlp_std@@YAXPAVCEnvModifier@@00@Z ; stlp_std::__destroy_range<CEnvModifier *,CEnvModifier>
PUBLIC	??$_Destroy_Range@PAVCEnvModifier@@@stlp_std@@YAXPAVCEnvModifier@@0@Z ; stlp_std::_Destroy_Range<CEnvModifier *>
PUBLIC	??4?$_Impl_vector@VCEnvModifier@@V?$xalloc@VCEnvModifier@@@@@priv@stlp_std@@QAEAAV012@ABV012@@Z ; stlp_std::priv::_Impl_vector<CEnvModifier,xalloc<CEnvModifier> >::operator=
PUBLIC	??4?$vector@VCEnvModifier@@V?$xalloc@VCEnvModifier@@@@@stlp_std@@QAEAAV01@ABV01@@Z ; stlp_std::vector<CEnvModifier,xalloc<CEnvModifier> >::operator=
PUBLIC	??4?$xr_vector@VCEnvModifier@@V?$xalloc@VCEnvModifier@@@@@@QAEAAV0@ABV0@@Z ; xr_vector<CEnvModifier,xalloc<CEnvModifier> >::operator=
PUBLIC	?size@?$svector@USItem_ServerInfo@CServerInfo@@$0P@@@QBEIXZ ; svector<CServerInfo::SItem_ServerInfo,15>::size
PUBLIC	??1?$xr_map@PBDPAVIConsole_Command@@Ustr_pred@CConsole@@V?$xalloc@U?$pair@PBDPAVIConsole_Command@@@stlp_std@@@@@@QAE@XZ ; xr_map<char const *,IConsole_Command *,CConsole::str_pred,xalloc<stlp_std::pair<char const *,IConsole_Command *> > >::~xr_map<char const *,IConsole_Command *,CConsole::str_pred,xalloc<stlp_std::pair<char const *,IConsole_Command *> > >
PUBLIC	??$?0U?$_Rb_tree_node@U?$pair@QBDPAVIConsole_Command@@@stlp_std@@@priv@stlp_std@@@?$xalloc@U?$pair@QBDPAVIConsole_Command@@@stlp_std@@@@QAE@ABV?$xalloc@U?$_Rb_tree_node@U?$pair@QBDPAVIConsole_Command@@@stlp_std@@@priv@stlp_std@@@@@Z ; xalloc<stlp_std::pair<char const * const,IConsole_Command *> >::xalloc<stlp_std::pair<char const * const,IConsole_Command *> ><stlp_std::priv::_Rb_tree_node<stlp_std::pair<char const * const,IConsole_Command *> > >
PUBLIC	?get_allocator@?$_Rb_tree_base@U?$pair@QBDPAVIConsole_Command@@@stlp_std@@V?$xalloc@U?$pair@PBDPAVIConsole_Command@@@stlp_std@@@@@priv@stlp_std@@QBE?AV?$xalloc@U?$pair@QBDPAVIConsole_Command@@@stlp_std@@@@XZ ; stlp_std::priv::_Rb_tree_base<stlp_std::pair<char const * const,IConsole_Command *>,xalloc<stlp_std::pair<char const *,IConsole_Command *> > >::get_allocator
PUBLIC	?_M_empty_initialize@?$_Rb_tree_base@U?$pair@QBDPAVIConsole_Command@@@stlp_std@@V?$xalloc@U?$pair@PBDPAVIConsole_Command@@@stlp_std@@@@@priv@stlp_std@@IAEXXZ ; stlp_std::priv::_Rb_tree_base<stlp_std::pair<char const * const,IConsole_Command *>,xalloc<stlp_std::pair<char const *,IConsole_Command *> > >::_M_empty_initialize
PUBLIC	??0?$xalloc@U?$_Rb_tree_node@U?$pair@QBDPAVIConsole_Command@@@stlp_std@@@priv@stlp_std@@@@QAE@ABV0@@Z ; xalloc<stlp_std::priv::_Rb_tree_node<stlp_std::pair<char const * const,IConsole_Command *> > >::xalloc<stlp_std::priv::_Rb_tree_node<stlp_std::pair<char const * const,IConsole_Command *> > >
PUBLIC	??0?$_STLP_alloc_proxy@U_Rb_tree_node_base@priv@stlp_std@@U?$_Rb_tree_node@U?$pair@QBDPAVIConsole_Command@@@stlp_std@@@23@V?$xalloc@U?$_Rb_tree_node@U?$pair@QBDPAVIConsole_Command@@@stlp_std@@@priv@stlp_std@@@@@priv@stlp_std@@QAE@ABV?$xalloc@U?$_Rb_tree_node@U?$pair@QBDPAVIConsole_Command@@@stlp_std@@@priv@stlp_std@@@@U_Rb_tree_node_base@12@@Z ; stlp_std::priv::_STLP_alloc_proxy<stlp_std::priv::_Rb_tree_node_base,stlp_std::priv::_Rb_tree_node<stlp_std::pair<char const * const,IConsole_Command *> >,xalloc<stlp_std::priv::_Rb_tree_node<stlp_std::pair<char const * const,IConsole_Command *> > > >::_STLP_alloc_proxy<stlp_std::priv::_Rb_tree_node_base,stlp_std::priv::_Rb_tree_node<stlp_std::pair<char const * const,IConsole_Command *> >,xalloc<stlp_std::priv::_Rb_tree_node<stlp_std::pair<char const * const,IConsole_Command *> > > >
PUBLIC	??$?0U?$pair@QBDPAVIConsole_Command@@@stlp_std@@@?$xalloc@U?$_Rb_tree_node@U?$pair@QBDPAVIConsole_Command@@@stlp_std@@@priv@stlp_std@@@@QAE@ABV?$xalloc@U?$pair@QBDPAVIConsole_Command@@@stlp_std@@@@@Z ; xalloc<stlp_std::priv::_Rb_tree_node<stlp_std::pair<char const * const,IConsole_Command *> > >::xalloc<stlp_std::priv::_Rb_tree_node<stlp_std::pair<char const * const,IConsole_Command *> > ><stlp_std::pair<char const * const,IConsole_Command *> >
PUBLIC	??0?$_Rb_tree_base@U?$pair@QBDPAVIConsole_Command@@@stlp_std@@V?$xalloc@U?$pair@PBDPAVIConsole_Command@@@stlp_std@@@@@priv@stlp_std@@IAE@ABV?$xalloc@U?$pair@QBDPAVIConsole_Command@@@stlp_std@@@@@Z ; stlp_std::priv::_Rb_tree_base<stlp_std::pair<char const * const,IConsole_Command *>,xalloc<stlp_std::pair<char const *,IConsole_Command *> > >::_Rb_tree_base<stlp_std::pair<char const * const,IConsole_Command *>,xalloc<stlp_std::pair<char const *,IConsole_Command *> > >
PUBLIC	??0?$_Rb_tree@PBDUstr_pred@CConsole@@U?$pair@QBDPAVIConsole_Command@@@stlp_std@@U?$_Select1st@U?$pair@QBDPAVIConsole_Command@@@stlp_std@@@priv@4@U?$_MapTraitsT@U?$pair@QBDPAVIConsole_Command@@@stlp_std@@@64@V?$xalloc@U?$pair@PBDPAVIConsole_Command@@@stlp_std@@@@@priv@stlp_std@@QAE@ABV012@@Z ; stlp_std::priv::_Rb_tree<char const *,CConsole::str_pred,stlp_std::pair<char const * const,IConsole_Command *>,stlp_std::priv::_Select1st<stlp_std::pair<char const * const,IConsole_Command *> >,stlp_std::priv::_MapTraitsT<stlp_std::pair<char const * const,IConsole_Command *> >,xalloc<stlp_std::pair<char const *,IConsole_Command *> > >::_Rb_tree<char const *,CConsole::str_pred,stlp_std::pair<char const * const,IConsole_Command *>,stlp_std::priv::_Select1st<stlp_std::pair<char const * const,IConsole_Command *> >,stlp_std::priv::_MapTraitsT<stlp_std::pair<char const * const,IConsole_Command *> >,xalloc<stlp_std::pair<char const *,IConsole_Command *> > >
PUBLIC	??0?$map@PBDPAVIConsole_Command@@Ustr_pred@CConsole@@V?$xalloc@U?$pair@PBDPAVIConsole_Command@@@stlp_std@@@@@stlp_std@@QAE@ABV01@@Z ; stlp_std::map<char const *,IConsole_Command *,CConsole::str_pred,xalloc<stlp_std::pair<char const *,IConsole_Command *> > >::map<char const *,IConsole_Command *,CConsole::str_pred,xalloc<stlp_std::pair<char const *,IConsole_Command *> > >
PUBLIC	??1?$_Rb_tree@PBDUstr_pred@CConsole@@U?$pair@QBDPAVIConsole_Command@@@stlp_std@@U?$_Select1st@U?$pair@QBDPAVIConsole_Command@@@stlp_std@@@priv@4@U?$_MapTraitsT@U?$pair@QBDPAVIConsole_Command@@@stlp_std@@@64@V?$xalloc@U?$pair@PBDPAVIConsole_Command@@@stlp_std@@@@@priv@stlp_std@@QAE@XZ ; stlp_std::priv::_Rb_tree<char const *,CConsole::str_pred,stlp_std::pair<char const * const,IConsole_Command *>,stlp_std::priv::_Select1st<stlp_std::pair<char const * const,IConsole_Command *> >,stlp_std::priv::_MapTraitsT<stlp_std::pair<char const * const,IConsole_Command *> >,xalloc<stlp_std::pair<char const *,IConsole_Command *> > >::~_Rb_tree<char const *,CConsole::str_pred,stlp_std::pair<char const * const,IConsole_Command *>,stlp_std::priv::_Select1st<stlp_std::pair<char const * const,IConsole_Command *> >,stlp_std::priv::_MapTraitsT<stlp_std::pair<char const * const,IConsole_Command *> >,xalloc<stlp_std::pair<char const *,IConsole_Command *> > >
PUBLIC	??1?$map@PBDPAVIConsole_Command@@Ustr_pred@CConsole@@V?$xalloc@U?$pair@PBDPAVIConsole_Command@@@stlp_std@@@@@stlp_std@@QAE@XZ ; stlp_std::map<char const *,IConsole_Command *,CConsole::str_pred,xalloc<stlp_std::pair<char const *,IConsole_Command *> > >::~map<char const *,IConsole_Command *,CConsole::str_pred,xalloc<stlp_std::pair<char const *,IConsole_Command *> > >
PUBLIC	??0?$xr_map@PBDPAVIConsole_Command@@Ustr_pred@CConsole@@V?$xalloc@U?$pair@PBDPAVIConsole_Command@@@stlp_std@@@@@@QAE@ABV0@@Z ; xr_map<char const *,IConsole_Command *,CConsole::str_pred,xalloc<stlp_std::pair<char const *,IConsole_Command *> > >::xr_map<char const *,IConsole_Command *,CConsole::str_pred,xalloc<stlp_std::pair<char const *,IConsole_Command *> > >
PUBLIC	??1?$xr_vector@UTipString@@V?$xalloc@UTipString@@@@@@QAE@XZ ; xr_vector<TipString,xalloc<TipString> >::~xr_vector<TipString,xalloc<TipString> >
PUBLIC	??0?$_STLP_alloc_proxy@PAUTipString@@U1@V?$xalloc@UTipString@@@@@priv@stlp_std@@QAE@ABV?$xalloc@UTipString@@@@PAUTipString@@@Z ; stlp_std::priv::_STLP_alloc_proxy<TipString *,TipString,xalloc<TipString> >::_STLP_alloc_proxy<TipString *,TipString,xalloc<TipString> >
PUBLIC	??0?$_Vector_base@UTipString@@V?$xalloc@UTipString@@@@@priv@stlp_std@@QAE@IABV?$xalloc@UTipString@@@@@Z ; stlp_std::priv::_Vector_base<TipString,xalloc<TipString> >::_Vector_base<TipString,xalloc<TipString> >
PUBLIC	??0?$xalloc@UTipString@@@@QAE@ABV0@@Z		; xalloc<TipString>::xalloc<TipString>
PUBLIC	?get_allocator@?$_Impl_vector@UTipString@@V?$xalloc@UTipString@@@@@priv@stlp_std@@QBE?AV?$xalloc@UTipString@@@@XZ ; stlp_std::priv::_Impl_vector<TipString,xalloc<TipString> >::get_allocator
PUBLIC	?begin@?$_Impl_vector@UTipString@@V?$xalloc@UTipString@@@@@priv@stlp_std@@QBEPBUTipString@@XZ ; stlp_std::priv::_Impl_vector<TipString,xalloc<TipString> >::begin
PUBLIC	?end@?$_Impl_vector@UTipString@@V?$xalloc@UTipString@@@@@priv@stlp_std@@QBEPBUTipString@@XZ ; stlp_std::priv::_Impl_vector<TipString,xalloc<TipString> >::end
PUBLIC	??0?$_Impl_vector@UTipString@@V?$xalloc@UTipString@@@@@priv@stlp_std@@QAE@ABV012@@Z ; stlp_std::priv::_Impl_vector<TipString,xalloc<TipString> >::_Impl_vector<TipString,xalloc<TipString> >
PUBLIC	??0?$vector@UTipString@@V?$xalloc@UTipString@@@@@stlp_std@@QAE@ABV01@@Z ; stlp_std::vector<TipString,xalloc<TipString> >::vector<TipString,xalloc<TipString> >
PUBLIC	??1?$_Vector_base@UTipString@@V?$xalloc@UTipString@@@@@priv@stlp_std@@QAE@XZ ; stlp_std::priv::_Vector_base<TipString,xalloc<TipString> >::~_Vector_base<TipString,xalloc<TipString> >
PUBLIC	??1?$_Impl_vector@UTipString@@V?$xalloc@UTipString@@@@@priv@stlp_std@@QAE@XZ ; stlp_std::priv::_Impl_vector<TipString,xalloc<TipString> >::~_Impl_vector<TipString,xalloc<TipString> >
PUBLIC	??1?$vector@UTipString@@V?$xalloc@UTipString@@@@@stlp_std@@QAE@XZ ; stlp_std::vector<TipString,xalloc<TipString> >::~vector<TipString,xalloc<TipString> >
PUBLIC	??0?$xr_vector@UTipString@@V?$xalloc@UTipString@@@@@@QAE@ABV0@@Z ; xr_vector<TipString,xalloc<TipString> >::xr_vector<TipString,xalloc<TipString> >
PUBLIC	??$__copy_ptrs@PAUString@CGameFont@@PAU12@@priv@stlp_std@@YAPAUString@CGameFont@@PAU23@00ABU__true_type@1@@Z ; stlp_std::priv::__copy_ptrs<CGameFont::String *,CGameFont::String *>
PUBLIC	?_M_erase@?$_Impl_vector@UString@CGameFont@@V?$xalloc@UString@CGameFont@@@@@priv@stlp_std@@AAEPAUString@CGameFont@@PAU45@0ABU__false_type@3@@Z ; stlp_std::priv::_Impl_vector<CGameFont::String,xalloc<CGameFont::String> >::_M_erase
PUBLIC	?erase@?$_Impl_vector@UString@CGameFont@@V?$xalloc@UString@CGameFont@@@@@priv@stlp_std@@QAEPAUString@CGameFont@@PAU45@0@Z ; stlp_std::priv::_Impl_vector<CGameFont::String,xalloc<CGameFont::String> >::erase
PUBLIC	?clear@?$_Impl_vector@UString@CGameFont@@V?$xalloc@UString@CGameFont@@@@@priv@stlp_std@@QAEXXZ ; stlp_std::priv::_Impl_vector<CGameFont::String,xalloc<CGameFont::String> >::clear
PUBLIC	?clear@?$vector@UString@CGameFont@@V?$xalloc@UString@CGameFont@@@@@stlp_std@@QAEXXZ ; stlp_std::vector<CGameFont::String,xalloc<CGameFont::String> >::clear
PUBLIC	?clear_and_free@?$xr_vector@UString@CGameFont@@V?$xalloc@UString@CGameFont@@@@@@QAEXXZ ; xr_vector<CGameFont::String,xalloc<CGameFont::String> >::clear_and_free
PUBLIC	?clear@?$xr_vector@UString@CGameFont@@V?$xalloc@UString@CGameFont@@@@@@QAEXXZ ; xr_vector<CGameFont::String,xalloc<CGameFont::String> >::clear
PUBLIC	??$xr_strcpy@$0IAA@@@YAHAAY0IAA@DPBD@Z		; xr_strcpy<2048>
PUBLIC	?clear@?$svector@USItem_ServerInfo@CServerInfo@@$0P@@@QAEXXZ ; svector<CServerInfo::SItem_ServerInfo,15>::clear
PUBLIC	?empty@?$_Impl_vector@PAXV?$xalloc@PAX@@@priv@stlp_std@@QBE_NXZ ; stlp_std::priv::_Impl_vector<void *,xalloc<void *> >::empty
PUBLIC	?empty@?$vector@PAUSEffect@CEnvAmbient@@V?$xalloc@PAUSEffect@CEnvAmbient@@@@@stlp_std@@QBE_NXZ ; stlp_std::vector<CEnvAmbient::SEffect *,xalloc<CEnvAmbient::SEffect *> >::empty
PUBLIC	?size@?$vector@PAUSEffect@CEnvAmbient@@V?$xalloc@PAUSEffect@CEnvAmbient@@@@@stlp_std@@QBEIXZ ; stlp_std::vector<CEnvAmbient::SEffect *,xalloc<CEnvAmbient::SEffect *> >::size
PUBLIC	?size@?$xr_vector@PAUSEffect@CEnvAmbient@@V?$xalloc@PAUSEffect@CEnvAmbient@@@@@@QBEIXZ ; xr_vector<CEnvAmbient::SEffect *,xalloc<CEnvAmbient::SEffect *> >::size
PUBLIC	?to_value_type_ptr@?$_CastTraits@PAXPAUSEffect@CEnvAmbient@@@priv@stlp_std@@SAPAPAUSEffect@CEnvAmbient@@PAPAX@Z ; stlp_std::priv::_CastTraits<void *,CEnvAmbient::SEffect *>::to_value_type_ptr
PUBLIC	?begin@?$vector@PAUSEffect@CEnvAmbient@@V?$xalloc@PAUSEffect@CEnvAmbient@@@@@stlp_std@@QAEPAPAUSEffect@CEnvAmbient@@XZ ; stlp_std::vector<CEnvAmbient::SEffect *,xalloc<CEnvAmbient::SEffect *> >::begin
PUBLIC	??A?$xr_vector@PAUSEffect@CEnvAmbient@@V?$xalloc@PAUSEffect@CEnvAmbient@@@@@@QAEAAPAUSEffect@CEnvAmbient@@I@Z ; xr_vector<CEnvAmbient::SEffect *,xalloc<CEnvAmbient::SEffect *> >::operator[]
PUBLIC	?_M_root@?$_Rb_tree@PBDUstr_pred@CConsole@@U?$pair@QBDPAVIConsole_Command@@@stlp_std@@U?$_Select1st@U?$pair@QBDPAVIConsole_Command@@@stlp_std@@@priv@4@U?$_MapTraitsT@U?$pair@QBDPAVIConsole_Command@@@stlp_std@@@64@V?$xalloc@U?$pair@PBDPAVIConsole_Command@@@stlp_std@@@@@priv@stlp_std@@IBEPAU_Rb_tree_node_base@23@XZ ; stlp_std::priv::_Rb_tree<char const *,CConsole::str_pred,stlp_std::pair<char const * const,IConsole_Command *>,stlp_std::priv::_Select1st<stlp_std::pair<char const * const,IConsole_Command *> >,stlp_std::priv::_MapTraitsT<stlp_std::pair<char const * const,IConsole_Command *> >,xalloc<stlp_std::pair<char const *,IConsole_Command *> > >::_M_root
PUBLIC	?_S_minimum@?$_Rb_tree@PBDUstr_pred@CConsole@@U?$pair@QBDPAVIConsole_Command@@@stlp_std@@U?$_Select1st@U?$pair@QBDPAVIConsole_Command@@@stlp_std@@@priv@4@U?$_MapTraitsT@U?$pair@QBDPAVIConsole_Command@@@stlp_std@@@64@V?$xalloc@U?$pair@PBDPAVIConsole_Command@@@stlp_std@@@@@priv@stlp_std@@KAPAU_Rb_tree_node_base@23@PAU423@@Z ; stlp_std::priv::_Rb_tree<char const *,CConsole::str_pred,stlp_std::pair<char const * const,IConsole_Command *>,stlp_std::priv::_Select1st<stlp_std::pair<char const * const,IConsole_Command *> >,stlp_std::priv::_MapTraitsT<stlp_std::pair<char const * const,IConsole_Command *> >,xalloc<stlp_std::pair<char const *,IConsole_Command *> > >::_S_minimum
PUBLIC	?_S_maximum@?$_Rb_tree@PBDUstr_pred@CConsole@@U?$pair@QBDPAVIConsole_Command@@@stlp_std@@U?$_Select1st@U?$pair@QBDPAVIConsole_Command@@@stlp_std@@@priv@4@U?$_MapTraitsT@U?$pair@QBDPAVIConsole_Command@@@stlp_std@@@64@V?$xalloc@U?$pair@PBDPAVIConsole_Command@@@stlp_std@@@@@priv@stlp_std@@KAPAU_Rb_tree_node_base@23@PAU423@@Z ; stlp_std::priv::_Rb_tree<char const *,CConsole::str_pred,stlp_std::pair<char const * const,IConsole_Command *>,stlp_std::priv::_Select1st<stlp_std::pair<char const * const,IConsole_Command *> >,stlp_std::priv::_MapTraitsT<stlp_std::pair<char const * const,IConsole_Command *> >,xalloc<stlp_std::pair<char const *,IConsole_Command *> > >::_S_maximum
PUBLIC	??$xr_alloc@U?$_Rb_tree_node@U?$pair@QBDPAVIConsole_Command@@@stlp_std@@@priv@stlp_std@@@@YAPAU?$_Rb_tree_node@U?$pair@QBDPAVIConsole_Command@@@stlp_std@@@priv@stlp_std@@I@Z ; xr_alloc<stlp_std::priv::_Rb_tree_node<stlp_std::pair<char const * const,IConsole_Command *> > >
PUBLIC	?allocate@?$xalloc@U?$_Rb_tree_node@U?$pair@QBDPAVIConsole_Command@@@stlp_std@@@priv@stlp_std@@@@QBEPAU?$_Rb_tree_node@U?$pair@QBDPAVIConsole_Command@@@stlp_std@@@priv@stlp_std@@IPBX@Z ; xalloc<stlp_std::priv::_Rb_tree_node<stlp_std::pair<char const * const,IConsole_Command *> > >::allocate
PUBLIC	?allocate@?$_STLP_alloc_proxy@U_Rb_tree_node_base@priv@stlp_std@@U?$_Rb_tree_node@U?$pair@QBDPAVIConsole_Command@@@stlp_std@@@23@V?$xalloc@U?$_Rb_tree_node@U?$pair@QBDPAVIConsole_Command@@@stlp_std@@@priv@stlp_std@@@@@priv@stlp_std@@QAEPAU?$_Rb_tree_node@U?$pair@QBDPAVIConsole_Command@@@stlp_std@@@23@I@Z ; stlp_std::priv::_STLP_alloc_proxy<stlp_std::priv::_Rb_tree_node_base,stlp_std::priv::_Rb_tree_node<stlp_std::pair<char const * const,IConsole_Command *> >,xalloc<stlp_std::priv::_Rb_tree_node<stlp_std::pair<char const * const,IConsole_Command *> > > >::allocate
PUBLIC	??0?$pair@QBDPAVIConsole_Command@@@stlp_std@@QAE@ABU01@@Z ; stlp_std::pair<char const * const,IConsole_Command *>::pair<char const * const,IConsole_Command *>
PUBLIC	??$_Copy_Construct@U?$pair@QBDPAVIConsole_Command@@@stlp_std@@@stlp_std@@YAXPAU?$pair@QBDPAVIConsole_Command@@@0@ABU10@@Z ; stlp_std::_Copy_Construct<stlp_std::pair<char const * const,IConsole_Command *> >
PUBLIC	?_M_create_node@?$_Rb_tree@PBDUstr_pred@CConsole@@U?$pair@QBDPAVIConsole_Command@@@stlp_std@@U?$_Select1st@U?$pair@QBDPAVIConsole_Command@@@stlp_std@@@priv@4@U?$_MapTraitsT@U?$pair@QBDPAVIConsole_Command@@@stlp_std@@@64@V?$xalloc@U?$pair@PBDPAVIConsole_Command@@@stlp_std@@@@@priv@stlp_std@@IAEPAU_Rb_tree_node_base@23@ABU?$pair@QBDPAVIConsole_Command@@@3@@Z ; stlp_std::priv::_Rb_tree<char const *,CConsole::str_pred,stlp_std::pair<char const * const,IConsole_Command *>,stlp_std::priv::_Select1st<stlp_std::pair<char const * const,IConsole_Command *> >,stlp_std::priv::_MapTraitsT<stlp_std::pair<char const * const,IConsole_Command *> >,xalloc<stlp_std::pair<char const *,IConsole_Command *> > >::_M_create_node
PUBLIC	?_S_color@?$_Rb_tree@PBDUstr_pred@CConsole@@U?$pair@QBDPAVIConsole_Command@@@stlp_std@@U?$_Select1st@U?$pair@QBDPAVIConsole_Command@@@stlp_std@@@priv@4@U?$_MapTraitsT@U?$pair@QBDPAVIConsole_Command@@@stlp_std@@@64@V?$xalloc@U?$pair@PBDPAVIConsole_Command@@@stlp_std@@@@@priv@stlp_std@@KAAA_NPAU_Rb_tree_node_base@23@@Z ; stlp_std::priv::_Rb_tree<char const *,CConsole::str_pred,stlp_std::pair<char const * const,IConsole_Command *>,stlp_std::priv::_Select1st<stlp_std::pair<char const * const,IConsole_Command *> >,stlp_std::priv::_MapTraitsT<stlp_std::pair<char const * const,IConsole_Command *> >,xalloc<stlp_std::pair<char const *,IConsole_Command *> > >::_S_color
PUBLIC	?_M_clone_node@?$_Rb_tree@PBDUstr_pred@CConsole@@U?$pair@QBDPAVIConsole_Command@@@stlp_std@@U?$_Select1st@U?$pair@QBDPAVIConsole_Command@@@stlp_std@@@priv@4@U?$_MapTraitsT@U?$pair@QBDPAVIConsole_Command@@@stlp_std@@@64@V?$xalloc@U?$pair@PBDPAVIConsole_Command@@@stlp_std@@@@@priv@stlp_std@@IAEPAU_Rb_tree_node_base@23@PAU423@@Z ; stlp_std::priv::_Rb_tree<char const *,CConsole::str_pred,stlp_std::pair<char const * const,IConsole_Command *>,stlp_std::priv::_Select1st<stlp_std::pair<char const * const,IConsole_Command *> >,stlp_std::priv::_MapTraitsT<stlp_std::pair<char const * const,IConsole_Command *> >,xalloc<stlp_std::pair<char const *,IConsole_Command *> > >::_M_clone_node
PUBLIC	?_S_parent@?$_Rb_tree@PBDUstr_pred@CConsole@@U?$pair@QBDPAVIConsole_Command@@@stlp_std@@U?$_Select1st@U?$pair@QBDPAVIConsole_Command@@@stlp_std@@@priv@4@U?$_MapTraitsT@U?$pair@QBDPAVIConsole_Command@@@stlp_std@@@64@V?$xalloc@U?$pair@PBDPAVIConsole_Command@@@stlp_std@@@@@priv@stlp_std@@KAAAPAU_Rb_tree_node_base@23@PAU423@@Z ; stlp_std::priv::_Rb_tree<char const *,CConsole::str_pred,stlp_std::pair<char const * const,IConsole_Command *>,stlp_std::priv::_Select1st<stlp_std::pair<char const * const,IConsole_Command *> >,stlp_std::priv::_MapTraitsT<stlp_std::pair<char const * const,IConsole_Command *> >,xalloc<stlp_std::pair<char const *,IConsole_Command *> > >::_S_parent
PUBLIC	?_M_copy@?$_Rb_tree@PBDUstr_pred@CConsole@@U?$pair@QBDPAVIConsole_Command@@@stlp_std@@U?$_Select1st@U?$pair@QBDPAVIConsole_Command@@@stlp_std@@@priv@4@U?$_MapTraitsT@U?$pair@QBDPAVIConsole_Command@@@stlp_std@@@64@V?$xalloc@U?$pair@PBDPAVIConsole_Command@@@stlp_std@@@@@priv@stlp_std@@AAEPAU_Rb_tree_node_base@23@PAU423@0@Z ; stlp_std::priv::_Rb_tree<char const *,CConsole::str_pred,stlp_std::pair<char const * const,IConsole_Command *>,stlp_std::priv::_Select1st<stlp_std::pair<char const * const,IConsole_Command *> >,stlp_std::priv::_MapTraitsT<stlp_std::pair<char const * const,IConsole_Command *> >,xalloc<stlp_std::pair<char const *,IConsole_Command *> > >::_M_copy
PUBLIC	?_M_root@?$_Rb_tree@PBDUstr_pred@CConsole@@U?$pair@QBDPAVIConsole_Command@@@stlp_std@@U?$_Select1st@U?$pair@QBDPAVIConsole_Command@@@stlp_std@@@priv@4@U?$_MapTraitsT@U?$pair@QBDPAVIConsole_Command@@@stlp_std@@@64@V?$xalloc@U?$pair@PBDPAVIConsole_Command@@@stlp_std@@@@@priv@stlp_std@@IAEAAPAU_Rb_tree_node_base@23@XZ ; stlp_std::priv::_Rb_tree<char const *,CConsole::str_pred,stlp_std::pair<char const * const,IConsole_Command *>,stlp_std::priv::_Select1st<stlp_std::pair<char const * const,IConsole_Command *> >,stlp_std::priv::_MapTraitsT<stlp_std::pair<char const * const,IConsole_Command *> >,xalloc<stlp_std::pair<char const *,IConsole_Command *> > >::_M_root
PUBLIC	?_M_leftmost@?$_Rb_tree@PBDUstr_pred@CConsole@@U?$pair@QBDPAVIConsole_Command@@@stlp_std@@U?$_Select1st@U?$pair@QBDPAVIConsole_Command@@@stlp_std@@@priv@4@U?$_MapTraitsT@U?$pair@QBDPAVIConsole_Command@@@stlp_std@@@64@V?$xalloc@U?$pair@PBDPAVIConsole_Command@@@stlp_std@@@@@priv@stlp_std@@IAEAAPAU_Rb_tree_node_base@23@XZ ; stlp_std::priv::_Rb_tree<char const *,CConsole::str_pred,stlp_std::pair<char const * const,IConsole_Command *>,stlp_std::priv::_Select1st<stlp_std::pair<char const * const,IConsole_Command *> >,stlp_std::priv::_MapTraitsT<stlp_std::pair<char const * const,IConsole_Command *> >,xalloc<stlp_std::pair<char const *,IConsole_Command *> > >::_M_leftmost
PUBLIC	?_M_rightmost@?$_Rb_tree@PBDUstr_pred@CConsole@@U?$pair@QBDPAVIConsole_Command@@@stlp_std@@U?$_Select1st@U?$pair@QBDPAVIConsole_Command@@@stlp_std@@@priv@4@U?$_MapTraitsT@U?$pair@QBDPAVIConsole_Command@@@stlp_std@@@64@V?$xalloc@U?$pair@PBDPAVIConsole_Command@@@stlp_std@@@@@priv@stlp_std@@IAEAAPAU_Rb_tree_node_base@23@XZ ; stlp_std::priv::_Rb_tree<char const *,CConsole::str_pred,stlp_std::pair<char const * const,IConsole_Command *>,stlp_std::priv::_Select1st<stlp_std::pair<char const * const,IConsole_Command *> >,stlp_std::priv::_MapTraitsT<stlp_std::pair<char const * const,IConsole_Command *> >,xalloc<stlp_std::pair<char const *,IConsole_Command *> > >::_M_rightmost
PUBLIC	??$xr_free@U?$_Rb_tree_node@U?$pair@QBDPAVIConsole_Command@@@stlp_std@@@priv@stlp_std@@@@YAXAAPAU?$_Rb_tree_node@U?$pair@QBDPAVIConsole_Command@@@stlp_std@@@priv@stlp_std@@@Z ; xr_free<stlp_std::priv::_Rb_tree_node<stlp_std::pair<char const * const,IConsole_Command *> > >
PUBLIC	?deallocate@?$xalloc@U?$_Rb_tree_node@U?$pair@QBDPAVIConsole_Command@@@stlp_std@@@priv@stlp_std@@@@QBEXPAU?$_Rb_tree_node@U?$pair@QBDPAVIConsole_Command@@@stlp_std@@@priv@stlp_std@@I@Z ; xalloc<stlp_std::priv::_Rb_tree_node<stlp_std::pair<char const * const,IConsole_Command *> > >::deallocate
PUBLIC	?_S_left@?$_Rb_tree@PBDUstr_pred@CConsole@@U?$pair@QBDPAVIConsole_Command@@@stlp_std@@U?$_Select1st@U?$pair@QBDPAVIConsole_Command@@@stlp_std@@@priv@4@U?$_MapTraitsT@U?$pair@QBDPAVIConsole_Command@@@stlp_std@@@64@V?$xalloc@U?$pair@PBDPAVIConsole_Command@@@stlp_std@@@@@priv@stlp_std@@KAAAPAU_Rb_tree_node_base@23@PAU423@@Z ; stlp_std::priv::_Rb_tree<char const *,CConsole::str_pred,stlp_std::pair<char const * const,IConsole_Command *>,stlp_std::priv::_Select1st<stlp_std::pair<char const * const,IConsole_Command *> >,stlp_std::priv::_MapTraitsT<stlp_std::pair<char const * const,IConsole_Command *> >,xalloc<stlp_std::pair<char const *,IConsole_Command *> > >::_S_left
PUBLIC	?_S_right@?$_Rb_tree@PBDUstr_pred@CConsole@@U?$pair@QBDPAVIConsole_Command@@@stlp_std@@U?$_Select1st@U?$pair@QBDPAVIConsole_Command@@@stlp_std@@@priv@4@U?$_MapTraitsT@U?$pair@QBDPAVIConsole_Command@@@stlp_std@@@64@V?$xalloc@U?$pair@PBDPAVIConsole_Command@@@stlp_std@@@@@priv@stlp_std@@KAAAPAU_Rb_tree_node_base@23@PAU423@@Z ; stlp_std::priv::_Rb_tree<char const *,CConsole::str_pred,stlp_std::pair<char const * const,IConsole_Command *>,stlp_std::priv::_Select1st<stlp_std::pair<char const * const,IConsole_Command *> >,stlp_std::priv::_MapTraitsT<stlp_std::pair<char const * const,IConsole_Command *> >,xalloc<stlp_std::pair<char const *,IConsole_Command *> > >::_S_right
PUBLIC	?_S_value@?$_Rb_tree@PBDUstr_pred@CConsole@@U?$pair@QBDPAVIConsole_Command@@@stlp_std@@U?$_Select1st@U?$pair@QBDPAVIConsole_Command@@@stlp_std@@@priv@4@U?$_MapTraitsT@U?$pair@QBDPAVIConsole_Command@@@stlp_std@@@64@V?$xalloc@U?$pair@PBDPAVIConsole_Command@@@stlp_std@@@@@priv@stlp_std@@KAAAU?$pair@QBDPAVIConsole_Command@@@3@PAU_Rb_tree_node_base@23@@Z ; stlp_std::priv::_Rb_tree<char const *,CConsole::str_pred,stlp_std::pair<char const * const,IConsole_Command *>,stlp_std::priv::_Select1st<stlp_std::pair<char const * const,IConsole_Command *> >,stlp_std::priv::_MapTraitsT<stlp_std::pair<char const * const,IConsole_Command *> >,xalloc<stlp_std::pair<char const *,IConsole_Command *> > >::_S_value
PUBLIC	??$__destroy_aux@U?$pair@QBDPAVIConsole_Command@@@stlp_std@@@stlp_std@@YAXPAU?$pair@QBDPAVIConsole_Command@@@0@ABU__false_type@0@@Z ; stlp_std::__destroy_aux<stlp_std::pair<char const * const,IConsole_Command *> >
PUBLIC	??$_Destroy@U?$pair@QBDPAVIConsole_Command@@@stlp_std@@@stlp_std@@YAXPAU?$pair@QBDPAVIConsole_Command@@@0@@Z ; stlp_std::_Destroy<stlp_std::pair<char const * const,IConsole_Command *> >
PUBLIC	?_M_erase@?$_Rb_tree@PBDUstr_pred@CConsole@@U?$pair@QBDPAVIConsole_Command@@@stlp_std@@U?$_Select1st@U?$pair@QBDPAVIConsole_Command@@@stlp_std@@@priv@4@U?$_MapTraitsT@U?$pair@QBDPAVIConsole_Command@@@stlp_std@@@64@V?$xalloc@U?$pair@PBDPAVIConsole_Command@@@stlp_std@@@@@priv@stlp_std@@AAEXPAU_Rb_tree_node_base@23@@Z ; stlp_std::priv::_Rb_tree<char const *,CConsole::str_pred,stlp_std::pair<char const * const,IConsole_Command *>,stlp_std::priv::_Select1st<stlp_std::pair<char const * const,IConsole_Command *> >,stlp_std::priv::_MapTraitsT<stlp_std::pair<char const * const,IConsole_Command *> >,xalloc<stlp_std::pair<char const *,IConsole_Command *> > >::_M_erase
PUBLIC	?clear@?$_Rb_tree@PBDUstr_pred@CConsole@@U?$pair@QBDPAVIConsole_Command@@@stlp_std@@U?$_Select1st@U?$pair@QBDPAVIConsole_Command@@@stlp_std@@@priv@4@U?$_MapTraitsT@U?$pair@QBDPAVIConsole_Command@@@stlp_std@@@64@V?$xalloc@U?$pair@PBDPAVIConsole_Command@@@stlp_std@@@@@priv@stlp_std@@QAEXXZ ; stlp_std::priv::_Rb_tree<char const *,CConsole::str_pred,stlp_std::pair<char const * const,IConsole_Command *>,stlp_std::priv::_Select1st<stlp_std::pair<char const * const,IConsole_Command *> >,stlp_std::priv::_MapTraitsT<stlp_std::pair<char const * const,IConsole_Command *> >,xalloc<stlp_std::pair<char const *,IConsole_Command *> > >::clear
PUBLIC	??4?$_Rb_tree@PBDUstr_pred@CConsole@@U?$pair@QBDPAVIConsole_Command@@@stlp_std@@U?$_Select1st@U?$pair@QBDPAVIConsole_Command@@@stlp_std@@@priv@4@U?$_MapTraitsT@U?$pair@QBDPAVIConsole_Command@@@stlp_std@@@64@V?$xalloc@U?$pair@PBDPAVIConsole_Command@@@stlp_std@@@@@priv@stlp_std@@QAEAAV012@ABV012@@Z ; stlp_std::priv::_Rb_tree<char const *,CConsole::str_pred,stlp_std::pair<char const * const,IConsole_Command *>,stlp_std::priv::_Select1st<stlp_std::pair<char const * const,IConsole_Command *> >,stlp_std::priv::_MapTraitsT<stlp_std::pair<char const * const,IConsole_Command *> >,xalloc<stlp_std::pair<char const *,IConsole_Command *> > >::operator=
PUBLIC	??4?$map@PBDPAVIConsole_Command@@Ustr_pred@CConsole@@V?$xalloc@U?$pair@PBDPAVIConsole_Command@@@stlp_std@@@@@stlp_std@@QAEAAV01@ABV01@@Z ; stlp_std::map<char const *,IConsole_Command *,CConsole::str_pred,xalloc<stlp_std::pair<char const *,IConsole_Command *> > >::operator=
PUBLIC	??4?$xr_map@PBDPAVIConsole_Command@@Ustr_pred@CConsole@@V?$xalloc@U?$pair@PBDPAVIConsole_Command@@@stlp_std@@@@@@QAEAAV0@ABV0@@Z ; xr_map<char const *,IConsole_Command *,CConsole::str_pred,xalloc<stlp_std::pair<char const *,IConsole_Command *> > >::operator=
PUBLIC	?size@?$_Impl_vector@UTipString@@V?$xalloc@UTipString@@@@@priv@stlp_std@@QBEIXZ ; stlp_std::priv::_Impl_vector<TipString,xalloc<TipString> >::size
PUBLIC	?capacity@?$_Impl_vector@UTipString@@V?$xalloc@UTipString@@@@@priv@stlp_std@@QBEIXZ ; stlp_std::priv::_Impl_vector<TipString,xalloc<TipString> >::capacity
PUBLIC	??$xr_free@UTipString@@@@YAXAAPAUTipString@@@Z	; xr_free<TipString>
PUBLIC	?deallocate@?$xalloc@UTipString@@@@QBEXPAUTipString@@I@Z ; xalloc<TipString>::deallocate
PUBLIC	?end@?$_Impl_vector@UTipString@@V?$xalloc@UTipString@@@@@priv@stlp_std@@QAEPAUTipString@@XZ ; stlp_std::priv::_Impl_vector<TipString,xalloc<TipString> >::end
PUBLIC	?rbegin@?$_Impl_vector@UTipString@@V?$xalloc@UTipString@@@@@priv@stlp_std@@QAE?AV?$reverse_iterator@PAUTipString@@@3@XZ ; stlp_std::priv::_Impl_vector<TipString,xalloc<TipString> >::rbegin
PUBLIC	?begin@?$_Impl_vector@UTipString@@V?$xalloc@UTipString@@@@@priv@stlp_std@@QAEPAUTipString@@XZ ; stlp_std::priv::_Impl_vector<TipString,xalloc<TipString> >::begin
PUBLIC	??0?$reverse_iterator@PAUTipString@@@stlp_std@@QAE@PAUTipString@@@Z ; stlp_std::reverse_iterator<TipString *>::reverse_iterator<TipString *>
PUBLIC	?rend@?$_Impl_vector@UTipString@@V?$xalloc@UTipString@@@@@priv@stlp_std@@QAE?AV?$reverse_iterator@PAUTipString@@@3@XZ ; stlp_std::priv::_Impl_vector<TipString,xalloc<TipString> >::rend
PUBLIC	??0?$reverse_iterator@PAUTipString@@@stlp_std@@QAE@ABV01@@Z ; stlp_std::reverse_iterator<TipString *>::reverse_iterator<TipString *>
PUBLIC	??D?$reverse_iterator@PAUTipString@@@stlp_std@@QBEAAUTipString@@XZ ; stlp_std::reverse_iterator<TipString *>::operator*
PUBLIC	??E?$reverse_iterator@PAUTipString@@@stlp_std@@QAEAAV01@XZ ; stlp_std::reverse_iterator<TipString *>::operator++
PUBLIC	?base@?$reverse_iterator@PAUTipString@@@stlp_std@@QBEPAUTipString@@XZ ; stlp_std::reverse_iterator<TipString *>::base
PUBLIC	??$?8PAUTipString@@@stlp_std@@YA_NABV?$reverse_iterator@PAUTipString@@@0@0@Z ; stlp_std::operator==<TipString *>
PUBLIC	??$?9PAUTipString@@@stlp_std@@YA_NABV?$reverse_iterator@PAUTipString@@@0@0@Z ; stlp_std::operator!=<TipString *>
PUBLIC	??$__destroy_range_aux@V?$reverse_iterator@PAUTipString@@@stlp_std@@UTipString@@@stlp_std@@YAXV?$reverse_iterator@PAUTipString@@@0@0PAUTipString@@ABU__false_type@0@@Z ; stlp_std::__destroy_range_aux<stlp_std::reverse_iterator<TipString *>,TipString>
PUBLIC	??$__destroy_range@V?$reverse_iterator@PAUTipString@@@stlp_std@@UTipString@@@stlp_std@@YAXV?$reverse_iterator@PAUTipString@@@0@0PAUTipString@@@Z ; stlp_std::__destroy_range<stlp_std::reverse_iterator<TipString *>,TipString>
PUBLIC	??$_Destroy_Range@V?$reverse_iterator@PAUTipString@@@stlp_std@@@stlp_std@@YAXV?$reverse_iterator@PAUTipString@@@0@0@Z ; stlp_std::_Destroy_Range<stlp_std::reverse_iterator<TipString *> >
PUBLIC	?_M_clear@?$_Impl_vector@UTipString@@V?$xalloc@UTipString@@@@@priv@stlp_std@@AAEXXZ ; stlp_std::priv::_Impl_vector<TipString,xalloc<TipString> >::_M_clear
PUBLIC	??$xr_alloc@UTipString@@@@YAPAUTipString@@I@Z	; xr_alloc<TipString>
PUBLIC	?allocate@?$xalloc@UTipString@@@@QBEPAUTipString@@IPBX@Z ; xalloc<TipString>::allocate
PUBLIC	?allocate@?$_STLP_alloc_proxy@PAUTipString@@U1@V?$xalloc@UTipString@@@@@priv@stlp_std@@QAEPAUTipString@@I@Z ; stlp_std::priv::_STLP_alloc_proxy<TipString *,TipString,xalloc<TipString> >::allocate
PUBLIC	?allocate@?$_STLP_alloc_proxy@PAUTipString@@U1@V?$xalloc@UTipString@@@@@priv@stlp_std@@AAEPAUTipString@@IAAIABU__false_type@3@@Z ; stlp_std::priv::_STLP_alloc_proxy<TipString *,TipString,xalloc<TipString> >::allocate
PUBLIC	?allocate@?$_STLP_alloc_proxy@PAUTipString@@U1@V?$xalloc@UTipString@@@@@priv@stlp_std@@QAEPAUTipString@@IAAI@Z ; stlp_std::priv::_STLP_alloc_proxy<TipString *,TipString,xalloc<TipString> >::allocate
PUBLIC	?_Answer@?$_BothPtrType@PBUTipString@@PAU1@@stlp_std@@SA?AU__true_type@2@XZ ; stlp_std::_BothPtrType<TipString const *,TipString *>::_Answer
PUBLIC	??0TipString@@QAE@ABU0@@Z			; TipString::TipString
PUBLIC	??$_Param_Construct@UTipString@@U1@@stlp_std@@YAXPAUTipString@@ABU1@@Z ; stlp_std::_Param_Construct<TipString,TipString>
PUBLIC	??$__ucopy@PBUTipString@@PAU1@H@priv@stlp_std@@YAPAUTipString@@PBU2@0PAU2@ABUrandom_access_iterator_tag@1@PAH@Z ; stlp_std::priv::__ucopy<TipString const *,TipString *,int>
PUBLIC	??$__ucopy_ptrs@PBUTipString@@PAU1@@priv@stlp_std@@YAPAUTipString@@PBU2@0PAU2@ABU__false_type@1@@Z ; stlp_std::priv::__ucopy_ptrs<TipString const *,TipString *>
PUBLIC	??$_UseTrivialUCopy@UTipString@@U1@@stlp_std@@YA?AU?$_TrivialUCopy@UTipString@@U1@@0@PAUTipString@@0@Z ; stlp_std::_UseTrivialUCopy<TipString,TipString>
PUBLIC	?_Answer@?$_TrivialUCopy@UTipString@@U1@@stlp_std@@SA?AU__false_type@2@XZ ; stlp_std::_TrivialUCopy<TipString,TipString>::_Answer
PUBLIC	??$__ucopy_aux@PBUTipString@@PAU1@@priv@stlp_std@@YAPAUTipString@@PBU2@0PAU2@ABU__true_type@1@@Z ; stlp_std::priv::__ucopy_aux<TipString const *,TipString *>
PUBLIC	??$uninitialized_copy@PBUTipString@@PAU1@@stlp_std@@YAPAUTipString@@PBU1@0PAU1@@Z ; stlp_std::uninitialized_copy<TipString const *,TipString *>
PUBLIC	??$_M_allocate_and_copy@PBUTipString@@@?$_Impl_vector@UTipString@@V?$xalloc@UTipString@@@@@priv@stlp_std@@AAEPAUTipString@@AAIPBU3@1@Z ; stlp_std::priv::_Impl_vector<TipString,xalloc<TipString> >::_M_allocate_and_copy<TipString const *>
PUBLIC	??4TipString@@QAEAAU0@ABU0@@Z			; TipString::operator=
PUBLIC	??$__copy@PBUTipString@@PAU1@H@priv@stlp_std@@YAPAUTipString@@PBU2@0PAU2@ABUrandom_access_iterator_tag@1@PAH@Z ; stlp_std::priv::__copy<TipString const *,TipString *,int>
PUBLIC	??$__copy_ptrs@PBUTipString@@PAU1@@priv@stlp_std@@YAPAUTipString@@PBU2@0PAU2@ABU__false_type@1@@Z ; stlp_std::priv::__copy_ptrs<TipString const *,TipString *>
PUBLIC	??1TipString@@QAE@XZ				; TipString::~TipString
PUBLIC	??_GTipString@@QAEPAXI@Z			; TipString::`scalar deleting destructor'
PUBLIC	??$__destroy_aux@UTipString@@@stlp_std@@YAXPAUTipString@@ABU__false_type@0@@Z ; stlp_std::__destroy_aux<TipString>
PUBLIC	??$__destroy_range_aux@PAUTipString@@U1@@stlp_std@@YAXPAUTipString@@00ABU__false_type@0@@Z ; stlp_std::__destroy_range_aux<TipString *,TipString>
PUBLIC	??$__destroy_range@PAUTipString@@U1@@stlp_std@@YAXPAUTipString@@00@Z ; stlp_std::__destroy_range<TipString *,TipString>
PUBLIC	??$_Destroy_Range@PAUTipString@@@stlp_std@@YAXPAUTipString@@0@Z ; stlp_std::_Destroy_Range<TipString *>
PUBLIC	??4?$_Impl_vector@UTipString@@V?$xalloc@UTipString@@@@@priv@stlp_std@@QAEAAV012@ABV012@@Z ; stlp_std::priv::_Impl_vector<TipString,xalloc<TipString> >::operator=
PUBLIC	??4?$vector@UTipString@@V?$xalloc@UTipString@@@@@stlp_std@@QAEAAV01@ABV01@@Z ; stlp_std::vector<TipString,xalloc<TipString> >::operator=
PUBLIC	??4?$xr_vector@UTipString@@V?$xalloc@UTipString@@@@@@QAEAAV0@ABV0@@Z ; xr_vector<TipString,xalloc<TipString> >::operator=
PUBLIC	??1?$xr_vector@UString@CGameFont@@V?$xalloc@UString@CGameFont@@@@@@QAE@XZ ; xr_vector<CGameFont::String,xalloc<CGameFont::String> >::~xr_vector<CGameFont::String,xalloc<CGameFont::String> >
PUBLIC	??0?$_STLP_alloc_proxy@PAUString@CGameFont@@U12@V?$xalloc@UString@CGameFont@@@@@priv@stlp_std@@QAE@ABV?$xalloc@UString@CGameFont@@@@PAUString@CGameFont@@@Z ; stlp_std::priv::_STLP_alloc_proxy<CGameFont::String *,CGameFont::String,xalloc<CGameFont::String> >::_STLP_alloc_proxy<CGameFont::String *,CGameFont::String,xalloc<CGameFont::String> >
PUBLIC	??0?$_Vector_base@UString@CGameFont@@V?$xalloc@UString@CGameFont@@@@@priv@stlp_std@@QAE@IABV?$xalloc@UString@CGameFont@@@@@Z ; stlp_std::priv::_Vector_base<CGameFont::String,xalloc<CGameFont::String> >::_Vector_base<CGameFont::String,xalloc<CGameFont::String> >
PUBLIC	??0?$xalloc@UString@CGameFont@@@@QAE@ABV0@@Z	; xalloc<CGameFont::String>::xalloc<CGameFont::String>
PUBLIC	?get_allocator@?$_Impl_vector@UString@CGameFont@@V?$xalloc@UString@CGameFont@@@@@priv@stlp_std@@QBE?AV?$xalloc@UString@CGameFont@@@@XZ ; stlp_std::priv::_Impl_vector<CGameFont::String,xalloc<CGameFont::String> >::get_allocator
PUBLIC	?begin@?$_Impl_vector@UString@CGameFont@@V?$xalloc@UString@CGameFont@@@@@priv@stlp_std@@QBEPBUString@CGameFont@@XZ ; stlp_std::priv::_Impl_vector<CGameFont::String,xalloc<CGameFont::String> >::begin
PUBLIC	?end@?$_Impl_vector@UString@CGameFont@@V?$xalloc@UString@CGameFont@@@@@priv@stlp_std@@QBEPBUString@CGameFont@@XZ ; stlp_std::priv::_Impl_vector<CGameFont::String,xalloc<CGameFont::String> >::end
PUBLIC	??0?$_Impl_vector@UString@CGameFont@@V?$xalloc@UString@CGameFont@@@@@priv@stlp_std@@QAE@ABV012@@Z ; stlp_std::priv::_Impl_vector<CGameFont::String,xalloc<CGameFont::String> >::_Impl_vector<CGameFont::String,xalloc<CGameFont::String> >
PUBLIC	??0?$vector@UString@CGameFont@@V?$xalloc@UString@CGameFont@@@@@stlp_std@@QAE@ABV01@@Z ; stlp_std::vector<CGameFont::String,xalloc<CGameFont::String> >::vector<CGameFont::String,xalloc<CGameFont::String> >
PUBLIC	??1?$_Vector_base@UString@CGameFont@@V?$xalloc@UString@CGameFont@@@@@priv@stlp_std@@QAE@XZ ; stlp_std::priv::_Vector_base<CGameFont::String,xalloc<CGameFont::String> >::~_Vector_base<CGameFont::String,xalloc<CGameFont::String> >
PUBLIC	??1?$_Impl_vector@UString@CGameFont@@V?$xalloc@UString@CGameFont@@@@@priv@stlp_std@@QAE@XZ ; stlp_std::priv::_Impl_vector<CGameFont::String,xalloc<CGameFont::String> >::~_Impl_vector<CGameFont::String,xalloc<CGameFont::String> >
PUBLIC	??1?$vector@UString@CGameFont@@V?$xalloc@UString@CGameFont@@@@@stlp_std@@QAE@XZ ; stlp_std::vector<CGameFont::String,xalloc<CGameFont::String> >::~vector<CGameFont::String,xalloc<CGameFont::String> >
PUBLIC	??0?$xr_vector@UString@CGameFont@@V?$xalloc@UString@CGameFont@@@@@@QAE@ABV0@@Z ; xr_vector<CGameFont::String,xalloc<CGameFont::String> >::xr_vector<CGameFont::String,xalloc<CGameFont::String> >
PUBLIC	??R?$xr_special_free@$00VCInifile@@@@QAEXAAPAVCInifile@@@Z ; xr_special_free<1,CInifile>::operator()
PUBLIC	??$xr_delete@VCInifile@@@@YAXAAPAVCInifile@@@Z	; xr_delete<CInifile>
PUBLIC	?xr_sprintf@@YAHPADIPBDZZ			; xr_sprintf
PUBLIC	??A?$svector@USItem_ServerInfo@CServerInfo@@$0P@@@QAEAAUSItem_ServerInfo@CServerInfo@@I@Z ; svector<CServerInfo::SItem_ServerInfo,15>::operator[]
PUBLIC	?randI@CRandom@@QAEHHH@Z			; CRandom::randI
PUBLIC	?size@?$_Impl_vector@UString@CGameFont@@V?$xalloc@UString@CGameFont@@@@@priv@stlp_std@@QBEIXZ ; stlp_std::priv::_Impl_vector<CGameFont::String,xalloc<CGameFont::String> >::size
PUBLIC	?capacity@?$_Impl_vector@UString@CGameFont@@V?$xalloc@UString@CGameFont@@@@@priv@stlp_std@@QBEIXZ ; stlp_std::priv::_Impl_vector<CGameFont::String,xalloc<CGameFont::String> >::capacity
PUBLIC	??$xr_free@UString@CGameFont@@@@YAXAAPAUString@CGameFont@@@Z ; xr_free<CGameFont::String>
PUBLIC	?deallocate@?$xalloc@UString@CGameFont@@@@QBEXPAUString@CGameFont@@I@Z ; xalloc<CGameFont::String>::deallocate
PUBLIC	?end@?$_Impl_vector@UString@CGameFont@@V?$xalloc@UString@CGameFont@@@@@priv@stlp_std@@QAEPAUString@CGameFont@@XZ ; stlp_std::priv::_Impl_vector<CGameFont::String,xalloc<CGameFont::String> >::end
PUBLIC	?rbegin@?$_Impl_vector@UString@CGameFont@@V?$xalloc@UString@CGameFont@@@@@priv@stlp_std@@QAE?AV?$reverse_iterator@PAUString@CGameFont@@@3@XZ ; stlp_std::priv::_Impl_vector<CGameFont::String,xalloc<CGameFont::String> >::rbegin
PUBLIC	?begin@?$_Impl_vector@UString@CGameFont@@V?$xalloc@UString@CGameFont@@@@@priv@stlp_std@@QAEPAUString@CGameFont@@XZ ; stlp_std::priv::_Impl_vector<CGameFont::String,xalloc<CGameFont::String> >::begin
PUBLIC	??0?$reverse_iterator@PAUString@CGameFont@@@stlp_std@@QAE@PAUString@CGameFont@@@Z ; stlp_std::reverse_iterator<CGameFont::String *>::reverse_iterator<CGameFont::String *>
PUBLIC	?rend@?$_Impl_vector@UString@CGameFont@@V?$xalloc@UString@CGameFont@@@@@priv@stlp_std@@QAE?AV?$reverse_iterator@PAUString@CGameFont@@@3@XZ ; stlp_std::priv::_Impl_vector<CGameFont::String,xalloc<CGameFont::String> >::rend
PUBLIC	??0?$reverse_iterator@PAUString@CGameFont@@@stlp_std@@QAE@ABV01@@Z ; stlp_std::reverse_iterator<CGameFont::String *>::reverse_iterator<CGameFont::String *>
PUBLIC	??$__destroy_range_aux@V?$reverse_iterator@PAUString@CGameFont@@@stlp_std@@UString@CGameFont@@@stlp_std@@YAXV?$reverse_iterator@PAUString@CGameFont@@@0@0PAUString@CGameFont@@ABU__true_type@0@@Z ; stlp_std::__destroy_range_aux<stlp_std::reverse_iterator<CGameFont::String *>,CGameFont::String>
PUBLIC	??$__destroy_range@V?$reverse_iterator@PAUString@CGameFont@@@stlp_std@@UString@CGameFont@@@stlp_std@@YAXV?$reverse_iterator@PAUString@CGameFont@@@0@0PAUString@CGameFont@@@Z ; stlp_std::__destroy_range<stlp_std::reverse_iterator<CGameFont::String *>,CGameFont::String>
PUBLIC	??$_Destroy_Range@V?$reverse_iterator@PAUString@CGameFont@@@stlp_std@@@stlp_std@@YAXV?$reverse_iterator@PAUString@CGameFont@@@0@0@Z ; stlp_std::_Destroy_Range<stlp_std::reverse_iterator<CGameFont::String *> >
PUBLIC	?_M_clear@?$_Impl_vector@UString@CGameFont@@V?$xalloc@UString@CGameFont@@@@@priv@stlp_std@@AAEXXZ ; stlp_std::priv::_Impl_vector<CGameFont::String,xalloc<CGameFont::String> >::_M_clear
PUBLIC	??$__destroy_range_aux@PAUString@CGameFont@@U12@@stlp_std@@YAXPAUString@CGameFont@@00ABU__true_type@0@@Z ; stlp_std::__destroy_range_aux<CGameFont::String *,CGameFont::String>
PUBLIC	??$__destroy_range@PAUString@CGameFont@@U12@@stlp_std@@YAXPAUString@CGameFont@@00@Z ; stlp_std::__destroy_range<CGameFont::String *,CGameFont::String>
PUBLIC	??$_Destroy_Range@PAUString@CGameFont@@@stlp_std@@YAXPAUString@CGameFont@@0@Z ; stlp_std::_Destroy_Range<CGameFont::String *>
PUBLIC	??$xr_alloc@UString@CGameFont@@@@YAPAUString@CGameFont@@I@Z ; xr_alloc<CGameFont::String>
PUBLIC	?allocate@?$xalloc@UString@CGameFont@@@@QBEPAUString@CGameFont@@IPBX@Z ; xalloc<CGameFont::String>::allocate
PUBLIC	?allocate@?$_STLP_alloc_proxy@PAUString@CGameFont@@U12@V?$xalloc@UString@CGameFont@@@@@priv@stlp_std@@QAEPAUString@CGameFont@@I@Z ; stlp_std::priv::_STLP_alloc_proxy<CGameFont::String *,CGameFont::String,xalloc<CGameFont::String> >::allocate
PUBLIC	?allocate@?$_STLP_alloc_proxy@PAUString@CGameFont@@U12@V?$xalloc@UString@CGameFont@@@@@priv@stlp_std@@AAEPAUString@CGameFont@@IAAIABU__false_type@3@@Z ; stlp_std::priv::_STLP_alloc_proxy<CGameFont::String *,CGameFont::String,xalloc<CGameFont::String> >::allocate
PUBLIC	?allocate@?$_STLP_alloc_proxy@PAUString@CGameFont@@U12@V?$xalloc@UString@CGameFont@@@@@priv@stlp_std@@QAEPAUString@CGameFont@@IAAI@Z ; stlp_std::priv::_STLP_alloc_proxy<CGameFont::String *,CGameFont::String,xalloc<CGameFont::String> >::allocate
PUBLIC	?_Answer@?$_BothPtrType@PBUString@CGameFont@@PAU12@@stlp_std@@SA?AU__true_type@2@XZ ; stlp_std::_BothPtrType<CGameFont::String const *,CGameFont::String *>::_Answer
PUBLIC	??$__ucopy_ptrs@PBUString@CGameFont@@PAU12@@priv@stlp_std@@YAPAUString@CGameFont@@PBU23@0PAU23@ABU__true_type@1@@Z ; stlp_std::priv::__ucopy_ptrs<CGameFont::String const *,CGameFont::String *>
PUBLIC	??$_UseTrivialUCopy@UString@CGameFont@@U12@@stlp_std@@YA?AU?$_TrivialUCopy@UString@CGameFont@@U12@@0@PAUString@CGameFont@@0@Z ; stlp_std::_UseTrivialUCopy<CGameFont::String,CGameFont::String>
PUBLIC	?_Answer@?$_TrivialUCopy@UString@CGameFont@@U12@@stlp_std@@SA?AU__true_type@2@XZ ; stlp_std::_TrivialUCopy<CGameFont::String,CGameFont::String>::_Answer
PUBLIC	??$__ucopy_aux@PBUString@CGameFont@@PAU12@@priv@stlp_std@@YAPAUString@CGameFont@@PBU23@0PAU23@ABU__true_type@1@@Z ; stlp_std::priv::__ucopy_aux<CGameFont::String const *,CGameFont::String *>
PUBLIC	??$uninitialized_copy@PBUString@CGameFont@@PAU12@@stlp_std@@YAPAUString@CGameFont@@PBU12@0PAU12@@Z ; stlp_std::uninitialized_copy<CGameFont::String const *,CGameFont::String *>
PUBLIC	??$_M_allocate_and_copy@PBUString@CGameFont@@@?$_Impl_vector@UString@CGameFont@@V?$xalloc@UString@CGameFont@@@@@priv@stlp_std@@AAEPAUString@CGameFont@@AAIPBU34@1@Z ; stlp_std::priv::_Impl_vector<CGameFont::String,xalloc<CGameFont::String> >::_M_allocate_and_copy<CGameFont::String const *>
PUBLIC	??$__copy_ptrs@PBUString@CGameFont@@PAU12@@priv@stlp_std@@YAPAUString@CGameFont@@PBU23@0PAU23@ABU__true_type@1@@Z ; stlp_std::priv::__copy_ptrs<CGameFont::String const *,CGameFont::String *>
PUBLIC	??4?$_Impl_vector@UString@CGameFont@@V?$xalloc@UString@CGameFont@@@@@priv@stlp_std@@QAEAAV012@ABV012@@Z ; stlp_std::priv::_Impl_vector<CGameFont::String,xalloc<CGameFont::String> >::operator=
PUBLIC	??4?$vector@UString@CGameFont@@V?$xalloc@UString@CGameFont@@@@@stlp_std@@QAEAAV01@ABV01@@Z ; stlp_std::vector<CGameFont::String,xalloc<CGameFont::String> >::operator=
PUBLIC	??4?$xr_vector@UString@CGameFont@@V?$xalloc@UString@CGameFont@@@@@@QAEAAV0@ABV0@@Z ; xr_vector<CGameFont::String,xalloc<CGameFont::String> >::operator=
PUBLIC	??1?$xr_vector@MV?$xalloc@M@@@@QAE@XZ		; xr_vector<float,xalloc<float> >::~xr_vector<float,xalloc<float> >
PUBLIC	??0?$_STLP_alloc_proxy@PAMMV?$xalloc@M@@@priv@stlp_std@@QAE@ABV?$xalloc@M@@PAM@Z ; stlp_std::priv::_STLP_alloc_proxy<float *,float,xalloc<float> >::_STLP_alloc_proxy<float *,float,xalloc<float> >
PUBLIC	??0?$_Vector_base@MV?$xalloc@M@@@priv@stlp_std@@QAE@IABV?$xalloc@M@@@Z ; stlp_std::priv::_Vector_base<float,xalloc<float> >::_Vector_base<float,xalloc<float> >
PUBLIC	??0?$xalloc@M@@QAE@ABV0@@Z			; xalloc<float>::xalloc<float>
PUBLIC	?get_allocator@?$_Impl_vector@MV?$xalloc@M@@@priv@stlp_std@@QBE?AV?$xalloc@M@@XZ ; stlp_std::priv::_Impl_vector<float,xalloc<float> >::get_allocator
PUBLIC	?begin@?$_Impl_vector@MV?$xalloc@M@@@priv@stlp_std@@QBEPBMXZ ; stlp_std::priv::_Impl_vector<float,xalloc<float> >::begin
PUBLIC	?end@?$_Impl_vector@MV?$xalloc@M@@@priv@stlp_std@@QBEPBMXZ ; stlp_std::priv::_Impl_vector<float,xalloc<float> >::end
PUBLIC	??0?$_Impl_vector@MV?$xalloc@M@@@priv@stlp_std@@QAE@ABV012@@Z ; stlp_std::priv::_Impl_vector<float,xalloc<float> >::_Impl_vector<float,xalloc<float> >
PUBLIC	??0?$vector@MV?$xalloc@M@@@stlp_std@@QAE@ABV01@@Z ; stlp_std::vector<float,xalloc<float> >::vector<float,xalloc<float> >
PUBLIC	??1?$_Vector_base@MV?$xalloc@M@@@priv@stlp_std@@QAE@XZ ; stlp_std::priv::_Vector_base<float,xalloc<float> >::~_Vector_base<float,xalloc<float> >
PUBLIC	??1?$_Impl_vector@MV?$xalloc@M@@@priv@stlp_std@@QAE@XZ ; stlp_std::priv::_Impl_vector<float,xalloc<float> >::~_Impl_vector<float,xalloc<float> >
PUBLIC	??1?$vector@MV?$xalloc@M@@@stlp_std@@QAE@XZ	; stlp_std::vector<float,xalloc<float> >::~vector<float,xalloc<float> >
PUBLIC	??0?$xr_vector@MV?$xalloc@M@@@@QAE@ABV0@@Z	; xr_vector<float,xalloc<float> >::xr_vector<float,xalloc<float> >
PUBLIC	??R?$xr_special_free@$00VCConsole@@@@QAEXAAPAVCConsole@@@Z ; xr_special_free<1,CConsole>::operator()
PUBLIC	??$xr_delete@VCConsole@@@@YAXAAPAVCConsole@@@Z	; xr_delete<CConsole>
PUBLIC	??$__destroy_mv_srcs@V?$reverse_iterator@PAVshared_str@@@stlp_std@@Vshared_str@@@stlp_std@@YAXV?$reverse_iterator@PAVshared_str@@@0@0PAVshared_str@@@Z ; stlp_std::__destroy_mv_srcs<stlp_std::reverse_iterator<shared_str *>,shared_str>
PUBLIC	??$_Destroy_Moved_Range@V?$reverse_iterator@PAVshared_str@@@stlp_std@@@stlp_std@@YAXV?$reverse_iterator@PAVshared_str@@@0@0@Z ; stlp_std::_Destroy_Moved_Range<stlp_std::reverse_iterator<shared_str *> >
PUBLIC	?_M_clear_after_move@?$_Impl_vector@Vshared_str@@V?$xalloc@Vshared_str@@@@@priv@stlp_std@@AAEXXZ ; stlp_std::priv::_Impl_vector<shared_str,xalloc<shared_str> >::_M_clear_after_move
PUBLIC	?_M_set@?$_Impl_vector@Vshared_str@@V?$xalloc@Vshared_str@@@@@priv@stlp_std@@AAEXPAVshared_str@@00@Z ; stlp_std::priv::_Impl_vector<shared_str,xalloc<shared_str> >::_M_set
PUBLIC	??$__ucopy@PAVshared_str@@PAV1@H@priv@stlp_std@@YAPAVshared_str@@PAV2@00ABUrandom_access_iterator_tag@1@PAH@Z ; stlp_std::priv::__ucopy<shared_str *,shared_str *,int>
PUBLIC	??$__ucopy_ptrs@PAVshared_str@@PAV1@@priv@stlp_std@@YAPAVshared_str@@PAV2@00ABU__false_type@1@@Z ; stlp_std::priv::__ucopy_ptrs<shared_str *,shared_str *>
PUBLIC	??$__uninitialized_move@PAVshared_str@@PAV1@U__false_type@stlp_std@@@priv@stlp_std@@YAPAVshared_str@@PAV2@00U__false_type@1@ABU31@@Z ; stlp_std::priv::__uninitialized_move<shared_str *,shared_str *,stlp_std::__false_type>
PUBLIC	??$__ufill@PAVshared_str@@V1@H@priv@stlp_std@@YAXPAVshared_str@@0ABV2@ABUrandom_access_iterator_tag@1@PAH@Z ; stlp_std::priv::__ufill<shared_str *,shared_str,int>
PUBLIC	??$__uninitialized_fill_n@PAVshared_str@@IV1@@priv@stlp_std@@YAPAVshared_str@@PAV2@IABV2@@Z ; stlp_std::priv::__uninitialized_fill_n<shared_str *,unsigned int,shared_str>
PUBLIC	?_M_insert_overflow_aux@?$_Impl_vector@Vshared_str@@V?$xalloc@Vshared_str@@@@@priv@stlp_std@@AAEXPAVshared_str@@ABV4@ABU__false_type@3@I_N@Z ; stlp_std::priv::_Impl_vector<shared_str,xalloc<shared_str> >::_M_insert_overflow_aux
PUBLIC	?_M_insert_overflow@?$_Impl_vector@Vshared_str@@V?$xalloc@Vshared_str@@@@@priv@stlp_std@@AAEXPAVshared_str@@ABV4@ABU__false_type@3@I_N@Z ; stlp_std::priv::_Impl_vector<shared_str,xalloc<shared_str> >::_M_insert_overflow
PUBLIC	??$_Copy_Construct@Vshared_str@@@stlp_std@@YAXPAVshared_str@@ABV1@@Z ; stlp_std::_Copy_Construct<shared_str>
PUBLIC	?push_back@?$_Impl_vector@Vshared_str@@V?$xalloc@Vshared_str@@@@@priv@stlp_std@@QAEXABVshared_str@@@Z ; stlp_std::priv::_Impl_vector<shared_str,xalloc<shared_str> >::push_back
PUBLIC	?to_storage_type_cref@?$_CastTraits@Vshared_str@@V1@@priv@stlp_std@@SAABVshared_str@@ABV4@@Z ; stlp_std::priv::_CastTraits<shared_str,shared_str>::to_storage_type_cref
PUBLIC	?push_back@?$vector@Vshared_str@@V?$xalloc@Vshared_str@@@@@stlp_std@@QAEXABVshared_str@@@Z ; stlp_std::vector<shared_str,xalloc<shared_str> >::push_back
PUBLIC	??0?$svector@USItem_ServerInfo@CServerInfo@@$0P@@@QAE@XZ ; svector<CServerInfo::SItem_ServerInfo,15>::svector<CServerInfo::SItem_ServerInfo,15>
PUBLIC	??1?$xr_set@PAVCPS_Instance@@U?$less@PAVCPS_Instance@@@stlp_std@@V?$xalloc@PAVCPS_Instance@@@@@@QAE@XZ ; xr_set<CPS_Instance *,stlp_std::less<CPS_Instance *>,xalloc<CPS_Instance *> >::~xr_set<CPS_Instance *,stlp_std::less<CPS_Instance *>,xalloc<CPS_Instance *> >
PUBLIC	??$?0U?$_Rb_tree_node@PAX@priv@stlp_std@@@?$xalloc@PAX@@QAE@ABV?$xalloc@U?$_Rb_tree_node@PAX@priv@stlp_std@@@@@Z ; xalloc<void *>::xalloc<void *><stlp_std::priv::_Rb_tree_node<void *> >
PUBLIC	?get_allocator@?$_Rb_tree_base@PAXV?$xalloc@PAX@@@priv@stlp_std@@QBE?AV?$xalloc@PAX@@XZ ; stlp_std::priv::_Rb_tree_base<void *,xalloc<void *> >::get_allocator
PUBLIC	?_M_empty_initialize@?$_Rb_tree_base@PAXV?$xalloc@PAX@@@priv@stlp_std@@IAEXXZ ; stlp_std::priv::_Rb_tree_base<void *,xalloc<void *> >::_M_empty_initialize
PUBLIC	??0?$xalloc@U?$_Rb_tree_node@PAX@priv@stlp_std@@@@QAE@ABV0@@Z ; xalloc<stlp_std::priv::_Rb_tree_node<void *> >::xalloc<stlp_std::priv::_Rb_tree_node<void *> >
PUBLIC	??0?$_STLP_alloc_proxy@U_Rb_tree_node_base@priv@stlp_std@@U?$_Rb_tree_node@PAX@23@V?$xalloc@U?$_Rb_tree_node@PAX@priv@stlp_std@@@@@priv@stlp_std@@QAE@ABV?$xalloc@U?$_Rb_tree_node@PAX@priv@stlp_std@@@@U_Rb_tree_node_base@12@@Z ; stlp_std::priv::_STLP_alloc_proxy<stlp_std::priv::_Rb_tree_node_base,stlp_std::priv::_Rb_tree_node<void *>,xalloc<stlp_std::priv::_Rb_tree_node<void *> > >::_STLP_alloc_proxy<stlp_std::priv::_Rb_tree_node_base,stlp_std::priv::_Rb_tree_node<void *>,xalloc<stlp_std::priv::_Rb_tree_node<void *> > >
PUBLIC	??$?0PAX@?$xalloc@U?$_Rb_tree_node@PAX@priv@stlp_std@@@@QAE@ABV?$xalloc@PAX@@@Z ; xalloc<stlp_std::priv::_Rb_tree_node<void *> >::xalloc<stlp_std::priv::_Rb_tree_node<void *> ><void *>
PUBLIC	??0?$_Rb_tree_base@PAXV?$xalloc@PAX@@@priv@stlp_std@@IAE@ABV?$xalloc@PAX@@@Z ; stlp_std::priv::_Rb_tree_base<void *,xalloc<void *> >::_Rb_tree_base<void *,xalloc<void *> >
PUBLIC	??0?$_Rb_tree@PAXU?$_BinaryPredWrapper@PAXPAVCPS_Instance@@U?$less@PAVCPS_Instance@@@stlp_std@@@priv@stlp_std@@PAXU?$_Identity@PAX@23@U?$_SetTraitsT@PAX@23@V?$xalloc@PAX@@@priv@stlp_std@@QAE@ABV012@@Z ; stlp_std::priv::_Rb_tree<void *,stlp_std::priv::_BinaryPredWrapper<void *,CPS_Instance *,stlp_std::less<CPS_Instance *> >,void *,stlp_std::priv::_Identity<void *>,stlp_std::priv::_SetTraitsT<void *>,xalloc<void *> >::_Rb_tree<void *,stlp_std::priv::_BinaryPredWrapper<void *,CPS_Instance *,stlp_std::less<CPS_Instance *> >,void *,stlp_std::priv::_Identity<void *>,stlp_std::priv::_SetTraitsT<void *>,xalloc<void *> >
PUBLIC	??0?$set@PAVCPS_Instance@@U?$less@PAVCPS_Instance@@@stlp_std@@V?$xalloc@PAVCPS_Instance@@@@@stlp_std@@QAE@ABV01@@Z ; stlp_std::set<CPS_Instance *,stlp_std::less<CPS_Instance *>,xalloc<CPS_Instance *> >::set<CPS_Instance *,stlp_std::less<CPS_Instance *>,xalloc<CPS_Instance *> >
PUBLIC	??1?$_Rb_tree@PAXU?$_BinaryPredWrapper@PAXPAVCPS_Instance@@U?$less@PAVCPS_Instance@@@stlp_std@@@priv@stlp_std@@PAXU?$_Identity@PAX@23@U?$_SetTraitsT@PAX@23@V?$xalloc@PAX@@@priv@stlp_std@@QAE@XZ ; stlp_std::priv::_Rb_tree<void *,stlp_std::priv::_BinaryPredWrapper<void *,CPS_Instance *,stlp_std::less<CPS_Instance *> >,void *,stlp_std::priv::_Identity<void *>,stlp_std::priv::_SetTraitsT<void *>,xalloc<void *> >::~_Rb_tree<void *,stlp_std::priv::_BinaryPredWrapper<void *,CPS_Instance *,stlp_std::less<CPS_Instance *> >,void *,stlp_std::priv::_Identity<void *>,stlp_std::priv::_SetTraitsT<void *>,xalloc<void *> >
PUBLIC	??1?$set@PAVCPS_Instance@@U?$less@PAVCPS_Instance@@@stlp_std@@V?$xalloc@PAVCPS_Instance@@@@@stlp_std@@QAE@XZ ; stlp_std::set<CPS_Instance *,stlp_std::less<CPS_Instance *>,xalloc<CPS_Instance *> >::~set<CPS_Instance *,stlp_std::less<CPS_Instance *>,xalloc<CPS_Instance *> >
PUBLIC	??0?$xr_set@PAVCPS_Instance@@U?$less@PAVCPS_Instance@@@stlp_std@@V?$xalloc@PAVCPS_Instance@@@@@@QAE@ABV0@@Z ; xr_set<CPS_Instance *,stlp_std::less<CPS_Instance *>,xalloc<CPS_Instance *> >::xr_set<CPS_Instance *,stlp_std::less<CPS_Instance *>,xalloc<CPS_Instance *> >
PUBLIC	??1?$xr_vector@PAVCPS_Instance@@V?$xalloc@PAVCPS_Instance@@@@@@QAE@XZ ; xr_vector<CPS_Instance *,xalloc<CPS_Instance *> >::~xr_vector<CPS_Instance *,xalloc<CPS_Instance *> >
PUBLIC	??0?$vector@PAVCPS_Instance@@V?$xalloc@PAVCPS_Instance@@@@@stlp_std@@QAE@ABV01@@Z ; stlp_std::vector<CPS_Instance *,xalloc<CPS_Instance *> >::vector<CPS_Instance *,xalloc<CPS_Instance *> >
PUBLIC	??1?$vector@PAVCPS_Instance@@V?$xalloc@PAVCPS_Instance@@@@@stlp_std@@QAE@XZ ; stlp_std::vector<CPS_Instance *,xalloc<CPS_Instance *> >::~vector<CPS_Instance *,xalloc<CPS_Instance *> >
PUBLIC	??0?$xr_vector@PAVCPS_Instance@@V?$xalloc@PAVCPS_Instance@@@@@@QAE@ABV0@@Z ; xr_vector<CPS_Instance *,xalloc<CPS_Instance *> >::xr_vector<CPS_Instance *,xalloc<CPS_Instance *> >
PUBLIC	?size@?$_Impl_vector@MV?$xalloc@M@@@priv@stlp_std@@QBEIXZ ; stlp_std::priv::_Impl_vector<float,xalloc<float> >::size
PUBLIC	?capacity@?$_Impl_vector@MV?$xalloc@M@@@priv@stlp_std@@QBEIXZ ; stlp_std::priv::_Impl_vector<float,xalloc<float> >::capacity
PUBLIC	??$xr_free@M@@YAXAAPAM@Z			; xr_free<float>
PUBLIC	?deallocate@?$xalloc@M@@QBEXPAMI@Z		; xalloc<float>::deallocate
PUBLIC	?end@?$_Impl_vector@MV?$xalloc@M@@@priv@stlp_std@@QAEPAMXZ ; stlp_std::priv::_Impl_vector<float,xalloc<float> >::end
PUBLIC	?rbegin@?$_Impl_vector@MV?$xalloc@M@@@priv@stlp_std@@QAE?AV?$reverse_iterator@PAM@3@XZ ; stlp_std::priv::_Impl_vector<float,xalloc<float> >::rbegin
PUBLIC	?begin@?$_Impl_vector@MV?$xalloc@M@@@priv@stlp_std@@QAEPAMXZ ; stlp_std::priv::_Impl_vector<float,xalloc<float> >::begin
PUBLIC	??0?$reverse_iterator@PAM@stlp_std@@QAE@PAM@Z	; stlp_std::reverse_iterator<float *>::reverse_iterator<float *>
PUBLIC	?rend@?$_Impl_vector@MV?$xalloc@M@@@priv@stlp_std@@QAE?AV?$reverse_iterator@PAM@3@XZ ; stlp_std::priv::_Impl_vector<float,xalloc<float> >::rend
PUBLIC	??0?$reverse_iterator@PAM@stlp_std@@QAE@ABV01@@Z ; stlp_std::reverse_iterator<float *>::reverse_iterator<float *>
PUBLIC	??$__destroy_range_aux@V?$reverse_iterator@PAM@stlp_std@@M@stlp_std@@YAXV?$reverse_iterator@PAM@0@0PAMABU__true_type@0@@Z ; stlp_std::__destroy_range_aux<stlp_std::reverse_iterator<float *>,float>
PUBLIC	??$__destroy_range@V?$reverse_iterator@PAM@stlp_std@@M@stlp_std@@YAXV?$reverse_iterator@PAM@0@0PAM@Z ; stlp_std::__destroy_range<stlp_std::reverse_iterator<float *>,float>
PUBLIC	??$_Destroy_Range@V?$reverse_iterator@PAM@stlp_std@@@stlp_std@@YAXV?$reverse_iterator@PAM@0@0@Z ; stlp_std::_Destroy_Range<stlp_std::reverse_iterator<float *> >
PUBLIC	?_M_clear@?$_Impl_vector@MV?$xalloc@M@@@priv@stlp_std@@AAEXXZ ; stlp_std::priv::_Impl_vector<float,xalloc<float> >::_M_clear
PUBLIC	??$xr_alloc@M@@YAPAMI@Z				; xr_alloc<float>
PUBLIC	?allocate@?$xalloc@M@@QBEPAMIPBX@Z		; xalloc<float>::allocate
PUBLIC	?allocate@?$_STLP_alloc_proxy@PAMMV?$xalloc@M@@@priv@stlp_std@@QAEPAMI@Z ; stlp_std::priv::_STLP_alloc_proxy<float *,float,xalloc<float> >::allocate
PUBLIC	?allocate@?$_STLP_alloc_proxy@PAMMV?$xalloc@M@@@priv@stlp_std@@AAEPAMIAAIABU__false_type@3@@Z ; stlp_std::priv::_STLP_alloc_proxy<float *,float,xalloc<float> >::allocate
PUBLIC	?allocate@?$_STLP_alloc_proxy@PAMMV?$xalloc@M@@@priv@stlp_std@@QAEPAMIAAI@Z ; stlp_std::priv::_STLP_alloc_proxy<float *,float,xalloc<float> >::allocate
PUBLIC	?_Answer@?$_BothPtrType@PBMPAM@stlp_std@@SA?AU__true_type@2@XZ ; stlp_std::_BothPtrType<float const *,float *>::_Answer
PUBLIC	??$__ucopy_ptrs@PBMPAM@priv@stlp_std@@YAPAMPBM0PAMABU__true_type@1@@Z ; stlp_std::priv::__ucopy_ptrs<float const *,float *>
PUBLIC	??$_UseTrivialUCopy@MM@stlp_std@@YA?AU?$_TrivialUCopy@MM@0@PAM0@Z ; stlp_std::_UseTrivialUCopy<float,float>
PUBLIC	?_Answer@?$_TrivialUCopy@MM@stlp_std@@SA?AU__true_type@2@XZ ; stlp_std::_TrivialUCopy<float,float>::_Answer
PUBLIC	??$__ucopy_aux@PBMPAM@priv@stlp_std@@YAPAMPBM0PAMABU__true_type@1@@Z ; stlp_std::priv::__ucopy_aux<float const *,float *>
PUBLIC	??$uninitialized_copy@PBMPAM@stlp_std@@YAPAMPBM0PAM@Z ; stlp_std::uninitialized_copy<float const *,float *>
PUBLIC	??$_M_allocate_and_copy@PBM@?$_Impl_vector@MV?$xalloc@M@@@priv@stlp_std@@AAEPAMAAIPBM1@Z ; stlp_std::priv::_Impl_vector<float,xalloc<float> >::_M_allocate_and_copy<float const *>
PUBLIC	??$__copy_ptrs@PBMPAM@priv@stlp_std@@YAPAMPBM0PAMABU__true_type@1@@Z ; stlp_std::priv::__copy_ptrs<float const *,float *>
PUBLIC	??$__destroy_range_aux@PAMM@stlp_std@@YAXPAM00ABU__true_type@0@@Z ; stlp_std::__destroy_range_aux<float *,float>
PUBLIC	??$__destroy_range@PAMM@stlp_std@@YAXPAM00@Z	; stlp_std::__destroy_range<float *,float>
PUBLIC	??$_Destroy_Range@PAM@stlp_std@@YAXPAM0@Z	; stlp_std::_Destroy_Range<float *>
PUBLIC	??4?$_Impl_vector@MV?$xalloc@M@@@priv@stlp_std@@QAEAAV012@ABV012@@Z ; stlp_std::priv::_Impl_vector<float,xalloc<float> >::operator=
PUBLIC	??4?$vector@MV?$xalloc@M@@@stlp_std@@QAEAAV01@ABV01@@Z ; stlp_std::vector<float,xalloc<float> >::operator=
PUBLIC	??4?$xr_vector@MV?$xalloc@M@@@@QAEAAV0@ABV0@@Z	; xr_vector<float,xalloc<float> >::operator=
PUBLIC	?_M_root@?$_Rb_tree@PAXU?$_BinaryPredWrapper@PAXPAVCPS_Instance@@U?$less@PAVCPS_Instance@@@stlp_std@@@priv@stlp_std@@PAXU?$_Identity@PAX@23@U?$_SetTraitsT@PAX@23@V?$xalloc@PAX@@@priv@stlp_std@@IBEPAU_Rb_tree_node_base@23@XZ ; stlp_std::priv::_Rb_tree<void *,stlp_std::priv::_BinaryPredWrapper<void *,CPS_Instance *,stlp_std::less<CPS_Instance *> >,void *,stlp_std::priv::_Identity<void *>,stlp_std::priv::_SetTraitsT<void *>,xalloc<void *> >::_M_root
PUBLIC	?_S_minimum@_Rb_tree_node_base@priv@stlp_std@@SAPAU123@PAU123@@Z ; stlp_std::priv::_Rb_tree_node_base::_S_minimum
PUBLIC	?_S_minimum@?$_Rb_tree@PAXU?$_BinaryPredWrapper@PAXPAVCPS_Instance@@U?$less@PAVCPS_Instance@@@stlp_std@@@priv@stlp_std@@PAXU?$_Identity@PAX@23@U?$_SetTraitsT@PAX@23@V?$xalloc@PAX@@@priv@stlp_std@@KAPAU_Rb_tree_node_base@23@PAU423@@Z ; stlp_std::priv::_Rb_tree<void *,stlp_std::priv::_BinaryPredWrapper<void *,CPS_Instance *,stlp_std::less<CPS_Instance *> >,void *,stlp_std::priv::_Identity<void *>,stlp_std::priv::_SetTraitsT<void *>,xalloc<void *> >::_S_minimum
PUBLIC	?_S_maximum@_Rb_tree_node_base@priv@stlp_std@@SAPAU123@PAU123@@Z ; stlp_std::priv::_Rb_tree_node_base::_S_maximum
PUBLIC	?_S_maximum@?$_Rb_tree@PAXU?$_BinaryPredWrapper@PAXPAVCPS_Instance@@U?$less@PAVCPS_Instance@@@stlp_std@@@priv@stlp_std@@PAXU?$_Identity@PAX@23@U?$_SetTraitsT@PAX@23@V?$xalloc@PAX@@@priv@stlp_std@@KAPAU_Rb_tree_node_base@23@PAU423@@Z ; stlp_std::priv::_Rb_tree<void *,stlp_std::priv::_BinaryPredWrapper<void *,CPS_Instance *,stlp_std::less<CPS_Instance *> >,void *,stlp_std::priv::_Identity<void *>,stlp_std::priv::_SetTraitsT<void *>,xalloc<void *> >::_S_maximum
PUBLIC	??$xr_alloc@U?$_Rb_tree_node@PAX@priv@stlp_std@@@@YAPAU?$_Rb_tree_node@PAX@priv@stlp_std@@I@Z ; xr_alloc<stlp_std::priv::_Rb_tree_node<void *> >
PUBLIC	?allocate@?$xalloc@U?$_Rb_tree_node@PAX@priv@stlp_std@@@@QBEPAU?$_Rb_tree_node@PAX@priv@stlp_std@@IPBX@Z ; xalloc<stlp_std::priv::_Rb_tree_node<void *> >::allocate
PUBLIC	?allocate@?$_STLP_alloc_proxy@U_Rb_tree_node_base@priv@stlp_std@@U?$_Rb_tree_node@PAX@23@V?$xalloc@U?$_Rb_tree_node@PAX@priv@stlp_std@@@@@priv@stlp_std@@QAEPAU?$_Rb_tree_node@PAX@23@I@Z ; stlp_std::priv::_STLP_alloc_proxy<stlp_std::priv::_Rb_tree_node_base,stlp_std::priv::_Rb_tree_node<void *>,xalloc<stlp_std::priv::_Rb_tree_node<void *> > >::allocate
PUBLIC	??$_Copy_Construct@PAX@stlp_std@@YAXPAPAXABQAX@Z ; stlp_std::_Copy_Construct<void *>
PUBLIC	?_M_create_node@?$_Rb_tree@PAXU?$_BinaryPredWrapper@PAXPAVCPS_Instance@@U?$less@PAVCPS_Instance@@@stlp_std@@@priv@stlp_std@@PAXU?$_Identity@PAX@23@U?$_SetTraitsT@PAX@23@V?$xalloc@PAX@@@priv@stlp_std@@IAEPAU_Rb_tree_node_base@23@ABQAX@Z ; stlp_std::priv::_Rb_tree<void *,stlp_std::priv::_BinaryPredWrapper<void *,CPS_Instance *,stlp_std::less<CPS_Instance *> >,void *,stlp_std::priv::_Identity<void *>,stlp_std::priv::_SetTraitsT<void *>,xalloc<void *> >::_M_create_node
PUBLIC	?_S_color@?$_Rb_tree@PAXU?$_BinaryPredWrapper@PAXPAVCPS_Instance@@U?$less@PAVCPS_Instance@@@stlp_std@@@priv@stlp_std@@PAXU?$_Identity@PAX@23@U?$_SetTraitsT@PAX@23@V?$xalloc@PAX@@@priv@stlp_std@@KAAA_NPAU_Rb_tree_node_base@23@@Z ; stlp_std::priv::_Rb_tree<void *,stlp_std::priv::_BinaryPredWrapper<void *,CPS_Instance *,stlp_std::less<CPS_Instance *> >,void *,stlp_std::priv::_Identity<void *>,stlp_std::priv::_SetTraitsT<void *>,xalloc<void *> >::_S_color
PUBLIC	?_M_clone_node@?$_Rb_tree@PAXU?$_BinaryPredWrapper@PAXPAVCPS_Instance@@U?$less@PAVCPS_Instance@@@stlp_std@@@priv@stlp_std@@PAXU?$_Identity@PAX@23@U?$_SetTraitsT@PAX@23@V?$xalloc@PAX@@@priv@stlp_std@@IAEPAU_Rb_tree_node_base@23@PAU423@@Z ; stlp_std::priv::_Rb_tree<void *,stlp_std::priv::_BinaryPredWrapper<void *,CPS_Instance *,stlp_std::less<CPS_Instance *> >,void *,stlp_std::priv::_Identity<void *>,stlp_std::priv::_SetTraitsT<void *>,xalloc<void *> >::_M_clone_node
PUBLIC	?_S_parent@?$_Rb_tree@PAXU?$_BinaryPredWrapper@PAXPAVCPS_Instance@@U?$less@PAVCPS_Instance@@@stlp_std@@@priv@stlp_std@@PAXU?$_Identity@PAX@23@U?$_SetTraitsT@PAX@23@V?$xalloc@PAX@@@priv@stlp_std@@KAAAPAU_Rb_tree_node_base@23@PAU423@@Z ; stlp_std::priv::_Rb_tree<void *,stlp_std::priv::_BinaryPredWrapper<void *,CPS_Instance *,stlp_std::less<CPS_Instance *> >,void *,stlp_std::priv::_Identity<void *>,stlp_std::priv::_SetTraitsT<void *>,xalloc<void *> >::_S_parent
PUBLIC	?_M_copy@?$_Rb_tree@PAXU?$_BinaryPredWrapper@PAXPAVCPS_Instance@@U?$less@PAVCPS_Instance@@@stlp_std@@@priv@stlp_std@@PAXU?$_Identity@PAX@23@U?$_SetTraitsT@PAX@23@V?$xalloc@PAX@@@priv@stlp_std@@AAEPAU_Rb_tree_node_base@23@PAU423@0@Z ; stlp_std::priv::_Rb_tree<void *,stlp_std::priv::_BinaryPredWrapper<void *,CPS_Instance *,stlp_std::less<CPS_Instance *> >,void *,stlp_std::priv::_Identity<void *>,stlp_std::priv::_SetTraitsT<void *>,xalloc<void *> >::_M_copy
PUBLIC	?_M_root@?$_Rb_tree@PAXU?$_BinaryPredWrapper@PAXPAVCPS_Instance@@U?$less@PAVCPS_Instance@@@stlp_std@@@priv@stlp_std@@PAXU?$_Identity@PAX@23@U?$_SetTraitsT@PAX@23@V?$xalloc@PAX@@@priv@stlp_std@@IAEAAPAU_Rb_tree_node_base@23@XZ ; stlp_std::priv::_Rb_tree<void *,stlp_std::priv::_BinaryPredWrapper<void *,CPS_Instance *,stlp_std::less<CPS_Instance *> >,void *,stlp_std::priv::_Identity<void *>,stlp_std::priv::_SetTraitsT<void *>,xalloc<void *> >::_M_root
PUBLIC	?_M_leftmost@?$_Rb_tree@PAXU?$_BinaryPredWrapper@PAXPAVCPS_Instance@@U?$less@PAVCPS_Instance@@@stlp_std@@@priv@stlp_std@@PAXU?$_Identity@PAX@23@U?$_SetTraitsT@PAX@23@V?$xalloc@PAX@@@priv@stlp_std@@IAEAAPAU_Rb_tree_node_base@23@XZ ; stlp_std::priv::_Rb_tree<void *,stlp_std::priv::_BinaryPredWrapper<void *,CPS_Instance *,stlp_std::less<CPS_Instance *> >,void *,stlp_std::priv::_Identity<void *>,stlp_std::priv::_SetTraitsT<void *>,xalloc<void *> >::_M_leftmost
PUBLIC	?_M_rightmost@?$_Rb_tree@PAXU?$_BinaryPredWrapper@PAXPAVCPS_Instance@@U?$less@PAVCPS_Instance@@@stlp_std@@@priv@stlp_std@@PAXU?$_Identity@PAX@23@U?$_SetTraitsT@PAX@23@V?$xalloc@PAX@@@priv@stlp_std@@IAEAAPAU_Rb_tree_node_base@23@XZ ; stlp_std::priv::_Rb_tree<void *,stlp_std::priv::_BinaryPredWrapper<void *,CPS_Instance *,stlp_std::less<CPS_Instance *> >,void *,stlp_std::priv::_Identity<void *>,stlp_std::priv::_SetTraitsT<void *>,xalloc<void *> >::_M_rightmost
PUBLIC	??$xr_free@U?$_Rb_tree_node@PAX@priv@stlp_std@@@@YAXAAPAU?$_Rb_tree_node@PAX@priv@stlp_std@@@Z ; xr_free<stlp_std::priv::_Rb_tree_node<void *> >
PUBLIC	?deallocate@?$xalloc@U?$_Rb_tree_node@PAX@priv@stlp_std@@@@QBEXPAU?$_Rb_tree_node@PAX@priv@stlp_std@@I@Z ; xalloc<stlp_std::priv::_Rb_tree_node<void *> >::deallocate
PUBLIC	?_S_left@?$_Rb_tree@PAXU?$_BinaryPredWrapper@PAXPAVCPS_Instance@@U?$less@PAVCPS_Instance@@@stlp_std@@@priv@stlp_std@@PAXU?$_Identity@PAX@23@U?$_SetTraitsT@PAX@23@V?$xalloc@PAX@@@priv@stlp_std@@KAAAPAU_Rb_tree_node_base@23@PAU423@@Z ; stlp_std::priv::_Rb_tree<void *,stlp_std::priv::_BinaryPredWrapper<void *,CPS_Instance *,stlp_std::less<CPS_Instance *> >,void *,stlp_std::priv::_Identity<void *>,stlp_std::priv::_SetTraitsT<void *>,xalloc<void *> >::_S_left
PUBLIC	?_S_right@?$_Rb_tree@PAXU?$_BinaryPredWrapper@PAXPAVCPS_Instance@@U?$less@PAVCPS_Instance@@@stlp_std@@@priv@stlp_std@@PAXU?$_Identity@PAX@23@U?$_SetTraitsT@PAX@23@V?$xalloc@PAX@@@priv@stlp_std@@KAAAPAU_Rb_tree_node_base@23@PAU423@@Z ; stlp_std::priv::_Rb_tree<void *,stlp_std::priv::_BinaryPredWrapper<void *,CPS_Instance *,stlp_std::less<CPS_Instance *> >,void *,stlp_std::priv::_Identity<void *>,stlp_std::priv::_SetTraitsT<void *>,xalloc<void *> >::_S_right
PUBLIC	?_S_value@?$_Rb_tree@PAXU?$_BinaryPredWrapper@PAXPAVCPS_Instance@@U?$less@PAVCPS_Instance@@@stlp_std@@@priv@stlp_std@@PAXU?$_Identity@PAX@23@U?$_SetTraitsT@PAX@23@V?$xalloc@PAX@@@priv@stlp_std@@KAAAPAXPAU_Rb_tree_node_base@23@@Z ; stlp_std::priv::_Rb_tree<void *,stlp_std::priv::_BinaryPredWrapper<void *,CPS_Instance *,stlp_std::less<CPS_Instance *> >,void *,stlp_std::priv::_Identity<void *>,stlp_std::priv::_SetTraitsT<void *>,xalloc<void *> >::_S_value
PUBLIC	??$__destroy_aux@PAX@stlp_std@@YAXPAPAXABU__true_type@0@@Z ; stlp_std::__destroy_aux<void *>
PUBLIC	??$_Destroy@PAX@stlp_std@@YAXPAPAX@Z		; stlp_std::_Destroy<void *>
PUBLIC	?_M_erase@?$_Rb_tree@PAXU?$_BinaryPredWrapper@PAXPAVCPS_Instance@@U?$less@PAVCPS_Instance@@@stlp_std@@@priv@stlp_std@@PAXU?$_Identity@PAX@23@U?$_SetTraitsT@PAX@23@V?$xalloc@PAX@@@priv@stlp_std@@AAEXPAU_Rb_tree_node_base@23@@Z ; stlp_std::priv::_Rb_tree<void *,stlp_std::priv::_BinaryPredWrapper<void *,CPS_Instance *,stlp_std::less<CPS_Instance *> >,void *,stlp_std::priv::_Identity<void *>,stlp_std::priv::_SetTraitsT<void *>,xalloc<void *> >::_M_erase
PUBLIC	?clear@?$_Rb_tree@PAXU?$_BinaryPredWrapper@PAXPAVCPS_Instance@@U?$less@PAVCPS_Instance@@@stlp_std@@@priv@stlp_std@@PAXU?$_Identity@PAX@23@U?$_SetTraitsT@PAX@23@V?$xalloc@PAX@@@priv@stlp_std@@QAEXXZ ; stlp_std::priv::_Rb_tree<void *,stlp_std::priv::_BinaryPredWrapper<void *,CPS_Instance *,stlp_std::less<CPS_Instance *> >,void *,stlp_std::priv::_Identity<void *>,stlp_std::priv::_SetTraitsT<void *>,xalloc<void *> >::clear
PUBLIC	??4?$_Rb_tree@PAXU?$_BinaryPredWrapper@PAXPAVCPS_Instance@@U?$less@PAVCPS_Instance@@@stlp_std@@@priv@stlp_std@@PAXU?$_Identity@PAX@23@U?$_SetTraitsT@PAX@23@V?$xalloc@PAX@@@priv@stlp_std@@QAEAAV012@ABV012@@Z ; stlp_std::priv::_Rb_tree<void *,stlp_std::priv::_BinaryPredWrapper<void *,CPS_Instance *,stlp_std::less<CPS_Instance *> >,void *,stlp_std::priv::_Identity<void *>,stlp_std::priv::_SetTraitsT<void *>,xalloc<void *> >::operator=
PUBLIC	??4?$set@PAVCPS_Instance@@U?$less@PAVCPS_Instance@@@stlp_std@@V?$xalloc@PAVCPS_Instance@@@@@stlp_std@@QAEAAV01@ABV01@@Z ; stlp_std::set<CPS_Instance *,stlp_std::less<CPS_Instance *>,xalloc<CPS_Instance *> >::operator=
PUBLIC	??4?$xr_set@PAVCPS_Instance@@U?$less@PAVCPS_Instance@@@stlp_std@@V?$xalloc@PAVCPS_Instance@@@@@@QAEAAV0@ABV0@@Z ; xr_set<CPS_Instance *,stlp_std::less<CPS_Instance *>,xalloc<CPS_Instance *> >::operator=
PUBLIC	??4?$vector@PAVCPS_Instance@@V?$xalloc@PAVCPS_Instance@@@@@stlp_std@@QAEAAV01@ABV01@@Z ; stlp_std::vector<CPS_Instance *,xalloc<CPS_Instance *> >::operator=
PUBLIC	??4?$xr_vector@PAVCPS_Instance@@V?$xalloc@PAVCPS_Instance@@@@@@QAEAAV0@ABV0@@Z ; xr_vector<CPS_Instance *,xalloc<CPS_Instance *> >::operator=
PUBLIC	??$max@I@stlp_std@@YAABIABI0@Z			; stlp_std::max<unsigned int>
PUBLIC	??$xr_alloc@UsLevelInfo@CApplication@@@@YAPAUsLevelInfo@CApplication@@I@Z ; xr_alloc<CApplication::sLevelInfo>
PUBLIC	?allocate@?$xalloc@UsLevelInfo@CApplication@@@@QBEPAUsLevelInfo@CApplication@@IPBX@Z ; xalloc<CApplication::sLevelInfo>::allocate
PUBLIC	?allocate@?$_STLP_alloc_proxy@PAUsLevelInfo@CApplication@@U12@V?$xalloc@UsLevelInfo@CApplication@@@@@priv@stlp_std@@QAEPAUsLevelInfo@CApplication@@I@Z ; stlp_std::priv::_STLP_alloc_proxy<CApplication::sLevelInfo *,CApplication::sLevelInfo,xalloc<CApplication::sLevelInfo> >::allocate
PUBLIC	?allocate@?$_STLP_alloc_proxy@PAUsLevelInfo@CApplication@@U12@V?$xalloc@UsLevelInfo@CApplication@@@@@priv@stlp_std@@AAEPAUsLevelInfo@CApplication@@IAAIABU__false_type@3@@Z ; stlp_std::priv::_STLP_alloc_proxy<CApplication::sLevelInfo *,CApplication::sLevelInfo,xalloc<CApplication::sLevelInfo> >::allocate
PUBLIC	?allocate@?$_STLP_alloc_proxy@PAUsLevelInfo@CApplication@@U12@V?$xalloc@UsLevelInfo@CApplication@@@@@priv@stlp_std@@QAEPAUsLevelInfo@CApplication@@IAAI@Z ; stlp_std::priv::_STLP_alloc_proxy<CApplication::sLevelInfo *,CApplication::sLevelInfo,xalloc<CApplication::sLevelInfo> >::allocate
PUBLIC	??$xr_free@UsLevelInfo@CApplication@@@@YAXAAPAUsLevelInfo@CApplication@@@Z ; xr_free<CApplication::sLevelInfo>
PUBLIC	?deallocate@?$xalloc@UsLevelInfo@CApplication@@@@QBEXPAUsLevelInfo@CApplication@@I@Z ; xalloc<CApplication::sLevelInfo>::deallocate
PUBLIC	?rbegin@?$_Impl_vector@UsLevelInfo@CApplication@@V?$xalloc@UsLevelInfo@CApplication@@@@@priv@stlp_std@@QAE?AV?$reverse_iterator@PAUsLevelInfo@CApplication@@@3@XZ ; stlp_std::priv::_Impl_vector<CApplication::sLevelInfo,xalloc<CApplication::sLevelInfo> >::rbegin
PUBLIC	??0?$reverse_iterator@PAUsLevelInfo@CApplication@@@stlp_std@@QAE@PAUsLevelInfo@CApplication@@@Z ; stlp_std::reverse_iterator<CApplication::sLevelInfo *>::reverse_iterator<CApplication::sLevelInfo *>
PUBLIC	?rend@?$_Impl_vector@UsLevelInfo@CApplication@@V?$xalloc@UsLevelInfo@CApplication@@@@@priv@stlp_std@@QAE?AV?$reverse_iterator@PAUsLevelInfo@CApplication@@@3@XZ ; stlp_std::priv::_Impl_vector<CApplication::sLevelInfo,xalloc<CApplication::sLevelInfo> >::rend
PUBLIC	??0?$reverse_iterator@PAUsLevelInfo@CApplication@@@stlp_std@@QAE@ABV01@@Z ; stlp_std::reverse_iterator<CApplication::sLevelInfo *>::reverse_iterator<CApplication::sLevelInfo *>
PUBLIC	??$__destroy_range_aux@V?$reverse_iterator@PAUsLevelInfo@CApplication@@@stlp_std@@UsLevelInfo@CApplication@@@stlp_std@@YAXV?$reverse_iterator@PAUsLevelInfo@CApplication@@@0@0PAUsLevelInfo@CApplication@@ABU__true_type@0@@Z ; stlp_std::__destroy_range_aux<stlp_std::reverse_iterator<CApplication::sLevelInfo *>,CApplication::sLevelInfo>
PUBLIC	??$__destroy_range@V?$reverse_iterator@PAUsLevelInfo@CApplication@@@stlp_std@@UsLevelInfo@CApplication@@@stlp_std@@YAXV?$reverse_iterator@PAUsLevelInfo@CApplication@@@0@0PAUsLevelInfo@CApplication@@@Z ; stlp_std::__destroy_range<stlp_std::reverse_iterator<CApplication::sLevelInfo *>,CApplication::sLevelInfo>
PUBLIC	??$_Destroy_Range@V?$reverse_iterator@PAUsLevelInfo@CApplication@@@stlp_std@@@stlp_std@@YAXV?$reverse_iterator@PAUsLevelInfo@CApplication@@@0@0@Z ; stlp_std::_Destroy_Range<stlp_std::reverse_iterator<CApplication::sLevelInfo *> >
PUBLIC	?_M_clear@?$_Impl_vector@UsLevelInfo@CApplication@@V?$xalloc@UsLevelInfo@CApplication@@@@@priv@stlp_std@@AAEXXZ ; stlp_std::priv::_Impl_vector<CApplication::sLevelInfo,xalloc<CApplication::sLevelInfo> >::_M_clear
PUBLIC	?_M_set@?$_Impl_vector@UsLevelInfo@CApplication@@V?$xalloc@UsLevelInfo@CApplication@@@@@priv@stlp_std@@AAEXPAUsLevelInfo@CApplication@@00@Z ; stlp_std::priv::_Impl_vector<CApplication::sLevelInfo,xalloc<CApplication::sLevelInfo> >::_M_set
PUBLIC	??$__fill_n@PAUsLevelInfo@CApplication@@IU12@@priv@stlp_std@@YAPAUsLevelInfo@CApplication@@PAU23@IABU23@@Z ; stlp_std::priv::__fill_n<CApplication::sLevelInfo *,unsigned int,CApplication::sLevelInfo>
PUBLIC	?_M_insert_overflow@?$_Impl_vector@UsLevelInfo@CApplication@@V?$xalloc@UsLevelInfo@CApplication@@@@@priv@stlp_std@@AAEXPAUsLevelInfo@CApplication@@ABU45@ABU__true_type@3@I_N@Z ; stlp_std::priv::_Impl_vector<CApplication::sLevelInfo,xalloc<CApplication::sLevelInfo> >::_M_insert_overflow
PUBLIC	??$_Copy_Construct@UsLevelInfo@CApplication@@@stlp_std@@YAXPAUsLevelInfo@CApplication@@ABU12@@Z ; stlp_std::_Copy_Construct<CApplication::sLevelInfo>
PUBLIC	?push_back@?$_Impl_vector@UsLevelInfo@CApplication@@V?$xalloc@UsLevelInfo@CApplication@@@@@priv@stlp_std@@QAEXABUsLevelInfo@CApplication@@@Z ; stlp_std::priv::_Impl_vector<CApplication::sLevelInfo,xalloc<CApplication::sLevelInfo> >::push_back
PUBLIC	?to_storage_type_cref@?$_CastTraits@UsLevelInfo@CApplication@@U12@@priv@stlp_std@@SAABUsLevelInfo@CApplication@@ABU45@@Z ; stlp_std::priv::_CastTraits<CApplication::sLevelInfo,CApplication::sLevelInfo>::to_storage_type_cref
PUBLIC	?push_back@?$vector@UsLevelInfo@CApplication@@V?$xalloc@UsLevelInfo@CApplication@@@@@stlp_std@@QAEXABUsLevelInfo@CApplication@@@Z ; stlp_std::vector<CApplication::sLevelInfo,xalloc<CApplication::sLevelInfo> >::push_back
PUBLIC	??0shared_str@@QAE@XZ				; shared_str::shared_str
PUBLIC	??0?$xalloc@PAUSEffect@CEnvAmbient@@@@QAE@XZ	; xalloc<CEnvAmbient::SEffect *>::xalloc<CEnvAmbient::SEffect *>
PUBLIC	??$?0PAUSEffect@CEnvAmbient@@@?$xalloc@PAX@@QAE@ABV?$xalloc@PAUSEffect@CEnvAmbient@@@@@Z ; xalloc<void *>::xalloc<void *><CEnvAmbient::SEffect *>
PUBLIC	??0?$vector@PAUSEffect@CEnvAmbient@@V?$xalloc@PAUSEffect@CEnvAmbient@@@@@stlp_std@@QAE@ABV?$xalloc@PAUSEffect@CEnvAmbient@@@@@Z ; stlp_std::vector<CEnvAmbient::SEffect *,xalloc<CEnvAmbient::SEffect *> >::vector<CEnvAmbient::SEffect *,xalloc<CEnvAmbient::SEffect *> >
PUBLIC	??0?$xr_vector@PAUSEffect@CEnvAmbient@@V?$xalloc@PAUSEffect@CEnvAmbient@@@@@@QAE@XZ ; xr_vector<CEnvAmbient::SEffect *,xalloc<CEnvAmbient::SEffect *> >::xr_vector<CEnvAmbient::SEffect *,xalloc<CEnvAmbient::SEffect *> >
PUBLIC	??0?$xalloc@PAUSSndChannel@CEnvAmbient@@@@QAE@XZ ; xalloc<CEnvAmbient::SSndChannel *>::xalloc<CEnvAmbient::SSndChannel *>
PUBLIC	??$?0PAUSSndChannel@CEnvAmbient@@@?$xalloc@PAX@@QAE@ABV?$xalloc@PAUSSndChannel@CEnvAmbient@@@@@Z ; xalloc<void *>::xalloc<void *><CEnvAmbient::SSndChannel *>
PUBLIC	??0?$vector@PAUSSndChannel@CEnvAmbient@@V?$xalloc@PAUSSndChannel@CEnvAmbient@@@@@stlp_std@@QAE@ABV?$xalloc@PAUSSndChannel@CEnvAmbient@@@@@Z ; stlp_std::vector<CEnvAmbient::SSndChannel *,xalloc<CEnvAmbient::SSndChannel *> >::vector<CEnvAmbient::SSndChannel *,xalloc<CEnvAmbient::SSndChannel *> >
PUBLIC	??0?$xr_vector@PAUSSndChannel@CEnvAmbient@@V?$xalloc@PAUSSndChannel@CEnvAmbient@@@@@@QAE@XZ ; xr_vector<CEnvAmbient::SSndChannel *,xalloc<CEnvAmbient::SSndChannel *> >::xr_vector<CEnvAmbient::SSndChannel *,xalloc<CEnvAmbient::SSndChannel *> >
PUBLIC	?size@?$vector@PADV?$xalloc@PAD@@@stlp_std@@QBEIXZ ; stlp_std::vector<char *,xalloc<char *> >::size
PUBLIC	?size@?$xr_vector@PADV?$xalloc@PAD@@@@QBEIXZ	; xr_vector<char *,xalloc<char *> >::size
PUBLIC	?cv_ptr@?$_VoidCastTraitsAux@PAXPAX@priv@stlp_std@@SAPAPAXPAPAX@Z ; stlp_std::priv::_VoidCastTraitsAux<void *,void *>::cv_ptr
PUBLIC	?to_value_type_ptr@?$_CastTraits@PAXPAD@priv@stlp_std@@SAPAPADPAPAX@Z ; stlp_std::priv::_CastTraits<void *,char *>::to_value_type_ptr
PUBLIC	?begin@?$vector@PADV?$xalloc@PAD@@@stlp_std@@QAEPAPADXZ ; stlp_std::vector<char *,xalloc<char *> >::begin
PUBLIC	??A?$xr_vector@PADV?$xalloc@PAD@@@@QAEAAPADI@Z	; xr_vector<char *,xalloc<char *> >::operator[]
PUBLIC	??$xr_free@D@@YAXAAPAD@Z			; xr_free<char>
PUBLIC	?end@?$_Impl_vector@UsLevelInfo@CApplication@@V?$xalloc@UsLevelInfo@CApplication@@@@@priv@stlp_std@@QAEPAUsLevelInfo@CApplication@@XZ ; stlp_std::priv::_Impl_vector<CApplication::sLevelInfo,xalloc<CApplication::sLevelInfo> >::end
PUBLIC	??$__copy_ptrs@PAUsLevelInfo@CApplication@@PAU12@@priv@stlp_std@@YAPAUsLevelInfo@CApplication@@PAU23@00ABU__true_type@1@@Z ; stlp_std::priv::__copy_ptrs<CApplication::sLevelInfo *,CApplication::sLevelInfo *>
PUBLIC	??$__destroy_range_aux@PAUsLevelInfo@CApplication@@U12@@stlp_std@@YAXPAUsLevelInfo@CApplication@@00ABU__true_type@0@@Z ; stlp_std::__destroy_range_aux<CApplication::sLevelInfo *,CApplication::sLevelInfo>
PUBLIC	??$__destroy_range@PAUsLevelInfo@CApplication@@U12@@stlp_std@@YAXPAUsLevelInfo@CApplication@@00@Z ; stlp_std::__destroy_range<CApplication::sLevelInfo *,CApplication::sLevelInfo>
PUBLIC	??$_Destroy_Range@PAUsLevelInfo@CApplication@@@stlp_std@@YAXPAUsLevelInfo@CApplication@@0@Z ; stlp_std::_Destroy_Range<CApplication::sLevelInfo *>
PUBLIC	?_M_erase@?$_Impl_vector@UsLevelInfo@CApplication@@V?$xalloc@UsLevelInfo@CApplication@@@@@priv@stlp_std@@AAEPAUsLevelInfo@CApplication@@PAU45@0ABU__false_type@3@@Z ; stlp_std::priv::_Impl_vector<CApplication::sLevelInfo,xalloc<CApplication::sLevelInfo> >::_M_erase
PUBLIC	?erase@?$_Impl_vector@UsLevelInfo@CApplication@@V?$xalloc@UsLevelInfo@CApplication@@@@@priv@stlp_std@@QAEPAUsLevelInfo@CApplication@@PAU45@0@Z ; stlp_std::priv::_Impl_vector<CApplication::sLevelInfo,xalloc<CApplication::sLevelInfo> >::erase
PUBLIC	?clear@?$_Impl_vector@UsLevelInfo@CApplication@@V?$xalloc@UsLevelInfo@CApplication@@@@@priv@stlp_std@@QAEXXZ ; stlp_std::priv::_Impl_vector<CApplication::sLevelInfo,xalloc<CApplication::sLevelInfo> >::clear
PUBLIC	?clear@?$vector@UsLevelInfo@CApplication@@V?$xalloc@UsLevelInfo@CApplication@@@@@stlp_std@@QAEXXZ ; stlp_std::vector<CApplication::sLevelInfo,xalloc<CApplication::sLevelInfo> >::clear
PUBLIC	?clear_and_free@?$xr_vector@UsLevelInfo@CApplication@@V?$xalloc@UsLevelInfo@CApplication@@@@@@QAEXXZ ; xr_vector<CApplication::sLevelInfo,xalloc<CApplication::sLevelInfo> >::clear_and_free
PUBLIC	?clear@?$xr_vector@UsLevelInfo@CApplication@@V?$xalloc@UsLevelInfo@CApplication@@@@@@QAEXXZ ; xr_vector<CApplication::sLevelInfo,xalloc<CApplication::sLevelInfo> >::clear
PUBLIC	??1?$xr_vector@PAUSEffect@CEnvAmbient@@V?$xalloc@PAUSEffect@CEnvAmbient@@@@@@QAE@XZ ; xr_vector<CEnvAmbient::SEffect *,xalloc<CEnvAmbient::SEffect *> >::~xr_vector<CEnvAmbient::SEffect *,xalloc<CEnvAmbient::SEffect *> >
PUBLIC	??0?$vector@PAUSEffect@CEnvAmbient@@V?$xalloc@PAUSEffect@CEnvAmbient@@@@@stlp_std@@QAE@ABV01@@Z ; stlp_std::vector<CEnvAmbient::SEffect *,xalloc<CEnvAmbient::SEffect *> >::vector<CEnvAmbient::SEffect *,xalloc<CEnvAmbient::SEffect *> >
PUBLIC	??1?$vector@PAUSEffect@CEnvAmbient@@V?$xalloc@PAUSEffect@CEnvAmbient@@@@@stlp_std@@QAE@XZ ; stlp_std::vector<CEnvAmbient::SEffect *,xalloc<CEnvAmbient::SEffect *> >::~vector<CEnvAmbient::SEffect *,xalloc<CEnvAmbient::SEffect *> >
PUBLIC	??0?$xr_vector@PAUSEffect@CEnvAmbient@@V?$xalloc@PAUSEffect@CEnvAmbient@@@@@@QAE@ABV0@@Z ; xr_vector<CEnvAmbient::SEffect *,xalloc<CEnvAmbient::SEffect *> >::xr_vector<CEnvAmbient::SEffect *,xalloc<CEnvAmbient::SEffect *> >
PUBLIC	??1?$xr_vector@PAUSSndChannel@CEnvAmbient@@V?$xalloc@PAUSSndChannel@CEnvAmbient@@@@@@QAE@XZ ; xr_vector<CEnvAmbient::SSndChannel *,xalloc<CEnvAmbient::SSndChannel *> >::~xr_vector<CEnvAmbient::SSndChannel *,xalloc<CEnvAmbient::SSndChannel *> >
PUBLIC	??0?$_Vector_base@PAXV?$xalloc@PAX@@@priv@stlp_std@@QAE@IABV?$xalloc@PAX@@@Z ; stlp_std::priv::_Vector_base<void *,xalloc<void *> >::_Vector_base<void *,xalloc<void *> >
PUBLIC	?get_allocator@?$_Impl_vector@PAXV?$xalloc@PAX@@@priv@stlp_std@@QBE?AV?$xalloc@PAX@@XZ ; stlp_std::priv::_Impl_vector<void *,xalloc<void *> >::get_allocator
PUBLIC	?begin@?$_Impl_vector@PAXV?$xalloc@PAX@@@priv@stlp_std@@QBEPBQAXXZ ; stlp_std::priv::_Impl_vector<void *,xalloc<void *> >::begin
PUBLIC	?end@?$_Impl_vector@PAXV?$xalloc@PAX@@@priv@stlp_std@@QBEPBQAXXZ ; stlp_std::priv::_Impl_vector<void *,xalloc<void *> >::end
PUBLIC	??0?$_Impl_vector@PAXV?$xalloc@PAX@@@priv@stlp_std@@QAE@ABV012@@Z ; stlp_std::priv::_Impl_vector<void *,xalloc<void *> >::_Impl_vector<void *,xalloc<void *> >
PUBLIC	??0?$vector@PAUSSndChannel@CEnvAmbient@@V?$xalloc@PAUSSndChannel@CEnvAmbient@@@@@stlp_std@@QAE@ABV01@@Z ; stlp_std::vector<CEnvAmbient::SSndChannel *,xalloc<CEnvAmbient::SSndChannel *> >::vector<CEnvAmbient::SSndChannel *,xalloc<CEnvAmbient::SSndChannel *> >
PUBLIC	??1?$vector@PAUSSndChannel@CEnvAmbient@@V?$xalloc@PAUSSndChannel@CEnvAmbient@@@@@stlp_std@@QAE@XZ ; stlp_std::vector<CEnvAmbient::SSndChannel *,xalloc<CEnvAmbient::SSndChannel *> >::~vector<CEnvAmbient::SSndChannel *,xalloc<CEnvAmbient::SSndChannel *> >
PUBLIC	??0?$xr_vector@PAUSSndChannel@CEnvAmbient@@V?$xalloc@PAUSSndChannel@CEnvAmbient@@@@@@QAE@ABV0@@Z ; xr_vector<CEnvAmbient::SSndChannel *,xalloc<CEnvAmbient::SSndChannel *> >::xr_vector<CEnvAmbient::SSndChannel *,xalloc<CEnvAmbient::SSndChannel *> >
PUBLIC	?set@?$_flags@I@@QAEAAU1@IH@Z			; _flags<unsigned int>::set
PUBLIC	?set@?$_vector3@M@@QAEAAU1@ABU1@@Z		; _vector3<float>::set
PUBLIC	?xr_strlen@@YAIPBD@Z				; xr_strlen
PUBLIC	?xr_strcat@@YAHPADIPBD@Z			; xr_strcat
PUBLIC	??4?$vector@PAUSEffect@CEnvAmbient@@V?$xalloc@PAUSEffect@CEnvAmbient@@@@@stlp_std@@QAEAAV01@ABV01@@Z ; stlp_std::vector<CEnvAmbient::SEffect *,xalloc<CEnvAmbient::SEffect *> >::operator=
PUBLIC	??4?$xr_vector@PAUSEffect@CEnvAmbient@@V?$xalloc@PAUSEffect@CEnvAmbient@@@@@@QAEAAV0@ABV0@@Z ; xr_vector<CEnvAmbient::SEffect *,xalloc<CEnvAmbient::SEffect *> >::operator=
PUBLIC	??4?$vector@PAUSSndChannel@CEnvAmbient@@V?$xalloc@PAUSSndChannel@CEnvAmbient@@@@@stlp_std@@QAEAAV01@ABV01@@Z ; stlp_std::vector<CEnvAmbient::SSndChannel *,xalloc<CEnvAmbient::SSndChannel *> >::operator=
PUBLIC	??4?$xr_vector@PAUSSndChannel@CEnvAmbient@@V?$xalloc@PAUSSndChannel@CEnvAmbient@@@@@@QAEAAV0@ABV0@@Z ; xr_vector<CEnvAmbient::SSndChannel *,xalloc<CEnvAmbient::SSndChannel *> >::operator=
PUBLIC	?strstr@@YAPADPADPBD@Z				; strstr
PUBLIC	??$xr_new@VCApplication@@@@YAPAVCApplication@@XZ ; xr_new<CApplication>
PUBLIC	??$xr_new@VISpatial_DB@@@@YAPAVISpatial_DB@@XZ	; xr_new<ISpatial_DB>
PUBLIC	??_GISpatial_DB@@QAEPAXI@Z			; ISpatial_DB::`scalar deleting destructor'
PUBLIC	??R?$xr_special_free@$0A@VISpatial_DB@@@@QAEXAAPAVISpatial_DB@@@Z ; xr_special_free<0,ISpatial_DB>::operator()
PUBLIC	??$xr_delete@VISpatial_DB@@@@YAXAAPAVISpatial_DB@@@Z ; xr_delete<ISpatial_DB>
PUBLIC	??R?$xr_special_free@$00VCApplication@@@@QAEXAAPAVCApplication@@@Z ; xr_special_free<1,CApplication>::operator()
PUBLIC	??$xr_delete@VCApplication@@@@YAXAAPAVCApplication@@@Z ; xr_delete<CApplication>
PUBLIC	?test@?$_flags@I@@QBEHI@Z			; _flags<unsigned int>::test
PUBLIC	?xr_strcpy@@YAHPADIPBD@Z			; xr_strcpy
PUBLIC	??$xr_strcpy@$0BAA@@@YAHAAY0BAA@DPBD@Z		; xr_strcpy<256>
PUBLIC	?randI@CRandom@@QAEHXZ				; CRandom::randI
PUBLIC	?randI@CRandom@@QAEHH@Z				; CRandom::randI
PUBLIC	??C?$FactoryPtr@VIApplicationRender@@@@QBEPAVIApplicationRender@@XZ ; FactoryPtr<IApplicationRender>::operator->
PUBLIC	?size@?$_Impl_vector@UsLevelInfo@CApplication@@V?$xalloc@UsLevelInfo@CApplication@@@@@priv@stlp_std@@QBEIXZ ; stlp_std::priv::_Impl_vector<CApplication::sLevelInfo,xalloc<CApplication::sLevelInfo> >::size
