; Listing generated by Microsoft (R) Optimizing Compiler Version 14.00.50727.762 

	TITLE	D:\CLEARSKY\sources\engine\xrEngine\XR_IOConsole.cpp
	.686P
	.XMM
	include listing.inc
	.model	flat

INCLUDELIB OLDNAMES

PUBLIC	??_C@_04IMEJGNKP@?$DO?$DO?$DO?5?$AA@		; `string'
PUBLIC	?OnScreenResolutionChanged@CConsole@@UAEXXZ	; CConsole::OnScreenResolutionChanged
PUBLIC	?OnFrame@CConsole@@UAGXXZ			; CConsole::OnFrame
PUBLIC	?Destroy@CConsole@@UAEXXZ			; CConsole::Destroy
PUBLIC	?Initialize@CConsole@@UAEXXZ			; CConsole::Initialize
PUBLIC	?OnRender@CConsole@@UAEXXZ			; CConsole::OnRender
PUBLIC	?set@?$_rect@M@@QAEAAU1@MMMM@Z			; _rect<float>::set
PUBLIC	?null@?$_rect@M@@QAEAAU1@XZ			; _rect<float>::null
PUBLIC	??D?$FactoryPtr@VIUIShader@@@@QBEAAVIUIShader@@XZ ; FactoryPtr<IUIShader>::operator*
PUBLIC	??$_min@I@@YAIII@Z				; _min<unsigned int>
PUBLIC	??0?$_Rb_tree@PBDUstr_pred@CConsole@@U?$pair@QBDPAVIConsole_Command@@@stlp_std@@U?$_Select1st@U?$pair@QBDPAVIConsole_Command@@@stlp_std@@@priv@4@U?$_MapTraitsT@U?$pair@QBDPAVIConsole_Command@@@stlp_std@@@64@V?$xalloc@U?$pair@PBDPAVIConsole_Command@@@stlp_std@@@@@priv@stlp_std@@QAE@ABUstr_pred@CConsole@@ABV?$xalloc@U?$pair@QBDPAVIConsole_Command@@@stlp_std@@@@@Z ; stlp_std::priv::_Rb_tree<char const *,CConsole::str_pred,stlp_std::pair<char const * const,IConsole_Command *>,stlp_std::priv::_Select1st<stlp_std::pair<char const * const,IConsole_Command *> >,stlp_std::priv::_MapTraitsT<stlp_std::pair<char const * const,IConsole_Command *> >,xalloc<stlp_std::pair<char const *,IConsole_Command *> > >::_Rb_tree<char const *,CConsole::str_pred,stlp_std::pair<char const * const,IConsole_Command *>,stlp_std::priv::_Select1st<stlp_std::pair<char const * const,IConsole_Command *> >,stlp_std::priv::_MapTraitsT<stlp_std::pair<char const * const,IConsole_Command *> >,xalloc<stlp_std::pair<char const *,IConsole_Command *> > >
PUBLIC	??0?$xalloc@U?$pair@QBDPAVIConsole_Command@@@stlp_std@@@@QAE@XZ ; xalloc<stlp_std::pair<char const * const,IConsole_Command *> >::xalloc<stlp_std::pair<char const * const,IConsole_Command *> >
PUBLIC	??0?$map@PBDPAVIConsole_Command@@Ustr_pred@CConsole@@V?$xalloc@U?$pair@PBDPAVIConsole_Command@@@stlp_std@@@@@stlp_std@@QAE@XZ ; stlp_std::map<char const *,IConsole_Command *,CConsole::str_pred,xalloc<stlp_std::pair<char const *,IConsole_Command *> > >::map<char const *,IConsole_Command *,CConsole::str_pred,xalloc<stlp_std::pair<char const *,IConsole_Command *> > >
PUBLIC	??0?$xr_map@PBDPAVIConsole_Command@@Ustr_pred@CConsole@@V?$xalloc@U?$pair@PBDPAVIConsole_Command@@@stlp_std@@@@@@QAE@XZ ; xr_map<char const *,IConsole_Command *,CConsole::str_pred,xalloc<stlp_std::pair<char const *,IConsole_Command *> > >::xr_map<char const *,IConsole_Command *,CConsole::str_pred,xalloc<stlp_std::pair<char const *,IConsole_Command *> > >
PUBLIC	??0?$xalloc@UTipString@@@@QAE@XZ		; xalloc<TipString>::xalloc<TipString>
PUBLIC	??0?$_Vector_base@UTipString@@V?$xalloc@UTipString@@@@@priv@stlp_std@@QAE@ABV?$xalloc@UTipString@@@@@Z ; stlp_std::priv::_Vector_base<TipString,xalloc<TipString> >::_Vector_base<TipString,xalloc<TipString> >
PUBLIC	??0?$_Impl_vector@UTipString@@V?$xalloc@UTipString@@@@@priv@stlp_std@@QAE@ABV?$xalloc@UTipString@@@@@Z ; stlp_std::priv::_Impl_vector<TipString,xalloc<TipString> >::_Impl_vector<TipString,xalloc<TipString> >
PUBLIC	??0?$vector@UTipString@@V?$xalloc@UTipString@@@@@stlp_std@@QAE@ABV?$xalloc@UTipString@@@@@Z ; stlp_std::vector<TipString,xalloc<TipString> >::vector<TipString,xalloc<TipString> >
PUBLIC	??0?$xr_vector@UTipString@@V?$xalloc@UTipString@@@@@@QAE@XZ ; xr_vector<TipString,xalloc<TipString> >::xr_vector<TipString,xalloc<TipString> >
PUBLIC	??$xr_new@Vline_editor@text_editor@@I@@YAPAVline_editor@text_editor@@ABI@Z ; xr_new<text_editor::line_editor,unsigned int>
PUBLIC	?rbegin@?$vector@Vshared_str@@V?$xalloc@Vshared_str@@@@@stlp_std@@QAE?AV?$reverse_iterator@PAVshared_str@@@2@XZ ; stlp_std::vector<shared_str,xalloc<shared_str> >::rbegin
PUBLIC	?empty@?$_Impl_vector@Vshared_str@@V?$xalloc@Vshared_str@@@@@priv@stlp_std@@QBE_NXZ ; stlp_std::priv::_Impl_vector<shared_str,xalloc<shared_str> >::empty
PUBLIC	?empty@?$vector@Vshared_str@@V?$xalloc@Vshared_str@@@@@stlp_std@@QBE_NXZ ; stlp_std::vector<shared_str,xalloc<shared_str> >::empty
PUBLIC	??H?$reverse_iterator@PAVshared_str@@@stlp_std@@QBE?AV01@H@Z ; stlp_std::reverse_iterator<shared_str *>::operator+
PUBLIC	?control@line_editor@text_editor@@QAEAAVline_edit_control@2@XZ ; text_editor::line_editor::control
PUBLIC	??$_M_lower_bound@PAD@?$_Rb_tree@PBDUstr_pred@CConsole@@U?$pair@QBDPAVIConsole_Command@@@stlp_std@@U?$_Select1st@U?$pair@QBDPAVIConsole_Command@@@stlp_std@@@priv@4@U?$_MapTraitsT@U?$pair@QBDPAVIConsole_Command@@@stlp_std@@@64@V?$xalloc@U?$pair@PBDPAVIConsole_Command@@@stlp_std@@@@@priv@stlp_std@@ABEPAU_Rb_tree_node_base@12@ABQAD@Z ; stlp_std::priv::_Rb_tree<char const *,CConsole::str_pred,stlp_std::pair<char const * const,IConsole_Command *>,stlp_std::priv::_Select1st<stlp_std::pair<char const * const,IConsole_Command *> >,stlp_std::priv::_MapTraitsT<stlp_std::pair<char const * const,IConsole_Command *> >,xalloc<stlp_std::pair<char const *,IConsole_Command *> > >::_M_lower_bound<char *>
PUBLIC	??$lower_bound@PAD@?$_Rb_tree@PBDUstr_pred@CConsole@@U?$pair@QBDPAVIConsole_Command@@@stlp_std@@U?$_Select1st@U?$pair@QBDPAVIConsole_Command@@@stlp_std@@@priv@4@U?$_MapTraitsT@U?$pair@QBDPAVIConsole_Command@@@stlp_std@@@64@V?$xalloc@U?$pair@PBDPAVIConsole_Command@@@stlp_std@@@@@priv@stlp_std@@QAE?AU?$_Rb_tree_iterator@U?$pair@QBDPAVIConsole_Command@@@stlp_std@@U?$_MapTraitsT@U?$pair@QBDPAVIConsole_Command@@@stlp_std@@@priv@2@@12@ABQAD@Z ; stlp_std::priv::_Rb_tree<char const *,CConsole::str_pred,stlp_std::pair<char const * const,IConsole_Command *>,stlp_std::priv::_Select1st<stlp_std::pair<char const * const,IConsole_Command *> >,stlp_std::priv::_MapTraitsT<stlp_std::pair<char const * const,IConsole_Command *> >,xalloc<stlp_std::pair<char const *,IConsole_Command *> > >::lower_bound<char *>
PUBLIC	??$lower_bound@PAD@?$map@PBDPAVIConsole_Command@@Ustr_pred@CConsole@@V?$xalloc@U?$pair@PBDPAVIConsole_Command@@@stlp_std@@@@@stlp_std@@QAE?AU?$_Rb_tree_iterator@U?$pair@QBDPAVIConsole_Command@@@stlp_std@@U?$_MapTraitsT@U?$pair@QBDPAVIConsole_Command@@@stlp_std@@@priv@2@@priv@1@ABQAD@Z ; stlp_std::map<char const *,IConsole_Command *,CConsole::str_pred,xalloc<stlp_std::pair<char const *,IConsole_Command *> > >::lower_bound<char *>
PUBLIC	?back@?$_Impl_vector@UTipString@@V?$xalloc@UTipString@@@@@priv@stlp_std@@QAEAAUTipString@@XZ ; stlp_std::priv::_Impl_vector<TipString,xalloc<TipString> >::back
PUBLIC	?to_value_type_ref@?$_CastTraits@UTipString@@U1@@priv@stlp_std@@SAAAUTipString@@AAU4@@Z ; stlp_std::priv::_CastTraits<TipString,TipString>::to_value_type_ref
PUBLIC	?back@?$vector@UTipString@@V?$xalloc@UTipString@@@@@stlp_std@@QAEAAUTipString@@XZ ; stlp_std::vector<TipString,xalloc<TipString> >::back
PUBLIC	??0?$pair@PBDI@stlp_std@@QAE@XZ			; stlp_std::pair<char const *,unsigned int>::pair<char const *,unsigned int>
PUBLIC	?length@?$helper@$0A@@string_tupples@detail@core@xray@@SAIPBD@Z ; xray::core::detail::string_tupples::helper<0>::length
PUBLIC	?string@?$helper@$0A@@string_tupples@detail@core@xray@@SAPBDPBD@Z ; xray::core::detail::string_tupples::helper<0>::string
PUBLIC	??$add_string@PBD@?$helper@$0A@@string_tupples@detail@core@xray@@SAXAAV1234@PBD@Z ; xray::core::detail::string_tupples::helper<0>::add_string<char const *>
PUBLIC	?length@?$helper@$00@string_tupples@detail@core@xray@@SAIPBD@Z ; xray::core::detail::string_tupples::helper<1>::length
PUBLIC	?string@?$helper@$00@string_tupples@detail@core@xray@@SAPBDPBD@Z ; xray::core::detail::string_tupples::helper<1>::string
PUBLIC	??0?$pair@PBDI@stlp_std@@QAE@ABQBDABI@Z		; stlp_std::pair<char const *,unsigned int>::pair<char const *,unsigned int>
PUBLIC	??$make_pair@PBDI@stlp_std@@YA?AU?$pair@PBDI@0@PBDI@Z ; stlp_std::make_pair<char const *,unsigned int>
PUBLIC	??$add_string@PBD@?$helper@$00@string_tupples@detail@core@xray@@SAXAAV1234@PBD@Z ; xray::core::detail::string_tupples::helper<1>::add_string<char const *>
PUBLIC	??$?0PBDPBD@string_tupples@detail@core@xray@@QAE@PBD0@Z ; xray::core::detail::string_tupples::string_tupples<char const *,char const *>
PUBLIC	?clear@?$map@PBDPAVIConsole_Command@@Ustr_pred@CConsole@@V?$xalloc@U?$pair@PBDPAVIConsole_Command@@@stlp_std@@@@@stlp_std@@QAEXXZ ; stlp_std::map<char const *,IConsole_Command *,CConsole::str_pred,xalloc<stlp_std::pair<char const *,IConsole_Command *> > >::clear
PUBLIC	?_M_throw_length_error@?$_Vector_base@UTipString@@V?$xalloc@UTipString@@@@@priv@stlp_std@@IBEXXZ ; stlp_std::priv::_Vector_base<TipString,xalloc<TipString> >::_M_throw_length_error
PUBLIC	?max_size@?$xalloc@UTipString@@@@QBEIXZ		; xalloc<TipString>::max_size
PUBLIC	?max_size@?$_Impl_vector@UTipString@@V?$xalloc@UTipString@@@@@priv@stlp_std@@QBEIXZ ; stlp_std::priv::_Impl_vector<TipString,xalloc<TipString> >::max_size
PUBLIC	?_Answer@?$_BothPtrType@PAUTipString@@PAU1@@stlp_std@@SA?AU__true_type@2@XZ ; stlp_std::_BothPtrType<TipString *,TipString *>::_Answer
PUBLIC	??$__ucopy_aux@PAUTipString@@PAU1@@priv@stlp_std@@YAPAUTipString@@PAU2@00ABU__true_type@1@@Z ; stlp_std::priv::__ucopy_aux<TipString *,TipString *>
PUBLIC	??$uninitialized_copy@PAUTipString@@PAU1@@stlp_std@@YAPAUTipString@@PAU1@00@Z ; stlp_std::uninitialized_copy<TipString *,TipString *>
PUBLIC	??$_M_allocate_and_copy@PAUTipString@@@?$_Impl_vector@UTipString@@V?$xalloc@UTipString@@@@@priv@stlp_std@@AAEPAUTipString@@AAIPAU3@1@Z ; stlp_std::priv::_Impl_vector<TipString,xalloc<TipString> >::_M_allocate_and_copy<TipString *>
PUBLIC	?reserve@?$_Impl_vector@UTipString@@V?$xalloc@UTipString@@@@@priv@stlp_std@@QAEXI@Z ; stlp_std::priv::_Impl_vector<TipString,xalloc<TipString> >::reserve
PUBLIC	?reserve@?$vector@UTipString@@V?$xalloc@UTipString@@@@@stlp_std@@QAEXI@Z ; stlp_std::vector<TipString,xalloc<TipString> >::reserve
PUBLIC	?begin@?$map@PBDPAVIConsole_Command@@Ustr_pred@CConsole@@V?$xalloc@U?$pair@PBDPAVIConsole_Command@@@stlp_std@@@@@stlp_std@@QAE?AU?$_Rb_tree_iterator@U?$pair@QBDPAVIConsole_Command@@@stlp_std@@U?$_MapTraitsT@U?$pair@QBDPAVIConsole_Command@@@stlp_std@@@priv@2@@priv@2@XZ ; stlp_std::map<char const *,IConsole_Command *,CConsole::str_pred,xalloc<stlp_std::pair<char const *,IConsole_Command *> > >::begin
PUBLIC	??8TipString@@QAE_NABVshared_str@@@Z		; TipString::operator==
PUBLIC	??$__find@PAUTipString@@Vshared_str@@@priv@stlp_std@@YAPAUTipString@@PAU2@0ABVshared_str@@ABUrandom_access_iterator_tag@1@@Z ; stlp_std::priv::__find<TipString *,shared_str>
PUBLIC	??$find@PAUTipString@@Vshared_str@@@stlp_std@@YAPAUTipString@@PAU1@0ABVshared_str@@@Z ; stlp_std::find<TipString *,shared_str>
PUBLIC	??C?$FactoryPtr@VIUIShader@@@@QBEPAVIUIShader@@XZ ; FactoryPtr<IUIShader>::operator->
PUBLIC	?CreateObject@?$FactoryPtr@VIUIShader@@@@AAEXXZ	; FactoryPtr<IUIShader>::CreateObject
PUBLIC	??0?$FactoryPtr@VIUIShader@@@@QAE@XZ		; FactoryPtr<IUIShader>::FactoryPtr<IUIShader>
PUBLIC	??$xr_new@V?$FactoryPtr@VIUIShader@@@@@@YAPAV?$FactoryPtr@VIUIShader@@@@XZ ; xr_new<FactoryPtr<IUIShader> >
PUBLIC	??$xr_new@VCGameFont@@$$BY0M@$$CBDW4<unnamed-tag>@1@@@YAPAVCGameFont@@AAY0M@$$CBDABW4<unnamed-tag>@0@@Z ; xr_new<CGameFont,char const [12],enum CGameFont::<unnamed-tag> >
PUBLIC	??$xr_new@VCGameFont@@$$BY0N@$$CBDW4<unnamed-tag>@1@@@YAPAVCGameFont@@AAY0N@$$CBDABW4<unnamed-tag>@0@@Z ; xr_new<CGameFont,char const [13],enum CGameFont::<unnamed-tag> >
PUBLIC	?size@?$vector@UTipString@@V?$xalloc@UTipString@@@@@stlp_std@@QBEIXZ ; stlp_std::vector<TipString,xalloc<TipString> >::size
PUBLIC	?size@?$xr_vector@UTipString@@V?$xalloc@UTipString@@@@@@QBEIXZ ; xr_vector<TipString,xalloc<TipString> >::size
PUBLIC	??C?$_Rb_tree_iterator@U?$pair@QBDPAVIConsole_Command@@@stlp_std@@U?$_MapTraitsT@U?$pair@QBDPAVIConsole_Command@@@stlp_std@@@priv@2@@priv@stlp_std@@QBEPAU?$pair@QBDPAVIConsole_Command@@@2@XZ ; stlp_std::priv::_Rb_tree_iterator<stlp_std::pair<char const * const,IConsole_Command *>,stlp_std::priv::_MapTraitsT<stlp_std::pair<char const * const,IConsole_Command *> > >::operator->
PUBLIC	??$_M_find@PAD@?$_Rb_tree@PBDUstr_pred@CConsole@@U?$pair@QBDPAVIConsole_Command@@@stlp_std@@U?$_Select1st@U?$pair@QBDPAVIConsole_Command@@@stlp_std@@@priv@4@U?$_MapTraitsT@U?$pair@QBDPAVIConsole_Command@@@stlp_std@@@64@V?$xalloc@U?$pair@PBDPAVIConsole_Command@@@stlp_std@@@@@priv@stlp_std@@ABEPAU_Rb_tree_node_base@12@ABQAD@Z ; stlp_std::priv::_Rb_tree<char const *,CConsole::str_pred,stlp_std::pair<char const * const,IConsole_Command *>,stlp_std::priv::_Select1st<stlp_std::pair<char const * const,IConsole_Command *> >,stlp_std::priv::_MapTraitsT<stlp_std::pair<char const * const,IConsole_Command *> >,xalloc<stlp_std::pair<char const *,IConsole_Command *> > >::_M_find<char *>
PUBLIC	??$find@PAD@?$_Rb_tree@PBDUstr_pred@CConsole@@U?$pair@QBDPAVIConsole_Command@@@stlp_std@@U?$_Select1st@U?$pair@QBDPAVIConsole_Command@@@stlp_std@@@priv@4@U?$_MapTraitsT@U?$pair@QBDPAVIConsole_Command@@@stlp_std@@@64@V?$xalloc@U?$pair@PBDPAVIConsole_Command@@@stlp_std@@@@@priv@stlp_std@@QAE?AU?$_Rb_tree_iterator@U?$pair@QBDPAVIConsole_Command@@@stlp_std@@U?$_MapTraitsT@U?$pair@QBDPAVIConsole_Command@@@stlp_std@@@priv@2@@12@ABQAD@Z ; stlp_std::priv::_Rb_tree<char const *,CConsole::str_pred,stlp_std::pair<char const * const,IConsole_Command *>,stlp_std::priv::_Select1st<stlp_std::pair<char const * const,IConsole_Command *> >,stlp_std::priv::_MapTraitsT<stlp_std::pair<char const * const,IConsole_Command *> >,xalloc<stlp_std::pair<char const *,IConsole_Command *> > >::find<char *>
PUBLIC	??$find@PAD@?$map@PBDPAVIConsole_Command@@Ustr_pred@CConsole@@V?$xalloc@U?$pair@PBDPAVIConsole_Command@@@stlp_std@@@@@stlp_std@@QAE?AU?$_Rb_tree_iterator@U?$pair@QBDPAVIConsole_Command@@@stlp_std@@U?$_MapTraitsT@U?$pair@QBDPAVIConsole_Command@@@stlp_std@@@priv@2@@priv@1@ABQAD@Z ; stlp_std::map<char const *,IConsole_Command *,CConsole::str_pred,xalloc<stlp_std::pair<char const *,IConsole_Command *> > >::find<char *>
PUBLIC	??0TipString@@QAE@ABVshared_str@@HH@Z		; TipString::TipString
PUBLIC	??0TipString@@QAE@ABVshared_str@@@Z		; TipString::TipString
PUBLIC	??$__destroy_mv_srcs@V?$reverse_iterator@PAUTipString@@@stlp_std@@UTipString@@@stlp_std@@YAXV?$reverse_iterator@PAUTipString@@@0@0PAUTipString@@@Z ; stlp_std::__destroy_mv_srcs<stlp_std::reverse_iterator<TipString *>,TipString>
PUBLIC	??$_Destroy_Moved_Range@V?$reverse_iterator@PAUTipString@@@stlp_std@@@stlp_std@@YAXV?$reverse_iterator@PAUTipString@@@0@0@Z ; stlp_std::_Destroy_Moved_Range<stlp_std::reverse_iterator<TipString *> >
PUBLIC	?_M_clear_after_move@?$_Impl_vector@UTipString@@V?$xalloc@UTipString@@@@@priv@stlp_std@@AAEXXZ ; stlp_std::priv::_Impl_vector<TipString,xalloc<TipString> >::_M_clear_after_move
PUBLIC	?_M_set@?$_Impl_vector@UTipString@@V?$xalloc@UTipString@@@@@priv@stlp_std@@AAEXPAUTipString@@00@Z ; stlp_std::priv::_Impl_vector<TipString,xalloc<TipString> >::_M_set
PUBLIC	??$__ucopy@PAUTipString@@PAU1@H@priv@stlp_std@@YAPAUTipString@@PAU2@00ABUrandom_access_iterator_tag@1@PAH@Z ; stlp_std::priv::__ucopy<TipString *,TipString *,int>
PUBLIC	??$__ucopy_ptrs@PAUTipString@@PAU1@@priv@stlp_std@@YAPAUTipString@@PAU2@00ABU__false_type@1@@Z ; stlp_std::priv::__ucopy_ptrs<TipString *,TipString *>
PUBLIC	??$__uninitialized_move@PAUTipString@@PAU1@U__false_type@stlp_std@@@priv@stlp_std@@YAPAUTipString@@PAU2@00U__false_type@1@ABU31@@Z ; stlp_std::priv::__uninitialized_move<TipString *,TipString *,stlp_std::__false_type>
PUBLIC	??$__ufill@PAUTipString@@U1@H@priv@stlp_std@@YAXPAUTipString@@0ABU2@ABUrandom_access_iterator_tag@1@PAH@Z ; stlp_std::priv::__ufill<TipString *,TipString,int>
PUBLIC	??$__uninitialized_fill_n@PAUTipString@@IU1@@priv@stlp_std@@YAPAUTipString@@PAU2@IABU2@@Z ; stlp_std::priv::__uninitialized_fill_n<TipString *,unsigned int,TipString>
PUBLIC	?_M_insert_overflow_aux@?$_Impl_vector@UTipString@@V?$xalloc@UTipString@@@@@priv@stlp_std@@AAEXPAUTipString@@ABU4@ABU__false_type@3@I_N@Z ; stlp_std::priv::_Impl_vector<TipString,xalloc<TipString> >::_M_insert_overflow_aux
PUBLIC	?_M_insert_overflow@?$_Impl_vector@UTipString@@V?$xalloc@UTipString@@@@@priv@stlp_std@@AAEXPAUTipString@@ABU4@ABU__false_type@3@I_N@Z ; stlp_std::priv::_Impl_vector<TipString,xalloc<TipString> >::_M_insert_overflow
PUBLIC	??$_Copy_Construct@UTipString@@@stlp_std@@YAXPAUTipString@@ABU1@@Z ; stlp_std::_Copy_Construct<TipString>
PUBLIC	?push_back@?$_Impl_vector@UTipString@@V?$xalloc@UTipString@@@@@priv@stlp_std@@QAEXABUTipString@@@Z ; stlp_std::priv::_Impl_vector<TipString,xalloc<TipString> >::push_back
PUBLIC	?to_storage_type_cref@?$_CastTraits@UTipString@@U1@@priv@stlp_std@@SAABUTipString@@ABU4@@Z ; stlp_std::priv::_CastTraits<TipString,TipString>::to_storage_type_cref
PUBLIC	?push_back@?$vector@UTipString@@V?$xalloc@UTipString@@@@@stlp_std@@QAEXABUTipString@@@Z ; stlp_std::vector<TipString,xalloc<TipString> >::push_back
PUBLIC	?begin@?$vector@UTipString@@V?$xalloc@UTipString@@@@@stlp_std@@QAEPAUTipString@@XZ ; stlp_std::vector<TipString,xalloc<TipString> >::begin
PUBLIC	?end@?$vector@UTipString@@V?$xalloc@UTipString@@@@@stlp_std@@QAEPAUTipString@@XZ ; stlp_std::vector<TipString,xalloc<TipString> >::end
PUBLIC	??$__copy@PAUTipString@@PAU1@H@priv@stlp_std@@YAPAUTipString@@PAU2@00ABUrandom_access_iterator_tag@1@PAH@Z ; stlp_std::priv::__copy<TipString *,TipString *,int>
PUBLIC	??$__copy_ptrs@PAUTipString@@PAU1@@priv@stlp_std@@YAPAUTipString@@PAU2@00ABU__false_type@1@@Z ; stlp_std::priv::__copy_ptrs<TipString *,TipString *>
PUBLIC	?_M_erase@?$_Impl_vector@UTipString@@V?$xalloc@UTipString@@@@@priv@stlp_std@@AAEPAUTipString@@PAU4@0ABU__false_type@3@@Z ; stlp_std::priv::_Impl_vector<TipString,xalloc<TipString> >::_M_erase
PUBLIC	?erase@?$_Impl_vector@UTipString@@V?$xalloc@UTipString@@@@@priv@stlp_std@@QAEPAUTipString@@PAU4@0@Z ; stlp_std::priv::_Impl_vector<TipString,xalloc<TipString> >::erase
PUBLIC	?to_value_type_ptr@?$_CastTraits@UTipString@@U1@@priv@stlp_std@@SAPAUTipString@@PAU4@@Z ; stlp_std::priv::_CastTraits<TipString,TipString>::to_value_type_ptr
PUBLIC	?to_storage_type_ptr@?$_CastTraits@UTipString@@U1@@priv@stlp_std@@SAPAUTipString@@PAU4@@Z ; stlp_std::priv::_CastTraits<TipString,TipString>::to_storage_type_ptr
PUBLIC	?erase@?$vector@UTipString@@V?$xalloc@UTipString@@@@@stlp_std@@QAEPAUTipString@@PAU3@0@Z ; stlp_std::vector<TipString,xalloc<TipString> >::erase
PUBLIC	?clear_not_free@?$xr_vector@UTipString@@V?$xalloc@UTipString@@@@@@QAEXXZ ; xr_vector<TipString,xalloc<TipString> >::clear_not_free
PUBLIC	?erase@?$_Rb_tree@PBDUstr_pred@CConsole@@U?$pair@QBDPAVIConsole_Command@@@stlp_std@@U?$_Select1st@U?$pair@QBDPAVIConsole_Command@@@stlp_std@@@priv@4@U?$_MapTraitsT@U?$pair@QBDPAVIConsole_Command@@@stlp_std@@@64@V?$xalloc@U?$pair@PBDPAVIConsole_Command@@@stlp_std@@@@@priv@stlp_std@@QAEXU?$_Rb_tree_iterator@U?$pair@QBDPAVIConsole_Command@@@stlp_std@@U?$_MapTraitsT@U?$pair@QBDPAVIConsole_Command@@@stlp_std@@@priv@2@@23@@Z ; stlp_std::priv::_Rb_tree<char const *,CConsole::str_pred,stlp_std::pair<char const * const,IConsole_Command *>,stlp_std::priv::_Select1st<stlp_std::pair<char const * const,IConsole_Command *> >,stlp_std::priv::_MapTraitsT<stlp_std::pair<char const * const,IConsole_Command *> >,xalloc<stlp_std::pair<char const *,IConsole_Command *> > >::erase
PUBLIC	?erase@?$map@PBDPAVIConsole_Command@@Ustr_pred@CConsole@@V?$xalloc@U?$pair@PBDPAVIConsole_Command@@@stlp_std@@@@@stlp_std@@QAEXU?$_Rb_tree_iterator@U?$pair@QBDPAVIConsole_Command@@@stlp_std@@U?$_MapTraitsT@U?$pair@QBDPAVIConsole_Command@@@stlp_std@@@priv@2@@priv@2@@Z ; stlp_std::map<char const *,IConsole_Command *,CConsole::str_pred,xalloc<stlp_std::pair<char const *,IConsole_Command *> > >::erase
PUBLIC	??9?$_Rb_tree_iterator@U?$pair@QBDPAVIConsole_Command@@@stlp_std@@U?$_MapTraitsT@U?$pair@QBDPAVIConsole_Command@@@stlp_std@@@priv@2@@priv@stlp_std@@QBE_NU?$_Rb_tree_iterator@U?$pair@QBDPAVIConsole_Command@@@stlp_std@@U?$_ConstMapTraitsT@U?$pair@QBDPAVIConsole_Command@@@stlp_std@@@priv@2@@12@@Z ; stlp_std::priv::_Rb_tree_iterator<stlp_std::pair<char const * const,IConsole_Command *>,stlp_std::priv::_MapTraitsT<stlp_std::pair<char const * const,IConsole_Command *> > >::operator!=
PUBLIC	??$_M_find@PBD@?$_Rb_tree@PBDUstr_pred@CConsole@@U?$pair@QBDPAVIConsole_Command@@@stlp_std@@U?$_Select1st@U?$pair@QBDPAVIConsole_Command@@@stlp_std@@@priv@4@U?$_MapTraitsT@U?$pair@QBDPAVIConsole_Command@@@stlp_std@@@64@V?$xalloc@U?$pair@PBDPAVIConsole_Command@@@stlp_std@@@@@priv@stlp_std@@ABEPAU_Rb_tree_node_base@12@ABQBD@Z ; stlp_std::priv::_Rb_tree<char const *,CConsole::str_pred,stlp_std::pair<char const * const,IConsole_Command *>,stlp_std::priv::_Select1st<stlp_std::pair<char const * const,IConsole_Command *> >,stlp_std::priv::_MapTraitsT<stlp_std::pair<char const * const,IConsole_Command *> >,xalloc<stlp_std::pair<char const *,IConsole_Command *> > >::_M_find<char const *>
PUBLIC	??$find@PBD@?$_Rb_tree@PBDUstr_pred@CConsole@@U?$pair@QBDPAVIConsole_Command@@@stlp_std@@U?$_Select1st@U?$pair@QBDPAVIConsole_Command@@@stlp_std@@@priv@4@U?$_MapTraitsT@U?$pair@QBDPAVIConsole_Command@@@stlp_std@@@64@V?$xalloc@U?$pair@PBDPAVIConsole_Command@@@stlp_std@@@@@priv@stlp_std@@QAE?AU?$_Rb_tree_iterator@U?$pair@QBDPAVIConsole_Command@@@stlp_std@@U?$_MapTraitsT@U?$pair@QBDPAVIConsole_Command@@@stlp_std@@@priv@2@@12@ABQBD@Z ; stlp_std::priv::_Rb_tree<char const *,CConsole::str_pred,stlp_std::pair<char const * const,IConsole_Command *>,stlp_std::priv::_Select1st<stlp_std::pair<char const * const,IConsole_Command *> >,stlp_std::priv::_MapTraitsT<stlp_std::pair<char const * const,IConsole_Command *> >,xalloc<stlp_std::pair<char const *,IConsole_Command *> > >::find<char const *>
PUBLIC	??$find@PBD@?$map@PBDPAVIConsole_Command@@Ustr_pred@CConsole@@V?$xalloc@U?$pair@PBDPAVIConsole_Command@@@stlp_std@@@@@stlp_std@@QAE?AU?$_Rb_tree_iterator@U?$pair@QBDPAVIConsole_Command@@@stlp_std@@U?$_MapTraitsT@U?$pair@QBDPAVIConsole_Command@@@stlp_std@@@priv@2@@priv@1@ABQBD@Z ; stlp_std::map<char const *,IConsole_Command *,CConsole::str_pred,xalloc<stlp_std::pair<char const *,IConsole_Command *> > >::find<char const *>
PUBLIC	?DestroyObject@?$FactoryPtr@VIUIShader@@@@AAEXXZ ; FactoryPtr<IUIShader>::DestroyObject
PUBLIC	??1?$FactoryPtr@VIUIShader@@@@QAE@XZ		; FactoryPtr<IUIShader>::~FactoryPtr<IUIShader>
PUBLIC	??_G?$FactoryPtr@VIUIShader@@@@QAEPAXI@Z	; FactoryPtr<IUIShader>::`scalar deleting destructor'
PUBLIC	??R?$xr_special_free@$0A@V?$FactoryPtr@VIUIShader@@@@@@QAEXAAPAV?$FactoryPtr@VIUIShader@@@@@Z ; xr_special_free<0,FactoryPtr<IUIShader> >::operator()
PUBLIC	??$xr_delete@V?$FactoryPtr@VIUIShader@@@@@@YAXAAPAV?$FactoryPtr@VIUIShader@@@@@Z ; xr_delete<FactoryPtr<IUIShader> >
PUBLIC	??R?$xr_special_free@$00Vline_editor@text_editor@@@@QAEXAAPAVline_editor@text_editor@@@Z ; xr_special_free<1,text_editor::line_editor>::operator()
PUBLIC	??$xr_delete@Vline_editor@text_editor@@@@YAXAAPAVline_editor@text_editor@@@Z ; xr_delete<text_editor::line_editor>
PUBLIC	?key_comp@?$_Rb_tree@PBDUstr_pred@CConsole@@U?$pair@QBDPAVIConsole_Command@@@stlp_std@@U?$_Select1st@U?$pair@QBDPAVIConsole_Command@@@stlp_std@@@priv@4@U?$_MapTraitsT@U?$pair@QBDPAVIConsole_Command@@@stlp_std@@@64@V?$xalloc@U?$pair@PBDPAVIConsole_Command@@@stlp_std@@@@@priv@stlp_std@@QBE?AUstr_pred@CConsole@@XZ ; stlp_std::priv::_Rb_tree<char const *,CConsole::str_pred,stlp_std::pair<char const * const,IConsole_Command *>,stlp_std::priv::_Select1st<stlp_std::pair<char const * const,IConsole_Command *> >,stlp_std::priv::_MapTraitsT<stlp_std::pair<char const * const,IConsole_Command *> >,xalloc<stlp_std::pair<char const *,IConsole_Command *> > >::key_comp
PUBLIC	?key_comp@?$map@PBDPAVIConsole_Command@@Ustr_pred@CConsole@@V?$xalloc@U?$pair@PBDPAVIConsole_Command@@@stlp_std@@@@@stlp_std@@QBE?AUstr_pred@CConsole@@XZ ; stlp_std::map<char const *,IConsole_Command *,CConsole::str_pred,xalloc<stlp_std::pair<char const *,IConsole_Command *> > >::key_comp
PUBLIC	?end@?$_Rb_tree@PBDUstr_pred@CConsole@@U?$pair@QBDPAVIConsole_Command@@@stlp_std@@U?$_Select1st@U?$pair@QBDPAVIConsole_Command@@@stlp_std@@@priv@4@U?$_MapTraitsT@U?$pair@QBDPAVIConsole_Command@@@stlp_std@@@64@V?$xalloc@U?$pair@PBDPAVIConsole_Command@@@stlp_std@@@@@priv@stlp_std@@QAE?AU?$_Rb_tree_iterator@U?$pair@QBDPAVIConsole_Command@@@stlp_std@@U?$_MapTraitsT@U?$pair@QBDPAVIConsole_Command@@@stlp_std@@@priv@2@@23@XZ ; stlp_std::priv::_Rb_tree<char const *,CConsole::str_pred,stlp_std::pair<char const * const,IConsole_Command *>,stlp_std::priv::_Select1st<stlp_std::pair<char const * const,IConsole_Command *> >,stlp_std::priv::_MapTraitsT<stlp_std::pair<char const * const,IConsole_Command *> >,xalloc<stlp_std::pair<char const *,IConsole_Command *> > >::end
PUBLIC	?end@?$map@PBDPAVIConsole_Command@@Ustr_pred@CConsole@@V?$xalloc@U?$pair@PBDPAVIConsole_Command@@@stlp_std@@@@@stlp_std@@QAE?AU?$_Rb_tree_iterator@U?$pair@QBDPAVIConsole_Command@@@stlp_std@@U?$_MapTraitsT@U?$pair@QBDPAVIConsole_Command@@@stlp_std@@@priv@2@@priv@2@XZ ; stlp_std::map<char const *,IConsole_Command *,CConsole::str_pred,xalloc<stlp_std::pair<char const *,IConsole_Command *> > >::end
PUBLIC	?empty@?$_Rb_tree@PBDUstr_pred@CConsole@@U?$pair@QBDPAVIConsole_Command@@@stlp_std@@U?$_Select1st@U?$pair@QBDPAVIConsole_Command@@@stlp_std@@@priv@4@U?$_MapTraitsT@U?$pair@QBDPAVIConsole_Command@@@stlp_std@@@64@V?$xalloc@U?$pair@PBDPAVIConsole_Command@@@stlp_std@@@@@priv@stlp_std@@QBE_NXZ ; stlp_std::priv::_Rb_tree<char const *,CConsole::str_pred,stlp_std::pair<char const * const,IConsole_Command *>,stlp_std::priv::_Select1st<stlp_std::pair<char const * const,IConsole_Command *> >,stlp_std::priv::_MapTraitsT<stlp_std::pair<char const * const,IConsole_Command *> >,xalloc<stlp_std::pair<char const *,IConsole_Command *> > >::empty
PUBLIC	?_M_insert@?$_Rb_tree@PBDUstr_pred@CConsole@@U?$pair@QBDPAVIConsole_Command@@@stlp_std@@U?$_Select1st@U?$pair@QBDPAVIConsole_Command@@@stlp_std@@@priv@4@U?$_MapTraitsT@U?$pair@QBDPAVIConsole_Command@@@stlp_std@@@64@V?$xalloc@U?$pair@PBDPAVIConsole_Command@@@stlp_std@@@@@priv@stlp_std@@AAE?AU?$_Rb_tree_iterator@U?$pair@QBDPAVIConsole_Command@@@stlp_std@@U?$_MapTraitsT@U?$pair@QBDPAVIConsole_Command@@@stlp_std@@@priv@2@@23@PAU_Rb_tree_node_base@23@ABU?$pair@QBDPAVIConsole_Command@@@3@00@Z ; stlp_std::priv::_Rb_tree<char const *,CConsole::str_pred,stlp_std::pair<char const * const,IConsole_Command *>,stlp_std::priv::_Select1st<stlp_std::pair<char const * const,IConsole_Command *> >,stlp_std::priv::_MapTraitsT<stlp_std::pair<char const * const,IConsole_Command *> >,xalloc<stlp_std::pair<char const *,IConsole_Command *> > >::_M_insert
PUBLIC	?begin@?$_Rb_tree@PBDUstr_pred@CConsole@@U?$pair@QBDPAVIConsole_Command@@@stlp_std@@U?$_Select1st@U?$pair@QBDPAVIConsole_Command@@@stlp_std@@@priv@4@U?$_MapTraitsT@U?$pair@QBDPAVIConsole_Command@@@stlp_std@@@64@V?$xalloc@U?$pair@PBDPAVIConsole_Command@@@stlp_std@@@@@priv@stlp_std@@QAE?AU?$_Rb_tree_iterator@U?$pair@QBDPAVIConsole_Command@@@stlp_std@@U?$_MapTraitsT@U?$pair@QBDPAVIConsole_Command@@@stlp_std@@@priv@2@@23@XZ ; stlp_std::priv::_Rb_tree<char const *,CConsole::str_pred,stlp_std::pair<char const * const,IConsole_Command *>,stlp_std::priv::_Select1st<stlp_std::pair<char const * const,IConsole_Command *> >,stlp_std::priv::_MapTraitsT<stlp_std::pair<char const * const,IConsole_Command *> >,xalloc<stlp_std::pair<char const *,IConsole_Command *> > >::begin
PUBLIC	??0?$pair@U?$_Rb_tree_iterator@U?$pair@QBDPAVIConsole_Command@@@stlp_std@@U?$_MapTraitsT@U?$pair@QBDPAVIConsole_Command@@@stlp_std@@@priv@2@@priv@stlp_std@@_N@stlp_std@@QAE@ABU?$_Rb_tree_iterator@U?$pair@QBDPAVIConsole_Command@@@stlp_std@@U?$_MapTraitsT@U?$pair@QBDPAVIConsole_Command@@@stlp_std@@@priv@2@@priv@1@AB_N@Z ; stlp_std::pair<stlp_std::priv::_Rb_tree_iterator<stlp_std::pair<char const * const,IConsole_Command *>,stlp_std::priv::_MapTraitsT<stlp_std::pair<char const * const,IConsole_Command *> > >,bool>::pair<stlp_std::priv::_Rb_tree_iterator<stlp_std::pair<char const * const,IConsole_Command *>,stlp_std::priv::_MapTraitsT<stlp_std::pair<char const * const,IConsole_Command *> > >,bool>
PUBLIC	?insert_unique@?$_Rb_tree@PBDUstr_pred@CConsole@@U?$pair@QBDPAVIConsole_Command@@@stlp_std@@U?$_Select1st@U?$pair@QBDPAVIConsole_Command@@@stlp_std@@@priv@4@U?$_MapTraitsT@U?$pair@QBDPAVIConsole_Command@@@stlp_std@@@64@V?$xalloc@U?$pair@PBDPAVIConsole_Command@@@stlp_std@@@@@priv@stlp_std@@QAE?AU?$pair@U?$_Rb_tree_iterator@U?$pair@QBDPAVIConsole_Command@@@stlp_std@@U?$_MapTraitsT@U?$pair@QBDPAVIConsole_Command@@@stlp_std@@@priv@2@@priv@stlp_std@@_N@3@ABU?$pair@QBDPAVIConsole_Command@@@3@@Z ; stlp_std::priv::_Rb_tree<char const *,CConsole::str_pred,stlp_std::pair<char const * const,IConsole_Command *>,stlp_std::priv::_Select1st<stlp_std::pair<char const * const,IConsole_Command *> >,stlp_std::priv::_MapTraitsT<stlp_std::pair<char const * const,IConsole_Command *> >,xalloc<stlp_std::pair<char const *,IConsole_Command *> > >::insert_unique
PUBLIC	??E?$_Rb_tree_iterator@U?$pair@QBDPAVIConsole_Command@@@stlp_std@@U?$_MapTraitsT@U?$pair@QBDPAVIConsole_Command@@@stlp_std@@@priv@2@@priv@stlp_std@@QAEAAU012@XZ ; stlp_std::priv::_Rb_tree_iterator<stlp_std::pair<char const * const,IConsole_Command *>,stlp_std::priv::_MapTraitsT<stlp_std::pair<char const * const,IConsole_Command *> > >::operator++
PUBLIC	??F?$_Rb_tree_iterator@U?$pair@QBDPAVIConsole_Command@@@stlp_std@@U?$_MapTraitsT@U?$pair@QBDPAVIConsole_Command@@@stlp_std@@@priv@2@@priv@stlp_std@@QAEAAU012@XZ ; stlp_std::priv::_Rb_tree_iterator<stlp_std::pair<char const * const,IConsole_Command *>,stlp_std::priv::_MapTraitsT<stlp_std::pair<char const * const,IConsole_Command *> > >::operator--
PUBLIC	?insert_unique@?$_Rb_tree@PBDUstr_pred@CConsole@@U?$pair@QBDPAVIConsole_Command@@@stlp_std@@U?$_Select1st@U?$pair@QBDPAVIConsole_Command@@@stlp_std@@@priv@4@U?$_MapTraitsT@U?$pair@QBDPAVIConsole_Command@@@stlp_std@@@64@V?$xalloc@U?$pair@PBDPAVIConsole_Command@@@stlp_std@@@@@priv@stlp_std@@QAE?AU?$_Rb_tree_iterator@U?$pair@QBDPAVIConsole_Command@@@stlp_std@@U?$_MapTraitsT@U?$pair@QBDPAVIConsole_Command@@@stlp_std@@@priv@2@@23@U423@ABU?$pair@QBDPAVIConsole_Command@@@3@@Z ; stlp_std::priv::_Rb_tree<char const *,CConsole::str_pred,stlp_std::pair<char const * const,IConsole_Command *>,stlp_std::priv::_Select1st<stlp_std::pair<char const * const,IConsole_Command *> >,stlp_std::priv::_MapTraitsT<stlp_std::pair<char const * const,IConsole_Command *> >,xalloc<stlp_std::pair<char const *,IConsole_Command *> > >::insert_unique
PUBLIC	?insert@?$map@PBDPAVIConsole_Command@@Ustr_pred@CConsole@@V?$xalloc@U?$pair@PBDPAVIConsole_Command@@@stlp_std@@@@@stlp_std@@QAE?AU?$_Rb_tree_iterator@U?$pair@QBDPAVIConsole_Command@@@stlp_std@@U?$_MapTraitsT@U?$pair@QBDPAVIConsole_Command@@@stlp_std@@@priv@2@@priv@2@U342@ABU?$pair@QBDPAVIConsole_Command@@@2@@Z ; stlp_std::map<char const *,IConsole_Command *,CConsole::str_pred,xalloc<stlp_std::pair<char const *,IConsole_Command *> > >::insert
PUBLIC	??0?$_Rb_tree_iterator@U?$pair@QBDPAVIConsole_Command@@@stlp_std@@U?$_MapTraitsT@U?$pair@QBDPAVIConsole_Command@@@stlp_std@@@priv@2@@priv@stlp_std@@QAE@ABU012@@Z ; stlp_std::priv::_Rb_tree_iterator<stlp_std::pair<char const * const,IConsole_Command *>,stlp_std::priv::_MapTraitsT<stlp_std::pair<char const * const,IConsole_Command *> > >::_Rb_tree_iterator<stlp_std::pair<char const * const,IConsole_Command *>,stlp_std::priv::_MapTraitsT<stlp_std::pair<char const * const,IConsole_Command *> > >
PUBLIC	??D?$_Rb_tree_iterator@U?$pair@QBDPAVIConsole_Command@@@stlp_std@@U?$_MapTraitsT@U?$pair@QBDPAVIConsole_Command@@@stlp_std@@@priv@2@@priv@stlp_std@@QBEAAU?$pair@QBDPAVIConsole_Command@@@2@XZ ; stlp_std::priv::_Rb_tree_iterator<stlp_std::pair<char const * const,IConsole_Command *>,stlp_std::priv::_MapTraitsT<stlp_std::pair<char const * const,IConsole_Command *> > >::operator*
PUBLIC	??8?$_Rb_tree_iterator@U?$pair@QBDPAVIConsole_Command@@@stlp_std@@U?$_MapTraitsT@U?$pair@QBDPAVIConsole_Command@@@stlp_std@@@priv@2@@priv@stlp_std@@QBE_NU?$_Rb_tree_iterator@U?$pair@QBDPAVIConsole_Command@@@stlp_std@@U?$_ConstMapTraitsT@U?$pair@QBDPAVIConsole_Command@@@stlp_std@@@priv@2@@12@@Z ; stlp_std::priv::_Rb_tree_iterator<stlp_std::pair<char const * const,IConsole_Command *>,stlp_std::priv::_MapTraitsT<stlp_std::pair<char const * const,IConsole_Command *> > >::operator==
PUBLIC	??0?$_Rb_tree_iterator@U?$pair@QBDPAVIConsole_Command@@@stlp_std@@U?$_ConstMapTraitsT@U?$pair@QBDPAVIConsole_Command@@@stlp_std@@@priv@2@@priv@stlp_std@@QAE@ABU?$_Rb_tree_iterator@U?$pair@QBDPAVIConsole_Command@@@stlp_std@@U?$_MapTraitsT@U?$pair@QBDPAVIConsole_Command@@@stlp_std@@@priv@2@@12@@Z ; stlp_std::priv::_Rb_tree_iterator<stlp_std::pair<char const * const,IConsole_Command *>,stlp_std::priv::_ConstMapTraitsT<stlp_std::pair<char const * const,IConsole_Command *> > >::_Rb_tree_iterator<stlp_std::pair<char const * const,IConsole_Command *>,stlp_std::priv::_ConstMapTraitsT<stlp_std::pair<char const * const,IConsole_Command *> > >
PUBLIC	??0?$pair@QBDPAVIConsole_Command@@@stlp_std@@QAE@ABQBDABQAVIConsole_Command@@@Z ; stlp_std::pair<char const * const,IConsole_Command *>::pair<char const * const,IConsole_Command *>
PUBLIC	??0?$_Rb_tree_iterator@U?$pair@QBDPAVIConsole_Command@@@stlp_std@@U?$_MapTraitsT@U?$pair@QBDPAVIConsole_Command@@@stlp_std@@@priv@2@@priv@stlp_std@@QAE@PAU_Rb_tree_node_base@12@@Z ; stlp_std::priv::_Rb_tree_iterator<stlp_std::pair<char const * const,IConsole_Command *>,stlp_std::priv::_MapTraitsT<stlp_std::pair<char const * const,IConsole_Command *> > >::_Rb_tree_iterator<stlp_std::pair<char const * const,IConsole_Command *>,stlp_std::priv::_MapTraitsT<stlp_std::pair<char const * const,IConsole_Command *> > >
PUBLIC	??Rstr_pred@CConsole@@QBE_NPBD0@Z		; CConsole::str_pred::operator()
PUBLIC	??R?$_Select1st@U?$pair@QBDPAVIConsole_Command@@@stlp_std@@@priv@stlp_std@@QBEABQBDABU?$pair@QBDPAVIConsole_Command@@@2@@Z ; stlp_std::priv::_Select1st<stlp_std::pair<char const * const,IConsole_Command *> >::operator()
PUBLIC	?_S_key@?$_Rb_tree@PBDUstr_pred@CConsole@@U?$pair@QBDPAVIConsole_Command@@@stlp_std@@U?$_Select1st@U?$pair@QBDPAVIConsole_Command@@@stlp_std@@@priv@4@U?$_MapTraitsT@U?$pair@QBDPAVIConsole_Command@@@stlp_std@@@64@V?$xalloc@U?$pair@PBDPAVIConsole_Command@@@stlp_std@@@@@priv@stlp_std@@KAABQBDPAU_Rb_tree_node_base@23@@Z ; stlp_std::priv::_Rb_tree<char const *,CConsole::str_pred,stlp_std::pair<char const * const,IConsole_Command *>,stlp_std::priv::_Select1st<stlp_std::pair<char const * const,IConsole_Command *> >,stlp_std::priv::_MapTraitsT<stlp_std::pair<char const * const,IConsole_Command *> >,xalloc<stlp_std::pair<char const *,IConsole_Command *> > >::_S_key
PUBLIC	??$_M_lower_bound@PBD@?$_Rb_tree@PBDUstr_pred@CConsole@@U?$pair@QBDPAVIConsole_Command@@@stlp_std@@U?$_Select1st@U?$pair@QBDPAVIConsole_Command@@@stlp_std@@@priv@4@U?$_MapTraitsT@U?$pair@QBDPAVIConsole_Command@@@stlp_std@@@64@V?$xalloc@U?$pair@PBDPAVIConsole_Command@@@stlp_std@@@@@priv@stlp_std@@ABEPAU_Rb_tree_node_base@12@ABQBD@Z ; stlp_std::priv::_Rb_tree<char const *,CConsole::str_pred,stlp_std::pair<char const * const,IConsole_Command *>,stlp_std::priv::_Select1st<stlp_std::pair<char const * const,IConsole_Command *> >,stlp_std::priv::_MapTraitsT<stlp_std::pair<char const * const,IConsole_Command *> >,xalloc<stlp_std::pair<char const *,IConsole_Command *> > >::_M_lower_bound<char const *>
PUBLIC	??$lower_bound@PBD@?$_Rb_tree@PBDUstr_pred@CConsole@@U?$pair@QBDPAVIConsole_Command@@@stlp_std@@U?$_Select1st@U?$pair@QBDPAVIConsole_Command@@@stlp_std@@@priv@4@U?$_MapTraitsT@U?$pair@QBDPAVIConsole_Command@@@stlp_std@@@64@V?$xalloc@U?$pair@PBDPAVIConsole_Command@@@stlp_std@@@@@priv@stlp_std@@QAE?AU?$_Rb_tree_iterator@U?$pair@QBDPAVIConsole_Command@@@stlp_std@@U?$_MapTraitsT@U?$pair@QBDPAVIConsole_Command@@@stlp_std@@@priv@2@@12@ABQBD@Z ; stlp_std::priv::_Rb_tree<char const *,CConsole::str_pred,stlp_std::pair<char const * const,IConsole_Command *>,stlp_std::priv::_Select1st<stlp_std::pair<char const * const,IConsole_Command *> >,stlp_std::priv::_MapTraitsT<stlp_std::pair<char const * const,IConsole_Command *> >,xalloc<stlp_std::pair<char const *,IConsole_Command *> > >::lower_bound<char const *>
PUBLIC	??$lower_bound@PBD@?$map@PBDPAVIConsole_Command@@Ustr_pred@CConsole@@V?$xalloc@U?$pair@PBDPAVIConsole_Command@@@stlp_std@@@@@stlp_std@@QAE?AU?$_Rb_tree_iterator@U?$pair@QBDPAVIConsole_Command@@@stlp_std@@U?$_MapTraitsT@U?$pair@QBDPAVIConsole_Command@@@stlp_std@@@priv@2@@priv@1@ABQBD@Z ; stlp_std::map<char const *,IConsole_Command *,CConsole::str_pred,xalloc<stlp_std::pair<char const *,IConsole_Command *> > >::lower_bound<char const *>
PUBLIC	??$?APBD@?$map@PBDPAVIConsole_Command@@Ustr_pred@CConsole@@V?$xalloc@U?$pair@PBDPAVIConsole_Command@@@stlp_std@@@@@stlp_std@@QAEAAPAVIConsole_Command@@ABQBD@Z ; stlp_std::map<char const *,IConsole_Command *,CConsole::str_pred,xalloc<stlp_std::pair<char const *,IConsole_Command *> > >::operator[]<char const *>
PUBLIC	?Console@@3PAVCConsole@@A			; Console
PUBLIC	?ioc_prompt@@3QBDB				; ioc_prompt
PUBLIC	?ch_cursor@@3QBDB				; ch_cursor
PUBLIC	??_C@_0O@GKOHOGBF@ui?2ui_console?$AA@		; `string'
PUBLIC	??_C@_0M@MIMEGKBO@hud?2default?$AA@		; `string'
PUBLIC	??_C@_0M@GNLPOGIJ@hud_font_di?$AA@		; `string'
PUBLIC	??_C@_0N@HJHJNABD@hud_font_di2?$AA@		; `string'
PUBLIC	??_C@_04KBDJOJNB@?$FL?$CFd?$FN?$AA@		; `string'
PUBLIC	??_C@_05HDGBDIJL@xxxxx?$AA@			; `string'
PUBLIC	??_C@_07EEKGGBBH@?9?5?$CFs?5?$CFs?$AA@		; `string'
PUBLIC	??_C@_0BE@PMGADDPJ@?$CB?5Command?5disabled?4?$AA@ ; `string'
PUBLIC	??_C@_0BE@IINFEJGI@?$CB?5Unknown?5command?3?5?$AA@ ; `string'
PUBLIC	??_C@_09DLPLBIKN@cfg_load?5?$AA@		; `string'
PUBLIC	??_C@_03MDBMMNEB@ra?5?$AA@			; `string'
PUBLIC	??_C@_01CLKCMJKC@?5?$AA@			; `string'
PUBLIC	??_C@_07NPEDDNID@?$CIempty?$CJ?$AA@		; `string'
EXTRN	__imp_?UIRender@@3PAVIUIRender@@A:DWORD
EXTRN	__imp_?size@string_tupples@detail@core@xray@@QBEIXZ:PROC
EXTRN	__imp_?concat@string_tupples@detail@core@xray@@QBEXQBD@Z:PROC
EXTRN	__imp_?check_stack_overflow@detail@core@xray@@YAXI@Z:PROC
EXTRN	__imp__SetCursorPos@8:PROC
	ALIGN	4

?Console@@3PAVCConsole@@A DD 01H DUP (?)		; Console
;	COMDAT ??_C@_07NPEDDNID@?$CIempty?$CJ?$AA@
CONST	SEGMENT
??_C@_07NPEDDNID@?$CIempty?$CJ?$AA@ DB '(empty)', 00H	; `string'
CONST	ENDS
;	COMDAT ??_C@_01CLKCMJKC@?5?$AA@
CONST	SEGMENT
??_C@_01CLKCMJKC@?5?$AA@ DB ' ', 00H			; `string'
CONST	ENDS
;	COMDAT ??_C@_03MDBMMNEB@ra?5?$AA@
CONST	SEGMENT
??_C@_03MDBMMNEB@ra?5?$AA@ DB 'ra ', 00H		; `string'
CONST	ENDS
;	COMDAT ??_C@_09DLPLBIKN@cfg_load?5?$AA@
CONST	SEGMENT
??_C@_09DLPLBIKN@cfg_load?5?$AA@ DB 'cfg_load ', 00H	; `string'
CONST	ENDS
;	COMDAT ??_C@_0BE@IINFEJGI@?$CB?5Unknown?5command?3?5?$AA@
CONST	SEGMENT
??_C@_0BE@IINFEJGI@?$CB?5Unknown?5command?3?5?$AA@ DB '! Unknown command:'
	DB	' ', 00H					; `string'
CONST	ENDS
;	COMDAT ??_C@_0BE@PMGADDPJ@?$CB?5Command?5disabled?4?$AA@
CONST	SEGMENT
??_C@_0BE@PMGADDPJ@?$CB?5Command?5disabled?4?$AA@ DB '! Command disabled.'
	DB	00H						; `string'
CONST	ENDS
;	COMDAT ??_C@_07EEKGGBBH@?9?5?$CFs?5?$CFs?$AA@
CONST	SEGMENT
??_C@_07EEKGGBBH@?9?5?$CFs?5?$CFs?$AA@ DB '- %s %s', 00H ; `string'
CONST	ENDS
;	COMDAT ??_C@_05HDGBDIJL@xxxxx?$AA@
CONST	SEGMENT
??_C@_05HDGBDIJL@xxxxx?$AA@ DB 'xxxxx', 00H		; `string'
CONST	ENDS
;	COMDAT ??_C@_04KBDJOJNB@?$FL?$CFd?$FN?$AA@
CONST	SEGMENT
??_C@_04KBDJOJNB@?$FL?$CFd?$FN?$AA@ DB '[%d]', 00H	; `string'
CONST	ENDS
;	COMDAT ??_C@_0N@HJHJNABD@hud_font_di2?$AA@
CONST	SEGMENT
??_C@_0N@HJHJNABD@hud_font_di2?$AA@ DB 'hud_font_di2', 00H ; `string'
CONST	ENDS
;	COMDAT ??_C@_0M@GNLPOGIJ@hud_font_di?$AA@
CONST	SEGMENT
??_C@_0M@GNLPOGIJ@hud_font_di?$AA@ DB 'hud_font_di', 00H ; `string'
CONST	ENDS
;	COMDAT ??_C@_0M@MIMEGKBO@hud?2default?$AA@
CONST	SEGMENT
??_C@_0M@MIMEGKBO@hud?2default?$AA@ DB 'hud\default', 00H ; `string'
CONST	ENDS
;	COMDAT ??_C@_0O@GKOHOGBF@ui?2ui_console?$AA@
CONST	SEGMENT
??_C@_0O@GKOHOGBF@ui?2ui_console?$AA@ DB 'ui\ui_console', 00H ; `string'
CONST	ENDS
;	COMDAT ??_C@_04IMEJGNKP@?$DO?$DO?$DO?5?$AA@
CONST	SEGMENT
??_C@_04IMEJGNKP@?$DO?$DO?$DO?5?$AA@ DB '>>> ', 00H	; `string'
_MACRO_ADD DB	0ecH
	DB	0afH
	DB	0caH
	DB	036H
	DB	0b7H
	DB	0dH
	DB	059H
	DB	0c1H
	DB	0faH
	DB	0a7H
	DB	071H
	DB	0b1H
	DB	023H
	DB	0c5H
	DB	08eH
	DB	065H
	DB	0d1H
	DB	036H
	DB	03H
	DB	012H
	DB	07aH
	DB	02cH
	DB	031H
	DB	03aH
	DB	03eH
	DB	014H
	DB	05dH
	DB	0d2H
	DB	0cH
	DB	051H
	DB	066H
	DB	0c7H
	DB	0e1H
	DB	060H
	DB	098H
	DB	06aH
	DB	016H
	DB	09dH
	DB	0a8H
	DB	080H
	DB	0e4H
	DB	07aH
	DB	094H
	DB	0b2H
	DB	0a2H
	DB	0f5H
	DB	06eH
	DB	027H
	DB	0f5H
	DB	0aH
	DB	03fH
	DB	0c5H
	DB	0ffH
	DB	020H
	DB	04cH
	DB	0b8H
	DB	0c5H
	DB	072H
	DB	071H
	DB	09aH
	DB	0a9H
	DB	0a0H
	DB	0ddH
	DB	04fH
	DB	068H
	DB	053H
	DB	0b1H
	DB	0faH
	DB	026H
	DB	014H
	DB	085H
	DB	094H
	DB	021H
	DB	014H
	DB	080H
	DB	05cH
	DB	070H
	DB	0baH
	DB	0c5H
	DB	0f6H
	DB	058H
	DB	0dbH
	DB	0aeH
	DB	0e5H
	DB	08dH
	DB	0cdH
	DB	0dcH
	DB	06aH
	DB	09cH
	DB	011H
	DB	0fcH
	DB	06dH
	DB	033H
	DB	017H
	DB	0fbH
	DB	0f2H
	DB	030H
	DB	0f2H
	DB	0e0H
	DB	0d3H
	DB	0e3H
	DB	092H
	DB	0acH
	DB	046H
	DB	0c7H
	DB	086H
	DB	09bH
	DB	06eH
	DB	074H
	DB	05dH
	DB	0b1H
	DB	05H
	DB	0b9H
	DB	0faH
	DB	075H
	DB	09fH
	DB	084H
	DB	057H
	DB	02aH
	DB	040H
	DB	072H
	DB	0e7H
	DB	0c9H
	DB	0cbH
_MACRO_SUB DB	0ecH
	DB	0afH
	DB	0caH
	DB	036H
	DB	0b7H
	DB	0dH
	DB	059H
	DB	0c1H
	DB	0faH
	DB	0a7H
	DB	071H
	DB	0b1H
	DB	023H
	DB	0c5H
	DB	08eH
	DB	065H
	DB	0d1H
	DB	036H
	DB	03H
	DB	012H
	DB	07aH
	DB	02cH
	DB	031H
	DB	03aH
	DB	03eH
	DB	014H
	DB	05dH
	DB	0d2H
	DB	0cH
	DB	051H
	DB	066H
	DB	0c7H
	DB	0e1H
	DB	060H
	DB	098H
	DB	06aH
	DB	016H
	DB	09dH
	DB	0a8H
	DB	080H
	DB	0e4H
	DB	07aH
	DB	094H
	DB	0b2H
	DB	0a2H
	DB	0f5H
	DB	06eH
	DB	027H
	DB	0f5H
	DB	0aH
	DB	03fH
	DB	0c5H
	DB	0ffH
	DB	020H
	DB	04cH
	DB	0b8H
	DB	0c5H
	DB	072H
	DB	071H
	DB	09aH
	DB	0a9H
	DB	0a0H
	DB	0ddH
	DB	04fH
	DB	068H
	DB	053H
	DB	0b1H
	DB	0faH
	DB	026H
	DB	014H
	DB	085H
	DB	094H
	DB	021H
	DB	014H
	DB	080H
	DB	05cH
	DB	070H
	DB	0baH
	DB	0c5H
	DB	0f6H
	DB	058H
	DB	0dbH
	DB	0aeH
	DB	0e5H
	DB	08dH
	DB	0cdH
	DB	0dcH
	DB	06aH
	DB	09cH
	DB	011H
	DB	0fcH
	DB	06dH
	DB	033H
	DB	017H
	DB	0fbH
	DB	0f2H
	DB	022H
	DB	0ecH
	DB	0b5H
	DB	0fdH
	DB	075H
	DB	0caH
	DB	02bH
	DB	055H
	DB	0ccH
	DB	02bH
	DB	0beH
	DB	0fcH
	DB	0c6H
	DB	073H
	DB	03cH
	DB	0efH
	DB	0fdH
	DB	0d7H
	DB	08bH
	DB	086H
	DB	069H
	DB	04aH
	DB	06aH
	DB	080H
	DB	0f0H
	DB	06eH
	DB	0a7H
	DB	09H
_MACRO_IF_EQL DB 0ecH
	DB	0afH
	DB	0aaH
	DB	093H
	DB	02dH
	DB	04H
	DB	0a3H
	DB	08fH
	DB	08aH
	DB	010H
	DB	067H
	DB	091H
	DB	0c9H
	DB	0e1H
	DB	0daH
	DB	02cH
	DB	031H
	DB	01dH
	DB	082H
	DB	0e2H
	DB	07H
	DB	0f9H
	DB	0e8H
	DB	024H
	DB	075H
	DB	0e9H
	DB	09dH
	DB	054H
	DB	070H
	DB	036H
	DB	04fH
	DB	0ffH
	DB	0ddH
	DB	04aH
	DB	082H
	DB	014H
	DB	088H
	DB	048H
	DB	074H
	DB	051H
	DB	03fH
	DB	0baH
	DB	051H
	DB	098H
	DB	0e9H
	DB	01dH
	DB	027H
	DB	0b1H
	DB	07bH
	DB	097H
	DB	027H
	DB	046H
	DB	09aH
	DB	046H
	DB	064H
	DB	0d4H
	DB	0efH
	DB	092H
	DB	0f0H
	DB	05H
	DB	05eH
	DB	079H
	DB	0edH
	DB	08dH
	DB	034H
	DB	052H
	DB	08aH
	DB	090H
	DB	0e9H
	DB	0baH
	DB	03cH
	DB	0beH
	DB	08bH
	DB	0e5H
	DB	0caH
	DB	028H
	DB	0b0H
	DB	092H
	DB	0deH
	DB	04cH
	DB	0d8H
	DB	031H
	DB	0ceH
	DB	0ceH
	DB	08eH
	DB	022H
	DB	078H
	DB	0f8H
	DB	07cH
	DB	0ceH
	DB	0f6H
	DB	04eH
	DB	084H
	DB	0d0H
	DB	0eeH
	DB	0b5H
	DB	0bH
	DB	08eH
	DB	053H
	DB	0d5H
	DB	0ceH
	DB	07cH
	DB	04fH
	DB	02fH
	DB	0faH
	DB	0f6H
	DB	0bfH
	DB	0c8H
	DB	070H
	DB	05aH
	DB	0eH
	DB	00H
	DB	0dbH
	DB	093H
	DB	044H
	DB	083H
	DB	0f4H
	DB	0fcH
	DB	0ebH
	DB	02fH
	DB	031H
	DB	01dH
	DB	02H
	DB	023H
	DB	09eH
	DB	08aH
	DB	0b5H
	DB	013H
	DB	068H
	DB	048H
	DB	03dH
	DB	076H
	DB	01H
	DB	0feH
	DB	040H
	DB	078H
	DB	02cH
	DB	0b7H
	DB	09H
	DB	039H
	DB	0cfH
	DB	0a4H
	DB	058H
	DB	087H
	DB	072H
	DB	0f8H
	DB	0a0H
	DB	0bcH
	DB	0e9H
	DB	0a3H
	DB	0d0H
	DB	0c0H
	DB	078H
	DB	080H
	DB	0faH
	DB	0dcH
	DB	05H
	DB	09aH
	DB	0cH
	DB	040H
	DB	09cH
	DB	0b6H
	DB	062H
	DB	0d4H
	DB	06eH
	DB	0a0H
	DB	018H
	DB	09aH
	DB	0eeH
	DB	085H
	DB	04aH
	DB	0b0H
	DB	063H
	DB	0d3H
	DB	02aH
	DB	084H
	DB	0caH
	DB	03cH
	DB	055H
	DB	0a9H
	DB	0d2H
	DB	018H
	DB	0aeH
	DB	04dH
	DB	040H
	DB	080H
	DB	0e5H
	DB	07aH
	DB	095H
	DB	033H
	DB	090H
	DB	0f2H
	DB	0f6H
	DB	06H
	DB	0d9H
	DB	065H
	DB	04dH
	DB	02bH
	DB	095H
	DB	029H
	DB	02H
	DB	0b9H
	DB	0f9H
	DB	0a6H
	DB	05H
	DB	056H
	DB	013H
	DB	02bH
	DB	09fH
	DB	069H
	DB	0faH
	DB	0f1H
	DB	0bbH
	DB	028H
	DB	0a6H
	DB	071H
	DB	040H
	DB	011H
	DB	0d7H
	DB	086H
	DB	04H
	DB	0eeH
	DB	0b6H
	DB	0eeH
	DB	0baH
	DB	0c6H
	DB	045H
	DB	07H
	DB	075H
	DB	0ecH
	DB	0c5H
	DB	0d0H
	DB	07dH
	DB	08cH
	DB	0c5H
	DB	051H
	DB	063H
	DB	0b4H
	DB	0eaH
	DB	051H
	DB	063H
	DB	0b4H
	DB	0eaH
	DB	0d6H
	DB	061H
	DB	0b1H
	DB	0e1H
	DB	0bfH
	DB	0d4H
	DB	05eH
	DB	0adH
	DB	07dH
	DB	0d5H
	DB	03H
	DB	053H
	DB	050H
	DB	09cH
	DB	068H
	DB	01bH
	DB	0a5H
	DB	0b4H
	DB	0f8H
	DB	066H
	DB	01eH
	DB	0c6H
	DB	076H
	DB	019H
	DB	0a9H
	DB	02fH
	DB	054H
	DB	0e6H
	DB	0c1H
	DB	041H
	DB	047H
	DB	0f1H
	DB	01aH
	DB	037H
	DB	047H
	DB	078H
	DB	0c5H
	DB	040H
	DB	07aH
	DB	028H
	DB	0a6H
	DB	0f1H
	DB	044H
	DB	014H
	DB	08eH
	DB	088H
	DB	015H
	DB	0aeH
	DB	0f0H
	DB	091H
	DB	0fH
	DB	06aH
	DB	0e3H
	DB	09dH
	DB	09bH
	DB	071H
	DB	099H
	DB	02H
	DB	034H
	DB	0e8H
	DB	05fH
	DB	02H
	DB	0b5H
	DB	06fH
	DB	045H
	DB	02aH
	DB	05aH
	DB	0efH
	DB	04bH
	DB	0d2H
	DB	07aH
	DB	0efH
	DB	04bH
	DB	053H
	DB	058H
	DB	073H
	DB	0a4H
	DB	01aH
	DB	01bH
	DB	015H
	DB	0e8H
	DB	04H
	DB	0c2H
	DB	0c3H
	DB	065H
	DB	0a5H
	DB	0bH
	DB	016H
	DB	0ccH
	DB	026H
	DB	0f0H
	DB	026H
	DB	0dbH
	DB	0caH
	DB	04aH
	DB	037H
	DB	03H
	DB	079H
	DB	064H
	DB	0dH
	DB	02aH
	DB	0baH
	DB	057H
	DB	061H
	DB	0bdH
	DB	0fcH
	DB	0e7H
	DB	0dH
	DB	0cdH
	DB	072H
	DB	0f9H
	DB	0deH
	DB	0abH
	DB	087H
	DB	054H
	DB	08fH
	DB	0eH
	DB	026H
	DB	0d5H
	DB	08aH
	DB	078H
	DB	015H
	DB	06cH
	DB	04bH
	DB	0dbH
	DB	015H
	DB	06cH
	DB	04bH
	DB	0dbH
	DB	015H
	DB	06cH
	DB	04bH
	DB	0dbH
	DB	095H
	DB	012H
	DB	0f0H
	DB	0f9H
	DB	01dH
	DB	010H
	DB	09fH
	DB	0c3H
	DB	0a8H
	DB	084H
	DB	0b0H
	DB	047H
	DB	058H
	DB	067H
	DB	094H
	DB	058H
	DB	06dH
	DB	08aH
	DB	0feH
	DB	064H
	DB	0daH
	DB	071H
	DB	0cfH
	DB	02dH
	DB	0daH
	DB	0d3H
	DB	06dH
	DB	083H
	DB	0e2H
	DB	07H
	DB	01fH
	DB	047H
	DB	0b7H
	DB	01bH
	DB	0afH
	DB	088H
	DB	021H
	DB	0deH
	DB	08cH
	DB	098H
	DB	052H
	DB	0a8H
	DB	070H
	DB	032H
	DB	092H
	DB	080H
	DB	01bH
	DB	00H
	DB	0fdH
	DB	049H
	DB	032H
	DB	0f0H
	DB	01eH
	DB	0b8H
	DB	0dbH
	DB	065H
	DB	033H
	DB	093H
	DB	093H
	DB	08eH
	DB	0a0H
	DB	097H
	DB	0efH
	DB	0a7H
	DB	0e3H
	DB	0d2H
	DB	084H
	DB	049H
	DB	02cH
	DB	0e0H
	DB	0d9H
	DB	0c0H
	DB	059H
	DB	0f8H
	DB	0cdH
	DB	062H
	DB	083H
	DB	0efH
	DB	07bH
	DB	055H
	DB	05dH
	DB	06bH
	DB	07fH
_UI_BASE_HEIGHT DD 044400000r			; 768
_LDIST	DD	03d4ccccdr			; 0.05
?ioc_prompt@@3QBDB DD FLAT:??_C@_04IMEJGNKP@?$DO?$DO?$DO?5?$AA@ ; ioc_prompt
?ch_cursor@@3QBDB DD FLAT:??_C@_01IDAFKMJL@_?$AA@	; ch_cursor
_EPS	DD	03727c5acr			; 1e-005
; Function compile flags: /Ogtpy
; File d:\clearsky\sources\engine\include\xrrender\factoryptr.h
;	COMDAT ?CreateObject@?$FactoryPtr@VIUIShader@@@@AAEXXZ
_TEXT	SEGMENT
_this$ = 8						; size = 4
?CreateObject@?$FactoryPtr@VIUIShader@@@@AAEXXZ PROC	; FactoryPtr<IUIShader>::CreateObject, COMDAT

; 58   : 	FACTORY_PTR_INSTANCIATE(UIShader)

	mov	eax, DWORD PTR __imp_?RenderFactory@@3PAVIRenderFactory@@A
	mov	ecx, DWORD PTR [eax]
	mov	edx, DWORD PTR [ecx]
	mov	eax, DWORD PTR [edx+8]
	call	eax
	mov	ecx, DWORD PTR _this$[esp-4]
	mov	DWORD PTR [ecx], eax
	ret	4
?CreateObject@?$FactoryPtr@VIUIShader@@@@AAEXXZ ENDP	; FactoryPtr<IUIShader>::CreateObject
; Function compile flags: /Ogtpy
_TEXT	ENDS
;	COMDAT ?DestroyObject@?$FactoryPtr@VIUIShader@@@@AAEXXZ
_TEXT	SEGMENT
?DestroyObject@?$FactoryPtr@VIUIShader@@@@AAEXXZ PROC	; FactoryPtr<IUIShader>::DestroyObject, COMDAT
; _this$ = esi

; 58   : 	FACTORY_PTR_INSTANCIATE(UIShader)

	mov	eax, DWORD PTR __imp_?RenderFactory@@3PAVIRenderFactory@@A
	mov	ecx, DWORD PTR [eax]
	mov	edx, DWORD PTR [ecx]
	mov	eax, DWORD PTR [esi]
	mov	edx, DWORD PTR [edx+12]
	push	eax
	call	edx
	mov	DWORD PTR [esi], 0
	ret	0
?DestroyObject@?$FactoryPtr@VIUIShader@@@@AAEXXZ ENDP	; FactoryPtr<IUIShader>::DestroyObject
; Function compile flags: /Ogtpy
; File d:\clearsky\sources\sdk\include\stlport\stl\type_traits.h
_TEXT	ENDS
;	COMDAT ?_Answer@?$_BothPtrType@PAUTipString@@PAU1@@stlp_std@@SA?AU__true_type@2@XZ
_TEXT	SEGMENT
?_Answer@?$_BothPtrType@PAUTipString@@PAU1@@stlp_std@@SA?AU__true_type@2@XZ PROC ; stlp_std::_BothPtrType<TipString *,TipString *>::_Answer, COMDAT

; 468  :   static _Ret _Answer() { return _Ret(); }

	xor	al, al
	ret	0
?_Answer@?$_BothPtrType@PAUTipString@@PAU1@@stlp_std@@SA?AU__true_type@2@XZ ENDP ; stlp_std::_BothPtrType<TipString *,TipString *>::_Answer
; Function compile flags: /Ogtpy
; File d:\clearsky\sources\sdk\include\stlport\stl\_pair.h
_TEXT	ENDS
;	COMDAT ??0?$pair@PBDI@stlp_std@@QAE@ABQBDABI@Z
_TEXT	SEGMENT
___b$ = 8						; size = 4
??0?$pair@PBDI@stlp_std@@QAE@ABQBDABI@Z PROC		; stlp_std::pair<char const *,unsigned int>::pair<char const *,unsigned int>, COMDAT
; _this$ = eax
; ___a$ = ecx

; 56   :   pair(const _T1& __a, const _T2& __b) : first(__a), second(__b) {}

	mov	edx, DWORD PTR [ecx]
	mov	ecx, DWORD PTR ___b$[esp-4]
	mov	DWORD PTR [eax], edx
	mov	edx, DWORD PTR [ecx]
	mov	DWORD PTR [eax+4], edx
	ret	4
??0?$pair@PBDI@stlp_std@@QAE@ABQBDABI@Z ENDP		; stlp_std::pair<char const *,unsigned int>::pair<char const *,unsigned int>
; Function compile flags: /Ogtpy
_TEXT	ENDS
;	COMDAT ??$make_pair@PBDI@stlp_std@@YA?AU?$pair@PBDI@0@PBDI@Z
_TEXT	SEGMENT
??$make_pair@PBDI@stlp_std@@YA?AU?$pair@PBDI@0@PBDI@Z PROC ; stlp_std::make_pair<char const *,unsigned int>, COMDAT
; ___$ReturnUdt$ = eax
; ___x$ = ecx
; ___y$ = edx

; 121  : { return pair<_T1, _T2>(__x, __y); }

	mov	DWORD PTR [eax], ecx
	mov	DWORD PTR [eax+4], edx
	ret	0
??$make_pair@PBDI@stlp_std@@YA?AU?$pair@PBDI@0@PBDI@Z ENDP ; stlp_std::make_pair<char const *,unsigned int>
; Function compile flags: /Ogtpy
; File d:\clearsky\sources\sdk\include\stlport\stl\_function_base.h
_TEXT	ENDS
;	COMDAT ??R?$_Select1st@U?$pair@QBDPAVIConsole_Command@@@stlp_std@@@priv@stlp_std@@QBEABQBDABU?$pair@QBDPAVIConsole_Command@@@2@@Z
_TEXT	SEGMENT
??R?$_Select1st@U?$pair@QBDPAVIConsole_Command@@@stlp_std@@@priv@stlp_std@@QBEABQBDABU?$pair@QBDPAVIConsole_Command@@@2@@Z PROC ; stlp_std::priv::_Select1st<stlp_std::pair<char const * const,IConsole_Command *> >::operator(), COMDAT
; ___x$ = eax

; 133  :     return __x.first;
; 134  :   }

	ret	0
??R?$_Select1st@U?$pair@QBDPAVIConsole_Command@@@stlp_std@@@priv@stlp_std@@QBEABQBDABU?$pair@QBDPAVIConsole_Command@@@2@@Z ENDP ; stlp_std::priv::_Select1st<stlp_std::pair<char const * const,IConsole_Command *> >::operator()
; Function compile flags: /Ogtpy
; File d:\clearsky\sources\engine\xrcore\string_concatenations_inline.h
_TEXT	ENDS
;	COMDAT ?string@?$helper@$00@string_tupples@detail@core@xray@@SAPBDPBD@Z
_TEXT	SEGMENT
?string@?$helper@$00@string_tupples@detail@core@xray@@SAPBDPBD@Z PROC ; xray::core::detail::string_tupples::helper<1>::string, COMDAT

; 120  : 			return		(string);

	mov	eax, OFFSET ??_C@_01CLKCMJKC@?5?$AA@

; 121  : 		}

	ret	0
?string@?$helper@$00@string_tupples@detail@core@xray@@SAPBDPBD@Z ENDP ; xray::core::detail::string_tupples::helper<1>::string
; Function compile flags: /Ogtpy
_TEXT	ENDS
;	COMDAT ?string@?$helper@$0A@@string_tupples@detail@core@xray@@SAPBDPBD@Z
_TEXT	SEGMENT
?string@?$helper@$0A@@string_tupples@detail@core@xray@@SAPBDPBD@Z PROC ; xray::core::detail::string_tupples::helper<0>::string, COMDAT
; _string$ = eax

; 120  : 			return		(string);
; 121  : 		}

	ret	0
?string@?$helper@$0A@@string_tupples@detail@core@xray@@SAPBDPBD@Z ENDP ; xray::core::detail::string_tupples::helper<0>::string
; Function compile flags: /Ogtpy
; File d:\clearsky\sources\sdk\include\stlport\stl\_tree.h
_TEXT	ENDS
;	COMDAT ?empty@?$_Rb_tree@PBDUstr_pred@CConsole@@U?$pair@QBDPAVIConsole_Command@@@stlp_std@@U?$_Select1st@U?$pair@QBDPAVIConsole_Command@@@stlp_std@@@priv@4@U?$_MapTraitsT@U?$pair@QBDPAVIConsole_Command@@@stlp_std@@@64@V?$xalloc@U?$pair@PBDPAVIConsole_Command@@@stlp_std@@@@@priv@stlp_std@@QBE_NXZ
_TEXT	SEGMENT
?empty@?$_Rb_tree@PBDUstr_pred@CConsole@@U?$pair@QBDPAVIConsole_Command@@@stlp_std@@U?$_Select1st@U?$pair@QBDPAVIConsole_Command@@@stlp_std@@@priv@4@U?$_MapTraitsT@U?$pair@QBDPAVIConsole_Command@@@stlp_std@@@64@V?$xalloc@U?$pair@PBDPAVIConsole_Command@@@stlp_std@@@@@priv@stlp_std@@QBE_NXZ PROC ; stlp_std::priv::_Rb_tree<char const *,CConsole::str_pred,stlp_std::pair<char const * const,IConsole_Command *>,stlp_std::priv::_Select1st<stlp_std::pair<char const * const,IConsole_Command *> >,stlp_std::priv::_MapTraitsT<stlp_std::pair<char const * const,IConsole_Command *> >,xalloc<stlp_std::pair<char const *,IConsole_Command *> > >::empty, COMDAT
; _this$ = ecx

; 427  :   bool empty() const { return _M_node_count == 0; }

	xor	eax, eax
	cmp	DWORD PTR [ecx+16], eax
	sete	al
	ret	0
?empty@?$_Rb_tree@PBDUstr_pred@CConsole@@U?$pair@QBDPAVIConsole_Command@@@stlp_std@@U?$_Select1st@U?$pair@QBDPAVIConsole_Command@@@stlp_std@@@priv@4@U?$_MapTraitsT@U?$pair@QBDPAVIConsole_Command@@@stlp_std@@@64@V?$xalloc@U?$pair@PBDPAVIConsole_Command@@@stlp_std@@@@@priv@stlp_std@@QBE_NXZ ENDP ; stlp_std::priv::_Rb_tree<char const *,CConsole::str_pred,stlp_std::pair<char const * const,IConsole_Command *>,stlp_std::priv::_Select1st<stlp_std::pair<char const * const,IConsole_Command *> >,stlp_std::priv::_MapTraitsT<stlp_std::pair<char const * const,IConsole_Command *> >,xalloc<stlp_std::pair<char const *,IConsole_Command *> > >::empty
; Function compile flags: /Ogtpy
; File d:\clearsky\sources\engine\xrcore\_stl_extensions.h
_TEXT	ENDS
;	COMDAT ?max_size@?$xalloc@UTipString@@@@QBEIXZ
_TEXT	SEGMENT
?max_size@?$xalloc@UTipString@@@@QBEIXZ PROC		; xalloc<TipString>::max_size, COMDAT

; 87   : 							size_type				max_size		() const								{	size_type _Count = (size_type)(-1) / sizeof (T);	return (0 < _Count ? _Count : 1);	}

	mov	eax, 357913941				; 15555555H
	ret	0
?max_size@?$xalloc@UTipString@@@@QBEIXZ ENDP		; xalloc<TipString>::max_size
; Function compile flags: /Ogtpy
; File d:\clearsky\sources\sdk\include\stlport\stl\_tree.h
_TEXT	ENDS
;	COMDAT ?key_comp@?$_Rb_tree@PBDUstr_pred@CConsole@@U?$pair@QBDPAVIConsole_Command@@@stlp_std@@U?$_Select1st@U?$pair@QBDPAVIConsole_Command@@@stlp_std@@@priv@4@U?$_MapTraitsT@U?$pair@QBDPAVIConsole_Command@@@stlp_std@@@64@V?$xalloc@U?$pair@PBDPAVIConsole_Command@@@stlp_std@@@@@priv@stlp_std@@QBE?AUstr_pred@CConsole@@XZ
_TEXT	SEGMENT
?key_comp@?$_Rb_tree@PBDUstr_pred@CConsole@@U?$pair@QBDPAVIConsole_Command@@@stlp_std@@U?$_Select1st@U?$pair@QBDPAVIConsole_Command@@@stlp_std@@@priv@4@U?$_MapTraitsT@U?$pair@QBDPAVIConsole_Command@@@stlp_std@@@64@V?$xalloc@U?$pair@PBDPAVIConsole_Command@@@stlp_std@@@@@priv@stlp_std@@QBE?AUstr_pred@CConsole@@XZ PROC ; stlp_std::priv::_Rb_tree<char const *,CConsole::str_pred,stlp_std::pair<char const * const,IConsole_Command *>,stlp_std::priv::_Select1st<stlp_std::pair<char const * const,IConsole_Command *> >,stlp_std::priv::_MapTraitsT<stlp_std::pair<char const * const,IConsole_Command *> >,xalloc<stlp_std::pair<char const *,IConsole_Command *> > >::key_comp, COMDAT
; ___$ReturnUdt$ = eax

; 414  :   _Compare key_comp() const { return _M_key_compare; }

	ret	0
?key_comp@?$_Rb_tree@PBDUstr_pred@CConsole@@U?$pair@QBDPAVIConsole_Command@@@stlp_std@@U?$_Select1st@U?$pair@QBDPAVIConsole_Command@@@stlp_std@@@priv@4@U?$_MapTraitsT@U?$pair@QBDPAVIConsole_Command@@@stlp_std@@@64@V?$xalloc@U?$pair@PBDPAVIConsole_Command@@@stlp_std@@@@@priv@stlp_std@@QBE?AUstr_pred@CConsole@@XZ ENDP ; stlp_std::priv::_Rb_tree<char const *,CConsole::str_pred,stlp_std::pair<char const * const,IConsole_Command *>,stlp_std::priv::_Select1st<stlp_std::pair<char const * const,IConsole_Command *> >,stlp_std::priv::_MapTraitsT<stlp_std::pair<char const * const,IConsole_Command *> >,xalloc<stlp_std::pair<char const *,IConsole_Command *> > >::key_comp
; Function compile flags: /Ogtpy
; File d:\clearsky\sources\engine\include\xrrender\factoryptr.h
_TEXT	ENDS
;	COMDAT ??1?$FactoryPtr@VIUIShader@@@@QAE@XZ
_TEXT	SEGMENT
??1?$FactoryPtr@VIUIShader@@@@QAE@XZ PROC		; FactoryPtr<IUIShader>::~FactoryPtr<IUIShader>, COMDAT
; _this$ = esi

; 25   : 	~FactoryPtr() { DestroyObject();}

	mov	eax, DWORD PTR __imp_?RenderFactory@@3PAVIRenderFactory@@A
	mov	ecx, DWORD PTR [eax]
	mov	edx, DWORD PTR [ecx]
	mov	eax, DWORD PTR [esi]
	mov	edx, DWORD PTR [edx+12]
	push	eax
	call	edx
	mov	DWORD PTR [esi], 0
	ret	0
??1?$FactoryPtr@VIUIShader@@@@QAE@XZ ENDP		; FactoryPtr<IUIShader>::~FactoryPtr<IUIShader>
; Function compile flags: /Ogtpy
; File d:\clearsky\sources\engine\xrcore\xrmemory_subst_msvc.h
_TEXT	ENDS
;	COMDAT ??R?$xr_special_free@$00Vline_editor@text_editor@@@@QAEXAAPAVline_editor@text_editor@@@Z
_TEXT	SEGMENT
??R?$xr_special_free@$00Vline_editor@text_editor@@@@QAEXAAPAVline_editor@text_editor@@@Z PROC ; xr_special_free<1,text_editor::line_editor>::operator(), COMDAT
; _ptr$ = esi

; 132  : 		void*	_real_ptr	= dynamic_cast<void*>(ptr);

	mov	eax, DWORD PTR [esi]
	push	edi
	push	eax
	call	___RTCastToVoid

; 133  : 		ptr->~T			();

	mov	ecx, DWORD PTR [esi]
	mov	edx, DWORD PTR [ecx]
	add	esp, 4
	mov	edi, eax
	mov	eax, DWORD PTR [edx+44]
	push	0
	call	eax

; 134  : 		Memory.mem_free	(_real_ptr);

	mov	ecx, DWORD PTR __imp_?Memory@@3VxrMemory@@A
	push	edi
	call	DWORD PTR __imp_?mem_free@xrMemory@@QAEXPAX@Z
	pop	edi

; 135  : 	}

	ret	0
??R?$xr_special_free@$00Vline_editor@text_editor@@@@QAEXAAPAVline_editor@text_editor@@@Z ENDP ; xr_special_free<1,text_editor::line_editor>::operator()
; Function compile flags: /Ogtpy
; File d:\clearsky\sources\sdk\include\stlport\stl\_pair.h
_TEXT	ENDS
;	COMDAT ??0?$pair@QBDPAVIConsole_Command@@@stlp_std@@QAE@ABQBDABQAVIConsole_Command@@@Z
_TEXT	SEGMENT
___b$ = 8						; size = 4
??0?$pair@QBDPAVIConsole_Command@@@stlp_std@@QAE@ABQBDABQAVIConsole_Command@@@Z PROC ; stlp_std::pair<char const * const,IConsole_Command *>::pair<char const * const,IConsole_Command *>, COMDAT
; _this$ = eax
; ___a$ = ecx

; 56   :   pair(const _T1& __a, const _T2& __b) : first(__a), second(__b) {}

	mov	edx, DWORD PTR [ecx]
	mov	ecx, DWORD PTR ___b$[esp-4]
	mov	DWORD PTR [eax], edx
	mov	edx, DWORD PTR [ecx]
	mov	DWORD PTR [eax+4], edx
	ret	4
??0?$pair@QBDPAVIConsole_Command@@@stlp_std@@QAE@ABQBDABQAVIConsole_Command@@@Z ENDP ; stlp_std::pair<char const * const,IConsole_Command *>::pair<char const * const,IConsole_Command *>
; Function compile flags: /Ogtpy
; File d:\clearsky\sources\sdk\include\stlport\stl\_tree.h
_TEXT	ENDS
;	COMDAT ??8?$_Rb_tree_iterator@U?$pair@QBDPAVIConsole_Command@@@stlp_std@@U?$_MapTraitsT@U?$pair@QBDPAVIConsole_Command@@@stlp_std@@@priv@2@@priv@stlp_std@@QBE_NU?$_Rb_tree_iterator@U?$pair@QBDPAVIConsole_Command@@@stlp_std@@U?$_ConstMapTraitsT@U?$pair@QBDPAVIConsole_Command@@@stlp_std@@@priv@2@@12@@Z
_TEXT	SEGMENT
___rhs$ = 8						; size = 4
??8?$_Rb_tree_iterator@U?$pair@QBDPAVIConsole_Command@@@stlp_std@@U?$_MapTraitsT@U?$pair@QBDPAVIConsole_Command@@@stlp_std@@@priv@2@@priv@stlp_std@@QBE_NU?$_Rb_tree_iterator@U?$pair@QBDPAVIConsole_Command@@@stlp_std@@U?$_ConstMapTraitsT@U?$pair@QBDPAVIConsole_Command@@@stlp_std@@@priv@2@@12@@Z PROC ; stlp_std::priv::_Rb_tree_iterator<stlp_std::pair<char const * const,IConsole_Command *>,stlp_std::priv::_MapTraitsT<stlp_std::pair<char const * const,IConsole_Command *> > >::operator==, COMDAT
; _this$ = ecx

; 197  :     return _M_node == __rhs._M_node;

	mov	edx, DWORD PTR [ecx]
	xor	eax, eax
	cmp	edx, DWORD PTR ___rhs$[esp-4]
	sete	al

; 198  :   }

	ret	4
??8?$_Rb_tree_iterator@U?$pair@QBDPAVIConsole_Command@@@stlp_std@@U?$_MapTraitsT@U?$pair@QBDPAVIConsole_Command@@@stlp_std@@@priv@2@@priv@stlp_std@@QBE_NU?$_Rb_tree_iterator@U?$pair@QBDPAVIConsole_Command@@@stlp_std@@U?$_ConstMapTraitsT@U?$pair@QBDPAVIConsole_Command@@@stlp_std@@@priv@2@@12@@Z ENDP ; stlp_std::priv::_Rb_tree_iterator<stlp_std::pair<char const * const,IConsole_Command *>,stlp_std::priv::_MapTraitsT<stlp_std::pair<char const * const,IConsole_Command *> > >::operator==
; Function compile flags: /Ogtpy
; File d:\clearsky\sources\sdk\include\stlport\stl\_vector.h
_TEXT	ENDS
;	COMDAT ?_M_set@?$_Impl_vector@UTipString@@V?$xalloc@UTipString@@@@@priv@stlp_std@@AAEXPAUTipString@@00@Z
_TEXT	SEGMENT
___e$ = 8						; size = 4
?_M_set@?$_Impl_vector@UTipString@@V?$xalloc@UTipString@@@@@priv@stlp_std@@AAEXPAUTipString@@00@Z PROC ; stlp_std::priv::_Impl_vector<TipString,xalloc<TipString> >::_M_set, COMDAT
; _this$ = eax
; ___s$ = ecx
; ___f$ = edx

; 626  :     this->_M_start = __s;

	mov	DWORD PTR [eax], ecx

; 627  :     this->_M_finish = __f;
; 628  :     this->_M_end_of_storage._M_data = __e;

	mov	ecx, DWORD PTR ___e$[esp-4]
	mov	DWORD PTR [eax+4], edx
	mov	DWORD PTR [eax+8], ecx

; 629  :   }

	ret	4
?_M_set@?$_Impl_vector@UTipString@@V?$xalloc@UTipString@@@@@priv@stlp_std@@AAEXPAUTipString@@00@Z ENDP ; stlp_std::priv::_Impl_vector<TipString,xalloc<TipString> >::_M_set
; Function compile flags: /Ogtpy
_TEXT	ENDS
;	COMDAT ?max_size@?$_Impl_vector@UTipString@@V?$xalloc@UTipString@@@@@priv@stlp_std@@QBEIXZ
_TEXT	SEGMENT
?max_size@?$_Impl_vector@UTipString@@V?$xalloc@UTipString@@@@@priv@stlp_std@@QBEIXZ PROC ; stlp_std::priv::_Impl_vector<TipString,xalloc<TipString> >::max_size, COMDAT

; 182  :     size_type __vector_max_size = size_type(-1) / sizeof(_Tp);
; 183  :     typename allocator_type::size_type __alloc_max_size = this->_M_end_of_storage.max_size();
; 184  :     return (__alloc_max_size < __vector_max_size)?__alloc_max_size:__vector_max_size;

	mov	eax, 357913941				; 15555555H

; 185  :   }

	ret	0
?max_size@?$_Impl_vector@UTipString@@V?$xalloc@UTipString@@@@@priv@stlp_std@@QBEIXZ ENDP ; stlp_std::priv::_Impl_vector<TipString,xalloc<TipString> >::max_size
; Function compile flags: /Ogtpy
; File d:\clearsky\sources\sdk\include\stlport\stl\_map.h
_TEXT	ENDS
;	COMDAT ?key_comp@?$map@PBDPAVIConsole_Command@@Ustr_pred@CConsole@@V?$xalloc@U?$pair@PBDPAVIConsole_Command@@@stlp_std@@@@@stlp_std@@QBE?AUstr_pred@CConsole@@XZ
_TEXT	SEGMENT
?key_comp@?$map@PBDPAVIConsole_Command@@Ustr_pred@CConsole@@V?$xalloc@U?$pair@PBDPAVIConsole_Command@@@stlp_std@@@@@stlp_std@@QBE?AUstr_pred@CConsole@@XZ PROC ; stlp_std::map<char const *,IConsole_Command *,CConsole::str_pred,xalloc<stlp_std::pair<char const *,IConsole_Command *> > >::key_comp, COMDAT
; ___$ReturnUdt$ = eax

; 157  :   key_compare key_comp() const { return _M_t.key_comp(); }

	ret	0
?key_comp@?$map@PBDPAVIConsole_Command@@Ustr_pred@CConsole@@V?$xalloc@U?$pair@PBDPAVIConsole_Command@@@stlp_std@@@@@stlp_std@@QBE?AUstr_pred@CConsole@@XZ ENDP ; stlp_std::map<char const *,IConsole_Command *,CConsole::str_pred,xalloc<stlp_std::pair<char const *,IConsole_Command *> > >::key_comp
; Function compile flags: /Ogtpy
; File d:\clearsky\sources\engine\include\xrrender\factoryptr.h
_TEXT	ENDS
;	COMDAT ??0?$FactoryPtr@VIUIShader@@@@QAE@XZ
_TEXT	SEGMENT
??0?$FactoryPtr@VIUIShader@@@@QAE@XZ PROC		; FactoryPtr<IUIShader>::FactoryPtr<IUIShader>, COMDAT
; _this$ = esi

; 24   : 	FactoryPtr() { CreateObject();}

	mov	eax, DWORD PTR __imp_?RenderFactory@@3PAVIRenderFactory@@A
	mov	ecx, DWORD PTR [eax]
	mov	edx, DWORD PTR [ecx]
	mov	eax, DWORD PTR [edx+8]
	call	eax
	mov	DWORD PTR [esi], eax
	mov	eax, esi
	ret	0
??0?$FactoryPtr@VIUIShader@@@@QAE@XZ ENDP		; FactoryPtr<IUIShader>::FactoryPtr<IUIShader>
; Function compile flags: /Ogtpy
; File d:\clearsky\sources\sdk\include\stlport\stl\_pair.h
_TEXT	ENDS
;	COMDAT ??0?$pair@PBDI@stlp_std@@QAE@XZ
_TEXT	SEGMENT
??0?$pair@PBDI@stlp_std@@QAE@XZ PROC			; stlp_std::pair<char const *,unsigned int>::pair<char const *,unsigned int>, COMDAT
; _this$ = ecx

; 54   :   pair() : first(_T1()), second(_T2()) {}

	mov	eax, ecx
	mov	DWORD PTR [eax], 0
	mov	DWORD PTR [eax+4], 0
	ret	0
??0?$pair@PBDI@stlp_std@@QAE@XZ ENDP			; stlp_std::pair<char const *,unsigned int>::pair<char const *,unsigned int>
; Function compile flags: /Ogtpy
; File d:\clearsky\sources\engine\xrcore\_std_extensions.h
_TEXT	ENDS
;	COMDAT ??$_min@I@@YAIII@Z
_TEXT	SEGMENT
??$_min@I@@YAIII@Z PROC					; _min<unsigned int>, COMDAT
; _a$ = eax

; 94   : template <class T>	IC T		_min	(T a, T b)	{ return a<b?a:b;	}

	cmp	eax, 14					; 0000000eH
	jb	SHORT $LN4@min
	mov	eax, 14					; 0000000eH
$LN4@min:
	ret	0
??$_min@I@@YAIII@Z ENDP					; _min<unsigned int>
; Function compile flags: /Ogtpy
; File d:\clearsky\sources\engine\xrcore\xrmemory_subst_msvc.h
_TEXT	ENDS
;	COMDAT ??$xr_delete@Vline_editor@text_editor@@@@YAXAAPAVline_editor@text_editor@@@Z
_TEXT	SEGMENT
??$xr_delete@Vline_editor@text_editor@@@@YAXAAPAVline_editor@text_editor@@@Z PROC ; xr_delete<text_editor::line_editor>, COMDAT
; _ptr$ = esi

; 151  : 	if (ptr) 

	mov	eax, DWORD PTR [esi]
	test	eax, eax
	je	SHORT $LN1@xr_delete@2
	push	edi

; 152  : 	{
; 153  : 		xr_special_free<is_polymorphic<T>::result,T>()(ptr);

	push	eax
	call	___RTCastToVoid
	mov	ecx, DWORD PTR [esi]
	mov	edi, eax
	mov	eax, DWORD PTR [ecx]
	mov	edx, DWORD PTR [eax+44]
	add	esp, 4
	push	0
	call	edx
	mov	ecx, DWORD PTR __imp_?Memory@@3VxrMemory@@A
	push	edi
	call	DWORD PTR __imp_?mem_free@xrMemory@@QAEXPAX@Z

; 154  : 		ptr = NULL;

	mov	DWORD PTR [esi], 0
	pop	edi
$LN1@xr_delete@2:

; 155  : 	}
; 156  : }

	ret	0
??$xr_delete@Vline_editor@text_editor@@@@YAXAAPAVline_editor@text_editor@@@Z ENDP ; xr_delete<text_editor::line_editor>
; Function compile flags: /Ogtpy
; File d:\clearsky\sources\sdk\include\stlport\stl\pointers\_tools.h
_TEXT	ENDS
;	COMDAT ?to_storage_type_ptr@?$_CastTraits@UTipString@@U1@@priv@stlp_std@@SAPAUTipString@@PAU4@@Z
_TEXT	SEGMENT
?to_storage_type_ptr@?$_CastTraits@UTipString@@U1@@priv@stlp_std@@SAPAUTipString@@PAU4@@Z PROC ; stlp_std::priv::_CastTraits<TipString,TipString>::to_storage_type_ptr, COMDAT
; ___ptr$ = eax

; 248  :   { return __ptr; }

	ret	0
?to_storage_type_ptr@?$_CastTraits@UTipString@@U1@@priv@stlp_std@@SAPAUTipString@@PAU4@@Z ENDP ; stlp_std::priv::_CastTraits<TipString,TipString>::to_storage_type_ptr
; Function compile flags: /Ogtpy
_TEXT	ENDS
;	COMDAT ?to_storage_type_cref@?$_CastTraits@UTipString@@U1@@priv@stlp_std@@SAABUTipString@@ABU4@@Z
_TEXT	SEGMENT
?to_storage_type_cref@?$_CastTraits@UTipString@@U1@@priv@stlp_std@@SAABUTipString@@ABU4@@Z PROC ; stlp_std::priv::_CastTraits<TipString,TipString>::to_storage_type_cref, COMDAT
; ___ref$ = eax

; 254  :   { return __ref; }

	ret	0
?to_storage_type_cref@?$_CastTraits@UTipString@@U1@@priv@stlp_std@@SAABUTipString@@ABU4@@Z ENDP ; stlp_std::priv::_CastTraits<TipString,TipString>::to_storage_type_cref
; Function compile flags: /Ogtpy
_TEXT	ENDS
;	COMDAT ?to_value_type_ref@?$_CastTraits@UTipString@@U1@@priv@stlp_std@@SAAAUTipString@@AAU4@@Z
_TEXT	SEGMENT
?to_value_type_ref@?$_CastTraits@UTipString@@U1@@priv@stlp_std@@SAAAUTipString@@AAU4@@Z PROC ; stlp_std::priv::_CastTraits<TipString,TipString>::to_value_type_ref, COMDAT
; ___ref$ = eax

; 243  :   { return __ref; }

	ret	0
?to_value_type_ref@?$_CastTraits@UTipString@@U1@@priv@stlp_std@@SAAAUTipString@@AAU4@@Z ENDP ; stlp_std::priv::_CastTraits<TipString,TipString>::to_value_type_ref
; Function compile flags: /Ogtpy
_TEXT	ENDS
;	COMDAT ?to_value_type_ptr@?$_CastTraits@UTipString@@U1@@priv@stlp_std@@SAPAUTipString@@PAU4@@Z
_TEXT	SEGMENT
?to_value_type_ptr@?$_CastTraits@UTipString@@U1@@priv@stlp_std@@SAPAUTipString@@PAU4@@Z PROC ; stlp_std::priv::_CastTraits<TipString,TipString>::to_value_type_ptr, COMDAT
; ___ptr$ = eax

; 237  :   { return __ptr; }

	ret	0
?to_value_type_ptr@?$_CastTraits@UTipString@@U1@@priv@stlp_std@@SAPAUTipString@@PAU4@@Z ENDP ; stlp_std::priv::_CastTraits<TipString,TipString>::to_value_type_ptr
; Function compile flags: /Ogtpy
; File d:\clearsky\sources\engine\xrcore\_stl_extensions.h
_TEXT	ENDS
;	COMDAT ??0?$xalloc@U?$pair@QBDPAVIConsole_Command@@@stlp_std@@@@QAE@XZ
_TEXT	SEGMENT
??0?$xalloc@U?$pair@QBDPAVIConsole_Command@@@stlp_std@@@@QAE@XZ PROC ; xalloc<stlp_std::pair<char const * const,IConsole_Command *> >::xalloc<stlp_std::pair<char const * const,IConsole_Command *> >, COMDAT
; _this$ = eax

; 77   : 													xalloc			()										{	}

	ret	0
??0?$xalloc@U?$pair@QBDPAVIConsole_Command@@@stlp_std@@@@QAE@XZ ENDP ; xalloc<stlp_std::pair<char const * const,IConsole_Command *> >::xalloc<stlp_std::pair<char const * const,IConsole_Command *> >
; Function compile flags: /Ogtpy
; File d:\clearsky\sources\sdk\include\stlport\stl\_tree.h
_TEXT	ENDS
;	COMDAT ??D?$_Rb_tree_iterator@U?$pair@QBDPAVIConsole_Command@@@stlp_std@@U?$_MapTraitsT@U?$pair@QBDPAVIConsole_Command@@@stlp_std@@@priv@2@@priv@stlp_std@@QBEAAU?$pair@QBDPAVIConsole_Command@@@2@XZ
_TEXT	SEGMENT
??D?$_Rb_tree_iterator@U?$pair@QBDPAVIConsole_Command@@@stlp_std@@U?$_MapTraitsT@U?$pair@QBDPAVIConsole_Command@@@stlp_std@@@priv@2@@priv@stlp_std@@QBEAAU?$pair@QBDPAVIConsole_Command@@@2@XZ PROC ; stlp_std::priv::_Rb_tree_iterator<stlp_std::pair<char const * const,IConsole_Command *>,stlp_std::priv::_MapTraitsT<stlp_std::pair<char const * const,IConsole_Command *> > >::operator*, COMDAT
; _this$ = eax

; 171  :     return __STATIC_CAST(_Link_type, _M_node)->_M_value_field;

	mov	eax, DWORD PTR [eax]
	add	eax, 16					; 00000010H

; 172  :   }

	ret	0
??D?$_Rb_tree_iterator@U?$pair@QBDPAVIConsole_Command@@@stlp_std@@U?$_MapTraitsT@U?$pair@QBDPAVIConsole_Command@@@stlp_std@@@priv@2@@priv@stlp_std@@QBEAAU?$pair@QBDPAVIConsole_Command@@@2@XZ ENDP ; stlp_std::priv::_Rb_tree_iterator<stlp_std::pair<char const * const,IConsole_Command *>,stlp_std::priv::_MapTraitsT<stlp_std::pair<char const * const,IConsole_Command *> > >::operator*
; Function compile flags: /Ogtpy
; File d:\clearsky\sources\engine\xrcore\_stl_extensions.h
_TEXT	ENDS
;	COMDAT ??0?$xalloc@UTipString@@@@QAE@XZ
_TEXT	SEGMENT
??0?$xalloc@UTipString@@@@QAE@XZ PROC			; xalloc<TipString>::xalloc<TipString>, COMDAT
; _this$ = eax

; 77   : 													xalloc			()										{	}

	ret	0
??0?$xalloc@UTipString@@@@QAE@XZ ENDP			; xalloc<TipString>::xalloc<TipString>
; Function compile flags: /Ogtpy
; File d:\clearsky\sources\sdk\include\stlport\stl\_vector.h
_TEXT	ENDS
;	COMDAT ?empty@?$_Impl_vector@Vshared_str@@V?$xalloc@Vshared_str@@@@@priv@stlp_std@@QBE_NXZ
_TEXT	SEGMENT
?empty@?$_Impl_vector@Vshared_str@@V?$xalloc@Vshared_str@@@@@priv@stlp_std@@QBE_NXZ PROC ; stlp_std::priv::_Impl_vector<shared_str,xalloc<shared_str> >::empty, COMDAT
; _this$ = eax

; 188  :   bool empty() const            { return this->_M_start == this->_M_finish; }

	mov	ecx, DWORD PTR [eax]
	xor	edx, edx
	cmp	ecx, DWORD PTR [eax+4]
	sete	dl
	mov	al, dl
	ret	0
?empty@?$_Impl_vector@Vshared_str@@V?$xalloc@Vshared_str@@@@@priv@stlp_std@@QBE_NXZ ENDP ; stlp_std::priv::_Impl_vector<shared_str,xalloc<shared_str> >::empty
; Function compile flags: /Ogtpy
; File d:\clearsky\sources\sdk\include\stlport\stl\_tree.h
_TEXT	ENDS
;	COMDAT ??9?$_Rb_tree_iterator@U?$pair@QBDPAVIConsole_Command@@@stlp_std@@U?$_MapTraitsT@U?$pair@QBDPAVIConsole_Command@@@stlp_std@@@priv@2@@priv@stlp_std@@QBE_NU?$_Rb_tree_iterator@U?$pair@QBDPAVIConsole_Command@@@stlp_std@@U?$_ConstMapTraitsT@U?$pair@QBDPAVIConsole_Command@@@stlp_std@@@priv@2@@12@@Z
_TEXT	SEGMENT
___rhs$ = 8						; size = 4
??9?$_Rb_tree_iterator@U?$pair@QBDPAVIConsole_Command@@@stlp_std@@U?$_MapTraitsT@U?$pair@QBDPAVIConsole_Command@@@stlp_std@@@priv@2@@priv@stlp_std@@QBE_NU?$_Rb_tree_iterator@U?$pair@QBDPAVIConsole_Command@@@stlp_std@@U?$_ConstMapTraitsT@U?$pair@QBDPAVIConsole_Command@@@stlp_std@@@priv@2@@12@@Z PROC ; stlp_std::priv::_Rb_tree_iterator<stlp_std::pair<char const * const,IConsole_Command *>,stlp_std::priv::_MapTraitsT<stlp_std::pair<char const * const,IConsole_Command *> > >::operator!=, COMDAT
; _this$ = ecx

; 200  :     return _M_node != __rhs._M_node;

	mov	edx, DWORD PTR [ecx]
	xor	eax, eax
	cmp	edx, DWORD PTR ___rhs$[esp-4]
	setne	al

; 201  :   }

	ret	4
??9?$_Rb_tree_iterator@U?$pair@QBDPAVIConsole_Command@@@stlp_std@@U?$_MapTraitsT@U?$pair@QBDPAVIConsole_Command@@@stlp_std@@@priv@2@@priv@stlp_std@@QBE_NU?$_Rb_tree_iterator@U?$pair@QBDPAVIConsole_Command@@@stlp_std@@U?$_ConstMapTraitsT@U?$pair@QBDPAVIConsole_Command@@@stlp_std@@@priv@2@@12@@Z ENDP ; stlp_std::priv::_Rb_tree_iterator<stlp_std::pair<char const * const,IConsole_Command *>,stlp_std::priv::_MapTraitsT<stlp_std::pair<char const * const,IConsole_Command *> > >::operator!=
; Function compile flags: /Ogtpy
_TEXT	ENDS
;	COMDAT ??C?$_Rb_tree_iterator@U?$pair@QBDPAVIConsole_Command@@@stlp_std@@U?$_MapTraitsT@U?$pair@QBDPAVIConsole_Command@@@stlp_std@@@priv@2@@priv@stlp_std@@QBEPAU?$pair@QBDPAVIConsole_Command@@@2@XZ
_TEXT	SEGMENT
??C?$_Rb_tree_iterator@U?$pair@QBDPAVIConsole_Command@@@stlp_std@@U?$_MapTraitsT@U?$pair@QBDPAVIConsole_Command@@@stlp_std@@@priv@2@@priv@stlp_std@@QBEPAU?$pair@QBDPAVIConsole_Command@@@2@XZ PROC ; stlp_std::priv::_Rb_tree_iterator<stlp_std::pair<char const * const,IConsole_Command *>,stlp_std::priv::_MapTraitsT<stlp_std::pair<char const * const,IConsole_Command *> > >::operator->, COMDAT
; _this$ = eax

; 174  :   _STLP_DEFINE_ARROW_OPERATOR

	mov	eax, DWORD PTR [eax]
	add	eax, 16					; 00000010H
	ret	0
??C?$_Rb_tree_iterator@U?$pair@QBDPAVIConsole_Command@@@stlp_std@@U?$_MapTraitsT@U?$pair@QBDPAVIConsole_Command@@@stlp_std@@@priv@2@@priv@stlp_std@@QBEPAU?$pair@QBDPAVIConsole_Command@@@2@XZ ENDP ; stlp_std::priv::_Rb_tree_iterator<stlp_std::pair<char const * const,IConsole_Command *>,stlp_std::priv::_MapTraitsT<stlp_std::pair<char const * const,IConsole_Command *> > >::operator->
; Function compile flags: /Ogtpy
; File d:\clearsky\sources\engine\include\xrrender\factoryptr.h
_TEXT	ENDS
;	COMDAT ??C?$FactoryPtr@VIUIShader@@@@QBEPAVIUIShader@@XZ
_TEXT	SEGMENT
??C?$FactoryPtr@VIUIShader@@@@QBEPAVIUIShader@@XZ PROC	; FactoryPtr<IUIShader>::operator->, COMDAT
; _this$ = eax

; 40   : 	T* operator->() const {return m_pObject;}

	mov	eax, DWORD PTR [eax]
	ret	0
??C?$FactoryPtr@VIUIShader@@@@QBEPAVIUIShader@@XZ ENDP	; FactoryPtr<IUIShader>::operator->
; Function compile flags: /Ogtpy
_TEXT	ENDS
;	COMDAT ??D?$FactoryPtr@VIUIShader@@@@QBEAAVIUIShader@@XZ
_TEXT	SEGMENT
??D?$FactoryPtr@VIUIShader@@@@QBEAAVIUIShader@@XZ PROC	; FactoryPtr<IUIShader>::operator*, COMDAT
; _this$ = eax

; 39   : 	T& operator*() const {return *m_pObject;}

	mov	eax, DWORD PTR [eax]
	ret	0
??D?$FactoryPtr@VIUIShader@@@@QBEAAVIUIShader@@XZ ENDP	; FactoryPtr<IUIShader>::operator*
; Function compile flags: /Ogtpy
; File d:\clearsky\sources\sdk\include\stlport\stl\pointers\_vector.h
_TEXT	ENDS
;	COMDAT ?empty@?$vector@Vshared_str@@V?$xalloc@Vshared_str@@@@@stlp_std@@QBE_NXZ
_TEXT	SEGMENT
?empty@?$vector@Vshared_str@@V?$xalloc@Vshared_str@@@@@stlp_std@@QBE_NXZ PROC ; stlp_std::vector<shared_str,xalloc<shared_str> >::empty, COMDAT
; _this$ = eax

; 93   :   bool empty() const            { return _M_impl.empty(); }

	mov	ecx, DWORD PTR [eax]
	xor	edx, edx
	cmp	ecx, DWORD PTR [eax+4]
	sete	dl
	mov	al, dl
	ret	0
?empty@?$vector@Vshared_str@@V?$xalloc@Vshared_str@@@@@stlp_std@@QBE_NXZ ENDP ; stlp_std::vector<shared_str,xalloc<shared_str> >::empty
; Function compile flags: /Ogtpy
; File d:\clearsky\sources\engine\xrcore\_rect.h
_TEXT	ENDS
;	COMDAT ?null@?$_rect@M@@QAEAAU1@XZ
_TEXT	SEGMENT
?null@?$_rect@M@@QAEAAU1@XZ PROC			; _rect<float>::null, COMDAT
; _this$ = eax

; 31   : 	IC	SelfRef	null( )										{ x1=T(0);	y1=T(0);	x2=T(0);	y2=T(0);		return *this;	};

	xorps	xmm0, xmm0
	movss	DWORD PTR [eax], xmm0
	movss	DWORD PTR [eax+4], xmm0
	movss	DWORD PTR [eax+8], xmm0
	movss	DWORD PTR [eax+12], xmm0
	ret	0
?null@?$_rect@M@@QAEAAU1@XZ ENDP			; _rect<float>::null
; Function compile flags: /Ogtpy
_TEXT	ENDS
;	COMDAT ?set@?$_rect@M@@QAEAAU1@MMMM@Z
_TEXT	SEGMENT
__x2$ = 8						; size = 4
__y2$ = 12						; size = 4
?set@?$_rect@M@@QAEAAU1@MMMM@Z PROC			; _rect<float>::set, COMDAT
; _this$ = eax

; 28   : 	IC	SelfRef	set(const T _x1, const T _y1, const T _x2, const T _y2)	{ x1=_x1;	y1=_y1;		x2=_x2;		y2=_y2;		return *this;	};

	xorps	xmm0, xmm0
	movss	DWORD PTR [eax], xmm0
	movss	DWORD PTR [eax+4], xmm0
	movss	xmm0, DWORD PTR __x2$[esp-4]
	movss	DWORD PTR [eax+8], xmm0
	movss	xmm0, DWORD PTR __y2$[esp-4]
	movss	DWORD PTR [eax+12], xmm0
	ret	8
?set@?$_rect@M@@QAEAAU1@MMMM@Z ENDP			; _rect<float>::set
_TEXT	ENDS
PUBLIC	?DrawRect@CConsole@@IAEXABU?$_rect@M@@I@Z	; CConsole::DrawRect
; Function compile flags: /Ogtpy
; File d:\clearsky\sources\engine\xrengine\xr_ioconsole.cpp
;	COMDAT ?DrawRect@CConsole@@IAEXABU?$_rect@M@@I@Z
_TEXT	SEGMENT
_r$ = 8							; size = 4
_color$ = 12						; size = 4
?DrawRect@CConsole@@IAEXABU?$_rect@M@@I@Z PROC		; CConsole::DrawRect, COMDAT
; _this$ = ecx

; 514  : 	UIRender->PushPoint( r.x1, r.y1, 0.0f, color, 0.0f, 0.0f );

	fldz
	mov	eax, DWORD PTR __imp_?UIRender@@3PAVIUIRender@@A
	mov	ecx, DWORD PTR [eax]
	mov	edx, DWORD PTR [ecx]
	mov	eax, DWORD PTR [edx+24]
	push	esi
	mov	esi, DWORD PTR _r$[esp]
	push	edi
	mov	edi, DWORD PTR _color$[esp+4]
	sub	esp, 8
	fst	DWORD PTR [esp+4]
	fst	DWORD PTR [esp]
	push	edi
	sub	esp, 12					; 0000000cH
	fstp	DWORD PTR [esp+8]
	fld	DWORD PTR [esi+4]
	fstp	DWORD PTR [esp+4]
	fld	DWORD PTR [esi]
	fstp	DWORD PTR [esp]
	call	eax

; 515  : 	UIRender->PushPoint( r.x2, r.y1, 0.0f, color, 1.0f, 0.0f );

	fldz
	mov	ecx, DWORD PTR __imp_?UIRender@@3PAVIUIRender@@A
	mov	ecx, DWORD PTR [ecx]
	mov	edx, DWORD PTR [ecx]
	mov	eax, DWORD PTR [edx+24]
	sub	esp, 8
	fst	DWORD PTR [esp+4]
	fld1
	fstp	DWORD PTR [esp]
	push	edi
	sub	esp, 12					; 0000000cH
	fstp	DWORD PTR [esp+8]
	fld	DWORD PTR [esi+4]
	fstp	DWORD PTR [esp+4]
	fld	DWORD PTR [esi+8]
	fstp	DWORD PTR [esp]
	call	eax

; 516  : 	UIRender->PushPoint( r.x2, r.y2, 0.0f, color, 1.0f, 1.0f );

	fld1
	mov	ecx, DWORD PTR __imp_?UIRender@@3PAVIUIRender@@A
	mov	ecx, DWORD PTR [ecx]
	mov	edx, DWORD PTR [ecx]
	mov	eax, DWORD PTR [edx+24]
	sub	esp, 8
	fst	DWORD PTR [esp+4]
	fstp	DWORD PTR [esp]
	push	edi
	fldz
	sub	esp, 12					; 0000000cH
	fstp	DWORD PTR [esp+8]
	fld	DWORD PTR [esi+12]
	fstp	DWORD PTR [esp+4]
	fld	DWORD PTR [esi+8]
	fstp	DWORD PTR [esp]
	call	eax

; 517  : 
; 518  : 	UIRender->PushPoint( r.x1, r.y1, 0.0f, color, 0.0f, 0.0f );

	fldz
	mov	ecx, DWORD PTR __imp_?UIRender@@3PAVIUIRender@@A
	mov	ecx, DWORD PTR [ecx]
	mov	edx, DWORD PTR [ecx]
	mov	eax, DWORD PTR [edx+24]
	sub	esp, 8
	fst	DWORD PTR [esp+4]
	fst	DWORD PTR [esp]
	push	edi
	sub	esp, 12					; 0000000cH
	fstp	DWORD PTR [esp+8]
	fld	DWORD PTR [esi+4]
	fstp	DWORD PTR [esp+4]
	fld	DWORD PTR [esi]
	fstp	DWORD PTR [esp]
	call	eax

; 519  : 	UIRender->PushPoint( r.x2, r.y2, 0.0f, color, 1.0f, 1.0f );

	fld1
	mov	ecx, DWORD PTR __imp_?UIRender@@3PAVIUIRender@@A
	mov	ecx, DWORD PTR [ecx]
	mov	edx, DWORD PTR [ecx]
	sub	esp, 8
	fst	DWORD PTR [esp+4]
	fstp	DWORD PTR [esp]
	push	edi
	fldz
	sub	esp, 12					; 0000000cH
	fstp	DWORD PTR [esp+8]
	fld	DWORD PTR [esi+12]
	mov	eax, DWORD PTR [edx+24]
	fstp	DWORD PTR [esp+4]
	fld	DWORD PTR [esi+8]
	fstp	DWORD PTR [esp]
	call	eax

; 520  : 	UIRender->PushPoint( r.x1, r.y2, 0.0f, color, 0.0f, 1.0f );

	fld1
	mov	ecx, DWORD PTR __imp_?UIRender@@3PAVIUIRender@@A
	mov	ecx, DWORD PTR [ecx]
	mov	edx, DWORD PTR [ecx]
	mov	eax, DWORD PTR [edx+24]
	sub	esp, 8
	fstp	DWORD PTR [esp+4]
	fldz
	fst	DWORD PTR [esp]
	push	edi
	sub	esp, 12					; 0000000cH
	fstp	DWORD PTR [esp+8]
	fld	DWORD PTR [esi+12]
	fstp	DWORD PTR [esp+4]
	fld	DWORD PTR [esi]
	fstp	DWORD PTR [esp]
	call	eax
	pop	edi
	pop	esi

; 521  : }

	ret	8
?DrawRect@CConsole@@IAEXABU?$_rect@M@@I@Z ENDP		; CConsole::DrawRect
_TEXT	ENDS
PUBLIC	?is_mark@CConsole@@IAE_NW4Console_mark@1@@Z	; CConsole::is_mark
; Function compile flags: /Ogtpy
;	COMDAT ?is_mark@CConsole@@IAE_NW4Console_mark@1@@Z
_TEXT	SEGMENT
_type$ = 8						; size = 4
?is_mark@CConsole@@IAE_NW4Console_mark@1@@Z PROC	; CConsole::is_mark, COMDAT
; _this$ = ecx

; 79   : 	switch ( type )

	mov	eax, DWORD PTR _type$[esp-4]
	add	eax, -33				; ffffffdfH
	cmp	eax, 93					; 0000005dH
	ja	SHORT $LN2@is_mark
	movzx	eax, BYTE PTR $LN6@is_mark[eax]
	jmp	DWORD PTR $LN7@is_mark[eax*4]
$LN1@is_mark:

; 80   : 	{
; 81   : 	case mark0:  case mark1:  case mark2:  case mark3:
; 82   : 	case mark4:  case mark5:  case mark6:  case mark7:
; 83   : 	case mark8:  case mark9:  case mark10: case mark11:	case mark12:
; 84   : 		return true;

	mov	al, 1

; 88   : }

	ret	4
$LN2@is_mark:

; 85   : 		break;
; 86   : 	}
; 87   : 	return false;

	xor	al, al

; 88   : }

	ret	4
$LN7@is_mark:
	DD	$LN1@is_mark
	DD	$LN2@is_mark
$LN6@is_mark:
	DB	0
	DB	1
	DB	0
	DB	0
	DB	0
	DB	0
	DB	1
	DB	1
	DB	1
	DB	0
	DB	0
	DB	1
	DB	0
	DB	1
	DB	0
	DB	1
	DB	1
	DB	1
	DB	1
	DB	1
	DB	1
	DB	1
	DB	1
	DB	1
	DB	1
	DB	1
	DB	1
	DB	1
	DB	0
	DB	1
	DB	1
	DB	0
	DB	1
	DB	1
	DB	1
	DB	1
	DB	1
	DB	1
	DB	1
	DB	1
	DB	1
	DB	1
	DB	1
	DB	1
	DB	1
	DB	1
	DB	1
	DB	1
	DB	1
	DB	1
	DB	1
	DB	1
	DB	1
	DB	1
	DB	1
	DB	1
	DB	1
	DB	1
	DB	1
	DB	1
	DB	1
	DB	0
	DB	1
	DB	1
	DB	1
	DB	1
	DB	1
	DB	1
	DB	1
	DB	1
	DB	1
	DB	1
	DB	1
	DB	1
	DB	1
	DB	1
	DB	1
	DB	1
	DB	1
	DB	1
	DB	1
	DB	1
	DB	1
	DB	1
	DB	1
	DB	1
	DB	1
	DB	1
	DB	1
	DB	1
	DB	1
	DB	1
	DB	1
	DB	0
?is_mark@CConsole@@IAE_NW4Console_mark@1@@Z ENDP	; CConsole::is_mark
; Function compile flags: /Ogtpy
; File d:\clearsky\sources\engine\xrengine\line_editor.h
_TEXT	ENDS
;	COMDAT ?control@line_editor@text_editor@@QAEAAVline_edit_control@2@XZ
_TEXT	SEGMENT
?control@line_editor@text_editor@@QAEAAVline_edit_control@2@XZ PROC ; text_editor::line_editor::control, COMDAT
; _this$ = eax

; 23   : 	IC line_edit_control&	control	()				{ return m_control; }

	add	eax, 4
	ret	0
?control@line_editor@text_editor@@QAEAAVline_edit_control@2@XZ ENDP ; text_editor::line_editor::control
; Function compile flags: /Ogtpy
; File d:\clearsky\sources\engine\xrcore\string_concatenations_inline.h
;	COMDAT ?length@?$helper@$00@string_tupples@detail@core@xray@@SAIPBD@Z
_TEXT	SEGMENT
?length@?$helper@$00@string_tupples@detail@core@xray@@SAIPBD@Z PROC ; xray::core::detail::string_tupples::helper<1>::length, COMDAT

; 115  : 			return		(string ? (unsigned int)xr_strlen(string) : 0);

	mov	eax, OFFSET ??_C@_01CLKCMJKC@?5?$AA@
	lea	edx, DWORD PTR [eax+1]
$LL7@length@3:
	mov	cl, BYTE PTR [eax]
	add	eax, 1
	test	cl, cl
	jne	SHORT $LL7@length@3
	sub	eax, edx

; 116  : 		}

	ret	0
?length@?$helper@$00@string_tupples@detail@core@xray@@SAIPBD@Z ENDP ; xray::core::detail::string_tupples::helper<1>::length
; Function compile flags: /Ogtpy
_TEXT	ENDS
;	COMDAT ?length@?$helper@$0A@@string_tupples@detail@core@xray@@SAIPBD@Z
_TEXT	SEGMENT
?length@?$helper@$0A@@string_tupples@detail@core@xray@@SAIPBD@Z PROC ; xray::core::detail::string_tupples::helper<0>::length, COMDAT
; _string$ = eax

; 115  : 			return		(string ? (unsigned int)xr_strlen(string) : 0);

	test	eax, eax
	je	SHORT $LN3@length@4
	lea	edx, DWORD PTR [eax+1]
$LL7@length@4:
	mov	cl, BYTE PTR [eax]
	add	eax, 1
	test	cl, cl
	jne	SHORT $LL7@length@4
	sub	eax, edx

; 116  : 		}

	ret	0
$LN3@length@4:

; 115  : 			return		(string ? (unsigned int)xr_strlen(string) : 0);

	xor	eax, eax

; 116  : 		}

	ret	0
?length@?$helper@$0A@@string_tupples@detail@core@xray@@SAIPBD@Z ENDP ; xray::core::detail::string_tupples::helper<0>::length
; Function compile flags: /Ogtpy
; File d:\clearsky\sources\sdk\include\stlport\stl\_tree.h
_TEXT	ENDS
;	COMDAT ??F?$_Rb_tree_iterator@U?$pair@QBDPAVIConsole_Command@@@stlp_std@@U?$_MapTraitsT@U?$pair@QBDPAVIConsole_Command@@@stlp_std@@@priv@2@@priv@stlp_std@@QAEAAU012@XZ
_TEXT	SEGMENT
??F?$_Rb_tree_iterator@U?$pair@QBDPAVIConsole_Command@@@stlp_std@@U?$_MapTraitsT@U?$pair@QBDPAVIConsole_Command@@@stlp_std@@@priv@2@@priv@stlp_std@@QAEAAU012@XZ PROC ; stlp_std::priv::_Rb_tree_iterator<stlp_std::pair<char const * const,IConsole_Command *>,stlp_std::priv::_MapTraitsT<stlp_std::pair<char const * const,IConsole_Command *> > >::operator--, COMDAT
; _this$ = esi

; 187  :     _M_node = _Rb_global_inst::_M_decrement(_M_node);

	mov	eax, DWORD PTR [esi]
	push	eax
	call	?_M_decrement@?$_Rb_global@_N@priv@stlp_std@@SAPAU_Rb_tree_node_base@23@PAU423@@Z ; stlp_std::priv::_Rb_global<bool>::_M_decrement
	mov	DWORD PTR [esi], eax
	add	esp, 4

; 188  :     return *this;

	mov	eax, esi

; 189  :   }

	ret	0
??F?$_Rb_tree_iterator@U?$pair@QBDPAVIConsole_Command@@@stlp_std@@U?$_MapTraitsT@U?$pair@QBDPAVIConsole_Command@@@stlp_std@@@priv@2@@priv@stlp_std@@QAEAAU012@XZ ENDP ; stlp_std::priv::_Rb_tree_iterator<stlp_std::pair<char const * const,IConsole_Command *>,stlp_std::priv::_MapTraitsT<stlp_std::pair<char const * const,IConsole_Command *> > >::operator--
; Function compile flags: /Ogtpy
_TEXT	ENDS
;	COMDAT ?_S_key@?$_Rb_tree@PBDUstr_pred@CConsole@@U?$pair@QBDPAVIConsole_Command@@@stlp_std@@U?$_Select1st@U?$pair@QBDPAVIConsole_Command@@@stlp_std@@@priv@4@U?$_MapTraitsT@U?$pair@QBDPAVIConsole_Command@@@stlp_std@@@64@V?$xalloc@U?$pair@PBDPAVIConsole_Command@@@stlp_std@@@@@priv@stlp_std@@KAABQBDPAU_Rb_tree_node_base@23@@Z
_TEXT	SEGMENT
?_S_key@?$_Rb_tree@PBDUstr_pred@CConsole@@U?$pair@QBDPAVIConsole_Command@@@stlp_std@@U?$_Select1st@U?$pair@QBDPAVIConsole_Command@@@stlp_std@@@priv@4@U?$_MapTraitsT@U?$pair@QBDPAVIConsole_Command@@@stlp_std@@@64@V?$xalloc@U?$pair@PBDPAVIConsole_Command@@@stlp_std@@@@@priv@stlp_std@@KAABQBDPAU_Rb_tree_node_base@23@@Z PROC ; stlp_std::priv::_Rb_tree<char const *,CConsole::str_pred,stlp_std::pair<char const * const,IConsole_Command *>,stlp_std::priv::_Select1st<stlp_std::pair<char const * const,IConsole_Command *> >,stlp_std::priv::_MapTraitsT<stlp_std::pair<char const * const,IConsole_Command *> >,xalloc<stlp_std::pair<char const *,IConsole_Command *> > >::_S_key, COMDAT
; ___x$ = eax

; 354  :   { return _KeyOfValue()(_S_value(__x));}

	push	eax
	call	?_S_value@?$_Rb_tree@PBDUstr_pred@CConsole@@U?$pair@QBDPAVIConsole_Command@@@stlp_std@@U?$_Select1st@U?$pair@QBDPAVIConsole_Command@@@stlp_std@@@priv@4@U?$_MapTraitsT@U?$pair@QBDPAVIConsole_Command@@@stlp_std@@@64@V?$xalloc@U?$pair@PBDPAVIConsole_Command@@@stlp_std@@@@@priv@stlp_std@@KAAAU?$pair@QBDPAVIConsole_Command@@@3@PAU_Rb_tree_node_base@23@@Z ; stlp_std::priv::_Rb_tree<char const *,CConsole::str_pred,stlp_std::pair<char const * const,IConsole_Command *>,stlp_std::priv::_Select1st<stlp_std::pair<char const * const,IConsole_Command *> >,stlp_std::priv::_MapTraitsT<stlp_std::pair<char const * const,IConsole_Command *> >,xalloc<stlp_std::pair<char const *,IConsole_Command *> > >::_S_value
	add	esp, 4
	ret	0
?_S_key@?$_Rb_tree@PBDUstr_pred@CConsole@@U?$pair@QBDPAVIConsole_Command@@@stlp_std@@U?$_Select1st@U?$pair@QBDPAVIConsole_Command@@@stlp_std@@@priv@4@U?$_MapTraitsT@U?$pair@QBDPAVIConsole_Command@@@stlp_std@@@64@V?$xalloc@U?$pair@PBDPAVIConsole_Command@@@stlp_std@@@@@priv@stlp_std@@KAABQBDPAU_Rb_tree_node_base@23@@Z ENDP ; stlp_std::priv::_Rb_tree<char const *,CConsole::str_pred,stlp_std::pair<char const * const,IConsole_Command *>,stlp_std::priv::_Select1st<stlp_std::pair<char const * const,IConsole_Command *> >,stlp_std::priv::_MapTraitsT<stlp_std::pair<char const * const,IConsole_Command *> >,xalloc<stlp_std::pair<char const *,IConsole_Command *> > >::_S_key
; Function compile flags: /Ogtpy
; File d:\clearsky\sources\engine\xrcore\string_concatenations_inline.h
_TEXT	ENDS
;	COMDAT ??$add_string@PBD@?$helper@$00@string_tupples@detail@core@xray@@SAXAAV1234@PBD@Z
_TEXT	SEGMENT
??$add_string@PBD@?$helper@$00@string_tupples@detail@core@xray@@SAXAAV1234@PBD@Z PROC ; xray::core::detail::string_tupples::helper<1>::add_string<char const *>, COMDAT
; _self$ = edx

; 145  : 		{
; 146  : 			STATIC_CHECK			(index < max_item_count, Error_invalid_string_index_specified);
; 147  : 
; 148  : 			LPCSTR cstr				= string(p);
; 149  : 			VERIFY					(cstr);
; 150  : 			self.m_strings[index]	= std::make_pair(cstr, length(p));

	mov	eax, OFFSET ??_C@_01CLKCMJKC@?5?$AA@
	push	esi
	lea	esi, DWORD PTR [eax+1]
	npad	7
$LL18@add_string@2:
	mov	cl, BYTE PTR [eax]
	add	eax, 1
	test	cl, cl
	jne	SHORT $LL18@add_string@2
	sub	eax, esi
	mov	ecx, OFFSET ??_C@_01CLKCMJKC@?5?$AA@
	mov	DWORD PTR [edx+8], ecx
	mov	DWORD PTR [edx+12], eax

; 151  : 		}

	pop	esi
	ret	0
??$add_string@PBD@?$helper@$00@string_tupples@detail@core@xray@@SAXAAV1234@PBD@Z ENDP ; xray::core::detail::string_tupples::helper<1>::add_string<char const *>
; Function compile flags: /Ogtpy
_TEXT	ENDS
;	COMDAT ??$add_string@PBD@?$helper@$0A@@string_tupples@detail@core@xray@@SAXAAV1234@PBD@Z
_TEXT	SEGMENT
??$add_string@PBD@?$helper@$0A@@string_tupples@detail@core@xray@@SAXAAV1234@PBD@Z PROC ; xray::core::detail::string_tupples::helper<0>::add_string<char const *>, COMDAT
; _self$ = edi
; _p$ = edx

; 145  : 		{
; 146  : 			STATIC_CHECK			(index < max_item_count, Error_invalid_string_index_specified);
; 147  : 
; 148  : 			LPCSTR cstr				= string(p);
; 149  : 			VERIFY					(cstr);
; 150  : 			self.m_strings[index]	= std::make_pair(cstr, length(p));

	test	edx, edx
	push	esi
	je	SHORT $LN10@add_string@3
	mov	eax, edx
	lea	esi, DWORD PTR [eax+1]
	npad	6
$LL18@add_string@3:
	mov	cl, BYTE PTR [eax]
	add	eax, 1
	test	cl, cl
	jne	SHORT $LL18@add_string@3
	sub	eax, esi
	mov	DWORD PTR [edi], edx
	mov	DWORD PTR [edi+4], eax

; 151  : 		}

	pop	esi
	ret	0

; 145  : 		{
; 146  : 			STATIC_CHECK			(index < max_item_count, Error_invalid_string_index_specified);
; 147  : 
; 148  : 			LPCSTR cstr				= string(p);
; 149  : 			VERIFY					(cstr);
; 150  : 			self.m_strings[index]	= std::make_pair(cstr, length(p));

$LN10@add_string@3:
	xor	eax, eax
	mov	DWORD PTR [edi], edx
	mov	DWORD PTR [edi+4], eax

; 151  : 		}

	pop	esi
	ret	0
??$add_string@PBD@?$helper@$0A@@string_tupples@detail@core@xray@@SAXAAV1234@PBD@Z ENDP ; xray::core::detail::string_tupples::helper<0>::add_string<char const *>
; Function compile flags: /Ogtpy
; File d:\clearsky\sources\sdk\include\stlport\stl\_vector.c
_TEXT	ENDS
;	COMDAT ?_M_throw_length_error@?$_Vector_base@UTipString@@V?$xalloc@UTipString@@@@@priv@stlp_std@@IBEXXZ
_TEXT	SEGMENT
?_M_throw_length_error@?$_Vector_base@UTipString@@V?$xalloc@UTipString@@@@@priv@stlp_std@@IBEXXZ PROC ; stlp_std::priv::_Vector_base<TipString,xalloc<TipString> >::_M_throw_length_error, COMDAT

; 41   :   __stl_throw_length_error("vector");

	push	OFFSET ??_C@_06NBFPPGEG@vector?$AA@
	call	DWORD PTR __imp__puts
	add	esp, 4
	jmp	DWORD PTR __imp__abort
?_M_throw_length_error@?$_Vector_base@UTipString@@V?$xalloc@UTipString@@@@@priv@stlp_std@@IBEXXZ ENDP ; stlp_std::priv::_Vector_base<TipString,xalloc<TipString> >::_M_throw_length_error
; Function compile flags: /Ogtpy
_TEXT	ENDS
;	COMDAT ??_G?$FactoryPtr@VIUIShader@@@@QAEPAXI@Z
_TEXT	SEGMENT
??_G?$FactoryPtr@VIUIShader@@@@QAEPAXI@Z PROC		; FactoryPtr<IUIShader>::`scalar deleting destructor', COMDAT
; _this$ = esi
	mov	eax, DWORD PTR __imp_?RenderFactory@@3PAVIRenderFactory@@A
	mov	ecx, DWORD PTR [eax]
	mov	edx, DWORD PTR [ecx]
	mov	eax, DWORD PTR [esi]
	mov	edx, DWORD PTR [edx+12]
	push	eax
	call	edx
	mov	DWORD PTR [esi], 0
	mov	eax, esi
	ret	0
??_G?$FactoryPtr@VIUIShader@@@@QAEPAXI@Z ENDP		; FactoryPtr<IUIShader>::`scalar deleting destructor'
; Function compile flags: /Ogtpy
; File d:\clearsky\sources\engine\xrcore\xrmemory_subst_msvc.h
_TEXT	ENDS
;	COMDAT ??R?$xr_special_free@$0A@V?$FactoryPtr@VIUIShader@@@@@@QAEXAAPAV?$FactoryPtr@VIUIShader@@@@@Z
_TEXT	SEGMENT
??R?$xr_special_free@$0A@V?$FactoryPtr@VIUIShader@@@@@@QAEXAAPAV?$FactoryPtr@VIUIShader@@@@@Z PROC ; xr_special_free<0,FactoryPtr<IUIShader> >::operator(), COMDAT
; _ptr$ = edi

; 143  : 		ptr->~T			();

	mov	eax, DWORD PTR __imp_?RenderFactory@@3PAVIRenderFactory@@A
	mov	ecx, DWORD PTR [eax]
	mov	edx, DWORD PTR [ecx]
	mov	edx, DWORD PTR [edx+12]
	push	esi
	mov	esi, DWORD PTR [edi]
	mov	eax, DWORD PTR [esi]
	push	eax
	call	edx
	mov	DWORD PTR [esi], 0

; 144  : 		Memory.mem_free	(ptr);

	mov	eax, DWORD PTR [edi]
	mov	ecx, DWORD PTR __imp_?Memory@@3VxrMemory@@A
	push	eax
	call	DWORD PTR __imp_?mem_free@xrMemory@@QAEXPAX@Z
	pop	esi

; 145  : 	}

	ret	0
??R?$xr_special_free@$0A@V?$FactoryPtr@VIUIShader@@@@@@QAEXAAPAV?$FactoryPtr@VIUIShader@@@@@Z ENDP ; xr_special_free<0,FactoryPtr<IUIShader> >::operator()
; Function compile flags: /Ogtpy
; File d:\clearsky\sources\engine\xrcore\string_concatenations_inline.h
_TEXT	ENDS
;	COMDAT ??$?0PBDPBD@string_tupples@detail@core@xray@@QAE@PBD0@Z
_TEXT	SEGMENT
??$?0PBDPBD@string_tupples@detail@core@xray@@QAE@PBD0@Z PROC ; xray::core::detail::string_tupples::string_tupples<char const *,char const *>, COMDAT
; _this$ = eax
; _p0$ = ecx

; 21   : 	{

	push	ebx
	xor	ebx, ebx
	push	esi
	mov	esi, ecx

; 22   : 		helper<0>::add_string	(*this, p0);

	cmp	esi, ebx
	mov	DWORD PTR [eax], ebx
	mov	DWORD PTR [eax+4], ebx
	mov	DWORD PTR [eax+8], ebx
	mov	DWORD PTR [eax+12], ebx
	mov	DWORD PTR [eax+16], ebx
	mov	DWORD PTR [eax+20], ebx
	mov	DWORD PTR [eax+24], ebx
	mov	DWORD PTR [eax+28], ebx
	mov	DWORD PTR [eax+32], ebx
	mov	DWORD PTR [eax+36], ebx
	mov	DWORD PTR [eax+40], ebx
	mov	DWORD PTR [eax+44], ebx
	push	edi
	mov	DWORD PTR [eax+48], 2
	je	SHORT $LN18@string_tup
	lea	edi, DWORD PTR [ecx+1]
$LL51@string_tup:
	mov	dl, BYTE PTR [ecx]
	add	ecx, 1
	cmp	dl, bl
	jne	SHORT $LL51@string_tup
	sub	ecx, edi
	jmp	SHORT $LN19@string_tup
$LN18@string_tup:
	xor	ecx, ecx
$LN19@string_tup:
	mov	DWORD PTR [eax+4], ecx

; 23   : 		helper<1>::add_string	(*this, p1);

	mov	ecx, OFFSET ??_C@_01CLKCMJKC@?5?$AA@
	mov	DWORD PTR [eax], esi
	lea	esi, DWORD PTR [ecx+1]
$LL52@string_tup:
	mov	dl, BYTE PTR [ecx]
	add	ecx, 1
	cmp	dl, bl
	jne	SHORT $LL52@string_tup

; 24   : 	}

	pop	edi
	sub	ecx, esi
	mov	edx, OFFSET ??_C@_01CLKCMJKC@?5?$AA@
	pop	esi
	mov	DWORD PTR [eax+8], edx
	mov	DWORD PTR [eax+12], ecx
	pop	ebx
	ret	0
??$?0PBDPBD@string_tupples@detail@core@xray@@QAE@PBD0@Z ENDP ; xray::core::detail::string_tupples::string_tupples<char const *,char const *>
; Function compile flags: /Ogtpy
; File d:\clearsky\sources\engine\xrcore\xrmemory_subst_msvc.h
_TEXT	ENDS
;	COMDAT ??$xr_new@V?$FactoryPtr@VIUIShader@@@@@@YAPAV?$FactoryPtr@VIUIShader@@@@XZ
_TEXT	SEGMENT
??$xr_new@V?$FactoryPtr@VIUIShader@@@@@@YAPAV?$FactoryPtr@VIUIShader@@@@XZ PROC ; xr_new<FactoryPtr<IUIShader> >, COMDAT

; 68   : 	T* ptr	= (T*)Memory.mem_alloc(sizeof(T));

	mov	ecx, DWORD PTR __imp_?Memory@@3VxrMemory@@A
	push	esi
	push	4
	call	DWORD PTR __imp_?mem_alloc@xrMemory@@QAEPAXI@Z

; 69   : 	return new (ptr) T();

	mov	esi, eax
	test	esi, esi
	je	SHORT $LN3@xr_new
	mov	eax, DWORD PTR __imp_?RenderFactory@@3PAVIRenderFactory@@A
	mov	ecx, DWORD PTR [eax]
	mov	edx, DWORD PTR [ecx]
	mov	eax, DWORD PTR [edx+8]
	call	eax
	mov	DWORD PTR [esi], eax
	mov	eax, esi
	pop	esi

; 70   : }

	ret	0
$LN3@xr_new:

; 69   : 	return new (ptr) T();

	xor	eax, eax
	pop	esi

; 70   : }

	ret	0
??$xr_new@V?$FactoryPtr@VIUIShader@@@@@@YAPAV?$FactoryPtr@VIUIShader@@@@XZ ENDP ; xr_new<FactoryPtr<IUIShader> >
; Function compile flags: /Ogtpy
_TEXT	ENDS
;	COMDAT ??$xr_delete@V?$FactoryPtr@VIUIShader@@@@@@YAXAAPAV?$FactoryPtr@VIUIShader@@@@@Z
_TEXT	SEGMENT
??$xr_delete@V?$FactoryPtr@VIUIShader@@@@@@YAXAAPAV?$FactoryPtr@VIUIShader@@@@@Z PROC ; xr_delete<FactoryPtr<IUIShader> >, COMDAT
; _ptr$ = edi

; 150  : {

	push	esi

; 151  : 	if (ptr) 

	mov	esi, DWORD PTR [edi]
	test	esi, esi
	je	SHORT $LN1@xr_delete@24

; 152  : 	{
; 153  : 		xr_special_free<is_polymorphic<T>::result,T>()(ptr);

	mov	eax, DWORD PTR __imp_?RenderFactory@@3PAVIRenderFactory@@A
	mov	ecx, DWORD PTR [eax]
	mov	edx, DWORD PTR [ecx]
	mov	eax, DWORD PTR [esi]
	mov	edx, DWORD PTR [edx+12]
	push	eax
	call	edx
	mov	DWORD PTR [esi], 0
	mov	eax, DWORD PTR [edi]
	mov	ecx, DWORD PTR __imp_?Memory@@3VxrMemory@@A
	push	eax
	call	DWORD PTR __imp_?mem_free@xrMemory@@QAEXPAX@Z

; 154  : 		ptr = NULL;

	mov	DWORD PTR [edi], 0
$LN1@xr_delete@24:
	pop	esi

; 155  : 	}
; 156  : }

	ret	0
??$xr_delete@V?$FactoryPtr@VIUIShader@@@@@@YAXAAPAV?$FactoryPtr@VIUIShader@@@@@Z ENDP ; xr_delete<FactoryPtr<IUIShader> >
; Function compile flags: /Ogtpy
; File d:\clearsky\sources\sdk\include\stlport\stl\_tree.h
_TEXT	ENDS
;	COMDAT ??0?$_Rb_tree_iterator@U?$pair@QBDPAVIConsole_Command@@@stlp_std@@U?$_MapTraitsT@U?$pair@QBDPAVIConsole_Command@@@stlp_std@@@priv@2@@priv@stlp_std@@QAE@PAU_Rb_tree_node_base@12@@Z
_TEXT	SEGMENT
??0?$_Rb_tree_iterator@U?$pair@QBDPAVIConsole_Command@@@stlp_std@@U?$_MapTraitsT@U?$pair@QBDPAVIConsole_Command@@@stlp_std@@@priv@2@@priv@stlp_std@@QAE@PAU_Rb_tree_node_base@12@@Z PROC ; stlp_std::priv::_Rb_tree_iterator<stlp_std::pair<char const * const,IConsole_Command *>,stlp_std::priv::_MapTraitsT<stlp_std::pair<char const * const,IConsole_Command *> > >::_Rb_tree_iterator<stlp_std::pair<char const * const,IConsole_Command *>,stlp_std::priv::_MapTraitsT<stlp_std::pair<char const * const,IConsole_Command *> > >, COMDAT
; _this$ = eax
; ___x$ = ecx

; 166  :   _Rb_tree_iterator(_Base_ptr __x) : _Rb_tree_base_iterator(__x) {}

	mov	DWORD PTR [eax], ecx
	ret	0
??0?$_Rb_tree_iterator@U?$pair@QBDPAVIConsole_Command@@@stlp_std@@U?$_MapTraitsT@U?$pair@QBDPAVIConsole_Command@@@stlp_std@@@priv@2@@priv@stlp_std@@QAE@PAU_Rb_tree_node_base@12@@Z ENDP ; stlp_std::priv::_Rb_tree_iterator<stlp_std::pair<char const * const,IConsole_Command *>,stlp_std::priv::_MapTraitsT<stlp_std::pair<char const * const,IConsole_Command *> > >::_Rb_tree_iterator<stlp_std::pair<char const * const,IConsole_Command *>,stlp_std::priv::_MapTraitsT<stlp_std::pair<char const * const,IConsole_Command *> > >
; Function compile flags: /Ogtpy
; File d:\clearsky\sources\sdk\include\stlport\stl\_vector.h
_TEXT	ENDS
;	COMDAT ?back@?$_Impl_vector@UTipString@@V?$xalloc@UTipString@@@@@priv@stlp_std@@QAEAAUTipString@@XZ
_TEXT	SEGMENT
?back@?$_Impl_vector@UTipString@@V?$xalloc@UTipString@@@@@priv@stlp_std@@QAEAAUTipString@@XZ PROC ; stlp_std::priv::_Impl_vector<TipString,xalloc<TipString> >::back, COMDAT
; _this$ = ecx

; 195  :   reference back()              { return *(end() - 1); }

	call	?end@?$_Impl_vector@UTipString@@V?$xalloc@UTipString@@@@@priv@stlp_std@@QAEPAUTipString@@XZ ; stlp_std::priv::_Impl_vector<TipString,xalloc<TipString> >::end
	sub	eax, 12					; 0000000cH
	ret	0
?back@?$_Impl_vector@UTipString@@V?$xalloc@UTipString@@@@@priv@stlp_std@@QAEAAUTipString@@XZ ENDP ; stlp_std::priv::_Impl_vector<TipString,xalloc<TipString> >::back
; Function compile flags: /Ogtpy
; File d:\clearsky\sources\sdk\include\stlport\stl\pointers\_vector.h
_TEXT	ENDS
;	COMDAT ?size@?$vector@UTipString@@V?$xalloc@UTipString@@@@@stlp_std@@QBEIXZ
_TEXT	SEGMENT
?size@?$vector@UTipString@@V?$xalloc@UTipString@@@@@stlp_std@@QBEIXZ PROC ; stlp_std::vector<TipString,xalloc<TipString> >::size, COMDAT
; _this$ = ecx

; 89   :   size_type size() const        { return _M_impl.size(); }

	jmp	?size@?$_Impl_vector@UTipString@@V?$xalloc@UTipString@@@@@priv@stlp_std@@QBEIXZ ; stlp_std::priv::_Impl_vector<TipString,xalloc<TipString> >::size
?size@?$vector@UTipString@@V?$xalloc@UTipString@@@@@stlp_std@@QBEIXZ ENDP ; stlp_std::vector<TipString,xalloc<TipString> >::size
; Function compile flags: /Ogtpy
; File d:\clearsky\sources\sdk\include\stlport\stl\_tree.h
_TEXT	ENDS
;	COMDAT ?end@?$_Rb_tree@PBDUstr_pred@CConsole@@U?$pair@QBDPAVIConsole_Command@@@stlp_std@@U?$_Select1st@U?$pair@QBDPAVIConsole_Command@@@stlp_std@@@priv@4@U?$_MapTraitsT@U?$pair@QBDPAVIConsole_Command@@@stlp_std@@@64@V?$xalloc@U?$pair@PBDPAVIConsole_Command@@@stlp_std@@@@@priv@stlp_std@@QAE?AU?$_Rb_tree_iterator@U?$pair@QBDPAVIConsole_Command@@@stlp_std@@U?$_MapTraitsT@U?$pair@QBDPAVIConsole_Command@@@stlp_std@@@priv@2@@23@XZ
_TEXT	SEGMENT
?end@?$_Rb_tree@PBDUstr_pred@CConsole@@U?$pair@QBDPAVIConsole_Command@@@stlp_std@@U?$_Select1st@U?$pair@QBDPAVIConsole_Command@@@stlp_std@@@priv@4@U?$_MapTraitsT@U?$pair@QBDPAVIConsole_Command@@@stlp_std@@@64@V?$xalloc@U?$pair@PBDPAVIConsole_Command@@@stlp_std@@@@@priv@stlp_std@@QAE?AU?$_Rb_tree_iterator@U?$pair@QBDPAVIConsole_Command@@@stlp_std@@U?$_MapTraitsT@U?$pair@QBDPAVIConsole_Command@@@stlp_std@@@priv@2@@23@XZ PROC ; stlp_std::priv::_Rb_tree<char const *,CConsole::str_pred,stlp_std::pair<char const * const,IConsole_Command *>,stlp_std::priv::_Select1st<stlp_std::pair<char const * const,IConsole_Command *> >,stlp_std::priv::_MapTraitsT<stlp_std::pair<char const * const,IConsole_Command *> >,xalloc<stlp_std::pair<char const *,IConsole_Command *> > >::end, COMDAT
; _this$ = ecx
; ___$ReturnUdt$ = eax

; 418  :   iterator end() { return iterator(&this->_M_header._M_data); }

	mov	DWORD PTR [eax], ecx
	ret	0
?end@?$_Rb_tree@PBDUstr_pred@CConsole@@U?$pair@QBDPAVIConsole_Command@@@stlp_std@@U?$_Select1st@U?$pair@QBDPAVIConsole_Command@@@stlp_std@@@priv@4@U?$_MapTraitsT@U?$pair@QBDPAVIConsole_Command@@@stlp_std@@@64@V?$xalloc@U?$pair@PBDPAVIConsole_Command@@@stlp_std@@@@@priv@stlp_std@@QAE?AU?$_Rb_tree_iterator@U?$pair@QBDPAVIConsole_Command@@@stlp_std@@U?$_MapTraitsT@U?$pair@QBDPAVIConsole_Command@@@stlp_std@@@priv@2@@23@XZ ENDP ; stlp_std::priv::_Rb_tree<char const *,CConsole::str_pred,stlp_std::pair<char const * const,IConsole_Command *>,stlp_std::priv::_Select1st<stlp_std::pair<char const * const,IConsole_Command *> >,stlp_std::priv::_MapTraitsT<stlp_std::pair<char const * const,IConsole_Command *> >,xalloc<stlp_std::pair<char const *,IConsole_Command *> > >::end
; Function compile flags: /Ogtpy
_TEXT	ENDS
;	COMDAT ?begin@?$_Rb_tree@PBDUstr_pred@CConsole@@U?$pair@QBDPAVIConsole_Command@@@stlp_std@@U?$_Select1st@U?$pair@QBDPAVIConsole_Command@@@stlp_std@@@priv@4@U?$_MapTraitsT@U?$pair@QBDPAVIConsole_Command@@@stlp_std@@@64@V?$xalloc@U?$pair@PBDPAVIConsole_Command@@@stlp_std@@@@@priv@stlp_std@@QAE?AU?$_Rb_tree_iterator@U?$pair@QBDPAVIConsole_Command@@@stlp_std@@U?$_MapTraitsT@U?$pair@QBDPAVIConsole_Command@@@stlp_std@@@priv@2@@23@XZ
_TEXT	SEGMENT
?begin@?$_Rb_tree@PBDUstr_pred@CConsole@@U?$pair@QBDPAVIConsole_Command@@@stlp_std@@U?$_Select1st@U?$pair@QBDPAVIConsole_Command@@@stlp_std@@@priv@4@U?$_MapTraitsT@U?$pair@QBDPAVIConsole_Command@@@stlp_std@@@64@V?$xalloc@U?$pair@PBDPAVIConsole_Command@@@stlp_std@@@@@priv@stlp_std@@QAE?AU?$_Rb_tree_iterator@U?$pair@QBDPAVIConsole_Command@@@stlp_std@@U?$_MapTraitsT@U?$pair@QBDPAVIConsole_Command@@@stlp_std@@@priv@2@@23@XZ PROC ; stlp_std::priv::_Rb_tree<char const *,CConsole::str_pred,stlp_std::pair<char const * const,IConsole_Command *>,stlp_std::priv::_Select1st<stlp_std::pair<char const * const,IConsole_Command *> >,stlp_std::priv::_MapTraitsT<stlp_std::pair<char const * const,IConsole_Command *> >,xalloc<stlp_std::pair<char const *,IConsole_Command *> > >::begin, COMDAT
; _this$ = ecx
; ___$ReturnUdt$ = esi

; 416  :   iterator begin() { return iterator(_M_leftmost()); }

	call	?_M_leftmost@?$_Rb_tree@PBDUstr_pred@CConsole@@U?$pair@QBDPAVIConsole_Command@@@stlp_std@@U?$_Select1st@U?$pair@QBDPAVIConsole_Command@@@stlp_std@@@priv@4@U?$_MapTraitsT@U?$pair@QBDPAVIConsole_Command@@@stlp_std@@@64@V?$xalloc@U?$pair@PBDPAVIConsole_Command@@@stlp_std@@@@@priv@stlp_std@@IAEAAPAU_Rb_tree_node_base@23@XZ ; stlp_std::priv::_Rb_tree<char const *,CConsole::str_pred,stlp_std::pair<char const * const,IConsole_Command *>,stlp_std::priv::_Select1st<stlp_std::pair<char const * const,IConsole_Command *> >,stlp_std::priv::_MapTraitsT<stlp_std::pair<char const * const,IConsole_Command *> >,xalloc<stlp_std::pair<char const *,IConsole_Command *> > >::_M_leftmost
	mov	eax, DWORD PTR [eax]
	mov	DWORD PTR [esi], eax
	mov	eax, esi
	ret	0
?begin@?$_Rb_tree@PBDUstr_pred@CConsole@@U?$pair@QBDPAVIConsole_Command@@@stlp_std@@U?$_Select1st@U?$pair@QBDPAVIConsole_Command@@@stlp_std@@@priv@4@U?$_MapTraitsT@U?$pair@QBDPAVIConsole_Command@@@stlp_std@@@64@V?$xalloc@U?$pair@PBDPAVIConsole_Command@@@stlp_std@@@@@priv@stlp_std@@QAE?AU?$_Rb_tree_iterator@U?$pair@QBDPAVIConsole_Command@@@stlp_std@@U?$_MapTraitsT@U?$pair@QBDPAVIConsole_Command@@@stlp_std@@@priv@2@@23@XZ ENDP ; stlp_std::priv::_Rb_tree<char const *,CConsole::str_pred,stlp_std::pair<char const * const,IConsole_Command *>,stlp_std::priv::_Select1st<stlp_std::pair<char const * const,IConsole_Command *> >,stlp_std::priv::_MapTraitsT<stlp_std::pair<char const * const,IConsole_Command *> >,xalloc<stlp_std::pair<char const *,IConsole_Command *> > >::begin
; Function compile flags: /Ogtpy
_TEXT	ENDS
;	COMDAT ??0?$_Rb_tree@PBDUstr_pred@CConsole@@U?$pair@QBDPAVIConsole_Command@@@stlp_std@@U?$_Select1st@U?$pair@QBDPAVIConsole_Command@@@stlp_std@@@priv@4@U?$_MapTraitsT@U?$pair@QBDPAVIConsole_Command@@@stlp_std@@@64@V?$xalloc@U?$pair@PBDPAVIConsole_Command@@@stlp_std@@@@@priv@stlp_std@@QAE@ABUstr_pred@CConsole@@ABV?$xalloc@U?$pair@QBDPAVIConsole_Command@@@stlp_std@@@@@Z
_TEXT	SEGMENT
??0?$_Rb_tree@PBDUstr_pred@CConsole@@U?$pair@QBDPAVIConsole_Command@@@stlp_std@@U?$_Select1st@U?$pair@QBDPAVIConsole_Command@@@stlp_std@@@priv@4@U?$_MapTraitsT@U?$pair@QBDPAVIConsole_Command@@@stlp_std@@@64@V?$xalloc@U?$pair@PBDPAVIConsole_Command@@@stlp_std@@@@@priv@stlp_std@@QAE@ABUstr_pred@CConsole@@ABV?$xalloc@U?$pair@QBDPAVIConsole_Command@@@stlp_std@@@@@Z PROC ; stlp_std::priv::_Rb_tree<char const *,CConsole::str_pred,stlp_std::pair<char const * const,IConsole_Command *>,stlp_std::priv::_Select1st<stlp_std::pair<char const * const,IConsole_Command *> >,stlp_std::priv::_MapTraitsT<stlp_std::pair<char const * const,IConsole_Command *> >,xalloc<stlp_std::pair<char const *,IConsole_Command *> > >::_Rb_tree<char const *,CConsole::str_pred,stlp_std::pair<char const * const,IConsole_Command *>,stlp_std::priv::_Select1st<stlp_std::pair<char const * const,IConsole_Command *> >,stlp_std::priv::_MapTraitsT<stlp_std::pair<char const * const,IConsole_Command *> >,xalloc<stlp_std::pair<char const *,IConsole_Command *> > >, COMDAT
; _this$ = esi
; ___a$ = eax

; 388  :     {}

	push	eax
	mov	ecx, esi
	call	??0?$_Rb_tree_base@U?$pair@QBDPAVIConsole_Command@@@stlp_std@@V?$xalloc@U?$pair@PBDPAVIConsole_Command@@@stlp_std@@@@@priv@stlp_std@@IAE@ABV?$xalloc@U?$pair@QBDPAVIConsole_Command@@@stlp_std@@@@@Z ; stlp_std::priv::_Rb_tree_base<stlp_std::pair<char const * const,IConsole_Command *>,xalloc<stlp_std::pair<char const *,IConsole_Command *> > >::_Rb_tree_base<stlp_std::pair<char const * const,IConsole_Command *>,xalloc<stlp_std::pair<char const *,IConsole_Command *> > >
	mov	DWORD PTR [esi+16], 0
	mov	eax, esi
	ret	0
??0?$_Rb_tree@PBDUstr_pred@CConsole@@U?$pair@QBDPAVIConsole_Command@@@stlp_std@@U?$_Select1st@U?$pair@QBDPAVIConsole_Command@@@stlp_std@@@priv@4@U?$_MapTraitsT@U?$pair@QBDPAVIConsole_Command@@@stlp_std@@@64@V?$xalloc@U?$pair@PBDPAVIConsole_Command@@@stlp_std@@@@@priv@stlp_std@@QAE@ABUstr_pred@CConsole@@ABV?$xalloc@U?$pair@QBDPAVIConsole_Command@@@stlp_std@@@@@Z ENDP ; stlp_std::priv::_Rb_tree<char const *,CConsole::str_pred,stlp_std::pair<char const * const,IConsole_Command *>,stlp_std::priv::_Select1st<stlp_std::pair<char const * const,IConsole_Command *> >,stlp_std::priv::_MapTraitsT<stlp_std::pair<char const * const,IConsole_Command *> >,xalloc<stlp_std::pair<char const *,IConsole_Command *> > >::_Rb_tree<char const *,CConsole::str_pred,stlp_std::pair<char const * const,IConsole_Command *>,stlp_std::priv::_Select1st<stlp_std::pair<char const * const,IConsole_Command *> >,stlp_std::priv::_MapTraitsT<stlp_std::pair<char const * const,IConsole_Command *> >,xalloc<stlp_std::pair<char const *,IConsole_Command *> > >
; Function compile flags: /Ogtpy
_TEXT	ENDS
;	COMDAT ??0?$_Rb_tree_iterator@U?$pair@QBDPAVIConsole_Command@@@stlp_std@@U?$_ConstMapTraitsT@U?$pair@QBDPAVIConsole_Command@@@stlp_std@@@priv@2@@priv@stlp_std@@QAE@ABU?$_Rb_tree_iterator@U?$pair@QBDPAVIConsole_Command@@@stlp_std@@U?$_MapTraitsT@U?$pair@QBDPAVIConsole_Command@@@stlp_std@@@priv@2@@12@@Z
_TEXT	SEGMENT
??0?$_Rb_tree_iterator@U?$pair@QBDPAVIConsole_Command@@@stlp_std@@U?$_ConstMapTraitsT@U?$pair@QBDPAVIConsole_Command@@@stlp_std@@@priv@2@@priv@stlp_std@@QAE@ABU?$_Rb_tree_iterator@U?$pair@QBDPAVIConsole_Command@@@stlp_std@@U?$_MapTraitsT@U?$pair@QBDPAVIConsole_Command@@@stlp_std@@@priv@2@@12@@Z PROC ; stlp_std::priv::_Rb_tree_iterator<stlp_std::pair<char const * const,IConsole_Command *>,stlp_std::priv::_ConstMapTraitsT<stlp_std::pair<char const * const,IConsole_Command *> > >::_Rb_tree_iterator<stlp_std::pair<char const * const,IConsole_Command *>,stlp_std::priv::_ConstMapTraitsT<stlp_std::pair<char const * const,IConsole_Command *> > >, COMDAT
; _this$ = eax
; ___it$ = ecx

; 168  :   _Rb_tree_iterator(const iterator& __it) : _Rb_tree_base_iterator(__it._M_node) {}

	mov	edx, DWORD PTR [ecx]
	mov	DWORD PTR [eax], edx
	ret	0
??0?$_Rb_tree_iterator@U?$pair@QBDPAVIConsole_Command@@@stlp_std@@U?$_ConstMapTraitsT@U?$pair@QBDPAVIConsole_Command@@@stlp_std@@@priv@2@@priv@stlp_std@@QAE@ABU?$_Rb_tree_iterator@U?$pair@QBDPAVIConsole_Command@@@stlp_std@@U?$_MapTraitsT@U?$pair@QBDPAVIConsole_Command@@@stlp_std@@@priv@2@@12@@Z ENDP ; stlp_std::priv::_Rb_tree_iterator<stlp_std::pair<char const * const,IConsole_Command *>,stlp_std::priv::_ConstMapTraitsT<stlp_std::pair<char const * const,IConsole_Command *> > >::_Rb_tree_iterator<stlp_std::pair<char const * const,IConsole_Command *>,stlp_std::priv::_ConstMapTraitsT<stlp_std::pair<char const * const,IConsole_Command *> > >
; Function compile flags: /Ogtpy
_TEXT	ENDS
;	COMDAT ??0?$_Rb_tree_iterator@U?$pair@QBDPAVIConsole_Command@@@stlp_std@@U?$_MapTraitsT@U?$pair@QBDPAVIConsole_Command@@@stlp_std@@@priv@2@@priv@stlp_std@@QAE@ABU012@@Z
_TEXT	SEGMENT
??0?$_Rb_tree_iterator@U?$pair@QBDPAVIConsole_Command@@@stlp_std@@U?$_MapTraitsT@U?$pair@QBDPAVIConsole_Command@@@stlp_std@@@priv@2@@priv@stlp_std@@QAE@ABU012@@Z PROC ; stlp_std::priv::_Rb_tree_iterator<stlp_std::pair<char const * const,IConsole_Command *>,stlp_std::priv::_MapTraitsT<stlp_std::pair<char const * const,IConsole_Command *> > >::_Rb_tree_iterator<stlp_std::pair<char const * const,IConsole_Command *>,stlp_std::priv::_MapTraitsT<stlp_std::pair<char const * const,IConsole_Command *> > >, COMDAT
; _this$ = eax
; ___it$ = ecx

; 168  :   _Rb_tree_iterator(const iterator& __it) : _Rb_tree_base_iterator(__it._M_node) {}

	mov	edx, DWORD PTR [ecx]
	mov	DWORD PTR [eax], edx
	ret	0
??0?$_Rb_tree_iterator@U?$pair@QBDPAVIConsole_Command@@@stlp_std@@U?$_MapTraitsT@U?$pair@QBDPAVIConsole_Command@@@stlp_std@@@priv@2@@priv@stlp_std@@QAE@ABU012@@Z ENDP ; stlp_std::priv::_Rb_tree_iterator<stlp_std::pair<char const * const,IConsole_Command *>,stlp_std::priv::_MapTraitsT<stlp_std::pair<char const * const,IConsole_Command *> > >::_Rb_tree_iterator<stlp_std::pair<char const * const,IConsole_Command *>,stlp_std::priv::_MapTraitsT<stlp_std::pair<char const * const,IConsole_Command *> > >
; Function compile flags: /Ogtpy
; File d:\clearsky\sources\sdk\include\stlport\stl\pointers\_vector.h
_TEXT	ENDS
;	COMDAT ?back@?$vector@UTipString@@V?$xalloc@UTipString@@@@@stlp_std@@QAEAAUTipString@@XZ
_TEXT	SEGMENT
?back@?$vector@UTipString@@V?$xalloc@UTipString@@@@@stlp_std@@QAEAAUTipString@@XZ PROC ; stlp_std::vector<TipString,xalloc<TipString> >::back, COMDAT
; _this$ = ecx

; 100  :   reference back()              { return cast_traits::to_value_type_ref(_M_impl.back()); }

	call	?end@?$_Impl_vector@UTipString@@V?$xalloc@UTipString@@@@@priv@stlp_std@@QAEPAUTipString@@XZ ; stlp_std::priv::_Impl_vector<TipString,xalloc<TipString> >::end
	sub	eax, 12					; 0000000cH
	ret	0
?back@?$vector@UTipString@@V?$xalloc@UTipString@@@@@stlp_std@@QAEAAUTipString@@XZ ENDP ; stlp_std::vector<TipString,xalloc<TipString> >::back
; Function compile flags: /Ogtpy
_TEXT	ENDS
;	COMDAT ?end@?$vector@UTipString@@V?$xalloc@UTipString@@@@@stlp_std@@QAEPAUTipString@@XZ
_TEXT	SEGMENT
?end@?$vector@UTipString@@V?$xalloc@UTipString@@@@@stlp_std@@QAEPAUTipString@@XZ PROC ; stlp_std::vector<TipString,xalloc<TipString> >::end, COMDAT
; _this$ = ecx

; 81   :   iterator end()               { return cast_traits::to_value_type_ptr(_M_impl.end()); }

	jmp	?end@?$_Impl_vector@UTipString@@V?$xalloc@UTipString@@@@@priv@stlp_std@@QAEPAUTipString@@XZ ; stlp_std::priv::_Impl_vector<TipString,xalloc<TipString> >::end
?end@?$vector@UTipString@@V?$xalloc@UTipString@@@@@stlp_std@@QAEPAUTipString@@XZ ENDP ; stlp_std::vector<TipString,xalloc<TipString> >::end
; Function compile flags: /Ogtpy
_TEXT	ENDS
;	COMDAT ?begin@?$vector@UTipString@@V?$xalloc@UTipString@@@@@stlp_std@@QAEPAUTipString@@XZ
_TEXT	SEGMENT
?begin@?$vector@UTipString@@V?$xalloc@UTipString@@@@@stlp_std@@QAEPAUTipString@@XZ PROC ; stlp_std::vector<TipString,xalloc<TipString> >::begin, COMDAT
; _this$ = ecx

; 79   :   iterator begin()             { return cast_traits::to_value_type_ptr(_M_impl.begin()); }

	jmp	?begin@?$_Impl_vector@UTipString@@V?$xalloc@UTipString@@@@@priv@stlp_std@@QAEPAUTipString@@XZ ; stlp_std::priv::_Impl_vector<TipString,xalloc<TipString> >::begin
?begin@?$vector@UTipString@@V?$xalloc@UTipString@@@@@stlp_std@@QAEPAUTipString@@XZ ENDP ; stlp_std::vector<TipString,xalloc<TipString> >::begin
; Function compile flags: /Ogtpy
; File d:\clearsky\sources\engine\xrcore\_stl_extensions.h
_TEXT	ENDS
;	COMDAT ?size@?$xr_vector@UTipString@@V?$xalloc@UTipString@@@@@@QBEIXZ
_TEXT	SEGMENT
?size@?$xr_vector@UTipString@@V?$xalloc@UTipString@@@@@@QBEIXZ PROC ; xr_vector<TipString,xalloc<TipString> >::size, COMDAT
; _this$ = ecx

; 126  : 	u32		size				() const							{ return (u32)inherited::size();} 

	jmp	?size@?$_Impl_vector@UTipString@@V?$xalloc@UTipString@@@@@priv@stlp_std@@QBEIXZ ; stlp_std::priv::_Impl_vector<TipString,xalloc<TipString> >::size
?size@?$xr_vector@UTipString@@V?$xalloc@UTipString@@@@@@QBEIXZ ENDP ; xr_vector<TipString,xalloc<TipString> >::size
; Function compile flags: /Ogtpy
; File d:\clearsky\sources\sdk\include\stlport\stl\_map.h
_TEXT	ENDS
;	COMDAT ?clear@?$map@PBDPAVIConsole_Command@@Ustr_pred@CConsole@@V?$xalloc@U?$pair@PBDPAVIConsole_Command@@@stlp_std@@@@@stlp_std@@QAEXXZ
_TEXT	SEGMENT
?clear@?$map@PBDPAVIConsole_Command@@Ustr_pred@CConsole@@V?$xalloc@U?$pair@PBDPAVIConsole_Command@@@stlp_std@@@@@stlp_std@@QAEXXZ PROC ; stlp_std::map<char const *,IConsole_Command *,CConsole::str_pred,xalloc<stlp_std::pair<char const *,IConsole_Command *> > >::clear, COMDAT
; _this$ = ecx

; 201  :   void clear() { _M_t.clear(); }

	jmp	?clear@?$_Rb_tree@PBDUstr_pred@CConsole@@U?$pair@QBDPAVIConsole_Command@@@stlp_std@@U?$_Select1st@U?$pair@QBDPAVIConsole_Command@@@stlp_std@@@priv@4@U?$_MapTraitsT@U?$pair@QBDPAVIConsole_Command@@@stlp_std@@@64@V?$xalloc@U?$pair@PBDPAVIConsole_Command@@@stlp_std@@@@@priv@stlp_std@@QAEXXZ ; stlp_std::priv::_Rb_tree<char const *,CConsole::str_pred,stlp_std::pair<char const * const,IConsole_Command *>,stlp_std::priv::_Select1st<stlp_std::pair<char const * const,IConsole_Command *> >,stlp_std::priv::_MapTraitsT<stlp_std::pair<char const * const,IConsole_Command *> >,xalloc<stlp_std::pair<char const *,IConsole_Command *> > >::clear
?clear@?$map@PBDPAVIConsole_Command@@Ustr_pred@CConsole@@V?$xalloc@U?$pair@PBDPAVIConsole_Command@@@stlp_std@@@@@stlp_std@@QAEXXZ ENDP ; stlp_std::map<char const *,IConsole_Command *,CConsole::str_pred,xalloc<stlp_std::pair<char const *,IConsole_Command *> > >::clear
; Function compile flags: /Ogtpy
_TEXT	ENDS
;	COMDAT ?end@?$map@PBDPAVIConsole_Command@@Ustr_pred@CConsole@@V?$xalloc@U?$pair@PBDPAVIConsole_Command@@@stlp_std@@@@@stlp_std@@QAE?AU?$_Rb_tree_iterator@U?$pair@QBDPAVIConsole_Command@@@stlp_std@@U?$_MapTraitsT@U?$pair@QBDPAVIConsole_Command@@@stlp_std@@@priv@2@@priv@2@XZ
_TEXT	SEGMENT
?end@?$map@PBDPAVIConsole_Command@@Ustr_pred@CConsole@@V?$xalloc@U?$pair@PBDPAVIConsole_Command@@@stlp_std@@@@@stlp_std@@QAE?AU?$_Rb_tree_iterator@U?$pair@QBDPAVIConsole_Command@@@stlp_std@@U?$_MapTraitsT@U?$pair@QBDPAVIConsole_Command@@@stlp_std@@@priv@2@@priv@2@XZ PROC ; stlp_std::map<char const *,IConsole_Command *,CConsole::str_pred,xalloc<stlp_std::pair<char const *,IConsole_Command *> > >::end, COMDAT
; _this$ = ecx
; ___$ReturnUdt$ = eax

; 163  :   iterator end() { return _M_t.end(); }

	mov	DWORD PTR [eax], ecx
	ret	0
?end@?$map@PBDPAVIConsole_Command@@Ustr_pred@CConsole@@V?$xalloc@U?$pair@PBDPAVIConsole_Command@@@stlp_std@@@@@stlp_std@@QAE?AU?$_Rb_tree_iterator@U?$pair@QBDPAVIConsole_Command@@@stlp_std@@U?$_MapTraitsT@U?$pair@QBDPAVIConsole_Command@@@stlp_std@@@priv@2@@priv@2@XZ ENDP ; stlp_std::map<char const *,IConsole_Command *,CConsole::str_pred,xalloc<stlp_std::pair<char const *,IConsole_Command *> > >::end
; Function compile flags: /Ogtpy
_TEXT	ENDS
;	COMDAT ?begin@?$map@PBDPAVIConsole_Command@@Ustr_pred@CConsole@@V?$xalloc@U?$pair@PBDPAVIConsole_Command@@@stlp_std@@@@@stlp_std@@QAE?AU?$_Rb_tree_iterator@U?$pair@QBDPAVIConsole_Command@@@stlp_std@@U?$_MapTraitsT@U?$pair@QBDPAVIConsole_Command@@@stlp_std@@@priv@2@@priv@2@XZ
_TEXT	SEGMENT
?begin@?$map@PBDPAVIConsole_Command@@Ustr_pred@CConsole@@V?$xalloc@U?$pair@PBDPAVIConsole_Command@@@stlp_std@@@@@stlp_std@@QAE?AU?$_Rb_tree_iterator@U?$pair@QBDPAVIConsole_Command@@@stlp_std@@U?$_MapTraitsT@U?$pair@QBDPAVIConsole_Command@@@stlp_std@@@priv@2@@priv@2@XZ PROC ; stlp_std::map<char const *,IConsole_Command *,CConsole::str_pred,xalloc<stlp_std::pair<char const *,IConsole_Command *> > >::begin, COMDAT
; _this$ = ecx
; ___$ReturnUdt$ = esi

; 161  :   iterator begin() { return _M_t.begin(); }

	call	?_M_leftmost@?$_Rb_tree@PBDUstr_pred@CConsole@@U?$pair@QBDPAVIConsole_Command@@@stlp_std@@U?$_Select1st@U?$pair@QBDPAVIConsole_Command@@@stlp_std@@@priv@4@U?$_MapTraitsT@U?$pair@QBDPAVIConsole_Command@@@stlp_std@@@64@V?$xalloc@U?$pair@PBDPAVIConsole_Command@@@stlp_std@@@@@priv@stlp_std@@IAEAAPAU_Rb_tree_node_base@23@XZ ; stlp_std::priv::_Rb_tree<char const *,CConsole::str_pred,stlp_std::pair<char const * const,IConsole_Command *>,stlp_std::priv::_Select1st<stlp_std::pair<char const * const,IConsole_Command *> >,stlp_std::priv::_MapTraitsT<stlp_std::pair<char const * const,IConsole_Command *> >,xalloc<stlp_std::pair<char const *,IConsole_Command *> > >::_M_leftmost
	mov	eax, DWORD PTR [eax]
	mov	DWORD PTR [esi], eax
	mov	eax, esi
	ret	0
?begin@?$map@PBDPAVIConsole_Command@@Ustr_pred@CConsole@@V?$xalloc@U?$pair@PBDPAVIConsole_Command@@@stlp_std@@@@@stlp_std@@QAE?AU?$_Rb_tree_iterator@U?$pair@QBDPAVIConsole_Command@@@stlp_std@@U?$_MapTraitsT@U?$pair@QBDPAVIConsole_Command@@@stlp_std@@@priv@2@@priv@2@XZ ENDP ; stlp_std::map<char const *,IConsole_Command *,CConsole::str_pred,xalloc<stlp_std::pair<char const *,IConsole_Command *> > >::begin
; Function compile flags: /Ogtpy
_TEXT	ENDS
;	COMDAT ??0?$map@PBDPAVIConsole_Command@@Ustr_pred@CConsole@@V?$xalloc@U?$pair@PBDPAVIConsole_Command@@@stlp_std@@@@@stlp_std@@QAE@XZ
_TEXT	SEGMENT
$T239204 = -1						; size = 1
??0?$map@PBDPAVIConsole_Command@@Ustr_pred@CConsole@@V?$xalloc@U?$pair@PBDPAVIConsole_Command@@@stlp_std@@@@@stlp_std@@QAE@XZ PROC ; stlp_std::map<char const *,IConsole_Command *,CConsole::str_pred,xalloc<stlp_std::pair<char const *,IConsole_Command *> > >::map<char const *,IConsole_Command *,CConsole::str_pred,xalloc<stlp_std::pair<char const *,IConsole_Command *> > >, COMDAT
; _this$ = esi

; 99   :   map() : _M_t(_Compare(), allocator_type()) {}

	push	ecx
	lea	eax, DWORD PTR $T239204[esp+4]
	push	eax
	mov	ecx, esi
	call	??0?$_Rb_tree_base@U?$pair@QBDPAVIConsole_Command@@@stlp_std@@V?$xalloc@U?$pair@PBDPAVIConsole_Command@@@stlp_std@@@@@priv@stlp_std@@IAE@ABV?$xalloc@U?$pair@QBDPAVIConsole_Command@@@stlp_std@@@@@Z ; stlp_std::priv::_Rb_tree_base<stlp_std::pair<char const * const,IConsole_Command *>,xalloc<stlp_std::pair<char const *,IConsole_Command *> > >::_Rb_tree_base<stlp_std::pair<char const * const,IConsole_Command *>,xalloc<stlp_std::pair<char const *,IConsole_Command *> > >
	mov	DWORD PTR [esi+16], 0
	mov	eax, esi
	pop	ecx
	ret	0
??0?$map@PBDPAVIConsole_Command@@Ustr_pred@CConsole@@V?$xalloc@U?$pair@PBDPAVIConsole_Command@@@stlp_std@@@@@stlp_std@@QAE@XZ ENDP ; stlp_std::map<char const *,IConsole_Command *,CConsole::str_pred,xalloc<stlp_std::pair<char const *,IConsole_Command *> > >::map<char const *,IConsole_Command *,CConsole::str_pred,xalloc<stlp_std::pair<char const *,IConsole_Command *> > >
; Function compile flags: /Ogtpy
; File d:\clearsky\sources\sdk\include\stlport\stl\_iterator.h
_TEXT	ENDS
;	COMDAT ??H?$reverse_iterator@PAVshared_str@@@stlp_std@@QBE?AV01@H@Z
_TEXT	SEGMENT
_this$ = 8						; size = 4
??H?$reverse_iterator@PAVshared_str@@@stlp_std@@QBE?AV01@H@Z PROC ; stlp_std::reverse_iterator<shared_str *>::operator+, COMDAT
; ___$ReturnUdt$ = eax
; ___n$ = ecx

; 100  :   _Self operator+(difference_type __n) const { return _Self(current - __n); }

	lea	edx, DWORD PTR [ecx*4]
	mov	ecx, DWORD PTR _this$[esp-4]
	mov	ecx, DWORD PTR [ecx]
	sub	ecx, edx
	mov	DWORD PTR [eax], ecx
	ret	4
??H?$reverse_iterator@PAVshared_str@@@stlp_std@@QBE?AV01@H@Z ENDP ; stlp_std::reverse_iterator<shared_str *>::operator+
; Function compile flags: /Ogtpy
_TEXT	ENDS
;	COMDAT ??0?$xr_map@PBDPAVIConsole_Command@@Ustr_pred@CConsole@@V?$xalloc@U?$pair@PBDPAVIConsole_Command@@@stlp_std@@@@@@QAE@XZ
_TEXT	SEGMENT
$T239232 = -1						; size = 1
??0?$xr_map@PBDPAVIConsole_Command@@Ustr_pred@CConsole@@V?$xalloc@U?$pair@PBDPAVIConsole_Command@@@stlp_std@@@@@@QAE@XZ PROC ; xr_map<char const *,IConsole_Command *,CConsole::str_pred,xalloc<stlp_std::pair<char const *,IConsole_Command *> > >::xr_map<char const *,IConsole_Command *,CConsole::str_pred,xalloc<stlp_std::pair<char const *,IConsole_Command *> > >, COMDAT
; _this$ = esi
	push	ecx
	lea	eax, DWORD PTR $T239232[esp+4]
	push	eax
	mov	ecx, esi
	call	??0?$_Rb_tree_base@U?$pair@QBDPAVIConsole_Command@@@stlp_std@@V?$xalloc@U?$pair@PBDPAVIConsole_Command@@@stlp_std@@@@@priv@stlp_std@@IAE@ABV?$xalloc@U?$pair@QBDPAVIConsole_Command@@@stlp_std@@@@@Z ; stlp_std::priv::_Rb_tree_base<stlp_std::pair<char const * const,IConsole_Command *>,xalloc<stlp_std::pair<char const *,IConsole_Command *> > >::_Rb_tree_base<stlp_std::pair<char const * const,IConsole_Command *>,xalloc<stlp_std::pair<char const *,IConsole_Command *> > >
	mov	DWORD PTR [esi+16], 0
	mov	eax, esi
	pop	ecx
	ret	0
??0?$xr_map@PBDPAVIConsole_Command@@Ustr_pred@CConsole@@V?$xalloc@U?$pair@PBDPAVIConsole_Command@@@stlp_std@@@@@@QAE@XZ ENDP ; xr_map<char const *,IConsole_Command *,CConsole::str_pred,xalloc<stlp_std::pair<char const *,IConsole_Command *> > >::xr_map<char const *,IConsole_Command *,CConsole::str_pred,xalloc<stlp_std::pair<char const *,IConsole_Command *> > >
_TEXT	ENDS
PUBLIC	?get_mark_color@CConsole@@IAEIW4Console_mark@1@@Z ; CConsole::get_mark_color
; Function compile flags: /Ogtpy
; File d:\clearsky\sources\engine\xrengine\xr_ioconsole.cpp
;	COMDAT ?get_mark_color@CConsole@@IAEIW4Console_mark@1@@Z
_TEXT	SEGMENT
_type$ = 8						; size = 4
?get_mark_color@CConsole@@IAEIW4Console_mark@1@@Z PROC	; CConsole::get_mark_color, COMDAT
; _this$ = ecx

; 55   : 	u32 color = default_font_color;
; 56   : 	switch ( type )

	mov	ecx, DWORD PTR _type$[esp-4]
	mov	eax, DWORD PTR _default_font_color
	add	ecx, -33				; ffffffdfH
	cmp	ecx, 93					; 0000005dH
	ja	SHORT $LN1@get_mark_c
	movzx	ecx, BYTE PTR $LN71@get_mark_c[ecx]
	jmp	DWORD PTR $LN72@get_mark_c[ecx*4]
$LN14@get_mark_c:

; 57   : 	{
; 58   : 	case mark0:  color = color_rgba( 255, 255,   0, 255 ); break;

	mov	eax, -256				; ffffff00H

; 71   : 	case no_mark:
; 72   : 	default: break;
; 73   : 	}
; 74   : 	return color;
; 75   : }

	ret	4
$LN13@get_mark_c:

; 59   : 	case mark1:  color = color_rgba( 255,   0,   0, 255 ); break;

	mov	eax, -65536				; ffff0000H

; 71   : 	case no_mark:
; 72   : 	default: break;
; 73   : 	}
; 74   : 	return color;
; 75   : }

	ret	4
$LN12@get_mark_c:

; 60   : 	case mark2:  color = color_rgba( 100, 100, 255, 255 ); break;

	mov	eax, -10197761				; ff6464ffH

; 71   : 	case no_mark:
; 72   : 	default: break;
; 73   : 	}
; 74   : 	return color;
; 75   : }

	ret	4
$LN11@get_mark_c:

; 61   : 	case mark3:  color = color_rgba(   0, 222, 205, 155 ); break;

	mov	eax, -1694441779			; 9b00decdH

; 71   : 	case no_mark:
; 72   : 	default: break;
; 73   : 	}
; 74   : 	return color;
; 75   : }

	ret	4
$LN10@get_mark_c:

; 62   : 	case mark4:  color = color_rgba( 255,   0, 255, 255 ); break;

	mov	eax, -65281				; ffff00ffH

; 71   : 	case no_mark:
; 72   : 	default: break;
; 73   : 	}
; 74   : 	return color;
; 75   : }

	ret	4
$LN9@get_mark_c:

; 63   : 	case mark5:  color = color_rgba( 155,  55, 170, 155 ); break;

	mov	eax, -1684326486			; 9b9b37aaH

; 71   : 	case no_mark:
; 72   : 	default: break;
; 73   : 	}
; 74   : 	return color;
; 75   : }

	ret	4
$LN8@get_mark_c:

; 64   : 	case mark6:  color = color_rgba(  25, 200,  50, 255 ); break;

	mov	eax, -15087566				; ff19c832H

; 71   : 	case no_mark:
; 72   : 	default: break;
; 73   : 	}
; 74   : 	return color;
; 75   : }

	ret	4
$LN6@get_mark_c:

; 65   : 	case mark7:  color = color_rgba( 255, 255,   0, 255 ); break;
; 66   : 	case mark8:  color = color_rgba( 128, 128, 128, 255 ); break;

	mov	eax, -8355712				; ff808080H

; 71   : 	case no_mark:
; 72   : 	default: break;
; 73   : 	}
; 74   : 	return color;
; 75   : }

	ret	4
$LN5@get_mark_c:

; 67   : 	case mark9:  color = color_rgba(   0, 255,   0, 255 ); break;

	mov	eax, -16711936				; ff00ff00H

; 71   : 	case no_mark:
; 72   : 	default: break;
; 73   : 	}
; 74   : 	return color;
; 75   : }

	ret	4
$LN4@get_mark_c:

; 68   : 	case mark10: color = color_rgba(  55, 155, 140, 255 ); break;

	mov	eax, -13132916				; ff379b8cH

; 71   : 	case no_mark:
; 72   : 	default: break;
; 73   : 	}
; 74   : 	return color;
; 75   : }

	ret	4
$LN3@get_mark_c:

; 69   : 	case mark11: color = color_rgba( 205, 205, 105, 255 ); break;

	mov	eax, -3289751				; ffcdcd69H

; 71   : 	case no_mark:
; 72   : 	default: break;
; 73   : 	}
; 74   : 	return color;
; 75   : }

	ret	4
$LN2@get_mark_c:

; 70   : 	case mark12: color = color_rgba( 128, 128, 250, 255 ); break;

	mov	eax, -8355590				; ff8080faH
$LN1@get_mark_c:

; 71   : 	case no_mark:
; 72   : 	default: break;
; 73   : 	}
; 74   : 	return color;
; 75   : }

	ret	4
	npad	1
$LN72@get_mark_c:
	DD	$LN13@get_mark_c
	DD	$LN11@get_mark_c
	DD	$LN10@get_mark_c
	DD	$LN9@get_mark_c
	DD	$LN14@get_mark_c
	DD	$LN6@get_mark_c
	DD	$LN4@get_mark_c
	DD	$LN5@get_mark_c
	DD	$LN2@get_mark_c
	DD	$LN3@get_mark_c
	DD	$LN12@get_mark_c
	DD	$LN8@get_mark_c
	DD	$LN1@get_mark_c
$LN71@get_mark_c:
	DB	0
	DB	12					; 0000000cH
	DB	1
	DB	2
	DB	3
	DB	4
	DB	12					; 0000000cH
	DB	12					; 0000000cH
	DB	12					; 0000000cH
	DB	5
	DB	6
	DB	12					; 0000000cH
	DB	7
	DB	12					; 0000000cH
	DB	8
	DB	12					; 0000000cH
	DB	12					; 0000000cH
	DB	12					; 0000000cH
	DB	12					; 0000000cH
	DB	12					; 0000000cH
	DB	12					; 0000000cH
	DB	12					; 0000000cH
	DB	12					; 0000000cH
	DB	12					; 0000000cH
	DB	12					; 0000000cH
	DB	12					; 0000000cH
	DB	12					; 0000000cH
	DB	12					; 0000000cH
	DB	9
	DB	12					; 0000000cH
	DB	12					; 0000000cH
	DB	10					; 0000000aH
	DB	12					; 0000000cH
	DB	12					; 0000000cH
	DB	12					; 0000000cH
	DB	12					; 0000000cH
	DB	12					; 0000000cH
	DB	12					; 0000000cH
	DB	12					; 0000000cH
	DB	12					; 0000000cH
	DB	12					; 0000000cH
	DB	12					; 0000000cH
	DB	12					; 0000000cH
	DB	12					; 0000000cH
	DB	12					; 0000000cH
	DB	12					; 0000000cH
	DB	12					; 0000000cH
	DB	12					; 0000000cH
	DB	12					; 0000000cH
	DB	12					; 0000000cH
	DB	12					; 0000000cH
	DB	12					; 0000000cH
	DB	12					; 0000000cH
	DB	12					; 0000000cH
	DB	12					; 0000000cH
	DB	12					; 0000000cH
	DB	12					; 0000000cH
	DB	12					; 0000000cH
	DB	12					; 0000000cH
	DB	12					; 0000000cH
	DB	12					; 0000000cH
	DB	11					; 0000000bH
	DB	12					; 0000000cH
	DB	12					; 0000000cH
	DB	12					; 0000000cH
	DB	12					; 0000000cH
	DB	12					; 0000000cH
	DB	12					; 0000000cH
	DB	12					; 0000000cH
	DB	12					; 0000000cH
	DB	12					; 0000000cH
	DB	12					; 0000000cH
	DB	12					; 0000000cH
	DB	12					; 0000000cH
	DB	12					; 0000000cH
	DB	12					; 0000000cH
	DB	12					; 0000000cH
	DB	12					; 0000000cH
	DB	12					; 0000000cH
	DB	12					; 0000000cH
	DB	12					; 0000000cH
	DB	12					; 0000000cH
	DB	12					; 0000000cH
	DB	12					; 0000000cH
	DB	12					; 0000000cH
	DB	12					; 0000000cH
	DB	12					; 0000000cH
	DB	12					; 0000000cH
	DB	12					; 0000000cH
	DB	12					; 0000000cH
	DB	12					; 0000000cH
	DB	12					; 0000000cH
	DB	12					; 0000000cH
	DB	4
?get_mark_color@CConsole@@IAEIW4Console_mark@1@@Z ENDP	; CConsole::get_mark_color
_TEXT	ENDS
PUBLIC	?ec@CConsole@@IAEAAVline_edit_control@text_editor@@XZ ; CConsole::ec
; Function compile flags: /Ogtpy
;	COMDAT ?ec@CConsole@@IAEAAVline_edit_control@text_editor@@XZ
_TEXT	SEGMENT
?ec@CConsole@@IAEAAVline_edit_control@text_editor@@XZ PROC ; CConsole::ec, COMDAT
; _this$ = ecx

; 50   : 	return m_editor->control();

	mov	eax, DWORD PTR [ecx+200]
	add	eax, 4

; 51   : }

	ret	0
?ec@CConsole@@IAEAAVline_edit_control@text_editor@@XZ ENDP ; CConsole::ec
; Function compile flags: /Ogtpy
; File d:\clearsky\sources\engine\xrengine\xr_ioconsole.h
_TEXT	ENDS
;	COMDAT ??Rstr_pred@CConsole@@QBE_NPBD0@Z
_TEXT	SEGMENT
??Rstr_pred@CConsole@@QBE_NPBD0@Z PROC			; CConsole::str_pred::operator(), COMDAT
; _x$ = eax
; _y$ = ecx

; 65   : 		{

$LL5@operator@20:

; 66   : 			return (xr_strcmp( x, y ) < 0);

	mov	dl, BYTE PTR [eax]
	cmp	dl, BYTE PTR [ecx]
	jne	SHORT $LN6@operator@20
	test	dl, dl
	je	SHORT $LN7@operator@20
	mov	dl, BYTE PTR [eax+1]
	cmp	dl, BYTE PTR [ecx+1]
	jne	SHORT $LN6@operator@20
	add	eax, 2
	add	ecx, 2
	test	dl, dl
	jne	SHORT $LL5@operator@20
$LN7@operator@20:
	xor	eax, eax
	xor	ecx, ecx
	test	eax, eax
	setl	cl
	mov	al, cl

; 67   : 		}

	ret	0
$LN6@operator@20:

; 66   : 			return (xr_strcmp( x, y ) < 0);

	sbb	eax, eax
	sbb	eax, -1
	xor	ecx, ecx
	test	eax, eax
	setl	cl
	mov	al, cl

; 67   : 		}

	ret	0
??Rstr_pred@CConsole@@QBE_NPBD0@Z ENDP			; CConsole::str_pred::operator()
; Function compile flags: /Ogtpy
_TEXT	ENDS
;	COMDAT ??8TipString@@QAE_NABVshared_str@@@Z
_TEXT	SEGMENT
??8TipString@@QAE_NABVshared_str@@@Z PROC		; TipString::operator==, COMDAT
; _this$ = eax
; _tips_text$ = edx

; 52   : 		return ( text == tips_text );

	mov	ecx, DWORD PTR [eax]
	xor	eax, eax
	cmp	ecx, DWORD PTR [edx]
	sete	al

; 53   : 	}

	ret	0
??8TipString@@QAE_NABVshared_str@@@Z ENDP		; TipString::operator==
; Function compile flags: /Ogtpy
; File d:\clearsky\sources\sdk\include\stlport\stl\_tree.h
;	COMDAT ??$_M_lower_bound@PBD@?$_Rb_tree@PBDUstr_pred@CConsole@@U?$pair@QBDPAVIConsole_Command@@@stlp_std@@U?$_Select1st@U?$pair@QBDPAVIConsole_Command@@@stlp_std@@@priv@4@U?$_MapTraitsT@U?$pair@QBDPAVIConsole_Command@@@stlp_std@@@64@V?$xalloc@U?$pair@PBDPAVIConsole_Command@@@stlp_std@@@@@priv@stlp_std@@ABEPAU_Rb_tree_node_base@12@ABQBD@Z
_TEXT	SEGMENT
??$_M_lower_bound@PBD@?$_Rb_tree@PBDUstr_pred@CConsole@@U?$pair@QBDPAVIConsole_Command@@@stlp_std@@U?$_Select1st@U?$pair@QBDPAVIConsole_Command@@@stlp_std@@@priv@4@U?$_MapTraitsT@U?$pair@QBDPAVIConsole_Command@@@stlp_std@@@64@V?$xalloc@U?$pair@PBDPAVIConsole_Command@@@stlp_std@@@@@priv@stlp_std@@ABEPAU_Rb_tree_node_base@12@ABQBD@Z PROC ; stlp_std::priv::_Rb_tree<char const *,CConsole::str_pred,stlp_std::pair<char const * const,IConsole_Command *>,stlp_std::priv::_Select1st<stlp_std::pair<char const * const,IConsole_Command *> >,stlp_std::priv::_MapTraitsT<stlp_std::pair<char const * const,IConsole_Command *> >,xalloc<stlp_std::pair<char const *,IConsole_Command *> > >::_M_lower_bound<char const *>, COMDAT
; _this$ = ecx
; ___k$ = ebx

; 562  :   _Base_ptr _M_lower_bound(const _KT& __k) const {

	push	esi
	push	edi

; 563  :     _Base_ptr __y = __CONST_CAST(_Base_ptr, &this->_M_header._M_data); /* Last node which is not less than __k. */

	mov	edi, ecx

; 564  :     _Base_ptr __x = _M_root(); /* Current node. */

	call	?_M_root@?$_Rb_tree@PBDUstr_pred@CConsole@@U?$pair@QBDPAVIConsole_Command@@@stlp_std@@U?$_Select1st@U?$pair@QBDPAVIConsole_Command@@@stlp_std@@@priv@4@U?$_MapTraitsT@U?$pair@QBDPAVIConsole_Command@@@stlp_std@@@64@V?$xalloc@U?$pair@PBDPAVIConsole_Command@@@stlp_std@@@@@priv@stlp_std@@IBEPAU_Rb_tree_node_base@23@XZ ; stlp_std::priv::_Rb_tree<char const *,CConsole::str_pred,stlp_std::pair<char const * const,IConsole_Command *>,stlp_std::priv::_Select1st<stlp_std::pair<char const * const,IConsole_Command *> >,stlp_std::priv::_MapTraitsT<stlp_std::pair<char const * const,IConsole_Command *> >,xalloc<stlp_std::pair<char const *,IConsole_Command *> > >::_M_root
	mov	esi, eax

; 565  : 
; 566  :     while (__x != 0)

	test	esi, esi
	je	SHORT $LN28@M_lower_bo
	npad	1
$LL4@M_lower_bo:

; 567  :       if (!_M_key_compare(_S_key(__x), __k))

	push	esi
	call	?_S_value@?$_Rb_tree@PBDUstr_pred@CConsole@@U?$pair@QBDPAVIConsole_Command@@@stlp_std@@U?$_Select1st@U?$pair@QBDPAVIConsole_Command@@@stlp_std@@@priv@4@U?$_MapTraitsT@U?$pair@QBDPAVIConsole_Command@@@stlp_std@@@64@V?$xalloc@U?$pair@PBDPAVIConsole_Command@@@stlp_std@@@@@priv@stlp_std@@KAAAU?$pair@QBDPAVIConsole_Command@@@3@PAU_Rb_tree_node_base@23@@Z ; stlp_std::priv::_Rb_tree<char const *,CConsole::str_pred,stlp_std::pair<char const * const,IConsole_Command *>,stlp_std::priv::_Select1st<stlp_std::pair<char const * const,IConsole_Command *> >,stlp_std::priv::_MapTraitsT<stlp_std::pair<char const * const,IConsole_Command *> >,xalloc<stlp_std::pair<char const *,IConsole_Command *> > >::_S_value
	mov	ecx, DWORD PTR [ebx]
	mov	eax, DWORD PTR [eax]
	add	esp, 4
	npad	3
$LL24@M_lower_bo:
	mov	dl, BYTE PTR [eax]
	cmp	dl, BYTE PTR [ecx]
	jne	SHORT $LN25@M_lower_bo
	test	dl, dl
	je	SHORT $LN26@M_lower_bo
	mov	dl, BYTE PTR [eax+1]
	cmp	dl, BYTE PTR [ecx+1]
	jne	SHORT $LN25@M_lower_bo
	add	eax, 2
	add	ecx, 2
	test	dl, dl
	jne	SHORT $LL24@M_lower_bo
$LN26@M_lower_bo:
	xor	eax, eax
	jmp	SHORT $LN27@M_lower_bo
$LN25@M_lower_bo:
	sbb	eax, eax
	sbb	eax, -1
$LN27@M_lower_bo:
	test	eax, eax

; 568  :         __y = __x, __x = _S_left(__x);

	push	esi
	jl	SHORT $LN2@M_lower_bo
	mov	edi, esi
	call	?_S_left@?$_Rb_tree@PBDUstr_pred@CConsole@@U?$pair@QBDPAVIConsole_Command@@@stlp_std@@U?$_Select1st@U?$pair@QBDPAVIConsole_Command@@@stlp_std@@@priv@4@U?$_MapTraitsT@U?$pair@QBDPAVIConsole_Command@@@stlp_std@@@64@V?$xalloc@U?$pair@PBDPAVIConsole_Command@@@stlp_std@@@@@priv@stlp_std@@KAAAPAU_Rb_tree_node_base@23@PAU423@@Z ; stlp_std::priv::_Rb_tree<char const *,CConsole::str_pred,stlp_std::pair<char const * const,IConsole_Command *>,stlp_std::priv::_Select1st<stlp_std::pair<char const * const,IConsole_Command *> >,stlp_std::priv::_MapTraitsT<stlp_std::pair<char const * const,IConsole_Command *> >,xalloc<stlp_std::pair<char const *,IConsole_Command *> > >::_S_left

; 569  :       else

	jmp	SHORT $LN29@M_lower_bo
$LN2@M_lower_bo:

; 570  :         __x = _S_right(__x);

	call	?_S_right@?$_Rb_tree@PBDUstr_pred@CConsole@@U?$pair@QBDPAVIConsole_Command@@@stlp_std@@U?$_Select1st@U?$pair@QBDPAVIConsole_Command@@@stlp_std@@@priv@4@U?$_MapTraitsT@U?$pair@QBDPAVIConsole_Command@@@stlp_std@@@64@V?$xalloc@U?$pair@PBDPAVIConsole_Command@@@stlp_std@@@@@priv@stlp_std@@KAAAPAU_Rb_tree_node_base@23@PAU423@@Z ; stlp_std::priv::_Rb_tree<char const *,CConsole::str_pred,stlp_std::pair<char const * const,IConsole_Command *>,stlp_std::priv::_Select1st<stlp_std::pair<char const * const,IConsole_Command *> >,stlp_std::priv::_MapTraitsT<stlp_std::pair<char const * const,IConsole_Command *> >,xalloc<stlp_std::pair<char const *,IConsole_Command *> > >::_S_right
$LN29@M_lower_bo:
	mov	esi, DWORD PTR [eax]
	add	esp, 4
	test	esi, esi
	jne	SHORT $LL4@M_lower_bo
$LN28@M_lower_bo:

; 571  : 
; 572  :     return __y;

	mov	eax, edi
	pop	edi
	pop	esi

; 573  :   }

	ret	0
??$_M_lower_bound@PBD@?$_Rb_tree@PBDUstr_pred@CConsole@@U?$pair@QBDPAVIConsole_Command@@@stlp_std@@U?$_Select1st@U?$pair@QBDPAVIConsole_Command@@@stlp_std@@@priv@4@U?$_MapTraitsT@U?$pair@QBDPAVIConsole_Command@@@stlp_std@@@64@V?$xalloc@U?$pair@PBDPAVIConsole_Command@@@stlp_std@@@@@priv@stlp_std@@ABEPAU_Rb_tree_node_base@12@ABQBD@Z ENDP ; stlp_std::priv::_Rb_tree<char const *,CConsole::str_pred,stlp_std::pair<char const * const,IConsole_Command *>,stlp_std::priv::_Select1st<stlp_std::pair<char const * const,IConsole_Command *> >,stlp_std::priv::_MapTraitsT<stlp_std::pair<char const * const,IConsole_Command *> >,xalloc<stlp_std::pair<char const *,IConsole_Command *> > >::_M_lower_bound<char const *>
; Function compile flags: /Ogtpy
; File d:\clearsky\sources\sdk\include\stlport\stl\_pair.h
_TEXT	ENDS
;	COMDAT ??0?$pair@U?$_Rb_tree_iterator@U?$pair@QBDPAVIConsole_Command@@@stlp_std@@U?$_MapTraitsT@U?$pair@QBDPAVIConsole_Command@@@stlp_std@@@priv@2@@priv@stlp_std@@_N@stlp_std@@QAE@ABU?$_Rb_tree_iterator@U?$pair@QBDPAVIConsole_Command@@@stlp_std@@U?$_MapTraitsT@U?$pair@QBDPAVIConsole_Command@@@stlp_std@@@priv@2@@priv@1@AB_N@Z
_TEXT	SEGMENT
___b$ = 8						; size = 4
??0?$pair@U?$_Rb_tree_iterator@U?$pair@QBDPAVIConsole_Command@@@stlp_std@@U?$_MapTraitsT@U?$pair@QBDPAVIConsole_Command@@@stlp_std@@@priv@2@@priv@stlp_std@@_N@stlp_std@@QAE@ABU?$_Rb_tree_iterator@U?$pair@QBDPAVIConsole_Command@@@stlp_std@@U?$_MapTraitsT@U?$pair@QBDPAVIConsole_Command@@@stlp_std@@@priv@2@@priv@1@AB_N@Z PROC ; stlp_std::pair<stlp_std::priv::_Rb_tree_iterator<stlp_std::pair<char const * const,IConsole_Command *>,stlp_std::priv::_MapTraitsT<stlp_std::pair<char const * const,IConsole_Command *> > >,bool>::pair<stlp_std::priv::_Rb_tree_iterator<stlp_std::pair<char const * const,IConsole_Command *>,stlp_std::priv::_MapTraitsT<stlp_std::pair<char const * const,IConsole_Command *> > >,bool>, COMDAT
; _this$ = eax
; ___a$ = ecx

; 56   :   pair(const _T1& __a, const _T2& __b) : first(__a), second(__b) {}

	mov	edx, DWORD PTR [ecx]
	mov	ecx, DWORD PTR ___b$[esp-4]
	mov	DWORD PTR [eax], edx
	mov	dl, BYTE PTR [ecx]
	mov	BYTE PTR [eax+4], dl
	ret	4
??0?$pair@U?$_Rb_tree_iterator@U?$pair@QBDPAVIConsole_Command@@@stlp_std@@U?$_MapTraitsT@U?$pair@QBDPAVIConsole_Command@@@stlp_std@@@priv@2@@priv@stlp_std@@_N@stlp_std@@QAE@ABU?$_Rb_tree_iterator@U?$pair@QBDPAVIConsole_Command@@@stlp_std@@U?$_MapTraitsT@U?$pair@QBDPAVIConsole_Command@@@stlp_std@@@priv@2@@priv@1@AB_N@Z ENDP ; stlp_std::pair<stlp_std::priv::_Rb_tree_iterator<stlp_std::pair<char const * const,IConsole_Command *>,stlp_std::priv::_MapTraitsT<stlp_std::pair<char const * const,IConsole_Command *> > >,bool>::pair<stlp_std::priv::_Rb_tree_iterator<stlp_std::pair<char const * const,IConsole_Command *>,stlp_std::priv::_MapTraitsT<stlp_std::pair<char const * const,IConsole_Command *> > >,bool>
; Function compile flags: /Ogtpy
; File d:\clearsky\sources\sdk\include\stlport\stl\_tree.h
_TEXT	ENDS
;	COMDAT ??$_M_lower_bound@PAD@?$_Rb_tree@PBDUstr_pred@CConsole@@U?$pair@QBDPAVIConsole_Command@@@stlp_std@@U?$_Select1st@U?$pair@QBDPAVIConsole_Command@@@stlp_std@@@priv@4@U?$_MapTraitsT@U?$pair@QBDPAVIConsole_Command@@@stlp_std@@@64@V?$xalloc@U?$pair@PBDPAVIConsole_Command@@@stlp_std@@@@@priv@stlp_std@@ABEPAU_Rb_tree_node_base@12@ABQAD@Z
_TEXT	SEGMENT
??$_M_lower_bound@PAD@?$_Rb_tree@PBDUstr_pred@CConsole@@U?$pair@QBDPAVIConsole_Command@@@stlp_std@@U?$_Select1st@U?$pair@QBDPAVIConsole_Command@@@stlp_std@@@priv@4@U?$_MapTraitsT@U?$pair@QBDPAVIConsole_Command@@@stlp_std@@@64@V?$xalloc@U?$pair@PBDPAVIConsole_Command@@@stlp_std@@@@@priv@stlp_std@@ABEPAU_Rb_tree_node_base@12@ABQAD@Z PROC ; stlp_std::priv::_Rb_tree<char const *,CConsole::str_pred,stlp_std::pair<char const * const,IConsole_Command *>,stlp_std::priv::_Select1st<stlp_std::pair<char const * const,IConsole_Command *> >,stlp_std::priv::_MapTraitsT<stlp_std::pair<char const * const,IConsole_Command *> >,xalloc<stlp_std::pair<char const *,IConsole_Command *> > >::_M_lower_bound<char *>, COMDAT
; _this$ = ecx
; ___k$ = ebx

; 562  :   _Base_ptr _M_lower_bound(const _KT& __k) const {

	push	esi
	push	edi

; 563  :     _Base_ptr __y = __CONST_CAST(_Base_ptr, &this->_M_header._M_data); /* Last node which is not less than __k. */

	mov	edi, ecx

; 564  :     _Base_ptr __x = _M_root(); /* Current node. */

	call	?_M_root@?$_Rb_tree@PBDUstr_pred@CConsole@@U?$pair@QBDPAVIConsole_Command@@@stlp_std@@U?$_Select1st@U?$pair@QBDPAVIConsole_Command@@@stlp_std@@@priv@4@U?$_MapTraitsT@U?$pair@QBDPAVIConsole_Command@@@stlp_std@@@64@V?$xalloc@U?$pair@PBDPAVIConsole_Command@@@stlp_std@@@@@priv@stlp_std@@IBEPAU_Rb_tree_node_base@23@XZ ; stlp_std::priv::_Rb_tree<char const *,CConsole::str_pred,stlp_std::pair<char const * const,IConsole_Command *>,stlp_std::priv::_Select1st<stlp_std::pair<char const * const,IConsole_Command *> >,stlp_std::priv::_MapTraitsT<stlp_std::pair<char const * const,IConsole_Command *> >,xalloc<stlp_std::pair<char const *,IConsole_Command *> > >::_M_root
	mov	esi, eax

; 565  : 
; 566  :     while (__x != 0)

	test	esi, esi
	je	SHORT $LN28@M_lower_bo@2
	npad	1
$LL4@M_lower_bo@2:

; 567  :       if (!_M_key_compare(_S_key(__x), __k))

	push	esi
	call	?_S_value@?$_Rb_tree@PBDUstr_pred@CConsole@@U?$pair@QBDPAVIConsole_Command@@@stlp_std@@U?$_Select1st@U?$pair@QBDPAVIConsole_Command@@@stlp_std@@@priv@4@U?$_MapTraitsT@U?$pair@QBDPAVIConsole_Command@@@stlp_std@@@64@V?$xalloc@U?$pair@PBDPAVIConsole_Command@@@stlp_std@@@@@priv@stlp_std@@KAAAU?$pair@QBDPAVIConsole_Command@@@3@PAU_Rb_tree_node_base@23@@Z ; stlp_std::priv::_Rb_tree<char const *,CConsole::str_pred,stlp_std::pair<char const * const,IConsole_Command *>,stlp_std::priv::_Select1st<stlp_std::pair<char const * const,IConsole_Command *> >,stlp_std::priv::_MapTraitsT<stlp_std::pair<char const * const,IConsole_Command *> >,xalloc<stlp_std::pair<char const *,IConsole_Command *> > >::_S_value
	mov	ecx, DWORD PTR [ebx]
	mov	eax, DWORD PTR [eax]
	add	esp, 4
	npad	3
$LL24@M_lower_bo@2:
	mov	dl, BYTE PTR [eax]
	cmp	dl, BYTE PTR [ecx]
	jne	SHORT $LN25@M_lower_bo@2
	test	dl, dl
	je	SHORT $LN26@M_lower_bo@2
	mov	dl, BYTE PTR [eax+1]
	cmp	dl, BYTE PTR [ecx+1]
	jne	SHORT $LN25@M_lower_bo@2
	add	eax, 2
	add	ecx, 2
	test	dl, dl
	jne	SHORT $LL24@M_lower_bo@2
$LN26@M_lower_bo@2:
	xor	eax, eax
	jmp	SHORT $LN27@M_lower_bo@2
$LN25@M_lower_bo@2:
	sbb	eax, eax
	sbb	eax, -1
$LN27@M_lower_bo@2:
	test	eax, eax

; 568  :         __y = __x, __x = _S_left(__x);

	push	esi
	jl	SHORT $LN2@M_lower_bo@2
	mov	edi, esi
	call	?_S_left@?$_Rb_tree@PBDUstr_pred@CConsole@@U?$pair@QBDPAVIConsole_Command@@@stlp_std@@U?$_Select1st@U?$pair@QBDPAVIConsole_Command@@@stlp_std@@@priv@4@U?$_MapTraitsT@U?$pair@QBDPAVIConsole_Command@@@stlp_std@@@64@V?$xalloc@U?$pair@PBDPAVIConsole_Command@@@stlp_std@@@@@priv@stlp_std@@KAAAPAU_Rb_tree_node_base@23@PAU423@@Z ; stlp_std::priv::_Rb_tree<char const *,CConsole::str_pred,stlp_std::pair<char const * const,IConsole_Command *>,stlp_std::priv::_Select1st<stlp_std::pair<char const * const,IConsole_Command *> >,stlp_std::priv::_MapTraitsT<stlp_std::pair<char const * const,IConsole_Command *> >,xalloc<stlp_std::pair<char const *,IConsole_Command *> > >::_S_left

; 569  :       else

	jmp	SHORT $LN29@M_lower_bo@2
$LN2@M_lower_bo@2:

; 570  :         __x = _S_right(__x);

	call	?_S_right@?$_Rb_tree@PBDUstr_pred@CConsole@@U?$pair@QBDPAVIConsole_Command@@@stlp_std@@U?$_Select1st@U?$pair@QBDPAVIConsole_Command@@@stlp_std@@@priv@4@U?$_MapTraitsT@U?$pair@QBDPAVIConsole_Command@@@stlp_std@@@64@V?$xalloc@U?$pair@PBDPAVIConsole_Command@@@stlp_std@@@@@priv@stlp_std@@KAAAPAU_Rb_tree_node_base@23@PAU423@@Z ; stlp_std::priv::_Rb_tree<char const *,CConsole::str_pred,stlp_std::pair<char const * const,IConsole_Command *>,stlp_std::priv::_Select1st<stlp_std::pair<char const * const,IConsole_Command *> >,stlp_std::priv::_MapTraitsT<stlp_std::pair<char const * const,IConsole_Command *> >,xalloc<stlp_std::pair<char const *,IConsole_Command *> > >::_S_right
$LN29@M_lower_bo@2:
	mov	esi, DWORD PTR [eax]
	add	esp, 4
	test	esi, esi
	jne	SHORT $LL4@M_lower_bo@2
$LN28@M_lower_bo@2:

; 571  : 
; 572  :     return __y;

	mov	eax, edi
	pop	edi
	pop	esi

; 573  :   }

	ret	0
??$_M_lower_bound@PAD@?$_Rb_tree@PBDUstr_pred@CConsole@@U?$pair@QBDPAVIConsole_Command@@@stlp_std@@U?$_Select1st@U?$pair@QBDPAVIConsole_Command@@@stlp_std@@@priv@4@U?$_MapTraitsT@U?$pair@QBDPAVIConsole_Command@@@stlp_std@@@64@V?$xalloc@U?$pair@PBDPAVIConsole_Command@@@stlp_std@@@@@priv@stlp_std@@ABEPAU_Rb_tree_node_base@12@ABQAD@Z ENDP ; stlp_std::priv::_Rb_tree<char const *,CConsole::str_pred,stlp_std::pair<char const * const,IConsole_Command *>,stlp_std::priv::_Select1st<stlp_std::pair<char const * const,IConsole_Command *> >,stlp_std::priv::_MapTraitsT<stlp_std::pair<char const * const,IConsole_Command *> >,xalloc<stlp_std::pair<char const *,IConsole_Command *> > >::_M_lower_bound<char *>
; Function compile flags: /Ogtpy
_TEXT	ENDS
;	COMDAT ??$_M_find@PAD@?$_Rb_tree@PBDUstr_pred@CConsole@@U?$pair@QBDPAVIConsole_Command@@@stlp_std@@U?$_Select1st@U?$pair@QBDPAVIConsole_Command@@@stlp_std@@@priv@4@U?$_MapTraitsT@U?$pair@QBDPAVIConsole_Command@@@stlp_std@@@64@V?$xalloc@U?$pair@PBDPAVIConsole_Command@@@stlp_std@@@@@priv@stlp_std@@ABEPAU_Rb_tree_node_base@12@ABQAD@Z
_TEXT	SEGMENT
_this$ = 8						; size = 4
??$_M_find@PAD@?$_Rb_tree@PBDUstr_pred@CConsole@@U?$pair@QBDPAVIConsole_Command@@@stlp_std@@U?$_Select1st@U?$pair@QBDPAVIConsole_Command@@@stlp_std@@@priv@4@U?$_MapTraitsT@U?$pair@QBDPAVIConsole_Command@@@stlp_std@@@64@V?$xalloc@U?$pair@PBDPAVIConsole_Command@@@stlp_std@@@@@priv@stlp_std@@ABEPAU_Rb_tree_node_base@12@ABQAD@Z PROC ; stlp_std::priv::_Rb_tree<char const *,CConsole::str_pred,stlp_std::pair<char const * const,IConsole_Command *>,stlp_std::priv::_Select1st<stlp_std::pair<char const * const,IConsole_Command *> >,stlp_std::priv::_MapTraitsT<stlp_std::pair<char const * const,IConsole_Command *> >,xalloc<stlp_std::pair<char const *,IConsole_Command *> > >::_M_find<char *>, COMDAT
; ___k$ = edi

; 543  :   _Base_ptr _M_find(const _KT& __k) const {

	push	ebx
	push	ebp
	mov	ebp, DWORD PTR _this$[esp+4]
	push	esi

; 544  :     _Base_ptr __y = __CONST_CAST(_Base_ptr, &this->_M_header._M_data);      // Last node which is not less than __k.
; 545  :     _Base_ptr __x = _M_root();      // Current node.

	mov	ecx, ebp
	mov	ebx, ebp
	call	?_M_root@?$_Rb_tree@PBDUstr_pred@CConsole@@U?$pair@QBDPAVIConsole_Command@@@stlp_std@@U?$_Select1st@U?$pair@QBDPAVIConsole_Command@@@stlp_std@@@priv@4@U?$_MapTraitsT@U?$pair@QBDPAVIConsole_Command@@@stlp_std@@@64@V?$xalloc@U?$pair@PBDPAVIConsole_Command@@@stlp_std@@@@@priv@stlp_std@@IBEPAU_Rb_tree_node_base@23@XZ ; stlp_std::priv::_Rb_tree<char const *,CConsole::str_pred,stlp_std::pair<char const * const,IConsole_Command *>,stlp_std::priv::_Select1st<stlp_std::pair<char const * const,IConsole_Command *> >,stlp_std::priv::_MapTraitsT<stlp_std::pair<char const * const,IConsole_Command *> >,xalloc<stlp_std::pair<char const *,IConsole_Command *> > >::_M_root
	mov	esi, eax

; 546  : 
; 547  :     while (__x != 0)

	test	esi, esi
	je	$LN46@M_find@2
	npad	6
$LL6@M_find@2:

; 548  :       if (!_M_key_compare(_S_key(__x), __k))

	push	esi
	call	?_S_value@?$_Rb_tree@PBDUstr_pred@CConsole@@U?$pair@QBDPAVIConsole_Command@@@stlp_std@@U?$_Select1st@U?$pair@QBDPAVIConsole_Command@@@stlp_std@@@priv@4@U?$_MapTraitsT@U?$pair@QBDPAVIConsole_Command@@@stlp_std@@@64@V?$xalloc@U?$pair@PBDPAVIConsole_Command@@@stlp_std@@@@@priv@stlp_std@@KAAAU?$pair@QBDPAVIConsole_Command@@@3@PAU_Rb_tree_node_base@23@@Z ; stlp_std::priv::_Rb_tree<char const *,CConsole::str_pred,stlp_std::pair<char const * const,IConsole_Command *>,stlp_std::priv::_Select1st<stlp_std::pair<char const * const,IConsole_Command *> >,stlp_std::priv::_MapTraitsT<stlp_std::pair<char const * const,IConsole_Command *> >,xalloc<stlp_std::pair<char const *,IConsole_Command *> > >::_S_value
	mov	ecx, DWORD PTR [edi]
	mov	eax, DWORD PTR [eax]
	add	esp, 4
	npad	3
$LL36@M_find@2:
	mov	dl, BYTE PTR [eax]
	cmp	dl, BYTE PTR [ecx]
	jne	SHORT $LN37@M_find@2
	test	dl, dl
	je	SHORT $LN38@M_find@2
	mov	dl, BYTE PTR [eax+1]
	cmp	dl, BYTE PTR [ecx+1]
	jne	SHORT $LN37@M_find@2
	add	eax, 2
	add	ecx, 2
	test	dl, dl
	jne	SHORT $LL36@M_find@2
$LN38@M_find@2:
	xor	eax, eax
	jmp	SHORT $LN39@M_find@2
$LN37@M_find@2:
	sbb	eax, eax
	sbb	eax, -1
$LN39@M_find@2:
	test	eax, eax

; 549  :         __y = __x, __x = _S_left(__x);

	push	esi
	jl	SHORT $LN4@M_find@2
	mov	ebx, esi
	call	?_S_left@?$_Rb_tree@PBDUstr_pred@CConsole@@U?$pair@QBDPAVIConsole_Command@@@stlp_std@@U?$_Select1st@U?$pair@QBDPAVIConsole_Command@@@stlp_std@@@priv@4@U?$_MapTraitsT@U?$pair@QBDPAVIConsole_Command@@@stlp_std@@@64@V?$xalloc@U?$pair@PBDPAVIConsole_Command@@@stlp_std@@@@@priv@stlp_std@@KAAAPAU_Rb_tree_node_base@23@PAU423@@Z ; stlp_std::priv::_Rb_tree<char const *,CConsole::str_pred,stlp_std::pair<char const * const,IConsole_Command *>,stlp_std::priv::_Select1st<stlp_std::pair<char const * const,IConsole_Command *> >,stlp_std::priv::_MapTraitsT<stlp_std::pair<char const * const,IConsole_Command *> >,xalloc<stlp_std::pair<char const *,IConsole_Command *> > >::_S_left

; 550  :       else

	jmp	SHORT $LN47@M_find@2
$LN4@M_find@2:

; 551  :         __x = _S_right(__x);

	call	?_S_right@?$_Rb_tree@PBDUstr_pred@CConsole@@U?$pair@QBDPAVIConsole_Command@@@stlp_std@@U?$_Select1st@U?$pair@QBDPAVIConsole_Command@@@stlp_std@@@priv@4@U?$_MapTraitsT@U?$pair@QBDPAVIConsole_Command@@@stlp_std@@@64@V?$xalloc@U?$pair@PBDPAVIConsole_Command@@@stlp_std@@@@@priv@stlp_std@@KAAAPAU_Rb_tree_node_base@23@PAU423@@Z ; stlp_std::priv::_Rb_tree<char const *,CConsole::str_pred,stlp_std::pair<char const * const,IConsole_Command *>,stlp_std::priv::_Select1st<stlp_std::pair<char const * const,IConsole_Command *> >,stlp_std::priv::_MapTraitsT<stlp_std::pair<char const * const,IConsole_Command *> >,xalloc<stlp_std::pair<char const *,IConsole_Command *> > >::_S_right
$LN47@M_find@2:
	mov	esi, DWORD PTR [eax]
	add	esp, 4
	test	esi, esi
	jne	SHORT $LL6@M_find@2

; 552  : 
; 553  :     if (__y != &this->_M_header._M_data) {

	cmp	ebx, ebp
	je	SHORT $LN46@M_find@2

; 554  :       if (_M_key_compare(__k, _S_key(__y))) {

	push	ebx
	call	?_S_value@?$_Rb_tree@PBDUstr_pred@CConsole@@U?$pair@QBDPAVIConsole_Command@@@stlp_std@@U?$_Select1st@U?$pair@QBDPAVIConsole_Command@@@stlp_std@@@priv@4@U?$_MapTraitsT@U?$pair@QBDPAVIConsole_Command@@@stlp_std@@@64@V?$xalloc@U?$pair@PBDPAVIConsole_Command@@@stlp_std@@@@@priv@stlp_std@@KAAAU?$pair@QBDPAVIConsole_Command@@@3@PAU_Rb_tree_node_base@23@@Z ; stlp_std::priv::_Rb_tree<char const *,CConsole::str_pred,stlp_std::pair<char const * const,IConsole_Command *>,stlp_std::priv::_Select1st<stlp_std::pair<char const * const,IConsole_Command *> >,stlp_std::priv::_MapTraitsT<stlp_std::pair<char const * const,IConsole_Command *> >,xalloc<stlp_std::pair<char const *,IConsole_Command *> > >::_S_value
	mov	ecx, DWORD PTR [eax]
	mov	eax, DWORD PTR [edi]
	add	esp, 4
$LL40@M_find@2:
	mov	dl, BYTE PTR [eax]
	cmp	dl, BYTE PTR [ecx]
	jne	SHORT $LN41@M_find@2
	test	dl, dl
	je	SHORT $LN42@M_find@2
	mov	dl, BYTE PTR [eax+1]
	cmp	dl, BYTE PTR [ecx+1]
	jne	SHORT $LN41@M_find@2
	add	eax, 2
	add	ecx, 2
	test	dl, dl
	jne	SHORT $LL40@M_find@2
$LN42@M_find@2:
	xor	eax, eax
	jmp	SHORT $LN43@M_find@2
$LN41@M_find@2:
	sbb	eax, eax
	sbb	eax, -1
$LN43@M_find@2:
	test	eax, eax

; 555  :         __y = __CONST_CAST(_Base_ptr, &this->_M_header._M_data);
; 556  :       }
; 557  :     }
; 558  :     return __y;

	mov	eax, ebp
	jl	SHORT $LN1@M_find@2
$LN46@M_find@2:
	mov	eax, ebx
$LN1@M_find@2:
	pop	esi
	pop	ebp
	pop	ebx

; 559  :   }

	ret	4
??$_M_find@PAD@?$_Rb_tree@PBDUstr_pred@CConsole@@U?$pair@QBDPAVIConsole_Command@@@stlp_std@@U?$_Select1st@U?$pair@QBDPAVIConsole_Command@@@stlp_std@@@priv@4@U?$_MapTraitsT@U?$pair@QBDPAVIConsole_Command@@@stlp_std@@@64@V?$xalloc@U?$pair@PBDPAVIConsole_Command@@@stlp_std@@@@@priv@stlp_std@@ABEPAU_Rb_tree_node_base@12@ABQAD@Z ENDP ; stlp_std::priv::_Rb_tree<char const *,CConsole::str_pred,stlp_std::pair<char const * const,IConsole_Command *>,stlp_std::priv::_Select1st<stlp_std::pair<char const * const,IConsole_Command *> >,stlp_std::priv::_MapTraitsT<stlp_std::pair<char const * const,IConsole_Command *> >,xalloc<stlp_std::pair<char const *,IConsole_Command *> > >::_M_find<char *>
; Function compile flags: /Ogtpy
_TEXT	ENDS
;	COMDAT ??$_M_find@PBD@?$_Rb_tree@PBDUstr_pred@CConsole@@U?$pair@QBDPAVIConsole_Command@@@stlp_std@@U?$_Select1st@U?$pair@QBDPAVIConsole_Command@@@stlp_std@@@priv@4@U?$_MapTraitsT@U?$pair@QBDPAVIConsole_Command@@@stlp_std@@@64@V?$xalloc@U?$pair@PBDPAVIConsole_Command@@@stlp_std@@@@@priv@stlp_std@@ABEPAU_Rb_tree_node_base@12@ABQBD@Z
_TEXT	SEGMENT
_this$ = 8						; size = 4
??$_M_find@PBD@?$_Rb_tree@PBDUstr_pred@CConsole@@U?$pair@QBDPAVIConsole_Command@@@stlp_std@@U?$_Select1st@U?$pair@QBDPAVIConsole_Command@@@stlp_std@@@priv@4@U?$_MapTraitsT@U?$pair@QBDPAVIConsole_Command@@@stlp_std@@@64@V?$xalloc@U?$pair@PBDPAVIConsole_Command@@@stlp_std@@@@@priv@stlp_std@@ABEPAU_Rb_tree_node_base@12@ABQBD@Z PROC ; stlp_std::priv::_Rb_tree<char const *,CConsole::str_pred,stlp_std::pair<char const * const,IConsole_Command *>,stlp_std::priv::_Select1st<stlp_std::pair<char const * const,IConsole_Command *> >,stlp_std::priv::_MapTraitsT<stlp_std::pair<char const * const,IConsole_Command *> >,xalloc<stlp_std::pair<char const *,IConsole_Command *> > >::_M_find<char const *>, COMDAT
; ___k$ = edi

; 543  :   _Base_ptr _M_find(const _KT& __k) const {

	push	ebx
	push	ebp
	mov	ebp, DWORD PTR _this$[esp+4]
	push	esi

; 544  :     _Base_ptr __y = __CONST_CAST(_Base_ptr, &this->_M_header._M_data);      // Last node which is not less than __k.
; 545  :     _Base_ptr __x = _M_root();      // Current node.

	mov	ecx, ebp
	mov	ebx, ebp
	call	?_M_root@?$_Rb_tree@PBDUstr_pred@CConsole@@U?$pair@QBDPAVIConsole_Command@@@stlp_std@@U?$_Select1st@U?$pair@QBDPAVIConsole_Command@@@stlp_std@@@priv@4@U?$_MapTraitsT@U?$pair@QBDPAVIConsole_Command@@@stlp_std@@@64@V?$xalloc@U?$pair@PBDPAVIConsole_Command@@@stlp_std@@@@@priv@stlp_std@@IBEPAU_Rb_tree_node_base@23@XZ ; stlp_std::priv::_Rb_tree<char const *,CConsole::str_pred,stlp_std::pair<char const * const,IConsole_Command *>,stlp_std::priv::_Select1st<stlp_std::pair<char const * const,IConsole_Command *> >,stlp_std::priv::_MapTraitsT<stlp_std::pair<char const * const,IConsole_Command *> >,xalloc<stlp_std::pair<char const *,IConsole_Command *> > >::_M_root
	mov	esi, eax

; 546  : 
; 547  :     while (__x != 0)

	test	esi, esi
	je	$LN46@M_find@3
	npad	6
$LL6@M_find@3:

; 548  :       if (!_M_key_compare(_S_key(__x), __k))

	push	esi
	call	?_S_value@?$_Rb_tree@PBDUstr_pred@CConsole@@U?$pair@QBDPAVIConsole_Command@@@stlp_std@@U?$_Select1st@U?$pair@QBDPAVIConsole_Command@@@stlp_std@@@priv@4@U?$_MapTraitsT@U?$pair@QBDPAVIConsole_Command@@@stlp_std@@@64@V?$xalloc@U?$pair@PBDPAVIConsole_Command@@@stlp_std@@@@@priv@stlp_std@@KAAAU?$pair@QBDPAVIConsole_Command@@@3@PAU_Rb_tree_node_base@23@@Z ; stlp_std::priv::_Rb_tree<char const *,CConsole::str_pred,stlp_std::pair<char const * const,IConsole_Command *>,stlp_std::priv::_Select1st<stlp_std::pair<char const * const,IConsole_Command *> >,stlp_std::priv::_MapTraitsT<stlp_std::pair<char const * const,IConsole_Command *> >,xalloc<stlp_std::pair<char const *,IConsole_Command *> > >::_S_value
	mov	ecx, DWORD PTR [edi]
	mov	eax, DWORD PTR [eax]
	add	esp, 4
	npad	3
$LL36@M_find@3:
	mov	dl, BYTE PTR [eax]
	cmp	dl, BYTE PTR [ecx]
	jne	SHORT $LN37@M_find@3
	test	dl, dl
	je	SHORT $LN38@M_find@3
	mov	dl, BYTE PTR [eax+1]
	cmp	dl, BYTE PTR [ecx+1]
	jne	SHORT $LN37@M_find@3
	add	eax, 2
	add	ecx, 2
	test	dl, dl
	jne	SHORT $LL36@M_find@3
$LN38@M_find@3:
	xor	eax, eax
	jmp	SHORT $LN39@M_find@3
$LN37@M_find@3:
	sbb	eax, eax
	sbb	eax, -1
$LN39@M_find@3:
	test	eax, eax

; 549  :         __y = __x, __x = _S_left(__x);

	push	esi
	jl	SHORT $LN4@M_find@3
	mov	ebx, esi
	call	?_S_left@?$_Rb_tree@PBDUstr_pred@CConsole@@U?$pair@QBDPAVIConsole_Command@@@stlp_std@@U?$_Select1st@U?$pair@QBDPAVIConsole_Command@@@stlp_std@@@priv@4@U?$_MapTraitsT@U?$pair@QBDPAVIConsole_Command@@@stlp_std@@@64@V?$xalloc@U?$pair@PBDPAVIConsole_Command@@@stlp_std@@@@@priv@stlp_std@@KAAAPAU_Rb_tree_node_base@23@PAU423@@Z ; stlp_std::priv::_Rb_tree<char const *,CConsole::str_pred,stlp_std::pair<char const * const,IConsole_Command *>,stlp_std::priv::_Select1st<stlp_std::pair<char const * const,IConsole_Command *> >,stlp_std::priv::_MapTraitsT<stlp_std::pair<char const * const,IConsole_Command *> >,xalloc<stlp_std::pair<char const *,IConsole_Command *> > >::_S_left

; 550  :       else

	jmp	SHORT $LN47@M_find@3
$LN4@M_find@3:

; 551  :         __x = _S_right(__x);

	call	?_S_right@?$_Rb_tree@PBDUstr_pred@CConsole@@U?$pair@QBDPAVIConsole_Command@@@stlp_std@@U?$_Select1st@U?$pair@QBDPAVIConsole_Command@@@stlp_std@@@priv@4@U?$_MapTraitsT@U?$pair@QBDPAVIConsole_Command@@@stlp_std@@@64@V?$xalloc@U?$pair@PBDPAVIConsole_Command@@@stlp_std@@@@@priv@stlp_std@@KAAAPAU_Rb_tree_node_base@23@PAU423@@Z ; stlp_std::priv::_Rb_tree<char const *,CConsole::str_pred,stlp_std::pair<char const * const,IConsole_Command *>,stlp_std::priv::_Select1st<stlp_std::pair<char const * const,IConsole_Command *> >,stlp_std::priv::_MapTraitsT<stlp_std::pair<char const * const,IConsole_Command *> >,xalloc<stlp_std::pair<char const *,IConsole_Command *> > >::_S_right
$LN47@M_find@3:
	mov	esi, DWORD PTR [eax]
	add	esp, 4
	test	esi, esi
	jne	SHORT $LL6@M_find@3

; 552  : 
; 553  :     if (__y != &this->_M_header._M_data) {

	cmp	ebx, ebp
	je	SHORT $LN46@M_find@3

; 554  :       if (_M_key_compare(__k, _S_key(__y))) {

	push	ebx
	call	?_S_value@?$_Rb_tree@PBDUstr_pred@CConsole@@U?$pair@QBDPAVIConsole_Command@@@stlp_std@@U?$_Select1st@U?$pair@QBDPAVIConsole_Command@@@stlp_std@@@priv@4@U?$_MapTraitsT@U?$pair@QBDPAVIConsole_Command@@@stlp_std@@@64@V?$xalloc@U?$pair@PBDPAVIConsole_Command@@@stlp_std@@@@@priv@stlp_std@@KAAAU?$pair@QBDPAVIConsole_Command@@@3@PAU_Rb_tree_node_base@23@@Z ; stlp_std::priv::_Rb_tree<char const *,CConsole::str_pred,stlp_std::pair<char const * const,IConsole_Command *>,stlp_std::priv::_Select1st<stlp_std::pair<char const * const,IConsole_Command *> >,stlp_std::priv::_MapTraitsT<stlp_std::pair<char const * const,IConsole_Command *> >,xalloc<stlp_std::pair<char const *,IConsole_Command *> > >::_S_value
	mov	ecx, DWORD PTR [eax]
	mov	eax, DWORD PTR [edi]
	add	esp, 4
$LL40@M_find@3:
	mov	dl, BYTE PTR [eax]
	cmp	dl, BYTE PTR [ecx]
	jne	SHORT $LN41@M_find@3
	test	dl, dl
	je	SHORT $LN42@M_find@3
	mov	dl, BYTE PTR [eax+1]
	cmp	dl, BYTE PTR [ecx+1]
	jne	SHORT $LN41@M_find@3
	add	eax, 2
	add	ecx, 2
	test	dl, dl
	jne	SHORT $LL40@M_find@3
$LN42@M_find@3:
	xor	eax, eax
	jmp	SHORT $LN43@M_find@3
$LN41@M_find@3:
	sbb	eax, eax
	sbb	eax, -1
$LN43@M_find@3:
	test	eax, eax

; 555  :         __y = __CONST_CAST(_Base_ptr, &this->_M_header._M_data);
; 556  :       }
; 557  :     }
; 558  :     return __y;

	mov	eax, ebp
	jl	SHORT $LN1@M_find@3
$LN46@M_find@3:
	mov	eax, ebx
$LN1@M_find@3:
	pop	esi
	pop	ebp
	pop	ebx

; 559  :   }

	ret	4
??$_M_find@PBD@?$_Rb_tree@PBDUstr_pred@CConsole@@U?$pair@QBDPAVIConsole_Command@@@stlp_std@@U?$_Select1st@U?$pair@QBDPAVIConsole_Command@@@stlp_std@@@priv@4@U?$_MapTraitsT@U?$pair@QBDPAVIConsole_Command@@@stlp_std@@@64@V?$xalloc@U?$pair@PBDPAVIConsole_Command@@@stlp_std@@@@@priv@stlp_std@@ABEPAU_Rb_tree_node_base@12@ABQBD@Z ENDP ; stlp_std::priv::_Rb_tree<char const *,CConsole::str_pred,stlp_std::pair<char const * const,IConsole_Command *>,stlp_std::priv::_Select1st<stlp_std::pair<char const * const,IConsole_Command *> >,stlp_std::priv::_MapTraitsT<stlp_std::pair<char const * const,IConsole_Command *> >,xalloc<stlp_std::pair<char const *,IConsole_Command *> > >::_M_find<char const *>
; Function compile flags: /Ogtpy
_TEXT	ENDS
;	COMDAT ??$lower_bound@PBD@?$_Rb_tree@PBDUstr_pred@CConsole@@U?$pair@QBDPAVIConsole_Command@@@stlp_std@@U?$_Select1st@U?$pair@QBDPAVIConsole_Command@@@stlp_std@@@priv@4@U?$_MapTraitsT@U?$pair@QBDPAVIConsole_Command@@@stlp_std@@@64@V?$xalloc@U?$pair@PBDPAVIConsole_Command@@@stlp_std@@@@@priv@stlp_std@@QAE?AU?$_Rb_tree_iterator@U?$pair@QBDPAVIConsole_Command@@@stlp_std@@U?$_MapTraitsT@U?$pair@QBDPAVIConsole_Command@@@stlp_std@@@priv@2@@12@ABQBD@Z
_TEXT	SEGMENT
??$lower_bound@PBD@?$_Rb_tree@PBDUstr_pred@CConsole@@U?$pair@QBDPAVIConsole_Command@@@stlp_std@@U?$_Select1st@U?$pair@QBDPAVIConsole_Command@@@stlp_std@@@priv@4@U?$_MapTraitsT@U?$pair@QBDPAVIConsole_Command@@@stlp_std@@@64@V?$xalloc@U?$pair@PBDPAVIConsole_Command@@@stlp_std@@@@@priv@stlp_std@@QAE?AU?$_Rb_tree_iterator@U?$pair@QBDPAVIConsole_Command@@@stlp_std@@U?$_MapTraitsT@U?$pair@QBDPAVIConsole_Command@@@stlp_std@@@priv@2@@12@ABQBD@Z PROC ; stlp_std::priv::_Rb_tree<char const *,CConsole::str_pred,stlp_std::pair<char const * const,IConsole_Command *>,stlp_std::priv::_Select1st<stlp_std::pair<char const * const,IConsole_Command *> >,stlp_std::priv::_MapTraitsT<stlp_std::pair<char const * const,IConsole_Command *> >,xalloc<stlp_std::pair<char const *,IConsole_Command *> > >::lower_bound<char const *>, COMDAT
; _this$ = ecx
; ___$ReturnUdt$ = esi
; ___x$ = ebx

; 596  :   iterator lower_bound(const _KT& __x) { return iterator(_M_lower_bound(__x)); }

	call	??$_M_lower_bound@PBD@?$_Rb_tree@PBDUstr_pred@CConsole@@U?$pair@QBDPAVIConsole_Command@@@stlp_std@@U?$_Select1st@U?$pair@QBDPAVIConsole_Command@@@stlp_std@@@priv@4@U?$_MapTraitsT@U?$pair@QBDPAVIConsole_Command@@@stlp_std@@@64@V?$xalloc@U?$pair@PBDPAVIConsole_Command@@@stlp_std@@@@@priv@stlp_std@@ABEPAU_Rb_tree_node_base@12@ABQBD@Z ; stlp_std::priv::_Rb_tree<char const *,CConsole::str_pred,stlp_std::pair<char const * const,IConsole_Command *>,stlp_std::priv::_Select1st<stlp_std::pair<char const * const,IConsole_Command *> >,stlp_std::priv::_MapTraitsT<stlp_std::pair<char const * const,IConsole_Command *> >,xalloc<stlp_std::pair<char const *,IConsole_Command *> > >::_M_lower_bound<char const *>
	mov	DWORD PTR [esi], eax
	mov	eax, esi
	ret	0
??$lower_bound@PBD@?$_Rb_tree@PBDUstr_pred@CConsole@@U?$pair@QBDPAVIConsole_Command@@@stlp_std@@U?$_Select1st@U?$pair@QBDPAVIConsole_Command@@@stlp_std@@@priv@4@U?$_MapTraitsT@U?$pair@QBDPAVIConsole_Command@@@stlp_std@@@64@V?$xalloc@U?$pair@PBDPAVIConsole_Command@@@stlp_std@@@@@priv@stlp_std@@QAE?AU?$_Rb_tree_iterator@U?$pair@QBDPAVIConsole_Command@@@stlp_std@@U?$_MapTraitsT@U?$pair@QBDPAVIConsole_Command@@@stlp_std@@@priv@2@@12@ABQBD@Z ENDP ; stlp_std::priv::_Rb_tree<char const *,CConsole::str_pred,stlp_std::pair<char const * const,IConsole_Command *>,stlp_std::priv::_Select1st<stlp_std::pair<char const * const,IConsole_Command *> >,stlp_std::priv::_MapTraitsT<stlp_std::pair<char const * const,IConsole_Command *> >,xalloc<stlp_std::pair<char const *,IConsole_Command *> > >::lower_bound<char const *>
; Function compile flags: /Ogtpy
; File d:\clearsky\sources\sdk\include\stlport\stl\_tree.c
_TEXT	ENDS
;	COMDAT ?_M_insert@?$_Rb_tree@PBDUstr_pred@CConsole@@U?$pair@QBDPAVIConsole_Command@@@stlp_std@@U?$_Select1st@U?$pair@QBDPAVIConsole_Command@@@stlp_std@@@priv@4@U?$_MapTraitsT@U?$pair@QBDPAVIConsole_Command@@@stlp_std@@@64@V?$xalloc@U?$pair@PBDPAVIConsole_Command@@@stlp_std@@@@@priv@stlp_std@@AAE?AU?$_Rb_tree_iterator@U?$pair@QBDPAVIConsole_Command@@@stlp_std@@U?$_MapTraitsT@U?$pair@QBDPAVIConsole_Command@@@stlp_std@@@priv@2@@23@PAU_Rb_tree_node_base@23@ABU?$pair@QBDPAVIConsole_Command@@@3@00@Z
_TEXT	SEGMENT
___$ReturnUdt$ = 8					; size = 4
___on_left$ = 12					; size = 4
___on_right$ = 16					; size = 4
?_M_insert@?$_Rb_tree@PBDUstr_pred@CConsole@@U?$pair@QBDPAVIConsole_Command@@@stlp_std@@U?$_Select1st@U?$pair@QBDPAVIConsole_Command@@@stlp_std@@@priv@4@U?$_MapTraitsT@U?$pair@QBDPAVIConsole_Command@@@stlp_std@@@64@V?$xalloc@U?$pair@PBDPAVIConsole_Command@@@stlp_std@@@@@priv@stlp_std@@AAE?AU?$_Rb_tree_iterator@U?$pair@QBDPAVIConsole_Command@@@stlp_std@@U?$_MapTraitsT@U?$pair@QBDPAVIConsole_Command@@@stlp_std@@@priv@2@@23@PAU_Rb_tree_node_base@23@ABU?$pair@QBDPAVIConsole_Command@@@3@00@Z PROC ; stlp_std::priv::_Rb_tree<char const *,CConsole::str_pred,stlp_std::pair<char const * const,IConsole_Command *>,stlp_std::priv::_Select1st<stlp_std::pair<char const * const,IConsole_Command *> >,stlp_std::priv::_MapTraitsT<stlp_std::pair<char const * const,IConsole_Command *> >,xalloc<stlp_std::pair<char const *,IConsole_Command *> > >::_M_insert, COMDAT
; _this$ = ebx
; ___parent$ = ecx
; ___val$ = eax

; 353  :                                                                       _Rb_tree_node_base * __on_right) {

	push	ebp
	mov	ebp, DWORD PTR ___$ReturnUdt$[esp]
	push	esi
	push	edi
	mov	edi, ecx

; 354  :   // We do not create the node here as, depending on tests, we might call
; 355  :   // _M_key_compare that can throw an exception.
; 356  :   _Base_ptr __new_node;
; 357  : 
; 358  :   if ( __parent == &this->_M_header._M_data ) {

	cmp	edi, ebx
	mov	esi, eax
	jne	SHORT $LN7@M_insert

; 359  :     __new_node = _M_create_node(__val);

	push	esi
	mov	ecx, ebx
	call	?_M_create_node@?$_Rb_tree@PBDUstr_pred@CConsole@@U?$pair@QBDPAVIConsole_Command@@@stlp_std@@U?$_Select1st@U?$pair@QBDPAVIConsole_Command@@@stlp_std@@@priv@4@U?$_MapTraitsT@U?$pair@QBDPAVIConsole_Command@@@stlp_std@@@64@V?$xalloc@U?$pair@PBDPAVIConsole_Command@@@stlp_std@@@@@priv@stlp_std@@IAEPAU_Rb_tree_node_base@23@ABU?$pair@QBDPAVIConsole_Command@@@3@@Z ; stlp_std::priv::_Rb_tree<char const *,CConsole::str_pred,stlp_std::pair<char const * const,IConsole_Command *>,stlp_std::priv::_Select1st<stlp_std::pair<char const * const,IConsole_Command *> >,stlp_std::priv::_MapTraitsT<stlp_std::pair<char const * const,IConsole_Command *> >,xalloc<stlp_std::pair<char const *,IConsole_Command *> > >::_M_create_node

; 360  :     _S_left(__parent) = __new_node;   // also makes _M_leftmost() = __new_node

	push	edi
	mov	esi, eax
	call	?_S_left@?$_Rb_tree@PBDUstr_pred@CConsole@@U?$pair@QBDPAVIConsole_Command@@@stlp_std@@U?$_Select1st@U?$pair@QBDPAVIConsole_Command@@@stlp_std@@@priv@4@U?$_MapTraitsT@U?$pair@QBDPAVIConsole_Command@@@stlp_std@@@64@V?$xalloc@U?$pair@PBDPAVIConsole_Command@@@stlp_std@@@@@priv@stlp_std@@KAAAPAU_Rb_tree_node_base@23@PAU423@@Z ; stlp_std::priv::_Rb_tree<char const *,CConsole::str_pred,stlp_std::pair<char const * const,IConsole_Command *>,stlp_std::priv::_Select1st<stlp_std::pair<char const * const,IConsole_Command *> >,stlp_std::priv::_MapTraitsT<stlp_std::pair<char const * const,IConsole_Command *> >,xalloc<stlp_std::pair<char const *,IConsole_Command *> > >::_S_left
	add	esp, 4

; 361  :     _M_root() = __new_node;

	mov	ecx, ebx
	mov	DWORD PTR [eax], esi
	call	?_M_root@?$_Rb_tree@PBDUstr_pred@CConsole@@U?$pair@QBDPAVIConsole_Command@@@stlp_std@@U?$_Select1st@U?$pair@QBDPAVIConsole_Command@@@stlp_std@@@priv@4@U?$_MapTraitsT@U?$pair@QBDPAVIConsole_Command@@@stlp_std@@@64@V?$xalloc@U?$pair@PBDPAVIConsole_Command@@@stlp_std@@@@@priv@stlp_std@@IAEAAPAU_Rb_tree_node_base@23@XZ ; stlp_std::priv::_Rb_tree<char const *,CConsole::str_pred,stlp_std::pair<char const * const,IConsole_Command *>,stlp_std::priv::_Select1st<stlp_std::pair<char const * const,IConsole_Command *> >,stlp_std::priv::_MapTraitsT<stlp_std::pair<char const * const,IConsole_Command *> >,xalloc<stlp_std::pair<char const *,IConsole_Command *> > >::_M_root
	mov	DWORD PTR [eax], esi

; 362  :     _M_rightmost() = __new_node;
; 363  :   }
; 364  :   else if ( __on_right == 0 &&     // If __on_right != 0, the remainder fails to false

	jmp	SHORT $LN42@M_insert
$LN7@M_insert:

; 365  :            ( __on_left != 0 ||     // If __on_left != 0, the remainder succeeds to true
; 366  :              _M_key_compare( _KeyOfValue()(__val), _S_key(__parent) ) ) ) {

	cmp	DWORD PTR ___on_right$[esp+8], 0
	jne	SHORT $LN5@M_insert
	cmp	DWORD PTR ___on_left$[esp+8], 0
	jne	SHORT $LN4@M_insert
	push	edi
	call	?_S_value@?$_Rb_tree@PBDUstr_pred@CConsole@@U?$pair@QBDPAVIConsole_Command@@@stlp_std@@U?$_Select1st@U?$pair@QBDPAVIConsole_Command@@@stlp_std@@@priv@4@U?$_MapTraitsT@U?$pair@QBDPAVIConsole_Command@@@stlp_std@@@64@V?$xalloc@U?$pair@PBDPAVIConsole_Command@@@stlp_std@@@@@priv@stlp_std@@KAAAU?$pair@QBDPAVIConsole_Command@@@3@PAU_Rb_tree_node_base@23@@Z ; stlp_std::priv::_Rb_tree<char const *,CConsole::str_pred,stlp_std::pair<char const * const,IConsole_Command *>,stlp_std::priv::_Select1st<stlp_std::pair<char const * const,IConsole_Command *> >,stlp_std::priv::_MapTraitsT<stlp_std::pair<char const * const,IConsole_Command *> >,xalloc<stlp_std::pair<char const *,IConsole_Command *> > >::_S_value
	mov	ecx, DWORD PTR [eax]
	mov	eax, DWORD PTR [esi]
	add	esp, 4
	call	??Rstr_pred@CConsole@@QBE_NPBD0@Z	; CConsole::str_pred::operator()
	test	al, al
	je	SHORT $LN5@M_insert
$LN4@M_insert:

; 367  :     __new_node = _M_create_node(__val);

	push	esi
	mov	ecx, ebx
	call	?_M_create_node@?$_Rb_tree@PBDUstr_pred@CConsole@@U?$pair@QBDPAVIConsole_Command@@@stlp_std@@U?$_Select1st@U?$pair@QBDPAVIConsole_Command@@@stlp_std@@@priv@4@U?$_MapTraitsT@U?$pair@QBDPAVIConsole_Command@@@stlp_std@@@64@V?$xalloc@U?$pair@PBDPAVIConsole_Command@@@stlp_std@@@@@priv@stlp_std@@IAEPAU_Rb_tree_node_base@23@ABU?$pair@QBDPAVIConsole_Command@@@3@@Z ; stlp_std::priv::_Rb_tree<char const *,CConsole::str_pred,stlp_std::pair<char const * const,IConsole_Command *>,stlp_std::priv::_Select1st<stlp_std::pair<char const * const,IConsole_Command *> >,stlp_std::priv::_MapTraitsT<stlp_std::pair<char const * const,IConsole_Command *> >,xalloc<stlp_std::pair<char const *,IConsole_Command *> > >::_M_create_node

; 368  :     _S_left(__parent) = __new_node;

	push	edi
	mov	esi, eax
	call	?_S_left@?$_Rb_tree@PBDUstr_pred@CConsole@@U?$pair@QBDPAVIConsole_Command@@@stlp_std@@U?$_Select1st@U?$pair@QBDPAVIConsole_Command@@@stlp_std@@@priv@4@U?$_MapTraitsT@U?$pair@QBDPAVIConsole_Command@@@stlp_std@@@64@V?$xalloc@U?$pair@PBDPAVIConsole_Command@@@stlp_std@@@@@priv@stlp_std@@KAAAPAU_Rb_tree_node_base@23@PAU423@@Z ; stlp_std::priv::_Rb_tree<char const *,CConsole::str_pred,stlp_std::pair<char const * const,IConsole_Command *>,stlp_std::priv::_Select1st<stlp_std::pair<char const * const,IConsole_Command *> >,stlp_std::priv::_MapTraitsT<stlp_std::pair<char const * const,IConsole_Command *> >,xalloc<stlp_std::pair<char const *,IConsole_Command *> > >::_S_left
	add	esp, 4

; 369  :     if (__parent == _M_leftmost())

	mov	ecx, ebx
	mov	DWORD PTR [eax], esi
	call	?_M_leftmost@?$_Rb_tree@PBDUstr_pred@CConsole@@U?$pair@QBDPAVIConsole_Command@@@stlp_std@@U?$_Select1st@U?$pair@QBDPAVIConsole_Command@@@stlp_std@@@priv@4@U?$_MapTraitsT@U?$pair@QBDPAVIConsole_Command@@@stlp_std@@@64@V?$xalloc@U?$pair@PBDPAVIConsole_Command@@@stlp_std@@@@@priv@stlp_std@@IAEAAPAU_Rb_tree_node_base@23@XZ ; stlp_std::priv::_Rb_tree<char const *,CConsole::str_pred,stlp_std::pair<char const * const,IConsole_Command *>,stlp_std::priv::_Select1st<stlp_std::pair<char const * const,IConsole_Command *> >,stlp_std::priv::_MapTraitsT<stlp_std::pair<char const * const,IConsole_Command *> >,xalloc<stlp_std::pair<char const *,IConsole_Command *> > >::_M_leftmost
	cmp	edi, DWORD PTR [eax]
	jne	SHORT $LN1@M_insert

; 370  :       _M_leftmost() = __new_node;   // maintain _M_leftmost() pointing to min node

	mov	ecx, ebx
	call	?_M_leftmost@?$_Rb_tree@PBDUstr_pred@CConsole@@U?$pair@QBDPAVIConsole_Command@@@stlp_std@@U?$_Select1st@U?$pair@QBDPAVIConsole_Command@@@stlp_std@@@priv@4@U?$_MapTraitsT@U?$pair@QBDPAVIConsole_Command@@@stlp_std@@@64@V?$xalloc@U?$pair@PBDPAVIConsole_Command@@@stlp_std@@@@@priv@stlp_std@@IAEAAPAU_Rb_tree_node_base@23@XZ ; stlp_std::priv::_Rb_tree<char const *,CConsole::str_pred,stlp_std::pair<char const * const,IConsole_Command *>,stlp_std::priv::_Select1st<stlp_std::pair<char const * const,IConsole_Command *> >,stlp_std::priv::_MapTraitsT<stlp_std::pair<char const * const,IConsole_Command *> >,xalloc<stlp_std::pair<char const *,IConsole_Command *> > >::_M_leftmost

; 371  :   }
; 372  :   else {

	jmp	SHORT $LN43@M_insert
$LN5@M_insert:

; 373  :     __new_node = _M_create_node(__val);

	push	esi
	mov	ecx, ebx
	call	?_M_create_node@?$_Rb_tree@PBDUstr_pred@CConsole@@U?$pair@QBDPAVIConsole_Command@@@stlp_std@@U?$_Select1st@U?$pair@QBDPAVIConsole_Command@@@stlp_std@@@priv@4@U?$_MapTraitsT@U?$pair@QBDPAVIConsole_Command@@@stlp_std@@@64@V?$xalloc@U?$pair@PBDPAVIConsole_Command@@@stlp_std@@@@@priv@stlp_std@@IAEPAU_Rb_tree_node_base@23@ABU?$pair@QBDPAVIConsole_Command@@@3@@Z ; stlp_std::priv::_Rb_tree<char const *,CConsole::str_pred,stlp_std::pair<char const * const,IConsole_Command *>,stlp_std::priv::_Select1st<stlp_std::pair<char const * const,IConsole_Command *> >,stlp_std::priv::_MapTraitsT<stlp_std::pair<char const * const,IConsole_Command *> >,xalloc<stlp_std::pair<char const *,IConsole_Command *> > >::_M_create_node

; 374  :     _S_right(__parent) = __new_node;

	push	edi
	mov	esi, eax
	call	?_S_right@?$_Rb_tree@PBDUstr_pred@CConsole@@U?$pair@QBDPAVIConsole_Command@@@stlp_std@@U?$_Select1st@U?$pair@QBDPAVIConsole_Command@@@stlp_std@@@priv@4@U?$_MapTraitsT@U?$pair@QBDPAVIConsole_Command@@@stlp_std@@@64@V?$xalloc@U?$pair@PBDPAVIConsole_Command@@@stlp_std@@@@@priv@stlp_std@@KAAAPAU_Rb_tree_node_base@23@PAU423@@Z ; stlp_std::priv::_Rb_tree<char const *,CConsole::str_pred,stlp_std::pair<char const * const,IConsole_Command *>,stlp_std::priv::_Select1st<stlp_std::pair<char const * const,IConsole_Command *> >,stlp_std::priv::_MapTraitsT<stlp_std::pair<char const * const,IConsole_Command *> >,xalloc<stlp_std::pair<char const *,IConsole_Command *> > >::_S_right
	add	esp, 4

; 375  :     if (__parent == _M_rightmost())

	mov	ecx, ebx
	mov	DWORD PTR [eax], esi
	call	?_M_rightmost@?$_Rb_tree@PBDUstr_pred@CConsole@@U?$pair@QBDPAVIConsole_Command@@@stlp_std@@U?$_Select1st@U?$pair@QBDPAVIConsole_Command@@@stlp_std@@@priv@4@U?$_MapTraitsT@U?$pair@QBDPAVIConsole_Command@@@stlp_std@@@64@V?$xalloc@U?$pair@PBDPAVIConsole_Command@@@stlp_std@@@@@priv@stlp_std@@IAEAAPAU_Rb_tree_node_base@23@XZ ; stlp_std::priv::_Rb_tree<char const *,CConsole::str_pred,stlp_std::pair<char const * const,IConsole_Command *>,stlp_std::priv::_Select1st<stlp_std::pair<char const * const,IConsole_Command *> >,stlp_std::priv::_MapTraitsT<stlp_std::pair<char const * const,IConsole_Command *> >,xalloc<stlp_std::pair<char const *,IConsole_Command *> > >::_M_rightmost
	cmp	edi, DWORD PTR [eax]
	jne	SHORT $LN1@M_insert
$LN42@M_insert:

; 376  :       _M_rightmost() = __new_node;  // maintain _M_rightmost() pointing to max node

	mov	ecx, ebx
	call	?_M_rightmost@?$_Rb_tree@PBDUstr_pred@CConsole@@U?$pair@QBDPAVIConsole_Command@@@stlp_std@@U?$_Select1st@U?$pair@QBDPAVIConsole_Command@@@stlp_std@@@priv@4@U?$_MapTraitsT@U?$pair@QBDPAVIConsole_Command@@@stlp_std@@@64@V?$xalloc@U?$pair@PBDPAVIConsole_Command@@@stlp_std@@@@@priv@stlp_std@@IAEAAPAU_Rb_tree_node_base@23@XZ ; stlp_std::priv::_Rb_tree<char const *,CConsole::str_pred,stlp_std::pair<char const * const,IConsole_Command *>,stlp_std::priv::_Select1st<stlp_std::pair<char const * const,IConsole_Command *> >,stlp_std::priv::_MapTraitsT<stlp_std::pair<char const * const,IConsole_Command *> >,xalloc<stlp_std::pair<char const *,IConsole_Command *> > >::_M_rightmost
$LN43@M_insert:
	mov	DWORD PTR [eax], esi
$LN1@M_insert:

; 377  :   }
; 378  :   _S_parent(__new_node) = __parent;

	push	esi
	call	?_S_parent@?$_Rb_tree@PBDUstr_pred@CConsole@@U?$pair@QBDPAVIConsole_Command@@@stlp_std@@U?$_Select1st@U?$pair@QBDPAVIConsole_Command@@@stlp_std@@@priv@4@U?$_MapTraitsT@U?$pair@QBDPAVIConsole_Command@@@stlp_std@@@64@V?$xalloc@U?$pair@PBDPAVIConsole_Command@@@stlp_std@@@@@priv@stlp_std@@KAAAPAU_Rb_tree_node_base@23@PAU423@@Z ; stlp_std::priv::_Rb_tree<char const *,CConsole::str_pred,stlp_std::pair<char const * const,IConsole_Command *>,stlp_std::priv::_Select1st<stlp_std::pair<char const * const,IConsole_Command *> >,stlp_std::priv::_MapTraitsT<stlp_std::pair<char const * const,IConsole_Command *> >,xalloc<stlp_std::pair<char const *,IConsole_Command *> > >::_S_parent
	mov	DWORD PTR [eax], edi
	add	esp, 4

; 379  :   _Rb_global_inst::_Rebalance(__new_node, this->_M_header._M_data._M_parent);

	lea	edi, DWORD PTR [ebx+4]
	mov	eax, esi
	call	?_Rebalance@?$_Rb_global@_N@priv@stlp_std@@SAXPAU_Rb_tree_node_base@23@AAPAU423@@Z ; stlp_std::priv::_Rb_global<bool>::_Rebalance

; 380  :   ++_M_node_count;

	add	DWORD PTR [ebx+16], 1
	pop	edi

; 381  :   return iterator(__new_node);

	mov	DWORD PTR [ebp], esi
	pop	esi
	mov	eax, ebp
	pop	ebp

; 382  : }

	ret	12					; 0000000cH
?_M_insert@?$_Rb_tree@PBDUstr_pred@CConsole@@U?$pair@QBDPAVIConsole_Command@@@stlp_std@@U?$_Select1st@U?$pair@QBDPAVIConsole_Command@@@stlp_std@@@priv@4@U?$_MapTraitsT@U?$pair@QBDPAVIConsole_Command@@@stlp_std@@@64@V?$xalloc@U?$pair@PBDPAVIConsole_Command@@@stlp_std@@@@@priv@stlp_std@@AAE?AU?$_Rb_tree_iterator@U?$pair@QBDPAVIConsole_Command@@@stlp_std@@U?$_MapTraitsT@U?$pair@QBDPAVIConsole_Command@@@stlp_std@@@priv@2@@23@PAU_Rb_tree_node_base@23@ABU?$pair@QBDPAVIConsole_Command@@@3@00@Z ENDP ; stlp_std::priv::_Rb_tree<char const *,CConsole::str_pred,stlp_std::pair<char const * const,IConsole_Command *>,stlp_std::priv::_Select1st<stlp_std::pair<char const * const,IConsole_Command *> >,stlp_std::priv::_MapTraitsT<stlp_std::pair<char const * const,IConsole_Command *> >,xalloc<stlp_std::pair<char const *,IConsole_Command *> > >::_M_insert
; Function compile flags: /Ogtpy
; File d:\clearsky\sources\sdk\include\stlport\stl\_algobase.c
_TEXT	ENDS
;	COMDAT ??$__find@PAUTipString@@Vshared_str@@@priv@stlp_std@@YAPAUTipString@@PAU2@0ABVshared_str@@ABUrandom_access_iterator_tag@1@@Z
_TEXT	SEGMENT
??$__find@PAUTipString@@Vshared_str@@@priv@stlp_std@@YAPAUTipString@@PAU2@0ABVshared_str@@ABUrandom_access_iterator_tag@1@@Z PROC ; stlp_std::priv::__find<TipString *,shared_str>, COMDAT
; ___first$ = ecx
; ___last$ = esi
; ___val$ = edi

; 108  :   _STLP_DIFFERENCE_TYPE(_RandomAccessIter) __trip_count = (__last - __first) >> 2;

	mov	edx, esi
	sub	edx, ecx
	mov	eax, 715827883				; 2aaaaaabH
	imul	edx
	sar	edx, 1
	mov	eax, edx
	shr	eax, 31					; 0000001fH
	add	eax, edx
	sar	eax, 2

; 109  : 
; 110  :   for ( ; __trip_count > 0 ; --__trip_count) {

	test	eax, eax
	jle	SHORT $LN14@find@7
	mov	edx, DWORD PTR [edi]
	npad	3
$LL16@find@7:

; 111  :     if (*__first == __val) return __first;

	cmp	DWORD PTR [ecx], edx
	je	SHORT $LN76@find@7

; 112  :     ++__first;

	add	ecx, 12					; 0000000cH

; 113  : 
; 114  :     if (*__first == __val) return __first;

	cmp	DWORD PTR [ecx], edx
	je	SHORT $LN76@find@7

; 115  :     ++__first;

	add	ecx, 12					; 0000000cH

; 116  : 
; 117  :     if (*__first == __val) return __first;

	cmp	DWORD PTR [ecx], edx
	je	SHORT $LN76@find@7

; 118  :     ++__first;

	add	ecx, 12					; 0000000cH

; 119  : 
; 120  :     if (*__first == __val) return __first;

	cmp	DWORD PTR [ecx], edx
	je	SHORT $LN76@find@7
	sub	eax, 1

; 121  :     ++__first;

	add	ecx, 12					; 0000000cH
	test	eax, eax
	jg	SHORT $LL16@find@7
$LN14@find@7:

; 122  :   }
; 123  : 
; 124  :   switch (__last - __first) {

	mov	edx, esi
	sub	edx, ecx
	mov	eax, 715827883				; 2aaaaaabH
	imul	edx
	sar	edx, 1
	mov	eax, edx
	shr	eax, 31					; 0000001fH
	add	eax, edx
	sub	eax, 1
	je	SHORT $LN3@find@7
	sub	eax, 1
	je	SHORT $LN5@find@7
	sub	eax, 1
	jne	SHORT $LN2@find@7

; 125  :   case 3:
; 126  :     if (*__first == __val) return __first;

	mov	edx, DWORD PTR [ecx]
	cmp	edx, DWORD PTR [edi]
	je	SHORT $LN76@find@7

; 127  :     ++__first;

	add	ecx, 12					; 0000000cH
$LN5@find@7:

; 128  :   case 2:
; 129  :     if (*__first == __val) return __first;

	mov	eax, DWORD PTR [ecx]
	cmp	eax, DWORD PTR [edi]
	je	SHORT $LN76@find@7

; 130  :     ++__first;

	add	ecx, 12					; 0000000cH
$LN3@find@7:

; 131  :   case 1:
; 132  :     if (*__first == __val) return __first;

	mov	edx, DWORD PTR [ecx]
	cmp	edx, DWORD PTR [edi]
	mov	eax, ecx
	je	SHORT $LN8@find@7
$LN2@find@7:

; 133  :     //++__first;
; 134  :   case 0:
; 135  :   default:
; 136  :     return __last;

	mov	eax, esi
$LN8@find@7:

; 137  :   }
; 138  : }

	ret	0
$LN76@find@7:

; 111  :     if (*__first == __val) return __first;

	mov	eax, ecx

; 137  :   }
; 138  : }

	ret	0
??$__find@PAUTipString@@Vshared_str@@@priv@stlp_std@@YAPAUTipString@@PAU2@0ABVshared_str@@ABUrandom_access_iterator_tag@1@@Z ENDP ; stlp_std::priv::__find<TipString *,shared_str>
; Function compile flags: /Ogtpy
; File d:\clearsky\sources\sdk\include\stlport\stl\_tree.h
_TEXT	ENDS
;	COMDAT ??$lower_bound@PAD@?$_Rb_tree@PBDUstr_pred@CConsole@@U?$pair@QBDPAVIConsole_Command@@@stlp_std@@U?$_Select1st@U?$pair@QBDPAVIConsole_Command@@@stlp_std@@@priv@4@U?$_MapTraitsT@U?$pair@QBDPAVIConsole_Command@@@stlp_std@@@64@V?$xalloc@U?$pair@PBDPAVIConsole_Command@@@stlp_std@@@@@priv@stlp_std@@QAE?AU?$_Rb_tree_iterator@U?$pair@QBDPAVIConsole_Command@@@stlp_std@@U?$_MapTraitsT@U?$pair@QBDPAVIConsole_Command@@@stlp_std@@@priv@2@@12@ABQAD@Z
_TEXT	SEGMENT
??$lower_bound@PAD@?$_Rb_tree@PBDUstr_pred@CConsole@@U?$pair@QBDPAVIConsole_Command@@@stlp_std@@U?$_Select1st@U?$pair@QBDPAVIConsole_Command@@@stlp_std@@@priv@4@U?$_MapTraitsT@U?$pair@QBDPAVIConsole_Command@@@stlp_std@@@64@V?$xalloc@U?$pair@PBDPAVIConsole_Command@@@stlp_std@@@@@priv@stlp_std@@QAE?AU?$_Rb_tree_iterator@U?$pair@QBDPAVIConsole_Command@@@stlp_std@@U?$_MapTraitsT@U?$pair@QBDPAVIConsole_Command@@@stlp_std@@@priv@2@@12@ABQAD@Z PROC ; stlp_std::priv::_Rb_tree<char const *,CConsole::str_pred,stlp_std::pair<char const * const,IConsole_Command *>,stlp_std::priv::_Select1st<stlp_std::pair<char const * const,IConsole_Command *> >,stlp_std::priv::_MapTraitsT<stlp_std::pair<char const * const,IConsole_Command *> >,xalloc<stlp_std::pair<char const *,IConsole_Command *> > >::lower_bound<char *>, COMDAT
; _this$ = ecx
; ___$ReturnUdt$ = esi
; ___x$ = ebx

; 596  :   iterator lower_bound(const _KT& __x) { return iterator(_M_lower_bound(__x)); }

	call	??$_M_lower_bound@PAD@?$_Rb_tree@PBDUstr_pred@CConsole@@U?$pair@QBDPAVIConsole_Command@@@stlp_std@@U?$_Select1st@U?$pair@QBDPAVIConsole_Command@@@stlp_std@@@priv@4@U?$_MapTraitsT@U?$pair@QBDPAVIConsole_Command@@@stlp_std@@@64@V?$xalloc@U?$pair@PBDPAVIConsole_Command@@@stlp_std@@@@@priv@stlp_std@@ABEPAU_Rb_tree_node_base@12@ABQAD@Z ; stlp_std::priv::_Rb_tree<char const *,CConsole::str_pred,stlp_std::pair<char const * const,IConsole_Command *>,stlp_std::priv::_Select1st<stlp_std::pair<char const * const,IConsole_Command *> >,stlp_std::priv::_MapTraitsT<stlp_std::pair<char const * const,IConsole_Command *> >,xalloc<stlp_std::pair<char const *,IConsole_Command *> > >::_M_lower_bound<char *>
	mov	DWORD PTR [esi], eax
	mov	eax, esi
	ret	0
??$lower_bound@PAD@?$_Rb_tree@PBDUstr_pred@CConsole@@U?$pair@QBDPAVIConsole_Command@@@stlp_std@@U?$_Select1st@U?$pair@QBDPAVIConsole_Command@@@stlp_std@@@priv@4@U?$_MapTraitsT@U?$pair@QBDPAVIConsole_Command@@@stlp_std@@@64@V?$xalloc@U?$pair@PBDPAVIConsole_Command@@@stlp_std@@@@@priv@stlp_std@@QAE?AU?$_Rb_tree_iterator@U?$pair@QBDPAVIConsole_Command@@@stlp_std@@U?$_MapTraitsT@U?$pair@QBDPAVIConsole_Command@@@stlp_std@@@priv@2@@12@ABQAD@Z ENDP ; stlp_std::priv::_Rb_tree<char const *,CConsole::str_pred,stlp_std::pair<char const * const,IConsole_Command *>,stlp_std::priv::_Select1st<stlp_std::pair<char const * const,IConsole_Command *> >,stlp_std::priv::_MapTraitsT<stlp_std::pair<char const * const,IConsole_Command *> >,xalloc<stlp_std::pair<char const *,IConsole_Command *> > >::lower_bound<char *>
; Function compile flags: /Ogtpy
_TEXT	ENDS
;	COMDAT ??$find@PAD@?$_Rb_tree@PBDUstr_pred@CConsole@@U?$pair@QBDPAVIConsole_Command@@@stlp_std@@U?$_Select1st@U?$pair@QBDPAVIConsole_Command@@@stlp_std@@@priv@4@U?$_MapTraitsT@U?$pair@QBDPAVIConsole_Command@@@stlp_std@@@64@V?$xalloc@U?$pair@PBDPAVIConsole_Command@@@stlp_std@@@@@priv@stlp_std@@QAE?AU?$_Rb_tree_iterator@U?$pair@QBDPAVIConsole_Command@@@stlp_std@@U?$_MapTraitsT@U?$pair@QBDPAVIConsole_Command@@@stlp_std@@@priv@2@@12@ABQAD@Z
_TEXT	SEGMENT
??$find@PAD@?$_Rb_tree@PBDUstr_pred@CConsole@@U?$pair@QBDPAVIConsole_Command@@@stlp_std@@U?$_Select1st@U?$pair@QBDPAVIConsole_Command@@@stlp_std@@@priv@4@U?$_MapTraitsT@U?$pair@QBDPAVIConsole_Command@@@stlp_std@@@64@V?$xalloc@U?$pair@PBDPAVIConsole_Command@@@stlp_std@@@@@priv@stlp_std@@QAE?AU?$_Rb_tree_iterator@U?$pair@QBDPAVIConsole_Command@@@stlp_std@@U?$_MapTraitsT@U?$pair@QBDPAVIConsole_Command@@@stlp_std@@@priv@2@@12@ABQAD@Z PROC ; stlp_std::priv::_Rb_tree<char const *,CConsole::str_pred,stlp_std::pair<char const * const,IConsole_Command *>,stlp_std::priv::_Select1st<stlp_std::pair<char const * const,IConsole_Command *> >,stlp_std::priv::_MapTraitsT<stlp_std::pair<char const * const,IConsole_Command *> >,xalloc<stlp_std::pair<char const *,IConsole_Command *> > >::find<char *>, COMDAT
; _this$ = eax
; ___$ReturnUdt$ = esi
; ___k$ = edi

; 538  :   iterator find(const _KT& __k) { return iterator(_M_find(__k)); }

	push	eax
	call	??$_M_find@PAD@?$_Rb_tree@PBDUstr_pred@CConsole@@U?$pair@QBDPAVIConsole_Command@@@stlp_std@@U?$_Select1st@U?$pair@QBDPAVIConsole_Command@@@stlp_std@@@priv@4@U?$_MapTraitsT@U?$pair@QBDPAVIConsole_Command@@@stlp_std@@@64@V?$xalloc@U?$pair@PBDPAVIConsole_Command@@@stlp_std@@@@@priv@stlp_std@@ABEPAU_Rb_tree_node_base@12@ABQAD@Z ; stlp_std::priv::_Rb_tree<char const *,CConsole::str_pred,stlp_std::pair<char const * const,IConsole_Command *>,stlp_std::priv::_Select1st<stlp_std::pair<char const * const,IConsole_Command *> >,stlp_std::priv::_MapTraitsT<stlp_std::pair<char const * const,IConsole_Command *> >,xalloc<stlp_std::pair<char const *,IConsole_Command *> > >::_M_find<char *>
	mov	DWORD PTR [esi], eax
	mov	eax, esi
	ret	0
??$find@PAD@?$_Rb_tree@PBDUstr_pred@CConsole@@U?$pair@QBDPAVIConsole_Command@@@stlp_std@@U?$_Select1st@U?$pair@QBDPAVIConsole_Command@@@stlp_std@@@priv@4@U?$_MapTraitsT@U?$pair@QBDPAVIConsole_Command@@@stlp_std@@@64@V?$xalloc@U?$pair@PBDPAVIConsole_Command@@@stlp_std@@@@@priv@stlp_std@@QAE?AU?$_Rb_tree_iterator@U?$pair@QBDPAVIConsole_Command@@@stlp_std@@U?$_MapTraitsT@U?$pair@QBDPAVIConsole_Command@@@stlp_std@@@priv@2@@12@ABQAD@Z ENDP ; stlp_std::priv::_Rb_tree<char const *,CConsole::str_pred,stlp_std::pair<char const * const,IConsole_Command *>,stlp_std::priv::_Select1st<stlp_std::pair<char const * const,IConsole_Command *> >,stlp_std::priv::_MapTraitsT<stlp_std::pair<char const * const,IConsole_Command *> >,xalloc<stlp_std::pair<char const *,IConsole_Command *> > >::find<char *>
; Function compile flags: /Ogtpy
_TEXT	ENDS
;	COMDAT ??$find@PBD@?$_Rb_tree@PBDUstr_pred@CConsole@@U?$pair@QBDPAVIConsole_Command@@@stlp_std@@U?$_Select1st@U?$pair@QBDPAVIConsole_Command@@@stlp_std@@@priv@4@U?$_MapTraitsT@U?$pair@QBDPAVIConsole_Command@@@stlp_std@@@64@V?$xalloc@U?$pair@PBDPAVIConsole_Command@@@stlp_std@@@@@priv@stlp_std@@QAE?AU?$_Rb_tree_iterator@U?$pair@QBDPAVIConsole_Command@@@stlp_std@@U?$_MapTraitsT@U?$pair@QBDPAVIConsole_Command@@@stlp_std@@@priv@2@@12@ABQBD@Z
_TEXT	SEGMENT
??$find@PBD@?$_Rb_tree@PBDUstr_pred@CConsole@@U?$pair@QBDPAVIConsole_Command@@@stlp_std@@U?$_Select1st@U?$pair@QBDPAVIConsole_Command@@@stlp_std@@@priv@4@U?$_MapTraitsT@U?$pair@QBDPAVIConsole_Command@@@stlp_std@@@64@V?$xalloc@U?$pair@PBDPAVIConsole_Command@@@stlp_std@@@@@priv@stlp_std@@QAE?AU?$_Rb_tree_iterator@U?$pair@QBDPAVIConsole_Command@@@stlp_std@@U?$_MapTraitsT@U?$pair@QBDPAVIConsole_Command@@@stlp_std@@@priv@2@@12@ABQBD@Z PROC ; stlp_std::priv::_Rb_tree<char const *,CConsole::str_pred,stlp_std::pair<char const * const,IConsole_Command *>,stlp_std::priv::_Select1st<stlp_std::pair<char const * const,IConsole_Command *> >,stlp_std::priv::_MapTraitsT<stlp_std::pair<char const * const,IConsole_Command *> >,xalloc<stlp_std::pair<char const *,IConsole_Command *> > >::find<char const *>, COMDAT
; _this$ = eax
; ___$ReturnUdt$ = esi
; ___k$ = edi

; 538  :   iterator find(const _KT& __k) { return iterator(_M_find(__k)); }

	push	eax
	call	??$_M_find@PBD@?$_Rb_tree@PBDUstr_pred@CConsole@@U?$pair@QBDPAVIConsole_Command@@@stlp_std@@U?$_Select1st@U?$pair@QBDPAVIConsole_Command@@@stlp_std@@@priv@4@U?$_MapTraitsT@U?$pair@QBDPAVIConsole_Command@@@stlp_std@@@64@V?$xalloc@U?$pair@PBDPAVIConsole_Command@@@stlp_std@@@@@priv@stlp_std@@ABEPAU_Rb_tree_node_base@12@ABQBD@Z ; stlp_std::priv::_Rb_tree<char const *,CConsole::str_pred,stlp_std::pair<char const * const,IConsole_Command *>,stlp_std::priv::_Select1st<stlp_std::pair<char const * const,IConsole_Command *> >,stlp_std::priv::_MapTraitsT<stlp_std::pair<char const * const,IConsole_Command *> >,xalloc<stlp_std::pair<char const *,IConsole_Command *> > >::_M_find<char const *>
	mov	DWORD PTR [esi], eax
	mov	eax, esi
	ret	0
??$find@PBD@?$_Rb_tree@PBDUstr_pred@CConsole@@U?$pair@QBDPAVIConsole_Command@@@stlp_std@@U?$_Select1st@U?$pair@QBDPAVIConsole_Command@@@stlp_std@@@priv@4@U?$_MapTraitsT@U?$pair@QBDPAVIConsole_Command@@@stlp_std@@@64@V?$xalloc@U?$pair@PBDPAVIConsole_Command@@@stlp_std@@@@@priv@stlp_std@@QAE?AU?$_Rb_tree_iterator@U?$pair@QBDPAVIConsole_Command@@@stlp_std@@U?$_MapTraitsT@U?$pair@QBDPAVIConsole_Command@@@stlp_std@@@priv@2@@12@ABQBD@Z ENDP ; stlp_std::priv::_Rb_tree<char const *,CConsole::str_pred,stlp_std::pair<char const * const,IConsole_Command *>,stlp_std::priv::_Select1st<stlp_std::pair<char const * const,IConsole_Command *> >,stlp_std::priv::_MapTraitsT<stlp_std::pair<char const * const,IConsole_Command *> >,xalloc<stlp_std::pair<char const *,IConsole_Command *> > >::find<char const *>
; Function compile flags: /Ogtpy
; File d:\clearsky\sources\sdk\include\stlport\stl\_map.h
_TEXT	ENDS
;	COMDAT ??$lower_bound@PBD@?$map@PBDPAVIConsole_Command@@Ustr_pred@CConsole@@V?$xalloc@U?$pair@PBDPAVIConsole_Command@@@stlp_std@@@@@stlp_std@@QAE?AU?$_Rb_tree_iterator@U?$pair@QBDPAVIConsole_Command@@@stlp_std@@U?$_MapTraitsT@U?$pair@QBDPAVIConsole_Command@@@stlp_std@@@priv@2@@priv@1@ABQBD@Z
_TEXT	SEGMENT
??$lower_bound@PBD@?$map@PBDPAVIConsole_Command@@Ustr_pred@CConsole@@V?$xalloc@U?$pair@PBDPAVIConsole_Command@@@stlp_std@@@@@stlp_std@@QAE?AU?$_Rb_tree_iterator@U?$pair@QBDPAVIConsole_Command@@@stlp_std@@U?$_MapTraitsT@U?$pair@QBDPAVIConsole_Command@@@stlp_std@@@priv@2@@priv@1@ABQBD@Z PROC ; stlp_std::map<char const *,IConsole_Command *,CConsole::str_pred,xalloc<stlp_std::pair<char const *,IConsole_Command *> > >::lower_bound<char const *>, COMDAT
; _this$ = ecx
; ___$ReturnUdt$ = esi
; ___x$ = ebx

; 211  :   iterator lower_bound(const _KT& __x) { return _M_t.lower_bound(__x); }

	call	??$_M_lower_bound@PBD@?$_Rb_tree@PBDUstr_pred@CConsole@@U?$pair@QBDPAVIConsole_Command@@@stlp_std@@U?$_Select1st@U?$pair@QBDPAVIConsole_Command@@@stlp_std@@@priv@4@U?$_MapTraitsT@U?$pair@QBDPAVIConsole_Command@@@stlp_std@@@64@V?$xalloc@U?$pair@PBDPAVIConsole_Command@@@stlp_std@@@@@priv@stlp_std@@ABEPAU_Rb_tree_node_base@12@ABQBD@Z ; stlp_std::priv::_Rb_tree<char const *,CConsole::str_pred,stlp_std::pair<char const * const,IConsole_Command *>,stlp_std::priv::_Select1st<stlp_std::pair<char const * const,IConsole_Command *> >,stlp_std::priv::_MapTraitsT<stlp_std::pair<char const * const,IConsole_Command *> >,xalloc<stlp_std::pair<char const *,IConsole_Command *> > >::_M_lower_bound<char const *>
	mov	DWORD PTR [esi], eax
	mov	eax, esi
	ret	0
??$lower_bound@PBD@?$map@PBDPAVIConsole_Command@@Ustr_pred@CConsole@@V?$xalloc@U?$pair@PBDPAVIConsole_Command@@@stlp_std@@@@@stlp_std@@QAE?AU?$_Rb_tree_iterator@U?$pair@QBDPAVIConsole_Command@@@stlp_std@@U?$_MapTraitsT@U?$pair@QBDPAVIConsole_Command@@@stlp_std@@@priv@2@@priv@1@ABQBD@Z ENDP ; stlp_std::map<char const *,IConsole_Command *,CConsole::str_pred,xalloc<stlp_std::pair<char const *,IConsole_Command *> > >::lower_bound<char const *>
; Function compile flags: /Ogtpy
; File d:\clearsky\sources\sdk\include\stlport\stl\_algobase.c
_TEXT	ENDS
;	COMDAT ??$find@PAUTipString@@Vshared_str@@@stlp_std@@YAPAUTipString@@PAU1@0ABVshared_str@@@Z
_TEXT	SEGMENT
??$find@PAUTipString@@Vshared_str@@@stlp_std@@YAPAUTipString@@PAU1@0ABVshared_str@@@Z PROC ; stlp_std::find<TipString *,shared_str>, COMDAT
; ___first$ = ecx
; ___last$ = esi
; ___val$ = edi

; 215  :   _STLP_DEBUG_CHECK(_STLP_PRIV __check_range(__first, __last))
; 216  :   return _STLP_PRIV __find(__first, __last, __val, _STLP_ITERATOR_CATEGORY(__first, _InputIter));

	jmp	??$__find@PAUTipString@@Vshared_str@@@priv@stlp_std@@YAPAUTipString@@PAU2@0ABVshared_str@@ABUrandom_access_iterator_tag@1@@Z ; stlp_std::priv::__find<TipString *,shared_str>
??$find@PAUTipString@@Vshared_str@@@stlp_std@@YAPAUTipString@@PAU1@0ABVshared_str@@@Z ENDP ; stlp_std::find<TipString *,shared_str>
; Function compile flags: /Ogtpy
; File d:\clearsky\sources\sdk\include\stlport\stl\_map.h
_TEXT	ENDS
;	COMDAT ??$lower_bound@PAD@?$map@PBDPAVIConsole_Command@@Ustr_pred@CConsole@@V?$xalloc@U?$pair@PBDPAVIConsole_Command@@@stlp_std@@@@@stlp_std@@QAE?AU?$_Rb_tree_iterator@U?$pair@QBDPAVIConsole_Command@@@stlp_std@@U?$_MapTraitsT@U?$pair@QBDPAVIConsole_Command@@@stlp_std@@@priv@2@@priv@1@ABQAD@Z
_TEXT	SEGMENT
??$lower_bound@PAD@?$map@PBDPAVIConsole_Command@@Ustr_pred@CConsole@@V?$xalloc@U?$pair@PBDPAVIConsole_Command@@@stlp_std@@@@@stlp_std@@QAE?AU?$_Rb_tree_iterator@U?$pair@QBDPAVIConsole_Command@@@stlp_std@@U?$_MapTraitsT@U?$pair@QBDPAVIConsole_Command@@@stlp_std@@@priv@2@@priv@1@ABQAD@Z PROC ; stlp_std::map<char const *,IConsole_Command *,CConsole::str_pred,xalloc<stlp_std::pair<char const *,IConsole_Command *> > >::lower_bound<char *>, COMDAT
; _this$ = ecx
; ___$ReturnUdt$ = esi
; ___x$ = ebx

; 211  :   iterator lower_bound(const _KT& __x) { return _M_t.lower_bound(__x); }

	call	??$_M_lower_bound@PAD@?$_Rb_tree@PBDUstr_pred@CConsole@@U?$pair@QBDPAVIConsole_Command@@@stlp_std@@U?$_Select1st@U?$pair@QBDPAVIConsole_Command@@@stlp_std@@@priv@4@U?$_MapTraitsT@U?$pair@QBDPAVIConsole_Command@@@stlp_std@@@64@V?$xalloc@U?$pair@PBDPAVIConsole_Command@@@stlp_std@@@@@priv@stlp_std@@ABEPAU_Rb_tree_node_base@12@ABQAD@Z ; stlp_std::priv::_Rb_tree<char const *,CConsole::str_pred,stlp_std::pair<char const * const,IConsole_Command *>,stlp_std::priv::_Select1st<stlp_std::pair<char const * const,IConsole_Command *> >,stlp_std::priv::_MapTraitsT<stlp_std::pair<char const * const,IConsole_Command *> >,xalloc<stlp_std::pair<char const *,IConsole_Command *> > >::_M_lower_bound<char *>
	mov	DWORD PTR [esi], eax
	mov	eax, esi
	ret	0
??$lower_bound@PAD@?$map@PBDPAVIConsole_Command@@Ustr_pred@CConsole@@V?$xalloc@U?$pair@PBDPAVIConsole_Command@@@stlp_std@@@@@stlp_std@@QAE?AU?$_Rb_tree_iterator@U?$pair@QBDPAVIConsole_Command@@@stlp_std@@U?$_MapTraitsT@U?$pair@QBDPAVIConsole_Command@@@stlp_std@@@priv@2@@priv@1@ABQAD@Z ENDP ; stlp_std::map<char const *,IConsole_Command *,CConsole::str_pred,xalloc<stlp_std::pair<char const *,IConsole_Command *> > >::lower_bound<char *>
; Function compile flags: /Ogtpy
_TEXT	ENDS
;	COMDAT ??$find@PAD@?$map@PBDPAVIConsole_Command@@Ustr_pred@CConsole@@V?$xalloc@U?$pair@PBDPAVIConsole_Command@@@stlp_std@@@@@stlp_std@@QAE?AU?$_Rb_tree_iterator@U?$pair@QBDPAVIConsole_Command@@@stlp_std@@U?$_MapTraitsT@U?$pair@QBDPAVIConsole_Command@@@stlp_std@@@priv@2@@priv@1@ABQAD@Z
_TEXT	SEGMENT
??$find@PAD@?$map@PBDPAVIConsole_Command@@Ustr_pred@CConsole@@V?$xalloc@U?$pair@PBDPAVIConsole_Command@@@stlp_std@@@@@stlp_std@@QAE?AU?$_Rb_tree_iterator@U?$pair@QBDPAVIConsole_Command@@@stlp_std@@U?$_MapTraitsT@U?$pair@QBDPAVIConsole_Command@@@stlp_std@@@priv@2@@priv@1@ABQAD@Z PROC ; stlp_std::map<char const *,IConsole_Command *,CConsole::str_pred,xalloc<stlp_std::pair<char const *,IConsole_Command *> > >::find<char *>, COMDAT
; _this$ = eax
; ___$ReturnUdt$ = esi
; ___x$ = edi

; 205  :   iterator find(const _KT& __x) { return _M_t.find(__x); }

	push	eax
	call	??$_M_find@PAD@?$_Rb_tree@PBDUstr_pred@CConsole@@U?$pair@QBDPAVIConsole_Command@@@stlp_std@@U?$_Select1st@U?$pair@QBDPAVIConsole_Command@@@stlp_std@@@priv@4@U?$_MapTraitsT@U?$pair@QBDPAVIConsole_Command@@@stlp_std@@@64@V?$xalloc@U?$pair@PBDPAVIConsole_Command@@@stlp_std@@@@@priv@stlp_std@@ABEPAU_Rb_tree_node_base@12@ABQAD@Z ; stlp_std::priv::_Rb_tree<char const *,CConsole::str_pred,stlp_std::pair<char const * const,IConsole_Command *>,stlp_std::priv::_Select1st<stlp_std::pair<char const * const,IConsole_Command *> >,stlp_std::priv::_MapTraitsT<stlp_std::pair<char const * const,IConsole_Command *> >,xalloc<stlp_std::pair<char const *,IConsole_Command *> > >::_M_find<char *>
	mov	DWORD PTR [esi], eax
	mov	eax, esi
	ret	0
??$find@PAD@?$map@PBDPAVIConsole_Command@@Ustr_pred@CConsole@@V?$xalloc@U?$pair@PBDPAVIConsole_Command@@@stlp_std@@@@@stlp_std@@QAE?AU?$_Rb_tree_iterator@U?$pair@QBDPAVIConsole_Command@@@stlp_std@@U?$_MapTraitsT@U?$pair@QBDPAVIConsole_Command@@@stlp_std@@@priv@2@@priv@1@ABQAD@Z ENDP ; stlp_std::map<char const *,IConsole_Command *,CConsole::str_pred,xalloc<stlp_std::pair<char const *,IConsole_Command *> > >::find<char *>
; Function compile flags: /Ogtpy
_TEXT	ENDS
;	COMDAT ??$find@PBD@?$map@PBDPAVIConsole_Command@@Ustr_pred@CConsole@@V?$xalloc@U?$pair@PBDPAVIConsole_Command@@@stlp_std@@@@@stlp_std@@QAE?AU?$_Rb_tree_iterator@U?$pair@QBDPAVIConsole_Command@@@stlp_std@@U?$_MapTraitsT@U?$pair@QBDPAVIConsole_Command@@@stlp_std@@@priv@2@@priv@1@ABQBD@Z
_TEXT	SEGMENT
??$find@PBD@?$map@PBDPAVIConsole_Command@@Ustr_pred@CConsole@@V?$xalloc@U?$pair@PBDPAVIConsole_Command@@@stlp_std@@@@@stlp_std@@QAE?AU?$_Rb_tree_iterator@U?$pair@QBDPAVIConsole_Command@@@stlp_std@@U?$_MapTraitsT@U?$pair@QBDPAVIConsole_Command@@@stlp_std@@@priv@2@@priv@1@ABQBD@Z PROC ; stlp_std::map<char const *,IConsole_Command *,CConsole::str_pred,xalloc<stlp_std::pair<char const *,IConsole_Command *> > >::find<char const *>, COMDAT
; _this$ = eax
; ___$ReturnUdt$ = esi
; ___x$ = edi

; 205  :   iterator find(const _KT& __x) { return _M_t.find(__x); }

	push	eax
	call	??$_M_find@PBD@?$_Rb_tree@PBDUstr_pred@CConsole@@U?$pair@QBDPAVIConsole_Command@@@stlp_std@@U?$_Select1st@U?$pair@QBDPAVIConsole_Command@@@stlp_std@@@priv@4@U?$_MapTraitsT@U?$pair@QBDPAVIConsole_Command@@@stlp_std@@@64@V?$xalloc@U?$pair@PBDPAVIConsole_Command@@@stlp_std@@@@@priv@stlp_std@@ABEPAU_Rb_tree_node_base@12@ABQBD@Z ; stlp_std::priv::_Rb_tree<char const *,CConsole::str_pred,stlp_std::pair<char const * const,IConsole_Command *>,stlp_std::priv::_Select1st<stlp_std::pair<char const * const,IConsole_Command *> >,stlp_std::priv::_MapTraitsT<stlp_std::pair<char const * const,IConsole_Command *> >,xalloc<stlp_std::pair<char const *,IConsole_Command *> > >::_M_find<char const *>
	mov	DWORD PTR [esi], eax
	mov	eax, esi
	ret	0
??$find@PBD@?$map@PBDPAVIConsole_Command@@Ustr_pred@CConsole@@V?$xalloc@U?$pair@PBDPAVIConsole_Command@@@stlp_std@@@@@stlp_std@@QAE?AU?$_Rb_tree_iterator@U?$pair@QBDPAVIConsole_Command@@@stlp_std@@U?$_MapTraitsT@U?$pair@QBDPAVIConsole_Command@@@stlp_std@@@priv@2@@priv@1@ABQBD@Z ENDP ; stlp_std::map<char const *,IConsole_Command *,CConsole::str_pred,xalloc<stlp_std::pair<char const *,IConsole_Command *> > >::find<char const *>
; Function compile flags: /Ogtpy
; File d:\clearsky\sources\sdk\include\stlport\stl\_vector.h
_TEXT	ENDS
;	COMDAT ??0?$_Vector_base@UTipString@@V?$xalloc@UTipString@@@@@priv@stlp_std@@QAE@ABV?$xalloc@UTipString@@@@@Z
_TEXT	SEGMENT
??0?$_Vector_base@UTipString@@V?$xalloc@UTipString@@@@@priv@stlp_std@@QAE@ABV?$xalloc@UTipString@@@@@Z PROC ; stlp_std::priv::_Vector_base<TipString,xalloc<TipString> >::_Vector_base<TipString,xalloc<TipString> >, COMDAT
; _this$ = esi
; ___a$ = eax

; 67   :     : _M_start(0), _M_finish(0), _M_end_of_storage(__a, 0) {}

	push	0
	push	eax
	lea	ecx, DWORD PTR [esi+8]
	mov	DWORD PTR [esi], 0
	mov	DWORD PTR [esi+4], 0
	call	??0?$_STLP_alloc_proxy@PAUTipString@@U1@V?$xalloc@UTipString@@@@@priv@stlp_std@@QAE@ABV?$xalloc@UTipString@@@@PAUTipString@@@Z ; stlp_std::priv::_STLP_alloc_proxy<TipString *,TipString,xalloc<TipString> >::_STLP_alloc_proxy<TipString *,TipString,xalloc<TipString> >
	mov	eax, esi
	ret	0
??0?$_Vector_base@UTipString@@V?$xalloc@UTipString@@@@@priv@stlp_std@@QAE@ABV?$xalloc@UTipString@@@@@Z ENDP ; stlp_std::priv::_Vector_base<TipString,xalloc<TipString> >::_Vector_base<TipString,xalloc<TipString> >
; Function compile flags: /Ogtpy
_TEXT	ENDS
;	COMDAT ??0?$_Impl_vector@UTipString@@V?$xalloc@UTipString@@@@@priv@stlp_std@@QAE@ABV?$xalloc@UTipString@@@@@Z
_TEXT	SEGMENT
??0?$_Impl_vector@UTipString@@V?$xalloc@UTipString@@@@@priv@stlp_std@@QAE@ABV?$xalloc@UTipString@@@@@Z PROC ; stlp_std::priv::_Impl_vector<TipString,xalloc<TipString> >::_Impl_vector<TipString,xalloc<TipString> >, COMDAT
; _this$ = esi
; ___a$ = eax

; 208  :     : _STLP_PRIV _Vector_base<_Tp, _Alloc>(__a) {}

	push	0
	push	eax
	lea	ecx, DWORD PTR [esi+8]
	mov	DWORD PTR [esi], 0
	mov	DWORD PTR [esi+4], 0
	call	??0?$_STLP_alloc_proxy@PAUTipString@@U1@V?$xalloc@UTipString@@@@@priv@stlp_std@@QAE@ABV?$xalloc@UTipString@@@@PAUTipString@@@Z ; stlp_std::priv::_STLP_alloc_proxy<TipString *,TipString,xalloc<TipString> >::_STLP_alloc_proxy<TipString *,TipString,xalloc<TipString> >
	mov	eax, esi
	ret	0
??0?$_Impl_vector@UTipString@@V?$xalloc@UTipString@@@@@priv@stlp_std@@QAE@ABV?$xalloc@UTipString@@@@@Z ENDP ; stlp_std::priv::_Impl_vector<TipString,xalloc<TipString> >::_Impl_vector<TipString,xalloc<TipString> >
; Function compile flags: /Ogtpy
; File d:\clearsky\sources\sdk\include\stlport\stl\_tree.h
_TEXT	ENDS
;	COMDAT ?erase@?$_Rb_tree@PBDUstr_pred@CConsole@@U?$pair@QBDPAVIConsole_Command@@@stlp_std@@U?$_Select1st@U?$pair@QBDPAVIConsole_Command@@@stlp_std@@@priv@4@U?$_MapTraitsT@U?$pair@QBDPAVIConsole_Command@@@stlp_std@@@64@V?$xalloc@U?$pair@PBDPAVIConsole_Command@@@stlp_std@@@@@priv@stlp_std@@QAEXU?$_Rb_tree_iterator@U?$pair@QBDPAVIConsole_Command@@@stlp_std@@U?$_MapTraitsT@U?$pair@QBDPAVIConsole_Command@@@stlp_std@@@priv@2@@23@@Z
_TEXT	SEGMENT
___pos$ = 8						; size = 4
?erase@?$_Rb_tree@PBDUstr_pred@CConsole@@U?$pair@QBDPAVIConsole_Command@@@stlp_std@@U?$_Select1st@U?$pair@QBDPAVIConsole_Command@@@stlp_std@@@priv@4@U?$_MapTraitsT@U?$pair@QBDPAVIConsole_Command@@@stlp_std@@@64@V?$xalloc@U?$pair@PBDPAVIConsole_Command@@@stlp_std@@@@@priv@stlp_std@@QAEXU?$_Rb_tree_iterator@U?$pair@QBDPAVIConsole_Command@@@stlp_std@@U?$_MapTraitsT@U?$pair@QBDPAVIConsole_Command@@@stlp_std@@@priv@2@@23@@Z PROC ; stlp_std::priv::_Rb_tree<char const *,CConsole::str_pred,stlp_std::pair<char const * const,IConsole_Command *>,stlp_std::priv::_Select1st<stlp_std::pair<char const * const,IConsole_Command *> >,stlp_std::priv::_MapTraitsT<stlp_std::pair<char const * const,IConsole_Command *> >,xalloc<stlp_std::pair<char const *,IConsole_Command *> > >::erase, COMDAT
; _this$ = esi

; 488  :     _Base_ptr __x = _Rb_global_inst::_Rebalance_for_erase(__pos._M_node,
; 489  :                                                           this->_M_header._M_data._M_parent,
; 490  :                                                           this->_M_header._M_data._M_left,
; 491  :                                                           this->_M_header._M_data._M_right);

	lea	ecx, DWORD PTR [esi+4]
	push	edi
	push	ecx
	mov	ecx, DWORD PTR ___pos$[esp+4]
	lea	eax, DWORD PTR [esi+12]
	lea	edx, DWORD PTR [esi+8]
	call	?_Rebalance_for_erase@?$_Rb_global@_N@priv@stlp_std@@SAPAU_Rb_tree_node_base@23@PAU423@AAPAU423@11@Z ; stlp_std::priv::_Rb_global<bool>::_Rebalance_for_erase
	mov	edi, eax

; 492  :     _STLP_STD::_Destroy(&_S_value(__x));

	push	edi
	call	?_S_value@?$_Rb_tree@PBDUstr_pred@CConsole@@U?$pair@QBDPAVIConsole_Command@@@stlp_std@@U?$_Select1st@U?$pair@QBDPAVIConsole_Command@@@stlp_std@@@priv@4@U?$_MapTraitsT@U?$pair@QBDPAVIConsole_Command@@@stlp_std@@@64@V?$xalloc@U?$pair@PBDPAVIConsole_Command@@@stlp_std@@@@@priv@stlp_std@@KAAAU?$pair@QBDPAVIConsole_Command@@@3@PAU_Rb_tree_node_base@23@@Z ; stlp_std::priv::_Rb_tree<char const *,CConsole::str_pred,stlp_std::pair<char const * const,IConsole_Command *>,stlp_std::priv::_Select1st<stlp_std::pair<char const * const,IConsole_Command *> >,stlp_std::priv::_MapTraitsT<stlp_std::pair<char const * const,IConsole_Command *> >,xalloc<stlp_std::pair<char const *,IConsole_Command *> > >::_S_value
	push	eax
	call	??$_Destroy@U?$pair@QBDPAVIConsole_Command@@@stlp_std@@@stlp_std@@YAXPAU?$pair@QBDPAVIConsole_Command@@@0@@Z ; stlp_std::_Destroy<stlp_std::pair<char const * const,IConsole_Command *> >
	add	esp, 12					; 0000000cH

; 493  :     this->_M_header.deallocate(__STATIC_CAST(_Link_type, __x), 1);

	push	1
	push	edi
	mov	ecx, esi
	call	?deallocate@?$xalloc@U?$_Rb_tree_node@U?$pair@QBDPAVIConsole_Command@@@stlp_std@@@priv@stlp_std@@@@QBEXPAU?$_Rb_tree_node@U?$pair@QBDPAVIConsole_Command@@@stlp_std@@@priv@stlp_std@@I@Z ; xalloc<stlp_std::priv::_Rb_tree_node<stlp_std::pair<char const * const,IConsole_Command *> > >::deallocate

; 494  :     --_M_node_count;

	add	DWORD PTR [esi+16], -1
	pop	edi

; 495  :   }

	ret	4
?erase@?$_Rb_tree@PBDUstr_pred@CConsole@@U?$pair@QBDPAVIConsole_Command@@@stlp_std@@U?$_Select1st@U?$pair@QBDPAVIConsole_Command@@@stlp_std@@@priv@4@U?$_MapTraitsT@U?$pair@QBDPAVIConsole_Command@@@stlp_std@@@64@V?$xalloc@U?$pair@PBDPAVIConsole_Command@@@stlp_std@@@@@priv@stlp_std@@QAEXU?$_Rb_tree_iterator@U?$pair@QBDPAVIConsole_Command@@@stlp_std@@U?$_MapTraitsT@U?$pair@QBDPAVIConsole_Command@@@stlp_std@@@priv@2@@23@@Z ENDP ; stlp_std::priv::_Rb_tree<char const *,CConsole::str_pred,stlp_std::pair<char const * const,IConsole_Command *>,stlp_std::priv::_Select1st<stlp_std::pair<char const * const,IConsole_Command *> >,stlp_std::priv::_MapTraitsT<stlp_std::pair<char const * const,IConsole_Command *> >,xalloc<stlp_std::pair<char const *,IConsole_Command *> > >::erase
; Function compile flags: /Ogtpy
_TEXT	ENDS
;	COMDAT ??E?$_Rb_tree_iterator@U?$pair@QBDPAVIConsole_Command@@@stlp_std@@U?$_MapTraitsT@U?$pair@QBDPAVIConsole_Command@@@stlp_std@@@priv@2@@priv@stlp_std@@QAEAAU012@XZ
_TEXT	SEGMENT
??E?$_Rb_tree_iterator@U?$pair@QBDPAVIConsole_Command@@@stlp_std@@U?$_MapTraitsT@U?$pair@QBDPAVIConsole_Command@@@stlp_std@@@priv@2@@priv@stlp_std@@QAEAAU012@XZ PROC ; stlp_std::priv::_Rb_tree_iterator<stlp_std::pair<char const * const,IConsole_Command *>,stlp_std::priv::_MapTraitsT<stlp_std::pair<char const * const,IConsole_Command *> > >::operator++, COMDAT
; _this$ = eax

; 177  :     _M_node = _Rb_global_inst::_M_increment(_M_node);

	mov	ecx, DWORD PTR [eax]
	mov	edx, DWORD PTR [ecx+12]
	test	edx, edx
	je	SHORT $LN7@operator@42
	mov	ecx, DWORD PTR [edx+8]
	test	ecx, ecx
	je	SHORT $LN10@operator@42
$LL11@operator@42:
	mov	edx, ecx
	mov	ecx, DWORD PTR [edx+8]
	test	ecx, ecx
	jne	SHORT $LL11@operator@42
$LN10@operator@42:
	mov	DWORD PTR [eax], edx

; 178  :     return *this;
; 179  :   }

	ret	0

; 177  :     _M_node = _Rb_global_inst::_M_increment(_M_node);

$LN7@operator@42:
	mov	edx, DWORD PTR [ecx+4]
	cmp	ecx, DWORD PTR [edx+12]
	jne	SHORT $LN4@operator@42
$LL5@operator@42:
	mov	ecx, edx
	mov	edx, DWORD PTR [edx+4]
	cmp	ecx, DWORD PTR [edx+12]
	je	SHORT $LL5@operator@42
$LN4@operator@42:
	cmp	DWORD PTR [ecx+12], edx
	jne	SHORT $LN10@operator@42
	mov	DWORD PTR [eax], ecx

; 178  :     return *this;
; 179  :   }

	ret	0
??E?$_Rb_tree_iterator@U?$pair@QBDPAVIConsole_Command@@@stlp_std@@U?$_MapTraitsT@U?$pair@QBDPAVIConsole_Command@@@stlp_std@@@priv@2@@priv@stlp_std@@QAEAAU012@XZ ENDP ; stlp_std::priv::_Rb_tree_iterator<stlp_std::pair<char const * const,IConsole_Command *>,stlp_std::priv::_MapTraitsT<stlp_std::pair<char const * const,IConsole_Command *> > >::operator++
; Function compile flags: /Ogtpy
; File d:\clearsky\sources\sdk\include\stlport\stl\_map.h
_TEXT	ENDS
;	COMDAT ?erase@?$map@PBDPAVIConsole_Command@@Ustr_pred@CConsole@@V?$xalloc@U?$pair@PBDPAVIConsole_Command@@@stlp_std@@@@@stlp_std@@QAEXU?$_Rb_tree_iterator@U?$pair@QBDPAVIConsole_Command@@@stlp_std@@U?$_MapTraitsT@U?$pair@QBDPAVIConsole_Command@@@stlp_std@@@priv@2@@priv@2@@Z
_TEXT	SEGMENT
___pos$ = 8						; size = 4
?erase@?$map@PBDPAVIConsole_Command@@Ustr_pred@CConsole@@V?$xalloc@U?$pair@PBDPAVIConsole_Command@@@stlp_std@@@@@stlp_std@@QAEXU?$_Rb_tree_iterator@U?$pair@QBDPAVIConsole_Command@@@stlp_std@@U?$_MapTraitsT@U?$pair@QBDPAVIConsole_Command@@@stlp_std@@@priv@2@@priv@2@@Z PROC ; stlp_std::map<char const *,IConsole_Command *,CConsole::str_pred,xalloc<stlp_std::pair<char const *,IConsole_Command *> > >::erase, COMDAT
; _this$ = esi

; 198  :   void erase(iterator __pos) { _M_t.erase(__pos); }

	lea	ecx, DWORD PTR [esi+4]
	push	edi
	push	ecx
	mov	ecx, DWORD PTR ___pos$[esp+4]
	lea	eax, DWORD PTR [esi+12]
	lea	edx, DWORD PTR [esi+8]
	call	?_Rebalance_for_erase@?$_Rb_global@_N@priv@stlp_std@@SAPAU_Rb_tree_node_base@23@PAU423@AAPAU423@11@Z ; stlp_std::priv::_Rb_global<bool>::_Rebalance_for_erase
	mov	edi, eax
	push	edi
	call	?_S_value@?$_Rb_tree@PBDUstr_pred@CConsole@@U?$pair@QBDPAVIConsole_Command@@@stlp_std@@U?$_Select1st@U?$pair@QBDPAVIConsole_Command@@@stlp_std@@@priv@4@U?$_MapTraitsT@U?$pair@QBDPAVIConsole_Command@@@stlp_std@@@64@V?$xalloc@U?$pair@PBDPAVIConsole_Command@@@stlp_std@@@@@priv@stlp_std@@KAAAU?$pair@QBDPAVIConsole_Command@@@3@PAU_Rb_tree_node_base@23@@Z ; stlp_std::priv::_Rb_tree<char const *,CConsole::str_pred,stlp_std::pair<char const * const,IConsole_Command *>,stlp_std::priv::_Select1st<stlp_std::pair<char const * const,IConsole_Command *> >,stlp_std::priv::_MapTraitsT<stlp_std::pair<char const * const,IConsole_Command *> >,xalloc<stlp_std::pair<char const *,IConsole_Command *> > >::_S_value
	push	eax
	call	??$_Destroy@U?$pair@QBDPAVIConsole_Command@@@stlp_std@@@stlp_std@@YAXPAU?$pair@QBDPAVIConsole_Command@@@0@@Z ; stlp_std::_Destroy<stlp_std::pair<char const * const,IConsole_Command *> >
	add	esp, 12					; 0000000cH
	push	1
	push	edi
	mov	ecx, esi
	call	?deallocate@?$xalloc@U?$_Rb_tree_node@U?$pair@QBDPAVIConsole_Command@@@stlp_std@@@priv@stlp_std@@@@QBEXPAU?$_Rb_tree_node@U?$pair@QBDPAVIConsole_Command@@@stlp_std@@@priv@stlp_std@@I@Z ; xalloc<stlp_std::priv::_Rb_tree_node<stlp_std::pair<char const * const,IConsole_Command *> > >::deallocate
	add	DWORD PTR [esi+16], -1
	pop	edi
	ret	4
?erase@?$map@PBDPAVIConsole_Command@@Ustr_pred@CConsole@@V?$xalloc@U?$pair@PBDPAVIConsole_Command@@@stlp_std@@@@@stlp_std@@QAEXU?$_Rb_tree_iterator@U?$pair@QBDPAVIConsole_Command@@@stlp_std@@U?$_MapTraitsT@U?$pair@QBDPAVIConsole_Command@@@stlp_std@@@priv@2@@priv@2@@Z ENDP ; stlp_std::map<char const *,IConsole_Command *,CConsole::str_pred,xalloc<stlp_std::pair<char const *,IConsole_Command *> > >::erase
; Function compile flags: /Ogtpy
; File d:\clearsky\sources\sdk\include\stlport\stl\pointers\_vector.h
_TEXT	ENDS
;	COMDAT ?rbegin@?$vector@Vshared_str@@V?$xalloc@Vshared_str@@@@@stlp_std@@QAE?AV?$reverse_iterator@PAVshared_str@@@2@XZ
_TEXT	SEGMENT
?rbegin@?$vector@Vshared_str@@V?$xalloc@Vshared_str@@@@@stlp_std@@QAE?AV?$reverse_iterator@PAVshared_str@@@2@XZ PROC ; stlp_std::vector<shared_str,xalloc<shared_str> >::rbegin, COMDAT
; _this$ = ecx
; ___$ReturnUdt$ = esi

; 84   :   reverse_iterator rbegin()              { return reverse_iterator(end()); }

	call	?end@?$vector@Vshared_str@@V?$xalloc@Vshared_str@@@@@stlp_std@@QAEPAVshared_str@@XZ ; stlp_std::vector<shared_str,xalloc<shared_str> >::end
	mov	DWORD PTR [esi], eax
	mov	eax, esi
	ret	0
?rbegin@?$vector@Vshared_str@@V?$xalloc@Vshared_str@@@@@stlp_std@@QAE?AV?$reverse_iterator@PAVshared_str@@@2@XZ ENDP ; stlp_std::vector<shared_str,xalloc<shared_str> >::rbegin
_TEXT	ENDS
PUBLIC	?find_next_cmd@CConsole@@IAEPAVIConsole_Command@@PBDAAVshared_str@@@Z ; CConsole::find_next_cmd
; Function compile flags: /Ogtpy
; File d:\clearsky\sources\engine\xrengine\xr_ioconsole.cpp
;	COMDAT ?find_next_cmd@CConsole@@IAEPAVIConsole_Command@@PBDAAVshared_str@@@Z
_TEXT	SEGMENT
_STRCONCAT_tupples_unique_identifier$132825 = -60	; size = 52
_cc$132845 = -8						; size = 4
_t2$ = -8						; size = 4
_this$ = -4						; size = 4
_in_str$ = 8						; size = 4
_b_ra$ = 11						; size = 1
_out_str$ = 12						; size = 4
?find_next_cmd@CConsole@@IAEPAVIConsole_Command@@PBDAAVshared_str@@@Z PROC ; CConsole::find_next_cmd, COMDAT
; _this$ = ecx

; 691  : {

	push	ebp
	mov	ebp, esp
	sub	esp, 60					; 0000003cH
	push	ebx
	push	esi

; 692  : 	LPCSTR radmin_cmd_name = "ra ";
; 693  : 	bool b_ra  = (in_str == strstr( in_str, radmin_cmd_name ) );

	mov	esi, DWORD PTR _in_str$[ebp]
	push	edi
	push	OFFSET ??_C@_03MDBMMNEB@ra?5?$AA@
	push	esi
	mov	DWORD PTR _this$[ebp], ecx
	call	DWORD PTR __imp__strstr
	add	esp, 8
	cmp	esi, eax
	sete	al

; 694  : 	u32 offset = (b_ra)? xr_strlen( radmin_cmd_name ) : 0;

	xor	ebx, ebx
	cmp	al, bl
	mov	BYTE PTR _b_ra$[ebp], al
	je	SHORT $LN7@find_next_
	mov	eax, OFFSET ??_C@_03MDBMMNEB@ra?5?$AA@
	lea	edx, DWORD PTR [eax+1]
$LL96@find_next_:
	mov	cl, BYTE PTR [eax]
	add	eax, 1
	cmp	cl, bl
	jne	SHORT $LL96@find_next_
	sub	eax, edx
	mov	edi, eax
	jmp	SHORT $LN8@find_next_
$LN7@find_next_:
	xor	edi, edi
$LN8@find_next_:

; 695  : 
; 696  : 	LPSTR t2;
; 697  : 	STRCONCAT( t2, in_str + offset, " " );

	lea	edx, DWORD PTR [edi+esi]
	lea	eax, DWORD PTR _STRCONCAT_tupples_unique_identifier$132825[ebp]
	mov	ecx, 5
$LL16@find_next_:
	mov	DWORD PTR [eax], ebx
	mov	DWORD PTR [eax+4], ebx
	add	eax, 8
	sub	ecx, 1
	jns	SHORT $LL16@find_next_
	cmp	edx, ebx
	mov	DWORD PTR _STRCONCAT_tupples_unique_identifier$132825[ebp+48], 2
	je	SHORT $LN30@find_next_
	mov	eax, edx
	lea	esi, DWORD PTR [eax+1]
	npad	3
$LL97@find_next_:
	mov	cl, BYTE PTR [eax]
	add	eax, 1
	cmp	cl, bl
	jne	SHORT $LL97@find_next_
	sub	eax, esi
	jmp	SHORT $LN31@find_next_
$LN30@find_next_:
	xor	eax, eax
$LN31@find_next_:
	mov	ecx, 1
	mov	DWORD PTR _STRCONCAT_tupples_unique_identifier$132825[ebp+4], eax
	mov	eax, OFFSET ??_C@_01CLKCMJKC@?5?$AA@
	mov	DWORD PTR _STRCONCAT_tupples_unique_identifier$132825[ebp+12], ecx
	lea	ecx, DWORD PTR _STRCONCAT_tupples_unique_identifier$132825[ebp]
	mov	DWORD PTR _STRCONCAT_tupples_unique_identifier$132825[ebp], edx
	mov	DWORD PTR _STRCONCAT_tupples_unique_identifier$132825[ebp+8], eax
	call	DWORD PTR __imp_?size@string_tupples@detail@core@xray@@QBEIXZ
	mov	esi, eax
	push	esi
	call	DWORD PTR __imp_?check_stack_overflow@detail@core@xray@@YAXI@Z
	add	esp, 4
	mov	eax, esi
	call	__alloca_probe_16
	mov	eax, esp
	push	eax
	lea	ecx, DWORD PTR _STRCONCAT_tupples_unique_identifier$132825[ebp]
	mov	DWORD PTR _t2$[ebp], eax
	call	DWORD PTR __imp_?concat@string_tupples@detail@core@xray@@QBEXQBD@Z

; 698  : 
; 699  : 	vecCMD_IT it = Commands.lower_bound( t2 );

	mov	esi, DWORD PTR _this$[ebp]
	add	esi, 176				; 000000b0H
	lea	ebx, DWORD PTR _t2$[ebp]
	mov	ecx, esi
	call	??$_M_lower_bound@PAD@?$_Rb_tree@PBDUstr_pred@CConsole@@U?$pair@QBDPAVIConsole_Command@@@stlp_std@@U?$_Select1st@U?$pair@QBDPAVIConsole_Command@@@stlp_std@@@priv@4@U?$_MapTraitsT@U?$pair@QBDPAVIConsole_Command@@@stlp_std@@@64@V?$xalloc@U?$pair@PBDPAVIConsole_Command@@@stlp_std@@@@@priv@stlp_std@@ABEPAU_Rb_tree_node_base@12@ABQAD@Z ; stlp_std::priv::_Rb_tree<char const *,CConsole::str_pred,stlp_std::pair<char const * const,IConsole_Command *>,stlp_std::priv::_Select1st<stlp_std::pair<char const * const,IConsole_Command *> >,stlp_std::priv::_MapTraitsT<stlp_std::pair<char const * const,IConsole_Command *> >,xalloc<stlp_std::pair<char const *,IConsole_Command *> > >::_M_lower_bound<char *>

; 700  : 	if ( it != Commands.end() )

	cmp	eax, esi
	je	$LN1@find_next_

; 701  : 	{
; 702  : 		IConsole_Command* cc = it->second;

	mov	eax, DWORD PTR [eax+20]

; 703  : 		LPCSTR name_cmd      = cc->Name();

	mov	ebx, DWORD PTR [eax+4]
	mov	DWORD PTR _cc$132845[ebp], eax

; 704  : 		u32    name_cmd_size = xr_strlen( name_cmd );

	mov	eax, ebx
	lea	edx, DWORD PTR [eax+1]
	npad	7
$LL98@find_next_:
	mov	cl, BYTE PTR [eax]
	add	eax, 1
	test	cl, cl
	jne	SHORT $LL98@find_next_
	sub	eax, edx

; 705  : 		PSTR   new_str       = (PSTR)_alloca( (offset + name_cmd_size + 2) * sizeof(char) );

	lea	esi, DWORD PTR [eax+edi+2]
	mov	eax, esi
	call	__alloca_probe_16

; 706  : 
; 707  : 		xr_strcpy( new_str, offset + name_cmd_size + 2, (b_ra)? radmin_cmd_name : "" );

	cmp	BYTE PTR _b_ra$[ebp], 0
	mov	edi, esp
	mov	eax, OFFSET ??_C@_03MDBMMNEB@ra?5?$AA@
	jne	SHORT $LN10@find_next_
	mov	eax, OFFSET ??_C@_00CNPNBAHC@?$AA@
$LN10@find_next_:
	push	esi
	push	eax
	push	esi
	push	edi
	call	DWORD PTR __imp__strncpy_s

; 708  : 		xr_strcat( new_str, offset + name_cmd_size + 2, name_cmd );

	push	esi
	mov	ecx, ebx
	mov	edx, edi
	call	?xr_strcat@@YAHPADIPBD@Z		; xr_strcat

; 709  : 
; 710  : 		out_str._set( (LPCSTR)new_str );

	mov	eax, DWORD PTR __imp_?g_pStringContainer@@3PAVstr_container@@A
	mov	ecx, DWORD PTR [eax]
	add	esp, 20					; 00000014H
	push	edi
	call	DWORD PTR __imp_?dock@str_container@@QAEPAUstr_value@@PBD@Z
	test	eax, eax
	je	SHORT $LN87@find_next_
	add	DWORD PTR [eax], 1
$LN87@find_next_:
	mov	edx, DWORD PTR _out_str$[ebp]
	mov	ecx, DWORD PTR [edx]
	test	ecx, ecx
	je	SHORT $LN90@find_next_
	add	DWORD PTR [ecx], -1
	mov	ecx, DWORD PTR [edx]
	cmp	DWORD PTR [ecx], 0
	jne	SHORT $LN90@find_next_
	mov	DWORD PTR [edx], 0
$LN90@find_next_:
	mov	DWORD PTR [edx], eax

; 711  : 		return cc;

	mov	eax, DWORD PTR _cc$132845[ebp]

; 714  : }

	lea	esp, DWORD PTR [ebp-72]
	pop	edi
	pop	esi
	pop	ebx
	mov	esp, ebp
	pop	ebp
	ret	8
$LN1@find_next_:

; 712  : 	}
; 713  : 	return NULL;

	xor	eax, eax

; 714  : }

	lea	esp, DWORD PTR [ebp-72]
	pop	edi
	pop	esi
	pop	ebx
	mov	esp, ebp
	pop	ebp
	ret	8
?find_next_cmd@CConsole@@IAEPAVIConsole_Command@@PBDAAVshared_str@@@Z ENDP ; CConsole::find_next_cmd
_TEXT	ENDS
PUBLIC	?SelectCommand@CConsole@@QAEXXZ			; CConsole::SelectCommand
; Function compile flags: /Ogtpy
;	COMDAT ?SelectCommand@CConsole@@QAEXXZ
_TEXT	SEGMENT
?SelectCommand@CConsole@@QAEXXZ PROC			; CConsole::SelectCommand, COMDAT
; _this$ = ecx

; 662  : {

	push	esi
	mov	esi, ecx

; 663  : 	if ( m_cmd_history.empty() )

	mov	eax, DWORD PTR [esi+40]
	cmp	eax, DWORD PTR [esi+44]
	lea	ecx, DWORD PTR [esi+40]
	je	SHORT $LN35@SelectComm

; 664  : 	{
; 665  : 		return;
; 666  : 	}
; 667  : 	VERIFY( 0 <= m_cmd_history_idx && m_cmd_history_idx < (int)m_cmd_history.size() );
; 668  : 		
; 669  : 	vecHistory::reverse_iterator	it_rb = m_cmd_history.rbegin() + m_cmd_history_idx;

	call	?end@?$vector@Vshared_str@@V?$xalloc@Vshared_str@@@@@stlp_std@@QAEPAVshared_str@@XZ ; stlp_std::vector<shared_str,xalloc<shared_str> >::end

; 670  : 	ec().set_edit( (*it_rb).c_str() );

	mov	ecx, DWORD PTR [esi+56]
	lea	edx, DWORD PTR [ecx*4+4]
	sub	eax, edx
	mov	eax, DWORD PTR [eax]
	test	eax, eax
	je	SHORT $LN29@SelectComm
	add	eax, 16					; 00000010H
	jmp	SHORT $LN30@SelectComm
$LN29@SelectComm:
	xor	eax, eax
$LN30@SelectComm:
	mov	ecx, DWORD PTR [esi+200]
	push	eax
	add	ecx, 4
	call	?set_edit@line_edit_control@text_editor@@QAEXPBD@Z ; text_editor::line_edit_control::set_edit

; 671  : 	reset_selected_tip();

	mov	DWORD PTR [esi+96], -1
	mov	DWORD PTR [esi+100], 0
	mov	BYTE PTR [esi+36], 0
$LN35@SelectComm:
	pop	esi

; 672  : }

	ret	0
?SelectCommand@CConsole@@QAEXXZ ENDP			; CConsole::SelectCommand
_TEXT	ENDS
PUBLIC	__real@41600000
PUBLIC	__real@40a00000
PUBLIC	?DrawBackgrounds@CConsole@@IAEX_N@Z		; CConsole::DrawBackgrounds
;	COMDAT __real@41600000
; File d:\clearsky\sources\sdk\include\stlport\stl\_vector.h
CONST	SEGMENT
__real@41600000 DD 041600000r			; 14
CONST	ENDS
;	COMDAT __real@40a00000
CONST	SEGMENT
__real@40a00000 DD 040a00000r			; 5
; Function compile flags: /Ogtpy
; File d:\clearsky\sources\engine\xrengine\xr_ioconsole.cpp
CONST	ENDS
;	COMDAT ?DrawBackgrounds@CConsole@@IAEX_N@Z
_TEXT	SEGMENT
_rb$132684 = -60					; size = 16
_r$132664 = -60						; size = 16
_sr$ = -60						; size = 16
_r$ = -60						; size = 16
_rs$132685 = -44					; size = 16
_pr$ = -44						; size = 16
tv809 = -28						; size = 4
tv807 = -28						; size = 4
tv770 = -28						; size = 4
_ite$132666 = -28					; size = 4
_select_y$ = -28					; size = 4
_tips_h$ = -28						; size = 4
tv763 = -24						; size = 4
tv741 = -24						; size = 4
_select_h$ = -24					; size = 4
_list_w$ = -24						; size = 4
_ioc_w$ = -20						; size = 4
tv524 = -16						; size = 4
tv754 = -12						; size = 4
tv202 = -12						; size = 4
_i$132667 = -8						; size = 4
_cur_cmd_w$ = -8					; size = 4
_font_h$ = -4						; size = 4
_max_str$ = -4						; size = 4
tv725 = 8						; size = 4
tv688 = 8						; size = 4
tv597 = 8						; size = 4
_w1$ = 8						; size = 4
_ky$ = 8						; size = 4
_bGame$ = 8						; size = 1
?DrawBackgrounds@CConsole@@IAEX_N@Z PROC		; CConsole::DrawBackgrounds, COMDAT
; _this$ = ecx

; 367  : {

	push	ebp
	mov	ebp, esp
	sub	esp, 60					; 0000003cH

; 368  : 	float ky = (bGame)? 0.5f : 1.0f;

	cmp	BYTE PTR _bGame$[ebp], 0
	push	ebx
	push	esi
	push	edi
	mov	edi, ecx
	je	SHORT $LN24@DrawBackgr
	movss	xmm0, DWORD PTR __real@3f000000
	jmp	SHORT $LN143@DrawBackgr
$LN24@DrawBackgr:
	movss	xmm0, DWORD PTR __real@3f800000
$LN143@DrawBackgr:

; 369  : 
; 370  : 	Frect r;
; 371  : 	r.set( 0.0f, 0.0f, float(Device.dwWidth), ky * float(Device.dwHeight) );

	mov	eax, DWORD PTR ?Device@@3VCRenderDevice@@A+4
	fild	DWORD PTR ?Device@@3VCRenderDevice@@A+4
	test	eax, eax
	movss	DWORD PTR _ky$[ebp], xmm0
	xorps	xmm0, xmm0
	movss	DWORD PTR _r$[ebp], xmm0
	movss	DWORD PTR _r$[ebp+4], xmm0
	jge	SHORT $LN137@DrawBackgr
	fadd	DWORD PTR __real@4f800000
$LN137@DrawBackgr:
	mov	ecx, DWORD PTR ?Device@@3VCRenderDevice@@A+8
	fstp	DWORD PTR _r$[ebp+8]
	test	ecx, ecx
	fild	DWORD PTR ?Device@@3VCRenderDevice@@A+8
	jge	SHORT $LN138@DrawBackgr
	fadd	DWORD PTR __real@4f800000
$LN138@DrawBackgr:

; 372  : 
; 373  : 	UIRender->SetShader( **m_hShader_back );

	mov	edx, DWORD PTR __imp_?UIRender@@3PAVIUIRender@@A
	fmul	DWORD PTR _ky$[ebp]
	mov	ecx, DWORD PTR [edx]
	mov	edx, DWORD PTR [edi+24]
	mov	eax, DWORD PTR [ecx]
	fstp	DWORD PTR _r$[ebp+12]
	mov	edx, DWORD PTR [edx]
	mov	eax, DWORD PTR [eax+8]
	push	edx
	call	eax

; 374  : 	// 6 = back, 12 = tips, (VIEW_TIPS_COUNT+1)*6 = highlight_words, 12 = scroll
; 375  : 	UIRender->StartPrimitive( 6 + 12 + (VIEW_TIPS_COUNT+1)*6 + 12, IUIRender::ptTriList, IUIRender::pttTL );

	mov	ecx, DWORD PTR __imp_?UIRender@@3PAVIUIRender@@A
	mov	ecx, DWORD PTR [ecx]
	mov	edx, DWORD PTR [ecx]
	mov	eax, DWORD PTR [edx+28]
	push	0
	push	0
	push	120					; 00000078H
	call	eax

; 376  : 
; 377  : 	DrawRect( r, back_color );

	mov	ecx, DWORD PTR _back_color
	push	ecx
	lea	edx, DWORD PTR _r$[ebp]
	push	edx
	mov	ecx, edi
	call	?DrawRect@CConsole@@IAEXABU?$_rect@M@@I@Z ; CConsole::DrawRect

; 378  : 
; 379  : 	if ( m_tips.size() == 0 || m_disable_tips )

	lea	ebx, DWORD PTR [edi+76]
	mov	ecx, ebx
	call	?size@?$_Impl_vector@UTipString@@V?$xalloc@UTipString@@@@@priv@stlp_std@@QBEIXZ ; stlp_std::priv::_Impl_vector<TipString,xalloc<TipString> >::size
	test	eax, eax
	je	$LN20@DrawBackgr
	cmp	BYTE PTR [edi+36], 0
	jne	$LN20@DrawBackgr

; 380  : 	{
; 381  : 		UIRender->FlushPrimitive();
; 382  : 		return;
; 383  : 	}
; 384  : 
; 385  : 	LPCSTR max_str = "xxxxx";
; 386  : 	vecTipsEx::iterator itb = m_tips.begin();

	mov	ecx, ebx
	mov	DWORD PTR _max_str$[ebp], OFFSET ??_C@_05HDGBDIJL@xxxxx?$AA@
	call	?begin@?$_Impl_vector@UTipString@@V?$xalloc@UTipString@@@@@priv@stlp_std@@QAEPAUTipString@@XZ ; stlp_std::priv::_Impl_vector<TipString,xalloc<TipString> >::begin

; 387  : 	vecTipsEx::iterator ite = m_tips.end();

	mov	ecx, ebx
	mov	esi, eax
	call	?end@?$_Impl_vector@UTipString@@V?$xalloc@UTipString@@@@@priv@stlp_std@@QAEPAUTipString@@XZ ; stlp_std::priv::_Impl_vector<TipString,xalloc<TipString> >::end
	mov	ebx, eax

; 388  : 	for ( ; itb != ite; ++itb )

	cmp	esi, ebx
	je	SHORT $LN17@DrawBackgr
	npad	2
$LL19@DrawBackgr:

; 389  : 	{
; 390  : 		if ( pFont->SizeOf_( (*itb).text.c_str() ) > pFont->SizeOf_( max_str ) )

	mov	eax, DWORD PTR [esi]
	test	eax, eax
	je	SHORT $LN54@DrawBackgr
	add	eax, 16					; 00000010H
	jmp	SHORT $LN55@DrawBackgr
$LN54@DrawBackgr:
	xor	eax, eax
$LN55@DrawBackgr:
	mov	ecx, DWORD PTR [edi+16]
	push	eax
	call	?SizeOf_@CGameFont@@QAEMPBD@Z		; CGameFont::SizeOf_
	fstp	DWORD PTR tv688[ebp]
	mov	eax, DWORD PTR _max_str$[ebp]
	mov	ecx, DWORD PTR [edi+16]
	push	eax
	call	?SizeOf_@CGameFont@@QAEMPBD@Z		; CGameFont::SizeOf_
	fld	DWORD PTR tv688[ebp]
	fcomip	ST(1)
	fstp	ST(0)
	jbe	SHORT $LN18@DrawBackgr

; 391  : 		{
; 392  : 			max_str = (*itb).text.c_str();

	mov	eax, DWORD PTR [esi]
	test	eax, eax
	je	SHORT $LN58@DrawBackgr
	add	eax, 16					; 00000010H
	mov	DWORD PTR _max_str$[ebp], eax
	jmp	SHORT $LN18@DrawBackgr
$LN58@DrawBackgr:
	mov	DWORD PTR _max_str$[ebp], 0
$LN18@DrawBackgr:

; 388  : 	for ( ; itb != ite; ++itb )

	add	esi, 12					; 0000000cH
	cmp	esi, ebx
	jne	SHORT $LL19@DrawBackgr
$LN17@DrawBackgr:

; 393  : 		}
; 394  : 	}
; 395  : 
; 396  : 	float w1        = pFont->SizeOf_( "_" );

	mov	ecx, DWORD PTR [edi+16]
	push	OFFSET ??_C@_01IDAFKMJL@_?$AA@
	call	?SizeOf_@CGameFont@@QAEMPBD@Z		; CGameFont::SizeOf_
	fstp	DWORD PTR _w1$[ebp]

; 397  : 	float ioc_w     = pFont->SizeOf_( ioc_prompt ) - w1;

	mov	ecx, DWORD PTR [edi+16]
	push	OFFSET ??_C@_04IMEJGNKP@?$DO?$DO?$DO?5?$AA@
	call	?SizeOf_@CGameFont@@QAEMPBD@Z		; CGameFont::SizeOf_
	fsub	DWORD PTR _w1$[ebp]

; 398  : 	float cur_cmd_w = pFont->SizeOf_( m_cur_cmd.c_str() );

	mov	eax, DWORD PTR [edi+92]
	test	eax, eax
	fstp	DWORD PTR _ioc_w$[ebp]
	je	SHORT $LN62@DrawBackgr
	add	eax, 16					; 00000010H
	jmp	SHORT $LN63@DrawBackgr
$LN62@DrawBackgr:
	xor	eax, eax
$LN63@DrawBackgr:
	mov	ecx, DWORD PTR [edi+16]
	push	eax
	call	?SizeOf_@CGameFont@@QAEMPBD@Z		; CGameFont::SizeOf_
	fst	DWORD PTR _cur_cmd_w$[ebp]

; 399  : 	cur_cmd_w		+= (cur_cmd_w > 0.01f) ? w1 : 0.0f;

	fld	DWORD PTR __real@3c23d70a
	fxch	ST(1)
	fcomip	ST(1)
	fstp	ST(0)
	jbe	SHORT $LN26@DrawBackgr
	movss	xmm0, DWORD PTR _w1$[ebp]
	jmp	SHORT $LN27@DrawBackgr
$LN26@DrawBackgr:
	xorps	xmm0, xmm0
$LN27@DrawBackgr:

; 400  : 
; 401  : 	float list_w    = pFont->SizeOf_( max_str ) + 2.0f * w1;

	fld	DWORD PTR _w1$[ebp]
	mov	ecx, DWORD PTR _max_str$[ebp]
	addss	xmm0, DWORD PTR _cur_cmd_w$[ebp]
	fadd	ST(0), ST(0)
	push	ecx
	mov	ecx, DWORD PTR [edi+16]
	fstp	DWORD PTR tv524[ebp]
	movss	DWORD PTR _cur_cmd_w$[ebp], xmm0
	call	?SizeOf_@CGameFont@@QAEMPBD@Z		; CGameFont::SizeOf_
	fadd	DWORD PTR tv524[ebp]

; 402  : 
; 403  : 	float font_h    = pFont->CurrentHeight_();

	mov	eax, DWORD PTR [edi+16]
	movss	xmm0, DWORD PTR [eax+40]
	mulss	xmm0, DWORD PTR [eax+24]
	fstp	DWORD PTR _list_w$[ebp]

; 404  : 	float tips_h    = _min( m_tips.size(), (u32)VIEW_TIPS_COUNT ) * font_h;

	lea	esi, DWORD PTR [edi+76]
	mov	ecx, esi
	movss	DWORD PTR _font_h$[ebp], xmm0
	call	?size@?$_Impl_vector@UTipString@@V?$xalloc@UTipString@@@@@priv@stlp_std@@QBEIXZ ; stlp_std::priv::_Impl_vector<TipString,xalloc<TipString> >::size
	cmp	eax, 14					; 0000000eH
	jb	SHORT $LN75@DrawBackgr
	mov	eax, 14					; 0000000eH
$LN75@DrawBackgr:
	test	eax, eax
	mov	DWORD PTR tv770[ebp], eax
	fild	DWORD PTR tv770[ebp]
	jge	SHORT $LN139@DrawBackgr
	fadd	DWORD PTR __real@4f800000
$LN139@DrawBackgr:
	fmul	DWORD PTR _font_h$[ebp]

; 405  : 	tips_h			+= ( m_tips.size() > 0 )? 5.0f : 0.0f;

	mov	ecx, esi
	fstp	DWORD PTR _tips_h$[ebp]
	call	?size@?$_Impl_vector@UTipString@@V?$xalloc@UTipString@@@@@priv@stlp_std@@QBEIXZ ; stlp_std::priv::_Impl_vector<TipString,xalloc<TipString> >::size
	test	eax, eax
	jbe	SHORT $LN28@DrawBackgr
	movss	xmm0, DWORD PTR __real@40a00000
	movss	DWORD PTR tv202[ebp], xmm0
	xorps	xmm0, xmm0
	jmp	SHORT $LN29@DrawBackgr
$LN28@DrawBackgr:
	xorps	xmm0, xmm0
	movss	DWORD PTR tv202[ebp], xmm0
$LN29@DrawBackgr:

; 406  : 
; 407  : 	Frect pr, sr;
; 408  : 	pr.x1 = ioc_w + cur_cmd_w;

	movss	xmm1, DWORD PTR _cur_cmd_w$[ebp]

; 409  : 	pr.x2 = pr.x1 + list_w;
; 410  : 
; 411  : 	pr.y1 = UI_BASE_HEIGHT * 0.5f;
; 412  : 	pr.y1 *= float(Device.dwHeight)/UI_BASE_HEIGHT;

	fild	DWORD PTR ?Device@@3VCRenderDevice@@A+8
	addss	xmm1, DWORD PTR _ioc_w$[ebp]
	mov	edx, DWORD PTR ?Device@@3VCRenderDevice@@A+8
	test	edx, edx
	movss	DWORD PTR _pr$[ebp], xmm1
	addss	xmm1, DWORD PTR _list_w$[ebp]
	movss	DWORD PTR _pr$[ebp+8], xmm1
	jge	SHORT $LN140@DrawBackgr
	fadd	DWORD PTR __real@4f800000
$LN140@DrawBackgr:

; 413  : 
; 414  : 	pr.y2 = pr.y1 + tips_h;
; 415  : 
; 416  : 	float select_y = 0.0f;
; 417  : 	float select_h = 0.0f;
; 418  : 	
; 419  : 	if ( m_select_tip >= 0 && m_select_tip < (int)m_tips.size() )

	cmp	DWORD PTR [edi+96], 0
	fmul	DWORD PTR __real@3f000000
	movaps	xmm2, xmm0
	movss	DWORD PTR _select_h$[ebp], xmm2
	fst	DWORD PTR _pr$[ebp+4]
	fld	DWORD PTR tv202[ebp]
	fadd	DWORD PTR _tips_h$[ebp]
	movss	DWORD PTR _select_y$[ebp], xmm0
	faddp	ST(1), ST(0)
	fstp	DWORD PTR _pr$[ebp+12]
	jl	SHORT $LN15@DrawBackgr
	mov	ecx, esi
	call	?size@?$_Impl_vector@UTipString@@V?$xalloc@UTipString@@@@@priv@stlp_std@@QBEIXZ ; stlp_std::priv::_Impl_vector<TipString,xalloc<TipString> >::size
	mov	ecx, DWORD PTR [edi+96]
	cmp	ecx, eax

; 420  : 	{
; 421  : 		int sel_pos = m_select_tip - m_start_tip;
; 422  : 
; 423  : 		select_y = sel_pos * font_h;
; 424  : 		select_h = font_h; //1 string

	movss	xmm1, DWORD PTR _pr$[ebp+8]
	jge	SHORT $LN131@DrawBackgr
	sub	ecx, DWORD PTR [edi+100]
	movss	xmm2, DWORD PTR _font_h$[ebp]
	cvtsi2ss xmm0, ecx
	mulss	xmm0, xmm2
	jmp	SHORT $LN15@DrawBackgr
$LN131@DrawBackgr:
	movss	xmm0, DWORD PTR _select_y$[ebp]
	movss	xmm2, DWORD PTR _select_h$[ebp]
$LN15@DrawBackgr:

; 425  : 	}
; 426  : 	
; 427  : 	sr.x1 = pr.x1;
; 428  : 	sr.y1 = pr.y1 + select_y;
; 429  : 
; 430  : 	sr.x2 = pr.x2;
; 431  : 	sr.y2 = sr.y1 + select_h;
; 432  : 
; 433  : 	DrawRect( pr, tips_back_color );

	mov	eax, DWORD PTR _tips_back_color
	addss	xmm0, DWORD PTR _pr$[ebp+4]
	movss	xmm3, DWORD PTR _pr$[ebp]
	push	eax
	lea	ecx, DWORD PTR _pr$[ebp]
	movss	DWORD PTR _sr$[ebp+4], xmm0
	push	ecx
	addss	xmm0, xmm2
	mov	ecx, edi
	movss	DWORD PTR _sr$[ebp], xmm3
	movss	DWORD PTR _sr$[ebp+8], xmm1
	movss	DWORD PTR _sr$[ebp+12], xmm0
	call	?DrawRect@CConsole@@IAEXABU?$_rect@M@@I@Z ; CConsole::DrawRect

; 434  : 	DrawRect( sr, tips_select_color );

	mov	edx, DWORD PTR _tips_select_color
	push	edx
	lea	eax, DWORD PTR _sr$[ebp]
	push	eax
	mov	ecx, edi
	call	?DrawRect@CConsole@@IAEXABU?$_rect@M@@I@Z ; CConsole::DrawRect

; 435  : 
; 436  : 	// --------------------------- highlight words --------------------
; 437  : 
; 438  : 	if ( m_select_tip < (int)m_tips.size() )

	mov	ecx, esi
	call	?size@?$_Impl_vector@UTipString@@V?$xalloc@UTipString@@@@@priv@stlp_std@@QBEIXZ ; stlp_std::priv::_Impl_vector<TipString,xalloc<TipString> >::size
	cmp	DWORD PTR [edi+96], eax
	jge	$LN128@DrawBackgr

; 439  : 	{
; 440  : 		Frect r;
; 441  : 
; 442  : 		vecTipsEx::iterator itb = m_tips.begin() + m_start_tip;

	mov	ecx, esi
	call	?begin@?$_Impl_vector@UTipString@@V?$xalloc@UTipString@@@@@priv@stlp_std@@QAEPAUTipString@@XZ ; stlp_std::priv::_Impl_vector<TipString,xalloc<TipString> >::begin
	mov	ecx, DWORD PTR [edi+100]
	lea	ecx, DWORD PTR [ecx+ecx*2]
	lea	ebx, DWORD PTR [eax+ecx*4]

; 443  : 		vecTipsEx::iterator ite = m_tips.end();

	mov	ecx, esi
	call	?end@?$_Impl_vector@UTipString@@V?$xalloc@UTipString@@@@@priv@stlp_std@@QAEPAUTipString@@XZ ; stlp_std::priv::_Impl_vector<TipString,xalloc<TipString> >::end

; 444  : 		for ( u32 i = 0; itb != ite; ++itb, ++i ) // tips

	cmp	ebx, eax
	mov	DWORD PTR _ite$132666[ebp], eax
	mov	DWORD PTR _i$132667[ebp], 0
	je	$LN128@DrawBackgr
$LN13@DrawBackgr:

; 445  : 		{
; 446  : 			TipString const& ts = (*itb);
; 447  : 			if ( (ts.HL_start < 0) || (ts.HL_finish < 0) || (ts.HL_start > ts.HL_finish) )

	mov	esi, DWORD PTR [ebx+4]
	test	esi, esi
	jl	$LN12@DrawBackgr
	mov	edx, DWORD PTR [ebx+8]
	test	edx, edx
	jl	$LN12@DrawBackgr
	cmp	esi, edx
	jg	$LN12@DrawBackgr

; 448  : 			{
; 449  : 				continue;
; 450  : 			}
; 451  : 			int    str_size = (int)ts.text.size();

	mov	ecx, DWORD PTR [ebx]
	test	ecx, ecx
	je	SHORT $LN106@DrawBackgr
$LN107@DrawBackgr:
	mov	ecx, DWORD PTR [ecx+4]
$LN106@DrawBackgr:

; 452  : 			if ( (ts.HL_start >= str_size) || (ts.HL_finish > str_size) )

	cmp	esi, ecx
	jge	$LN12@DrawBackgr
	cmp	edx, ecx
	jg	$LN12@DrawBackgr

; 453  : 			{
; 454  : 				continue;
; 455  : 			}
; 456  : 
; 457  : 			r.null();
; 458  : 			LPSTR  tmp      = (PSTR)_alloca( (str_size + 1) * sizeof(char) );

	lea	eax, DWORD PTR [ecx+1]
	mov	DWORD PTR tv754[ebp], eax
	call	__alloca_probe_16

; 459  : 
; 460  : 			strncpy_s( tmp, str_size+1, ts.text.c_str(), ts.HL_start );

	mov	eax, DWORD PTR [ebx]
	test	eax, eax
	mov	esi, esp
	je	SHORT $LN114@DrawBackgr
	add	eax, 16					; 00000010H
	jmp	SHORT $LN115@DrawBackgr
$LN114@DrawBackgr:
	xor	eax, eax
$LN115@DrawBackgr:
	mov	ecx, DWORD PTR [ebx+4]
	mov	edx, DWORD PTR tv754[ebp]
	push	ecx
	push	eax
	push	edx
	push	esi
	call	DWORD PTR __imp__strncpy_s

; 461  : 			r.x1 = pr.x1 + w1 + pFont->SizeOf_( tmp );

	mov	ecx, DWORD PTR [edi+16]
	add	esp, 16					; 00000010H
	push	esi
	call	?SizeOf_@CGameFont@@QAEMPBD@Z		; CGameFont::SizeOf_
	fadd	DWORD PTR _pr$[ebp]

; 462  : 			r.y1 = pr.y1 + i * font_h;

	mov	eax, DWORD PTR _i$132667[ebp]
	test	eax, eax
	fadd	DWORD PTR _w1$[ebp]
	fstp	DWORD PTR _r$132664[ebp]
	fild	DWORD PTR _i$132667[ebp]
	jge	SHORT $LN141@DrawBackgr
	fadd	DWORD PTR __real@4f800000
$LN141@DrawBackgr:
	fmul	DWORD PTR _font_h$[ebp]

; 463  : 
; 464  : 			strncpy_s( tmp, str_size+1, ts.text.c_str(), ts.HL_finish );

	mov	eax, DWORD PTR [ebx]
	test	eax, eax
	fadd	DWORD PTR _pr$[ebp+4]
	fstp	DWORD PTR _r$132664[ebp+4]
	je	SHORT $LN118@DrawBackgr
	add	eax, 16					; 00000010H
	jmp	SHORT $LN119@DrawBackgr
$LN118@DrawBackgr:
	xor	eax, eax
$LN119@DrawBackgr:
	mov	ecx, DWORD PTR [ebx+8]
	mov	edx, DWORD PTR tv754[ebp]
	push	ecx
	push	eax
	push	edx
	push	esi
	call	DWORD PTR __imp__strncpy_s

; 465  : 			r.x2 = pr.x1 + w1 + pFont->SizeOf_( tmp );

	mov	ecx, DWORD PTR [edi+16]
	add	esp, 16					; 00000010H
	push	esi
	call	?SizeOf_@CGameFont@@QAEMPBD@Z		; CGameFont::SizeOf_
	fadd	DWORD PTR _pr$[ebp]

; 466  : 			r.y2 = r.y1 + font_h;
; 467  : 
; 468  : 			DrawRect( r, tips_word_color );

	mov	eax, DWORD PTR _tips_word_color
	movss	xmm0, DWORD PTR _r$132664[ebp+4]
	fadd	DWORD PTR _w1$[ebp]
	addss	xmm0, DWORD PTR _font_h$[ebp]
	push	eax
	lea	ecx, DWORD PTR _r$132664[ebp]
	push	ecx
	fstp	DWORD PTR _r$132664[ebp+8]
	mov	ecx, edi
	movss	DWORD PTR _r$132664[ebp+12], xmm0
	call	?DrawRect@CConsole@@IAEXABU?$_rect@M@@I@Z ; CConsole::DrawRect

; 469  : 
; 470  : 			if ( i >= VIEW_TIPS_COUNT-1 )

	cmp	DWORD PTR _i$132667[ebp], 13		; 0000000dH
	jae	SHORT $LN128@DrawBackgr
	mov	eax, DWORD PTR _ite$132666[ebp]
$LN12@DrawBackgr:

; 444  : 		for ( u32 i = 0; itb != ite; ++itb, ++i ) // tips

	add	DWORD PTR _i$132667[ebp], 1
	add	ebx, 12					; 0000000cH
	cmp	ebx, eax
	jne	$LN13@DrawBackgr
$LN128@DrawBackgr:

; 471  : 			{
; 472  : 				break; // for itb
; 473  : 			}
; 474  : 		}// for itb
; 475  : 	} // if
; 476  : 
; 477  : 	// --------------------------- scroll bar --------------------
; 478  : 
; 479  : 	u32 tips_sz = m_tips.size();

	lea	ecx, DWORD PTR [edi+76]
	call	?size@?$_Impl_vector@UTipString@@V?$xalloc@UTipString@@@@@priv@stlp_std@@QBEIXZ ; stlp_std::priv::_Impl_vector<TipString,xalloc<TipString> >::size
	mov	esi, eax

; 480  : 	if ( tips_sz > VIEW_TIPS_COUNT )

	cmp	esi, 14					; 0000000eH
	jbe	$LN20@DrawBackgr

; 481  : 	{
; 482  : 		Frect rb, rs;
; 483  : 		
; 484  : 		rb.x1 = pr.x2;
; 485  : 		rb.y1 = pr.y1;

	movss	xmm1, DWORD PTR _pr$[ebp+4]
	movss	xmm0, DWORD PTR _pr$[ebp+8]

; 486  : 		rb.x2 = rb.x1 + 2 * w1;
; 487  : 		rb.y2 = pr.y2;
; 488  : 		DrawRect( rb, tips_scroll_back_color );

	mov	edx, DWORD PTR _tips_scroll_back_color
	movss	DWORD PTR _rb$132684[ebp+4], xmm1
	movss	xmm1, DWORD PTR tv524[ebp]
	addss	xmm1, xmm0
	push	edx
	lea	eax, DWORD PTR _rb$132684[ebp]
	movss	DWORD PTR _rb$132684[ebp], xmm0
	movss	xmm0, DWORD PTR _pr$[ebp+12]
	push	eax
	mov	ecx, edi
	movss	DWORD PTR _rb$132684[ebp+8], xmm1
	movss	DWORD PTR _rb$132684[ebp+12], xmm0
	call	?DrawRect@CConsole@@IAEXABU?$_rect@M@@I@Z ; CConsole::DrawRect

; 489  : 
; 490  : 		VERIFY( rb.y2 - rb.y1 >= 1.0f );
; 491  : 		float back_height = rb.y2 - rb.y1;
; 492  : 		float u_height = (back_height * VIEW_TIPS_COUNT)/ float(tips_sz);

	test	esi, esi
	movss	xmm0, DWORD PTR _pr$[ebp+12]
	movss	xmm4, DWORD PTR _pr$[ebp+4]
	mov	DWORD PTR tv725[ebp], esi
	fild	DWORD PTR tv725[ebp]
	subss	xmm0, xmm4
	movaps	xmm2, xmm0
	jge	SHORT $LN142@DrawBackgr
	fadd	DWORD PTR __real@4f800000
$LN142@DrawBackgr:

; 493  : 		if ( u_height < 0.5f * font_h )

	movss	xmm1, DWORD PTR _font_h$[ebp]
	fstp	DWORD PTR tv597[ebp]
	movss	xmm3, DWORD PTR tv597[ebp]
	mulss	xmm1, DWORD PTR __real@3f000000
	movaps	xmm0, xmm2
	mulss	xmm0, DWORD PTR __real@41600000
	divss	xmm0, xmm3
	comiss	xmm1, xmm0
	jbe	SHORT $LN1@DrawBackgr

; 494  : 		{
; 495  : 			u_height = 0.5f * font_h;

	movaps	xmm0, xmm1
$LN1@DrawBackgr:

; 496  : 		}
; 497  : 
; 498  : 		//float u_pos = (back_height - u_height) * float(m_start_tip) / float(tips_sz);
; 499  : 		float u_pos = back_height * float(m_start_tip) / float(tips_sz);
; 500  : 		
; 501  : 		//clamp( u_pos, 0.0f, back_height - u_height );
; 502  : 		
; 503  : 		rs = rb;

	mov	edx, DWORD PTR _rb$132684[ebp+4]
	mov	ecx, DWORD PTR _rb$132684[ebp]
	mov	eax, DWORD PTR _rb$132684[ebp+8]

; 504  : 		rs.y1 = pr.y1 + u_pos;

	cvtsi2ss xmm1, DWORD PTR [edi+100]
	mov	DWORD PTR _rs$132685[ebp+4], edx

; 505  : 		rs.y2 = rs.y1 + u_height;
; 506  : 		DrawRect( rs, tips_scroll_pos_color );

	mov	edx, DWORD PTR _tips_scroll_pos_color
	mulss	xmm1, xmm2
	mov	DWORD PTR _rs$132685[ebp], ecx
	mov	ecx, DWORD PTR _rb$132684[ebp+12]
	divss	xmm1, xmm3
	mov	DWORD PTR _rs$132685[ebp+8], eax
	addss	xmm1, xmm4
	mov	DWORD PTR _rs$132685[ebp+12], ecx
	push	edx
	lea	eax, DWORD PTR _rs$132685[ebp]
	movss	DWORD PTR _rs$132685[ebp+4], xmm1
	addss	xmm1, xmm0
	push	eax
	mov	ecx, edi
	movss	DWORD PTR _rs$132685[ebp+12], xmm1
	call	?DrawRect@CConsole@@IAEXABU?$_rect@M@@I@Z ; CConsole::DrawRect
$LN20@DrawBackgr:
	mov	ecx, DWORD PTR __imp_?UIRender@@3PAVIUIRender@@A
	mov	ecx, DWORD PTR [ecx]
	mov	edx, DWORD PTR [ecx]
	mov	eax, DWORD PTR [edx+32]
	call	eax

; 507  : 	}
; 508  : 
; 509  : 	UIRender->FlushPrimitive();
; 510  : }

	lea	esp, DWORD PTR [ebp-72]
	pop	edi
	pop	esi
	pop	ebx
	mov	esp, ebp
	pop	ebp
	ret	4
?DrawBackgrounds@CConsole@@IAEX_N@Z ENDP		; CConsole::DrawBackgrounds
_TEXT	ENDS
PUBLIC	?RemoveCommand@CConsole@@QAEXPAVIConsole_Command@@@Z ; CConsole::RemoveCommand
; Function compile flags: /Ogtpy
;	COMDAT ?RemoveCommand@CConsole@@QAEXPAVIConsole_Command@@@Z
_TEXT	SEGMENT
$T291139 = 8						; size = 4
_cc$ = 8						; size = 4
?RemoveCommand@CConsole@@QAEXPAVIConsole_Command@@@Z PROC ; CConsole::RemoveCommand, COMDAT
; _this$ = ecx

; 154  : 	vecCMD_IT it = Commands.find( cc->Name() );

	mov	eax, DWORD PTR _cc$[esp-4]
	mov	edx, DWORD PTR [eax+4]
	push	esi
	push	edi
	lea	esi, DWORD PTR [ecx+176]
	push	esi
	lea	edi, DWORD PTR $T291139[esp+8]
	mov	DWORD PTR $T291139[esp+8], edx
	call	??$_M_find@PBD@?$_Rb_tree@PBDUstr_pred@CConsole@@U?$pair@QBDPAVIConsole_Command@@@stlp_std@@U?$_Select1st@U?$pair@QBDPAVIConsole_Command@@@stlp_std@@@priv@4@U?$_MapTraitsT@U?$pair@QBDPAVIConsole_Command@@@stlp_std@@@64@V?$xalloc@U?$pair@PBDPAVIConsole_Command@@@stlp_std@@@@@priv@stlp_std@@ABEPAU_Rb_tree_node_base@12@ABQBD@Z ; stlp_std::priv::_Rb_tree<char const *,CConsole::str_pred,stlp_std::pair<char const * const,IConsole_Command *>,stlp_std::priv::_Select1st<stlp_std::pair<char const * const,IConsole_Command *> >,stlp_std::priv::_MapTraitsT<stlp_std::pair<char const * const,IConsole_Command *> >,xalloc<stlp_std::pair<char const *,IConsole_Command *> > >::_M_find<char const *>
	mov	ecx, eax

; 155  : 	if ( Commands.end() != it )

	cmp	esi, ecx
	je	SHORT $LN38@RemoveComm

; 156  : 	{
; 157  : 		Commands.erase(it);

	lea	edi, DWORD PTR [esi+4]
	lea	eax, DWORD PTR [esi+12]
	lea	edx, DWORD PTR [esi+8]
	push	edi
	call	?_Rebalance_for_erase@?$_Rb_global@_N@priv@stlp_std@@SAPAU_Rb_tree_node_base@23@PAU423@AAPAU423@11@Z ; stlp_std::priv::_Rb_global<bool>::_Rebalance_for_erase
	mov	edi, eax
	push	edi
	call	?_S_value@?$_Rb_tree@PBDUstr_pred@CConsole@@U?$pair@QBDPAVIConsole_Command@@@stlp_std@@U?$_Select1st@U?$pair@QBDPAVIConsole_Command@@@stlp_std@@@priv@4@U?$_MapTraitsT@U?$pair@QBDPAVIConsole_Command@@@stlp_std@@@64@V?$xalloc@U?$pair@PBDPAVIConsole_Command@@@stlp_std@@@@@priv@stlp_std@@KAAAU?$pair@QBDPAVIConsole_Command@@@3@PAU_Rb_tree_node_base@23@@Z ; stlp_std::priv::_Rb_tree<char const *,CConsole::str_pred,stlp_std::pair<char const * const,IConsole_Command *>,stlp_std::priv::_Select1st<stlp_std::pair<char const * const,IConsole_Command *> >,stlp_std::priv::_MapTraitsT<stlp_std::pair<char const * const,IConsole_Command *> >,xalloc<stlp_std::pair<char const *,IConsole_Command *> > >::_S_value
	push	eax
	call	??$_Destroy@U?$pair@QBDPAVIConsole_Command@@@stlp_std@@@stlp_std@@YAXPAU?$pair@QBDPAVIConsole_Command@@@0@@Z ; stlp_std::_Destroy<stlp_std::pair<char const * const,IConsole_Command *> >
	add	esp, 12					; 0000000cH
	push	1
	push	edi
	mov	ecx, esi
	call	?deallocate@?$xalloc@U?$_Rb_tree_node@U?$pair@QBDPAVIConsole_Command@@@stlp_std@@@priv@stlp_std@@@@QBEXPAU?$_Rb_tree_node@U?$pair@QBDPAVIConsole_Command@@@stlp_std@@@priv@stlp_std@@I@Z ; xalloc<stlp_std::priv::_Rb_tree_node<stlp_std::pair<char const * const,IConsole_Command *> > >::deallocate
	add	DWORD PTR [esi+16], -1
$LN38@RemoveComm:
	pop	edi
	pop	esi

; 158  : 	}
; 159  : }

	ret	4
?RemoveCommand@CConsole@@QAEXPAVIConsole_Command@@@Z ENDP ; CConsole::RemoveCommand
; Function compile flags: /Ogtpy
; File d:\clearsky\sources\engine\xrengine\xr_ioconsole.h
_TEXT	ENDS
;	COMDAT ??0TipString@@QAE@ABVshared_str@@@Z
_TEXT	SEGMENT
??0TipString@@QAE@ABVshared_str@@@Z PROC		; TipString::TipString, COMDAT
; _this$ = eax
; _tips_text$ = ecx

; 44   : 	TipString( shared_str const& tips_text )

	mov	DWORD PTR [eax], 0

; 45   : 	{
; 46   : 		text._set( tips_text );

	mov	edx, DWORD PTR [ecx]
	test	edx, edx
	je	SHORT $LN5@TipString
	add	DWORD PTR [edx], 1
$LN5@TipString:
	mov	ecx, DWORD PTR [eax]
	test	ecx, ecx
	je	SHORT $LN8@TipString
	add	DWORD PTR [ecx], -1
	mov	ecx, DWORD PTR [eax]
	cmp	DWORD PTR [ecx], 0
	jne	SHORT $LN8@TipString
	mov	DWORD PTR [eax], 0
$LN8@TipString:
	mov	DWORD PTR [eax], edx

; 47   : 		HL_start = 0;

	mov	DWORD PTR [eax+4], 0

; 48   : 		HL_finish = 0;

	mov	DWORD PTR [eax+8], 0

; 49   : 	}

	ret	0
??0TipString@@QAE@ABVshared_str@@@Z ENDP		; TipString::TipString
; Function compile flags: /Ogtpy
_TEXT	ENDS
;	COMDAT ??0TipString@@QAE@ABVshared_str@@HH@Z
_TEXT	SEGMENT
_start_pos$ = 8						; size = 4
_finish_pos$ = 12					; size = 4
??0TipString@@QAE@ABVshared_str@@HH@Z PROC		; TipString::TipString, COMDAT
; _this$ = eax
; _tips_text$ = ecx

; 32   : 	TipString( shared_str const& tips_text, int start_pos, int finish_pos )

	mov	DWORD PTR [eax], 0

; 33   : 	{
; 34   : 		text._set( tips_text );

	mov	ecx, DWORD PTR [ecx]
	test	ecx, ecx
	je	SHORT $LN5@TipString@2
	add	DWORD PTR [ecx], 1
$LN5@TipString@2:
	mov	edx, DWORD PTR [eax]
	test	edx, edx
	je	SHORT $LN8@TipString@2
	add	DWORD PTR [edx], -1
	mov	edx, DWORD PTR [eax]
	cmp	DWORD PTR [edx], 0
	jne	SHORT $LN8@TipString@2
	mov	DWORD PTR [eax], 0
$LN8@TipString@2:

; 35   : 		HL_start = start_pos;
; 36   : 		HL_finish = finish_pos;

	mov	edx, DWORD PTR _finish_pos$[esp-4]
	mov	DWORD PTR [eax], ecx
	mov	ecx, DWORD PTR _start_pos$[esp-4]
	mov	DWORD PTR [eax+4], ecx
	mov	DWORD PTR [eax+8], edx

; 37   : 	}

	ret	8
??0TipString@@QAE@ABVshared_str@@HH@Z ENDP		; TipString::TipString
; Function compile flags: /Ogtpy
; File d:\clearsky\sources\sdk\include\stlport\stl\_construct.h
;	COMDAT ??$__destroy_mv_srcs@V?$reverse_iterator@PAUTipString@@@stlp_std@@UTipString@@@stlp_std@@YAXV?$reverse_iterator@PAUTipString@@@0@0PAUTipString@@@Z
_TEXT	SEGMENT
$T366478 = -1						; size = 1
___first$ = 8						; size = 4
___last$ = 12						; size = 4
??$__destroy_mv_srcs@V?$reverse_iterator@PAUTipString@@@stlp_std@@UTipString@@@stlp_std@@YAXV?$reverse_iterator@PAUTipString@@@0@0PAUTipString@@@Z PROC ; stlp_std::__destroy_mv_srcs<stlp_std::reverse_iterator<TipString *>,TipString>, COMDAT

; 192  : __destroy_mv_srcs(_ForwardIterator __first, _ForwardIterator __last, _Tp *__ptr) {

	push	ecx

; 193  :   typedef typename __move_traits<_Tp>::complete _CompleteMove;
; 194  :   __destroy_range_aux(__first, __last, __ptr, _CompleteMove());

	lea	eax, DWORD PTR $T366478[esp+4]
	push	eax
	push	0
	push	ecx
	lea	edx, DWORD PTR ___last$[esp+12]
	mov	ecx, esp
	push	edx
	mov	BYTE PTR $T366478[esp+20], 0
	call	??0?$reverse_iterator@PAUTipString@@@stlp_std@@QAE@ABV01@@Z ; stlp_std::reverse_iterator<TipString *>::reverse_iterator<TipString *>
	push	ecx
	lea	eax, DWORD PTR ___first$[esp+16]
	mov	ecx, esp
	push	eax
	call	??0?$reverse_iterator@PAUTipString@@@stlp_std@@QAE@ABV01@@Z ; stlp_std::reverse_iterator<TipString *>::reverse_iterator<TipString *>
	call	??$__destroy_range_aux@V?$reverse_iterator@PAUTipString@@@stlp_std@@UTipString@@@stlp_std@@YAXV?$reverse_iterator@PAUTipString@@@0@0PAUTipString@@ABU__false_type@0@@Z ; stlp_std::__destroy_range_aux<stlp_std::reverse_iterator<TipString *>,TipString>

; 195  : }

	add	esp, 20					; 00000014H
	ret	0
??$__destroy_mv_srcs@V?$reverse_iterator@PAUTipString@@@stlp_std@@UTipString@@@stlp_std@@YAXV?$reverse_iterator@PAUTipString@@@0@0PAUTipString@@@Z ENDP ; stlp_std::__destroy_mv_srcs<stlp_std::reverse_iterator<TipString *>,TipString>
; Function compile flags: /Ogtpy
; File d:\clearsky\sources\sdk\include\stlport\stl\_tree.c
_TEXT	ENDS
;	COMDAT ?insert_unique@?$_Rb_tree@PBDUstr_pred@CConsole@@U?$pair@QBDPAVIConsole_Command@@@stlp_std@@U?$_Select1st@U?$pair@QBDPAVIConsole_Command@@@stlp_std@@@priv@4@U?$_MapTraitsT@U?$pair@QBDPAVIConsole_Command@@@stlp_std@@@64@V?$xalloc@U?$pair@PBDPAVIConsole_Command@@@stlp_std@@@@@priv@stlp_std@@QAE?AU?$pair@U?$_Rb_tree_iterator@U?$pair@QBDPAVIConsole_Command@@@stlp_std@@U?$_MapTraitsT@U?$pair@QBDPAVIConsole_Command@@@stlp_std@@@priv@2@@priv@stlp_std@@_N@3@ABU?$pair@QBDPAVIConsole_Command@@@3@@Z
_TEXT	SEGMENT
_this$ = 8						; size = 4
___$ReturnUdt$ = 12					; size = 4
$T366495 = 16						; size = 4
$T366492 = 16						; size = 4
___val$ = 16						; size = 4
?insert_unique@?$_Rb_tree@PBDUstr_pred@CConsole@@U?$pair@QBDPAVIConsole_Command@@@stlp_std@@U?$_Select1st@U?$pair@QBDPAVIConsole_Command@@@stlp_std@@@priv@4@U?$_MapTraitsT@U?$pair@QBDPAVIConsole_Command@@@stlp_std@@@64@V?$xalloc@U?$pair@PBDPAVIConsole_Command@@@stlp_std@@@@@priv@stlp_std@@QAE?AU?$pair@U?$_Rb_tree_iterator@U?$pair@QBDPAVIConsole_Command@@@stlp_std@@U?$_MapTraitsT@U?$pair@QBDPAVIConsole_Command@@@stlp_std@@@priv@2@@priv@stlp_std@@_N@3@ABU?$pair@QBDPAVIConsole_Command@@@3@@Z PROC ; stlp_std::priv::_Rb_tree<char const *,CConsole::str_pred,stlp_std::pair<char const * const,IConsole_Command *>,stlp_std::priv::_Select1st<stlp_std::pair<char const * const,IConsole_Command *> >,stlp_std::priv::_MapTraitsT<stlp_std::pair<char const * const,IConsole_Command *> >,xalloc<stlp_std::pair<char const *,IConsole_Command *> > >::insert_unique, COMDAT

; 406  :   _Base_ptr __y = &this->_M_header._M_data;

	mov	ecx, DWORD PTR _this$[esp-4]
	push	ebx
	push	ebp
	push	esi
	push	edi
	mov	ebp, ecx

; 407  :   _Base_ptr __x = _M_root();

	call	?_M_root@?$_Rb_tree@PBDUstr_pred@CConsole@@U?$pair@QBDPAVIConsole_Command@@@stlp_std@@U?$_Select1st@U?$pair@QBDPAVIConsole_Command@@@stlp_std@@@priv@4@U?$_MapTraitsT@U?$pair@QBDPAVIConsole_Command@@@stlp_std@@@64@V?$xalloc@U?$pair@PBDPAVIConsole_Command@@@stlp_std@@@@@priv@stlp_std@@IAEAAPAU_Rb_tree_node_base@23@XZ ; stlp_std::priv::_Rb_tree<char const *,CConsole::str_pred,stlp_std::pair<char const * const,IConsole_Command *>,stlp_std::priv::_Select1st<stlp_std::pair<char const * const,IConsole_Command *> >,stlp_std::priv::_MapTraitsT<stlp_std::pair<char const * const,IConsole_Command *> >,xalloc<stlp_std::pair<char const *,IConsole_Command *> > >::_M_root
	mov	esi, DWORD PTR [eax]

; 408  :   bool __comp = true;
; 409  :   while (__x != 0) {

	test	esi, esi
	mov	bl, 1
	je	SHORT $LN5@insert_uni@2
$LL6@insert_uni@2:

; 410  :     __y = __x;
; 411  :     __comp = _M_key_compare(_KeyOfValue()(__val), _S_key(__x));

	push	esi
	mov	ebp, esi
	call	?_S_value@?$_Rb_tree@PBDUstr_pred@CConsole@@U?$pair@QBDPAVIConsole_Command@@@stlp_std@@U?$_Select1st@U?$pair@QBDPAVIConsole_Command@@@stlp_std@@@priv@4@U?$_MapTraitsT@U?$pair@QBDPAVIConsole_Command@@@stlp_std@@@64@V?$xalloc@U?$pair@PBDPAVIConsole_Command@@@stlp_std@@@@@priv@stlp_std@@KAAAU?$pair@QBDPAVIConsole_Command@@@3@PAU_Rb_tree_node_base@23@@Z ; stlp_std::priv::_Rb_tree<char const *,CConsole::str_pred,stlp_std::pair<char const * const,IConsole_Command *>,stlp_std::priv::_Select1st<stlp_std::pair<char const * const,IConsole_Command *> >,stlp_std::priv::_MapTraitsT<stlp_std::pair<char const * const,IConsole_Command *> >,xalloc<stlp_std::pair<char const *,IConsole_Command *> > >::_S_value
	mov	ecx, DWORD PTR [eax]
	mov	eax, DWORD PTR ___val$[esp+16]
	mov	eax, DWORD PTR [eax]
	add	esp, 4
	npad	6
$LL81@insert_uni@2:
	mov	dl, BYTE PTR [eax]
	cmp	dl, BYTE PTR [ecx]
	jne	SHORT $LN82@insert_uni@2
	test	dl, dl
	je	SHORT $LN83@insert_uni@2
	mov	dl, BYTE PTR [eax+1]
	cmp	dl, BYTE PTR [ecx+1]
	jne	SHORT $LN82@insert_uni@2
	add	eax, 2
	add	ecx, 2
	test	dl, dl
	jne	SHORT $LL81@insert_uni@2
$LN83@insert_uni@2:
	xor	eax, eax
	jmp	SHORT $LN84@insert_uni@2
$LN82@insert_uni@2:
	sbb	eax, eax
	sbb	eax, -1
$LN84@insert_uni@2:
	test	eax, eax
	setl	bl

; 412  :     __x = __comp ? _S_left(__x) : _S_right(__x);

	test	bl, bl
	push	esi
	je	SHORT $LN9@insert_uni@2
	call	?_S_left@?$_Rb_tree@PBDUstr_pred@CConsole@@U?$pair@QBDPAVIConsole_Command@@@stlp_std@@U?$_Select1st@U?$pair@QBDPAVIConsole_Command@@@stlp_std@@@priv@4@U?$_MapTraitsT@U?$pair@QBDPAVIConsole_Command@@@stlp_std@@@64@V?$xalloc@U?$pair@PBDPAVIConsole_Command@@@stlp_std@@@@@priv@stlp_std@@KAAAPAU_Rb_tree_node_base@23@PAU423@@Z ; stlp_std::priv::_Rb_tree<char const *,CConsole::str_pred,stlp_std::pair<char const * const,IConsole_Command *>,stlp_std::priv::_Select1st<stlp_std::pair<char const * const,IConsole_Command *> >,stlp_std::priv::_MapTraitsT<stlp_std::pair<char const * const,IConsole_Command *> >,xalloc<stlp_std::pair<char const *,IConsole_Command *> > >::_S_left
	jmp	SHORT $LN89@insert_uni@2
$LN9@insert_uni@2:
	call	?_S_right@?$_Rb_tree@PBDUstr_pred@CConsole@@U?$pair@QBDPAVIConsole_Command@@@stlp_std@@U?$_Select1st@U?$pair@QBDPAVIConsole_Command@@@stlp_std@@@priv@4@U?$_MapTraitsT@U?$pair@QBDPAVIConsole_Command@@@stlp_std@@@64@V?$xalloc@U?$pair@PBDPAVIConsole_Command@@@stlp_std@@@@@priv@stlp_std@@KAAAPAU_Rb_tree_node_base@23@PAU423@@Z ; stlp_std::priv::_Rb_tree<char const *,CConsole::str_pred,stlp_std::pair<char const * const,IConsole_Command *>,stlp_std::priv::_Select1st<stlp_std::pair<char const * const,IConsole_Command *> >,stlp_std::priv::_MapTraitsT<stlp_std::pair<char const * const,IConsole_Command *> >,xalloc<stlp_std::pair<char const *,IConsole_Command *> > >::_S_right
$LN89@insert_uni@2:
	mov	esi, DWORD PTR [eax]
	add	esp, 4
	test	esi, esi
	jne	SHORT $LL6@insert_uni@2
$LN5@insert_uni@2:

; 413  :   }
; 414  :   iterator __j = iterator(__y);
; 415  :   if (__comp) {

	test	bl, bl
	mov	edi, ebp
	je	SHORT $LN53@insert_uni@2

; 416  :     if (__j == begin())

	mov	ebx, DWORD PTR _this$[esp+12]
	mov	ecx, ebx
	call	?_M_leftmost@?$_Rb_tree@PBDUstr_pred@CConsole@@U?$pair@QBDPAVIConsole_Command@@@stlp_std@@U?$_Select1st@U?$pair@QBDPAVIConsole_Command@@@stlp_std@@@priv@4@U?$_MapTraitsT@U?$pair@QBDPAVIConsole_Command@@@stlp_std@@@64@V?$xalloc@U?$pair@PBDPAVIConsole_Command@@@stlp_std@@@@@priv@stlp_std@@IAEAAPAU_Rb_tree_node_base@23@XZ ; stlp_std::priv::_Rb_tree<char const *,CConsole::str_pred,stlp_std::pair<char const * const,IConsole_Command *>,stlp_std::priv::_Select1st<stlp_std::pair<char const * const,IConsole_Command *> >,stlp_std::priv::_MapTraitsT<stlp_std::pair<char const * const,IConsole_Command *> >,xalloc<stlp_std::pair<char const *,IConsole_Command *> > >::_M_leftmost
	cmp	ebp, DWORD PTR [eax]
	jne	SHORT $LN3@insert_uni@2

; 417  :       return pair<iterator,bool>(_M_insert(__y, __val, /* __x*/ __y), true);

	mov	eax, DWORD PTR ___val$[esp+12]
	push	0
	push	ebp
	lea	ecx, DWORD PTR $T366492[esp+20]
	push	ecx
	mov	ecx, ebp
	call	?_M_insert@?$_Rb_tree@PBDUstr_pred@CConsole@@U?$pair@QBDPAVIConsole_Command@@@stlp_std@@U?$_Select1st@U?$pair@QBDPAVIConsole_Command@@@stlp_std@@@priv@4@U?$_MapTraitsT@U?$pair@QBDPAVIConsole_Command@@@stlp_std@@@64@V?$xalloc@U?$pair@PBDPAVIConsole_Command@@@stlp_std@@@@@priv@stlp_std@@AAE?AU?$_Rb_tree_iterator@U?$pair@QBDPAVIConsole_Command@@@stlp_std@@U?$_MapTraitsT@U?$pair@QBDPAVIConsole_Command@@@stlp_std@@@priv@2@@23@PAU_Rb_tree_node_base@23@ABU?$pair@QBDPAVIConsole_Command@@@3@00@Z ; stlp_std::priv::_Rb_tree<char const *,CConsole::str_pred,stlp_std::pair<char const * const,IConsole_Command *>,stlp_std::priv::_Select1st<stlp_std::pair<char const * const,IConsole_Command *> >,stlp_std::priv::_MapTraitsT<stlp_std::pair<char const * const,IConsole_Command *> >,xalloc<stlp_std::pair<char const *,IConsole_Command *> > >::_M_insert
	mov	edx, DWORD PTR [eax]
	mov	eax, DWORD PTR ___$ReturnUdt$[esp+12]
	pop	edi
	pop	esi
	pop	ebp
	mov	DWORD PTR [eax], edx
	mov	BYTE PTR [eax+4], 1
	pop	ebx

; 425  : }

	ret	12					; 0000000cH
$LN3@insert_uni@2:

; 418  :     else
; 419  :       --__j;

	push	ebp
	call	?_M_decrement@?$_Rb_global@_N@priv@stlp_std@@SAPAU_Rb_tree_node_base@23@PAU423@@Z ; stlp_std::priv::_Rb_global<bool>::_M_decrement
	add	esp, 4
	mov	edi, eax
$LN53@insert_uni@2:

; 420  :   }
; 421  :   if (_M_key_compare(_S_key(__j._M_node), _KeyOfValue()(__val))) {

	push	edi
	call	?_S_value@?$_Rb_tree@PBDUstr_pred@CConsole@@U?$pair@QBDPAVIConsole_Command@@@stlp_std@@U?$_Select1st@U?$pair@QBDPAVIConsole_Command@@@stlp_std@@@priv@4@U?$_MapTraitsT@U?$pair@QBDPAVIConsole_Command@@@stlp_std@@@64@V?$xalloc@U?$pair@PBDPAVIConsole_Command@@@stlp_std@@@@@priv@stlp_std@@KAAAU?$pair@QBDPAVIConsole_Command@@@3@PAU_Rb_tree_node_base@23@@Z ; stlp_std::priv::_Rb_tree<char const *,CConsole::str_pred,stlp_std::pair<char const * const,IConsole_Command *>,stlp_std::priv::_Select1st<stlp_std::pair<char const * const,IConsole_Command *> >,stlp_std::priv::_MapTraitsT<stlp_std::pair<char const * const,IConsole_Command *> >,xalloc<stlp_std::pair<char const *,IConsole_Command *> > >::_S_value
	mov	ebx, DWORD PTR ___val$[esp+16]
	mov	ecx, DWORD PTR [ebx]
	mov	eax, DWORD PTR [eax]
	add	esp, 4
	npad	5
$LL85@insert_uni@2:
	mov	dl, BYTE PTR [eax]
	cmp	dl, BYTE PTR [ecx]
	jne	SHORT $LN86@insert_uni@2
	test	dl, dl
	je	SHORT $LN87@insert_uni@2
	mov	dl, BYTE PTR [eax+1]
	cmp	dl, BYTE PTR [ecx+1]
	jne	SHORT $LN86@insert_uni@2
	add	eax, 2
	add	ecx, 2
	test	dl, dl
	jne	SHORT $LL85@insert_uni@2
$LN87@insert_uni@2:
	xor	eax, eax
	jmp	SHORT $LN88@insert_uni@2
$LN86@insert_uni@2:
	sbb	eax, eax
	sbb	eax, -1
$LN88@insert_uni@2:
	test	eax, eax
	jge	SHORT $LN1@insert_uni@2

; 422  :     return pair<iterator,bool>(_M_insert(__y, __val, __x), true);

	push	0
	push	esi
	lea	eax, DWORD PTR $T366495[esp+20]
	push	eax
	mov	eax, ebx
	mov	ebx, DWORD PTR _this$[esp+24]
	mov	ecx, ebp
	call	?_M_insert@?$_Rb_tree@PBDUstr_pred@CConsole@@U?$pair@QBDPAVIConsole_Command@@@stlp_std@@U?$_Select1st@U?$pair@QBDPAVIConsole_Command@@@stlp_std@@@priv@4@U?$_MapTraitsT@U?$pair@QBDPAVIConsole_Command@@@stlp_std@@@64@V?$xalloc@U?$pair@PBDPAVIConsole_Command@@@stlp_std@@@@@priv@stlp_std@@AAE?AU?$_Rb_tree_iterator@U?$pair@QBDPAVIConsole_Command@@@stlp_std@@U?$_MapTraitsT@U?$pair@QBDPAVIConsole_Command@@@stlp_std@@@priv@2@@23@PAU_Rb_tree_node_base@23@ABU?$pair@QBDPAVIConsole_Command@@@3@00@Z ; stlp_std::priv::_Rb_tree<char const *,CConsole::str_pred,stlp_std::pair<char const * const,IConsole_Command *>,stlp_std::priv::_Select1st<stlp_std::pair<char const * const,IConsole_Command *> >,stlp_std::priv::_MapTraitsT<stlp_std::pair<char const * const,IConsole_Command *> >,xalloc<stlp_std::pair<char const *,IConsole_Command *> > >::_M_insert
	mov	ecx, DWORD PTR [eax]
	mov	eax, DWORD PTR ___$ReturnUdt$[esp+12]
	pop	edi
	pop	esi
	pop	ebp
	mov	DWORD PTR [eax], ecx
	mov	BYTE PTR [eax+4], 1
	pop	ebx

; 425  : }

	ret	12					; 0000000cH
$LN1@insert_uni@2:

; 423  :   }
; 424  :   return pair<iterator,bool>(__j, false);

	mov	eax, DWORD PTR ___$ReturnUdt$[esp+12]
	mov	DWORD PTR [eax], edi
	pop	edi
	pop	esi
	pop	ebp
	mov	BYTE PTR [eax+4], 0
	pop	ebx

; 425  : }

	ret	12					; 0000000cH
?insert_unique@?$_Rb_tree@PBDUstr_pred@CConsole@@U?$pair@QBDPAVIConsole_Command@@@stlp_std@@U?$_Select1st@U?$pair@QBDPAVIConsole_Command@@@stlp_std@@@priv@4@U?$_MapTraitsT@U?$pair@QBDPAVIConsole_Command@@@stlp_std@@@64@V?$xalloc@U?$pair@PBDPAVIConsole_Command@@@stlp_std@@@@@priv@stlp_std@@QAE?AU?$pair@U?$_Rb_tree_iterator@U?$pair@QBDPAVIConsole_Command@@@stlp_std@@U?$_MapTraitsT@U?$pair@QBDPAVIConsole_Command@@@stlp_std@@@priv@2@@priv@stlp_std@@_N@3@ABU?$pair@QBDPAVIConsole_Command@@@3@@Z ENDP ; stlp_std::priv::_Rb_tree<char const *,CConsole::str_pred,stlp_std::pair<char const * const,IConsole_Command *>,stlp_std::priv::_Select1st<stlp_std::pair<char const * const,IConsole_Command *> >,stlp_std::priv::_MapTraitsT<stlp_std::pair<char const * const,IConsole_Command *> >,xalloc<stlp_std::pair<char const *,IConsole_Command *> > >::insert_unique
; Function compile flags: /Ogtpy
; File d:\clearsky\sources\sdk\include\stlport\stl\_construct.h
_TEXT	ENDS
;	COMDAT ??$_Destroy_Moved_Range@V?$reverse_iterator@PAUTipString@@@stlp_std@@@stlp_std@@YAXV?$reverse_iterator@PAUTipString@@@0@0@Z
_TEXT	SEGMENT
$T366668 = -9						; size = 1
$T366672 = -8						; size = 4
$T366673 = -4						; size = 4
___first$ = 8						; size = 4
___last$ = 12						; size = 4
??$_Destroy_Moved_Range@V?$reverse_iterator@PAUTipString@@@stlp_std@@@stlp_std@@YAXV?$reverse_iterator@PAUTipString@@@0@0@Z PROC ; stlp_std::_Destroy_Moved_Range<stlp_std::reverse_iterator<TipString *> >, COMDAT

; 198  : inline void _Destroy_Moved_Range(_ForwardIterator __first, _ForwardIterator __last) {

	sub	esp, 12					; 0000000cH

; 199  :   __destroy_mv_srcs(__first, __last, _STLP_VALUE_TYPE(__first, _ForwardIterator));

	lea	eax, DWORD PTR ___last$[esp+8]
	push	eax
	lea	ecx, DWORD PTR $T366672[esp+16]
	call	??0?$reverse_iterator@PAUTipString@@@stlp_std@@QAE@ABV01@@Z ; stlp_std::reverse_iterator<TipString *>::reverse_iterator<TipString *>
	lea	ecx, DWORD PTR ___first$[esp+8]
	push	ecx
	lea	ecx, DWORD PTR $T366673[esp+16]
	call	??0?$reverse_iterator@PAUTipString@@@stlp_std@@QAE@ABV01@@Z ; stlp_std::reverse_iterator<TipString *>::reverse_iterator<TipString *>
	lea	edx, DWORD PTR $T366668[esp+12]
	push	edx
	push	0
	push	ecx
	lea	eax, DWORD PTR $T366672[esp+24]
	mov	ecx, esp
	push	eax
	mov	BYTE PTR $T366668[esp+28], 0
	call	??0?$reverse_iterator@PAUTipString@@@stlp_std@@QAE@ABV01@@Z ; stlp_std::reverse_iterator<TipString *>::reverse_iterator<TipString *>
	push	ecx
	lea	edx, DWORD PTR $T366673[esp+28]
	mov	ecx, esp
	push	edx
	call	??0?$reverse_iterator@PAUTipString@@@stlp_std@@QAE@ABV01@@Z ; stlp_std::reverse_iterator<TipString *>::reverse_iterator<TipString *>
	call	??$__destroy_range_aux@V?$reverse_iterator@PAUTipString@@@stlp_std@@UTipString@@@stlp_std@@YAXV?$reverse_iterator@PAUTipString@@@0@0PAUTipString@@ABU__false_type@0@@Z ; stlp_std::__destroy_range_aux<stlp_std::reverse_iterator<TipString *>,TipString>

; 200  : }

	add	esp, 28					; 0000001cH
	ret	0
??$_Destroy_Moved_Range@V?$reverse_iterator@PAUTipString@@@stlp_std@@@stlp_std@@YAXV?$reverse_iterator@PAUTipString@@@0@0@Z ENDP ; stlp_std::_Destroy_Moved_Range<stlp_std::reverse_iterator<TipString *> >
; Function compile flags: /Ogtpy
; File d:\clearsky\sources\sdk\include\stlport\stl\_tree.c
_TEXT	ENDS
;	COMDAT ?insert_unique@?$_Rb_tree@PBDUstr_pred@CConsole@@U?$pair@QBDPAVIConsole_Command@@@stlp_std@@U?$_Select1st@U?$pair@QBDPAVIConsole_Command@@@stlp_std@@@priv@4@U?$_MapTraitsT@U?$pair@QBDPAVIConsole_Command@@@stlp_std@@@64@V?$xalloc@U?$pair@PBDPAVIConsole_Command@@@stlp_std@@@@@priv@stlp_std@@QAE?AU?$_Rb_tree_iterator@U?$pair@QBDPAVIConsole_Command@@@stlp_std@@U?$_MapTraitsT@U?$pair@QBDPAVIConsole_Command@@@stlp_std@@@priv@2@@23@U423@ABU?$pair@QBDPAVIConsole_Command@@@3@@Z
_TEXT	SEGMENT
$T366688 = -12						; size = 8
___after$141838 = -12					; size = 4
$T366683 = -12						; size = 8
$T366677 = -12						; size = 8
___comp_pos_v$141839 = 8				; size = 1
___before$141828 = 8					; size = 4
___position$ = 8					; size = 4
___comp_v_pos$141829 = 12				; size = 1
___after$141809 = 12					; size = 4
___val$ = 12						; size = 4
?insert_unique@?$_Rb_tree@PBDUstr_pred@CConsole@@U?$pair@QBDPAVIConsole_Command@@@stlp_std@@U?$_Select1st@U?$pair@QBDPAVIConsole_Command@@@stlp_std@@@priv@4@U?$_MapTraitsT@U?$pair@QBDPAVIConsole_Command@@@stlp_std@@@64@V?$xalloc@U?$pair@PBDPAVIConsole_Command@@@stlp_std@@@@@priv@stlp_std@@QAE?AU?$_Rb_tree_iterator@U?$pair@QBDPAVIConsole_Command@@@stlp_std@@U?$_MapTraitsT@U?$pair@QBDPAVIConsole_Command@@@stlp_std@@@priv@2@@23@U423@ABU?$pair@QBDPAVIConsole_Command@@@3@@Z PROC ; stlp_std::priv::_Rb_tree<char const *,CConsole::str_pred,stlp_std::pair<char const * const,IConsole_Command *>,stlp_std::priv::_Select1st<stlp_std::pair<char const * const,IConsole_Command *> >,stlp_std::priv::_MapTraitsT<stlp_std::pair<char const * const,IConsole_Command *> >,xalloc<stlp_std::pair<char const *,IConsole_Command *> > >::insert_unique, COMDAT
; _this$ = eax
; ___$ReturnUdt$ = esi

; 433  :                                                                           const _Value& __val) {

	sub	esp, 16					; 00000010H
	push	ebx
	push	ebp
	mov	ebp, DWORD PTR ___val$[esp+20]
	push	edi

; 434  :   if (__position._M_node == this->_M_header._M_data._M_left) { // begin()

	mov	edi, DWORD PTR ___position$[esp+24]
	mov	ebx, eax
	cmp	edi, DWORD PTR [ebx+8]
	jne	$LN27@insert_uni@3

; 435  : 
; 436  :     // if the container is empty, fall back on insert_unique.
; 437  :     if (empty())

	cmp	DWORD PTR [ebx+16], 0
	jne	SHORT $LN26@insert_uni@3

; 438  :       return insert_unique(__val).first;

	push	ebp
	lea	eax, DWORD PTR $T366677[esp+32]
	push	eax
	push	ebx
	call	?insert_unique@?$_Rb_tree@PBDUstr_pred@CConsole@@U?$pair@QBDPAVIConsole_Command@@@stlp_std@@U?$_Select1st@U?$pair@QBDPAVIConsole_Command@@@stlp_std@@@priv@4@U?$_MapTraitsT@U?$pair@QBDPAVIConsole_Command@@@stlp_std@@@64@V?$xalloc@U?$pair@PBDPAVIConsole_Command@@@stlp_std@@@@@priv@stlp_std@@QAE?AU?$pair@U?$_Rb_tree_iterator@U?$pair@QBDPAVIConsole_Command@@@stlp_std@@U?$_MapTraitsT@U?$pair@QBDPAVIConsole_Command@@@stlp_std@@@priv@2@@priv@stlp_std@@_N@3@ABU?$pair@QBDPAVIConsole_Command@@@3@@Z ; stlp_std::priv::_Rb_tree<char const *,CConsole::str_pred,stlp_std::pair<char const * const,IConsole_Command *>,stlp_std::priv::_Select1st<stlp_std::pair<char const * const,IConsole_Command *> >,stlp_std::priv::_MapTraitsT<stlp_std::pair<char const * const,IConsole_Command *> >,xalloc<stlp_std::pair<char const *,IConsole_Command *> > >::insert_unique
	mov	ecx, DWORD PTR [eax]
	mov	DWORD PTR [esi], ecx

; 529  :         else
; 530  :           return insert_unique(__val).first;

	mov	eax, esi

; 531  :       }
; 532  :     }
; 533  :   }
; 534  : }

	pop	edi
	pop	ebp
	pop	ebx
	add	esp, 16					; 00000010H
	ret	8
$LN26@insert_uni@3:

; 439  : 
; 440  :     if (_M_key_compare(_KeyOfValue()(__val), _S_key(__position._M_node))) {

	push	edi
	call	?_S_value@?$_Rb_tree@PBDUstr_pred@CConsole@@U?$pair@QBDPAVIConsole_Command@@@stlp_std@@U?$_Select1st@U?$pair@QBDPAVIConsole_Command@@@stlp_std@@@priv@4@U?$_MapTraitsT@U?$pair@QBDPAVIConsole_Command@@@stlp_std@@@64@V?$xalloc@U?$pair@PBDPAVIConsole_Command@@@stlp_std@@@@@priv@stlp_std@@KAAAU?$pair@QBDPAVIConsole_Command@@@3@PAU_Rb_tree_node_base@23@@Z ; stlp_std::priv::_Rb_tree<char const *,CConsole::str_pred,stlp_std::pair<char const * const,IConsole_Command *>,stlp_std::priv::_Select1st<stlp_std::pair<char const * const,IConsole_Command *> >,stlp_std::priv::_MapTraitsT<stlp_std::pair<char const * const,IConsole_Command *> >,xalloc<stlp_std::pair<char const *,IConsole_Command *> > >::_S_value
	mov	ecx, DWORD PTR [eax]
	mov	eax, DWORD PTR [ebp]
	add	esp, 4
$LL157@insert_uni@3:
	mov	dl, BYTE PTR [eax]
	cmp	dl, BYTE PTR [ecx]
	jne	SHORT $LN158@insert_uni@3
	test	dl, dl
	je	SHORT $LN159@insert_uni@3
	mov	dl, BYTE PTR [eax+1]
	cmp	dl, BYTE PTR [ecx+1]
	jne	SHORT $LN158@insert_uni@3
	add	eax, 2
	add	ecx, 2
	test	dl, dl
	jne	SHORT $LL157@insert_uni@3
$LN159@insert_uni@3:
	xor	eax, eax
	jmp	SHORT $LN160@insert_uni@3
$LN158@insert_uni@3:
	sbb	eax, eax
	sbb	eax, -1
$LN160@insert_uni@3:
	test	eax, eax
	jge	SHORT $LN25@insert_uni@3

; 441  :       return _M_insert(__position._M_node, __val, __position._M_node);

	push	0
	push	edi
	push	esi
	mov	eax, ebp
	mov	ecx, edi
	call	?_M_insert@?$_Rb_tree@PBDUstr_pred@CConsole@@U?$pair@QBDPAVIConsole_Command@@@stlp_std@@U?$_Select1st@U?$pair@QBDPAVIConsole_Command@@@stlp_std@@@priv@4@U?$_MapTraitsT@U?$pair@QBDPAVIConsole_Command@@@stlp_std@@@64@V?$xalloc@U?$pair@PBDPAVIConsole_Command@@@stlp_std@@@@@priv@stlp_std@@AAE?AU?$_Rb_tree_iterator@U?$pair@QBDPAVIConsole_Command@@@stlp_std@@U?$_MapTraitsT@U?$pair@QBDPAVIConsole_Command@@@stlp_std@@@priv@2@@23@PAU_Rb_tree_node_base@23@ABU?$pair@QBDPAVIConsole_Command@@@3@00@Z ; stlp_std::priv::_Rb_tree<char const *,CConsole::str_pred,stlp_std::pair<char const * const,IConsole_Command *>,stlp_std::priv::_Select1st<stlp_std::pair<char const * const,IConsole_Command *> >,stlp_std::priv::_MapTraitsT<stlp_std::pair<char const * const,IConsole_Command *> >,xalloc<stlp_std::pair<char const *,IConsole_Command *> > >::_M_insert

; 529  :         else
; 530  :           return insert_unique(__val).first;

	mov	eax, esi

; 531  :       }
; 532  :     }
; 533  :   }
; 534  : }

	pop	edi
	pop	ebp
	pop	ebx
	add	esp, 16					; 00000010H
	ret	8
$LN25@insert_uni@3:

; 442  :     }
; 443  :     // first argument just needs to be non-null
; 444  :     else {
; 445  :       bool __comp_pos_v = _M_key_compare( _S_key(__position._M_node), _KeyOfValue()(__val) );

	push	edi
	call	?_S_value@?$_Rb_tree@PBDUstr_pred@CConsole@@U?$pair@QBDPAVIConsole_Command@@@stlp_std@@U?$_Select1st@U?$pair@QBDPAVIConsole_Command@@@stlp_std@@@priv@4@U?$_MapTraitsT@U?$pair@QBDPAVIConsole_Command@@@stlp_std@@@64@V?$xalloc@U?$pair@PBDPAVIConsole_Command@@@stlp_std@@@@@priv@stlp_std@@KAAAU?$pair@QBDPAVIConsole_Command@@@3@PAU_Rb_tree_node_base@23@@Z ; stlp_std::priv::_Rb_tree<char const *,CConsole::str_pred,stlp_std::pair<char const * const,IConsole_Command *>,stlp_std::priv::_Select1st<stlp_std::pair<char const * const,IConsole_Command *> >,stlp_std::priv::_MapTraitsT<stlp_std::pair<char const * const,IConsole_Command *> >,xalloc<stlp_std::pair<char const *,IConsole_Command *> > >::_S_value
	mov	ecx, DWORD PTR [ebp]
	mov	eax, DWORD PTR [eax]
	add	esp, 4
	call	??Rstr_pred@CConsole@@QBE_NPBD0@Z	; CConsole::str_pred::operator()

; 446  : 
; 447  :       if (__comp_pos_v == false)  // compare > and compare < both false so compare equal

	test	al, al
	jne	SHORT $LN23@insert_uni@3
$LN156@insert_uni@3:

; 448  :         return __position;

	mov	DWORD PTR [esi], edi

; 529  :         else
; 530  :           return insert_unique(__val).first;

	mov	eax, esi

; 531  :       }
; 532  :     }
; 533  :   }
; 534  : }

	pop	edi
	pop	ebp
	pop	ebx
	add	esp, 16					; 00000010H
	ret	8
$LN23@insert_uni@3:

; 449  :       //Below __comp_pos_v == true
; 450  : 
; 451  :       // Standard-conformance - does the insertion point fall immediately AFTER
; 452  :       // the hint?
; 453  :       iterator __after = __position;
; 454  :       ++__after;

	lea	eax, DWORD PTR ___after$141809[esp+24]
	mov	DWORD PTR ___after$141809[esp+24], edi
	call	??E?$_Rb_tree_iterator@U?$pair@QBDPAVIConsole_Command@@@stlp_std@@U?$_MapTraitsT@U?$pair@QBDPAVIConsole_Command@@@stlp_std@@@priv@2@@priv@stlp_std@@QAEAAU012@XZ ; stlp_std::priv::_Rb_tree_iterator<stlp_std::pair<char const * const,IConsole_Command *>,stlp_std::priv::_MapTraitsT<stlp_std::pair<char const * const,IConsole_Command *> > >::operator++

; 455  : 
; 456  :       // Check for only one member -- in that case, __position points to itself,
; 457  :       // and attempting to increment will cause an infinite loop.
; 458  :       if (__after._M_node == &this->_M_header._M_data)

	mov	eax, DWORD PTR ___after$141809[esp+24]
	cmp	eax, ebx
	jne	SHORT $LN22@insert_uni@3

; 459  :         // Check guarantees exactly one member, so comparison was already
; 460  :         // performed and we know the result; skip repeating it in _M_insert
; 461  :         // by specifying a non-zero fourth argument.
; 462  :         return _M_insert(__position._M_node, __val, 0, __position._M_node);

	push	edi
	push	0
	push	esi
	mov	eax, ebp
	mov	ecx, edi
	call	?_M_insert@?$_Rb_tree@PBDUstr_pred@CConsole@@U?$pair@QBDPAVIConsole_Command@@@stlp_std@@U?$_Select1st@U?$pair@QBDPAVIConsole_Command@@@stlp_std@@@priv@4@U?$_MapTraitsT@U?$pair@QBDPAVIConsole_Command@@@stlp_std@@@64@V?$xalloc@U?$pair@PBDPAVIConsole_Command@@@stlp_std@@@@@priv@stlp_std@@AAE?AU?$_Rb_tree_iterator@U?$pair@QBDPAVIConsole_Command@@@stlp_std@@U?$_MapTraitsT@U?$pair@QBDPAVIConsole_Command@@@stlp_std@@@priv@2@@23@PAU_Rb_tree_node_base@23@ABU?$pair@QBDPAVIConsole_Command@@@3@00@Z ; stlp_std::priv::_Rb_tree<char const *,CConsole::str_pred,stlp_std::pair<char const * const,IConsole_Command *>,stlp_std::priv::_Select1st<stlp_std::pair<char const * const,IConsole_Command *> >,stlp_std::priv::_MapTraitsT<stlp_std::pair<char const * const,IConsole_Command *> >,xalloc<stlp_std::pair<char const *,IConsole_Command *> > >::_M_insert

; 529  :         else
; 530  :           return insert_unique(__val).first;

	mov	eax, esi

; 531  :       }
; 532  :     }
; 533  :   }
; 534  : }

	pop	edi
	pop	ebp
	pop	ebx
	add	esp, 16					; 00000010H
	ret	8
$LN22@insert_uni@3:

; 463  : 
; 464  :       // All other cases:
; 465  : 
; 466  :       // Optimization to catch insert-equivalent -- save comparison results,
; 467  :       // and we get this for free.
; 468  :       if (_M_key_compare( _KeyOfValue()(__val), _S_key(__after._M_node) )) {

	push	eax
	call	?_S_value@?$_Rb_tree@PBDUstr_pred@CConsole@@U?$pair@QBDPAVIConsole_Command@@@stlp_std@@U?$_Select1st@U?$pair@QBDPAVIConsole_Command@@@stlp_std@@@priv@4@U?$_MapTraitsT@U?$pair@QBDPAVIConsole_Command@@@stlp_std@@@64@V?$xalloc@U?$pair@PBDPAVIConsole_Command@@@stlp_std@@@@@priv@stlp_std@@KAAAU?$pair@QBDPAVIConsole_Command@@@3@PAU_Rb_tree_node_base@23@@Z ; stlp_std::priv::_Rb_tree<char const *,CConsole::str_pred,stlp_std::pair<char const * const,IConsole_Command *>,stlp_std::priv::_Select1st<stlp_std::pair<char const * const,IConsole_Command *> >,stlp_std::priv::_MapTraitsT<stlp_std::pair<char const * const,IConsole_Command *> >,xalloc<stlp_std::pair<char const *,IConsole_Command *> > >::_S_value
	mov	ecx, DWORD PTR [eax]
	mov	eax, DWORD PTR [ebp]
	add	esp, 4
	call	??Rstr_pred@CConsole@@QBE_NPBD0@Z	; CConsole::str_pred::operator()
	test	al, al
	je	$LN2@insert_uni@3

; 469  :         if (_S_right(__position._M_node) == 0)

	push	edi
	call	?_S_right@?$_Rb_tree@PBDUstr_pred@CConsole@@U?$pair@QBDPAVIConsole_Command@@@stlp_std@@U?$_Select1st@U?$pair@QBDPAVIConsole_Command@@@stlp_std@@@priv@4@U?$_MapTraitsT@U?$pair@QBDPAVIConsole_Command@@@stlp_std@@@64@V?$xalloc@U?$pair@PBDPAVIConsole_Command@@@stlp_std@@@@@priv@stlp_std@@KAAAPAU_Rb_tree_node_base@23@PAU423@@Z ; stlp_std::priv::_Rb_tree<char const *,CConsole::str_pred,stlp_std::pair<char const * const,IConsole_Command *>,stlp_std::priv::_Select1st<stlp_std::pair<char const * const,IConsole_Command *> >,stlp_std::priv::_MapTraitsT<stlp_std::pair<char const * const,IConsole_Command *> >,xalloc<stlp_std::pair<char const *,IConsole_Command *> > >::_S_right
	add	esp, 4
	cmp	DWORD PTR [eax], 0

; 470  :           return _M_insert(__position._M_node, __val, 0, __position._M_node);

	mov	eax, ebp
	jne	SHORT $LN20@insert_uni@3
$LN171@insert_uni@3:
	push	edi
	push	0
	push	esi
	mov	ecx, edi
	call	?_M_insert@?$_Rb_tree@PBDUstr_pred@CConsole@@U?$pair@QBDPAVIConsole_Command@@@stlp_std@@U?$_Select1st@U?$pair@QBDPAVIConsole_Command@@@stlp_std@@@priv@4@U?$_MapTraitsT@U?$pair@QBDPAVIConsole_Command@@@stlp_std@@@64@V?$xalloc@U?$pair@PBDPAVIConsole_Command@@@stlp_std@@@@@priv@stlp_std@@AAE?AU?$_Rb_tree_iterator@U?$pair@QBDPAVIConsole_Command@@@stlp_std@@U?$_MapTraitsT@U?$pair@QBDPAVIConsole_Command@@@stlp_std@@@priv@2@@23@PAU_Rb_tree_node_base@23@ABU?$pair@QBDPAVIConsole_Command@@@3@00@Z ; stlp_std::priv::_Rb_tree<char const *,CConsole::str_pred,stlp_std::pair<char const * const,IConsole_Command *>,stlp_std::priv::_Select1st<stlp_std::pair<char const * const,IConsole_Command *> >,stlp_std::priv::_MapTraitsT<stlp_std::pair<char const * const,IConsole_Command *> >,xalloc<stlp_std::pair<char const *,IConsole_Command *> > >::_M_insert

; 529  :         else
; 530  :           return insert_unique(__val).first;

	mov	eax, esi

; 531  :       }
; 532  :     }
; 533  :   }
; 534  : }

	pop	edi
	pop	ebp
	pop	ebx
	add	esp, 16					; 00000010H
	ret	8
$LN20@insert_uni@3:

; 471  :         else
; 472  :           return _M_insert(__after._M_node, __val, __after._M_node);

	mov	ecx, DWORD PTR ___after$141809[esp+24]
	push	0
	push	ecx
	push	esi
	call	?_M_insert@?$_Rb_tree@PBDUstr_pred@CConsole@@U?$pair@QBDPAVIConsole_Command@@@stlp_std@@U?$_Select1st@U?$pair@QBDPAVIConsole_Command@@@stlp_std@@@priv@4@U?$_MapTraitsT@U?$pair@QBDPAVIConsole_Command@@@stlp_std@@@64@V?$xalloc@U?$pair@PBDPAVIConsole_Command@@@stlp_std@@@@@priv@stlp_std@@AAE?AU?$_Rb_tree_iterator@U?$pair@QBDPAVIConsole_Command@@@stlp_std@@U?$_MapTraitsT@U?$pair@QBDPAVIConsole_Command@@@stlp_std@@@priv@2@@23@PAU_Rb_tree_node_base@23@ABU?$pair@QBDPAVIConsole_Command@@@3@00@Z ; stlp_std::priv::_Rb_tree<char const *,CConsole::str_pred,stlp_std::pair<char const * const,IConsole_Command *>,stlp_std::priv::_Select1st<stlp_std::pair<char const * const,IConsole_Command *> >,stlp_std::priv::_MapTraitsT<stlp_std::pair<char const * const,IConsole_Command *> >,xalloc<stlp_std::pair<char const *,IConsole_Command *> > >::_M_insert

; 529  :         else
; 530  :           return insert_unique(__val).first;

	mov	eax, esi

; 531  :       }
; 532  :     }
; 533  :   }
; 534  : }

	pop	edi
	pop	ebp
	pop	ebx
	add	esp, 16					; 00000010H
	ret	8
$LN27@insert_uni@3:

; 473  :       }
; 474  :       else {
; 475  :         return insert_unique(__val).first;
; 476  :       }
; 477  :     }
; 478  :   }
; 479  :   else if (__position._M_node == &this->_M_header._M_data) { // end()

	cmp	edi, ebx
	jne	SHORT $LN16@insert_uni@3

; 480  :     if (_M_key_compare(_S_key(_M_rightmost()), _KeyOfValue()(__val))) {

	mov	ecx, ebx
	call	?_M_rightmost@?$_Rb_tree@PBDUstr_pred@CConsole@@U?$pair@QBDPAVIConsole_Command@@@stlp_std@@U?$_Select1st@U?$pair@QBDPAVIConsole_Command@@@stlp_std@@@priv@4@U?$_MapTraitsT@U?$pair@QBDPAVIConsole_Command@@@stlp_std@@@64@V?$xalloc@U?$pair@PBDPAVIConsole_Command@@@stlp_std@@@@@priv@stlp_std@@IAEAAPAU_Rb_tree_node_base@23@XZ ; stlp_std::priv::_Rb_tree<char const *,CConsole::str_pred,stlp_std::pair<char const * const,IConsole_Command *>,stlp_std::priv::_Select1st<stlp_std::pair<char const * const,IConsole_Command *> >,stlp_std::priv::_MapTraitsT<stlp_std::pair<char const * const,IConsole_Command *> >,xalloc<stlp_std::pair<char const *,IConsole_Command *> > >::_M_rightmost
	mov	eax, DWORD PTR [eax]
	push	eax
	call	?_S_value@?$_Rb_tree@PBDUstr_pred@CConsole@@U?$pair@QBDPAVIConsole_Command@@@stlp_std@@U?$_Select1st@U?$pair@QBDPAVIConsole_Command@@@stlp_std@@@priv@4@U?$_MapTraitsT@U?$pair@QBDPAVIConsole_Command@@@stlp_std@@@64@V?$xalloc@U?$pair@PBDPAVIConsole_Command@@@stlp_std@@@@@priv@stlp_std@@KAAAU?$pair@QBDPAVIConsole_Command@@@3@PAU_Rb_tree_node_base@23@@Z ; stlp_std::priv::_Rb_tree<char const *,CConsole::str_pred,stlp_std::pair<char const * const,IConsole_Command *>,stlp_std::priv::_Select1st<stlp_std::pair<char const * const,IConsole_Command *> >,stlp_std::priv::_MapTraitsT<stlp_std::pair<char const * const,IConsole_Command *> >,xalloc<stlp_std::pair<char const *,IConsole_Command *> > >::_S_value
	mov	ecx, DWORD PTR [ebp]
	mov	eax, DWORD PTR [eax]
	add	esp, 4
	npad	2
$LL161@insert_uni@3:
	mov	dl, BYTE PTR [eax]
	cmp	dl, BYTE PTR [ecx]
	jne	SHORT $LN162@insert_uni@3
	test	dl, dl
	je	SHORT $LN163@insert_uni@3
	mov	dl, BYTE PTR [eax+1]
	cmp	dl, BYTE PTR [ecx+1]
	jne	SHORT $LN162@insert_uni@3
	add	eax, 2
	add	ecx, 2
	test	dl, dl
	jne	SHORT $LL161@insert_uni@3
$LN163@insert_uni@3:
	xor	eax, eax
	jmp	SHORT $LN164@insert_uni@3
$LN162@insert_uni@3:
	sbb	eax, eax
	sbb	eax, -1
$LN164@insert_uni@3:
	test	eax, eax
	jge	SHORT $LN15@insert_uni@3

; 481  :         // pass along to _M_insert that it can skip comparing
; 482  :         // v, Key ; since compare Key, v was true, compare v, Key must be false.
; 483  :         return _M_insert(_M_rightmost(), __val, 0, __position._M_node); // Last argument only needs to be non-null

	mov	ecx, ebx
	call	?_M_rightmost@?$_Rb_tree@PBDUstr_pred@CConsole@@U?$pair@QBDPAVIConsole_Command@@@stlp_std@@U?$_Select1st@U?$pair@QBDPAVIConsole_Command@@@stlp_std@@@priv@4@U?$_MapTraitsT@U?$pair@QBDPAVIConsole_Command@@@stlp_std@@@64@V?$xalloc@U?$pair@PBDPAVIConsole_Command@@@stlp_std@@@@@priv@stlp_std@@IAEAAPAU_Rb_tree_node_base@23@XZ ; stlp_std::priv::_Rb_tree<char const *,CConsole::str_pred,stlp_std::pair<char const * const,IConsole_Command *>,stlp_std::priv::_Select1st<stlp_std::pair<char const * const,IConsole_Command *> >,stlp_std::priv::_MapTraitsT<stlp_std::pair<char const * const,IConsole_Command *> >,xalloc<stlp_std::pair<char const *,IConsole_Command *> > >::_M_rightmost
	push	edi
	mov	ecx, eax
	mov	ecx, DWORD PTR [ecx]
	push	0
	push	esi
	mov	eax, ebp
	call	?_M_insert@?$_Rb_tree@PBDUstr_pred@CConsole@@U?$pair@QBDPAVIConsole_Command@@@stlp_std@@U?$_Select1st@U?$pair@QBDPAVIConsole_Command@@@stlp_std@@@priv@4@U?$_MapTraitsT@U?$pair@QBDPAVIConsole_Command@@@stlp_std@@@64@V?$xalloc@U?$pair@PBDPAVIConsole_Command@@@stlp_std@@@@@priv@stlp_std@@AAE?AU?$_Rb_tree_iterator@U?$pair@QBDPAVIConsole_Command@@@stlp_std@@U?$_MapTraitsT@U?$pair@QBDPAVIConsole_Command@@@stlp_std@@@priv@2@@23@PAU_Rb_tree_node_base@23@ABU?$pair@QBDPAVIConsole_Command@@@3@00@Z ; stlp_std::priv::_Rb_tree<char const *,CConsole::str_pred,stlp_std::pair<char const * const,IConsole_Command *>,stlp_std::priv::_Select1st<stlp_std::pair<char const * const,IConsole_Command *> >,stlp_std::priv::_MapTraitsT<stlp_std::pair<char const * const,IConsole_Command *> >,xalloc<stlp_std::pair<char const *,IConsole_Command *> > >::_M_insert

; 529  :         else
; 530  :           return insert_unique(__val).first;

	mov	eax, esi

; 531  :       }
; 532  :     }
; 533  :   }
; 534  : }

	pop	edi
	pop	ebp
	pop	ebx
	add	esp, 16					; 00000010H
	ret	8
$LN15@insert_uni@3:

; 484  :     }
; 485  :     else
; 486  :       return insert_unique(__val).first;

	push	ebp
	lea	ecx, DWORD PTR $T366683[esp+32]
	push	ecx
	push	ebx
	call	?insert_unique@?$_Rb_tree@PBDUstr_pred@CConsole@@U?$pair@QBDPAVIConsole_Command@@@stlp_std@@U?$_Select1st@U?$pair@QBDPAVIConsole_Command@@@stlp_std@@@priv@4@U?$_MapTraitsT@U?$pair@QBDPAVIConsole_Command@@@stlp_std@@@64@V?$xalloc@U?$pair@PBDPAVIConsole_Command@@@stlp_std@@@@@priv@stlp_std@@QAE?AU?$pair@U?$_Rb_tree_iterator@U?$pair@QBDPAVIConsole_Command@@@stlp_std@@U?$_MapTraitsT@U?$pair@QBDPAVIConsole_Command@@@stlp_std@@@priv@2@@priv@stlp_std@@_N@3@ABU?$pair@QBDPAVIConsole_Command@@@3@@Z ; stlp_std::priv::_Rb_tree<char const *,CConsole::str_pred,stlp_std::pair<char const * const,IConsole_Command *>,stlp_std::priv::_Select1st<stlp_std::pair<char const * const,IConsole_Command *> >,stlp_std::priv::_MapTraitsT<stlp_std::pair<char const * const,IConsole_Command *> >,xalloc<stlp_std::pair<char const *,IConsole_Command *> > >::insert_unique
	mov	edx, DWORD PTR [eax]
	mov	DWORD PTR [esi], edx

; 529  :         else
; 530  :           return insert_unique(__val).first;

	mov	eax, esi

; 531  :       }
; 532  :     }
; 533  :   }
; 534  : }

	pop	edi
	pop	ebp
	pop	ebx
	add	esp, 16					; 00000010H
	ret	8
$LN16@insert_uni@3:

; 487  :   }
; 488  :   else {
; 489  :     iterator __before = __position;
; 490  :     --__before;

	push	edi
	call	?_M_decrement@?$_Rb_global@_N@priv@stlp_std@@SAPAU_Rb_tree_node_base@23@PAU423@@Z ; stlp_std::priv::_Rb_global<bool>::_M_decrement

; 491  : 
; 492  :     bool __comp_v_pos = _M_key_compare(_KeyOfValue()(__val), _S_key(__position._M_node));

	push	edi
	mov	DWORD PTR ___before$141828[esp+32], eax
	call	?_S_value@?$_Rb_tree@PBDUstr_pred@CConsole@@U?$pair@QBDPAVIConsole_Command@@@stlp_std@@U?$_Select1st@U?$pair@QBDPAVIConsole_Command@@@stlp_std@@@priv@4@U?$_MapTraitsT@U?$pair@QBDPAVIConsole_Command@@@stlp_std@@@64@V?$xalloc@U?$pair@PBDPAVIConsole_Command@@@stlp_std@@@@@priv@stlp_std@@KAAAU?$pair@QBDPAVIConsole_Command@@@3@PAU_Rb_tree_node_base@23@@Z ; stlp_std::priv::_Rb_tree<char const *,CConsole::str_pred,stlp_std::pair<char const * const,IConsole_Command *>,stlp_std::priv::_Select1st<stlp_std::pair<char const * const,IConsole_Command *> >,stlp_std::priv::_MapTraitsT<stlp_std::pair<char const * const,IConsole_Command *> >,xalloc<stlp_std::pair<char const *,IConsole_Command *> > >::_S_value
	mov	ecx, DWORD PTR [eax]
	mov	eax, DWORD PTR [ebp]
	add	esp, 8
	npad	3
$LL165@insert_uni@3:
	mov	dl, BYTE PTR [eax]
	cmp	dl, BYTE PTR [ecx]
	jne	SHORT $LN166@insert_uni@3
	test	dl, dl
	je	SHORT $LN167@insert_uni@3
	mov	dl, BYTE PTR [eax+1]
	cmp	dl, BYTE PTR [ecx+1]
	jne	SHORT $LN166@insert_uni@3
	add	eax, 2
	add	ecx, 2
	test	dl, dl
	jne	SHORT $LL165@insert_uni@3
$LN167@insert_uni@3:
	xor	eax, eax
	jmp	SHORT $LN168@insert_uni@3
$LN166@insert_uni@3:
	sbb	eax, eax
	sbb	eax, -1
$LN168@insert_uni@3:
	test	eax, eax
	setl	al

; 493  : 
; 494  :     if (__comp_v_pos
; 495  :         && _M_key_compare( _S_key(__before._M_node), _KeyOfValue()(__val) )) {

	test	al, al
	mov	BYTE PTR ___comp_v_pos$141829[esp+24], al
	je	SHORT $LN12@insert_uni@3
	mov	eax, DWORD PTR ___before$141828[esp+24]
	push	eax
	call	?_S_value@?$_Rb_tree@PBDUstr_pred@CConsole@@U?$pair@QBDPAVIConsole_Command@@@stlp_std@@U?$_Select1st@U?$pair@QBDPAVIConsole_Command@@@stlp_std@@@priv@4@U?$_MapTraitsT@U?$pair@QBDPAVIConsole_Command@@@stlp_std@@@64@V?$xalloc@U?$pair@PBDPAVIConsole_Command@@@stlp_std@@@@@priv@stlp_std@@KAAAU?$pair@QBDPAVIConsole_Command@@@3@PAU_Rb_tree_node_base@23@@Z ; stlp_std::priv::_Rb_tree<char const *,CConsole::str_pred,stlp_std::pair<char const * const,IConsole_Command *>,stlp_std::priv::_Select1st<stlp_std::pair<char const * const,IConsole_Command *> >,stlp_std::priv::_MapTraitsT<stlp_std::pair<char const * const,IConsole_Command *> >,xalloc<stlp_std::pair<char const *,IConsole_Command *> > >::_S_value
	mov	ecx, DWORD PTR [ebp]
	mov	eax, DWORD PTR [eax]
	add	esp, 4
	call	??Rstr_pred@CConsole@@QBE_NPBD0@Z	; CConsole::str_pred::operator()
	test	al, al
	je	SHORT $LN12@insert_uni@3

; 496  : 
; 497  :       if (_S_right(__before._M_node) == 0)

	mov	ecx, DWORD PTR ___before$141828[esp+24]
	push	ecx
	call	?_S_right@?$_Rb_tree@PBDUstr_pred@CConsole@@U?$pair@QBDPAVIConsole_Command@@@stlp_std@@U?$_Select1st@U?$pair@QBDPAVIConsole_Command@@@stlp_std@@@priv@4@U?$_MapTraitsT@U?$pair@QBDPAVIConsole_Command@@@stlp_std@@@64@V?$xalloc@U?$pair@PBDPAVIConsole_Command@@@stlp_std@@@@@priv@stlp_std@@KAAAPAU_Rb_tree_node_base@23@PAU423@@Z ; stlp_std::priv::_Rb_tree<char const *,CConsole::str_pred,stlp_std::pair<char const * const,IConsole_Command *>,stlp_std::priv::_Select1st<stlp_std::pair<char const * const,IConsole_Command *> >,stlp_std::priv::_MapTraitsT<stlp_std::pair<char const * const,IConsole_Command *> >,xalloc<stlp_std::pair<char const *,IConsole_Command *> > >::_S_right
	add	esp, 4
	cmp	DWORD PTR [eax], 0

; 498  :         return _M_insert(__before._M_node, __val, 0, __before._M_node); // Last argument only needs to be non-null

	mov	eax, ebp
	jne	SHORT $LN11@insert_uni@3
	mov	ecx, DWORD PTR ___before$141828[esp+24]
	push	ecx
	push	0
	push	esi
	call	?_M_insert@?$_Rb_tree@PBDUstr_pred@CConsole@@U?$pair@QBDPAVIConsole_Command@@@stlp_std@@U?$_Select1st@U?$pair@QBDPAVIConsole_Command@@@stlp_std@@@priv@4@U?$_MapTraitsT@U?$pair@QBDPAVIConsole_Command@@@stlp_std@@@64@V?$xalloc@U?$pair@PBDPAVIConsole_Command@@@stlp_std@@@@@priv@stlp_std@@AAE?AU?$_Rb_tree_iterator@U?$pair@QBDPAVIConsole_Command@@@stlp_std@@U?$_MapTraitsT@U?$pair@QBDPAVIConsole_Command@@@stlp_std@@@priv@2@@23@PAU_Rb_tree_node_base@23@ABU?$pair@QBDPAVIConsole_Command@@@3@00@Z ; stlp_std::priv::_Rb_tree<char const *,CConsole::str_pred,stlp_std::pair<char const * const,IConsole_Command *>,stlp_std::priv::_Select1st<stlp_std::pair<char const * const,IConsole_Command *> >,stlp_std::priv::_MapTraitsT<stlp_std::pair<char const * const,IConsole_Command *> >,xalloc<stlp_std::pair<char const *,IConsole_Command *> > >::_M_insert

; 529  :         else
; 530  :           return insert_unique(__val).first;

	mov	eax, esi

; 531  :       }
; 532  :     }
; 533  :   }
; 534  : }

	pop	edi
	pop	ebp
	pop	ebx
	add	esp, 16					; 00000010H
	ret	8
$LN11@insert_uni@3:

; 499  :       else
; 500  :         return _M_insert(__position._M_node, __val, __position._M_node);

	push	0
	push	edi
	push	esi
	mov	ecx, edi
	call	?_M_insert@?$_Rb_tree@PBDUstr_pred@CConsole@@U?$pair@QBDPAVIConsole_Command@@@stlp_std@@U?$_Select1st@U?$pair@QBDPAVIConsole_Command@@@stlp_std@@@priv@4@U?$_MapTraitsT@U?$pair@QBDPAVIConsole_Command@@@stlp_std@@@64@V?$xalloc@U?$pair@PBDPAVIConsole_Command@@@stlp_std@@@@@priv@stlp_std@@AAE?AU?$_Rb_tree_iterator@U?$pair@QBDPAVIConsole_Command@@@stlp_std@@U?$_MapTraitsT@U?$pair@QBDPAVIConsole_Command@@@stlp_std@@@priv@2@@23@PAU_Rb_tree_node_base@23@ABU?$pair@QBDPAVIConsole_Command@@@3@00@Z ; stlp_std::priv::_Rb_tree<char const *,CConsole::str_pred,stlp_std::pair<char const * const,IConsole_Command *>,stlp_std::priv::_Select1st<stlp_std::pair<char const * const,IConsole_Command *> >,stlp_std::priv::_MapTraitsT<stlp_std::pair<char const * const,IConsole_Command *> >,xalloc<stlp_std::pair<char const *,IConsole_Command *> > >::_M_insert

; 529  :         else
; 530  :           return insert_unique(__val).first;

	mov	eax, esi

; 531  :       }
; 532  :     }
; 533  :   }
; 534  : }

	pop	edi
	pop	ebp
	pop	ebx
	add	esp, 16					; 00000010H
	ret	8
$LN12@insert_uni@3:

; 501  :       // first argument just needs to be non-null
; 502  :     }
; 503  :     else {
; 504  :       // Does the insertion point fall immediately AFTER the hint?
; 505  :       iterator __after = __position;
; 506  :       ++__after;

	lea	eax, DWORD PTR ___after$141838[esp+28]
	mov	DWORD PTR ___after$141838[esp+28], edi
	call	??E?$_Rb_tree_iterator@U?$pair@QBDPAVIConsole_Command@@@stlp_std@@U?$_MapTraitsT@U?$pair@QBDPAVIConsole_Command@@@stlp_std@@@priv@2@@priv@stlp_std@@QAEAAU012@XZ ; stlp_std::priv::_Rb_tree_iterator<stlp_std::pair<char const * const,IConsole_Command *>,stlp_std::priv::_MapTraitsT<stlp_std::pair<char const * const,IConsole_Command *> > >::operator++

; 507  :       // Optimization to catch equivalent cases and avoid unnecessary comparisons
; 508  :       bool __comp_pos_v = !__comp_v_pos;  // Stored this result earlier

	mov	al, BYTE PTR ___comp_v_pos$141829[esp+24]
	test	al, al
	sete	cl

; 509  :       // If the earlier comparison was true, this comparison doesn't need to be
; 510  :       // performed because it must be false.  However, if the earlier comparison
; 511  :       // was false, we need to perform this one because in the equal case, both will
; 512  :       // be false.
; 513  :       if (!__comp_v_pos) {

	test	al, al
	jne	SHORT $LN7@insert_uni@3

; 514  :         __comp_pos_v = _M_key_compare(_S_key(__position._M_node), _KeyOfValue()(__val));

	push	edi
	call	?_S_value@?$_Rb_tree@PBDUstr_pred@CConsole@@U?$pair@QBDPAVIConsole_Command@@@stlp_std@@U?$_Select1st@U?$pair@QBDPAVIConsole_Command@@@stlp_std@@@priv@4@U?$_MapTraitsT@U?$pair@QBDPAVIConsole_Command@@@stlp_std@@@64@V?$xalloc@U?$pair@PBDPAVIConsole_Command@@@stlp_std@@@@@priv@stlp_std@@KAAAU?$pair@QBDPAVIConsole_Command@@@3@PAU_Rb_tree_node_base@23@@Z ; stlp_std::priv::_Rb_tree<char const *,CConsole::str_pred,stlp_std::pair<char const * const,IConsole_Command *>,stlp_std::priv::_Select1st<stlp_std::pair<char const * const,IConsole_Command *> >,stlp_std::priv::_MapTraitsT<stlp_std::pair<char const * const,IConsole_Command *> >,xalloc<stlp_std::pair<char const *,IConsole_Command *> > >::_S_value
	mov	ecx, DWORD PTR [ebp]
	mov	eax, DWORD PTR [eax]
	add	esp, 4
	call	??Rstr_pred@CConsole@@QBE_NPBD0@Z	; CConsole::str_pred::operator()

; 515  :       }
; 516  : 
; 517  :       if ( (!__comp_v_pos) // comp_v_pos true implies comp_v_pos false
; 518  :           && __comp_pos_v
; 519  :           && (__after._M_node == &this->_M_header._M_data ||
; 520  :               _M_key_compare( _KeyOfValue()(__val), _S_key(__after._M_node) ))) {

	test	al, al
	mov	BYTE PTR ___comp_pos_v$141839[esp+24], al
	je	$LN156@insert_uni@3
	mov	eax, DWORD PTR ___after$141838[esp+28]
	cmp	eax, ebx
	je	SHORT $LN6@insert_uni@3
	push	eax
	call	?_S_value@?$_Rb_tree@PBDUstr_pred@CConsole@@U?$pair@QBDPAVIConsole_Command@@@stlp_std@@U?$_Select1st@U?$pair@QBDPAVIConsole_Command@@@stlp_std@@@priv@4@U?$_MapTraitsT@U?$pair@QBDPAVIConsole_Command@@@stlp_std@@@64@V?$xalloc@U?$pair@PBDPAVIConsole_Command@@@stlp_std@@@@@priv@stlp_std@@KAAAU?$pair@QBDPAVIConsole_Command@@@3@PAU_Rb_tree_node_base@23@@Z ; stlp_std::priv::_Rb_tree<char const *,CConsole::str_pred,stlp_std::pair<char const * const,IConsole_Command *>,stlp_std::priv::_Select1st<stlp_std::pair<char const * const,IConsole_Command *> >,stlp_std::priv::_MapTraitsT<stlp_std::pair<char const * const,IConsole_Command *> >,xalloc<stlp_std::pair<char const *,IConsole_Command *> > >::_S_value
	mov	ecx, DWORD PTR [eax]
	mov	eax, DWORD PTR [ebp]
	add	esp, 4
	call	??Rstr_pred@CConsole@@QBE_NPBD0@Z	; CConsole::str_pred::operator()
	test	al, al
	je	SHORT $LN169@insert_uni@3
$LN6@insert_uni@3:

; 521  :         if (_S_right(__position._M_node) == 0)

	push	edi
	call	?_S_right@?$_Rb_tree@PBDUstr_pred@CConsole@@U?$pair@QBDPAVIConsole_Command@@@stlp_std@@U?$_Select1st@U?$pair@QBDPAVIConsole_Command@@@stlp_std@@@priv@4@U?$_MapTraitsT@U?$pair@QBDPAVIConsole_Command@@@stlp_std@@@64@V?$xalloc@U?$pair@PBDPAVIConsole_Command@@@stlp_std@@@@@priv@stlp_std@@KAAAPAU_Rb_tree_node_base@23@PAU423@@Z ; stlp_std::priv::_Rb_tree<char const *,CConsole::str_pred,stlp_std::pair<char const * const,IConsole_Command *>,stlp_std::priv::_Select1st<stlp_std::pair<char const * const,IConsole_Command *> >,stlp_std::priv::_MapTraitsT<stlp_std::pair<char const * const,IConsole_Command *> >,xalloc<stlp_std::pair<char const *,IConsole_Command *> > >::_S_right
	add	esp, 4
	cmp	DWORD PTR [eax], 0

; 522  :           return _M_insert(__position._M_node, __val, 0, __position._M_node);

	mov	eax, ebp
	je	$LN171@insert_uni@3

; 523  :         else
; 524  :           return _M_insert(__after._M_node, __val, __after._M_node);

	mov	ecx, DWORD PTR ___after$141838[esp+28]
	push	0
	push	ecx
	push	esi
	call	?_M_insert@?$_Rb_tree@PBDUstr_pred@CConsole@@U?$pair@QBDPAVIConsole_Command@@@stlp_std@@U?$_Select1st@U?$pair@QBDPAVIConsole_Command@@@stlp_std@@@priv@4@U?$_MapTraitsT@U?$pair@QBDPAVIConsole_Command@@@stlp_std@@@64@V?$xalloc@U?$pair@PBDPAVIConsole_Command@@@stlp_std@@@@@priv@stlp_std@@AAE?AU?$_Rb_tree_iterator@U?$pair@QBDPAVIConsole_Command@@@stlp_std@@U?$_MapTraitsT@U?$pair@QBDPAVIConsole_Command@@@stlp_std@@@priv@2@@23@PAU_Rb_tree_node_base@23@ABU?$pair@QBDPAVIConsole_Command@@@3@00@Z ; stlp_std::priv::_Rb_tree<char const *,CConsole::str_pred,stlp_std::pair<char const * const,IConsole_Command *>,stlp_std::priv::_Select1st<stlp_std::pair<char const * const,IConsole_Command *> >,stlp_std::priv::_MapTraitsT<stlp_std::pair<char const * const,IConsole_Command *> >,xalloc<stlp_std::pair<char const *,IConsole_Command *> > >::_M_insert

; 529  :         else
; 530  :           return insert_unique(__val).first;

	mov	eax, esi

; 531  :       }
; 532  :     }
; 533  :   }
; 534  : }

	pop	edi
	pop	ebp
	pop	ebx
	add	esp, 16					; 00000010H
	ret	8
$LN169@insert_uni@3:

; 523  :         else
; 524  :           return _M_insert(__after._M_node, __val, __after._M_node);

	mov	al, BYTE PTR ___comp_v_pos$141829[esp+24]
	mov	cl, BYTE PTR ___comp_pos_v$141839[esp+24]
$LN7@insert_uni@3:

; 525  :       } else {
; 526  :         // Test for equivalent case
; 527  :         if (__comp_v_pos == __comp_pos_v)

	cmp	al, cl

; 528  :           return __position;

	je	$LN156@insert_uni@3
$LN2@insert_uni@3:

; 529  :         else
; 530  :           return insert_unique(__val).first;

	push	ebp
	lea	edx, DWORD PTR $T366688[esp+32]
	push	edx
	push	ebx
	call	?insert_unique@?$_Rb_tree@PBDUstr_pred@CConsole@@U?$pair@QBDPAVIConsole_Command@@@stlp_std@@U?$_Select1st@U?$pair@QBDPAVIConsole_Command@@@stlp_std@@@priv@4@U?$_MapTraitsT@U?$pair@QBDPAVIConsole_Command@@@stlp_std@@@64@V?$xalloc@U?$pair@PBDPAVIConsole_Command@@@stlp_std@@@@@priv@stlp_std@@QAE?AU?$pair@U?$_Rb_tree_iterator@U?$pair@QBDPAVIConsole_Command@@@stlp_std@@U?$_MapTraitsT@U?$pair@QBDPAVIConsole_Command@@@stlp_std@@@priv@2@@priv@stlp_std@@_N@3@ABU?$pair@QBDPAVIConsole_Command@@@3@@Z ; stlp_std::priv::_Rb_tree<char const *,CConsole::str_pred,stlp_std::pair<char const * const,IConsole_Command *>,stlp_std::priv::_Select1st<stlp_std::pair<char const * const,IConsole_Command *> >,stlp_std::priv::_MapTraitsT<stlp_std::pair<char const * const,IConsole_Command *> >,xalloc<stlp_std::pair<char const *,IConsole_Command *> > >::insert_unique
	mov	eax, DWORD PTR [eax]

; 531  :       }
; 532  :     }
; 533  :   }
; 534  : }

	pop	edi
	pop	ebp
	mov	DWORD PTR [esi], eax
	mov	eax, esi
	pop	ebx
	add	esp, 16					; 00000010H
	ret	8
?insert_unique@?$_Rb_tree@PBDUstr_pred@CConsole@@U?$pair@QBDPAVIConsole_Command@@@stlp_std@@U?$_Select1st@U?$pair@QBDPAVIConsole_Command@@@stlp_std@@@priv@4@U?$_MapTraitsT@U?$pair@QBDPAVIConsole_Command@@@stlp_std@@@64@V?$xalloc@U?$pair@PBDPAVIConsole_Command@@@stlp_std@@@@@priv@stlp_std@@QAE?AU?$_Rb_tree_iterator@U?$pair@QBDPAVIConsole_Command@@@stlp_std@@U?$_MapTraitsT@U?$pair@QBDPAVIConsole_Command@@@stlp_std@@@priv@2@@23@U423@ABU?$pair@QBDPAVIConsole_Command@@@3@@Z ENDP ; stlp_std::priv::_Rb_tree<char const *,CConsole::str_pred,stlp_std::pair<char const * const,IConsole_Command *>,stlp_std::priv::_Select1st<stlp_std::pair<char const * const,IConsole_Command *> >,stlp_std::priv::_MapTraitsT<stlp_std::pair<char const * const,IConsole_Command *> >,xalloc<stlp_std::pair<char const *,IConsole_Command *> > >::insert_unique
; Function compile flags: /Ogtpy
; File d:\clearsky\sources\sdk\include\stlport\stl\_vector.h
_TEXT	ENDS
;	COMDAT ?_M_clear_after_move@?$_Impl_vector@UTipString@@V?$xalloc@UTipString@@@@@priv@stlp_std@@AAEXXZ
_TEXT	SEGMENT
$T366989 = -17						; size = 1
$T366994 = -16						; size = 4
$T366995 = -12						; size = 4
$T366983 = -8						; size = 4
$T366984 = -4						; size = 4
?_M_clear_after_move@?$_Impl_vector@UTipString@@V?$xalloc@UTipString@@@@@priv@stlp_std@@AAEXXZ PROC ; stlp_std::priv::_Impl_vector<TipString,xalloc<TipString> >::_M_clear_after_move, COMDAT
; _this$ = eax

; 620  :   void _M_clear_after_move() {

	sub	esp, 20					; 00000014H
	push	esi
	mov	esi, eax

; 621  :     _STLP_STD::_Destroy_Moved_Range(rbegin(), rend());

	lea	eax, DWORD PTR $T366994[esp+24]
	push	eax
	mov	ecx, esi
	call	?rend@?$_Impl_vector@UTipString@@V?$xalloc@UTipString@@@@@priv@stlp_std@@QAE?AV?$reverse_iterator@PAUTipString@@@3@XZ ; stlp_std::priv::_Impl_vector<TipString,xalloc<TipString> >::rend
	lea	ecx, DWORD PTR $T366995[esp+24]
	push	ecx
	mov	ecx, esi
	call	?rbegin@?$_Impl_vector@UTipString@@V?$xalloc@UTipString@@@@@priv@stlp_std@@QAE?AV?$reverse_iterator@PAUTipString@@@3@XZ ; stlp_std::priv::_Impl_vector<TipString,xalloc<TipString> >::rbegin
	lea	edx, DWORD PTR $T366994[esp+24]
	push	edx
	lea	ecx, DWORD PTR $T366983[esp+28]
	call	??0?$reverse_iterator@PAUTipString@@@stlp_std@@QAE@ABV01@@Z ; stlp_std::reverse_iterator<TipString *>::reverse_iterator<TipString *>
	lea	eax, DWORD PTR $T366995[esp+24]
	push	eax
	lea	ecx, DWORD PTR $T366984[esp+28]
	call	??0?$reverse_iterator@PAUTipString@@@stlp_std@@QAE@ABV01@@Z ; stlp_std::reverse_iterator<TipString *>::reverse_iterator<TipString *>
	lea	ecx, DWORD PTR $T366989[esp+24]
	push	ecx
	push	0
	push	ecx
	lea	edx, DWORD PTR $T366983[esp+36]
	mov	ecx, esp
	push	edx
	mov	BYTE PTR $T366989[esp+40], 0
	call	??0?$reverse_iterator@PAUTipString@@@stlp_std@@QAE@ABV01@@Z ; stlp_std::reverse_iterator<TipString *>::reverse_iterator<TipString *>
	push	ecx
	lea	eax, DWORD PTR $T366984[esp+40]
	mov	ecx, esp
	push	eax
	call	??0?$reverse_iterator@PAUTipString@@@stlp_std@@QAE@ABV01@@Z ; stlp_std::reverse_iterator<TipString *>::reverse_iterator<TipString *>
	call	??$__destroy_range_aux@V?$reverse_iterator@PAUTipString@@@stlp_std@@UTipString@@@stlp_std@@YAXV?$reverse_iterator@PAUTipString@@@0@0PAUTipString@@ABU__false_type@0@@Z ; stlp_std::__destroy_range_aux<stlp_std::reverse_iterator<TipString *>,TipString>

; 622  :     this->_M_end_of_storage.deallocate(this->_M_start, this->_M_end_of_storage._M_data - this->_M_start);

	mov	edx, DWORD PTR [esi+8]
	lea	ecx, DWORD PTR [esi+8]
	mov	esi, DWORD PTR [esi]
	sub	edx, esi
	mov	eax, 715827883				; 2aaaaaabH
	imul	edx
	sar	edx, 1
	mov	eax, edx
	shr	eax, 31					; 0000001fH
	add	esp, 16					; 00000010H
	add	eax, edx
	push	eax
	push	esi
	call	?deallocate@?$xalloc@UTipString@@@@QBEXPAUTipString@@I@Z ; xalloc<TipString>::deallocate

; 623  :   }

	pop	esi
	add	esp, 20					; 00000014H
	ret	0
?_M_clear_after_move@?$_Impl_vector@UTipString@@V?$xalloc@UTipString@@@@@priv@stlp_std@@AAEXXZ ENDP ; stlp_std::priv::_Impl_vector<TipString,xalloc<TipString> >::_M_clear_after_move
; Function compile flags: /Ogtpy
; File d:\clearsky\sources\sdk\include\stlport\stl\_map.h
_TEXT	ENDS
;	COMDAT ?insert@?$map@PBDPAVIConsole_Command@@Ustr_pred@CConsole@@V?$xalloc@U?$pair@PBDPAVIConsole_Command@@@stlp_std@@@@@stlp_std@@QAE?AU?$_Rb_tree_iterator@U?$pair@QBDPAVIConsole_Command@@@stlp_std@@U?$_MapTraitsT@U?$pair@QBDPAVIConsole_Command@@@stlp_std@@@priv@2@@priv@2@U342@ABU?$pair@QBDPAVIConsole_Command@@@2@@Z
_TEXT	SEGMENT
_this$ = 8						; size = 4
___pos$ = 12						; size = 4
?insert@?$map@PBDPAVIConsole_Command@@Ustr_pred@CConsole@@V?$xalloc@U?$pair@PBDPAVIConsole_Command@@@stlp_std@@@@@stlp_std@@QAE?AU?$_Rb_tree_iterator@U?$pair@QBDPAVIConsole_Command@@@stlp_std@@U?$_MapTraitsT@U?$pair@QBDPAVIConsole_Command@@@stlp_std@@@priv@2@@priv@2@U342@ABU?$pair@QBDPAVIConsole_Command@@@2@@Z PROC ; stlp_std::map<char const *,IConsole_Command *,CConsole::str_pred,xalloc<stlp_std::pair<char const *,IConsole_Command *> > >::insert, COMDAT
; ___$ReturnUdt$ = ecx
; ___x$ = eax

; 186  :   { return _M_t.insert_unique(__pos, __x); }

	push	esi
	push	eax
	push	ecx
	mov	esi, ecx
	mov	ecx, DWORD PTR ___pos$[esp+8]
	mov	eax, esp
	mov	DWORD PTR [eax], ecx
	mov	eax, DWORD PTR _this$[esp+8]
	call	?insert_unique@?$_Rb_tree@PBDUstr_pred@CConsole@@U?$pair@QBDPAVIConsole_Command@@@stlp_std@@U?$_Select1st@U?$pair@QBDPAVIConsole_Command@@@stlp_std@@@priv@4@U?$_MapTraitsT@U?$pair@QBDPAVIConsole_Command@@@stlp_std@@@64@V?$xalloc@U?$pair@PBDPAVIConsole_Command@@@stlp_std@@@@@priv@stlp_std@@QAE?AU?$_Rb_tree_iterator@U?$pair@QBDPAVIConsole_Command@@@stlp_std@@U?$_MapTraitsT@U?$pair@QBDPAVIConsole_Command@@@stlp_std@@@priv@2@@23@U423@ABU?$pair@QBDPAVIConsole_Command@@@3@@Z ; stlp_std::priv::_Rb_tree<char const *,CConsole::str_pred,stlp_std::pair<char const * const,IConsole_Command *>,stlp_std::priv::_Select1st<stlp_std::pair<char const * const,IConsole_Command *> >,stlp_std::priv::_MapTraitsT<stlp_std::pair<char const * const,IConsole_Command *> >,xalloc<stlp_std::pair<char const *,IConsole_Command *> > >::insert_unique
	mov	eax, esi
	pop	esi
	ret	8
?insert@?$map@PBDPAVIConsole_Command@@Ustr_pred@CConsole@@V?$xalloc@U?$pair@PBDPAVIConsole_Command@@@stlp_std@@@@@stlp_std@@QAE?AU?$_Rb_tree_iterator@U?$pair@QBDPAVIConsole_Command@@@stlp_std@@U?$_MapTraitsT@U?$pair@QBDPAVIConsole_Command@@@stlp_std@@@priv@2@@priv@2@U342@ABU?$pair@QBDPAVIConsole_Command@@@2@@Z ENDP ; stlp_std::map<char const *,IConsole_Command *,CConsole::str_pred,xalloc<stlp_std::pair<char const *,IConsole_Command *> > >::insert
; Function compile flags: /Ogtpy
_TEXT	ENDS
;	COMDAT ??$?APBD@?$map@PBDPAVIConsole_Command@@Ustr_pred@CConsole@@V?$xalloc@U?$pair@PBDPAVIConsole_Command@@@stlp_std@@@@@stlp_std@@QAEAAPAVIConsole_Command@@ABQBD@Z
_TEXT	SEGMENT
$T367021 = -16						; size = 4
$T367018 = -12						; size = 8
??$?APBD@?$map@PBDPAVIConsole_Command@@Ustr_pred@CConsole@@V?$xalloc@U?$pair@PBDPAVIConsole_Command@@@stlp_std@@@@@stlp_std@@QAEAAPAVIConsole_Command@@ABQBD@Z PROC ; stlp_std::map<char const *,IConsole_Command *,CConsole::str_pred,xalloc<stlp_std::pair<char const *,IConsole_Command *> > >::operator[]<char const *>, COMDAT
; _this$ = edi
; ___k$ = eax

; 173  :   _Tp& operator[](const _KT& __k) {

	sub	esp, 20					; 00000014H
	push	ebx
	push	esi
	mov	ebx, eax

; 174  :     iterator __i = lower_bound(__k);

	mov	ecx, edi
	call	??$_M_lower_bound@PBD@?$_Rb_tree@PBDUstr_pred@CConsole@@U?$pair@QBDPAVIConsole_Command@@@stlp_std@@U?$_Select1st@U?$pair@QBDPAVIConsole_Command@@@stlp_std@@@priv@4@U?$_MapTraitsT@U?$pair@QBDPAVIConsole_Command@@@stlp_std@@@64@V?$xalloc@U?$pair@PBDPAVIConsole_Command@@@stlp_std@@@@@priv@stlp_std@@ABEPAU_Rb_tree_node_base@12@ABQBD@Z ; stlp_std::priv::_Rb_tree<char const *,CConsole::str_pred,stlp_std::pair<char const * const,IConsole_Command *>,stlp_std::priv::_Select1st<stlp_std::pair<char const * const,IConsole_Command *> >,stlp_std::priv::_MapTraitsT<stlp_std::pair<char const * const,IConsole_Command *> >,xalloc<stlp_std::pair<char const *,IConsole_Command *> > >::_M_lower_bound<char const *>
	mov	esi, eax

; 175  :     // __i->first is greater than or equivalent to __k.
; 176  :     if (__i == end() || key_comp()(__k, (*__i).first))

	cmp	esi, edi
	je	SHORT $LN1@operator@80
	mov	edx, DWORD PTR [esi+16]
	mov	ecx, DWORD PTR [ebx]
	npad	7
$LL51@operator@80:
	mov	al, BYTE PTR [ecx]
	cmp	al, BYTE PTR [edx]
	jne	SHORT $LN52@operator@80
	test	al, al
	je	SHORT $LN53@operator@80
	mov	al, BYTE PTR [ecx+1]
	cmp	al, BYTE PTR [edx+1]
	jne	SHORT $LN52@operator@80
	add	ecx, 2
	add	edx, 2
	test	al, al
	jne	SHORT $LL51@operator@80
$LN53@operator@80:
	xor	eax, eax
	jmp	SHORT $LN54@operator@80
$LN52@operator@80:
	sbb	eax, eax
	sbb	eax, -1
$LN54@operator@80:
	test	eax, eax
	jge	SHORT $LN55@operator@80
$LN1@operator@80:

; 177  :       __i = insert(__i, value_type(__k, _STLP_DEFAULT_CONSTRUCTED(_Tp)));

	mov	eax, DWORD PTR [ebx]
	lea	ecx, DWORD PTR $T367018[esp+28]
	push	ecx
	mov	DWORD PTR $T367018[esp+32], eax
	push	ecx
	mov	eax, esp
	mov	DWORD PTR $T367018[esp+40], 0
	mov	DWORD PTR [eax], esi
	lea	esi, DWORD PTR $T367021[esp+36]
	mov	eax, edi
	call	?insert_unique@?$_Rb_tree@PBDUstr_pred@CConsole@@U?$pair@QBDPAVIConsole_Command@@@stlp_std@@U?$_Select1st@U?$pair@QBDPAVIConsole_Command@@@stlp_std@@@priv@4@U?$_MapTraitsT@U?$pair@QBDPAVIConsole_Command@@@stlp_std@@@64@V?$xalloc@U?$pair@PBDPAVIConsole_Command@@@stlp_std@@@@@priv@stlp_std@@QAE?AU?$_Rb_tree_iterator@U?$pair@QBDPAVIConsole_Command@@@stlp_std@@U?$_MapTraitsT@U?$pair@QBDPAVIConsole_Command@@@stlp_std@@@priv@2@@23@U423@ABU?$pair@QBDPAVIConsole_Command@@@3@@Z ; stlp_std::priv::_Rb_tree<char const *,CConsole::str_pred,stlp_std::pair<char const * const,IConsole_Command *>,stlp_std::priv::_Select1st<stlp_std::pair<char const * const,IConsole_Command *> >,stlp_std::priv::_MapTraitsT<stlp_std::pair<char const * const,IConsole_Command *> >,xalloc<stlp_std::pair<char const *,IConsole_Command *> > >::insert_unique
	mov	eax, DWORD PTR $T367021[esp+28]

; 178  :     return (*__i).second;

	add	eax, 20					; 00000014H

; 179  :   }

	pop	esi
	pop	ebx
	add	esp, 20					; 00000014H
	ret	0
$LN55@operator@80:

; 178  :     return (*__i).second;

	lea	eax, DWORD PTR [esi+20]

; 179  :   }

	pop	esi
	pop	ebx
	add	esp, 20					; 00000014H
	ret	0
??$?APBD@?$map@PBDPAVIConsole_Command@@Ustr_pred@CConsole@@V?$xalloc@U?$pair@PBDPAVIConsole_Command@@@stlp_std@@@@@stlp_std@@QAEAAPAVIConsole_Command@@ABQBD@Z ENDP ; stlp_std::map<char const *,IConsole_Command *,CConsole::str_pred,xalloc<stlp_std::pair<char const *,IConsole_Command *> > >::operator[]<char const *>
; Function compile flags: /Ogtpy
; File d:\clearsky\sources\sdk\include\stlport\stl\pointers\_vector.h
_TEXT	ENDS
;	COMDAT ??0?$vector@UTipString@@V?$xalloc@UTipString@@@@@stlp_std@@QAE@ABV?$xalloc@UTipString@@@@@Z
_TEXT	SEGMENT
??0?$vector@UTipString@@V?$xalloc@UTipString@@@@@stlp_std@@QAE@ABV?$xalloc@UTipString@@@@@Z PROC ; stlp_std::vector<TipString,xalloc<TipString> >::vector<TipString,xalloc<TipString> >, COMDAT
; _this$ = esi
; ___a$ = eax

; 106  :   explicit vector(const allocator_type& __a = allocator_type())

	push	0
	push	eax
	lea	ecx, DWORD PTR [esi+8]
	mov	DWORD PTR [esi], 0
	mov	DWORD PTR [esi+4], 0
	call	??0?$_STLP_alloc_proxy@PAUTipString@@U1@V?$xalloc@UTipString@@@@@priv@stlp_std@@QAE@ABV?$xalloc@UTipString@@@@PAUTipString@@@Z ; stlp_std::priv::_STLP_alloc_proxy<TipString *,TipString,xalloc<TipString> >::_STLP_alloc_proxy<TipString *,TipString,xalloc<TipString> >
	mov	eax, esi
	ret	0
??0?$vector@UTipString@@V?$xalloc@UTipString@@@@@stlp_std@@QAE@ABV?$xalloc@UTipString@@@@@Z ENDP ; stlp_std::vector<TipString,xalloc<TipString> >::vector<TipString,xalloc<TipString> >
; Function compile flags: /Ogtpy
; File d:\clearsky\sources\engine\xrcore\_stl_extensions.h
_TEXT	ENDS
;	COMDAT ??0?$xr_vector@UTipString@@V?$xalloc@UTipString@@@@@@QAE@XZ
_TEXT	SEGMENT
$T367164 = -1						; size = 1
??0?$xr_vector@UTipString@@V?$xalloc@UTipString@@@@@@QAE@XZ PROC ; xr_vector<TipString,xalloc<TipString> >::xr_vector<TipString,xalloc<TipString> >, COMDAT
; _this$ = esi

; 123  : 			xr_vector			()									: inherited	()					{}

	push	ecx
	push	0
	lea	eax, DWORD PTR $T367164[esp+8]
	push	eax
	lea	ecx, DWORD PTR [esi+8]
	mov	DWORD PTR [esi], 0
	mov	DWORD PTR [esi+4], 0
	call	??0?$_STLP_alloc_proxy@PAUTipString@@U1@V?$xalloc@UTipString@@@@@priv@stlp_std@@QAE@ABV?$xalloc@UTipString@@@@PAUTipString@@@Z ; stlp_std::priv::_STLP_alloc_proxy<TipString *,TipString,xalloc<TipString> >::_STLP_alloc_proxy<TipString *,TipString,xalloc<TipString> >
	mov	eax, esi
	pop	ecx
	ret	0
??0?$xr_vector@UTipString@@V?$xalloc@UTipString@@@@@@QAE@XZ ENDP ; xr_vector<TipString,xalloc<TipString> >::xr_vector<TipString,xalloc<TipString> >
; Function compile flags: /Ogtpy
; File d:\clearsky\sources\engine\xrengine\xr_ioconsole.cpp
_TEXT	ENDS
;	COMDAT ?OnScreenResolutionChanged@CConsole@@UAEXXZ
_TEXT	SEGMENT
?OnScreenResolutionChanged@CConsole@@UAEXXZ PROC	; CConsole::OnScreenResolutionChanged, COMDAT
; _this$ = ecx

; 211  : {

	push	esi
	mov	esi, ecx

; 212  : 	xr_delete( pFont );

	lea	eax, DWORD PTR [esi+8]
	push	eax
	call	??$xr_delete@VCGameFont@@@@YAXAAPAVCGameFont@@@Z ; xr_delete<CGameFont>

; 213  : 	xr_delete( pFont2 );

	add	esi, 12					; 0000000cH
	push	esi
	call	??$xr_delete@VCGameFont@@@@YAXAAPAVCGameFont@@@Z ; xr_delete<CGameFont>
	add	esp, 8
	pop	esi

; 214  : }

	ret	0
?OnScreenResolutionChanged@CConsole@@UAEXXZ ENDP	; CConsole::OnScreenResolutionChanged
_TEXT	ENDS
PUBLIC	?AddCommand@CConsole@@QAEXPAVIConsole_Command@@@Z ; CConsole::AddCommand
; Function compile flags: /Ogtpy
;	COMDAT ?AddCommand@CConsole@@QAEXPAVIConsole_Command@@@Z
_TEXT	SEGMENT
$T367191 = 8						; size = 4
_cc$ = 8						; size = 4
?AddCommand@CConsole@@QAEXPAVIConsole_Command@@@Z PROC	; CConsole::AddCommand, COMDAT
; _this$ = ecx

; 148  : {

	push	esi

; 149  : 	Commands[cc->Name()] = cc;

	mov	esi, DWORD PTR _cc$[esp]
	mov	eax, DWORD PTR [esi+4]
	push	edi
	mov	DWORD PTR $T367191[esp+4], eax
	lea	edi, DWORD PTR [ecx+176]
	lea	eax, DWORD PTR $T367191[esp+4]
	call	??$?APBD@?$map@PBDPAVIConsole_Command@@Ustr_pred@CConsole@@V?$xalloc@U?$pair@PBDPAVIConsole_Command@@@stlp_std@@@@@stlp_std@@QAEAAPAVIConsole_Command@@ABQBD@Z ; stlp_std::map<char const *,IConsole_Command *,CConsole::str_pred,xalloc<stlp_std::pair<char const *,IConsole_Command *> > >::operator[]<char const *>

; 150  : }

	pop	edi
	mov	DWORD PTR [eax], esi
	pop	esi
	ret	4
?AddCommand@CConsole@@QAEXPAVIConsole_Command@@@Z ENDP	; CConsole::AddCommand
; Function compile flags: /Ogtpy
_TEXT	ENDS
;	COMDAT ?Destroy@CConsole@@UAEXXZ
_TEXT	SEGMENT
?Destroy@CConsole@@UAEXXZ PROC				; CConsole::Destroy, COMDAT
; _this$ = ecx

; 141  : {

	push	esi
	mov	esi, ecx

; 142  : 	xr_delete( pFont );

	lea	eax, DWORD PTR [esi+16]
	push	eax
	call	??$xr_delete@VCGameFont@@@@YAXAAPAVCGameFont@@@Z ; xr_delete<CGameFont>

; 143  : 	xr_delete( pFont2 );

	lea	ecx, DWORD PTR [esi+20]
	push	ecx
	call	??$xr_delete@VCGameFont@@@@YAXAAPAVCGameFont@@@Z ; xr_delete<CGameFont>
	add	esp, 8

; 144  : 	Commands.clear();

	lea	ecx, DWORD PTR [esi+176]
	pop	esi
	jmp	?clear@?$_Rb_tree@PBDUstr_pred@CConsole@@U?$pair@QBDPAVIConsole_Command@@@stlp_std@@U?$_Select1st@U?$pair@QBDPAVIConsole_Command@@@stlp_std@@@priv@4@U?$_MapTraitsT@U?$pair@QBDPAVIConsole_Command@@@stlp_std@@@64@V?$xalloc@U?$pair@PBDPAVIConsole_Command@@@stlp_std@@@@@priv@stlp_std@@QAEXXZ ; stlp_std::priv::_Rb_tree<char const *,CConsole::str_pred,stlp_std::pair<char const * const,IConsole_Command *>,stlp_std::priv::_Select1st<stlp_std::pair<char const * const,IConsole_Command *> >,stlp_std::priv::_MapTraitsT<stlp_std::pair<char const * const,IConsole_Command *> >,xalloc<stlp_std::pair<char const *,IConsole_Command *> > >::clear
?Destroy@CConsole@@UAEXXZ ENDP				; CConsole::Destroy
_TEXT	ENDS
PUBLIC	??1CConsole@@UAE@XZ				; CConsole::~CConsole
; Function compile flags: /Ogtpy
;	COMDAT ??1CConsole@@UAE@XZ
_TEXT	SEGMENT
??1CConsole@@UAE@XZ PROC				; CConsole::~CConsole, COMDAT
; _this$ = ecx

; 133  : {

	push	ebx
	push	ebp
	push	esi
	mov	esi, ecx
	lea	ebx, DWORD PTR [esi+8]
	push	edi
	mov	DWORD PTR [esi], OFFSET ??_7CConsole@@6BpureRender@@@
	mov	DWORD PTR [esi+4], OFFSET ??_7CConsole@@6BpureFrame@@@
	mov	DWORD PTR [ebx], OFFSET ??_7CConsole@@6BpureScreenResolutionChanged@@@

; 134  : 	xr_delete( m_hShader_back );

	mov	edi, DWORD PTR [esi+24]
	xor	ebp, ebp
	cmp	edi, ebp
	je	SHORT $LN5@CConsole
	mov	eax, DWORD PTR __imp_?RenderFactory@@3PAVIRenderFactory@@A
	mov	ecx, DWORD PTR [eax]
	mov	edx, DWORD PTR [ecx]
	mov	eax, DWORD PTR [edi]
	mov	edx, DWORD PTR [edx+12]
	push	eax
	call	edx
	mov	DWORD PTR [edi], ebp
	mov	eax, DWORD PTR [esi+24]
	mov	ecx, DWORD PTR __imp_?Memory@@3VxrMemory@@A
	push	eax
	call	DWORD PTR __imp_?mem_free@xrMemory@@QAEXPAX@Z
	mov	DWORD PTR [esi+24], ebp
$LN5@CConsole:

; 135  : 	xr_delete( m_editor );

	mov	eax, DWORD PTR [esi+200]
	cmp	eax, ebp
	je	SHORT $LN22@CConsole
	push	eax
	call	___RTCastToVoid
	mov	ecx, DWORD PTR [esi+200]
	mov	edx, DWORD PTR [ecx]
	add	esp, 4
	mov	edi, eax
	mov	eax, DWORD PTR [edx+44]
	push	ebp
	call	eax
	mov	ecx, DWORD PTR __imp_?Memory@@3VxrMemory@@A
	push	edi
	call	DWORD PTR __imp_?mem_free@xrMemory@@QAEXPAX@Z
	mov	DWORD PTR [esi+200], ebp
$LN22@CConsole:

; 136  : 	Destroy();

	lea	ecx, DWORD PTR [esi+16]
	push	ecx
	call	??$xr_delete@VCGameFont@@@@YAXAAPAVCGameFont@@@Z ; xr_delete<CGameFont>
	lea	edx, DWORD PTR [esi+20]
	push	edx
	call	??$xr_delete@VCGameFont@@@@YAXAAPAVCGameFont@@@Z ; xr_delete<CGameFont>
	lea	edi, DWORD PTR [esi+176]
	add	esp, 8
	mov	ecx, edi
	call	?clear@?$_Rb_tree@PBDUstr_pred@CConsole@@U?$pair@QBDPAVIConsole_Command@@@stlp_std@@U?$_Select1st@U?$pair@QBDPAVIConsole_Command@@@stlp_std@@@priv@4@U?$_MapTraitsT@U?$pair@QBDPAVIConsole_Command@@@stlp_std@@@64@V?$xalloc@U?$pair@PBDPAVIConsole_Command@@@stlp_std@@@@@priv@stlp_std@@QAEXXZ ; stlp_std::priv::_Rb_tree<char const *,CConsole::str_pred,stlp_std::pair<char const * const,IConsole_Command *>,stlp_std::priv::_Select1st<stlp_std::pair<char const * const,IConsole_Command *> >,stlp_std::priv::_MapTraitsT<stlp_std::pair<char const * const,IConsole_Command *> >,xalloc<stlp_std::pair<char const *,IConsole_Command *> > >::clear

; 137  : 	Device.seqResolutionChanged.Remove(this);

	mov	eax, OFFSET ?Device@@3VCRenderDevice@@A+744
	call	?Remove@?$CRegistrator@VpureScreenResolutionChanged@@@@QAEXPAVpureScreenResolutionChanged@@@Z ; CRegistrator<pureScreenResolutionChanged>::Remove

; 138  : }

	mov	ecx, edi
	call	??1?$_Rb_tree@PBDUstr_pred@CConsole@@U?$pair@QBDPAVIConsole_Command@@@stlp_std@@U?$_Select1st@U?$pair@QBDPAVIConsole_Command@@@stlp_std@@@priv@4@U?$_MapTraitsT@U?$pair@QBDPAVIConsole_Command@@@stlp_std@@@64@V?$xalloc@U?$pair@PBDPAVIConsole_Command@@@stlp_std@@@@@priv@stlp_std@@QAE@XZ ; stlp_std::priv::_Rb_tree<char const *,CConsole::str_pred,stlp_std::pair<char const * const,IConsole_Command *>,stlp_std::priv::_Select1st<stlp_std::pair<char const * const,IConsole_Command *> >,stlp_std::priv::_MapTraitsT<stlp_std::pair<char const * const,IConsole_Command *> >,xalloc<stlp_std::pair<char const *,IConsole_Command *> > >::~_Rb_tree<char const *,CConsole::str_pred,stlp_std::pair<char const * const,IConsole_Command *>,stlp_std::priv::_Select1st<stlp_std::pair<char const * const,IConsole_Command *> >,stlp_std::priv::_MapTraitsT<stlp_std::pair<char const * const,IConsole_Command *> >,xalloc<stlp_std::pair<char const *,IConsole_Command *> > >
	mov	eax, DWORD PTR [esi+92]
	cmp	eax, ebp
	je	SHORT $LN61@CConsole
	add	DWORD PTR [eax], -1
	mov	eax, DWORD PTR [esi+92]
	cmp	DWORD PTR [eax], ebp
	jne	SHORT $LN61@CConsole
	mov	DWORD PTR [esi+92], ebp
$LN61@CConsole:
	lea	ecx, DWORD PTR [esi+76]
	call	??1?$_Impl_vector@UTipString@@V?$xalloc@UTipString@@@@@priv@stlp_std@@QAE@XZ ; stlp_std::priv::_Impl_vector<TipString,xalloc<TipString> >::~_Impl_vector<TipString,xalloc<TipString> >
	mov	ecx, DWORD PTR [esi+68]
	mov	eax, DWORD PTR [esi+64]
	push	ecx
	mov	edx, esp
	mov	DWORD PTR [edx], eax
	push	ecx
	mov	eax, esp
	mov	DWORD PTR [eax], ecx
	call	??$__destroy_range@V?$reverse_iterator@PAVshared_str@@@stlp_std@@Vshared_str@@@stlp_std@@YAXV?$reverse_iterator@PAVshared_str@@@0@0PAVshared_str@@@Z ; stlp_std::__destroy_range<stlp_std::reverse_iterator<shared_str *>,shared_str>
	mov	eax, DWORD PTR [esi+64]
	add	esp, 8
	cmp	eax, ebp
	je	SHORT $LN98@CConsole
	mov	ecx, DWORD PTR __imp_?Memory@@3VxrMemory@@A
	push	eax
	call	DWORD PTR __imp_?mem_free@xrMemory@@QAEXPAX@Z
$LN98@CConsole:
	mov	eax, DWORD PTR [esi+60]
	cmp	eax, ebp
	je	SHORT $LN103@CConsole
	add	DWORD PTR [eax], -1
	mov	ecx, DWORD PTR [esi+60]
	cmp	DWORD PTR [ecx], ebp
	jne	SHORT $LN103@CConsole
	mov	DWORD PTR [esi+60], ebp
$LN103@CConsole:
	mov	ecx, DWORD PTR [esi+44]
	mov	eax, DWORD PTR [esi+40]
	push	ecx
	mov	edx, esp
	mov	DWORD PTR [edx], eax
	push	ecx
	mov	eax, esp
	mov	DWORD PTR [eax], ecx
	call	??$__destroy_range@V?$reverse_iterator@PAVshared_str@@@stlp_std@@Vshared_str@@@stlp_std@@YAXV?$reverse_iterator@PAVshared_str@@@0@0PAVshared_str@@@Z ; stlp_std::__destroy_range<stlp_std::reverse_iterator<shared_str *>,shared_str>
	mov	esi, DWORD PTR [esi+40]
	add	esp, 8
	cmp	esi, ebp
	je	SHORT $LN136@CConsole
	mov	ecx, DWORD PTR __imp_?Memory@@3VxrMemory@@A
	push	esi
	call	DWORD PTR __imp_?mem_free@xrMemory@@QAEXPAX@Z
$LN136@CConsole:
	pop	edi
	pop	esi
	pop	ebp
	pop	ebx
	ret	0
??1CConsole@@UAE@XZ ENDP				; CConsole::~CConsole
; Function compile flags: /Ogtpy
; File d:\clearsky\sources\sdk\include\stlport\stl\_uninitialized.h
;	COMDAT ??$__ucopy@PAUTipString@@PAU1@H@priv@stlp_std@@YAPAUTipString@@PAU2@00ABUrandom_access_iterator_tag@1@PAH@Z
_TEXT	SEGMENT
??$__ucopy@PAUTipString@@PAU1@H@priv@stlp_std@@YAPAUTipString@@PAU2@00ABUrandom_access_iterator_tag@1@PAH@Z PROC ; stlp_std::priv::__ucopy<TipString *,TipString *,int>, COMDAT
; ___first$ = ecx
; ___last$ = eax
; ___result$ = edx

; 83   :                            _OutputIter __result, const random_access_iterator_tag &, _Distance*) {

	push	ebx
	mov	ebx, ecx

; 84   :   _OutputIter __cur = __result;
; 85   :   _STLP_TRY {
; 86   :     for (_Distance __n = __last - __first; __n > 0; --__n) {

	sub	eax, ebx
	push	esi
	mov	ecx, eax
	push	edi
	mov	edi, edx
	mov	eax, 715827883				; 2aaaaaabH
	imul	ecx
	sar	edx, 1
	mov	esi, edx
	shr	esi, 31					; 0000001fH
	add	esi, edx
	test	esi, esi
	jle	SHORT $LN25@ucopy@21
	npad	1
$LL3@ucopy@21:

; 87   :       _Param_Construct(&*__cur, *__first);

	push	ebx
	push	edi
	call	??$_Param_Construct@UTipString@@U1@@stlp_std@@YAXPAUTipString@@ABU1@@Z ; stlp_std::_Param_Construct<TipString,TipString>
	sub	esi, 1
	add	esp, 8

; 88   :       ++__first;

	add	ebx, 12					; 0000000cH

; 89   :       ++__cur;

	add	edi, 12					; 0000000cH
	test	esi, esi
	jg	SHORT $LL3@ucopy@21
$LN25@ucopy@21:

; 90   :     }
; 91   :     return __cur;

	mov	eax, edi
	pop	edi
	pop	esi
	pop	ebx

; 92   :   }
; 93   :   _STLP_UNWIND(_STLP_STD::_Destroy_Range(__result, __cur))
; 94   :   _STLP_RET_AFTER_THROW(__cur)
; 95   : }

	ret	0
??$__ucopy@PAUTipString@@PAU1@H@priv@stlp_std@@YAPAUTipString@@PAU2@00ABUrandom_access_iterator_tag@1@PAH@Z ENDP ; stlp_std::priv::__ucopy<TipString *,TipString *,int>
; Function compile flags: /Ogtpy
_TEXT	ENDS
;	COMDAT ??$__ufill@PAUTipString@@U1@H@priv@stlp_std@@YAXPAUTipString@@0ABU2@ABUrandom_access_iterator_tag@1@PAH@Z
_TEXT	SEGMENT
??$__ufill@PAUTipString@@U1@H@priv@stlp_std@@YAXPAUTipString@@0ABU2@ABUrandom_access_iterator_tag@1@PAH@Z PROC ; stlp_std::priv::__ufill<TipString *,TipString,int>, COMDAT
; ___first$ = ecx
; ___last$ = eax
; ___x$ = ebx

; 246  :                     const _Tp& __x, const random_access_iterator_tag &, _Distance*) {

	push	esi
	push	edi
	mov	edi, ecx

; 247  :   _ForwardIter __cur = __first;
; 248  :   _STLP_TRY {
; 249  :     for (_Distance __n = __last - __first; __n > 0; --__n, ++__cur)

	sub	eax, edi
	mov	ecx, eax
	mov	eax, 715827883				; 2aaaaaabH
	imul	ecx
	sar	edx, 1
	mov	esi, edx
	shr	esi, 31					; 0000001fH
	add	esi, edx
	test	esi, esi
	jle	SHORT $LN1@ufill@14
	npad	4
$LL3@ufill@14:

; 250  :       _Param_Construct(&*__cur, __x);

	push	ebx
	push	edi
	call	??$_Param_Construct@UTipString@@U1@@stlp_std@@YAXPAUTipString@@ABU1@@Z ; stlp_std::_Param_Construct<TipString,TipString>
	sub	esi, 1
	add	esp, 8
	add	edi, 12					; 0000000cH
	test	esi, esi
	jg	SHORT $LL3@ufill@14
$LN1@ufill@14:
	pop	edi
	pop	esi

; 251  :   }
; 252  :   _STLP_UNWIND(_STLP_STD::_Destroy_Range(__first, __cur))
; 253  : }

	ret	0
??$__ufill@PAUTipString@@U1@H@priv@stlp_std@@YAXPAUTipString@@0ABU2@ABUrandom_access_iterator_tag@1@PAH@Z ENDP ; stlp_std::priv::__ufill<TipString *,TipString,int>
; Function compile flags: /Ogtpy
_TEXT	ENDS
;	COMDAT ??$__ucopy_ptrs@PAUTipString@@PAU1@@priv@stlp_std@@YAPAUTipString@@PAU2@00ABU__false_type@1@@Z
_TEXT	SEGMENT
??$__ucopy_ptrs@PAUTipString@@PAU1@@priv@stlp_std@@YAPAUTipString@@PAU2@00ABU__false_type@1@@Z PROC ; stlp_std::priv::__ucopy_ptrs<TipString *,TipString *>, COMDAT
; ___first$ = edx
; ___last$ = eax
; ___result$ = ecx

; 113  : { return __ucopy(__first, __last, __result, random_access_iterator_tag(), (ptrdiff_t*)0); }

	push	ebx
	push	esi
	mov	ebx, edx
	sub	eax, ebx
	push	edi
	mov	edi, ecx
	mov	ecx, eax
	mov	eax, 715827883				; 2aaaaaabH
	imul	ecx
	sar	edx, 1
	mov	esi, edx
	shr	esi, 31					; 0000001fH
	add	esi, edx
	test	esi, esi
	jle	SHORT $LN27@ucopy_ptrs@31
	sub	ebx, edi
$LL5@ucopy_ptrs@31:
	lea	eax, DWORD PTR [ebx+edi]
	push	eax
	push	edi
	call	??$_Param_Construct@UTipString@@U1@@stlp_std@@YAXPAUTipString@@ABU1@@Z ; stlp_std::_Param_Construct<TipString,TipString>
	sub	esi, 1
	add	esp, 8
	add	edi, 12					; 0000000cH
	test	esi, esi
	jg	SHORT $LL5@ucopy_ptrs@31
$LN27@ucopy_ptrs@31:
	mov	eax, edi
	pop	edi
	pop	esi
	pop	ebx
	ret	0
??$__ucopy_ptrs@PAUTipString@@PAU1@@priv@stlp_std@@YAPAUTipString@@PAU2@00ABU__false_type@1@@Z ENDP ; stlp_std::priv::__ucopy_ptrs<TipString *,TipString *>
; Function compile flags: /Ogtpy
; File d:\clearsky\sources\sdk\include\stlport\stl\_algobase.h
_TEXT	ENDS
;	COMDAT ??$__copy@PAUTipString@@PAU1@H@priv@stlp_std@@YAPAUTipString@@PAU2@00ABUrandom_access_iterator_tag@1@PAH@Z
_TEXT	SEGMENT
??$__copy@PAUTipString@@PAU1@H@priv@stlp_std@@YAPAUTipString@@PAU2@00ABUrandom_access_iterator_tag@1@PAH@Z PROC ; stlp_std::priv::__copy<TipString *,TipString *,int>, COMDAT
; ___first$ = edx
; ___last$ = eax
; ___result$ = ecx

; 200  :        _OutputIter __result, const random_access_iterator_tag &, _Distance*) {

	push	ebx
	push	esi
	push	edi
	mov	edi, edx

; 201  :   for (_Distance __n = __last - __first; __n > 0; --__n) {

	sub	eax, edi
	mov	ebx, ecx
	mov	ecx, eax
	mov	eax, 715827883				; 2aaaaaabH
	imul	ecx
	sar	edx, 1
	mov	esi, edx
	shr	esi, 31					; 0000001fH
	add	esi, edx
	test	esi, esi
	jle	SHORT $LN19@copy@26
	npad	1
$LL3@copy@26:

; 202  :     *__result = *__first;

	push	edi
	mov	ecx, ebx
	call	??4TipString@@QAEAAU0@ABU0@@Z
	sub	esi, 1

; 203  :     ++__first;

	add	edi, 12					; 0000000cH

; 204  :     ++__result;

	add	ebx, 12					; 0000000cH
	test	esi, esi
	jg	SHORT $LL3@copy@26
$LN19@copy@26:
	pop	edi
	pop	esi

; 205  :   }
; 206  :   return __result;

	mov	eax, ebx
	pop	ebx

; 207  : }

	ret	0
??$__copy@PAUTipString@@PAU1@H@priv@stlp_std@@YAPAUTipString@@PAU2@00ABUrandom_access_iterator_tag@1@PAH@Z ENDP ; stlp_std::priv::__copy<TipString *,TipString *,int>
; Function compile flags: /Ogtpy
; File d:\clearsky\sources\sdk\include\stlport\stl\_uninitialized.h
_TEXT	ENDS
;	COMDAT ??$__uninitialized_fill_n@PAUTipString@@IU1@@priv@stlp_std@@YAPAUTipString@@PAU2@IABU2@@Z
_TEXT	SEGMENT
___x$ = 8						; size = 4
??$__uninitialized_fill_n@PAUTipString@@IU1@@priv@stlp_std@@YAPAUTipString@@PAU2@IABU2@@Z PROC ; stlp_std::priv::__uninitialized_fill_n<TipString *,unsigned int,TipString>, COMDAT
; ___first$ = ecx
; ___n$ = eax

; 313  : inline _ForwardIter __uninitialized_fill_n(_ForwardIter __first, _Size __n, const _Tp& __x) {

	push	ebx
	push	ebp
	push	esi
	mov	ebp, DWORD PTR ___x$[esp+8]

; 314  :   _ForwardIter __last = __first + __n;

	lea	eax, DWORD PTR [eax+eax*2]
	push	edi
	mov	edi, ecx
	lea	ebx, DWORD PTR [edi+eax*4]

; 315  :   __ufill(__first, __last, __x, random_access_iterator_tag(), (ptrdiff_t*)0);

	mov	ecx, ebx
	sub	ecx, edi
	mov	eax, 715827883				; 2aaaaaabH
	imul	ecx
	sar	edx, 1
	mov	esi, edx
	shr	esi, 31					; 0000001fH
	add	esi, edx
	test	esi, esi
	jle	SHORT $LN27@uninitiali@33
$LL5@uninitiali@33:
	push	ebp
	push	edi
	call	??$_Param_Construct@UTipString@@U1@@stlp_std@@YAXPAUTipString@@ABU1@@Z ; stlp_std::_Param_Construct<TipString,TipString>
	sub	esi, 1
	add	esp, 8
	add	edi, 12					; 0000000cH
	test	esi, esi
	jg	SHORT $LL5@uninitiali@33
$LN27@uninitiali@33:
	pop	edi
	pop	esi
	pop	ebp

; 316  :   return __last;

	mov	eax, ebx
	pop	ebx

; 317  : }

	ret	0
??$__uninitialized_fill_n@PAUTipString@@IU1@@priv@stlp_std@@YAPAUTipString@@PAU2@IABU2@@Z ENDP ; stlp_std::priv::__uninitialized_fill_n<TipString *,unsigned int,TipString>
; Function compile flags: /Ogtpy
_TEXT	ENDS
;	COMDAT ??$__uninitialized_move@PAUTipString@@PAU1@U__false_type@stlp_std@@@priv@stlp_std@@YAPAUTipString@@PAU2@00U__false_type@1@ABU31@@Z
_TEXT	SEGMENT
___trivial_ucpy$ = 8					; size = 1
??$__uninitialized_move@PAUTipString@@PAU1@U__false_type@stlp_std@@@priv@stlp_std@@YAPAUTipString@@PAU2@00U__false_type@1@ABU31@@Z PROC ; stlp_std::priv::__uninitialized_move<TipString *,TipString *,stlp_std::__false_type>, COMDAT
; ___first$ = edx
; ___last$ = eax
; ___result$ = ecx

; 414  : { return __ucopy_ptrs(__first, __last, __result, __trivial_ucpy); }

	push	ebx
	push	esi
	mov	ebx, edx
	sub	eax, ebx
	push	edi
	mov	edi, ecx
	mov	ecx, eax
	mov	eax, 715827883				; 2aaaaaabH
	imul	ecx
	sar	edx, 1
	mov	esi, edx
	shr	esi, 31					; 0000001fH
	add	esi, edx
	test	esi, esi
	jle	SHORT $LN29@uninitiali@34
	sub	ebx, edi
$LL7@uninitiali@34:
	lea	eax, DWORD PTR [ebx+edi]
	push	eax
	push	edi
	call	??$_Param_Construct@UTipString@@U1@@stlp_std@@YAXPAUTipString@@ABU1@@Z ; stlp_std::_Param_Construct<TipString,TipString>
	sub	esi, 1
	add	esp, 8
	add	edi, 12					; 0000000cH
	test	esi, esi
	jg	SHORT $LL7@uninitiali@34
$LN29@uninitiali@34:
	mov	eax, edi
	pop	edi
	pop	esi
	pop	ebx
	ret	0
??$__uninitialized_move@PAUTipString@@PAU1@U__false_type@stlp_std@@@priv@stlp_std@@YAPAUTipString@@PAU2@00U__false_type@1@ABU31@@Z ENDP ; stlp_std::priv::__uninitialized_move<TipString *,TipString *,stlp_std::__false_type>
; Function compile flags: /Ogtpy
; File d:\clearsky\sources\sdk\include\stlport\stl\_algobase.h
_TEXT	ENDS
;	COMDAT ??$__copy_ptrs@PAUTipString@@PAU1@@priv@stlp_std@@YAPAUTipString@@PAU2@00ABU__false_type@1@@Z
_TEXT	SEGMENT
??$__copy_ptrs@PAUTipString@@PAU1@@priv@stlp_std@@YAPAUTipString@@PAU2@00ABU__false_type@1@@Z PROC ; stlp_std::priv::__copy_ptrs<TipString *,TipString *>, COMDAT
; ___first$ = edx
; ___last$ = eax
; ___result$ = ecx

; 249  :                                const __false_type& /*IsOKToMemCpy*/) {

	push	ebx
	push	esi
	mov	ebx, edx

; 250  :   return __copy(__first, __last, __result, random_access_iterator_tag(), (ptrdiff_t*)0);

	sub	eax, ebx
	push	edi
	mov	edi, ecx
	mov	ecx, eax
	mov	eax, 715827883				; 2aaaaaabH
	imul	ecx
	sar	edx, 1
	mov	esi, edx
	shr	esi, 31					; 0000001fH
	add	esi, edx
	test	esi, esi
	jle	SHORT $LN21@copy_ptrs@46
	sub	ebx, edi
$LL5@copy_ptrs@46:
	lea	eax, DWORD PTR [ebx+edi]
	push	eax
	mov	ecx, edi
	call	??4TipString@@QAEAAU0@ABU0@@Z
	sub	esi, 1
	add	edi, 12					; 0000000cH
	test	esi, esi
	jg	SHORT $LL5@copy_ptrs@46
$LN21@copy_ptrs@46:
	mov	eax, edi
	pop	edi
	pop	esi
	pop	ebx

; 251  : }

	ret	0
??$__copy_ptrs@PAUTipString@@PAU1@@priv@stlp_std@@YAPAUTipString@@PAU2@00ABU__false_type@1@@Z ENDP ; stlp_std::priv::__copy_ptrs<TipString *,TipString *>
; Function compile flags: /Ogtpy
; File d:\clearsky\sources\sdk\include\stlport\stl\_construct.h
_TEXT	ENDS
;	COMDAT ??$_Copy_Construct@UTipString@@@stlp_std@@YAXPAUTipString@@ABU1@@Z
_TEXT	SEGMENT
??$_Copy_Construct@UTipString@@@stlp_std@@YAXPAUTipString@@ABU1@@Z PROC ; stlp_std::_Copy_Construct<TipString>, COMDAT
; ___p$ = ecx
; ___val$ = eax

; 110  : #if defined (_STLP_DEBUG_UNINITIALIZED)
; 111  :   memset((char*)__p, _STLP_SHRED_BYTE, sizeof(_Tp));
; 112  : #endif
; 113  :   _STLP_PLACEMENT_NEW (__p) _Tp(__val);

	test	ecx, ecx
	je	SHORT $LN3@Copy_Const@32
	push	eax
	call	??0TipString@@QAE@ABU0@@Z
$LN3@Copy_Const@32:

; 114  : }

	ret	0
??$_Copy_Construct@UTipString@@@stlp_std@@YAXPAUTipString@@ABU1@@Z ENDP ; stlp_std::_Copy_Construct<TipString>
; Function compile flags: /Ogtpy
; File d:\clearsky\sources\engine\xrcore\xrmemory_subst_msvc.h
_TEXT	ENDS
;	COMDAT ??$xr_new@VCGameFont@@$$BY0N@$$CBDW4<unnamed-tag>@1@@@YAPAVCGameFont@@AAY0N@$$CBDABW4<unnamed-tag>@0@@Z
_TEXT	SEGMENT
_p2$ = 8						; size = 4
??$xr_new@VCGameFont@@$$BY0N@$$CBDW4<unnamed-tag>@1@@@YAPAVCGameFont@@AAY0N@$$CBDABW4<unnamed-tag>@0@@Z PROC ; xr_new<CGameFont,char const [13],enum CGameFont::<unnamed-tag> >, COMDAT

; 80   : 	T* ptr	= (T*)Memory.mem_alloc(sizeof(T));

	mov	ecx, DWORD PTR __imp_?Memory@@3VxrMemory@@A
	push	88					; 00000058H
	call	DWORD PTR __imp_?mem_alloc@xrMemory@@QAEPAXI@Z

; 81   : 	return new (ptr) T(p1,p2);

	test	eax, eax
	je	SHORT $LN3@xr_new@27
	mov	ecx, DWORD PTR _p2$[esp-4]
	mov	edx, DWORD PTR [ecx]
	push	edx
	push	OFFSET ??_C@_0N@HJHJNABD@hud_font_di2?$AA@
	mov	ecx, eax
	call	??0CGameFont@@QAE@PBDI@Z		; CGameFont::CGameFont

; 82   : }

	ret	0
$LN3@xr_new@27:

; 81   : 	return new (ptr) T(p1,p2);

	xor	eax, eax

; 82   : }

	ret	0
??$xr_new@VCGameFont@@$$BY0N@$$CBDW4<unnamed-tag>@1@@@YAPAVCGameFont@@AAY0N@$$CBDABW4<unnamed-tag>@0@@Z ENDP ; xr_new<CGameFont,char const [13],enum CGameFont::<unnamed-tag> >
; Function compile flags: /Ogtpy
_TEXT	ENDS
;	COMDAT ??$xr_new@VCGameFont@@$$BY0M@$$CBDW4<unnamed-tag>@1@@@YAPAVCGameFont@@AAY0M@$$CBDABW4<unnamed-tag>@0@@Z
_TEXT	SEGMENT
_p2$ = 8						; size = 4
??$xr_new@VCGameFont@@$$BY0M@$$CBDW4<unnamed-tag>@1@@@YAPAVCGameFont@@AAY0M@$$CBDABW4<unnamed-tag>@0@@Z PROC ; xr_new<CGameFont,char const [12],enum CGameFont::<unnamed-tag> >, COMDAT

; 80   : 	T* ptr	= (T*)Memory.mem_alloc(sizeof(T));

	mov	ecx, DWORD PTR __imp_?Memory@@3VxrMemory@@A
	push	88					; 00000058H
	call	DWORD PTR __imp_?mem_alloc@xrMemory@@QAEPAXI@Z

; 81   : 	return new (ptr) T(p1,p2);

	test	eax, eax
	je	SHORT $LN3@xr_new@28
	mov	ecx, DWORD PTR _p2$[esp-4]
	mov	edx, DWORD PTR [ecx]
	push	edx
	push	OFFSET ??_C@_0M@GNLPOGIJ@hud_font_di?$AA@
	mov	ecx, eax
	call	??0CGameFont@@QAE@PBDI@Z		; CGameFont::CGameFont

; 82   : }

	ret	0
$LN3@xr_new@28:

; 81   : 	return new (ptr) T(p1,p2);

	xor	eax, eax

; 82   : }

	ret	0
??$xr_new@VCGameFont@@$$BY0M@$$CBDW4<unnamed-tag>@1@@@YAPAVCGameFont@@AAY0M@$$CBDABW4<unnamed-tag>@0@@Z ENDP ; xr_new<CGameFont,char const [12],enum CGameFont::<unnamed-tag> >
; Function compile flags: /Ogtpy
_TEXT	ENDS
;	COMDAT ??$xr_new@Vline_editor@text_editor@@I@@YAPAVline_editor@text_editor@@ABI@Z
_TEXT	SEGMENT
_p1$ = 8						; size = 4
??$xr_new@Vline_editor@text_editor@@I@@YAPAVline_editor@text_editor@@ABI@Z PROC ; xr_new<text_editor::line_editor,unsigned int>, COMDAT

; 74   : 	T* ptr	= (T*)Memory.mem_alloc(sizeof(T));

	mov	ecx, DWORD PTR __imp_?Memory@@3VxrMemory@@A
	push	esi
	push	1112					; 00000458H
	call	DWORD PTR __imp_?mem_alloc@xrMemory@@QAEPAXI@Z

; 75   : 	return new (ptr) T(p1);

	mov	esi, eax
	test	esi, esi
	je	SHORT $LN3@xr_new@29
	mov	eax, DWORD PTR _p1$[esp]
	mov	eax, DWORD PTR [eax]
	push	eax
	lea	ecx, DWORD PTR [esi+4]
	mov	DWORD PTR [esi], OFFSET ??_7line_editor@text_editor@@6B@
	call	??0line_edit_control@text_editor@@QAE@I@Z ; text_editor::line_edit_control::line_edit_control
	mov	eax, esi
	pop	esi

; 76   : }

	ret	0
$LN3@xr_new@29:

; 75   : 	return new (ptr) T(p1);

	xor	eax, eax
	pop	esi

; 76   : }

	ret	0
??$xr_new@Vline_editor@text_editor@@I@@YAPAVline_editor@text_editor@@ABI@Z ENDP ; xr_new<text_editor::line_editor,unsigned int>
; Function compile flags: /Ogtpy
; File d:\clearsky\sources\sdk\include\stlport\stl\_vector.c
_TEXT	ENDS
;	COMDAT ?_M_insert_overflow_aux@?$_Impl_vector@UTipString@@V?$xalloc@UTipString@@@@@priv@stlp_std@@AAEXPAUTipString@@ABU4@ABU__false_type@3@I_N@Z
_TEXT	SEGMENT
___fill_len$ = -16					; size = 4
___len$ = -12						; size = 4
___new_start$ = -8					; size = 4
tv259 = -4						; size = 4
___old_size$ = 8					; size = 4
_this$ = 8						; size = 4
___x$ = 12						; size = 4
?_M_insert_overflow_aux@?$_Impl_vector@UTipString@@V?$xalloc@UTipString@@@@@priv@stlp_std@@AAEXPAUTipString@@ABU4@ABU__false_type@3@I_N@Z PROC ; stlp_std::priv::_Impl_vector<TipString,xalloc<TipString> >::_M_insert_overflow_aux, COMDAT
; ___pos$ = eax

; 84   :                                                  size_type __fill_len, bool __atend ) {

	sub	esp, 16					; 00000010H
	push	ebx
	push	ebp
	mov	ebp, DWORD PTR _this$[esp+20]
	push	esi
	push	edi

; 85   :   const size_type __old_size = size();

	mov	ecx, ebp
	mov	esi, eax
	mov	DWORD PTR ___fill_len$[esp+32], 1
	call	?size@?$_Impl_vector@UTipString@@V?$xalloc@UTipString@@@@@priv@stlp_std@@QBEIXZ ; stlp_std::priv::_Impl_vector<TipString,xalloc<TipString> >::size
	mov	DWORD PTR ___old_size$[esp+28], eax

; 86   :   size_type __len = __old_size + (max)(__old_size, __fill_len);

	lea	eax, DWORD PTR ___fill_len$[esp+32]
	push	eax
	lea	ecx, DWORD PTR ___old_size$[esp+32]
	push	ecx
	call	??$max@I@stlp_std@@YAABIABI0@Z		; stlp_std::max<unsigned int>
	mov	eax, DWORD PTR [eax]
	add	eax, DWORD PTR ___old_size$[esp+36]
	add	esp, 8

; 87   : 
; 88   :   pointer __new_start = this->_M_end_of_storage.allocate(__len, __len);

	lea	edx, DWORD PTR ___len$[esp+32]
	push	edx
	lea	ecx, DWORD PTR [ebp+8]
	push	eax
	mov	DWORD PTR ___len$[esp+40], eax
	mov	DWORD PTR tv259[esp+40], ecx
	call	?allocate@?$_STLP_alloc_proxy@PAUTipString@@U1@V?$xalloc@UTipString@@@@@priv@stlp_std@@QAEPAUTipString@@IAAI@Z ; stlp_std::priv::_STLP_alloc_proxy<TipString *,TipString,xalloc<TipString> >::allocate

; 89   :   pointer __new_finish = __new_start;
; 90   :   _STLP_TRY {
; 91   :     __new_finish = _STLP_PRIV __uninitialized_move(this->_M_start, __pos, __new_start, _TrivialUCopy(), _Movable());

	mov	edi, DWORD PTR [ebp]
	sub	esi, edi
	mov	DWORD PTR ___new_start$[esp+32], eax
	mov	ebx, eax
	mov	eax, 715827883				; 2aaaaaabH
	imul	esi
	sar	edx, 1
	mov	esi, edx
	shr	esi, 31					; 0000001fH
	add	esi, edx
	test	esi, esi
	jle	SHORT $LN26@M_insert_o@26
	npad	3
$LL28@M_insert_o@26:
	push	edi
	push	ebx
	call	??$_Param_Construct@UTipString@@U1@@stlp_std@@YAXPAUTipString@@ABU1@@Z ; stlp_std::_Param_Construct<TipString,TipString>
	sub	esi, 1
	add	esp, 8
	add	edi, 12					; 0000000cH
	add	ebx, 12					; 0000000cH
	test	esi, esi
	jg	SHORT $LL28@M_insert_o@26
$LN26@M_insert_o@26:

; 92   :     // handle insertion
; 93   :     if (__fill_len == 1) {

	mov	eax, DWORD PTR ___fill_len$[esp+32]
	cmp	eax, 1
	jne	SHORT $LN3@M_insert_o@26

; 94   :       _Copy_Construct(__new_finish, __x);

	test	ebx, ebx
	je	SHORT $LN50@M_insert_o@26
	mov	eax, DWORD PTR ___x$[esp+28]
	push	eax
	mov	ecx, ebx
	call	??0TipString@@QAE@ABU0@@Z
$LN50@M_insert_o@26:

; 95   :       ++__new_finish;

	lea	esi, DWORD PTR [ebx+12]

; 96   :     } else

	jmp	SHORT $LN1@M_insert_o@26
$LN3@M_insert_o@26:

; 97   :       __new_finish = _STLP_PRIV __uninitialized_fill_n(__new_finish, __fill_len, __x);

	mov	ecx, DWORD PTR ___x$[esp+28]
	push	ecx
	mov	ecx, ebx
	call	??$__uninitialized_fill_n@PAUTipString@@IU1@@priv@stlp_std@@YAPAUTipString@@PAU2@IABU2@@Z ; stlp_std::priv::__uninitialized_fill_n<TipString *,unsigned int,TipString>
	add	esp, 4
	mov	esi, eax
$LN1@M_insert_o@26:

; 98   :     if (!__atend)
; 99   :       __new_finish = _STLP_PRIV __uninitialized_move(__pos, this->_M_finish, __new_finish, _TrivialUCopy(), _Movable()); // copy remainder
; 100  :   }
; 101  :   _STLP_UNWIND((_STLP_STD::_Destroy_Range(__new_start,__new_finish),
; 102  :                this->_M_end_of_storage.deallocate(__new_start,__len)))
; 103  :   _M_clear_after_move();

	mov	eax, ebp
	call	?_M_clear_after_move@?$_Impl_vector@UTipString@@V?$xalloc@UTipString@@@@@priv@stlp_std@@AAEXXZ ; stlp_std::priv::_Impl_vector<TipString,xalloc<TipString> >::_M_clear_after_move

; 104  :   _M_set(__new_start, __new_finish, __new_start + __len);

	mov	eax, DWORD PTR ___len$[esp+32]
	mov	ecx, DWORD PTR ___new_start$[esp+32]
	pop	edi
	mov	DWORD PTR [ebp+4], esi
	lea	edx, DWORD PTR [eax+eax*2]
	pop	esi
	mov	DWORD PTR [ebp], ecx
	lea	eax, DWORD PTR [ecx+edx*4]
	mov	ecx, DWORD PTR tv259[esp+24]
	pop	ebp
	mov	DWORD PTR [ecx], eax
	pop	ebx

; 105  : }

	add	esp, 16					; 00000010H
	ret	8
?_M_insert_overflow_aux@?$_Impl_vector@UTipString@@V?$xalloc@UTipString@@@@@priv@stlp_std@@AAEXPAUTipString@@ABU4@ABU__false_type@3@I_N@Z ENDP ; stlp_std::priv::_Impl_vector<TipString,xalloc<TipString> >::_M_insert_overflow_aux
; Function compile flags: /Ogtpy
; File d:\clearsky\sources\sdk\include\stlport\stl\_vector.h
_TEXT	ENDS
;	COMDAT ?_M_erase@?$_Impl_vector@UTipString@@V?$xalloc@UTipString@@@@@priv@stlp_std@@AAEPAUTipString@@PAU4@0ABU__false_type@3@@Z
_TEXT	SEGMENT
_this$ = 8						; size = 4
___first$ = 12						; size = 4
?_M_erase@?$_Impl_vector@UTipString@@V?$xalloc@UTipString@@@@@priv@stlp_std@@AAEPAUTipString@@PAU4@0ABU__false_type@3@@Z PROC ; stlp_std::priv::_Impl_vector<TipString,xalloc<TipString> >::_M_erase, COMDAT
; ___last$ = eax

; 578  :   iterator _M_erase(iterator __first, iterator __last, const __false_type& /*_Movable*/) {

	push	ebx
	mov	ebx, eax

; 579  :     pointer __i = _STLP_PRIV __copy_ptrs(__last, this->_M_finish, __first, _TrivialCopy());

	mov	eax, DWORD PTR _this$[esp]
	mov	ecx, DWORD PTR [eax+4]
	sub	ecx, ebx
	mov	eax, 715827883				; 2aaaaaabH
	imul	ecx
	push	ebp
	mov	ebp, DWORD PTR ___first$[esp+4]
	push	esi
	sar	edx, 1
	mov	esi, edx
	shr	esi, 31					; 0000001fH
	add	esi, edx
	test	esi, esi
	push	edi
	mov	edi, ebp
	jle	SHORT $LN5@M_erase@37
	sub	ebx, ebp
	npad	5
$LL7@M_erase@37:
	lea	ecx, DWORD PTR [ebx+edi]
	push	ecx
	mov	ecx, edi
	call	??4TipString@@QAEAAU0@ABU0@@Z
	sub	esi, 1
	add	edi, 12					; 0000000cH
	test	esi, esi
	jg	SHORT $LL7@M_erase@37
$LN5@M_erase@37:

; 580  :     _STLP_STD::_Destroy_Range(__i, this->_M_finish);

	mov	esi, DWORD PTR _this$[esp+12]
	mov	edx, DWORD PTR [esi+4]
	push	edx
	push	edi
	call	??$_Destroy_Range@PAUTipString@@@stlp_std@@YAXPAUTipString@@0@Z ; stlp_std::_Destroy_Range<TipString *>
	add	esp, 8

; 581  :     this->_M_finish = __i;

	mov	DWORD PTR [esi+4], edi
	pop	edi
	pop	esi

; 582  :     return __first;

	mov	eax, ebp
	pop	ebp
	pop	ebx

; 583  :   }

	ret	8
?_M_erase@?$_Impl_vector@UTipString@@V?$xalloc@UTipString@@@@@priv@stlp_std@@AAEPAUTipString@@PAU4@0ABU__false_type@3@@Z ENDP ; stlp_std::priv::_Impl_vector<TipString,xalloc<TipString> >::_M_erase
; Function compile flags: /Ogtpy
_TEXT	ENDS
;	COMDAT ?erase@?$_Impl_vector@UTipString@@V?$xalloc@UTipString@@@@@priv@stlp_std@@QAEPAUTipString@@PAU4@0@Z
_TEXT	SEGMENT
_this$ = 8						; size = 4
?erase@?$_Impl_vector@UTipString@@V?$xalloc@UTipString@@@@@priv@stlp_std@@QAEPAUTipString@@PAU4@0@Z PROC ; stlp_std::priv::_Impl_vector<TipString,xalloc<TipString> >::erase, COMDAT
; ___first$ = eax
; ___last$ = ecx

; 590  :     if (__first == __last)

	cmp	eax, ecx

; 591  :       return __first;

	je	SHORT $LN2@erase@57

; 592  :     return _M_erase(__first, __last, _Movable());

	push	eax
	mov	eax, DWORD PTR _this$[esp]
	push	eax
	mov	eax, ecx
	call	?_M_erase@?$_Impl_vector@UTipString@@V?$xalloc@UTipString@@@@@priv@stlp_std@@AAEPAUTipString@@PAU4@0ABU__false_type@3@@Z ; stlp_std::priv::_Impl_vector<TipString,xalloc<TipString> >::_M_erase
$LN2@erase@57:

; 593  :   }

	ret	4
?erase@?$_Impl_vector@UTipString@@V?$xalloc@UTipString@@@@@priv@stlp_std@@QAEPAUTipString@@PAU4@0@Z ENDP ; stlp_std::priv::_Impl_vector<TipString,xalloc<TipString> >::erase
; Function compile flags: /Ogtpy
_TEXT	ENDS
;	COMDAT ?_M_insert_overflow@?$_Impl_vector@UTipString@@V?$xalloc@UTipString@@@@@priv@stlp_std@@AAEXPAUTipString@@ABU4@ABU__false_type@3@I_N@Z
_TEXT	SEGMENT
___pos$ = 8						; size = 4
?_M_insert_overflow@?$_Impl_vector@UTipString@@V?$xalloc@UTipString@@@@@priv@stlp_std@@AAEXPAUTipString@@ABU4@ABU__false_type@3@I_N@Z PROC ; stlp_std::priv::_Impl_vector<TipString,xalloc<TipString> >::_M_insert_overflow, COMDAT
; _this$ = ecx
; ___x$ = eax

; 161  :   { _M_insert_overflow_aux(__pos, __x, _Movable(), __fill_len, __atend); }

	push	eax
	mov	eax, DWORD PTR ___pos$[esp]
	push	ecx
	call	?_M_insert_overflow_aux@?$_Impl_vector@UTipString@@V?$xalloc@UTipString@@@@@priv@stlp_std@@AAEXPAUTipString@@ABU4@ABU__false_type@3@I_N@Z ; stlp_std::priv::_Impl_vector<TipString,xalloc<TipString> >::_M_insert_overflow_aux
	ret	4
?_M_insert_overflow@?$_Impl_vector@UTipString@@V?$xalloc@UTipString@@@@@priv@stlp_std@@AAEXPAUTipString@@ABU4@ABU__false_type@3@I_N@Z ENDP ; stlp_std::priv::_Impl_vector<TipString,xalloc<TipString> >::_M_insert_overflow
; Function compile flags: /Ogtpy
_TEXT	ENDS
;	COMDAT ?push_back@?$_Impl_vector@UTipString@@V?$xalloc@UTipString@@@@@priv@stlp_std@@QAEXABUTipString@@@Z
_TEXT	SEGMENT
?push_back@?$_Impl_vector@UTipString@@V?$xalloc@UTipString@@@@@priv@stlp_std@@QAEXABUTipString@@@Z PROC ; stlp_std::priv::_Impl_vector<TipString,xalloc<TipString> >::push_back, COMDAT
; _this$ = esi
; ___x$ = ecx

; 361  : #endif /*!_STLP_DONT_SUP_DFLT_PARAM && !_STLP_NO_ANACHRONISMS*/
; 362  :     if (this->_M_finish != this->_M_end_of_storage._M_data) {

	mov	eax, DWORD PTR [esi+4]
	cmp	eax, DWORD PTR [esi+8]
	je	SHORT $LN2@push_back@39

; 363  :       _Copy_Construct(this->_M_finish, __x);

	test	eax, eax
	je	SHORT $LN7@push_back@39
	push	ecx
	mov	ecx, eax
	call	??0TipString@@QAE@ABU0@@Z
$LN7@push_back@39:

; 364  :       ++this->_M_finish;

	add	DWORD PTR [esi+4], 12			; 0000000cH

; 368  :   }

	ret	0
$LN2@push_back@39:

; 365  :     }
; 366  :     else
; 367  :       _M_insert_overflow(this->_M_finish, __x, _TrivialCopy(), 1UL, true);

	push	ecx
	push	esi
	call	?_M_insert_overflow_aux@?$_Impl_vector@UTipString@@V?$xalloc@UTipString@@@@@priv@stlp_std@@AAEXPAUTipString@@ABU4@ABU__false_type@3@I_N@Z ; stlp_std::priv::_Impl_vector<TipString,xalloc<TipString> >::_M_insert_overflow_aux

; 368  :   }

	ret	0
?push_back@?$_Impl_vector@UTipString@@V?$xalloc@UTipString@@@@@priv@stlp_std@@QAEXABUTipString@@@Z ENDP ; stlp_std::priv::_Impl_vector<TipString,xalloc<TipString> >::push_back
; Function compile flags: /Ogtpy
; File d:\clearsky\sources\sdk\include\stlport\stl\pointers\_vector.h
_TEXT	ENDS
;	COMDAT ?erase@?$vector@UTipString@@V?$xalloc@UTipString@@@@@stlp_std@@QAEPAUTipString@@PAU3@0@Z
_TEXT	SEGMENT
_this$ = 8						; size = 4
?erase@?$vector@UTipString@@V?$xalloc@UTipString@@@@@stlp_std@@QAEPAUTipString@@PAU3@0@Z PROC ; stlp_std::vector<TipString,xalloc<TipString> >::erase, COMDAT
; ___first$ = eax
; ___last$ = ecx

; 208  :     return cast_traits::to_value_type_ptr(_M_impl.erase(cast_traits::to_storage_type_ptr(__first),
; 209  :                                                         cast_traits::to_storage_type_ptr(__last)));

	cmp	eax, ecx
	je	SHORT $LN8@erase@58
	push	eax
	mov	eax, DWORD PTR _this$[esp]
	push	eax
	mov	eax, ecx
	call	?_M_erase@?$_Impl_vector@UTipString@@V?$xalloc@UTipString@@@@@priv@stlp_std@@AAEPAUTipString@@PAU4@0ABU__false_type@3@@Z ; stlp_std::priv::_Impl_vector<TipString,xalloc<TipString> >::_M_erase
$LN8@erase@58:

; 210  :   }

	ret	4
?erase@?$vector@UTipString@@V?$xalloc@UTipString@@@@@stlp_std@@QAEPAUTipString@@PAU3@0@Z ENDP ; stlp_std::vector<TipString,xalloc<TipString> >::erase
; Function compile flags: /Ogtpy
_TEXT	ENDS
;	COMDAT ?push_back@?$vector@UTipString@@V?$xalloc@UTipString@@@@@stlp_std@@QAEXABUTipString@@@Z
_TEXT	SEGMENT
?push_back@?$vector@UTipString@@V?$xalloc@UTipString@@@@@stlp_std@@QAEXABUTipString@@@Z PROC ; stlp_std::vector<TipString,xalloc<TipString> >::push_back, COMDAT
; _this$ = esi
; ___x$ = ecx

; 171  :   { _M_impl.push_back(cast_traits::to_storage_type_cref(__x)); }

	mov	eax, DWORD PTR [esi+4]
	cmp	eax, DWORD PTR [esi+8]
	je	SHORT $LN6@push_back@40
	test	eax, eax
	je	SHORT $LN11@push_back@40
	push	ecx
	mov	ecx, eax
	call	??0TipString@@QAE@ABU0@@Z
$LN11@push_back@40:
	add	DWORD PTR [esi+4], 12			; 0000000cH
	ret	0
$LN6@push_back@40:
	push	ecx
	push	esi
	call	?_M_insert_overflow_aux@?$_Impl_vector@UTipString@@V?$xalloc@UTipString@@@@@priv@stlp_std@@AAEXPAUTipString@@ABU4@ABU__false_type@3@I_N@Z ; stlp_std::priv::_Impl_vector<TipString,xalloc<TipString> >::_M_insert_overflow_aux
	ret	0
?push_back@?$vector@UTipString@@V?$xalloc@UTipString@@@@@stlp_std@@QAEXABUTipString@@@Z ENDP ; stlp_std::vector<TipString,xalloc<TipString> >::push_back
; Function compile flags: /Ogtpy
; File d:\clearsky\sources\engine\xrcore\_stl_extensions.h
_TEXT	ENDS
;	COMDAT ?clear_not_free@?$xr_vector@UTipString@@V?$xalloc@UTipString@@@@@@QAEXXZ
_TEXT	SEGMENT
?clear_not_free@?$xr_vector@UTipString@@V?$xalloc@UTipString@@@@@@QAEXXZ PROC ; xr_vector<TipString,xalloc<TipString> >::clear_not_free, COMDAT
; _this$ = esi

; 129  : 	void	clear_not_free		()									{ erase(begin(),end());			}

	push	edi
	mov	ecx, esi
	call	?end@?$_Impl_vector@UTipString@@V?$xalloc@UTipString@@@@@priv@stlp_std@@QAEPAUTipString@@XZ ; stlp_std::priv::_Impl_vector<TipString,xalloc<TipString> >::end
	mov	ecx, esi
	mov	edi, eax
	call	?begin@?$_Impl_vector@UTipString@@V?$xalloc@UTipString@@@@@priv@stlp_std@@QAEPAUTipString@@XZ ; stlp_std::priv::_Impl_vector<TipString,xalloc<TipString> >::begin
	cmp	eax, edi
	je	SHORT $LN22@clear_not_@8
	push	eax
	push	esi
	mov	eax, edi
	call	?_M_erase@?$_Impl_vector@UTipString@@V?$xalloc@UTipString@@@@@priv@stlp_std@@AAEPAUTipString@@PAU4@0ABU__false_type@3@@Z ; stlp_std::priv::_Impl_vector<TipString,xalloc<TipString> >::_M_erase
$LN22@clear_not_@8:
	pop	edi
	ret	0
?clear_not_free@?$xr_vector@UTipString@@V?$xalloc@UTipString@@@@@@QAEXXZ ENDP ; xr_vector<TipString,xalloc<TipString> >::clear_not_free
_TEXT	ENDS
PUBLIC	?select_for_filter@CConsole@@IAEXPBDAAV?$xr_vector@Vshared_str@@V?$xalloc@Vshared_str@@@@@@AAV?$xr_vector@UTipString@@V?$xalloc@UTipString@@@@@@@Z ; CConsole::select_for_filter
; Function compile flags: /Ogtpy
; File d:\clearsky\sources\engine\xrengine\xr_ioconsole.cpp
;	COMDAT ?select_for_filter@CConsole@@IAEXPBDAAV?$xr_vector@Vshared_str@@V?$xalloc@Vshared_str@@@@@@AAV?$xr_vector@UTipString@@V?$xalloc@UTipString@@@@@@@Z
_TEXT	SEGMENT
_ite$ = -28						; size = 4
$T434776 = -24						; size = 12
_ts$133000 = -12					; size = 12
_filter_str$ = 8					; size = 4
_itb$ = 12						; size = 4
_in_v$ = 12						; size = 4
tv64 = 16						; size = 4
_all$ = 16						; size = 1
_out_v$ = 16						; size = 4
?select_for_filter@CConsole@@IAEXPBDAAV?$xr_vector@Vshared_str@@V?$xalloc@Vshared_str@@@@@@AAV?$xr_vector@UTipString@@V?$xalloc@UTipString@@@@@@@Z PROC ; CConsole::select_for_filter, COMDAT
; _this$ = ecx

; 923  : {

	sub	esp, 28					; 0000001cH
	push	ebp

; 924  : 	out_v.clear_not_free();

	mov	ebp, DWORD PTR _out_v$[esp+28]
	push	esi
	mov	ecx, ebp
	call	?end@?$_Impl_vector@UTipString@@V?$xalloc@UTipString@@@@@priv@stlp_std@@QAEPAUTipString@@XZ ; stlp_std::priv::_Impl_vector<TipString,xalloc<TipString> >::end
	mov	ecx, ebp
	mov	esi, eax
	call	?begin@?$_Impl_vector@UTipString@@V?$xalloc@UTipString@@@@@priv@stlp_std@@QAEPAUTipString@@XZ ; stlp_std::priv::_Impl_vector<TipString,xalloc<TipString> >::begin
	cmp	eax, esi
	je	SHORT $LN32@select_for
	push	eax
	push	ebp
	mov	eax, esi
	call	?_M_erase@?$_Impl_vector@UTipString@@V?$xalloc@UTipString@@@@@priv@stlp_std@@AAEPAUTipString@@PAU4@0ABU__false_type@3@@Z ; stlp_std::priv::_Impl_vector<TipString,xalloc<TipString> >::_M_erase
$LN32@select_for:

; 925  : 	u32 in_count = in_v.size();

	mov	esi, DWORD PTR _in_v$[esp+32]
	mov	eax, DWORD PTR [esi+4]
	sub	eax, DWORD PTR [esi]

; 926  : 	if ( in_count == 0 || !filter_str )

	test	eax, -4					; fffffffcH
	je	$LN7@select_for
	mov	eax, DWORD PTR _filter_str$[esp+32]
	push	ebx
	xor	ebx, ebx
	cmp	eax, ebx
	je	$LN165@select_for

; 927  : 	{
; 928  : 		return;
; 929  : 	}
; 930  : 
; 931  : 	bool all = ( xr_strlen(filter_str) == 0 );

	lea	edx, DWORD PTR [eax+1]
	npad	4
$LL162@select_for:
	mov	cl, BYTE PTR [eax]
	add	eax, 1
	cmp	cl, bl
	jne	SHORT $LL162@select_for
	sub	eax, edx
	push	edi

; 932  : 
; 933  : 	vecTips::iterator itb = in_v.begin();

	mov	ecx, esi
	sete	BYTE PTR _all$[esp+40]
	call	?begin@?$vector@Vshared_str@@V?$xalloc@Vshared_str@@@@@stlp_std@@QAEPAVshared_str@@XZ ; stlp_std::vector<shared_str,xalloc<shared_str> >::begin
	mov	edi, eax

; 934  : 	vecTips::iterator ite = in_v.end();

	mov	ecx, esi
	mov	DWORD PTR _itb$[esp+40], edi
	call	?end@?$vector@Vshared_str@@V?$xalloc@Vshared_str@@@@@stlp_std@@QAEPAVshared_str@@XZ ; stlp_std::vector<shared_str,xalloc<shared_str> >::end
	mov	esi, eax

; 935  : 	for ( ; itb != ite ; ++itb )

	cmp	edi, esi
	mov	DWORD PTR _ite$[esp+44], esi
	je	$LN166@select_for
$LL6@select_for:

; 936  : 	{
; 937  : 		shared_str const& str = (*itb);
; 938  : 		if ( all )

	cmp	BYTE PTR _all$[esp+40], bl

; 939  : 		{
; 940  : 			out_v.push_back( TipString( str ) );

	mov	eax, DWORD PTR [edi]
	je	SHORT $LN3@select_for
	cmp	eax, ebx
	mov	DWORD PTR $T434776[esp+44], ebx
	je	SHORT $LN63@select_for
	add	DWORD PTR [eax], 1
	mov	ecx, DWORD PTR $T434776[esp+44]
	cmp	ecx, ebx
	je	SHORT $LN63@select_for
	add	DWORD PTR [ecx], -1
$LN63@select_for:
	mov	DWORD PTR $T434776[esp+44], eax
	mov	eax, DWORD PTR [ebp+4]
	cmp	eax, DWORD PTR [ebp+8]
	mov	DWORD PTR $T434776[esp+48], ebx
	mov	DWORD PTR $T434776[esp+52], ebx
	je	SHORT $LN72@select_for
	cmp	eax, ebx
	je	SHORT $LN77@select_for
	lea	ecx, DWORD PTR $T434776[esp+44]
	push	ecx
	mov	ecx, eax
	call	??0TipString@@QAE@ABU0@@Z
$LN77@select_for:
	add	DWORD PTR [ebp+4], 12			; 0000000cH
	lea	ecx, DWORD PTR $T434776[esp+44]
	call	??1TipString@@QAE@XZ

; 941  : 		}
; 942  : 		else

	jmp	$LN5@select_for

; 939  : 		{
; 940  : 			out_v.push_back( TipString( str ) );

$LN72@select_for:
	lea	edx, DWORD PTR $T434776[esp+44]
	push	edx
	push	ebp
	call	?_M_insert_overflow_aux@?$_Impl_vector@UTipString@@V?$xalloc@UTipString@@@@@priv@stlp_std@@AAEXPAUTipString@@ABU4@ABU__false_type@3@I_N@Z ; stlp_std::priv::_Impl_vector<TipString,xalloc<TipString> >::_M_insert_overflow_aux
	lea	ecx, DWORD PTR $T434776[esp+44]
	call	??1TipString@@QAE@XZ

; 941  : 		}
; 942  : 		else

	jmp	$LN5@select_for
$LN3@select_for:

; 943  : 		{
; 944  : 			LPCSTR fd_str = strstr( str.c_str(), filter_str );

	cmp	eax, ebx
	je	SHORT $LN104@select_for
	add	eax, 16					; 00000010H
	jmp	SHORT $LN105@select_for
$LN104@select_for:
	xor	eax, eax
$LN105@select_for:
	mov	ecx, DWORD PTR _filter_str$[esp+40]
	push	ecx
	push	eax
	call	DWORD PTR __imp__strstr
	add	esp, 8

; 945  : 			if ( fd_str )

	cmp	eax, ebx
	je	$LN5@select_for

; 946  : 			{
; 947  : 				int   fd_sz = str.size() - xr_strlen( fd_str );

	mov	esi, DWORD PTR [edi]
	cmp	esi, ebx
	jne	SHORT $LN107@select_for
	xor	ecx, ecx
	jmp	SHORT $LN106@select_for
$LN107@select_for:
	mov	ecx, DWORD PTR [esi+4]
$LN106@select_for:
	lea	edi, DWORD PTR [eax+1]
$LL163@select_for:
	mov	dl, BYTE PTR [eax]
	add	eax, 1
	cmp	dl, bl
	jne	SHORT $LL163@select_for
	sub	eax, edi
	sub	ecx, eax

; 948  : 				TipString ts( str, fd_sz, fd_sz + xr_strlen(filter_str) );

	mov	eax, DWORD PTR _filter_str$[esp+40]
	lea	edi, DWORD PTR [eax+1]
$LL164@select_for:
	mov	dl, BYTE PTR [eax]
	add	eax, 1
	cmp	dl, bl
	jne	SHORT $LL164@select_for
	sub	eax, edi
	cmp	esi, ebx
	mov	DWORD PTR _ts$133000[esp+44], ebx
	je	SHORT $LN121@select_for
	add	DWORD PTR [esi], 1
	mov	edx, DWORD PTR _ts$133000[esp+44]
	cmp	edx, ebx
	je	SHORT $LN121@select_for
	add	DWORD PTR [edx], -1
$LN121@select_for:
	add	eax, ecx
	mov	DWORD PTR _ts$133000[esp+52], eax

; 949  : 				out_v.push_back( ts );

	mov	eax, DWORD PTR [ebp+4]
	cmp	eax, DWORD PTR [ebp+8]
	mov	DWORD PTR _ts$133000[esp+44], esi
	mov	DWORD PTR _ts$133000[esp+48], ecx
	je	SHORT $LN130@select_for
	cmp	eax, ebx
	je	SHORT $LN135@select_for
	lea	edx, DWORD PTR _ts$133000[esp+44]
	push	edx
	mov	ecx, eax
	call	??0TipString@@QAE@ABU0@@Z
$LN135@select_for:
	add	DWORD PTR [ebp+4], 12			; 0000000cH
	jmp	SHORT $LN150@select_for
$LN130@select_for:
	lea	ecx, DWORD PTR _ts$133000[esp+44]
	push	ecx
	push	ebp
	call	?_M_insert_overflow_aux@?$_Impl_vector@UTipString@@V?$xalloc@UTipString@@@@@priv@stlp_std@@AAEXPAUTipString@@ABU4@ABU__false_type@3@I_N@Z ; stlp_std::priv::_Impl_vector<TipString,xalloc<TipString> >::_M_insert_overflow_aux
$LN150@select_for:

; 950  : 			}

	lea	ecx, DWORD PTR _ts$133000[esp+44]
	call	??1TipString@@QAE@XZ
	mov	esi, DWORD PTR _ite$[esp+44]
	mov	edi, DWORD PTR _itb$[esp+40]
$LN5@select_for:
	add	edi, 4
	cmp	edi, esi
	mov	DWORD PTR _itb$[esp+40], edi
	jne	$LL6@select_for
$LN166@select_for:
	pop	edi
$LN165@select_for:
	pop	ebx
$LN7@select_for:
	pop	esi
	pop	ebp

; 951  : 		}
; 952  : 	}//for
; 953  : }

	add	esp, 28					; 0000001cH
	ret	12					; 0000000cH
?select_for_filter@CConsole@@IAEXPBDAAV?$xr_vector@Vshared_str@@V?$xalloc@Vshared_str@@@@@@AAV?$xr_vector@UTipString@@V?$xalloc@UTipString@@@@@@@Z ENDP ; CConsole::select_for_filter
_TEXT	ENDS
PUBLIC	?add_internal_cmds@CConsole@@IAE_NPBDAAV?$xr_vector@UTipString@@V?$xalloc@UTipString@@@@@@@Z ; CConsole::add_internal_cmds
; Function compile flags: /Ogtpy
;	COMDAT ?add_internal_cmds@CConsole@@IAE_NPBDAAV?$xr_vector@UTipString@@V?$xalloc@UTipString@@@@@@@Z
_TEXT	SEGMENT
$T435173 = -40						; size = 12
$T435169 = -40						; size = 12
_fd_str$132934 = -28					; size = 4
_name$132933 = -24					; size = 4
_temp$132936 = -20					; size = 4
_temp$132922 = -20					; size = 4
_name$132915 = -20					; size = 4
tv513 = -16						; size = 4
_in_sz$ = -12						; size = 4
_itb$ = -8						; size = 4
_res$ = -1						; size = 1
_in_str$ = 8						; size = 4
_out_v$ = 12						; size = 4
?add_internal_cmds@CConsole@@IAE_NPBDAAV?$xr_vector@UTipString@@V?$xalloc@UTipString@@@@@@@Z PROC ; CConsole::add_internal_cmds, COMDAT
; _this$ = ecx

; 761  : {

	push	ebp
	mov	ebp, esp
	sub	esp, 40					; 00000028H
	push	ebx
	push	esi
	mov	esi, ecx

; 762  : 	u32 cur_count = out_v.size();

	mov	ecx, DWORD PTR _out_v$[ebp]
	push	edi
	call	?size@?$_Impl_vector@UTipString@@V?$xalloc@UTipString@@@@@priv@stlp_std@@QBEIXZ ; stlp_std::priv::_Impl_vector<TipString,xalloc<TipString> >::size

; 763  : 	if ( cur_count >= MAX_TIPS_COUNT )

	cmp	eax, 220				; 000000dcH
	jb	SHORT $LN14@add_intern

; 764  : 	{
; 765  : 		return false;

	xor	al, al

; 830  : }

	lea	esp, DWORD PTR [ebp-52]
	pop	edi
	pop	esi
	pop	ebx
	mov	esp, ebp
	pop	ebp
	ret	8
$LN14@add_intern:

; 766  : 	}
; 767  : 	u32   in_sz = xr_strlen(in_str);

	mov	eax, DWORD PTR _in_str$[ebp]
	lea	ecx, DWORD PTR [eax+1]
	npad	2
$LL301@add_intern:
	mov	dl, BYTE PTR [eax]
	add	eax, 1
	test	dl, dl
	jne	SHORT $LL301@add_intern
	sub	eax, ecx

; 768  : 	
; 769  : 	bool res = false;
; 770  : 	// word in begin
; 771  : 	vecCMD_IT itb = Commands.begin();

	lea	edi, DWORD PTR [esi+176]
	mov	ecx, edi
	mov	DWORD PTR _in_sz$[ebp], eax
	mov	BYTE PTR _res$[ebp], dl
	mov	DWORD PTR tv513[ebp], edi
	call	?_M_leftmost@?$_Rb_tree@PBDUstr_pred@CConsole@@U?$pair@QBDPAVIConsole_Command@@@stlp_std@@U?$_Select1st@U?$pair@QBDPAVIConsole_Command@@@stlp_std@@@priv@4@U?$_MapTraitsT@U?$pair@QBDPAVIConsole_Command@@@stlp_std@@@64@V?$xalloc@U?$pair@PBDPAVIConsole_Command@@@stlp_std@@@@@priv@stlp_std@@IAEAAPAU_Rb_tree_node_base@23@XZ ; stlp_std::priv::_Rb_tree<char const *,CConsole::str_pred,stlp_std::pair<char const * const,IConsole_Command *>,stlp_std::priv::_Select1st<stlp_std::pair<char const * const,IConsole_Command *> >,stlp_std::priv::_MapTraitsT<stlp_std::pair<char const * const,IConsole_Command *> >,xalloc<stlp_std::pair<char const *,IConsole_Command *> > >::_M_leftmost
	mov	eax, DWORD PTR [eax]

; 772  : 	vecCMD_IT ite = Commands.end();
; 773  : 	for ( ; itb != ite; ++itb )

	cmp	eax, edi
	setne	cl
	test	cl, cl
	mov	DWORD PTR _itb$[ebp], eax
	je	$LN11@add_intern
	jmp	SHORT $LN43@add_intern
$LL305@add_intern:
	mov	eax, DWORD PTR _itb$[ebp]
$LN43@add_intern:

; 774  : 	{
; 775  : 		LPCSTR name = itb->first;

	mov	eax, DWORD PTR [eax+16]
	mov	DWORD PTR _name$132915[ebp], eax

; 776  : 		u32 name_sz = xr_strlen(name);

	lea	edx, DWORD PTR [eax+1]
$LL302@add_intern:
	mov	cl, BYTE PTR [eax]
	add	eax, 1
	test	cl, cl
	jne	SHORT $LL302@add_intern
	sub	eax, edx
	mov	ebx, eax

; 777  : 		PSTR  name2 = (PSTR)_alloca( (name_sz+1) * sizeof(char) );

	lea	edi, DWORD PTR [ebx+1]
	mov	eax, edi
	call	__alloca_probe_16

; 778  : 		
; 779  : 		if ( name_sz >= in_sz )

	mov	eax, DWORD PTR _in_sz$[ebp]
	cmp	ebx, eax
	mov	esi, esp
	jb	$LN145@add_intern

; 780  : 		{
; 781  : 			strncpy_s( name2, name_sz+1, name, in_sz );

	mov	ebx, DWORD PTR _name$132915[ebp]
	push	eax
	push	ebx
	push	edi
	push	esi
	call	DWORD PTR __imp__strncpy_s

; 782  : 			name2[in_sz] = 0;
; 783  : 
; 784  : 			if ( !stricmp( name2, in_str ) )

	mov	ecx, DWORD PTR _in_str$[ebp]
	mov	eax, DWORD PTR _in_sz$[ebp]
	push	ecx
	push	esi
	mov	BYTE PTR [esi+eax], 0
	call	DWORD PTR __imp__stricmp
	add	esp, 24					; 00000018H
	test	eax, eax
	jne	$LN145@add_intern

; 785  : 			{
; 786  : 				shared_str temp;
; 787  : 				temp._set( name );

	mov	edx, DWORD PTR __imp_?g_pStringContainer@@3PAVstr_container@@A
	mov	ecx, DWORD PTR [edx]
	push	ebx
	call	DWORD PTR __imp_?dock@str_container@@QAEPAUstr_value@@PBD@Z
	mov	ebx, eax
	test	ebx, ebx
	je	SHORT $LN73@add_intern
	add	DWORD PTR [ebx], 1
$LN73@add_intern:

; 788  : 				bool dup = ( std::find( out_v.begin(), out_v.end(), temp ) != out_v.end() );

	mov	edi, DWORD PTR _out_v$[ebp]
	mov	ecx, edi
	mov	DWORD PTR _temp$132922[ebp], ebx
	call	?end@?$_Impl_vector@UTipString@@V?$xalloc@UTipString@@@@@priv@stlp_std@@QAEPAUTipString@@XZ ; stlp_std::priv::_Impl_vector<TipString,xalloc<TipString> >::end
	mov	ecx, edi
	mov	esi, eax
	call	?begin@?$_Impl_vector@UTipString@@V?$xalloc@UTipString@@@@@priv@stlp_std@@QAEPAUTipString@@XZ ; stlp_std::priv::_Impl_vector<TipString,xalloc<TipString> >::begin
	lea	edi, DWORD PTR _temp$132922[ebp]
	mov	ecx, eax
	call	??$__find@PAUTipString@@Vshared_str@@@priv@stlp_std@@YAPAUTipString@@PAU2@0ABVshared_str@@ABUrandom_access_iterator_tag@1@@Z ; stlp_std::priv::__find<TipString *,shared_str>
	mov	esi, DWORD PTR _out_v$[ebp]
	mov	ecx, esi
	mov	edi, eax
	call	?end@?$_Impl_vector@UTipString@@V?$xalloc@UTipString@@@@@priv@stlp_std@@QAEPAUTipString@@XZ ; stlp_std::priv::_Impl_vector<TipString,xalloc<TipString> >::end
	cmp	edi, eax

; 789  : 				if ( !dup )

	jne	SHORT $LN8@add_intern

; 790  : 				{
; 791  : 					out_v.push_back( TipString( temp, 0, in_sz ) );

	xor	ecx, ecx
	cmp	ebx, ecx
	mov	DWORD PTR $T435169[ebp], ecx
	je	SHORT $LN104@add_intern
	add	DWORD PTR [ebx], 1
	mov	eax, DWORD PTR $T435169[ebp]
	cmp	eax, ecx
	je	SHORT $LN104@add_intern
	add	DWORD PTR [eax], -1
$LN104@add_intern:
	mov	eax, DWORD PTR _in_sz$[ebp]
	mov	DWORD PTR $T435169[ebp+8], eax
	mov	eax, DWORD PTR [esi+4]
	cmp	eax, DWORD PTR [esi+8]
	mov	DWORD PTR $T435169[ebp], ebx
	mov	DWORD PTR $T435169[ebp+4], ecx
	je	SHORT $LN113@add_intern
	cmp	eax, ecx
	je	SHORT $LN118@add_intern
	lea	ecx, DWORD PTR $T435169[ebp]
	push	ecx
	mov	ecx, eax
	call	??0TipString@@QAE@ABU0@@Z
$LN118@add_intern:
	add	DWORD PTR [esi+4], 12			; 0000000cH
	jmp	SHORT $LN133@add_intern
$LN113@add_intern:
	lea	edx, DWORD PTR $T435169[ebp]
	push	edx
	push	esi
	call	?_M_insert_overflow_aux@?$_Impl_vector@UTipString@@V?$xalloc@UTipString@@@@@priv@stlp_std@@AAEXPAUTipString@@ABU4@ABU__false_type@3@I_N@Z ; stlp_std::priv::_Impl_vector<TipString,xalloc<TipString> >::_M_insert_overflow_aux
$LN133@add_intern:
	lea	ecx, DWORD PTR $T435169[ebp]
	call	??1TipString@@QAE@XZ

; 792  : 					res = true;

	mov	BYTE PTR _res$[ebp], 1
$LN8@add_intern:

; 793  : 				}
; 794  : 			}

	test	ebx, ebx
	je	SHORT $LN145@add_intern
	add	DWORD PTR [ebx], -1
$LN145@add_intern:

; 795  : 		}
; 796  : 
; 797  : 		if ( out_v.size() >= MAX_TIPS_COUNT )

	mov	ecx, DWORD PTR _out_v$[ebp]
	call	?size@?$_Impl_vector@UTipString@@V?$xalloc@UTipString@@@@@priv@stlp_std@@QBEIXZ ; stlp_std::priv::_Impl_vector<TipString,xalloc<TipString> >::size
	cmp	eax, 220				; 000000dcH
	jae	$LN4@add_intern
	mov	eax, DWORD PTR _itb$[ebp]
	mov	ecx, DWORD PTR [eax+12]
	test	ecx, ecx
	je	SHORT $LN49@add_intern
	mov	eax, ecx
	mov	ecx, DWORD PTR [eax+8]
	test	ecx, ecx
	je	SHORT $LN45@add_intern
	npad	7

; 772  : 	vecCMD_IT ite = Commands.end();
; 773  : 	for ( ; itb != ite; ++itb )

$LL53@add_intern:
	mov	eax, ecx
	mov	ecx, DWORD PTR [eax+8]
	test	ecx, ecx
	jne	SHORT $LL53@add_intern
	jmp	SHORT $LN45@add_intern
$LN49@add_intern:
	mov	ecx, DWORD PTR [eax+4]
	cmp	eax, DWORD PTR [ecx+12]
	jne	SHORT $LN46@add_intern
$LL47@add_intern:
	mov	eax, ecx
	mov	ecx, DWORD PTR [ecx+4]
	cmp	eax, DWORD PTR [ecx+12]
	je	SHORT $LL47@add_intern
$LN46@add_intern:
	cmp	DWORD PTR [eax+12], ecx
	je	SHORT $LN45@add_intern
	mov	eax, ecx
$LN45@add_intern:
	cmp	eax, DWORD PTR tv513[ebp]
	mov	DWORD PTR _itb$[ebp], eax
	setne	al
	test	al, al
	jne	$LL305@add_intern

; 823  : 		if ( out_v.size() >= MAX_TIPS_COUNT )

	mov	edi, DWORD PTR tv513[ebp]
$LN11@add_intern:

; 798  : 		{
; 799  : 			return res;
; 800  : 		}
; 801  : 	} // for
; 802  : 
; 803  : 	// word in internal
; 804  : 	itb = Commands.begin();

	mov	ecx, edi
	call	?_M_leftmost@?$_Rb_tree@PBDUstr_pred@CConsole@@U?$pair@QBDPAVIConsole_Command@@@stlp_std@@U?$_Select1st@U?$pair@QBDPAVIConsole_Command@@@stlp_std@@@priv@4@U?$_MapTraitsT@U?$pair@QBDPAVIConsole_Command@@@stlp_std@@@64@V?$xalloc@U?$pair@PBDPAVIConsole_Command@@@stlp_std@@@@@priv@stlp_std@@IAEAAPAU_Rb_tree_node_base@23@XZ ; stlp_std::priv::_Rb_tree<char const *,CConsole::str_pred,stlp_std::pair<char const * const,IConsole_Command *>,stlp_std::priv::_Select1st<stlp_std::pair<char const * const,IConsole_Command *> >,stlp_std::priv::_MapTraitsT<stlp_std::pair<char const * const,IConsole_Command *> >,xalloc<stlp_std::pair<char const *,IConsole_Command *> > >::_M_leftmost
	mov	esi, DWORD PTR [eax]

; 805  : 	ite = Commands.end();
; 806  : 	for ( ; itb != ite; ++itb )

	cmp	esi, edi
	setne	al
	test	al, al
	mov	DWORD PTR _itb$[ebp], esi
	je	$LN4@add_intern
	jmp	SHORT $LN173@add_intern
$LL313@add_intern:
	mov	esi, DWORD PTR _itb$[ebp]
$LN173@add_intern:

; 807  : 	{
; 808  : 		LPCSTR name = itb->first;
; 809  : 		LPCSTR fd_str = strstr( name, in_str );

	mov	eax, DWORD PTR _in_str$[ebp]
	mov	ebx, DWORD PTR [esi+16]
	push	eax
	push	ebx
	mov	DWORD PTR _name$132933[ebp], ebx
	call	DWORD PTR __imp__strstr
	add	esp, 8

; 810  : 		if ( fd_str )

	test	eax, eax
	mov	DWORD PTR _fd_str$132934[ebp], eax
	je	$LN277@add_intern

; 811  : 		{
; 812  : 			shared_str temp;
; 813  : 			temp._set( name );

	mov	ecx, DWORD PTR __imp_?g_pStringContainer@@3PAVstr_container@@A
	mov	ecx, DWORD PTR [ecx]
	push	ebx
	call	DWORD PTR __imp_?dock@str_container@@QAEPAUstr_value@@PBD@Z
	mov	ebx, eax
	test	ebx, ebx
	je	SHORT $LN201@add_intern
	add	DWORD PTR [ebx], 1
$LN201@add_intern:

; 814  : 			bool dup = ( std::find( out_v.begin(), out_v.end(), temp ) != out_v.end() );

	mov	edi, DWORD PTR _out_v$[ebp]
	mov	ecx, edi
	mov	DWORD PTR _temp$132936[ebp], ebx
	call	?end@?$_Impl_vector@UTipString@@V?$xalloc@UTipString@@@@@priv@stlp_std@@QAEPAUTipString@@XZ ; stlp_std::priv::_Impl_vector<TipString,xalloc<TipString> >::end
	mov	ecx, edi
	mov	esi, eax
	call	?begin@?$_Impl_vector@UTipString@@V?$xalloc@UTipString@@@@@priv@stlp_std@@QAEPAUTipString@@XZ ; stlp_std::priv::_Impl_vector<TipString,xalloc<TipString> >::begin
	lea	edi, DWORD PTR _temp$132936[ebp]
	mov	ecx, eax
	call	??$__find@PAUTipString@@Vshared_str@@@priv@stlp_std@@YAPAUTipString@@PAU2@0ABVshared_str@@ABUrandom_access_iterator_tag@1@@Z ; stlp_std::priv::__find<TipString *,shared_str>
	mov	edi, DWORD PTR _out_v$[ebp]
	mov	ecx, edi
	mov	esi, eax
	call	?end@?$_Impl_vector@UTipString@@V?$xalloc@UTipString@@@@@priv@stlp_std@@QAEPAUTipString@@XZ ; stlp_std::priv::_Impl_vector<TipString,xalloc<TipString> >::end
	cmp	esi, eax

; 815  : 			if ( !dup )

	jne	$LN2@add_intern

; 816  : 			{
; 817  : 				u32 name_sz = xr_strlen( name );

	mov	eax, DWORD PTR _name$132933[ebp]
	lea	edx, DWORD PTR [eax+1]
$LL303@add_intern:
	mov	cl, BYTE PTR [eax]
	add	eax, 1
	test	cl, cl
	jne	SHORT $LL303@add_intern
	sub	eax, edx
	mov	esi, eax

; 818  : 				int   fd_sz = name_sz - xr_strlen( fd_str );

	mov	eax, DWORD PTR _fd_str$132934[ebp]
	lea	edx, DWORD PTR [eax+1]
	npad	6
$LL304@add_intern:
	mov	cl, BYTE PTR [eax]
	add	eax, 1
	test	cl, cl
	jne	SHORT $LL304@add_intern
	sub	eax, edx
	sub	esi, eax

; 819  : 				out_v.push_back( TipString( temp, fd_sz, fd_sz + in_sz ) );

	test	ebx, ebx
	mov	DWORD PTR $T435173[ebp], 0
	je	SHORT $LN236@add_intern
	add	DWORD PTR [ebx], 1
	mov	eax, DWORD PTR $T435173[ebp]
	test	eax, eax
	je	SHORT $LN236@add_intern
	add	DWORD PTR [eax], -1
$LN236@add_intern:
	mov	edx, DWORD PTR _in_sz$[ebp]
	mov	eax, DWORD PTR [edi+4]
	mov	DWORD PTR $T435173[ebp+4], esi
	add	esi, edx
	cmp	eax, DWORD PTR [edi+8]
	mov	DWORD PTR $T435173[ebp], ebx
	mov	DWORD PTR $T435173[ebp+8], esi
	je	SHORT $LN245@add_intern
	test	eax, eax
	je	SHORT $LN250@add_intern
	lea	ecx, DWORD PTR $T435173[ebp]
	push	ecx
	mov	ecx, eax
	call	??0TipString@@QAE@ABU0@@Z
$LN250@add_intern:
	add	DWORD PTR [edi+4], 12			; 0000000cH
	jmp	SHORT $LN265@add_intern
$LN245@add_intern:
	lea	edx, DWORD PTR $T435173[ebp]
	push	edx
	push	edi
	call	?_M_insert_overflow_aux@?$_Impl_vector@UTipString@@V?$xalloc@UTipString@@@@@priv@stlp_std@@AAEXPAUTipString@@ABU4@ABU__false_type@3@I_N@Z ; stlp_std::priv::_Impl_vector<TipString,xalloc<TipString> >::_M_insert_overflow_aux
$LN265@add_intern:
	lea	ecx, DWORD PTR $T435173[ebp]
	call	??1TipString@@QAE@XZ

; 820  : 				res = true;

	mov	BYTE PTR _res$[ebp], 1
$LN2@add_intern:

; 821  : 			}
; 822  : 		}

	test	ebx, ebx
	mov	esi, DWORD PTR _itb$[ebp]
	mov	edi, DWORD PTR tv513[ebp]
	je	SHORT $LN277@add_intern
	add	DWORD PTR [ebx], -1
$LN277@add_intern:

; 823  : 		if ( out_v.size() >= MAX_TIPS_COUNT )

	mov	ecx, DWORD PTR _out_v$[ebp]
	call	?size@?$_Impl_vector@UTipString@@V?$xalloc@UTipString@@@@@priv@stlp_std@@QBEIXZ ; stlp_std::priv::_Impl_vector<TipString,xalloc<TipString> >::size
	cmp	eax, 220				; 000000dcH
	jae	SHORT $LN4@add_intern
	mov	ecx, DWORD PTR [esi+12]
	test	ecx, ecx
	mov	eax, esi
	je	SHORT $LN179@add_intern
	mov	eax, ecx
	mov	ecx, DWORD PTR [eax+8]
	test	ecx, ecx
	je	SHORT $LN175@add_intern

; 805  : 	ite = Commands.end();
; 806  : 	for ( ; itb != ite; ++itb )

$LL183@add_intern:
	mov	eax, ecx
	mov	ecx, DWORD PTR [eax+8]
	test	ecx, ecx
	jne	SHORT $LL183@add_intern
	jmp	SHORT $LN175@add_intern
$LN179@add_intern:
	mov	ecx, DWORD PTR [esi+4]
	cmp	esi, DWORD PTR [ecx+12]
	jne	SHORT $LN176@add_intern
$LL177@add_intern:
	mov	eax, ecx
	mov	ecx, DWORD PTR [ecx+4]
	cmp	eax, DWORD PTR [ecx+12]
	je	SHORT $LL177@add_intern
$LN176@add_intern:
	cmp	DWORD PTR [eax+12], ecx
	je	SHORT $LN175@add_intern
	mov	eax, ecx
$LN175@add_intern:
	cmp	eax, edi
	mov	DWORD PTR _itb$[ebp], eax
	setne	al
	test	al, al
	jne	$LL313@add_intern
$LN4@add_intern:

; 824  : 		{
; 825  : 			return res;
; 826  : 		}
; 827  : 	} // for
; 828  : 
; 829  : 	return res;

	mov	al, BYTE PTR _res$[ebp]

; 830  : }

	lea	esp, DWORD PTR [ebp-52]
	pop	edi
	pop	esi
	pop	ebx
	mov	esp, ebp
	pop	ebp
	ret	8
?add_internal_cmds@CConsole@@IAE_NPBDAAV?$xr_vector@UTipString@@V?$xalloc@UTipString@@@@@@@Z ENDP ; CConsole::add_internal_cmds
_TEXT	ENDS
PUBLIC	?add_next_cmds@CConsole@@IAE_NPBDAAV?$xr_vector@UTipString@@V?$xalloc@UTipString@@@@@@@Z ; CConsole::add_next_cmds
; Function compile flags: /Ogtpy
;	COMDAT ?add_next_cmds@CConsole@@IAE_NPBDAAV?$xr_vector@UTipString@@V?$xalloc@UTipString@@@@@@@Z
_TEXT	SEGMENT
_STRCONCAT_tupples_unique_identifier$132891 = -76	; size = 52
_STRCONCAT_tupples_unique_identifier$132863 = -76	; size = 52
_ts$132885 = -24					; size = 12
_this$ = -12						; size = 4
_i$132872 = -8						; size = 4
_cur_count$ = -8					; size = 4
_temp$ = -4						; size = 4
_in_str$ = 8						; size = 4
_res$ = 11						; size = 1
_out_v$ = 12						; size = 4
?add_next_cmds@CConsole@@IAE_NPBDAAV?$xr_vector@UTipString@@V?$xalloc@UTipString@@@@@@@Z PROC ; CConsole::add_next_cmds, COMDAT
; _this$ = ecx

; 717  : {

	push	ebp
	mov	ebp, esp
	sub	esp, 76					; 0000004cH
	push	ebx
	push	esi
	push	edi

; 718  : 	u32 cur_count = out_v.size();

	mov	edi, DWORD PTR _out_v$[ebp]
	mov	ebx, ecx
	mov	ecx, edi
	mov	DWORD PTR _this$[ebp], ebx
	call	?size@?$_Impl_vector@UTipString@@V?$xalloc@UTipString@@@@@priv@stlp_std@@QBEIXZ ; stlp_std::priv::_Impl_vector<TipString,xalloc<TipString> >::size

; 719  : 	if ( cur_count >= MAX_TIPS_COUNT )

	cmp	eax, 220				; 000000dcH
	mov	DWORD PTR _cur_count$[ebp], eax

; 720  : 	{
; 721  : 		return false;

	jae	$LN74@add_next_c

; 722  : 	}
; 723  : 
; 724  : 	LPSTR t2;
; 725  : 	STRCONCAT( t2, in_str, " " );

	lea	eax, DWORD PTR _STRCONCAT_tupples_unique_identifier$132863[ebp]
	mov	ecx, 5
	npad	2
$LL27@add_next_c:
	mov	DWORD PTR [eax], 0
	mov	DWORD PTR [eax+4], 0
	add	eax, 8
	sub	ecx, 1
	jns	SHORT $LL27@add_next_c
	mov	ecx, DWORD PTR _in_str$[ebp]
	test	ecx, ecx
	mov	DWORD PTR _STRCONCAT_tupples_unique_identifier$132863[ebp+48], 2
	je	SHORT $LN41@add_next_c
	mov	eax, ecx
	lea	esi, DWORD PTR [eax+1]
$LL227@add_next_c:
	mov	dl, BYTE PTR [eax]
	add	eax, 1
	test	dl, dl
	jne	SHORT $LL227@add_next_c
	sub	eax, esi
	jmp	SHORT $LN42@add_next_c
$LN41@add_next_c:
	xor	eax, eax
$LN42@add_next_c:
	mov	DWORD PTR _STRCONCAT_tupples_unique_identifier$132863[ebp], ecx
	mov	ecx, 1
	mov	DWORD PTR _STRCONCAT_tupples_unique_identifier$132863[ebp+4], eax
	mov	eax, OFFSET ??_C@_01CLKCMJKC@?5?$AA@
	mov	DWORD PTR _STRCONCAT_tupples_unique_identifier$132863[ebp+12], ecx
	lea	ecx, DWORD PTR _STRCONCAT_tupples_unique_identifier$132863[ebp]
	mov	DWORD PTR _STRCONCAT_tupples_unique_identifier$132863[ebp+8], eax
	call	DWORD PTR __imp_?size@string_tupples@detail@core@xray@@QBEIXZ
	mov	esi, eax
	push	esi
	call	DWORD PTR __imp_?check_stack_overflow@detail@core@xray@@YAXI@Z
	add	esp, 4
	mov	eax, esi
	call	__alloca_probe_16
	mov	esi, esp
	push	esi
	lea	ecx, DWORD PTR _STRCONCAT_tupples_unique_identifier$132863[ebp]
	call	DWORD PTR __imp_?concat@string_tupples@detail@core@xray@@QBEXQBD@Z

; 726  : 
; 727  : 	shared_str temp;
; 728  : 	IConsole_Command* cc = find_next_cmd( t2, temp );

	lea	eax, DWORD PTR _temp$[ebp]
	push	eax
	push	esi
	mov	ecx, ebx
	mov	DWORD PTR _temp$[ebp], 0
	call	?find_next_cmd@CConsole@@IAEPAVIConsole_Command@@PBDAAVshared_str@@@Z ; CConsole::find_next_cmd

; 729  : 	if ( !cc || temp.size() == 0 )

	test	eax, eax
	mov	esi, DWORD PTR _temp$[ebp]
	je	$LN10@add_next_c
	test	esi, esi
	je	$LN74@add_next_c
	cmp	DWORD PTR [esi+4], 0
	je	$LN10@add_next_c

; 732  : 	}
; 733  : 
; 734  : 	bool res = false;
; 735  : 	for ( u32 i = cur_count; i < MAX_TIPS_COUNT*2; ++i ) //fake=protect

	mov	ecx, DWORD PTR _cur_count$[ebp]
	cmp	ecx, 440				; 000001b8H
	mov	BYTE PTR _res$[ebp], 0
	mov	DWORD PTR _i$132872[ebp], ecx
	jae	$LN222@add_next_c
	jmp	SHORT $LN9@add_next_c
	npad	3
$LL229@add_next_c:
	mov	edi, DWORD PTR _out_v$[ebp]
	mov	esi, DWORD PTR _temp$[ebp]
$LN9@add_next_c:

; 736  : 	{
; 737  : 		temp._set( cc->Name() );

	mov	eax, DWORD PTR [eax+4]
	mov	ecx, DWORD PTR __imp_?g_pStringContainer@@3PAVstr_container@@A
	mov	ecx, DWORD PTR [ecx]
	push	eax
	call	DWORD PTR __imp_?dock@str_container@@QAEPAUstr_value@@PBD@Z
	mov	ebx, eax
	test	ebx, ebx
	je	SHORT $LN80@add_next_c
	add	DWORD PTR [ebx], 1
$LN80@add_next_c:
	test	esi, esi
	je	SHORT $LN83@add_next_c
	add	DWORD PTR [esi], -1
$LN83@add_next_c:

; 738  : 		bool dup = ( std::find( out_v.begin(), out_v.end(), temp ) != out_v.end() );

	mov	ecx, edi
	mov	DWORD PTR _temp$[ebp], ebx
	call	?end@?$_Impl_vector@UTipString@@V?$xalloc@UTipString@@@@@priv@stlp_std@@QAEPAUTipString@@XZ ; stlp_std::priv::_Impl_vector<TipString,xalloc<TipString> >::end
	mov	ecx, edi
	mov	esi, eax
	call	?begin@?$_Impl_vector@UTipString@@V?$xalloc@UTipString@@@@@priv@stlp_std@@QAEPAUTipString@@XZ ; stlp_std::priv::_Impl_vector<TipString,xalloc<TipString> >::begin
	lea	edi, DWORD PTR _temp$[ebp]
	mov	ecx, eax
	call	??$__find@PAUTipString@@Vshared_str@@@priv@stlp_std@@YAPAUTipString@@PAU2@0ABVshared_str@@ABUrandom_access_iterator_tag@1@@Z ; stlp_std::priv::__find<TipString *,shared_str>
	mov	esi, DWORD PTR _out_v$[ebp]
	mov	ecx, esi
	mov	edi, eax
	call	?end@?$_Impl_vector@UTipString@@V?$xalloc@UTipString@@@@@priv@stlp_std@@QAEPAUTipString@@XZ ; stlp_std::priv::_Impl_vector<TipString,xalloc<TipString> >::end
	cmp	edi, eax

; 739  : 		if ( !dup )

	jne	SHORT $LN6@add_next_c

; 740  : 		{
; 741  : 			TipString ts( temp );

	xor	ecx, ecx
	cmp	ebx, ecx
	mov	DWORD PTR _ts$132885[ebp], ecx
	je	SHORT $LN114@add_next_c
	add	DWORD PTR [ebx], 1
	mov	eax, DWORD PTR _ts$132885[ebp]
	cmp	eax, ecx
	je	SHORT $LN114@add_next_c
	add	DWORD PTR [eax], -1
$LN114@add_next_c:

; 742  : 			out_v.push_back( ts );

	mov	eax, DWORD PTR [esi+4]
	cmp	eax, DWORD PTR [esi+8]
	mov	DWORD PTR _ts$132885[ebp], ebx
	mov	DWORD PTR _ts$132885[ebp+4], ecx
	mov	DWORD PTR _ts$132885[ebp+8], ecx
	je	SHORT $LN123@add_next_c
	cmp	eax, ecx
	je	SHORT $LN128@add_next_c
	lea	edx, DWORD PTR _ts$132885[ebp]
	push	edx
	mov	ecx, eax
	call	??0TipString@@QAE@ABU0@@Z
$LN128@add_next_c:
	add	DWORD PTR [esi+4], 12			; 0000000cH
	jmp	SHORT $LN143@add_next_c
$LN123@add_next_c:
	lea	ecx, DWORD PTR _ts$132885[ebp]
	push	ecx
	push	esi
	call	?_M_insert_overflow_aux@?$_Impl_vector@UTipString@@V?$xalloc@UTipString@@@@@priv@stlp_std@@AAEXPAUTipString@@ABU4@ABU__false_type@3@I_N@Z ; stlp_std::priv::_Impl_vector<TipString,xalloc<TipString> >::_M_insert_overflow_aux
$LN143@add_next_c:

; 743  : 			res = true;
; 744  : 		}

	lea	ecx, DWORD PTR _ts$132885[ebp]
	mov	BYTE PTR _res$[ebp], 1
	call	??1TipString@@QAE@XZ
$LN6@add_next_c:

; 745  : 		if ( out_v.size() >= MAX_TIPS_COUNT )

	mov	ecx, esi
	call	?size@?$_Impl_vector@UTipString@@V?$xalloc@UTipString@@@@@priv@stlp_std@@QBEIXZ ; stlp_std::priv::_Impl_vector<TipString,xalloc<TipString> >::size
	cmp	eax, 220				; 000000dcH
	jae	$LN235@add_next_c

; 746  : 		{
; 747  : 			break; // for
; 748  : 		}
; 749  : 		LPSTR t3;
; 750  : 		STRCONCAT( t3, out_v.back().text.c_str(), " " );

	mov	ecx, esi
	call	?end@?$_Impl_vector@UTipString@@V?$xalloc@UTipString@@@@@priv@stlp_std@@QAEPAUTipString@@XZ ; stlp_std::priv::_Impl_vector<TipString,xalloc<TipString> >::end
	sub	eax, 12					; 0000000cH
	mov	eax, DWORD PTR [eax]
	xor	edi, edi
	cmp	eax, edi
	je	SHORT $LN169@add_next_c
	lea	edx, DWORD PTR [eax+16]
	jmp	SHORT $LN170@add_next_c
$LN169@add_next_c:
	xor	edx, edx
$LN170@add_next_c:
	lea	eax, DWORD PTR _STRCONCAT_tupples_unique_identifier$132891[ebp]
	mov	ecx, 5
	npad	6
$LL174@add_next_c:
	mov	DWORD PTR [eax], edi
	mov	DWORD PTR [eax+4], edi
	add	eax, 8
	sub	ecx, 1
	jns	SHORT $LL174@add_next_c
	cmp	edx, edi
	mov	DWORD PTR _STRCONCAT_tupples_unique_identifier$132891[ebp+48], 2
	je	SHORT $LN188@add_next_c
	mov	eax, edx
	lea	esi, DWORD PTR [eax+1]
	npad	3
$LL228@add_next_c:
	mov	cl, BYTE PTR [eax]
	add	eax, 1
	test	cl, cl
	jne	SHORT $LL228@add_next_c
	sub	eax, esi
	jmp	SHORT $LN189@add_next_c
$LN188@add_next_c:
	xor	eax, eax
$LN189@add_next_c:
	mov	ecx, 1
	mov	DWORD PTR _STRCONCAT_tupples_unique_identifier$132891[ebp+4], eax
	mov	eax, OFFSET ??_C@_01CLKCMJKC@?5?$AA@
	mov	DWORD PTR _STRCONCAT_tupples_unique_identifier$132891[ebp+12], ecx
	lea	ecx, DWORD PTR _STRCONCAT_tupples_unique_identifier$132891[ebp]
	mov	DWORD PTR _STRCONCAT_tupples_unique_identifier$132891[ebp], edx
	mov	DWORD PTR _STRCONCAT_tupples_unique_identifier$132891[ebp+8], eax
	call	DWORD PTR __imp_?size@string_tupples@detail@core@xray@@QBEIXZ
	mov	esi, eax
	push	esi
	call	DWORD PTR __imp_?check_stack_overflow@detail@core@xray@@YAXI@Z
	add	esp, 4
	mov	eax, esi
	call	__alloca_probe_16
	mov	esi, esp
	push	esi
	lea	ecx, DWORD PTR _STRCONCAT_tupples_unique_identifier$132891[ebp]
	call	DWORD PTR __imp_?concat@string_tupples@detail@core@xray@@QBEXQBD@Z

; 751  : 		cc = find_next_cmd( t3, temp );

	mov	ecx, DWORD PTR _this$[ebp]
	lea	edx, DWORD PTR _temp$[ebp]
	push	edx
	push	esi
	call	?find_next_cmd@CConsole@@IAEPAVIConsole_Command@@PBDAAVshared_str@@@Z ; CConsole::find_next_cmd

; 752  : 		if ( !cc )

	cmp	eax, edi
	je	SHORT $LN235@add_next_c
	mov	ecx, DWORD PTR _i$132872[ebp]
	add	ecx, 1
	cmp	ecx, 440				; 000001b8H
	mov	DWORD PTR _i$132872[ebp], ecx
	jb	$LL229@add_next_c
$LN235@add_next_c:

; 732  : 	}
; 733  : 
; 734  : 	bool res = false;
; 735  : 	for ( u32 i = cur_count; i < MAX_TIPS_COUNT*2; ++i ) //fake=protect

	mov	esi, DWORD PTR _temp$[ebp]
$LN222@add_next_c:

; 753  : 		{
; 754  : 			break; // for
; 755  : 		}
; 756  : 	} // for
; 757  : 	return res;

	test	esi, esi
	je	SHORT $LN215@add_next_c
	add	DWORD PTR [esi], -1
$LN215@add_next_c:
	mov	al, BYTE PTR _res$[ebp]

; 758  : }

	lea	esp, DWORD PTR [ebp-88]
	pop	edi
	pop	esi
	pop	ebx
	mov	esp, ebp
	pop	ebp
	ret	8
$LN10@add_next_c:

; 730  : 	{
; 731  : 		return false;

	test	esi, esi
	je	SHORT $LN74@add_next_c
	add	DWORD PTR [esi], -1
$LN74@add_next_c:
	xor	al, al

; 758  : }

	lea	esp, DWORD PTR [ebp-88]
	pop	edi
	pop	esi
	pop	ebx
	mov	esp, ebp
	pop	ebp
	ret	8
?add_next_cmds@CConsole@@IAE_NPBDAAV?$xr_vector@UTipString@@V?$xalloc@UTipString@@@@@@@Z ENDP ; CConsole::add_next_cmds
; Function compile flags: /Ogtpy
; File d:\clearsky\sources\sdk\include\stlport\stl\_uninitialized.h
;	COMDAT ??$__ucopy_aux@PAUTipString@@PAU1@@priv@stlp_std@@YAPAUTipString@@PAU2@00ABU__true_type@1@@Z
_TEXT	SEGMENT
??$__ucopy_aux@PAUTipString@@PAU1@@priv@stlp_std@@YAPAUTipString@@PAU2@00ABU__true_type@1@@Z PROC ; stlp_std::priv::__ucopy_aux<TipString *,TipString *>, COMDAT
; ___first$ = edx
; ___last$ = ecx
; ___result$ = eax

; 125  :                                const __true_type& /*BothPtrType*/) {

	push	ebx
	push	esi
	push	edi

; 126  :   return __ucopy_ptrs(__first, __last, __result,
; 127  :                       _UseTrivialUCopy(_STLP_VALUE_TYPE(__first, _InputIter),
; 128  :                                        _STLP_VALUE_TYPE(__result, _OutputIter))._Answer());

	push	0
	push	0
	mov	edi, eax
	mov	esi, ecx
	mov	ebx, edx
	call	??$_UseTrivialUCopy@UTipString@@U1@@stlp_std@@YA?AU?$_TrivialUCopy@UTipString@@U1@@0@PAUTipString@@0@Z ; stlp_std::_UseTrivialUCopy<TipString,TipString>
	add	esp, 8
	call	?_Answer@?$_TrivialUCopy@UTipString@@U1@@stlp_std@@SA?AU__false_type@2@XZ ; stlp_std::_TrivialUCopy<TipString,TipString>::_Answer
	sub	esi, ebx
	mov	eax, 715827883				; 2aaaaaabH
	imul	esi
	sar	edx, 1
	mov	esi, edx
	shr	esi, 31					; 0000001fH
	add	esi, edx
	test	esi, esi
	jle	SHORT $LN33@ucopy_aux@22
	sub	ebx, edi
$LL11@ucopy_aux@22:
	lea	eax, DWORD PTR [ebx+edi]
	push	eax
	push	edi
	call	??$_Param_Construct@UTipString@@U1@@stlp_std@@YAXPAUTipString@@ABU1@@Z ; stlp_std::_Param_Construct<TipString,TipString>
	sub	esi, 1
	add	esp, 8
	add	edi, 12					; 0000000cH
	test	esi, esi
	jg	SHORT $LL11@ucopy_aux@22
$LN33@ucopy_aux@22:
	mov	eax, edi
	pop	edi
	pop	esi
	pop	ebx

; 129  : }

	ret	0
??$__ucopy_aux@PAUTipString@@PAU1@@priv@stlp_std@@YAPAUTipString@@PAU2@00ABU__true_type@1@@Z ENDP ; stlp_std::priv::__ucopy_aux<TipString *,TipString *>
; Function compile flags: /Ogtpy
_TEXT	ENDS
;	COMDAT ??$uninitialized_copy@PAUTipString@@PAU1@@stlp_std@@YAPAUTipString@@PAU1@00@Z
_TEXT	SEGMENT
??$uninitialized_copy@PAUTipString@@PAU1@@stlp_std@@YAPAUTipString@@PAU1@00@Z PROC ; stlp_std::uninitialized_copy<TipString *,TipString *>, COMDAT
; ___first$ = edx
; ___last$ = ecx
; ___result$ = eax

; 144  : { return _STLP_PRIV __ucopy_aux(__first, __last, __result, _BothPtrType< _InputIter, _ForwardIter>::_Answer()); }

	jmp	??$__ucopy_aux@PAUTipString@@PAU1@@priv@stlp_std@@YAPAUTipString@@PAU2@00ABU__true_type@1@@Z ; stlp_std::priv::__ucopy_aux<TipString *,TipString *>
??$uninitialized_copy@PAUTipString@@PAU1@@stlp_std@@YAPAUTipString@@PAU1@00@Z ENDP ; stlp_std::uninitialized_copy<TipString *,TipString *>
; Function compile flags: /Ogtpy
; File d:\clearsky\sources\sdk\include\stlport\stl\_vector.h
_TEXT	ENDS
;	COMDAT ??$_M_allocate_and_copy@PAUTipString@@@?$_Impl_vector@UTipString@@V?$xalloc@UTipString@@@@@priv@stlp_std@@AAEPAUTipString@@AAIPAU3@1@Z
_TEXT	SEGMENT
___first$ = 8						; size = 4
___last$ = 12						; size = 4
??$_M_allocate_and_copy@PAUTipString@@@?$_Impl_vector@UTipString@@V?$xalloc@UTipString@@@@@priv@stlp_std@@AAEPAUTipString@@AAIPAU3@1@Z PROC ; stlp_std::priv::_Impl_vector<TipString,xalloc<TipString> >::_M_allocate_and_copy<TipString *>, COMDAT
; _this$ = ecx
; ___n$ = eax

; 633  :   pointer _M_allocate_and_copy(size_type& __n,

	push	esi

; 634  :                                _ForwardIterator __first, _ForwardIterator __last)
; 635  : #else /* _STLP_MEMBER_TEMPLATES */
; 636  :   pointer _M_allocate_and_copy(size_type& __n,
; 637  :                                const_pointer __first, const_pointer __last)
; 638  : #endif /* _STLP_MEMBER_TEMPLATES */
; 639  :   {
; 640  :     pointer __result = this->_M_end_of_storage.allocate(__n, __n);

	push	eax
	mov	eax, DWORD PTR [eax]
	push	eax
	add	ecx, 8
	call	?allocate@?$_STLP_alloc_proxy@PAUTipString@@U1@V?$xalloc@UTipString@@@@@priv@stlp_std@@QAEPAUTipString@@IAAI@Z ; stlp_std::priv::_STLP_alloc_proxy<TipString *,TipString,xalloc<TipString> >::allocate

; 641  :     _STLP_TRY {
; 642  :       uninitialized_copy(__first, __last, __result);

	mov	ecx, DWORD PTR ___last$[esp]
	mov	edx, DWORD PTR ___first$[esp]
	mov	esi, eax
	call	??$__ucopy_aux@PAUTipString@@PAU1@@priv@stlp_std@@YAPAUTipString@@PAU2@00ABU__true_type@1@@Z ; stlp_std::priv::__ucopy_aux<TipString *,TipString *>

; 643  :       return __result;

	mov	eax, esi
	pop	esi

; 644  :     }
; 645  :     _STLP_UNWIND(this->_M_end_of_storage.deallocate(__result, __n))
; 646  :     _STLP_RET_AFTER_THROW(__result)
; 647  :   }

	ret	8
??$_M_allocate_and_copy@PAUTipString@@@?$_Impl_vector@UTipString@@V?$xalloc@UTipString@@@@@priv@stlp_std@@AAEPAUTipString@@AAIPAU3@1@Z ENDP ; stlp_std::priv::_Impl_vector<TipString,xalloc<TipString> >::_M_allocate_and_copy<TipString *>
; Function compile flags: /Ogtpy
; File d:\clearsky\sources\sdk\include\stlport\stl\_vector.c
_TEXT	ENDS
;	COMDAT ?reserve@?$_Impl_vector@UTipString@@V?$xalloc@UTipString@@@@@priv@stlp_std@@QAEXI@Z
_TEXT	SEGMENT
___n$ = -12						; size = 4
tv197 = -8						; size = 4
___old_size$137917 = -4					; size = 4
?reserve@?$_Impl_vector@UTipString@@V?$xalloc@UTipString@@@@@priv@stlp_std@@QAEXI@Z PROC ; stlp_std::priv::_Impl_vector<TipString,xalloc<TipString> >::reserve, COMDAT
; _this$ = esi

; 64   : void vector<_Tp, _Alloc>::reserve(size_type __n) {

	sub	esp, 12					; 0000000cH

; 65   :   if (capacity() < __n) {

	mov	ecx, esi
	mov	DWORD PTR ___n$[esp+12], 221		; 000000ddH
	call	?capacity@?$_Impl_vector@UTipString@@V?$xalloc@UTipString@@@@@priv@stlp_std@@QBEIXZ ; stlp_std::priv::_Impl_vector<TipString,xalloc<TipString> >::capacity
	mov	ecx, DWORD PTR ___n$[esp+12]
	cmp	eax, ecx
	jae	$LN50@reserve@4

; 66   :     if (max_size() < __n) {

	cmp	ecx, 357913941				; 15555555H
	jbe	SHORT $LN3@reserve@4

; 67   :       this->_M_throw_length_error();

	push	OFFSET ??_C@_06NBFPPGEG@vector?$AA@
	call	DWORD PTR __imp__puts
	add	esp, 4
	call	DWORD PTR __imp__abort
$LN53@reserve@4:
$LN3@reserve@4:
	push	ebx
	push	ebp
	push	edi

; 68   :     }
; 69   : 
; 70   :     const size_type __old_size = size();

	mov	ecx, esi
	call	?size@?$_Impl_vector@UTipString@@V?$xalloc@UTipString@@@@@priv@stlp_std@@QBEIXZ ; stlp_std::priv::_Impl_vector<TipString,xalloc<TipString> >::size
	mov	ebp, eax

; 71   :     pointer __tmp;
; 72   :     if (this->_M_start) {

	mov	eax, DWORD PTR [esi]
	test	eax, eax
	mov	DWORD PTR ___old_size$137917[esp+24], ebp
	mov	DWORD PTR tv197[esp+24], eax

; 73   :       __tmp = _M_allocate_and_copy(__n, this->_M_start, this->_M_finish);

	lea	ebx, DWORD PTR [esi+8]
	je	SHORT $LN2@reserve@4
	mov	ecx, DWORD PTR ___n$[esp+24]
	mov	ebp, DWORD PTR [esi+4]
	lea	eax, DWORD PTR ___n$[esp+24]
	push	eax
	push	ecx
	mov	ecx, ebx
	call	?allocate@?$_STLP_alloc_proxy@PAUTipString@@U1@V?$xalloc@UTipString@@@@@priv@stlp_std@@QAEPAUTipString@@IAAI@Z ; stlp_std::priv::_STLP_alloc_proxy<TipString *,TipString,xalloc<TipString> >::allocate
	mov	edx, DWORD PTR tv197[esp+24]
	mov	ecx, ebp
	mov	edi, eax
	call	??$__ucopy_aux@PAUTipString@@PAU1@@priv@stlp_std@@YAPAUTipString@@PAU2@00ABU__true_type@1@@Z ; stlp_std::priv::__ucopy_aux<TipString *,TipString *>

; 74   :       _M_clear();

	mov	ecx, esi
	call	?_M_clear@?$_Impl_vector@UTipString@@V?$xalloc@UTipString@@@@@priv@stlp_std@@AAEXXZ ; stlp_std::priv::_Impl_vector<TipString,xalloc<TipString> >::_M_clear

; 75   :     } else {

	mov	ebp, DWORD PTR ___old_size$137917[esp+24]
	jmp	SHORT $LN1@reserve@4
$LN2@reserve@4:

; 76   :       __tmp = this->_M_end_of_storage.allocate(__n, __n);

	mov	eax, DWORD PTR ___n$[esp+24]
	lea	edx, DWORD PTR ___n$[esp+24]
	push	edx
	push	eax
	mov	ecx, ebx
	call	?allocate@?$_STLP_alloc_proxy@PAUTipString@@U1@V?$xalloc@UTipString@@@@@priv@stlp_std@@QAEPAUTipString@@IAAI@Z ; stlp_std::priv::_STLP_alloc_proxy<TipString *,TipString,xalloc<TipString> >::allocate
	mov	edi, eax
$LN1@reserve@4:

; 77   :     }
; 78   :     _M_set(__tmp, __tmp + __old_size, __tmp + __n);

	mov	eax, DWORD PTR ___n$[esp+24]
	lea	ecx, DWORD PTR [ebp+ebp*2]
	lea	edx, DWORD PTR [edi+ecx*4]
	lea	eax, DWORD PTR [eax+eax*2]
	lea	ecx, DWORD PTR [edi+eax*4]
	mov	DWORD PTR [esi], edi
	pop	edi
	pop	ebp
	mov	DWORD PTR [ebx], ecx
	mov	DWORD PTR [esi+4], edx
	pop	ebx
$LN50@reserve@4:

; 79   :   }
; 80   : }

	add	esp, 12					; 0000000cH
	ret	0
$LN52@reserve@4:
?reserve@?$_Impl_vector@UTipString@@V?$xalloc@UTipString@@@@@priv@stlp_std@@QAEXI@Z ENDP ; stlp_std::priv::_Impl_vector<TipString,xalloc<TipString> >::reserve
; Function compile flags: /Ogtpy
; File d:\clearsky\sources\sdk\include\stlport\stl\pointers\_vector.h
_TEXT	ENDS
;	COMDAT ?reserve@?$vector@UTipString@@V?$xalloc@UTipString@@@@@stlp_std@@QAEXI@Z
_TEXT	SEGMENT
?reserve@?$vector@UTipString@@V?$xalloc@UTipString@@@@@stlp_std@@QAEXI@Z PROC ; stlp_std::vector<TipString,xalloc<TipString> >::reserve, COMDAT
; _this$ = esi

; 151  :   void reserve(size_type __n) {_M_impl.reserve(__n);}

	jmp	?reserve@?$_Impl_vector@UTipString@@V?$xalloc@UTipString@@@@@priv@stlp_std@@QAEXI@Z ; stlp_std::priv::_Impl_vector<TipString,xalloc<TipString> >::reserve
?reserve@?$vector@UTipString@@V?$xalloc@UTipString@@@@@stlp_std@@QAEXI@Z ENDP ; stlp_std::vector<TipString,xalloc<TipString> >::reserve
_TEXT	ENDS
PUBLIC	?update_tips@CConsole@@IAEXXZ			; CConsole::update_tips
; Function compile flags: /Ogtpy
; File d:\clearsky\sources\engine\xrengine\xr_ioconsole.cpp
;	COMDAT ?update_tips@CConsole@@IAEXXZ
_TEXT	SEGMENT
$T488336 = -28						; size = 12
$T488337 = -16						; size = 4
_first$ = -16						; size = 4
_cur_length$ = -12					; size = 4
_last$ = -8						; size = 4
_cur$ = -4						; size = 4
?update_tips@CConsole@@IAEXXZ PROC			; CConsole::update_tips, COMDAT
; _this$ = ecx

; 833  : {

	push	ebp
	mov	ebp, esp
	sub	esp, 28					; 0000001cH
	push	ebx
	push	esi
	mov	ebx, ecx
	push	edi

; 834  : 	m_temp_tips.clear_not_free();

	lea	ecx, DWORD PTR [ebx+64]
	call	?clear_not_free@?$xr_vector@Vshared_str@@V?$xalloc@Vshared_str@@@@@@QAEXXZ ; xr_vector<shared_str,xalloc<shared_str> >::clear_not_free

; 835  : 	m_tips.clear_not_free();

	lea	esi, DWORD PTR [ebx+76]
	mov	ecx, esi
	call	?end@?$_Impl_vector@UTipString@@V?$xalloc@UTipString@@@@@priv@stlp_std@@QAEPAUTipString@@XZ ; stlp_std::priv::_Impl_vector<TipString,xalloc<TipString> >::end
	mov	ecx, esi
	mov	edi, eax
	call	?begin@?$_Impl_vector@UTipString@@V?$xalloc@UTipString@@@@@priv@stlp_std@@QAEPAUTipString@@XZ ; stlp_std::priv::_Impl_vector<TipString,xalloc<TipString> >::begin
	cmp	eax, edi
	je	SHORT $LN61@update_tip
	push	eax
	push	esi
	mov	eax, edi
	call	?_M_erase@?$_Impl_vector@UTipString@@V?$xalloc@UTipString@@@@@priv@stlp_std@@AAEPAUTipString@@PAU4@0ABU__false_type@3@@Z ; stlp_std::priv::_Impl_vector<TipString,xalloc<TipString> >::_M_erase
$LN61@update_tip:

; 836  : 
; 837  : 	m_cur_cmd  = NULL;

	mov	eax, DWORD PTR __imp_?g_pStringContainer@@3PAVstr_container@@A
	mov	ecx, DWORD PTR [eax]
	xor	esi, esi
	push	esi
	call	DWORD PTR __imp_?dock@str_container@@QAEPAUstr_value@@PBD@Z
	cmp	eax, esi
	je	SHORT $LN67@update_tip
	add	DWORD PTR [eax], 1
$LN67@update_tip:
	mov	ecx, DWORD PTR [ebx+92]
	cmp	ecx, esi
	je	SHORT $LN70@update_tip
	add	DWORD PTR [ecx], -1
	mov	ecx, DWORD PTR [ebx+92]
	cmp	DWORD PTR [ecx], esi
	jne	SHORT $LN70@update_tip
	mov	DWORD PTR [ebx+92], esi
$LN70@update_tip:
	mov	DWORD PTR [ebx+92], eax

; 838  : 	if ( !bVisible )

	cmp	BYTE PTR [ebx+172], 0
	je	$LN150@update_tip

; 839  : 	{
; 840  : 		return;
; 841  : 	}
; 842  : 
; 843  : 	LPCSTR cur = ec().str_edit();

	mov	edx, DWORD PTR [ebx+200]
	mov	eax, DWORD PTR [edx+1028]
	mov	DWORD PTR _cur$[ebp], eax

; 844  : 	u32    cur_length = xr_strlen( cur );

	lea	edx, DWORD PTR [eax+1]
$LL152@update_tip:
	mov	cl, BYTE PTR [eax]
	add	eax, 1
	test	cl, cl
	jne	SHORT $LL152@update_tip
	sub	eax, edx
	mov	DWORD PTR _cur_length$[ebp], eax

; 845  : 
; 846  : 	if ( cur_length == 0 )

	jne	SHORT $LN11@update_tip

; 847  : 	{
; 848  : 		m_prev_length_str = 0;

	mov	DWORD PTR [ebx+104], esi

; 918  : 	}
; 919  : 
; 920  : }

	lea	esp, DWORD PTR [ebp-40]
	pop	edi
	pop	esi
	pop	ebx
	mov	esp, ebp
	pop	ebp
	ret	0
$LN11@update_tip:

; 849  : 		return;
; 850  : 	}
; 851  : 	
; 852  : 	if ( m_prev_length_str != cur_length )

	cmp	DWORD PTR [ebx+104], eax
	je	SHORT $LN82@update_tip

; 853  : 	{
; 854  : 		reset_selected_tip();

	mov	DWORD PTR [ebx+96], -1
	mov	DWORD PTR [ebx+100], esi
	mov	BYTE PTR [ebx+36], 0
$LN82@update_tip:

; 855  : 	}
; 856  : 	m_prev_length_str = cur_length;
; 857  : 
; 858  : 	PSTR first = (PSTR)_alloca( (cur_length + 1) * sizeof(char) );

	lea	edi, DWORD PTR [eax+1]
	mov	DWORD PTR [ebx+104], eax
	mov	eax, edi
	call	__alloca_probe_16
	mov	esi, esp

; 859  : 	PSTR last  = (PSTR)_alloca( (cur_length + 1) * sizeof(char) );

	mov	eax, edi
	mov	DWORD PTR _first$[ebp], esi
	call	__alloca_probe_16

; 860  : 	text_editor::split_cmd( first, last, cur );

	mov	ecx, DWORD PTR _cur$[ebp]
	mov	eax, esp
	push	ecx
	push	eax
	push	esi
	mov	DWORD PTR _last$[ebp], eax
	call	?split_cmd@text_editor@@YAXPAD0PBD@Z	; text_editor::split_cmd

; 861  : 	
; 862  : 	u32 first_lenght = xr_strlen(first);

	mov	eax, esi
	add	esp, 12					; 0000000cH
	lea	edx, DWORD PTR [eax+1]
$LL153@update_tip:
	mov	cl, BYTE PTR [eax]
	add	eax, 1
	test	cl, cl
	jne	SHORT $LL153@update_tip
	sub	eax, edx
	mov	esi, eax

; 863  : 	
; 864  : 	if ( (first_lenght > 2) && (first_lenght + 1 <= cur_length) ) // param

	cmp	esi, 2
	jbe	$LN6@update_tip
	lea	edx, DWORD PTR [esi+1]
	cmp	edx, DWORD PTR _cur_length$[ebp]
	ja	$LN6@update_tip

; 865  : 	{
; 866  : 		if ( cur[first_lenght] == ' ' )

	mov	eax, DWORD PTR _cur$[ebp]
	cmp	BYTE PTR [esi+eax], 32			; 00000020H
	jne	$LN6@update_tip

; 867  : 		{
; 868  : 			if ( m_tips_mode != 2 )

	cmp	DWORD PTR [ebx+88], 2
	je	SHORT $LN86@update_tip

; 869  : 			{
; 870  : 				reset_selected_tip();

	mov	DWORD PTR [ebx+96], -1
	mov	DWORD PTR [ebx+100], 0
	mov	BYTE PTR [ebx+36], cl
$LN86@update_tip:

; 871  : 			}
; 872  : 
; 873  : 			vecCMD_IT it = Commands.find( first );

	lea	eax, DWORD PTR [ebx+176]
	push	eax
	lea	edi, DWORD PTR _first$[ebp]
	call	??$_M_find@PAD@?$_Rb_tree@PBDUstr_pred@CConsole@@U?$pair@QBDPAVIConsole_Command@@@stlp_std@@U?$_Select1st@U?$pair@QBDPAVIConsole_Command@@@stlp_std@@@priv@4@U?$_MapTraitsT@U?$pair@QBDPAVIConsole_Command@@@stlp_std@@@64@V?$xalloc@U?$pair@PBDPAVIConsole_Command@@@stlp_std@@@@@priv@stlp_std@@ABEPAU_Rb_tree_node_base@12@ABQAD@Z ; stlp_std::priv::_Rb_tree<char const *,CConsole::str_pred,stlp_std::pair<char const * const,IConsole_Command *>,stlp_std::priv::_Select1st<stlp_std::pair<char const * const,IConsole_Command *> >,stlp_std::priv::_MapTraitsT<stlp_std::pair<char const * const,IConsole_Command *> >,xalloc<stlp_std::pair<char const *,IConsole_Command *> > >::_M_find<char *>

; 874  : 			if ( it != Commands.end() )

	lea	ecx, DWORD PTR [ebx+176]
	cmp	eax, ecx
	je	$LN6@update_tip

; 875  : 			{
; 876  : 				IConsole_Command* cc = it->second;

	mov	ecx, DWORD PTR [eax+20]

; 877  : 				
; 878  : 				u32 mode = 0;
; 879  : 				if ( (first_lenght + 2 <= cur_length) && (cur[first_lenght] == ' ') && (cur[first_lenght+1] == ' ') )

	lea	edx, DWORD PTR [esi+2]
	xor	eax, eax
	cmp	edx, DWORD PTR _cur_length$[ebp]
	ja	SHORT $LN5@update_tip
	mov	edx, DWORD PTR _cur$[ebp]
	cmp	BYTE PTR [esi+edx], 32			; 00000020H
	jne	SHORT $LN5@update_tip
	cmp	BYTE PTR [esi+edx+1], 32		; 00000020H
	jne	SHORT $LN5@update_tip

; 880  : 				{
; 881  : 					mode = 1;

	mov	eax, 1

; 882  : 					last += 1; // fake: next char

	add	DWORD PTR _last$[ebp], eax
$LN5@update_tip:

; 883  : 				}
; 884  : 
; 885  : 				cc->fill_tips( m_temp_tips, mode );

	mov	edx, DWORD PTR [ecx]
	push	eax
	lea	eax, DWORD PTR [ebx+64]
	push	eax
	mov	eax, DWORD PTR [edx+20]
	call	eax

; 886  : 				m_tips_mode = 2;
; 887  : 				m_cur_cmd._set( first );

	mov	eax, DWORD PTR _first$[ebp]
	lea	esi, DWORD PTR [ebx+92]
	mov	DWORD PTR [ebx+88], 2
	call	?_set@shared_str@@QAEXPBD@Z		; shared_str::_set

; 888  : 				select_for_filter( last, m_temp_tips, m_tips );

	mov	ecx, DWORD PTR _last$[ebp]
	lea	edi, DWORD PTR [ebx+76]
	push	edi
	lea	eax, DWORD PTR [ebx+64]
	push	eax
	push	ecx
	mov	ecx, ebx
	call	?select_for_filter@CConsole@@IAEXPBDAAV?$xr_vector@Vshared_str@@V?$xalloc@Vshared_str@@@@@@AAV?$xr_vector@UTipString@@V?$xalloc@UTipString@@@@@@@Z ; CConsole::select_for_filter

; 889  : 
; 890  : 				if ( m_tips.size() == 0 )

	mov	ecx, edi
	call	?size@?$_Impl_vector@UTipString@@V?$xalloc@UTipString@@@@@priv@stlp_std@@QBEIXZ ; stlp_std::priv::_Impl_vector<TipString,xalloc<TipString> >::size
	test	eax, eax
	jne	SHORT $LN4@update_tip

; 891  : 				{
; 892  : 					m_tips.push_back( TipString( "(empty)" ) );

	mov	eax, OFFSET ??_C@_07NPEDDNID@?$CIempty?$CJ?$AA@
	lea	esi, DWORD PTR $T488337[ebp]
	call	??0shared_str@@QAE@PBD@Z		; shared_str::shared_str
	mov	ecx, esi
	lea	eax, DWORD PTR $T488336[ebp]
	call	??0TipString@@QAE@ABVshared_str@@@Z	; TipString::TipString
	mov	ecx, eax
	mov	esi, edi
	call	?push_back@?$vector@UTipString@@V?$xalloc@UTipString@@@@@stlp_std@@QAEXABUTipString@@@Z ; stlp_std::vector<TipString,xalloc<TipString> >::push_back
	lea	ecx, DWORD PTR $T488336[ebp]
	call	??1TipString@@QAE@XZ
	lea	ecx, DWORD PTR $T488337[ebp]
	call	??1shared_str@@QAE@XZ			; shared_str::~shared_str
$LN4@update_tip:

; 893  : 				}
; 894  : 				if ( (int)m_tips.size() <= m_select_tip )

	mov	ecx, edi
	call	?size@?$_Impl_vector@UTipString@@V?$xalloc@UTipString@@@@@priv@stlp_std@@QBEIXZ ; stlp_std::priv::_Impl_vector<TipString,xalloc<TipString> >::size
	cmp	eax, DWORD PTR [ebx+96]
	jg	SHORT $LN150@update_tip

; 895  : 				{
; 896  : 					reset_selected_tip();

	mov	DWORD PTR [ebx+100], 0

; 897  : 				}
; 898  : 				return;

	jmp	SHORT $LN157@update_tip
$LN6@update_tip:

; 899  : 			}
; 900  : 		}
; 901  : 	}
; 902  : 
; 903  : 	// cmd name
; 904  : 	{
; 905  : 		add_internal_cmds( cur, m_tips );

	mov	edx, DWORD PTR _cur$[ebp]
	lea	esi, DWORD PTR [ebx+76]
	push	esi
	push	edx
	mov	ecx, ebx
	call	?add_internal_cmds@CConsole@@IAE_NPBDAAV?$xr_vector@UTipString@@V?$xalloc@UTipString@@@@@@@Z ; CConsole::add_internal_cmds

; 906  : 		//add_next_cmds( cur, m_tips );
; 907  : 		m_tips_mode = 1;
; 908  : 	}
; 909  : 
; 910  : 	if ( m_tips.size() == 0 )

	mov	ecx, esi
	mov	DWORD PTR [ebx+88], 1
	call	?size@?$_Impl_vector@UTipString@@V?$xalloc@UTipString@@@@@priv@stlp_std@@QBEIXZ ; stlp_std::priv::_Impl_vector<TipString,xalloc<TipString> >::size

; 911  : 	{
; 912  : 		m_tips_mode = 0;

	xor	edi, edi
	test	eax, eax
	jne	SHORT $LN142@update_tip
	mov	DWORD PTR [ebx+88], edi

; 913  : 		reset_selected_tip();

	mov	DWORD PTR [ebx+96], -1
	mov	DWORD PTR [ebx+100], edi
	mov	BYTE PTR [ebx+36], al
$LN142@update_tip:

; 914  : 	}
; 915  : 	if ( (int)m_tips.size() <= m_select_tip )

	mov	ecx, esi
	call	?size@?$_Impl_vector@UTipString@@V?$xalloc@UTipString@@@@@priv@stlp_std@@QBEIXZ ; stlp_std::priv::_Impl_vector<TipString,xalloc<TipString> >::size
	cmp	eax, DWORD PTR [ebx+96]
	jg	SHORT $LN150@update_tip

; 916  : 	{
; 917  : 		reset_selected_tip();

	mov	DWORD PTR [ebx+100], edi
$LN157@update_tip:
	mov	BYTE PTR [ebx+36], 0
	mov	DWORD PTR [ebx+96], -1
$LN150@update_tip:

; 918  : 	}
; 919  : 
; 920  : }

	lea	esp, DWORD PTR [ebp-40]
	pop	edi
	pop	esi
	pop	ebx
	mov	esp, ebp
	pop	ebp
	ret	0
?update_tips@CConsole@@IAEXXZ ENDP			; CConsole::update_tips
_TEXT	ENDS
PUBLIC	?Hide@CConsole@@QAEXXZ				; CConsole::Hide
; Function compile flags: /Ogtpy
;	COMDAT ?Hide@CConsole@@QAEXXZ
_TEXT	SEGMENT
?Hide@CConsole@@QAEXXZ PROC				; CConsole::Hide, COMDAT
; _this$ = ecx

; 635  : {

	push	ebx
	push	esi
	mov	esi, ecx

; 636  : 	if ( !bVisible )

	xor	ebx, ebx
	cmp	BYTE PTR [esi+172], bl
	je	SHORT $LN15@Hide

; 637  : 	{
; 638  : 		return;
; 639  : 	}
; 640  : 	if ( g_pGamePersistent && g_dedicated_server )

	cmp	DWORD PTR ?g_pGamePersistent@@3PAVIGame_Persistent@@A, ebx ; g_pGamePersistent
	je	SHORT $LN2@Hide
	cmp	BYTE PTR ?g_dedicated_server@@3_NA, bl	; g_dedicated_server
	jne	SHORT $LN15@Hide
$LN2@Hide:

; 641  : 	{
; 642  : 		return;
; 643  : 	}
; 644  : //	if  ( g_pGameLevel || 
; 645  : //		( g_pGamePersistent && g_pGamePersistent->m_pMainMenu && g_pGamePersistent->m_pMainMenu->IsActive() ))
; 646  : 
; 647  : 	if ( pInput->get_exclusive_mode() )

	cmp	BYTE PTR _g_exclusive, bl
	je	SHORT $LN1@Hide

; 648  : 	{
; 649  : 		SetCursorPos( m_mouse_pos.x, m_mouse_pos.y );

	mov	eax, DWORD PTR [esi+32]
	mov	ecx, DWORD PTR [esi+28]
	push	eax
	push	ecx
	call	DWORD PTR __imp__SetCursorPos@8
$LN1@Hide:

; 650  : 	}
; 651  : 
; 652  : 	bVisible = false;
; 653  : 	reset_selected_tip();
; 654  : 	update_tips();

	mov	ecx, esi
	mov	BYTE PTR [esi+172], bl
	mov	DWORD PTR [esi+96], -1
	mov	DWORD PTR [esi+100], ebx
	mov	BYTE PTR [esi+36], bl
	call	?update_tips@CConsole@@IAEXXZ		; CConsole::update_tips

; 655  : 
; 656  : 	Device.seqFrame.Remove( this );

	lea	edx, DWORD PTR [esi+4]
	push	edx
	mov	ecx, OFFSET ?Device@@3VCRenderDevice@@A+728
	call	?Remove@?$CRegistrator@VpureFrame@@@@QAEXPAVpureFrame@@@Z ; CRegistrator<pureFrame>::Remove

; 657  : 	Device.seqRender.Remove( this );

	mov	ebx, esi
	mov	eax, OFFSET ?Device@@3VCRenderDevice@@A+648
	call	?Remove@?$CRegistrator@VpureRender@@@@QAEXPAVpureRender@@@Z ; CRegistrator<pureRender>::Remove

; 658  : 	m_editor->IR_Release();

	mov	eax, DWORD PTR [esi+200]
	mov	ecx, DWORD PTR ?pInput@@3PAVCInput@@A	; pInput
	push	eax
	call	?iRelease@CInput@@QAEXPAVIInputReceiver@@@Z ; CInput::iRelease
$LN15@Hide:
	pop	esi
	pop	ebx

; 659  : }

	ret	0
?Hide@CConsole@@QAEXXZ ENDP				; CConsole::Hide
_TEXT	ENDS
PUBLIC	?ExecuteCommand@CConsole@@QAEXPBD_N@Z		; CConsole::ExecuteCommand
; Function compile flags: /Ogtpy
;	COMDAT ?ExecuteCommand@CConsole@@QAEXPBD_N@Z
_TEXT	SEGMENT
_stat$132768 = -268					; size = 256
_first$ = -12						; size = 4
_last$ = -8						; size = 4
$T488637 = -4						; size = 4
_str_size$ = -4						; size = 4
$T488640 = 8						; size = 4
_c$132715 = 8						; size = 2
_cmd_str$ = 8						; size = 4
_record_cmd$ = 12					; size = 1
?ExecuteCommand@CConsole@@QAEXPBD_N@Z PROC		; CConsole::ExecuteCommand, COMDAT
; _this$ = ecx

; 524  : {

	push	ebp
	mov	ebp, esp

; 525  : 	u32  str_size = xr_strlen( cmd_str );

	mov	eax, DWORD PTR _cmd_str$[ebp]
	sub	esp, 268				; 0000010cH
	push	ebx
	push	esi
	push	edi
	mov	ebx, ecx
	lea	edx, DWORD PTR [eax+1]
$LL86@ExecuteCom:
	mov	cl, BYTE PTR [eax]
	add	eax, 1
	test	cl, cl
	jne	SHORT $LL86@ExecuteCom
	sub	eax, edx

; 526  : 	PSTR edt   = (PSTR)_alloca( (str_size + 1) * sizeof(char) );

	lea	esi, DWORD PTR [eax+1]
	mov	DWORD PTR _str_size$[ebp], eax
	mov	eax, esi
	call	__alloca_probe_16

; 527  : 	PSTR first = (PSTR)_alloca( (str_size + 1) * sizeof(char) );

	mov	eax, esi
	mov	edi, esp
	call	__alloca_probe_16

; 528  : 	PSTR last  = (PSTR)_alloca( (str_size + 1) * sizeof(char) );

	mov	eax, esi
	mov	DWORD PTR _first$[ebp], esp
	call	__alloca_probe_16

; 529  : 	
; 530  : 	xr_strcpy( edt, str_size+1, cmd_str );

	mov	eax, DWORD PTR _cmd_str$[ebp]
	mov	DWORD PTR _last$[ebp], esp
	push	esi
	push	eax
	push	esi
	push	edi
	call	DWORD PTR __imp__strncpy_s

; 531  : 	edt[str_size] = 0;

	mov	ecx, DWORD PTR _str_size$[ebp]
	mov	BYTE PTR [edi+ecx], 0

; 532  : 
; 533  : 	scroll_delta	= 0;
; 534  : 	reset_cmd_history_idx();

	or	eax, -1
	xor	esi, esi

; 535  : 	reset_selected_tip();
; 536  : 
; 537  : 	text_editor::remove_spaces( edt );

	push	edi
	mov	DWORD PTR [ebx+12], esi
	mov	DWORD PTR [ebx+56], eax
	mov	DWORD PTR [ebx+96], eax
	mov	DWORD PTR [ebx+100], esi
	mov	BYTE PTR [ebx+36], 0
	call	?remove_spaces@text_editor@@YAXPAD@Z	; text_editor::remove_spaces
	add	esp, 20					; 00000014H

; 538  : 	if ( edt[0] == 0 )

	cmp	BYTE PTR [edi], 0
	je	$LN1@ExecuteCom

; 539  : 	{
; 540  : 		return;
; 541  : 	}
; 542  : 	if ( record_cmd )

	cmp	BYTE PTR _record_cmd$[ebp], 0
	je	$LN48@ExecuteCom

; 543  : 	{
; 544  : 		char c[2];
; 545  : 		c[0] = mark2;
; 546  : 		c[1] = 0;
; 547  : 
; 548  : 		if ( m_last_cmd.c_str() == 0 || xr_strcmp( m_last_cmd, edt ) != 0 )

	mov	eax, DWORD PTR [ebx+60]
	cmp	eax, esi
	lea	edx, DWORD PTR [ebx+60]
	mov	BYTE PTR _c$132715[ebp], 64		; 00000040H
	mov	BYTE PTR _c$132715[ebp+1], 0
	je	SHORT $LN12@ExecuteCom
	add	eax, 16					; 00000010H
	cmp	eax, esi
	je	SHORT $LN12@ExecuteCom
	mov	ecx, edi
	mov	eax, edx
	call	?xr_strcmp@@YAHABVshared_str@@PBD@Z	; xr_strcmp
	test	eax, eax
	je	SHORT $LN48@ExecuteCom
$LN12@ExecuteCom:

; 549  : 		{
; 550  : 			Log( c, edt );

	lea	edx, DWORD PTR _c$132715[ebp]
	push	edi
	push	edx
	call	DWORD PTR __imp_?Log@@YAXPBD0@Z

; 551  : 			add_cmd_history( edt );

	mov	eax, DWORD PTR __imp_?g_pStringContainer@@3PAVstr_container@@A
	mov	ecx, DWORD PTR [eax]
	add	esp, 8
	push	edi
	mov	DWORD PTR $T488637[ebp], esi
	call	DWORD PTR __imp_?dock@str_container@@QAEPAUstr_value@@PBD@Z
	cmp	eax, esi
	je	SHORT $LN32@ExecuteCom
	add	DWORD PTR [eax], 1
$LN32@ExecuteCom:
	mov	ecx, DWORD PTR $T488637[ebp]
	cmp	ecx, esi
	je	SHORT $LN35@ExecuteCom
	add	DWORD PTR [ecx], -1
$LN35@ExecuteCom:
	lea	ecx, DWORD PTR $T488637[ebp]
	push	ecx
	mov	ecx, ebx
	mov	DWORD PTR $T488637[ebp], eax
	call	?add_cmd_history@CConsole@@IAEXABVshared_str@@@Z ; CConsole::add_cmd_history
	mov	eax, DWORD PTR $T488637[ebp]
	cmp	eax, esi
	je	SHORT $LN41@ExecuteCom
	add	DWORD PTR [eax], -1
	mov	edx, DWORD PTR $T488637[ebp]
	cmp	DWORD PTR [edx], esi
	jne	SHORT $LN41@ExecuteCom
	mov	DWORD PTR $T488637[ebp], esi
$LN41@ExecuteCom:

; 552  : 			m_last_cmd = edt;

	mov	eax, DWORD PTR __imp_?g_pStringContainer@@3PAVstr_container@@A
	mov	ecx, DWORD PTR [eax]
	push	edi
	call	DWORD PTR __imp_?dock@str_container@@QAEPAUstr_value@@PBD@Z
	cmp	eax, esi
	je	SHORT $LN47@ExecuteCom
	add	DWORD PTR [eax], 1
$LN47@ExecuteCom:
	mov	ecx, DWORD PTR [ebx+60]
	cmp	ecx, esi
	je	SHORT $LN50@ExecuteCom
	add	DWORD PTR [ecx], -1
	mov	ecx, DWORD PTR [ebx+60]
	cmp	DWORD PTR [ecx], esi
	jne	SHORT $LN50@ExecuteCom
	mov	DWORD PTR [ebx+60], esi
$LN50@ExecuteCom:
	mov	DWORD PTR [ebx+60], eax
$LN48@ExecuteCom:

; 553  : 		}
; 554  : 	}
; 555  : 	text_editor::split_cmd( first, last, edt );

	mov	edx, DWORD PTR _last$[ebp]
	mov	eax, DWORD PTR _first$[ebp]
	push	edi
	push	edx
	push	eax
	call	?split_cmd@text_editor@@YAXPAD0PBD@Z	; text_editor::split_cmd
	add	esp, 12					; 0000000cH

; 556  : 
; 557  : 	// search
; 558  : 	vecCMD_IT it = Commands.find( first );

	lea	esi, DWORD PTR [ebx+176]
	push	esi
	lea	edi, DWORD PTR _first$[ebp]
	call	??$_M_find@PAD@?$_Rb_tree@PBDUstr_pred@CConsole@@U?$pair@QBDPAVIConsole_Command@@@stlp_std@@U?$_Select1st@U?$pair@QBDPAVIConsole_Command@@@stlp_std@@@priv@4@U?$_MapTraitsT@U?$pair@QBDPAVIConsole_Command@@@stlp_std@@@64@V?$xalloc@U?$pair@PBDPAVIConsole_Command@@@stlp_std@@@@@priv@stlp_std@@ABEPAU_Rb_tree_node_base@12@ABQAD@Z ; stlp_std::priv::_Rb_tree<char const *,CConsole::str_pred,stlp_std::pair<char const * const,IConsole_Command *>,stlp_std::priv::_Select1st<stlp_std::pair<char const * const,IConsole_Command *> >,stlp_std::priv::_MapTraitsT<stlp_std::pair<char const * const,IConsole_Command *> >,xalloc<stlp_std::pair<char const *,IConsole_Command *> > >::_M_find<char *>

; 559  : 	if ( it != Commands.end() )

	cmp	eax, esi
	je	$LN11@ExecuteCom

; 560  : 	{
; 561  : 		IConsole_Command* cc = it->second;

	mov	edi, DWORD PTR [eax+20]

; 562  : 		if ( cc && cc->bEnabled )

	test	edi, edi
	je	$LN10@ExecuteCom
	cmp	BYTE PTR [edi+8], 0
	je	SHORT $LN10@ExecuteCom

; 563  : 		{
; 564  : 			if ( cc->bLowerCaseArgs )

	cmp	BYTE PTR [edi+9], 0

; 565  : 			{
; 566  : 				strlwr( last );

	mov	esi, DWORD PTR _last$[ebp]
	je	SHORT $LN9@ExecuteCom
	push	esi
	call	DWORD PTR __imp__strlwr
	add	esp, 4
$LN9@ExecuteCom:

; 567  : 			}
; 568  : 			if ( last[0] == 0 )

	cmp	BYTE PTR [esi], 0

; 571  : 				{
; 572  : 					cc->Execute( last );

	mov	edx, DWORD PTR [edi]
	mov	ecx, edi
	jne	SHORT $LN8@ExecuteCom

; 569  : 			{
; 570  : 				if ( cc->bEmptyArgsHandled )

	cmp	BYTE PTR [edi+10], 0
	je	SHORT $LN7@ExecuteCom

; 571  : 				{
; 572  : 					cc->Execute( last );

	mov	eax, DWORD PTR [edx+4]
	push	esi
	call	eax

; 573  : 				}
; 574  : 				else

	jmp	SHORT $LN2@ExecuteCom
$LN7@ExecuteCom:

; 575  : 				{
; 576  : 					IConsole_Command::TStatus stat;
; 577  : 					cc->Status( stat );

	mov	edx, DWORD PTR [edx+8]
	lea	eax, DWORD PTR _stat$132768[ebp]
	push	eax
	call	edx

; 578  : 					Msg( "- %s %s", cc->Name(), stat );

	mov	ecx, DWORD PTR [edi+4]
	lea	eax, DWORD PTR _stat$132768[ebp]
	push	eax
	push	ecx
	push	OFFSET ??_C@_07EEKGGBBH@?9?5?$CFs?5?$CFs?$AA@
	call	DWORD PTR __imp_?Msg@@YAXPBDZZ
	add	esp, 12					; 0000000cH

; 579  : 				}
; 580  : 			}
; 581  : 			else

	jmp	SHORT $LN2@ExecuteCom
$LN8@ExecuteCom:

; 582  : 			{
; 583  : 				cc->Execute( last );

	mov	eax, DWORD PTR [edx+4]
	push	esi
	call	eax

; 584  : 				if ( record_cmd )

	cmp	BYTE PTR _record_cmd$[ebp], 0
	je	SHORT $LN1@ExecuteCom

; 585  : 				{
; 586  : 					cc->add_to_LRU( (LPCSTR)last );

	mov	eax, esi
	lea	esi, DWORD PTR $T488640[ebp]
	call	??0shared_str@@QAE@PBD@Z		; shared_str::shared_str
	mov	edx, DWORD PTR [edi]
	mov	edx, DWORD PTR [edx+24]
	mov	eax, esi
	push	eax
	mov	ecx, edi
	call	edx
	mov	ecx, esi
	call	??1shared_str@@QAE@XZ			; shared_str::~shared_str

; 587  : 				}
; 588  : 			}
; 589  : 		}
; 590  : 		else

	jmp	SHORT $LN2@ExecuteCom
$LN10@ExecuteCom:

; 591  : 		{
; 592  : 			Log("! Command disabled.");

	push	OFFSET ??_C@_0BE@PMGADDPJ@?$CB?5Command?5disabled?4?$AA@
	call	DWORD PTR __imp_?Log@@YAXPBD@Z
	add	esp, 4

; 593  : 		}
; 594  : 	}
; 595  : 	else

	jmp	SHORT $LN2@ExecuteCom
$LN11@ExecuteCom:

; 596  : 	{
; 597  : 		first[CONSOLE_BUF_SIZE-21] = 0;

	mov	eax, DWORD PTR _first$[ebp]

; 598  : 		Log( "! Unknown command: ", first );

	push	eax
	push	OFFSET ??_C@_0BE@IINFEJGI@?$CB?5Unknown?5command?3?5?$AA@
	mov	BYTE PTR [eax+1003], 0
	call	DWORD PTR __imp_?Log@@YAXPBD0@Z
	add	esp, 8
$LN2@ExecuteCom:

; 599  : 	}
; 600  : 
; 601  : 	if ( record_cmd )

	cmp	BYTE PTR _record_cmd$[ebp], 0
	je	SHORT $LN1@ExecuteCom

; 602  : 	{
; 603  : 		ec().clear_states();

	mov	ecx, DWORD PTR [ebx+200]
	add	ecx, 4
	call	?clear_states@line_edit_control@text_editor@@QAEXXZ ; text_editor::line_edit_control::clear_states
$LN1@ExecuteCom:

; 604  : 	}
; 605  : }

	lea	esp, DWORD PTR [ebp-280]
	pop	edi
	pop	esi
	pop	ebx
	mov	esp, ebp
	pop	ebp
	ret	8
?ExecuteCommand@CConsole@@QAEXPBD_N@Z ENDP		; CConsole::ExecuteCommand
_TEXT	ENDS
PUBLIC	__real@3ffd70a4
PUBLIC	?OutFont@CConsole@@IAEXPBDAAM@Z			; CConsole::OutFont
;	COMDAT __real@3ffd70a4
CONST	SEGMENT
__real@3ffd70a4 DD 03ffd70a4r			; 1.98
; Function compile flags: /Ogtpy
CONST	ENDS
;	COMDAT ?OutFont@CConsole@@IAEXPBDAAM@Z
_TEXT	SEGMENT
tv217 = -24						; size = 4
tv182 = -20						; size = 4
_scr_width$ = -16					; size = 4
_one_line$132526 = -12					; size = 4
_ln$132525 = -8						; size = 4
_str_length$ = -8					; size = 4
_this$ = -4						; size = 4
_text$ = 8						; size = 4
_pos_y$ = 12						; size = 4
?OutFont@CConsole@@IAEXPBDAAM@Z PROC			; CConsole::OutFont, COMDAT
; _this$ = ecx

; 172  : {

	push	ebp
	mov	ebp, esp
	sub	esp, 24					; 00000018H
	push	ebx

; 173  : 	float str_length = pFont->SizeOf_( text );

	mov	ebx, DWORD PTR _text$[ebp]
	push	esi
	mov	esi, ecx
	mov	ecx, DWORD PTR [esi+16]
	push	edi
	push	ebx
	mov	DWORD PTR _this$[ebp], esi
	call	?SizeOf_@CGameFont@@QAEMPBD@Z		; CGameFont::SizeOf_
	fstp	DWORD PTR _str_length$[ebp]

; 174  : 	float scr_width  = 1.98f * Device.fWidth_2;

	movss	xmm0, DWORD PTR ?Device@@3VCRenderDevice@@A+860
	mulss	xmm0, DWORD PTR __real@3ffd70a4

; 175  : 	if( str_length > scr_width ) //1024.0f

	movss	xmm1, DWORD PTR _str_length$[ebp]
	comiss	xmm1, xmm0
	movss	DWORD PTR _scr_width$[ebp], xmm0
	jbe	$LN6@OutFont

; 176  : 	{
; 177  : 		float f	= 0.0f;
; 178  : 		int sz	= 0;
; 179  : 		int ln	= 0;

	xor	edi, edi

; 180  : 		PSTR one_line = (PSTR)_alloca( (CONSOLE_BUF_SIZE + 1) * sizeof(char) );

	mov	eax, 1028				; 00000404H
	xor	esi, esi
	mov	DWORD PTR _ln$132525[ebp], edi
	call	__alloca_probe_16

; 181  : 		
; 182  : 		while( text[sz] && (ln + sz < CONSOLE_BUF_SIZE-5) )//  

	cmp	BYTE PTR [ebx], 0
	mov	DWORD PTR _one_line$132526[ebp], esp
	je	$LN1@OutFont
	mov	eax, 1
	sub	eax, ebx
	mov	DWORD PTR tv217[ebp], eax
	jmp	SHORT $LN5@OutFont
	npad	7
$LL11@OutFont:
	mov	edi, DWORD PTR _ln$132525[ebp]
	mov	ebx, ecx
$LN5@OutFont:
	lea	eax, DWORD PTR [edi+esi]
	cmp	eax, 1019				; 000003fbH
	jge	$LN1@OutFont

; 183  : 		{
; 184  : 			one_line[ln+sz]   = text[sz];

	mov	ecx, DWORD PTR _one_line$132526[ebp]
	mov	dl, BYTE PTR [ebx+esi]

; 185  : 			one_line[ln+sz+1] = 0;
; 186  : 			
; 187  : 			float t	= pFont->SizeOf_( one_line + ln );

	mov	eax, DWORD PTR _this$[ebp]
	add	edi, ecx
	add	ebx, esi
	mov	BYTE PTR [edi+esi], dl
	mov	BYTE PTR [edi+esi+1], 0
	mov	ecx, DWORD PTR [eax+16]
	push	edi
	call	?SizeOf_@CGameFont@@QAEMPBD@Z		; CGameFont::SizeOf_

; 188  : 			if ( t > scr_width )

	fld	DWORD PTR _scr_width$[ebp]
	fxch	ST(1)
	fcomip	ST(1)
	fstp	ST(0)
	jbe	SHORT $LN3@OutFont

; 189  : 			{
; 190  : 				OutFont		( text + sz + 1, pos_y );

	mov	ecx, DWORD PTR _pos_y$[ebp]
	mov	edx, DWORD PTR _text$[ebp]
	push	ecx
	mov	ecx, DWORD PTR _this$[ebp]
	lea	eax, DWORD PTR [esi+edx+1]
	push	eax
	call	?OutFont@CConsole@@IAEXPBDAAM@Z		; CConsole::OutFont

; 191  : 				pos_y		-= LDIST;

	mov	eax, DWORD PTR _pos_y$[ebp]
	movss	xmm0, DWORD PTR [eax]
	subss	xmm0, DWORD PTR _LDIST

; 192  : 				pFont->OutI	( -1.0f, pos_y, "%s", one_line + ln );

	mov	ecx, DWORD PTR _this$[ebp]
	push	edi
	movss	DWORD PTR tv182[ebp], xmm0
	fld	DWORD PTR tv182[ebp]
	push	OFFSET ??_C@_02DKCKIIND@?$CFs?$AA@
	sub	esp, 8
	fstp	DWORD PTR [esp+4]
	movss	DWORD PTR [eax], xmm0
	fld	DWORD PTR __real@bf800000
	mov	edx, DWORD PTR [ecx+16]
	fstp	DWORD PTR [esp]
	push	edx
	call	?OutI@CGameFont@@QAAXMMPBDZZ		; CGameFont::OutI

; 193  : 				ln			= sz + 1;

	mov	eax, DWORD PTR tv217[ebp]
	add	esp, 20					; 00000014H
	add	eax, ebx
	mov	DWORD PTR _ln$132525[ebp], eax
$LN3@OutFont:
	mov	ecx, DWORD PTR _text$[ebp]

; 194  : 				f			= 0.0f;
; 195  : 			}
; 196  : 			else
; 197  : 			{
; 198  : 				f = t;
; 199  : 			}
; 200  : 
; 201  : 			++sz;

	add	esi, 1
	cmp	BYTE PTR [esi+ecx], 0
	jne	$LL11@OutFont

; 207  : 	}
; 208  : }

	lea	esp, DWORD PTR [ebp-36]
	pop	edi
	pop	esi
	pop	ebx
	mov	esp, ebp
	pop	ebp
	ret	8
$LN6@OutFont:

; 202  : 		}
; 203  : 	}
; 204  : 	else
; 205  : 	{
; 206  : 		pFont->OutI( -1.0f, pos_y, "%s", text );

	mov	edx, DWORD PTR _pos_y$[ebp]
	fld	DWORD PTR [edx]
	mov	eax, DWORD PTR [esi+16]
	push	ebx
	push	OFFSET ??_C@_02DKCKIIND@?$CFs?$AA@
	sub	esp, 8
	fstp	DWORD PTR [esp+4]
	fld	DWORD PTR __real@bf800000
	fstp	DWORD PTR [esp]
	push	eax
	call	?OutI@CGameFont@@QAAXMMPBDZZ		; CGameFont::OutI
	add	esp, 20					; 00000014H
$LN1@OutFont:

; 207  : 	}
; 208  : }

	lea	esp, DWORD PTR [ebp-36]
	pop	edi
	pop	esi
	pop	ebx
	mov	esp, ebp
	pop	ebp
	ret	8
?OutFont@CConsole@@IAEXPBDAAM@Z ENDP			; CConsole::OutFont
; Function compile flags: /Ogtpy
_TEXT	ENDS
;	COMDAT ?OnFrame@CConsole@@UAGXXZ
_TEXT	SEGMENT
_this$ = 8						; size = 4
?OnFrame@CConsole@@UAGXXZ PROC				; CConsole::OnFrame, COMDAT

; 162  : {

	push	esi

; 163  : 	m_editor->on_frame();

	mov	esi, DWORD PTR _this$[esp]
	mov	ecx, DWORD PTR [esi+196]
	add	ecx, 4
	call	?on_frame@line_edit_control@text_editor@@QAEXXZ ; text_editor::line_edit_control::on_frame

; 164  : 	
; 165  : 	if ( Device.dwFrame % 10 == 0 )

	mov	ecx, DWORD PTR ?Device@@3VCRenderDevice@@A+24
	mov	eax, -858993459				; cccccccdH
	mul	ecx
	shr	edx, 3
	lea	eax, DWORD PTR [edx+edx*4]
	add	eax, eax
	sub	ecx, eax
	jne	SHORT $LN1@OnFrame@5

; 166  : 	{
; 167  : 		update_tips();

	lea	ecx, DWORD PTR [esi-4]
	call	?update_tips@CConsole@@IAEXXZ		; CConsole::update_tips
$LN1@OnFrame@5:
	pop	esi

; 168  : 	}
; 169  : }

	ret	4
?OnFrame@CConsole@@UAGXXZ ENDP				; CConsole::OnFrame
PUBLIC	?Execute@CConsole@@QAEXPBD@Z			; CConsole::Execute
; Function compile flags: /Ogtpy
;	COMDAT ?Execute@CConsole@@QAEXPBD@Z
_TEXT	SEGMENT
_cmd$ = 8						; size = 4
?Execute@CConsole@@QAEXPBD@Z PROC			; CConsole::Execute, COMDAT
; _this$ = ecx

; 676  : 	ExecuteCommand( cmd, false );

	mov	eax, DWORD PTR _cmd$[esp-4]
	push	0
	push	eax
	call	?ExecuteCommand@CConsole@@QAEXPBD_N@Z	; CConsole::ExecuteCommand

; 677  : }

	ret	4
?Execute@CConsole@@QAEXPBD@Z ENDP			; CConsole::Execute
_TEXT	ENDS
PUBLIC	__real@3ff33333
PUBLIC	__real@3d6147af
PUBLIC	__real@3ccccccd
;	COMDAT __real@3ff33333
; File d:\clearsky\sources\sdk\include\stlport\stl\pointers\_tools.h
CONST	SEGMENT
__real@3ff33333 DD 03ff33333r			; 1.9
CONST	ENDS
;	COMDAT __real@3d6147af
CONST	SEGMENT
__real@3d6147af DD 03d6147afr			; 0.055
CONST	ENDS
;	COMDAT __real@3ccccccd
CONST	SEGMENT
__real@3ccccccd DD 03ccccccdr			; 0.025
; Function compile flags: /Ogtpy
; File d:\clearsky\sources\engine\xrengine\xr_ioconsole.cpp
CONST	ENDS
;	COMDAT ?OnRender@CConsole@@UAEXXZ
_TEXT	SEGMENT
_ypos$ = -60						; size = 4
_out_pos$ = -56						; size = 4
_scr_x$ = -52						; size = 4
_shift_x$132597 = -48					; size = 4
_bGame$ = -44						; size = 1
_str_length$ = -44					; size = 4
tv889 = -40						; size = 4
_ioc_d$ = -40						; size = 4
_fMaxY$ = -36						; size = 4
tv730 = -32						; size = 4
_d1$ = -32						; size = 4
_s_b_mark$ = -28					; size = 4
_s_mark$ = -24						; size = 4
tv933 = -20						; size = 4
tv929 = -20						; size = 4
tv835 = -20						; size = 4
_s_mark_a$ = -20					; size = 4
_q$ = -16						; size = 16
?OnRender@CConsole@@UAEXXZ PROC				; CConsole::OnRender, COMDAT
; _this$ = ecx

; 217  : {

	sub	esp, 60					; 0000003cH
	push	esi
	mov	esi, ecx

; 218  : 	if ( !bVisible )

	cmp	BYTE PTR [esi+172], 0
	je	$LN238@OnRender@2

; 219  : 	{
; 220  : 		return;
; 221  : 	}
; 222  : 
; 223  : 	if ( !m_hShader_back )

	cmp	DWORD PTR [esi+24], 0
	push	ebx
	mov	ebx, DWORD PTR __imp_?mem_alloc@xrMemory@@QAEPAXI@Z
	push	edi
	jne	SHORT $LN27@OnRender@2

; 224  : 	{
; 225  : 		m_hShader_back = xr_new< FactoryPtr<IUIShader> >();

	mov	ecx, DWORD PTR __imp_?Memory@@3VxrMemory@@A
	push	4
	call	ebx
	mov	edi, eax
	test	edi, edi
	je	SHORT $LN33@OnRender@2
	mov	eax, DWORD PTR __imp_?RenderFactory@@3PAVIRenderFactory@@A
	mov	ecx, DWORD PTR [eax]
	mov	edx, DWORD PTR [ecx]
	mov	eax, DWORD PTR [edx+8]
	call	eax
	mov	DWORD PTR [edi], eax
	jmp	SHORT $LN34@OnRender@2
$LN33@OnRender@2:
	xor	edi, edi
$LN34@OnRender@2:
	mov	DWORD PTR [esi+24], edi

; 226  : 		(*m_hShader_back)->create( "hud\\default", "ui\\ui_console" ); // "ui\\ui_empty"

	mov	ecx, DWORD PTR [edi]
	mov	edx, DWORD PTR [ecx]
	mov	eax, DWORD PTR [edx+8]
	push	OFFSET ??_C@_0O@GKOHOGBF@ui?2ui_console?$AA@
	push	OFFSET ??_C@_0M@MIMEGKBO@hud?2default?$AA@
	call	eax
$LN27@OnRender@2:

; 227  : 	}
; 228  : 	
; 229  : 	if ( !pFont )

	cmp	DWORD PTR [esi+16], 0
	jne	SHORT $LN52@OnRender@2

; 230  : 	{
; 231  : 		pFont = xr_new<CGameFont>( "hud_font_di", CGameFont::fsDeviceIndependent );

	mov	ecx, DWORD PTR __imp_?Memory@@3VxrMemory@@A
	push	88					; 00000058H
	call	ebx
	test	eax, eax
	je	SHORT $LN45@OnRender@2
	push	2
	push	OFFSET ??_C@_0M@GNLPOGIJ@hud_font_di?$AA@
	mov	ecx, eax
	call	??0CGameFont@@QAE@PBDI@Z		; CGameFont::CGameFont
	jmp	SHORT $LN46@OnRender@2
$LN45@OnRender@2:
	xor	eax, eax
$LN46@OnRender@2:
	mov	DWORD PTR [esi+16], eax

; 232  : 		pFont->SetHeightI(  0.025f );

	fild	DWORD PTR ?Device@@3VCRenderDevice@@A+8
	mov	ecx, DWORD PTR ?Device@@3VCRenderDevice@@A+8
	test	ecx, ecx
	jge	SHORT $LN251@OnRender@2
	fadd	DWORD PTR __real@4f800000
$LN251@OnRender@2:
	fmul	DWORD PTR __real@3ccccccd
	fstp	DWORD PTR [eax+24]
$LN52@OnRender@2:

; 233  : 	}
; 234  : 	if( !pFont2 )

	cmp	DWORD PTR [esi+20], 0
	jne	SHORT $LN63@OnRender@2

; 235  : 	{
; 236  : 		pFont2 = xr_new<CGameFont>( "hud_font_di2", CGameFont::fsDeviceIndependent );

	mov	ecx, DWORD PTR __imp_?Memory@@3VxrMemory@@A
	push	88					; 00000058H
	call	ebx
	test	eax, eax
	je	SHORT $LN56@OnRender@2
	push	2
	push	OFFSET ??_C@_0N@HJHJNABD@hud_font_di2?$AA@
	mov	ecx, eax
	call	??0CGameFont@@QAE@PBDI@Z		; CGameFont::CGameFont
	jmp	SHORT $LN57@OnRender@2
$LN56@OnRender@2:
	xor	eax, eax
$LN57@OnRender@2:
	mov	DWORD PTR [esi+20], eax

; 237  : 		pFont2->SetHeightI( 0.025f );

	fild	DWORD PTR ?Device@@3VCRenderDevice@@A+8
	mov	edx, DWORD PTR ?Device@@3VCRenderDevice@@A+8
	test	edx, edx
	jge	SHORT $LN252@OnRender@2
	fadd	DWORD PTR __real@4f800000
$LN252@OnRender@2:
	fmul	DWORD PTR __real@3ccccccd
	fstp	DWORD PTR [eax+24]
$LN63@OnRender@2:

; 238  : 	}
; 239  : 
; 240  : 	bool bGame = false;	
; 241  : 	if ( ( g_pGameLevel && g_pGameLevel->bReady ) ||
; 242  : 		 ( g_pGamePersistent && g_pGamePersistent->m_pMainMenu && g_pGamePersistent->m_pMainMenu->IsActive() ) )

	mov	eax, DWORD PTR ?g_pGameLevel@@3PAVIGame_Level@@A ; g_pGameLevel
	xor	bl, bl
	test	eax, eax
	mov	BYTE PTR _bGame$[esp+72], bl
	je	SHORT $LN22@OnRender@2
	cmp	DWORD PTR [eax+262396], 0
	jne	SHORT $LN23@OnRender@2
$LN22@OnRender@2:
	mov	eax, DWORD PTR ?g_pGamePersistent@@3PAVIGame_Persistent@@A ; g_pGamePersistent
	test	eax, eax
	je	SHORT $LN24@OnRender@2
	cmp	DWORD PTR [eax+1132], 0
	je	SHORT $LN24@OnRender@2
	mov	ecx, DWORD PTR [eax+1132]
	mov	eax, DWORD PTR [ecx]
	mov	edx, DWORD PTR [eax+8]
	call	edx
	test	al, al
	je	SHORT $LN24@OnRender@2
$LN23@OnRender@2:

; 243  : 	{
; 244  : 		 bGame = true;

	mov	bl, 1
	mov	BYTE PTR _bGame$[esp+72], bl
$LN24@OnRender@2:

; 245  : 	}
; 246  : 	if ( g_dedicated_server )

	cmp	BYTE PTR ?g_dedicated_server@@3_NA, 0	; g_dedicated_server
	je	SHORT $LN21@OnRender@2

; 247  : 	{
; 248  : 		bGame = false;

	xor	bl, bl
	mov	BYTE PTR _bGame$[esp+72], bl
$LN21@OnRender@2:

; 249  : 	}
; 250  : 	
; 251  : 	DrawBackgrounds( bGame );

	mov	eax, DWORD PTR _bGame$[esp+72]
	push	eax
	mov	ecx, esi
	call	?DrawBackgrounds@CConsole@@IAEX_N@Z	; CConsole::DrawBackgrounds

; 252  : 
; 253  : 	float fMaxY;
; 254  : 	float dwMaxY = (float)Device.dwHeight;
; 255  : 	// float dwMaxX=float(Device.dwWidth/2);
; 256  : 	if ( bGame )

	test	bl, bl
	movss	xmm6, DWORD PTR __real@3f800000
	xorps	xmm7, xmm7
	je	SHORT $LN20@OnRender@2

; 257  : 	{
; 258  : 		fMaxY  = 0.0f;

	movaps	xmm0, xmm7

; 259  : 		dwMaxY /= 2;
; 260  : 	}
; 261  : 	else

	jmp	SHORT $LN255@OnRender@2
$LN20@OnRender@2:

; 262  : 	{
; 263  : 		fMaxY = 1.0f;

	movaps	xmm0, xmm6
$LN255@OnRender@2:

; 264  : 	}
; 265  : 
; 266  : 	float ypos  = fMaxY - LDIST * 1.1f;
; 267  : 	float scr_x = 1.0f / Device.fWidth_2;
; 268  : 
; 269  : 	//---------------------------------------------------------------------------------
; 270  : 	float scr_width  = 1.9f * Device.fWidth_2;
; 271  : 	float ioc_d      = pFont->SizeOf_(ioc_prompt);

	mov	ecx, DWORD PTR [esi+16]
	movss	DWORD PTR _fMaxY$[esp+72], xmm0
	subss	xmm0, DWORD PTR __real@3d6147af
	movss	DWORD PTR _ypos$[esp+72], xmm0
	movss	xmm0, DWORD PTR ?Device@@3VCRenderDevice@@A+860
	push	ebp
	movaps	xmm4, xmm6
	divss	xmm4, xmm0
	mulss	xmm0, DWORD PTR __real@3ff33333
	push	OFFSET ??_C@_04IMEJGNKP@?$DO?$DO?$DO?5?$AA@
	movss	DWORD PTR _scr_x$[esp+80], xmm4
	movaps	xmm5, xmm0
	call	?SizeOf_@CGameFont@@QAEMPBD@Z		; CGameFont::SizeOf_
	fstp	DWORD PTR _ioc_d$[esp+76]

; 272  : 	float d1         = pFont->SizeOf_( "_" );

	mov	ecx, DWORD PTR [esi+16]
	push	OFFSET ??_C@_01IDAFKMJL@_?$AA@
	call	?SizeOf_@CGameFont@@QAEMPBD@Z		; CGameFont::SizeOf_
	fstp	DWORD PTR _d1$[esp+76]

; 273  : 
; 274  : 	LPCSTR s_cursor = ec().str_before_cursor();

	mov	eax, DWORD PTR [esi+200]
	mov	ecx, DWORD PTR [eax+1040]

; 275  : 	LPCSTR s_b_mark = ec().str_before_mark();

	mov	edi, DWORD PTR [eax+1044]

; 276  : 	LPCSTR s_mark   = ec().str_mark();

	mov	ebp, DWORD PTR [eax+1048]

; 277  : 	LPCSTR s_mark_a = ec().str_after_mark();

	mov	edx, DWORD PTR [eax+1052]

; 278  : 
; 279  : 	//	strncpy_s( buf1, cur_pos, editor, MAX_LEN );
; 280  : 	float str_length = ioc_d + pFont->SizeOf_( s_cursor );

	push	ecx
	mov	ecx, DWORD PTR [esi+16]
	mov	DWORD PTR _s_b_mark$[esp+80], edi
	mov	DWORD PTR _s_mark$[esp+80], ebp
	mov	DWORD PTR _s_mark_a$[esp+80], edx
	call	?SizeOf_@CGameFont@@QAEMPBD@Z		; CGameFont::SizeOf_
	fadd	DWORD PTR _ioc_d$[esp+76]

; 281  : 	float out_pos    = 0.0f;

	movaps	xmm0, xmm7
	movss	DWORD PTR _out_pos$[esp+76], xmm0
	fstp	DWORD PTR _str_length$[esp+76]

; 282  : 	if( str_length > scr_width )

	movss	xmm1, DWORD PTR _str_length$[esp+76]
	comiss	xmm1, xmm5
	jbe	SHORT $LN18@OnRender@2

; 283  : 	{
; 284  : 		out_pos -= (str_length - scr_width);

	movss	xmm0, DWORD PTR __real@80000000
	subss	xmm1, xmm5
	subss	xmm0, xmm1
	movss	DWORD PTR _out_pos$[esp+76], xmm0

; 285  : 		str_length = scr_width;

	movss	DWORD PTR _str_length$[esp+76], xmm5
$LN18@OnRender@2:

; 286  : 	}
; 287  : 
; 288  : 	pFont->SetColor( prompt_font_color );

	mov	eax, DWORD PTR [esi+16]
	mov	ecx, DWORD PTR _prompt_font_color

; 289  : 	pFont->OutI( -1.0f + out_pos * scr_x, ypos, "%s", ioc_prompt );

	push	OFFSET ??_C@_04IMEJGNKP@?$DO?$DO?$DO?5?$AA@
	mov	DWORD PTR [eax+20], ecx
	fld	DWORD PTR _ypos$[esp+80]
	mov	edx, DWORD PTR [esi+16]
	push	OFFSET ??_C@_02DKCKIIND@?$CFs?$AA@
	sub	esp, 8
	mulss	xmm0, xmm4
	fstp	DWORD PTR [esp+4]
	subss	xmm0, xmm6
	movss	DWORD PTR [esp], xmm0
	push	edx
	call	?OutI@CGameFont@@QAAXMMPBDZZ		; CGameFont::OutI

; 290  : 	out_pos += ioc_d;

	movss	xmm0, DWORD PTR _out_pos$[esp+96]
	addss	xmm0, DWORD PTR _ioc_d$[esp+96]
	add	esp, 20					; 00000014H

; 291  : 
; 292  : 	if ( !m_disable_tips && m_tips.size() )

	cmp	BYTE PTR [esi+36], 0
	movss	DWORD PTR _out_pos$[esp+76], xmm0
	jne	$LN242@OnRender@2
	lea	ebx, DWORD PTR [esi+76]
	mov	ecx, ebx
	call	?size@?$_Impl_vector@UTipString@@V?$xalloc@UTipString@@@@@priv@stlp_std@@QBEIXZ ; stlp_std::priv::_Impl_vector<TipString,xalloc<TipString> >::size
	test	eax, eax
	je	$LN248@OnRender@2

; 293  : 	{
; 294  : 		pFont->SetColor( tips_font_color );

	mov	eax, DWORD PTR [esi+16]
	mov	ecx, DWORD PTR _tips_font_color

; 295  : 
; 296  : 		float shift_x = 0.0f;

	xorps	xmm0, xmm0
	mov	DWORD PTR [eax+20], ecx

; 297  : 		switch ( m_tips_mode )

	mov	eax, DWORD PTR [esi+88]
	cmp	eax, 3
	movss	DWORD PTR _shift_x$132597[esp+76], xmm0
	ja	SHORT $LN15@OnRender@2
	jmp	DWORD PTR $LN258@OnRender@2[eax*4]
$LN14@OnRender@2:

; 298  : 		{
; 299  : 		case 0: shift_x = scr_x * 1.0f;			break;

	movss	xmm0, DWORD PTR _scr_x$[esp+76]
	jmp	SHORT $LN256@OnRender@2
$LN13@OnRender@2:

; 300  : 		case 1: shift_x = scr_x * out_pos;		break;

	movss	xmm0, DWORD PTR _out_pos$[esp+76]
	jmp	SHORT $LN257@OnRender@2
$LN12@OnRender@2:

; 301  : 		case 2: shift_x = scr_x * ( ioc_d + pFont->SizeOf_(m_cur_cmd.c_str()) + d1 );	break;

	mov	eax, DWORD PTR [esi+92]
	test	eax, eax
	je	SHORT $LN101@OnRender@2
	add	eax, 16					; 00000010H
	jmp	SHORT $LN102@OnRender@2
$LN101@OnRender@2:
	xor	eax, eax
$LN102@OnRender@2:
	mov	ecx, DWORD PTR [esi+16]
	push	eax
	call	?SizeOf_@CGameFont@@QAEMPBD@Z		; CGameFont::SizeOf_
	fadd	DWORD PTR _d1$[esp+76]
	fadd	DWORD PTR _ioc_d$[esp+76]
	fmul	DWORD PTR _scr_x$[esp+76]
	fstp	DWORD PTR _shift_x$132597[esp+76]
	jmp	SHORT $LN15@OnRender@2
$LN11@OnRender@2:

; 302  : 		case 3: shift_x = scr_x * str_length;	break;

	movss	xmm0, DWORD PTR _str_length$[esp+76]
$LN257@OnRender@2:
	mulss	xmm0, DWORD PTR _scr_x$[esp+76]
$LN256@OnRender@2:
	movss	DWORD PTR _shift_x$132597[esp+76], xmm0
$LN15@OnRender@2:

; 303  : 		}
; 304  : 
; 305  : 		vecTipsEx::iterator itb = m_tips.begin() + m_start_tip;

	mov	ecx, ebx
	call	?begin@?$_Impl_vector@UTipString@@V?$xalloc@UTipString@@@@@priv@stlp_std@@QAEPAUTipString@@XZ ; stlp_std::priv::_Impl_vector<TipString,xalloc<TipString> >::begin
	mov	ecx, DWORD PTR [esi+100]
	lea	edx, DWORD PTR [ecx+ecx*2]

; 306  : 		vecTipsEx::iterator ite = m_tips.end();

	mov	ecx, ebx
	lea	edi, DWORD PTR [eax+edx*4]
	call	?end@?$_Impl_vector@UTipString@@V?$xalloc@UTipString@@@@@priv@stlp_std@@QAEPAUTipString@@XZ ; stlp_std::priv::_Impl_vector<TipString,xalloc<TipString> >::end
	mov	ebp, eax

; 307  : 		for ( u32 i = 0; itb != ite ; ++itb, ++i ) // tips

	xor	ebx, ebx
	cmp	edi, ebp
	je	SHORT $LN250@OnRender@2
	movss	xmm0, DWORD PTR _shift_x$132597[esp+76]
	subss	xmm0, DWORD PTR __real@3f800000
	movss	DWORD PTR tv730[esp+76], xmm0
	npad	6
$LL249@OnRender@2:

; 308  : 		{
; 309  : 			pFont->OutI( -1.0f + shift_x, fMaxY + i*LDIST, "%s", (*itb).text.c_str() );

	mov	eax, DWORD PTR [edi]
	test	eax, eax
	je	SHORT $LN117@OnRender@2
	add	eax, 16					; 00000010H
	jmp	SHORT $LN118@OnRender@2
$LN117@OnRender@2:
	xor	eax, eax
$LN118@OnRender@2:
	push	eax
	mov	eax, ebx
	test	eax, eax
	mov	DWORD PTR tv889[esp+80], eax
	fild	DWORD PTR tv889[esp+80]
	push	OFFSET ??_C@_02DKCKIIND@?$CFs?$AA@
	jge	SHORT $LN253@OnRender@2
	fadd	DWORD PTR __real@4f800000
$LN253@OnRender@2:
	fmul	DWORD PTR _LDIST
	mov	ecx, DWORD PTR [esi+16]
	sub	esp, 8
	fadd	DWORD PTR _fMaxY$[esp+92]
	fstp	DWORD PTR [esp+4]
	fld	DWORD PTR tv730[esp+92]
	fstp	DWORD PTR [esp]
	push	ecx
	call	?OutI@CGameFont@@QAAXMMPBDZZ		; CGameFont::OutI
	add	esp, 20					; 00000014H

; 310  : 			if ( i >= VIEW_TIPS_COUNT-1 )

	cmp	ebx, 13					; 0000000dH
	jae	SHORT $LN250@OnRender@2
	add	edi, 12					; 0000000cH
	add	ebx, 1
	cmp	edi, ebp
	jne	SHORT $LL249@OnRender@2
$LN250@OnRender@2:

; 307  : 		for ( u32 i = 0; itb != ite ; ++itb, ++i ) // tips

	mov	edi, DWORD PTR _s_b_mark$[esp+76]
	mov	ebp, DWORD PTR _s_mark$[esp+76]
$LN248@OnRender@2:
	movss	xmm0, DWORD PTR _out_pos$[esp+76]
$LN242@OnRender@2:

; 311  : 			{
; 312  : 				break; //for
; 313  : 			}
; 314  : 		}	
; 315  : 	}
; 316  : 
; 317  : 	// ===== ==============================================
; 318  : 	pFont->SetColor ( cmd_font_color );

	mov	edx, DWORD PTR [esi+16]
	mov	eax, DWORD PTR _cmd_font_color

; 319  : 	pFont2->SetColor( cmd_font_color );
; 320  : 
; 321  : 	pFont->OutI(  -1.0f + out_pos * scr_x, ypos, "%s", s_b_mark );		out_pos += pFont->SizeOf_(s_b_mark);

	mulss	xmm0, DWORD PTR _scr_x$[esp+76]
	subss	xmm0, DWORD PTR __real@3f800000
	mov	DWORD PTR [edx+20], eax
	mov	ecx, DWORD PTR [esi+20]
	push	edi
	mov	DWORD PTR [ecx+20], eax
	fld	DWORD PTR _ypos$[esp+80]
	mov	edx, DWORD PTR [esi+16]
	push	OFFSET ??_C@_02DKCKIIND@?$CFs?$AA@
	sub	esp, 8
	fstp	DWORD PTR [esp+4]
	movss	DWORD PTR [esp], xmm0
	push	edx
	call	?OutI@CGameFont@@QAAXMMPBDZZ		; CGameFont::OutI
	mov	ecx, DWORD PTR [esi+16]
	add	esp, 20					; 00000014H
	push	edi
	call	?SizeOf_@CGameFont@@QAEMPBD@Z		; CGameFont::SizeOf_
	fadd	DWORD PTR _out_pos$[esp+76]

; 322  : 	pFont2->OutI( -1.0f + out_pos * scr_x, ypos, "%s", s_mark );		out_pos += pFont2->SizeOf_(s_mark);

	mov	eax, DWORD PTR [esi+20]
	push	ebp
	fst	DWORD PTR _out_pos$[esp+80]
	push	OFFSET ??_C@_02DKCKIIND@?$CFs?$AA@
	fld	DWORD PTR _ypos$[esp+84]
	sub	esp, 8
	fstp	DWORD PTR [esp+4]
	fmul	DWORD PTR _scr_x$[esp+92]
	fsub	DWORD PTR __real@3f800000
	fstp	DWORD PTR [esp]
	push	eax
	call	?OutI@CGameFont@@QAAXMMPBDZZ		; CGameFont::OutI
	mov	ecx, DWORD PTR [esi+20]
	add	esp, 20					; 00000014H
	push	ebp
	call	?SizeOf_@CGameFont@@QAEMPBD@Z		; CGameFont::SizeOf_
	fadd	DWORD PTR _out_pos$[esp+76]

; 323  : 	pFont->OutI(  -1.0f + out_pos * scr_x, ypos, "%s", s_mark_a );

	mov	ecx, DWORD PTR _s_mark_a$[esp+76]
	fld	DWORD PTR _ypos$[esp+76]
	mov	edx, DWORD PTR [esi+16]
	push	ecx
	push	OFFSET ??_C@_02DKCKIIND@?$CFs?$AA@
	sub	esp, 8
	fstp	DWORD PTR [esp+4]
	fmul	DWORD PTR _scr_x$[esp+92]
	fsub	DWORD PTR __real@3f800000
	fstp	DWORD PTR [esp]
	push	edx
	call	?OutI@CGameFont@@QAAXMMPBDZZ		; CGameFont::OutI

; 324  : 
; 325  : 	//pFont2->OutI( -1.0f + ioc_d * scr_x, ypos, "%s", editor=all );
; 326  : 	
; 327  : 	if( ec().cursor_view() )

	mov	eax, DWORD PTR [esi+200]
	add	esp, 20					; 00000014H
	cmp	BYTE PTR [eax+1108], 0
	pop	ebp
	je	SHORT $LN6@OnRender@2

; 328  : 	{
; 329  : 		pFont->SetColor( cursor_font_color );

	mov	ecx, DWORD PTR [esi+16]
	mov	edx, DWORD PTR _cursor_font_color

; 330  : 		pFont->OutI( -1.0f + str_length * scr_x, ypos, "%s", ch_cursor );

	movss	xmm0, DWORD PTR _str_length$[esp+72]
	mulss	xmm0, DWORD PTR _scr_x$[esp+72]
	subss	xmm0, DWORD PTR __real@3f800000
	push	OFFSET ??_C@_01IDAFKMJL@_?$AA@
	mov	DWORD PTR [ecx+20], edx
	fld	DWORD PTR _ypos$[esp+76]
	mov	eax, DWORD PTR [esi+16]
	push	OFFSET ??_C@_02DKCKIIND@?$CFs?$AA@
	sub	esp, 8
	fstp	DWORD PTR [esp+4]
	movss	DWORD PTR [esp], xmm0
	push	eax
	call	?OutI@CGameFont@@QAAXMMPBDZZ		; CGameFont::OutI
	add	esp, 20					; 00000014H
$LN6@OnRender@2:

; 331  : 	}
; 332  : 	
; 333  : 	// ---------------------
; 334  : 	u32 log_line = LogFile->size()-1;

	mov	ecx, DWORD PTR __imp_?LogFile@@3PAV?$xr_vector@Vshared_str@@V?$xalloc@Vshared_str@@@@@@A
	mov	eax, DWORD PTR [ecx]
	mov	edi, DWORD PTR [eax+4]
	sub	edi, DWORD PTR [eax]

; 335  : 	ypos -= LDIST;

	movss	xmm0, DWORD PTR _ypos$[esp+72]
	subss	xmm0, DWORD PTR _LDIST
	sar	edi, 2
	sub	edi, 1

; 336  : 	for( int i = log_line - scroll_delta; i >= 0; --i ) 

	mov	ebx, edi
	sub	ebx, DWORD PTR [esi+12]
	movss	DWORD PTR _ypos$[esp+72], xmm0
	js	SHORT $LN243@OnRender@2
	jmp	SHORT $LN5@OnRender@2
	npad	11
$LL247@OnRender@2:
	movss	xmm0, DWORD PTR _ypos$[esp+72]
$LN5@OnRender@2:

; 337  : 	{
; 338  : 		ypos -= LDIST;

	subss	xmm0, DWORD PTR _LDIST

; 339  : 		if ( ypos < -1.0f )

	movss	xmm1, DWORD PTR __real@bf800000
	comiss	xmm1, xmm0
	movss	DWORD PTR _ypos$[esp+72], xmm0
	ja	SHORT $LN243@OnRender@2

; 340  : 		{
; 341  : 			break;
; 342  : 		}
; 343  : 		LPCSTR ls = ((*LogFile)[i]).c_str();

	mov	edx, DWORD PTR __imp_?LogFile@@3PAV?$xr_vector@Vshared_str@@V?$xalloc@Vshared_str@@@@@@A
	mov	ecx, DWORD PTR [edx]
	call	?begin@?$vector@Vshared_str@@V?$xalloc@Vshared_str@@@@@stlp_std@@QAEPAVshared_str@@XZ ; stlp_std::vector<shared_str,xalloc<shared_str> >::begin
	lea	eax, DWORD PTR [eax+ebx*4]
	mov	eax, DWORD PTR [eax]
	test	eax, eax
	je	SHORT $LN4@OnRender@2
	lea	edx, DWORD PTR [eax+16]

; 344  : 		
; 345  : 		if ( !ls )

	test	edx, edx
	je	SHORT $LN4@OnRender@2

; 346  : 		{
; 347  : 			continue;
; 348  : 		}
; 349  : 		Console_mark cm = (Console_mark)ls[0];
; 350  : 		pFont->SetColor( get_mark_color( cm ) );

	movsx	eax, BYTE PTR [edx]
	push	eax
	mov	ecx, esi
	call	?get_mark_color@CConsole@@IAEIW4Console_mark@1@@Z ; CConsole::get_mark_color
	mov	ecx, DWORD PTR [esi+16]
	mov	DWORD PTR [ecx+20], eax

; 351  : 		//u8 b = (is_mark( cm ))? 2 : 0;
; 352  : 		//OutFont( ls + b, ypos );
; 353  : 		OutFont( ls, ypos );

	lea	eax, DWORD PTR _ypos$[esp+72]
	push	eax
	push	edx
	mov	ecx, esi
	call	?OutFont@CConsole@@IAEXPBDAAM@Z		; CConsole::OutFont
$LN4@OnRender@2:

; 336  : 	for( int i = log_line - scroll_delta; i >= 0; --i ) 

	sub	ebx, 1
	jns	SHORT $LL247@OnRender@2
$LN243@OnRender@2:

; 354  : 	}
; 355  : 	
; 356  : 	string16 q;
; 357  : 	itoa( log_line, q, 10 );

	push	10					; 0000000aH
	lea	ecx, DWORD PTR _q$[esp+76]
	push	ecx
	push	edi
	call	DWORD PTR __imp__itoa

; 358  : 	u32 qn = xr_strlen( q );

	lea	eax, DWORD PTR _q$[esp+84]
	add	esp, 12					; 0000000cH
	lea	ecx, DWORD PTR [eax+1]
	npad	7
$LL246@OnRender@2:
	mov	dl, BYTE PTR [eax]
	add	eax, 1
	test	dl, dl
	jne	SHORT $LL246@OnRender@2

; 359  : 	pFont->SetColor( total_font_color );

	mov	edx, DWORD PTR [esi+16]

; 360  : 	pFont->OutI( 0.95f - 0.03f * qn, fMaxY - 2.0f * LDIST, "[%d]", log_line );

	movss	xmm0, DWORD PTR _fMaxY$[esp+72]
	subss	xmm0, DWORD PTR _psShedulerReaction
	push	edi
	sub	eax, ecx
	mov	ecx, DWORD PTR _total_font_color
	push	OFFSET ??_C@_04KBDJOJNB@?$FL?$CFd?$FN?$AA@
	sub	esp, 8
	test	eax, eax
	mov	DWORD PTR tv835[esp+88], eax
	fild	DWORD PTR tv835[esp+88]
	mov	DWORD PTR [edx+20], ecx
	movss	DWORD PTR [esp+4], xmm0
	jge	SHORT $LN254@OnRender@2
	fadd	DWORD PTR __real@4f800000
$LN254@OnRender@2:
	fmul	DWORD PTR _MAX_NOISE_FREQ
	mov	edx, DWORD PTR [esi+16]
	fsubr	DWORD PTR __real@3f733333
	fstp	DWORD PTR [esp]
	push	edx
	call	?OutI@CGameFont@@QAAXMMPBDZZ		; CGameFont::OutI

; 361  : 		
; 362  : 	pFont->OnRender();

	mov	edi, DWORD PTR [esi+16]
	mov	ecx, DWORD PTR [edi+76]
	mov	eax, DWORD PTR [ecx]
	mov	edx, DWORD PTR [eax+8]
	add	esp, 20					; 00000014H
	push	edi
	call	edx
	add	edi, 64					; 00000040H
	mov	ecx, edi
	call	?end@?$_Impl_vector@UString@CGameFont@@V?$xalloc@UString@CGameFont@@@@@priv@stlp_std@@QAEPAUString@CGameFont@@XZ ; stlp_std::priv::_Impl_vector<CGameFont::String,xalloc<CGameFont::String> >::end
	mov	ecx, edi
	mov	ebx, eax
	call	?begin@?$_Impl_vector@UString@CGameFont@@V?$xalloc@UString@CGameFont@@@@@priv@stlp_std@@QAEPAUString@CGameFont@@XZ ; stlp_std::priv::_Impl_vector<CGameFont::String,xalloc<CGameFont::String> >::begin
	push	ebx
	push	eax
	mov	ecx, edi
	call	?erase@?$_Impl_vector@UString@CGameFont@@V?$xalloc@UString@CGameFont@@@@@priv@stlp_std@@QAEPAUString@CGameFont@@PAU45@0@Z ; stlp_std::priv::_Impl_vector<CGameFont::String,xalloc<CGameFont::String> >::erase

; 363  : 	pFont2->OnRender();

	mov	esi, DWORD PTR [esi+20]
	mov	ecx, DWORD PTR [esi+76]
	mov	eax, DWORD PTR [ecx]
	mov	edx, DWORD PTR [eax+8]
	push	esi
	call	edx
	add	esi, 64					; 00000040H
	mov	ecx, esi
	call	?end@?$_Impl_vector@UString@CGameFont@@V?$xalloc@UString@CGameFont@@@@@priv@stlp_std@@QAEPAUString@CGameFont@@XZ ; stlp_std::priv::_Impl_vector<CGameFont::String,xalloc<CGameFont::String> >::end
	mov	ecx, esi
	mov	edi, eax
	call	?begin@?$_Impl_vector@UString@CGameFont@@V?$xalloc@UString@CGameFont@@@@@priv@stlp_std@@QAEPAUString@CGameFont@@XZ ; stlp_std::priv::_Impl_vector<CGameFont::String,xalloc<CGameFont::String> >::begin
	push	edi
	push	eax
	mov	ecx, esi
	call	?erase@?$_Impl_vector@UString@CGameFont@@V?$xalloc@UString@CGameFont@@@@@priv@stlp_std@@QAEPAUString@CGameFont@@PAU45@0@Z ; stlp_std::priv::_Impl_vector<CGameFont::String,xalloc<CGameFont::String> >::erase
	pop	edi
	pop	ebx
$LN238@OnRender@2:
	pop	esi

; 364  : }

	add	esp, 60					; 0000003cH
	ret	0
$LN258@OnRender@2:
	DD	$LN14@OnRender@2
	DD	$LN13@OnRender@2
	DD	$LN12@OnRender@2
	DD	$LN11@OnRender@2
?OnRender@CConsole@@UAEXXZ ENDP				; CConsole::OnRender
_TEXT	ENDS
PUBLIC	??0CConsole@@QAE@XZ				; CConsole::CConsole
; Function compile flags: /Ogtpy
;	COMDAT ??0CConsole@@QAE@XZ
_TEXT	SEGMENT
$T528121 = -13						; size = 1
$T528085 = -13						; size = 1
_I$528161 = -12						; size = 12
??0CConsole@@QAE@XZ PROC				; CConsole::CConsole, COMDAT
; _this$ = ecx

; 94   : {

	sub	esp, 16					; 00000010H
	push	ebx
	push	ebp
	push	esi
	push	edi
	mov	edi, ecx
	mov	DWORD PTR [edi+4], OFFSET ??_7pureFrame@@6B@
	mov	DWORD PTR [edi+8], OFFSET ??_7pureScreenResolutionChanged@@6B@
	lea	esi, DWORD PTR [edi+8]
	xor	ebx, ebx
	lea	ecx, DWORD PTR [edi+40]
	mov	DWORD PTR [edi], OFFSET ??_7CConsole@@6BpureRender@@@
	mov	DWORD PTR [edi+4], OFFSET ??_7CConsole@@6BpureFrame@@@
	mov	DWORD PTR [esi], OFFSET ??_7CConsole@@6BpureScreenResolutionChanged@@@
	mov	DWORD PTR [edi+24], ebx
	call	??0?$xr_vector@Vshared_str@@V?$xalloc@Vshared_str@@@@@@QAE@XZ ; xr_vector<shared_str,xalloc<shared_str> >::xr_vector<shared_str,xalloc<shared_str> >
	lea	ecx, DWORD PTR [edi+64]
	mov	DWORD PTR [edi+60], ebx
	call	??0?$xr_vector@Vshared_str@@V?$xalloc@Vshared_str@@@@@@QAE@XZ ; xr_vector<shared_str,xalloc<shared_str> >::xr_vector<shared_str,xalloc<shared_str> >
	push	ebx
	lea	eax, DWORD PTR $T528085[esp+36]
	push	eax
	lea	ecx, DWORD PTR [edi+84]
	mov	DWORD PTR [edi+76], ebx
	mov	DWORD PTR [edi+80], ebx
	call	??0?$_STLP_alloc_proxy@PAUTipString@@U1@V?$xalloc@UTipString@@@@@priv@stlp_std@@QAE@ABV?$xalloc@UTipString@@@@PAUTipString@@@Z ; stlp_std::priv::_STLP_alloc_proxy<TipString *,TipString,xalloc<TipString> >::_STLP_alloc_proxy<TipString *,TipString,xalloc<TipString> >
	lea	ecx, DWORD PTR $T528121[esp+32]
	lea	ebp, DWORD PTR [edi+176]
	push	ecx
	mov	ecx, ebp
	mov	DWORD PTR [edi+92], ebx
	call	??0?$_Rb_tree_base@U?$pair@QBDPAVIConsole_Command@@@stlp_std@@V?$xalloc@U?$pair@PBDPAVIConsole_Command@@@stlp_std@@@@@priv@stlp_std@@IAE@ABV?$xalloc@U?$pair@QBDPAVIConsole_Command@@@stlp_std@@@@@Z ; stlp_std::priv::_Rb_tree_base<stlp_std::pair<char const * const,IConsole_Command *>,xalloc<stlp_std::pair<char const *,IConsole_Command *> > >::_Rb_tree_base<stlp_std::pair<char const * const,IConsole_Command *>,xalloc<stlp_std::pair<char const *,IConsole_Command *> > >
	mov	DWORD PTR [ebp+16], ebx

; 95   : 	m_editor          = xr_new<text_editor::line_editor>( (u32)CONSOLE_BUF_SIZE );

	mov	ecx, DWORD PTR __imp_?Memory@@3VxrMemory@@A
	push	1112					; 00000458H
	call	DWORD PTR __imp_?mem_alloc@xrMemory@@QAEPAXI@Z
	mov	ebp, eax
	cmp	ebp, ebx
	je	SHORT $LN67@CConsole@3
	push	1024					; 00000400H
	lea	ecx, DWORD PTR [ebp+4]
	mov	DWORD PTR [ebp], OFFSET ??_7line_editor@text_editor@@6B@
	call	??0line_edit_control@text_editor@@QAE@I@Z ; text_editor::line_edit_control::line_edit_control
	jmp	SHORT $LN68@CConsole@3
$LN67@CConsole@3:
	xor	ebp, ebp
$LN68@CConsole@3:

; 96   : 	m_cmd_history_max = cmd_history_max;
; 97   : 	m_disable_tips    = false;
; 98   : 	Register_callbacks();

	mov	ecx, edi
	mov	DWORD PTR [edi+200], ebp
	mov	DWORD PTR [edi+52], 64			; 00000040H
	mov	BYTE PTR [edi+36], bl
	call	?Register_callbacks@CConsole@@IAEXXZ	; CConsole::Register_callbacks

; 99   : 	Device.seqResolutionChanged.Add(this);

	lea	edx, DWORD PTR _I$528161[esp+32]
	push	edx
	mov	ecx, OFFSET ?Device@@3VCRenderDevice@@A+744
	mov	DWORD PTR _I$528161[esp+36], esi
	mov	DWORD PTR _I$528161[esp+40], 572662306	; 22222222H
	mov	DWORD PTR _I$528161[esp+44], ebx
	call	?push_back@?$vector@U_REG_INFO@@V?$xalloc@U_REG_INFO@@@@@stlp_std@@QAEXABU_REG_INFO@@@Z ; stlp_std::vector<_REG_INFO,xalloc<_REG_INFO> >::push_back
	test	BYTE PTR ?Device@@3VCRenderDevice@@A+756, 1
	je	SHORT $LN76@CConsole@3
	or	DWORD PTR ?Device@@3VCRenderDevice@@A+756, 2

; 100  : }

	mov	eax, edi
	pop	edi
	pop	esi
	pop	ebp
	pop	ebx
	add	esp, 16					; 00000010H
	ret	0

; 99   : 	Device.seqResolutionChanged.Add(this);

$LN76@CConsole@3:
	mov	esi, OFFSET ?Device@@3VCRenderDevice@@A+744
	call	?Resort@?$CRegistrator@VpureScreenResolutionChanged@@@@QAEXXZ ; CRegistrator<pureScreenResolutionChanged>::Resort

; 100  : }

	mov	eax, edi
	pop	edi
	pop	esi
	pop	ebp
	pop	ebx
	add	esp, 16					; 00000010H
	ret	0
??0CConsole@@QAE@XZ ENDP				; CConsole::CConsole
PUBLIC	?ExecuteScript@CConsole@@QAEXPBD@Z		; CConsole::ExecuteScript
; Function compile flags: /Ogtpy
;	COMDAT ?ExecuteScript@CConsole@@QAEXPBD@Z
_TEXT	SEGMENT
_this$ = -4						; size = 4
_str$ = 8						; size = 4
?ExecuteScript@CConsole@@QAEXPBD@Z PROC			; CConsole::ExecuteScript, COMDAT
; _this$ = ecx

; 680  : {

	push	ebp
	mov	ebp, esp
	push	ecx

; 681  : 	u32  str_size = xr_strlen( str );

	mov	eax, DWORD PTR _str$[ebp]
	push	ebx
	push	esi
	push	edi
	mov	DWORD PTR _this$[ebp], ecx
	lea	edx, DWORD PTR [eax+1]
$LL19@ExecuteScr:
	mov	cl, BYTE PTR [eax]
	add	eax, 1
	test	cl, cl
	jne	SHORT $LL19@ExecuteScr
	sub	eax, edx
	mov	ebx, eax

; 682  : 	PSTR buf = (PSTR)_alloca( (str_size + 10) * sizeof(char) );

	lea	esi, DWORD PTR [ebx+10]
	mov	eax, esi
	call	__alloca_probe_16
	mov	edi, esp

; 683  : 	xr_strcpy( buf, str_size + 10, "cfg_load " );

	push	esi
	push	OFFSET ??_C@_09DLPLBIKN@cfg_load?5?$AA@
	push	esi
	push	edi
	call	DWORD PTR __imp__strncpy_s

; 684  : 	xr_strcat( buf, str_size + 10, str );

	mov	eax, edi
	add	esp, 16					; 00000010H
	lea	edx, DWORD PTR [eax+1]
	npad	1
$LL20@ExecuteScr:
	mov	cl, BYTE PTR [eax]
	add	eax, 1
	test	cl, cl
	jne	SHORT $LL20@ExecuteScr
	sub	eax, edx
	add	eax, edi
	lea	esi, DWORD PTR [edi+ebx+9]
	cmp	eax, esi
	ja	SHORT $LN11@ExecuteScr
	mov	ecx, DWORD PTR _str$[ebp]
	cmp	BYTE PTR [ecx], 0
	je	SHORT $LN7@ExecuteScr
	sub	ecx, eax
	npad	1
$LL9@ExecuteScr:
	cmp	eax, esi
	je	SHORT $LN7@ExecuteScr
	mov	dl, BYTE PTR [ecx+eax]
	mov	BYTE PTR [eax], dl
	add	eax, 1
	cmp	BYTE PTR [ecx+eax], 0
	jne	SHORT $LL9@ExecuteScr
$LN7@ExecuteScr:
	mov	BYTE PTR [eax], 0
$LN11@ExecuteScr:

; 685  : 	Execute( buf );

	mov	ecx, DWORD PTR _this$[ebp]
	push	0
	push	edi
	call	?ExecuteCommand@CConsole@@QAEXPBD_N@Z	; CConsole::ExecuteCommand

; 686  : }

	lea	esp, DWORD PTR [ebp-16]
	pop	edi
	pop	esi
	pop	ebx
	mov	esp, ebp
	pop	ebp
	ret	4
?ExecuteScript@CConsole@@QAEXPBD@Z ENDP			; CConsole::ExecuteScript
_TEXT	ENDS
PUBLIC	?Show@CConsole@@QAEXXZ				; CConsole::Show
; Function compile flags: /Ogtpy
;	COMDAT ?Show@CConsole@@QAEXXZ
_TEXT	SEGMENT
_I$543598 = -12						; size = 12
?Show@CConsole@@QAEXXZ PROC				; CConsole::Show, COMDAT
; _this$ = ecx

; 608  : {

	sub	esp, 16					; 00000010H
	push	ebx
	push	esi
	push	edi
	mov	edi, ecx

; 609  : 	SECUROM_MARKER_HIGH_SECURITY_ON(11)

	DB	-21					; ffffffebH
	DB	14					; 0000000eH
	DB	77					; 0000004dH
	DB	97					; 00000061H
	DB	48					; 00000030H
	DB	87					; 00000057H
	DB	121					; 00000079H
	DB	71					; 00000047H
	DB	49					; 00000031H
	DB	107					; 0000006bH
	DB	109					; 0000006dH
	DB	33					; 00000021H
	DB	11					; 0000000bH
	DB	0
	DB	0
	DB	0

; 610  : 
; 611  : 	if ( bVisible )

	xor	ebx, ebx
	cmp	BYTE PTR [edi+172], bl
	jne	$LN2@Show@3

; 612  : 	{
; 613  : 		return;
; 614  : 	}
; 615  : 	bVisible = true;
; 616  : 	
; 617  : 	GetCursorPos( &m_mouse_pos );

	lea	eax, DWORD PTR [edi+28]
	push	eax
	mov	BYTE PTR [edi+172], 1
	call	DWORD PTR __imp__GetCursorPos@4

; 618  : 
; 619  : 	ec().clear_states();

	mov	ecx, DWORD PTR [edi+200]
	add	ecx, 4
	call	?clear_states@line_edit_control@text_editor@@QAEXXZ ; text_editor::line_edit_control::clear_states

; 620  : 	scroll_delta	= 0;
; 621  : 	reset_cmd_history_idx();

	or	eax, -1

; 622  : 	reset_selected_tip();
; 623  : 	update_tips();

	mov	ecx, edi
	mov	DWORD PTR [edi+12], ebx
	mov	DWORD PTR [edi+56], eax
	mov	DWORD PTR [edi+96], eax
	mov	DWORD PTR [edi+100], ebx
	mov	BYTE PTR [edi+36], bl
	call	?update_tips@CConsole@@IAEXXZ		; CConsole::update_tips

; 624  : 
; 625  : 	m_editor->IR_Capture();

	mov	ecx, DWORD PTR [edi+200]
	push	ecx
	mov	ecx, DWORD PTR ?pInput@@3PAVCInput@@A	; pInput
	call	?iCapture@CInput@@QAEXPAVIInputReceiver@@@Z ; CInput::iCapture

; 626  : 	Device.seqRender.Add( this, 1 );

	lea	edx, DWORD PTR _I$543598[esp+28]
	push	edx
	mov	ecx, OFFSET ?Device@@3VCRenderDevice@@A+648
	mov	DWORD PTR _I$543598[esp+32], edi
	mov	DWORD PTR _I$543598[esp+36], 1
	mov	DWORD PTR _I$543598[esp+40], ebx
	call	?push_back@?$vector@U_REG_INFO@@V?$xalloc@U_REG_INFO@@@@@stlp_std@@QAEXABU_REG_INFO@@@Z ; stlp_std::vector<_REG_INFO,xalloc<_REG_INFO> >::push_back
	test	BYTE PTR ?Device@@3VCRenderDevice@@A+660, 1
	je	SHORT $LN20@Show@3
	or	DWORD PTR ?Device@@3VCRenderDevice@@A+660, 2
	jmp	SHORT $LN19@Show@3
$LN20@Show@3:
	mov	esi, OFFSET ?Device@@3VCRenderDevice@@A+648
	call	?Resort@?$CRegistrator@VpureRender@@@@QAEXXZ ; CRegistrator<pureRender>::Resort
$LN19@Show@3:

; 627  : 	Device.seqFrame.Add( this );

	push	ebx
	push	572662306				; 22222222H
	add	edi, 4
	push	edi
	mov	ecx, OFFSET ?Device@@3VCRenderDevice@@A+728
	call	?Add@?$CRegistrator@VpureFrame@@@@QAEXPAVpureFrame@@HI@Z ; CRegistrator<pureFrame>::Add

; 628  : 
; 629  : 	SECUROM_MARKER_HIGH_SECURITY_OFF(11)

	DB	-21					; ffffffebH
	DB	14					; 0000000eH
	DB	77					; 0000004dH
	DB	97					; 00000061H
	DB	48					; 00000030H
	DB	87					; 00000057H
	DB	121					; 00000079H
	DB	71					; 00000047H
	DB	49					; 00000031H
	DB	107					; 0000006bH
	DB	109					; 0000006dH
	DB	34					; 00000022H
	DB	11					; 0000000bH
	DB	0
	DB	0
	DB	0
$LN2@Show@3:

; 630  : }

	pop	edi
	pop	esi
	pop	ebx
	add	esp, 16					; 00000010H
	ret	0
?Show@CConsole@@QAEXXZ ENDP				; CConsole::Show
; Function compile flags: /Ogtpy
;	COMDAT ?Initialize@CConsole@@UAEXXZ
_TEXT	SEGMENT
?Initialize@CConsole@@UAEXXZ PROC			; CConsole::Initialize, COMDAT
; _this$ = ecx

; 103  : {

	push	ecx

; 104  : 	scroll_delta	= 0;
; 105  : 	bVisible		= false;
; 106  : 	pFont			= NULL;
; 107  : 	pFont2			= NULL;
; 108  : 
; 109  : 	m_mouse_pos.x	= 0;
; 110  : 	m_mouse_pos.y	= 0;
; 111  : 	m_last_cmd		= NULL;

	mov	eax, DWORD PTR __imp_?g_pStringContainer@@3PAVstr_container@@A
	push	ebx
	push	ebp
	xor	ebx, ebx
	push	esi
	push	edi
	mov	edi, ecx
	mov	DWORD PTR [edi+12], ebx
	mov	BYTE PTR [edi+172], bl
	mov	DWORD PTR [edi+16], ebx
	mov	DWORD PTR [edi+20], ebx
	mov	DWORD PTR [edi+28], ebx
	mov	DWORD PTR [edi+32], ebx
	mov	ecx, DWORD PTR [eax]
	push	ebx
	call	DWORD PTR __imp_?dock@str_container@@QAEPAUstr_value@@PBD@Z
	cmp	eax, ebx
	je	SHORT $LN5@Initialize@7
	add	DWORD PTR [eax], 1
$LN5@Initialize@7:
	mov	ecx, DWORD PTR [edi+60]
	cmp	ecx, ebx
	je	SHORT $LN8@Initialize@7
	add	DWORD PTR [ecx], -1
	mov	ecx, DWORD PTR [edi+60]
	cmp	DWORD PTR [ecx], ebx
	jne	SHORT $LN8@Initialize@7
	mov	DWORD PTR [edi+60], ebx
$LN8@Initialize@7:
	mov	DWORD PTR [edi+60], eax

; 112  : 	
; 113  : 	m_cmd_history.reserve( m_cmd_history_max + 2 );

	mov	edx, DWORD PTR [edi+52]
	add	edx, 2
	lea	esi, DWORD PTR [edi+40]
	push	edx
	mov	ecx, esi
	call	?reserve@?$vector@Vshared_str@@V?$xalloc@Vshared_str@@@@@stlp_std@@QAEXI@Z ; stlp_std::vector<shared_str,xalloc<shared_str> >::reserve

; 114  : 	m_cmd_history.clear_not_free();

	mov	ecx, esi
	call	?clear_not_free@?$xr_vector@Vshared_str@@V?$xalloc@Vshared_str@@@@@@QAEXXZ ; xr_vector<shared_str,xalloc<shared_str> >::clear_not_free

; 115  : 	reset_cmd_history_idx();
; 116  : 
; 117  : 	m_tips.reserve( MAX_TIPS_COUNT + 1 );

	lea	esi, DWORD PTR [edi+76]
	mov	DWORD PTR [edi+56], -1
	call	?reserve@?$_Impl_vector@UTipString@@V?$xalloc@UTipString@@@@@priv@stlp_std@@QAEXI@Z ; stlp_std::priv::_Impl_vector<TipString,xalloc<TipString> >::reserve

; 118  : 	m_tips.clear_not_free();

	mov	ecx, esi
	call	?end@?$_Impl_vector@UTipString@@V?$xalloc@UTipString@@@@@priv@stlp_std@@QAEPAUTipString@@XZ ; stlp_std::priv::_Impl_vector<TipString,xalloc<TipString> >::end
	mov	ecx, esi
	mov	ebp, eax
	call	?begin@?$_Impl_vector@UTipString@@V?$xalloc@UTipString@@@@@priv@stlp_std@@QAEPAUTipString@@XZ ; stlp_std::priv::_Impl_vector<TipString,xalloc<TipString> >::begin
	cmp	eax, ebp
	je	SHORT $LN64@Initialize@7
	push	eax
	push	esi
	mov	eax, ebp
	call	?_M_erase@?$_Impl_vector@UTipString@@V?$xalloc@UTipString@@@@@priv@stlp_std@@AAEPAUTipString@@PAU4@0ABU__false_type@3@@Z ; stlp_std::priv::_Impl_vector<TipString,xalloc<TipString> >::_M_erase
$LN64@Initialize@7:

; 119  : 	m_temp_tips.reserve( MAX_TIPS_COUNT + 1 );

	lea	esi, DWORD PTR [edi+64]
	push	221					; 000000ddH
	mov	ecx, esi
	call	?reserve@?$vector@Vshared_str@@V?$xalloc@Vshared_str@@@@@stlp_std@@QAEXI@Z ; stlp_std::vector<shared_str,xalloc<shared_str> >::reserve

; 120  : 	m_temp_tips.clear_not_free();

	mov	ecx, esi
	call	?clear_not_free@?$xr_vector@Vshared_str@@V?$xalloc@Vshared_str@@@@@@QAEXXZ ; xr_vector<shared_str,xalloc<shared_str> >::clear_not_free

; 121  : 
; 122  : 	m_tips_mode		= 0;
; 123  : 	m_prev_length_str = 0;
; 124  : 	m_cur_cmd		= NULL;

	mov	eax, DWORD PTR __imp_?g_pStringContainer@@3PAVstr_container@@A
	mov	DWORD PTR [edi+88], ebx
	mov	DWORD PTR [edi+104], ebx
	mov	ecx, DWORD PTR [eax]
	push	ebx
	call	DWORD PTR __imp_?dock@str_container@@QAEPAUstr_value@@PBD@Z
	cmp	eax, ebx
	je	SHORT $LN97@Initialize@7
	add	DWORD PTR [eax], 1
$LN97@Initialize@7:
	mov	ecx, DWORD PTR [edi+92]
	cmp	ecx, ebx
	je	SHORT $LN100@Initialize@7
	add	DWORD PTR [ecx], -1
	mov	ecx, DWORD PTR [edi+92]
	cmp	DWORD PTR [ecx], ebx
	jne	SHORT $LN100@Initialize@7
	mov	DWORD PTR [edi+92], ebx
$LN100@Initialize@7:
	mov	DWORD PTR [edi+92], eax

; 125  : 	reset_selected_tip();

	mov	DWORD PTR [edi+96], -1
	mov	DWORD PTR [edi+100], ebx
	mov	BYTE PTR [edi+36], bl

; 126  : 
; 127  : 	// Commands
; 128  : 	extern void CCC_Register();
; 129  : 	CCC_Register();

	call	?CCC_Register@@YAXXZ			; CCC_Register

; 130  : }

	pop	edi
	pop	esi
	pop	ebp
	pop	ebx
	pop	ecx
	ret	0
?Initialize@CConsole@@UAEXXZ ENDP			; CConsole::Initialize
	ORG $+8
_prompt_font_color DD 0ffe4e4ffH
_tips_font_color DD 0ffe6fae6H
_cmd_font_color DD 0ff8a8af5H
_cursor_font_color DD 0ffffffffH
_total_font_color DD 0b4fafa0fH
_default_font_color DD 0fafafafaH
_back_color DD	0c8141414H
_tips_back_color DD 0c8141414H
_tips_select_color DD 0e65a5a8cH
_tips_word_color DD 0c8056438H
_tips_scroll_back_color DD 0e60f0f0fH
_tips_scroll_pos_color DD 0f0464646H
END
