; Listing generated by Microsoft (R) Optimizing Compiler Version 14.00.50727.762 

	TITLE	D:\CLEARSKY\sources\engine\xrEngine\XR_IOConsole.cpp
	.686P
	.XMM
	include listing.inc
	.model	flat

INCLUDELIB OLDNAMES

PUBLIC	??_C@_04IMEJGNKP@?$DO?$DO?$DO?5?$AA@		; `string'
PUBLIC	?OnScreenResolutionChanged@CConsole@@UAEXXZ	; CConsole::OnScreenResolutionChanged
PUBLIC	?OnFrame@CConsole@@UAGXXZ			; CConsole::OnFrame
PUBLIC	?Destroy@CConsole@@UAEXXZ			; CConsole::Destroy
PUBLIC	?Initialize@CConsole@@UAEXXZ			; CConsole::Initialize
PUBLIC	?OnRender@CConsole@@UAEXXZ			; CConsole::OnRender
PUBLIC	?set@?$_rect@M@@QAEAAU1@MMMM@Z			; _rect<float>::set
PUBLIC	?null@?$_rect@M@@QAEAAU1@XZ			; _rect<float>::null
PUBLIC	??D?$FactoryPtr@VIUIShader@@@@QBEAAVIUIShader@@XZ ; FactoryPtr<IUIShader>::operator*
PUBLIC	??$_min@I@@YAIII@Z				; _min<unsigned int>
PUBLIC	??0?$_Rb_tree@PBDUstr_pred@CConsole@@U?$pair@QBDPAVIConsole_Command@@@stlp_std@@U?$_Select1st@U?$pair@QBDPAVIConsole_Command@@@stlp_std@@@priv@4@U?$_MapTraitsT@U?$pair@QBDPAVIConsole_Command@@@stlp_std@@@64@V?$xalloc@U?$pair@PBDPAVIConsole_Command@@@stlp_std@@@@@priv@stlp_std@@QAE@ABUstr_pred@CConsole@@ABV?$xalloc@U?$pair@QBDPAVIConsole_Command@@@stlp_std@@@@@Z ; stlp_std::priv::_Rb_tree<char const *,CConsole::str_pred,stlp_std::pair<char const * const,IConsole_Command *>,stlp_std::priv::_Select1st<stlp_std::pair<char const * const,IConsole_Command *> >,stlp_std::priv::_MapTraitsT<stlp_std::pair<char const * const,IConsole_Command *> >,xalloc<stlp_std::pair<char const *,IConsole_Command *> > >::_Rb_tree<char const *,CConsole::str_pred,stlp_std::pair<char const * const,IConsole_Command *>,stlp_std::priv::_Select1st<stlp_std::pair<char const * const,IConsole_Command *> >,stlp_std::priv::_MapTraitsT<stlp_std::pair<char const * const,IConsole_Command *> >,xalloc<stlp_std::pair<char const *,IConsole_Command *> > >
PUBLIC	??0?$xalloc@U?$pair@QBDPAVIConsole_Command@@@stlp_std@@@@QAE@XZ ; xalloc<stlp_std::pair<char const * const,IConsole_Command *> >::xalloc<stlp_std::pair<char const * const,IConsole_Command *> >
PUBLIC	??0?$map@PBDPAVIConsole_Command@@Ustr_pred@CConsole@@V?$xalloc@U?$pair@PBDPAVIConsole_Command@@@stlp_std@@@@@stlp_std@@QAE@XZ ; stlp_std::map<char const *,IConsole_Command *,CConsole::str_pred,xalloc<stlp_std::pair<char const *,IConsole_Command *> > >::map<char const *,IConsole_Command *,CConsole::str_pred,xalloc<stlp_std::pair<char const *,IConsole_Command *> > >
PUBLIC	??0?$xr_map@PBDPAVIConsole_Command@@Ustr_pred@CConsole@@V?$xalloc@U?$pair@PBDPAVIConsole_Command@@@stlp_std@@@@@@QAE@XZ ; xr_map<char const *,IConsole_Command *,CConsole::str_pred,xalloc<stlp_std::pair<char const *,IConsole_Command *> > >::xr_map<char const *,IConsole_Command *,CConsole::str_pred,xalloc<stlp_std::pair<char const *,IConsole_Command *> > >
PUBLIC	??0?$xalloc@UTipString@@@@QAE@XZ		; xalloc<TipString>::xalloc<TipString>
PUBLIC	??0?$_Vector_base@UTipString@@V?$xalloc@UTipString@@@@@priv@stlp_std@@QAE@ABV?$xalloc@UTipString@@@@@Z ; stlp_std::priv::_Vector_base<TipString,xalloc<TipString> >::_Vector_base<TipString,xalloc<TipString> >
PUBLIC	??0?$_Impl_vector@UTipString@@V?$xalloc@UTipString@@@@@priv@stlp_std@@QAE@ABV?$xalloc@UTipString@@@@@Z ; stlp_std::priv::_Impl_vector<TipString,xalloc<TipString> >::_Impl_vector<TipString,xalloc<TipString> >
PUBLIC	??0?$vector@UTipString@@V?$xalloc@UTipString@@@@@stlp_std@@QAE@ABV?$xalloc@UTipString@@@@@Z ; stlp_std::vector<TipString,xalloc<TipString> >::vector<TipString,xalloc<TipString> >
PUBLIC	??0?$xr_vector@UTipString@@V?$xalloc@UTipString@@@@@@QAE@XZ ; xr_vector<TipString,xalloc<TipString> >::xr_vector<TipString,xalloc<TipString> >
PUBLIC	??$xr_new@Vline_editor@text_editor@@I@@YAPAVline_editor@text_editor@@ABI@Z ; xr_new<text_editor::line_editor,unsigned int>
PUBLIC	?rbegin@?$vector@Vshared_str@@V?$xalloc@Vshared_str@@@@@stlp_std@@QAE?AV?$reverse_iterator@PAVshared_str@@@2@XZ ; stlp_std::vector<shared_str,xalloc<shared_str> >::rbegin
PUBLIC	?empty@?$_Impl_vector@Vshared_str@@V?$xalloc@Vshared_str@@@@@priv@stlp_std@@QBE_NXZ ; stlp_std::priv::_Impl_vector<shared_str,xalloc<shared_str> >::empty
PUBLIC	?empty@?$vector@Vshared_str@@V?$xalloc@Vshared_str@@@@@stlp_std@@QBE_NXZ ; stlp_std::vector<shared_str,xalloc<shared_str> >::empty
PUBLIC	??H?$reverse_iterator@PAVshared_str@@@stlp_std@@QBE?AV01@H@Z ; stlp_std::reverse_iterator<shared_str *>::operator+
PUBLIC	?control@line_editor@text_editor@@QAEAAVline_edit_control@2@XZ ; text_editor::line_editor::control
PUBLIC	??$_M_lower_bound@PAD@?$_Rb_tree@PBDUstr_pred@CConsole@@U?$pair@QBDPAVIConsole_Command@@@stlp_std@@U?$_Select1st@U?$pair@QBDPAVIConsole_Command@@@stlp_std@@@priv@4@U?$_MapTraitsT@U?$pair@QBDPAVIConsole_Command@@@stlp_std@@@64@V?$xalloc@U?$pair@PBDPAVIConsole_Command@@@stlp_std@@@@@priv@stlp_std@@ABEPAU_Rb_tree_node_base@12@ABQAD@Z ; stlp_std::priv::_Rb_tree<char const *,CConsole::str_pred,stlp_std::pair<char const * const,IConsole_Command *>,stlp_std::priv::_Select1st<stlp_std::pair<char const * const,IConsole_Command *> >,stlp_std::priv::_MapTraitsT<stlp_std::pair<char const * const,IConsole_Command *> >,xalloc<stlp_std::pair<char const *,IConsole_Command *> > >::_M_lower_bound<char *>
PUBLIC	??$lower_bound@PAD@?$_Rb_tree@PBDUstr_pred@CConsole@@U?$pair@QBDPAVIConsole_Command@@@stlp_std@@U?$_Select1st@U?$pair@QBDPAVIConsole_Command@@@stlp_std@@@priv@4@U?$_MapTraitsT@U?$pair@QBDPAVIConsole_Command@@@stlp_std@@@64@V?$xalloc@U?$pair@PBDPAVIConsole_Command@@@stlp_std@@@@@priv@stlp_std@@QAE?AU?$_Rb_tree_iterator@U?$pair@QBDPAVIConsole_Command@@@stlp_std@@U?$_MapTraitsT@U?$pair@QBDPAVIConsole_Command@@@stlp_std@@@priv@2@@12@ABQAD@Z ; stlp_std::priv::_Rb_tree<char const *,CConsole::str_pred,stlp_std::pair<char const * const,IConsole_Command *>,stlp_std::priv::_Select1st<stlp_std::pair<char const * const,IConsole_Command *> >,stlp_std::priv::_MapTraitsT<stlp_std::pair<char const * const,IConsole_Command *> >,xalloc<stlp_std::pair<char const *,IConsole_Command *> > >::lower_bound<char *>
PUBLIC	??$lower_bound@PAD@?$map@PBDPAVIConsole_Command@@Ustr_pred@CConsole@@V?$xalloc@U?$pair@PBDPAVIConsole_Command@@@stlp_std@@@@@stlp_std@@QAE?AU?$_Rb_tree_iterator@U?$pair@QBDPAVIConsole_Command@@@stlp_std@@U?$_MapTraitsT@U?$pair@QBDPAVIConsole_Command@@@stlp_std@@@priv@2@@priv@1@ABQAD@Z ; stlp_std::map<char const *,IConsole_Command *,CConsole::str_pred,xalloc<stlp_std::pair<char const *,IConsole_Command *> > >::lower_bound<char *>
PUBLIC	?back@?$_Impl_vector@UTipString@@V?$xalloc@UTipString@@@@@priv@stlp_std@@QAEAAUTipString@@XZ ; stlp_std::priv::_Impl_vector<TipString,xalloc<TipString> >::back
PUBLIC	?to_value_type_ref@?$_CastTraits@UTipString@@U1@@priv@stlp_std@@SAAAUTipString@@AAU4@@Z ; stlp_std::priv::_CastTraits<TipString,TipString>::to_value_type_ref
PUBLIC	?back@?$vector@UTipString@@V?$xalloc@UTipString@@@@@stlp_std@@QAEAAUTipString@@XZ ; stlp_std::vector<TipString,xalloc<TipString> >::back
PUBLIC	??0?$pair@PBDI@stlp_std@@QAE@XZ			; stlp_std::pair<char const *,unsigned int>::pair<char const *,unsigned int>
PUBLIC	?length@?$helper@$0A@@string_tupples@detail@core@xray@@SAIPBD@Z ; xray::core::detail::string_tupples::helper<0>::length
PUBLIC	?string@?$helper@$0A@@string_tupples@detail@core@xray@@SAPBDPBD@Z ; xray::core::detail::string_tupples::helper<0>::string
PUBLIC	??$add_string@PBD@?$helper@$0A@@string_tupples@detail@core@xray@@SAXAAV1234@PBD@Z ; xray::core::detail::string_tupples::helper<0>::add_string<char const *>
PUBLIC	?length@?$helper@$00@string_tupples@detail@core@xray@@SAIPBD@Z ; xray::core::detail::string_tupples::helper<1>::length
PUBLIC	?string@?$helper@$00@string_tupples@detail@core@xray@@SAPBDPBD@Z ; xray::core::detail::string_tupples::helper<1>::string
PUBLIC	??0?$pair@PBDI@stlp_std@@QAE@ABQBDABI@Z		; stlp_std::pair<char const *,unsigned int>::pair<char const *,unsigned int>
PUBLIC	??$make_pair@PBDI@stlp_std@@YA?AU?$pair@PBDI@0@PBDI@Z ; stlp_std::make_pair<char const *,unsigned int>
PUBLIC	??$add_string@PBD@?$helper@$00@string_tupples@detail@core@xray@@SAXAAV1234@PBD@Z ; xray::core::detail::string_tupples::helper<1>::add_string<char const *>
PUBLIC	??$?0PBDPBD@string_tupples@detail@core@xray@@QAE@PBD0@Z ; xray::core::detail::string_tupples::string_tupples<char const *,char const *>
PUBLIC	?clear@?$map@PBDPAVIConsole_Command@@Ustr_pred@CConsole@@V?$xalloc@U?$pair@PBDPAVIConsole_Command@@@stlp_std@@@@@stlp_std@@QAEXXZ ; stlp_std::map<char const *,IConsole_Command *,CConsole::str_pred,xalloc<stlp_std::pair<char const *,IConsole_Command *> > >::clear
PUBLIC	?_M_throw_length_error@?$_Vector_base@UTipString@@V?$xalloc@UTipString@@@@@priv@stlp_std@@IBEXXZ ; stlp_std::priv::_Vector_base<TipString,xalloc<TipString> >::_M_throw_length_error
PUBLIC	?max_size@?$xalloc@UTipString@@@@QBEIXZ		; xalloc<TipString>::max_size
PUBLIC	?max_size@?$_Impl_vector@UTipString@@V?$xalloc@UTipString@@@@@priv@stlp_std@@QBEIXZ ; stlp_std::priv::_Impl_vector<TipString,xalloc<TipString> >::max_size
PUBLIC	?_Answer@?$_BothPtrType@PAUTipString@@PAU1@@stlp_std@@SA?AU__true_type@2@XZ ; stlp_std::_BothPtrType<TipString *,TipString *>::_Answer
PUBLIC	??$__ucopy_aux@PAUTipString@@PAU1@@priv@stlp_std@@YAPAUTipString@@PAU2@00ABU__true_type@1@@Z ; stlp_std::priv::__ucopy_aux<TipString *,TipString *>
PUBLIC	??$uninitialized_copy@PAUTipString@@PAU1@@stlp_std@@YAPAUTipString@@PAU1@00@Z ; stlp_std::uninitialized_copy<TipString *,TipString *>
PUBLIC	??$_M_allocate_and_copy@PAUTipString@@@?$_Impl_vector@UTipString@@V?$xalloc@UTipString@@@@@priv@stlp_std@@AAEPAUTipString@@AAIPAU3@1@Z ; stlp_std::priv::_Impl_vector<TipString,xalloc<TipString> >::_M_allocate_and_copy<TipString *>
PUBLIC	?reserve@?$_Impl_vector@UTipString@@V?$xalloc@UTipString@@@@@priv@stlp_std@@QAEXI@Z ; stlp_std::priv::_Impl_vector<TipString,xalloc<TipString> >::reserve
PUBLIC	?reserve@?$vector@UTipString@@V?$xalloc@UTipString@@@@@stlp_std@@QAEXI@Z ; stlp_std::vector<TipString,xalloc<TipString> >::reserve
PUBLIC	?begin@?$map@PBDPAVIConsole_Command@@Ustr_pred@CConsole@@V?$xalloc@U?$pair@PBDPAVIConsole_Command@@@stlp_std@@@@@stlp_std@@QAE?AU?$_Rb_tree_iterator@U?$pair@QBDPAVIConsole_Command@@@stlp_std@@U?$_MapTraitsT@U?$pair@QBDPAVIConsole_Command@@@stlp_std@@@priv@2@@priv@2@XZ ; stlp_std::map<char const *,IConsole_Command *,CConsole::str_pred,xalloc<stlp_std::pair<char const *,IConsole_Command *> > >::begin
PUBLIC	??8TipString@@QAE_NABVshared_str@@@Z		; TipString::operator==
PUBLIC	??$__find@PAUTipString@@Vshared_str@@@priv@stlp_std@@YAPAUTipString@@PAU2@0ABVshared_str@@ABUrandom_access_iterator_tag@1@@Z ; stlp_std::priv::__find<TipString *,shared_str>
PUBLIC	??$find@PAUTipString@@Vshared_str@@@stlp_std@@YAPAUTipString@@PAU1@0ABVshared_str@@@Z ; stlp_std::find<TipString *,shared_str>
PUBLIC	??C?$FactoryPtr@VIUIShader@@@@QBEPAVIUIShader@@XZ ; FactoryPtr<IUIShader>::operator->
PUBLIC	?CreateObject@?$FactoryPtr@VIUIShader@@@@AAEXXZ	; FactoryPtr<IUIShader>::CreateObject
PUBLIC	??0?$FactoryPtr@VIUIShader@@@@QAE@XZ		; FactoryPtr<IUIShader>::FactoryPtr<IUIShader>
PUBLIC	??$xr_new@V?$FactoryPtr@VIUIShader@@@@@@YAPAV?$FactoryPtr@VIUIShader@@@@XZ ; xr_new<FactoryPtr<IUIShader> >
PUBLIC	??$xr_new@VCGameFont@@$$BY0M@$$CBDW4<unnamed-tag>@1@@@YAPAVCGameFont@@AAY0M@$$CBDABW4<unnamed-tag>@0@@Z ; xr_new<CGameFont,char const [12],enum CGameFont::<unnamed-tag> >
PUBLIC	??$xr_new@VCGameFont@@$$BY0N@$$CBDW4<unnamed-tag>@1@@@YAPAVCGameFont@@AAY0N@$$CBDABW4<unnamed-tag>@0@@Z ; xr_new<CGameFont,char const [13],enum CGameFont::<unnamed-tag> >
PUBLIC	?size@?$vector@UTipString@@V?$xalloc@UTipString@@@@@stlp_std@@QBEIXZ ; stlp_std::vector<TipString,xalloc<TipString> >::size
PUBLIC	?size@?$xr_vector@UTipString@@V?$xalloc@UTipString@@@@@@QBEIXZ ; xr_vector<TipString,xalloc<TipString> >::size
PUBLIC	??C?$_Rb_tree_iterator@U?$pair@QBDPAVIConsole_Command@@@stlp_std@@U?$_MapTraitsT@U?$pair@QBDPAVIConsole_Command@@@stlp_std@@@priv@2@@priv@stlp_std@@QBEPAU?$pair@QBDPAVIConsole_Command@@@2@XZ ; stlp_std::priv::_Rb_tree_iterator<stlp_std::pair<char const * const,IConsole_Command *>,stlp_std::priv::_MapTraitsT<stlp_std::pair<char const * const,IConsole_Command *> > >::operator->
PUBLIC	??$_M_find@PAD@?$_Rb_tree@PBDUstr_pred@CConsole@@U?$pair@QBDPAVIConsole_Command@@@stlp_std@@U?$_Select1st@U?$pair@QBDPAVIConsole_Command@@@stlp_std@@@priv@4@U?$_MapTraitsT@U?$pair@QBDPAVIConsole_Command@@@stlp_std@@@64@V?$xalloc@U?$pair@PBDPAVIConsole_Command@@@stlp_std@@@@@priv@stlp_std@@ABEPAU_Rb_tree_node_base@12@ABQAD@Z ; stlp_std::priv::_Rb_tree<char const *,CConsole::str_pred,stlp_std::pair<char const * const,IConsole_Command *>,stlp_std::priv::_Select1st<stlp_std::pair<char const * const,IConsole_Command *> >,stlp_std::priv::_MapTraitsT<stlp_std::pair<char const * const,IConsole_Command *> >,xalloc<stlp_std::pair<char const *,IConsole_Command *> > >::_M_find<char *>
PUBLIC	??$find@PAD@?$_Rb_tree@PBDUstr_pred@CConsole@@U?$pair@QBDPAVIConsole_Command@@@stlp_std@@U?$_Select1st@U?$pair@QBDPAVIConsole_Command@@@stlp_std@@@priv@4@U?$_MapTraitsT@U?$pair@QBDPAVIConsole_Command@@@stlp_std@@@64@V?$xalloc@U?$pair@PBDPAVIConsole_Command@@@stlp_std@@@@@priv@stlp_std@@QAE?AU?$_Rb_tree_iterator@U?$pair@QBDPAVIConsole_Command@@@stlp_std@@U?$_MapTraitsT@U?$pair@QBDPAVIConsole_Command@@@stlp_std@@@priv@2@@12@ABQAD@Z ; stlp_std::priv::_Rb_tree<char const *,CConsole::str_pred,stlp_std::pair<char const * const,IConsole_Command *>,stlp_std::priv::_Select1st<stlp_std::pair<char const * const,IConsole_Command *> >,stlp_std::priv::_MapTraitsT<stlp_std::pair<char const * const,IConsole_Command *> >,xalloc<stlp_std::pair<char const *,IConsole_Command *> > >::find<char *>
PUBLIC	??$find@PAD@?$map@PBDPAVIConsole_Command@@Ustr_pred@CConsole@@V?$xalloc@U?$pair@PBDPAVIConsole_Command@@@stlp_std@@@@@stlp_std@@QAE?AU?$_Rb_tree_iterator@U?$pair@QBDPAVIConsole_Command@@@stlp_std@@U?$_MapTraitsT@U?$pair@QBDPAVIConsole_Command@@@stlp_std@@@priv@2@@priv@1@ABQAD@Z ; stlp_std::map<char const *,IConsole_Command *,CConsole::str_pred,xalloc<stlp_std::pair<char const *,IConsole_Command *> > >::find<char *>
PUBLIC	??0TipString@@QAE@ABVshared_str@@HH@Z		; TipString::TipString
PUBLIC	??0TipString@@QAE@ABVshared_str@@@Z		; TipString::TipString
PUBLIC	??$__destroy_mv_srcs@V?$reverse_iterator@PAUTipString@@@stlp_std@@UTipString@@@stlp_std@@YAXV?$reverse_iterator@PAUTipString@@@0@0PAUTipString@@@Z ; stlp_std::__destroy_mv_srcs<stlp_std::reverse_iterator<TipString *>,TipString>
PUBLIC	??$_Destroy_Moved_Range@V?$reverse_iterator@PAUTipString@@@stlp_std@@@stlp_std@@YAXV?$reverse_iterator@PAUTipString@@@0@0@Z ; stlp_std::_Destroy_Moved_Range<stlp_std::reverse_iterator<TipString *> >
PUBLIC	?_M_clear_after_move@?$_Impl_vector@UTipString@@V?$xalloc@UTipString@@@@@priv@stlp_std@@AAEXXZ ; stlp_std::priv::_Impl_vector<TipString,xalloc<TipString> >::_M_clear_after_move
PUBLIC	?_M_set@?$_Impl_vector@UTipString@@V?$xalloc@UTipString@@@@@priv@stlp_std@@AAEXPAUTipString@@00@Z ; stlp_std::priv::_Impl_vector<TipString,xalloc<TipString> >::_M_set
PUBLIC	??$__ucopy@PAUTipString@@PAU1@H@priv@stlp_std@@YAPAUTipString@@PAU2@00ABUrandom_access_iterator_tag@1@PAH@Z ; stlp_std::priv::__ucopy<TipString *,TipString *,int>
PUBLIC	??$__ucopy_ptrs@PAUTipString@@PAU1@@priv@stlp_std@@YAPAUTipString@@PAU2@00ABU__false_type@1@@Z ; stlp_std::priv::__ucopy_ptrs<TipString *,TipString *>
PUBLIC	??$__uninitialized_move@PAUTipString@@PAU1@U__false_type@stlp_std@@@priv@stlp_std@@YAPAUTipString@@PAU2@00U__false_type@1@ABU31@@Z ; stlp_std::priv::__uninitialized_move<TipString *,TipString *,stlp_std::__false_type>
PUBLIC	??$__ufill@PAUTipString@@U1@H@priv@stlp_std@@YAXPAUTipString@@0ABU2@ABUrandom_access_iterator_tag@1@PAH@Z ; stlp_std::priv::__ufill<TipString *,TipString,int>
PUBLIC	??$__uninitialized_fill_n@PAUTipString@@IU1@@priv@stlp_std@@YAPAUTipString@@PAU2@IABU2@@Z ; stlp_std::priv::__uninitialized_fill_n<TipString *,unsigned int,TipString>
PUBLIC	?_M_insert_overflow_aux@?$_Impl_vector@UTipString@@V?$xalloc@UTipString@@@@@priv@stlp_std@@AAEXPAUTipString@@ABU4@ABU__false_type@3@I_N@Z ; stlp_std::priv::_Impl_vector<TipString,xalloc<TipString> >::_M_insert_overflow_aux
PUBLIC	?_M_insert_overflow@?$_Impl_vector@UTipString@@V?$xalloc@UTipString@@@@@priv@stlp_std@@AAEXPAUTipString@@ABU4@ABU__false_type@3@I_N@Z ; stlp_std::priv::_Impl_vector<TipString,xalloc<TipString> >::_M_insert_overflow
PUBLIC	??$_Copy_Construct@UTipString@@@stlp_std@@YAXPAUTipString@@ABU1@@Z ; stlp_std::_Copy_Construct<TipString>
PUBLIC	?push_back@?$_Impl_vector@UTipString@@V?$xalloc@UTipString@@@@@priv@stlp_std@@QAEXABUTipString@@@Z ; stlp_std::priv::_Impl_vector<TipString,xalloc<TipString> >::push_back
PUBLIC	?to_storage_type_cref@?$_CastTraits@UTipString@@U1@@priv@stlp_std@@SAABUTipString@@ABU4@@Z ; stlp_std::priv::_CastTraits<TipString,TipString>::to_storage_type_cref
PUBLIC	?push_back@?$vector@UTipString@@V?$xalloc@UTipString@@@@@stlp_std@@QAEXABUTipString@@@Z ; stlp_std::vector<TipString,xalloc<TipString> >::push_back
PUBLIC	?begin@?$vector@UTipString@@V?$xalloc@UTipString@@@@@stlp_std@@QAEPAUTipString@@XZ ; stlp_std::vector<TipString,xalloc<TipString> >::begin
PUBLIC	?end@?$vector@UTipString@@V?$xalloc@UTipString@@@@@stlp_std@@QAEPAUTipString@@XZ ; stlp_std::vector<TipString,xalloc<TipString> >::end
PUBLIC	??$__copy@PAUTipString@@PAU1@H@priv@stlp_std@@YAPAUTipString@@PAU2@00ABUrandom_access_iterator_tag@1@PAH@Z ; stlp_std::priv::__copy<TipString *,TipString *,int>
PUBLIC	??$__copy_ptrs@PAUTipString@@PAU1@@priv@stlp_std@@YAPAUTipString@@PAU2@00ABU__false_type@1@@Z ; stlp_std::priv::__copy_ptrs<TipString *,TipString *>
PUBLIC	?_M_erase@?$_Impl_vector@UTipString@@V?$xalloc@UTipString@@@@@priv@stlp_std@@AAEPAUTipString@@PAU4@0ABU__false_type@3@@Z ; stlp_std::priv::_Impl_vector<TipString,xalloc<TipString> >::_M_erase
PUBLIC	?erase@?$_Impl_vector@UTipString@@V?$xalloc@UTipString@@@@@priv@stlp_std@@QAEPAUTipString@@PAU4@0@Z ; stlp_std::priv::_Impl_vector<TipString,xalloc<TipString> >::erase
PUBLIC	?to_value_type_ptr@?$_CastTraits@UTipString@@U1@@priv@stlp_std@@SAPAUTipString@@PAU4@@Z ; stlp_std::priv::_CastTraits<TipString,TipString>::to_value_type_ptr
PUBLIC	?to_storage_type_ptr@?$_CastTraits@UTipString@@U1@@priv@stlp_std@@SAPAUTipString@@PAU4@@Z ; stlp_std::priv::_CastTraits<TipString,TipString>::to_storage_type_ptr
PUBLIC	?erase@?$vector@UTipString@@V?$xalloc@UTipString@@@@@stlp_std@@QAEPAUTipString@@PAU3@0@Z ; stlp_std::vector<TipString,xalloc<TipString> >::erase
PUBLIC	?clear_not_free@?$xr_vector@UTipString@@V?$xalloc@UTipString@@@@@@QAEXXZ ; xr_vector<TipString,xalloc<TipString> >::clear_not_free
PUBLIC	?erase@?$_Rb_tree@PBDUstr_pred@CConsole@@U?$pair@QBDPAVIConsole_Command@@@stlp_std@@U?$_Select1st@U?$pair@QBDPAVIConsole_Command@@@stlp_std@@@priv@4@U?$_MapTraitsT@U?$pair@QBDPAVIConsole_Command@@@stlp_std@@@64@V?$xalloc@U?$pair@PBDPAVIConsole_Command@@@stlp_std@@@@@priv@stlp_std@@QAEXU?$_Rb_tree_iterator@U?$pair@QBDPAVIConsole_Command@@@stlp_std@@U?$_MapTraitsT@U?$pair@QBDPAVIConsole_Command@@@stlp_std@@@priv@2@@23@@Z ; stlp_std::priv::_Rb_tree<char const *,CConsole::str_pred,stlp_std::pair<char const * const,IConsole_Command *>,stlp_std::priv::_Select1st<stlp_std::pair<char const * const,IConsole_Command *> >,stlp_std::priv::_MapTraitsT<stlp_std::pair<char const * const,IConsole_Command *> >,xalloc<stlp_std::pair<char const *,IConsole_Command *> > >::erase
PUBLIC	?erase@?$map@PBDPAVIConsole_Command@@Ustr_pred@CConsole@@V?$xalloc@U?$pair@PBDPAVIConsole_Command@@@stlp_std@@@@@stlp_std@@QAEXU?$_Rb_tree_iterator@U?$pair@QBDPAVIConsole_Command@@@stlp_std@@U?$_MapTraitsT@U?$pair@QBDPAVIConsole_Command@@@stlp_std@@@priv@2@@priv@2@@Z ; stlp_std::map<char const *,IConsole_Command *,CConsole::str_pred,xalloc<stlp_std::pair<char const *,IConsole_Command *> > >::erase
PUBLIC	??9?$_Rb_tree_iterator@U?$pair@QBDPAVIConsole_Command@@@stlp_std@@U?$_MapTraitsT@U?$pair@QBDPAVIConsole_Command@@@stlp_std@@@priv@2@@priv@stlp_std@@QBE_NU?$_Rb_tree_iterator@U?$pair@QBDPAVIConsole_Command@@@stlp_std@@U?$_ConstMapTraitsT@U?$pair@QBDPAVIConsole_Command@@@stlp_std@@@priv@2@@12@@Z ; stlp_std::priv::_Rb_tree_iterator<stlp_std::pair<char const * const,IConsole_Command *>,stlp_std::priv::_MapTraitsT<stlp_std::pair<char const * const,IConsole_Command *> > >::operator!=
PUBLIC	??$_M_find@PBD@?$_Rb_tree@PBDUstr_pred@CConsole@@U?$pair@QBDPAVIConsole_Command@@@stlp_std@@U?$_Select1st@U?$pair@QBDPAVIConsole_Command@@@stlp_std@@@priv@4@U?$_MapTraitsT@U?$pair@QBDPAVIConsole_Command@@@stlp_std@@@64@V?$xalloc@U?$pair@PBDPAVIConsole_Command@@@stlp_std@@@@@priv@stlp_std@@ABEPAU_Rb_tree_node_base@12@ABQBD@Z ; stlp_std::priv::_Rb_tree<char const *,CConsole::str_pred,stlp_std::pair<char const * const,IConsole_Command *>,stlp_std::priv::_Select1st<stlp_std::pair<char const * const,IConsole_Command *> >,stlp_std::priv::_MapTraitsT<stlp_std::pair<char const * const,IConsole_Command *> >,xalloc<stlp_std::pair<char const *,IConsole_Command *> > >::_M_find<char const *>
PUBLIC	??$find@PBD@?$_Rb_tree@PBDUstr_pred@CConsole@@U?$pair@QBDPAVIConsole_Command@@@stlp_std@@U?$_Select1st@U?$pair@QBDPAVIConsole_Command@@@stlp_std@@@priv@4@U?$_MapTraitsT@U?$pair@QBDPAVIConsole_Command@@@stlp_std@@@64@V?$xalloc@U?$pair@PBDPAVIConsole_Command@@@stlp_std@@@@@priv@stlp_std@@QAE?AU?$_Rb_tree_iterator@U?$pair@QBDPAVIConsole_Command@@@stlp_std@@U?$_MapTraitsT@U?$pair@QBDPAVIConsole_Command@@@stlp_std@@@priv@2@@12@ABQBD@Z ; stlp_std::priv::_Rb_tree<char const *,CConsole::str_pred,stlp_std::pair<char const * const,IConsole_Command *>,stlp_std::priv::_Select1st<stlp_std::pair<char const * const,IConsole_Command *> >,stlp_std::priv::_MapTraitsT<stlp_std::pair<char const * const,IConsole_Command *> >,xalloc<stlp_std::pair<char const *,IConsole_Command *> > >::find<char const *>
PUBLIC	??$find@PBD@?$map@PBDPAVIConsole_Command@@Ustr_pred@CConsole@@V?$xalloc@U?$pair@PBDPAVIConsole_Command@@@stlp_std@@@@@stlp_std@@QAE?AU?$_Rb_tree_iterator@U?$pair@QBDPAVIConsole_Command@@@stlp_std@@U?$_MapTraitsT@U?$pair@QBDPAVIConsole_Command@@@stlp_std@@@priv@2@@priv@1@ABQBD@Z ; stlp_std::map<char const *,IConsole_Command *,CConsole::str_pred,xalloc<stlp_std::pair<char const *,IConsole_Command *> > >::find<char const *>
PUBLIC	?DestroyObject@?$FactoryPtr@VIUIShader@@@@AAEXXZ ; FactoryPtr<IUIShader>::DestroyObject
PUBLIC	??1?$FactoryPtr@VIUIShader@@@@QAE@XZ		; FactoryPtr<IUIShader>::~FactoryPtr<IUIShader>
PUBLIC	??_G?$FactoryPtr@VIUIShader@@@@QAEPAXI@Z	; FactoryPtr<IUIShader>::`scalar deleting destructor'
PUBLIC	??R?$xr_special_free@$0A@V?$FactoryPtr@VIUIShader@@@@@@QAEXAAPAV?$FactoryPtr@VIUIShader@@@@@Z ; xr_special_free<0,FactoryPtr<IUIShader> >::operator()
PUBLIC	??$xr_delete@V?$FactoryPtr@VIUIShader@@@@@@YAXAAPAV?$FactoryPtr@VIUIShader@@@@@Z ; xr_delete<FactoryPtr<IUIShader> >
PUBLIC	??R?$xr_special_free@$00Vline_editor@text_editor@@@@QAEXAAPAVline_editor@text_editor@@@Z ; xr_special_free<1,text_editor::line_editor>::operator()
PUBLIC	??$xr_delete@Vline_editor@text_editor@@@@YAXAAPAVline_editor@text_editor@@@Z ; xr_delete<text_editor::line_editor>
PUBLIC	?key_comp@?$_Rb_tree@PBDUstr_pred@CConsole@@U?$pair@QBDPAVIConsole_Command@@@stlp_std@@U?$_Select1st@U?$pair@QBDPAVIConsole_Command@@@stlp_std@@@priv@4@U?$_MapTraitsT@U?$pair@QBDPAVIConsole_Command@@@stlp_std@@@64@V?$xalloc@U?$pair@PBDPAVIConsole_Command@@@stlp_std@@@@@priv@stlp_std@@QBE?AUstr_pred@CConsole@@XZ ; stlp_std::priv::_Rb_tree<char const *,CConsole::str_pred,stlp_std::pair<char const * const,IConsole_Command *>,stlp_std::priv::_Select1st<stlp_std::pair<char const * const,IConsole_Command *> >,stlp_std::priv::_MapTraitsT<stlp_std::pair<char const * const,IConsole_Command *> >,xalloc<stlp_std::pair<char const *,IConsole_Command *> > >::key_comp
PUBLIC	?key_comp@?$map@PBDPAVIConsole_Command@@Ustr_pred@CConsole@@V?$xalloc@U?$pair@PBDPAVIConsole_Command@@@stlp_std@@@@@stlp_std@@QBE?AUstr_pred@CConsole@@XZ ; stlp_std::map<char const *,IConsole_Command *,CConsole::str_pred,xalloc<stlp_std::pair<char const *,IConsole_Command *> > >::key_comp
PUBLIC	?end@?$_Rb_tree@PBDUstr_pred@CConsole@@U?$pair@QBDPAVIConsole_Command@@@stlp_std@@U?$_Select1st@U?$pair@QBDPAVIConsole_Command@@@stlp_std@@@priv@4@U?$_MapTraitsT@U?$pair@QBDPAVIConsole_Command@@@stlp_std@@@64@V?$xalloc@U?$pair@PBDPAVIConsole_Command@@@stlp_std@@@@@priv@stlp_std@@QAE?AU?$_Rb_tree_iterator@U?$pair@QBDPAVIConsole_Command@@@stlp_std@@U?$_MapTraitsT@U?$pair@QBDPAVIConsole_Command@@@stlp_std@@@priv@2@@23@XZ ; stlp_std::priv::_Rb_tree<char const *,CConsole::str_pred,stlp_std::pair<char const * const,IConsole_Command *>,stlp_std::priv::_Select1st<stlp_std::pair<char const * const,IConsole_Command *> >,stlp_std::priv::_MapTraitsT<stlp_std::pair<char const * const,IConsole_Command *> >,xalloc<stlp_std::pair<char const *,IConsole_Command *> > >::end
PUBLIC	?end@?$map@PBDPAVIConsole_Command@@Ustr_pred@CConsole@@V?$xalloc@U?$pair@PBDPAVIConsole_Command@@@stlp_std@@@@@stlp_std@@QAE?AU?$_Rb_tree_iterator@U?$pair@QBDPAVIConsole_Command@@@stlp_std@@U?$_MapTraitsT@U?$pair@QBDPAVIConsole_Command@@@stlp_std@@@priv@2@@priv@2@XZ ; stlp_std::map<char const *,IConsole_Command *,CConsole::str_pred,xalloc<stlp_std::pair<char const *,IConsole_Command *> > >::end
PUBLIC	?empty@?$_Rb_tree@PBDUstr_pred@CConsole@@U?$pair@QBDPAVIConsole_Command@@@stlp_std@@U?$_Select1st@U?$pair@QBDPAVIConsole_Command@@@stlp_std@@@priv@4@U?$_MapTraitsT@U?$pair@QBDPAVIConsole_Command@@@stlp_std@@@64@V?$xalloc@U?$pair@PBDPAVIConsole_Command@@@stlp_std@@@@@priv@stlp_std@@QBE_NXZ ; stlp_std::priv::_Rb_tree<char const *,CConsole::str_pred,stlp_std::pair<char const * const,IConsole_Command *>,stlp_std::priv::_Select1st<stlp_std::pair<char const * const,IConsole_Command *> >,stlp_std::priv::_MapTraitsT<stlp_std::pair<char const * const,IConsole_Command *> >,xalloc<stlp_std::pair<char const *,IConsole_Command *> > >::empty
PUBLIC	?_M_insert@?$_Rb_tree@PBDUstr_pred@CConsole@@U?$pair@QBDPAVIConsole_Command@@@stlp_std@@U?$_Select1st@U?$pair@QBDPAVIConsole_Command@@@stlp_std@@@priv@4@U?$_MapTraitsT@U?$pair@QBDPAVIConsole_Command@@@stlp_std@@@64@V?$xalloc@U?$pair@PBDPAVIConsole_Command@@@stlp_std@@@@@priv@stlp_std@@AAE?AU?$_Rb_tree_iterator@U?$pair@QBDPAVIConsole_Command@@@stlp_std@@U?$_MapTraitsT@U?$pair@QBDPAVIConsole_Command@@@stlp_std@@@priv@2@@23@PAU_Rb_tree_node_base@23@ABU?$pair@QBDPAVIConsole_Command@@@3@00@Z ; stlp_std::priv::_Rb_tree<char const *,CConsole::str_pred,stlp_std::pair<char const * const,IConsole_Command *>,stlp_std::priv::_Select1st<stlp_std::pair<char const * const,IConsole_Command *> >,stlp_std::priv::_MapTraitsT<stlp_std::pair<char const * const,IConsole_Command *> >,xalloc<stlp_std::pair<char const *,IConsole_Command *> > >::_M_insert
PUBLIC	?begin@?$_Rb_tree@PBDUstr_pred@CConsole@@U?$pair@QBDPAVIConsole_Command@@@stlp_std@@U?$_Select1st@U?$pair@QBDPAVIConsole_Command@@@stlp_std@@@priv@4@U?$_MapTraitsT@U?$pair@QBDPAVIConsole_Command@@@stlp_std@@@64@V?$xalloc@U?$pair@PBDPAVIConsole_Command@@@stlp_std@@@@@priv@stlp_std@@QAE?AU?$_Rb_tree_iterator@U?$pair@QBDPAVIConsole_Command@@@stlp_std@@U?$_MapTraitsT@U?$pair@QBDPAVIConsole_Command@@@stlp_std@@@priv@2@@23@XZ ; stlp_std::priv::_Rb_tree<char const *,CConsole::str_pred,stlp_std::pair<char const * const,IConsole_Command *>,stlp_std::priv::_Select1st<stlp_std::pair<char const * const,IConsole_Command *> >,stlp_std::priv::_MapTraitsT<stlp_std::pair<char const * const,IConsole_Command *> >,xalloc<stlp_std::pair<char const *,IConsole_Command *> > >::begin
PUBLIC	??0?$pair@U?$_Rb_tree_iterator@U?$pair@QBDPAVIConsole_Command@@@stlp_std@@U?$_MapTraitsT@U?$pair@QBDPAVIConsole_Command@@@stlp_std@@@priv@2@@priv@stlp_std@@_N@stlp_std@@QAE@ABU?$_Rb_tree_iterator@U?$pair@QBDPAVIConsole_Command@@@stlp_std@@U?$_MapTraitsT@U?$pair@QBDPAVIConsole_Command@@@stlp_std@@@priv@2@@priv@1@AB_N@Z ; stlp_std::pair<stlp_std::priv::_Rb_tree_iterator<stlp_std::pair<char const * const,IConsole_Command *>,stlp_std::priv::_MapTraitsT<stlp_std::pair<char const * const,IConsole_Command *> > >,bool>::pair<stlp_std::priv::_Rb_tree_iterator<stlp_std::pair<char const * const,IConsole_Command *>,stlp_std::priv::_MapTraitsT<stlp_std::pair<char const * const,IConsole_Command *> > >,bool>
PUBLIC	?insert_unique@?$_Rb_tree@PBDUstr_pred@CConsole@@U?$pair@QBDPAVIConsole_Command@@@stlp_std@@U?$_Select1st@U?$pair@QBDPAVIConsole_Command@@@stlp_std@@@priv@4@U?$_MapTraitsT@U?$pair@QBDPAVIConsole_Command@@@stlp_std@@@64@V?$xalloc@U?$pair@PBDPAVIConsole_Command@@@stlp_std@@@@@priv@stlp_std@@QAE?AU?$pair@U?$_Rb_tree_iterator@U?$pair@QBDPAVIConsole_Command@@@stlp_std@@U?$_MapTraitsT@U?$pair@QBDPAVIConsole_Command@@@stlp_std@@@priv@2@@priv@stlp_std@@_N@3@ABU?$pair@QBDPAVIConsole_Command@@@3@@Z ; stlp_std::priv::_Rb_tree<char const *,CConsole::str_pred,stlp_std::pair<char const * const,IConsole_Command *>,stlp_std::priv::_Select1st<stlp_std::pair<char const * const,IConsole_Command *> >,stlp_std::priv::_MapTraitsT<stlp_std::pair<char const * const,IConsole_Command *> >,xalloc<stlp_std::pair<char const *,IConsole_Command *> > >::insert_unique
PUBLIC	??E?$_Rb_tree_iterator@U?$pair@QBDPAVIConsole_Command@@@stlp_std@@U?$_MapTraitsT@U?$pair@QBDPAVIConsole_Command@@@stlp_std@@@priv@2@@priv@stlp_std@@QAEAAU012@XZ ; stlp_std::priv::_Rb_tree_iterator<stlp_std::pair<char const * const,IConsole_Command *>,stlp_std::priv::_MapTraitsT<stlp_std::pair<char const * const,IConsole_Command *> > >::operator++
PUBLIC	??F?$_Rb_tree_iterator@U?$pair@QBDPAVIConsole_Command@@@stlp_std@@U?$_MapTraitsT@U?$pair@QBDPAVIConsole_Command@@@stlp_std@@@priv@2@@priv@stlp_std@@QAEAAU012@XZ ; stlp_std::priv::_Rb_tree_iterator<stlp_std::pair<char const * const,IConsole_Command *>,stlp_std::priv::_MapTraitsT<stlp_std::pair<char const * const,IConsole_Command *> > >::operator--
PUBLIC	?insert_unique@?$_Rb_tree@PBDUstr_pred@CConsole@@U?$pair@QBDPAVIConsole_Command@@@stlp_std@@U?$_Select1st@U?$pair@QBDPAVIConsole_Command@@@stlp_std@@@priv@4@U?$_MapTraitsT@U?$pair@QBDPAVIConsole_Command@@@stlp_std@@@64@V?$xalloc@U?$pair@PBDPAVIConsole_Command@@@stlp_std@@@@@priv@stlp_std@@QAE?AU?$_Rb_tree_iterator@U?$pair@QBDPAVIConsole_Command@@@stlp_std@@U?$_MapTraitsT@U?$pair@QBDPAVIConsole_Command@@@stlp_std@@@priv@2@@23@U423@ABU?$pair@QBDPAVIConsole_Command@@@3@@Z ; stlp_std::priv::_Rb_tree<char const *,CConsole::str_pred,stlp_std::pair<char const * const,IConsole_Command *>,stlp_std::priv::_Select1st<stlp_std::pair<char const * const,IConsole_Command *> >,stlp_std::priv::_MapTraitsT<stlp_std::pair<char const * const,IConsole_Command *> >,xalloc<stlp_std::pair<char const *,IConsole_Command *> > >::insert_unique
PUBLIC	?insert@?$map@PBDPAVIConsole_Command@@Ustr_pred@CConsole@@V?$xalloc@U?$pair@PBDPAVIConsole_Command@@@stlp_std@@@@@stlp_std@@QAE?AU?$_Rb_tree_iterator@U?$pair@QBDPAVIConsole_Command@@@stlp_std@@U?$_MapTraitsT@U?$pair@QBDPAVIConsole_Command@@@stlp_std@@@priv@2@@priv@2@U342@ABU?$pair@QBDPAVIConsole_Command@@@2@@Z ; stlp_std::map<char const *,IConsole_Command *,CConsole::str_pred,xalloc<stlp_std::pair<char const *,IConsole_Command *> > >::insert
PUBLIC	??0?$_Rb_tree_iterator@U?$pair@QBDPAVIConsole_Command@@@stlp_std@@U?$_MapTraitsT@U?$pair@QBDPAVIConsole_Command@@@stlp_std@@@priv@2@@priv@stlp_std@@QAE@ABU012@@Z ; stlp_std::priv::_Rb_tree_iterator<stlp_std::pair<char const * const,IConsole_Command *>,stlp_std::priv::_MapTraitsT<stlp_std::pair<char const * const,IConsole_Command *> > >::_Rb_tree_iterator<stlp_std::pair<char const * const,IConsole_Command *>,stlp_std::priv::_MapTraitsT<stlp_std::pair<char const * const,IConsole_Command *> > >
PUBLIC	??D?$_Rb_tree_iterator@U?$pair@QBDPAVIConsole_Command@@@stlp_std@@U?$_MapTraitsT@U?$pair@QBDPAVIConsole_Command@@@stlp_std@@@priv@2@@priv@stlp_std@@QBEAAU?$pair@QBDPAVIConsole_Command@@@2@XZ ; stlp_std::priv::_Rb_tree_iterator<stlp_std::pair<char const * const,IConsole_Command *>,stlp_std::priv::_MapTraitsT<stlp_std::pair<char const * const,IConsole_Command *> > >::operator*
PUBLIC	??8?$_Rb_tree_iterator@U?$pair@QBDPAVIConsole_Command@@@stlp_std@@U?$_MapTraitsT@U?$pair@QBDPAVIConsole_Command@@@stlp_std@@@priv@2@@priv@stlp_std@@QBE_NU?$_Rb_tree_iterator@U?$pair@QBDPAVIConsole_Command@@@stlp_std@@U?$_ConstMapTraitsT@U?$pair@QBDPAVIConsole_Command@@@stlp_std@@@priv@2@@12@@Z ; stlp_std::priv::_Rb_tree_iterator<stlp_std::pair<char const * const,IConsole_Command *>,stlp_std::priv::_MapTraitsT<stlp_std::pair<char const * const,IConsole_Command *> > >::operator==
PUBLIC	??0?$_Rb_tree_iterator@U?$pair@QBDPAVIConsole_Command@@@stlp_std@@U?$_ConstMapTraitsT@U?$pair@QBDPAVIConsole_Command@@@stlp_std@@@priv@2@@priv@stlp_std@@QAE@ABU?$_Rb_tree_iterator@U?$pair@QBDPAVIConsole_Command@@@stlp_std@@U?$_MapTraitsT@U?$pair@QBDPAVIConsole_Command@@@stlp_std@@@priv@2@@12@@Z ; stlp_std::priv::_Rb_tree_iterator<stlp_std::pair<char const * const,IConsole_Command *>,stlp_std::priv::_ConstMapTraitsT<stlp_std::pair<char const * const,IConsole_Command *> > >::_Rb_tree_iterator<stlp_std::pair<char const * const,IConsole_Command *>,stlp_std::priv::_ConstMapTraitsT<stlp_std::pair<char const * const,IConsole_Command *> > >
PUBLIC	??0?$pair@QBDPAVIConsole_Command@@@stlp_std@@QAE@ABQBDABQAVIConsole_Command@@@Z ; stlp_std::pair<char const * const,IConsole_Command *>::pair<char const * const,IConsole_Command *>
PUBLIC	??0?$_Rb_tree_iterator@U?$pair@QBDPAVIConsole_Command@@@stlp_std@@U?$_MapTraitsT@U?$pair@QBDPAVIConsole_Command@@@stlp_std@@@priv@2@@priv@stlp_std@@QAE@PAU_Rb_tree_node_base@12@@Z ; stlp_std::priv::_Rb_tree_iterator<stlp_std::pair<char const * const,IConsole_Command *>,stlp_std::priv::_MapTraitsT<stlp_std::pair<char const * const,IConsole_Command *> > >::_Rb_tree_iterator<stlp_std::pair<char const * const,IConsole_Command *>,stlp_std::priv::_MapTraitsT<stlp_std::pair<char const * const,IConsole_Command *> > >
PUBLIC	??Rstr_pred@CConsole@@QBE_NPBD0@Z		; CConsole::str_pred::operator()
PUBLIC	??R?$_Select1st@U?$pair@QBDPAVIConsole_Command@@@stlp_std@@@priv@stlp_std@@QBEABQBDABU?$pair@QBDPAVIConsole_Command@@@2@@Z ; stlp_std::priv::_Select1st<stlp_std::pair<char const * const,IConsole_Command *> >::operator()
PUBLIC	?_S_key@?$_Rb_tree@PBDUstr_pred@CConsole@@U?$pair@QBDPAVIConsole_Command@@@stlp_std@@U?$_Select1st@U?$pair@QBDPAVIConsole_Command@@@stlp_std@@@priv@4@U?$_MapTraitsT@U?$pair@QBDPAVIConsole_Command@@@stlp_std@@@64@V?$xalloc@U?$pair@PBDPAVIConsole_Command@@@stlp_std@@@@@priv@stlp_std@@KAABQBDPAU_Rb_tree_node_base@23@@Z ; stlp_std::priv::_Rb_tree<char const *,CConsole::str_pred,stlp_std::pair<char const * const,IConsole_Command *>,stlp_std::priv::_Select1st<stlp_std::pair<char const * const,IConsole_Command *> >,stlp_std::priv::_MapTraitsT<stlp_std::pair<char const * const,IConsole_Command *> >,xalloc<stlp_std::pair<char const *,IConsole_Command *> > >::_S_key
PUBLIC	??$_M_lower_bound@PBD@?$_Rb_tree@PBDUstr_pred@CConsole@@U?$pair@QBDPAVIConsole_Command@@@stlp_std@@U?$_Select1st@U?$pair@QBDPAVIConsole_Command@@@stlp_std@@@priv@4@U?$_MapTraitsT@U?$pair@QBDPAVIConsole_Command@@@stlp_std@@@64@V?$xalloc@U?$pair@PBDPAVIConsole_Command@@@stlp_std@@@@@priv@stlp_std@@ABEPAU_Rb_tree_node_base@12@ABQBD@Z ; stlp_std::priv::_Rb_tree<char const *,CConsole::str_pred,stlp_std::pair<char const * const,IConsole_Command *>,stlp_std::priv::_Select1st<stlp_std::pair<char const * const,IConsole_Command *> >,stlp_std::priv::_MapTraitsT<stlp_std::pair<char const * const,IConsole_Command *> >,xalloc<stlp_std::pair<char const *,IConsole_Command *> > >::_M_lower_bound<char const *>
PUBLIC	??$lower_bound@PBD@?$_Rb_tree@PBDUstr_pred@CConsole@@U?$pair@QBDPAVIConsole_Command@@@stlp_std@@U?$_Select1st@U?$pair@QBDPAVIConsole_Command@@@stlp_std@@@priv@4@U?$_MapTraitsT@U?$pair@QBDPAVIConsole_Command@@@stlp_std@@@64@V?$xalloc@U?$pair@PBDPAVIConsole_Command@@@stlp_std@@@@@priv@stlp_std@@QAE?AU?$_Rb_tree_iterator@U?$pair@QBDPAVIConsole_Command@@@stlp_std@@U?$_MapTraitsT@U?$pair@QBDPAVIConsole_Command@@@stlp_std@@@priv@2@@12@ABQBD@Z ; stlp_std::priv::_Rb_tree<char const *,CConsole::str_pred,stlp_std::pair<char const * const,IConsole_Command *>,stlp_std::priv::_Select1st<stlp_std::pair<char const * const,IConsole_Command *> >,stlp_std::priv::_MapTraitsT<stlp_std::pair<char const * const,IConsole_Command *> >,xalloc<stlp_std::pair<char const *,IConsole_Command *> > >::lower_bound<char const *>
PUBLIC	??$lower_bound@PBD@?$map@PBDPAVIConsole_Command@@Ustr_pred@CConsole@@V?$xalloc@U?$pair@PBDPAVIConsole_Command@@@stlp_std@@@@@stlp_std@@QAE?AU?$_Rb_tree_iterator@U?$pair@QBDPAVIConsole_Command@@@stlp_std@@U?$_MapTraitsT@U?$pair@QBDPAVIConsole_Command@@@stlp_std@@@priv@2@@priv@1@ABQBD@Z ; stlp_std::map<char const *,IConsole_Command *,CConsole::str_pred,xalloc<stlp_std::pair<char const *,IConsole_Command *> > >::lower_bound<char const *>
PUBLIC	??$?APBD@?$map@PBDPAVIConsole_Command@@Ustr_pred@CConsole@@V?$xalloc@U?$pair@PBDPAVIConsole_Command@@@stlp_std@@@@@stlp_std@@QAEAAPAVIConsole_Command@@ABQBD@Z ; stlp_std::map<char const *,IConsole_Command *,CConsole::str_pred,xalloc<stlp_std::pair<char const *,IConsole_Command *> > >::operator[]<char const *>
PUBLIC	?Console@@3PAVCConsole@@A			; Console
PUBLIC	?ioc_prompt@@3QBDB				; ioc_prompt
PUBLIC	?ch_cursor@@3QBDB				; ch_cursor
PUBLIC	??_C@_0O@GKOHOGBF@ui?2ui_console?$AA@		; `string'
PUBLIC	??_C@_0M@MIMEGKBO@hud?2default?$AA@		; `string'
PUBLIC	??_C@_0M@GNLPOGIJ@hud_font_di?$AA@		; `string'
PUBLIC	??_C@_0N@HJHJNABD@hud_font_di2?$AA@		; `string'
PUBLIC	??_C@_04KBDJOJNB@?$FL?$CFd?$FN?$AA@		; `string'
PUBLIC	??_C@_05HDGBDIJL@xxxxx?$AA@			; `string'
PUBLIC	??_C@_07EEKGGBBH@?9?5?$CFs?5?$CFs?$AA@		; `string'
PUBLIC	??_C@_0BE@PMGADDPJ@?$CB?5Command?5disabled?4?$AA@ ; `string'
PUBLIC	??_C@_0BE@IINFEJGI@?$CB?5Unknown?5command?3?5?$AA@ ; `string'
PUBLIC	??_C@_09DLPLBIKN@cfg_load?5?$AA@		; `string'
PUBLIC	??_C@_03MDBMMNEB@ra?5?$AA@			; `string'
PUBLIC	??_C@_01CLKCMJKC@?5?$AA@			; `string'
PUBLIC	??_C@_07NPEDDNID@?$CIempty?$CJ?$AA@		; `string'
EXTRN	__imp_?UIRender@@3PAVIUIRender@@A:DWORD
EXTRN	__imp_?size@string_tupples@detail@core@xray@@QBEIXZ:PROC
EXTRN	__imp_?concat@string_tupples@detail@core@xray@@QBEXQBD@Z:PROC
EXTRN	__imp_?check_stack_overflow@detail@core@xray@@YAXI@Z:PROC
EXTRN	__imp__SetCursorPos@8:PROC
	ALIGN	4

?Console@@3PAVCConsole@@A DD 01H DUP (?)		; Console
;	COMDAT ??_C@_07NPEDDNID@?$CIempty?$CJ?$AA@
CONST	SEGMENT
??_C@_07NPEDDNID@?$CIempty?$CJ?$AA@ DB '(empty)', 00H	; `string'
CONST	ENDS
;	COMDAT ??_C@_01CLKCMJKC@?5?$AA@
CONST	SEGMENT
??_C@_01CLKCMJKC@?5?$AA@ DB ' ', 00H			; `string'
CONST	ENDS
;	COMDAT ??_C@_03MDBMMNEB@ra?5?$AA@
CONST	SEGMENT
??_C@_03MDBMMNEB@ra?5?$AA@ DB 'ra ', 00H		; `string'
CONST	ENDS
;	COMDAT ??_C@_09DLPLBIKN@cfg_load?5?$AA@
CONST	SEGMENT
??_C@_09DLPLBIKN@cfg_load?5?$AA@ DB 'cfg_load ', 00H	; `string'
CONST	ENDS
;	COMDAT ??_C@_0BE@IINFEJGI@?$CB?5Unknown?5command?3?5?$AA@
CONST	SEGMENT
??_C@_0BE@IINFEJGI@?$CB?5Unknown?5command?3?5?$AA@ DB '! Unknown command:'
	DB	' ', 00H					; `string'
CONST	ENDS
;	COMDAT ??_C@_0BE@PMGADDPJ@?$CB?5Command?5disabled?4?$AA@
CONST	SEGMENT
??_C@_0BE@PMGADDPJ@?$CB?5Command?5disabled?4?$AA@ DB '! Command disabled.'
	DB	00H						; `string'
CONST	ENDS
;	COMDAT ??_C@_07EEKGGBBH@?9?5?$CFs?5?$CFs?$AA@
CONST	SEGMENT
??_C@_07EEKGGBBH@?9?5?$CFs?5?$CFs?$AA@ DB '- %s %s', 00H ; `string'
CONST	ENDS
;	COMDAT ??_C@_05HDGBDIJL@xxxxx?$AA@
CONST	SEGMENT
??_C@_05HDGBDIJL@xxxxx?$AA@ DB 'xxxxx', 00H		; `string'
CONST	ENDS
;	COMDAT ??_C@_04KBDJOJNB@?$FL?$CFd?$FN?$AA@
CONST	SEGMENT
??_C@_04KBDJOJNB@?$FL?$CFd?$FN?$AA@ DB '[%d]', 00H	; `string'
CONST	ENDS
;	COMDAT ??_C@_0N@HJHJNABD@hud_font_di2?$AA@
CONST	SEGMENT
??_C@_0N@HJHJNABD@hud_font_di2?$AA@ DB 'hud_font_di2', 00H ; `string'
CONST	ENDS
;	COMDAT ??_C@_0M@GNLPOGIJ@hud_font_di?$AA@
CONST	SEGMENT
??_C@_0M@GNLPOGIJ@hud_font_di?$AA@ DB 'hud_font_di', 00H ; `string'
CONST	ENDS
;	COMDAT ??_C@_0M@MIMEGKBO@hud?2default?$AA@
CONST	SEGMENT
??_C@_0M@MIMEGKBO@hud?2default?$AA@ DB 'hud\default', 00H ; `string'
CONST	ENDS
;	COMDAT ??_C@_0O@GKOHOGBF@ui?2ui_console?$AA@
CONST	SEGMENT
??_C@_0O@GKOHOGBF@ui?2ui_console?$AA@ DB 'ui\ui_console', 00H ; `string'
CONST	ENDS
;	COMDAT ??_C@_04IMEJGNKP@?$DO?$DO?$DO?5?$AA@
CONST	SEGMENT
??_C@_04IMEJGNKP@?$DO?$DO?$DO?5?$AA@ DB '>>> ', 00H	; `string'
_MACRO_ADD DB	0ecH
	DB	0afH
	DB	0caH
	DB	036H
	DB	0b7H
	DB	0dH
	DB	059H
	DB	0c1H
	DB	0faH
	DB	0a7H
	DB	071H
	DB	0b1H
	DB	023H
	DB	0c5H
	DB	08eH
	DB	065H
	DB	0d1H
	DB	036H
	DB	03H
	DB	012H
	DB	07aH
	DB	02cH
	DB	031H
	DB	03aH
	DB	03eH
	DB	014H
	DB	05dH
	DB	0d2H
	DB	0cH
	DB	051H
	DB	066H
	DB	0c7H
	DB	0e1H
	DB	060H
	DB	098H
	DB	06aH
	DB	016H
	DB	09dH
	DB	0a8H
	DB	080H
	DB	0e4H
	DB	07aH
	DB	094H
	DB	0b2H
	DB	0a2H
	DB	0f5H
	DB	06eH
	DB	027H
	DB	0f5H
	DB	0aH
	DB	03fH
	DB	0c5H
	DB	0ffH
	DB	020H
	DB	04cH
	DB	0b8H
	DB	0c5H
	DB	072H
	DB	071H
	DB	09aH
	DB	0a9H
	DB	0a0H
	DB	0ddH
	DB	04fH
	DB	068H
	DB	053H
	DB	0b1H
	DB	0faH
	DB	026H
	DB	014H
	DB	085H
	DB	094H
	DB	021H
	DB	014H
	DB	080H
	DB	05cH
	DB	070H
	DB	0baH
	DB	0c5H
	DB	0f6H
	DB	058H
	DB	0dbH
	DB	0aeH
	DB	0e5H
	DB	08dH
	DB	0cdH
	DB	0dcH
	DB	06aH
	DB	09cH
	DB	011H
	DB	0fcH
	DB	06dH
	DB	033H
	DB	017H
	DB	0fbH
	DB	0f2H
	DB	030H
	DB	0f2H
	DB	0e0H
	DB	0d3H
	DB	0e3H
	DB	092H
	DB	0acH
	DB	046H
	DB	0c7H
	DB	086H
	DB	09bH
	DB	06eH
	DB	074H
	DB	05dH
	DB	0b1H
	DB	05H
	DB	0b9H
	DB	0faH
	DB	075H
	DB	09fH
	DB	084H
	DB	057H
	DB	02aH
	DB	040H
	DB	072H
	DB	0e7H
	DB	0c9H
	DB	0cbH
_MACRO_SUB DB	0ecH
	DB	0afH
	DB	0caH
	DB	036H
	DB	0b7H
	DB	0dH
	DB	059H
	DB	0c1H
	DB	0faH
	DB	0a7H
	DB	071H
	DB	0b1H
	DB	023H
	DB	0c5H
	DB	08eH
	DB	065H
	DB	0d1H
	DB	036H
	DB	03H
	DB	012H
	DB	07aH
	DB	02cH
	DB	031H
	DB	03aH
	DB	03eH
	DB	014H
	DB	05dH
	DB	0d2H
	DB	0cH
	DB	051H
	DB	066H
	DB	0c7H
	DB	0e1H
	DB	060H
	DB	098H
	DB	06aH
	DB	016H
	DB	09dH
	DB	0a8H
	DB	080H
	DB	0e4H
	DB	07aH
	DB	094H
	DB	0b2H
	DB	0a2H
	DB	0f5H
	DB	06eH
	DB	027H
	DB	0f5H
	DB	0aH
	DB	03fH
	DB	0c5H
	DB	0ffH
	DB	020H
	DB	04cH
	DB	0b8H
	DB	0c5H
	DB	072H
	DB	071H
	DB	09aH
	DB	0a9H
	DB	0a0H
	DB	0ddH
	DB	04fH
	DB	068H
	DB	053H
	DB	0b1H
	DB	0faH
	DB	026H
	DB	014H
	DB	085H
	DB	094H
	DB	021H
	DB	014H
	DB	080H
	DB	05cH
	DB	070H
	DB	0baH
	DB	0c5H
	DB	0f6H
	DB	058H
	DB	0dbH
	DB	0aeH
	DB	0e5H
	DB	08dH
	DB	0cdH
	DB	0dcH
	DB	06aH
	DB	09cH
	DB	011H
	DB	0fcH
	DB	06dH
	DB	033H
	DB	017H
	DB	0fbH
	DB	0f2H
	DB	022H
	DB	0ecH
	DB	0b5H
	DB	0fdH
	DB	075H
	DB	0caH
	DB	02bH
	DB	055H
	DB	0ccH
	DB	02bH
	DB	0beH
	DB	0fcH
	DB	0c6H
	DB	073H
	DB	03cH
	DB	0efH
	DB	0fdH
	DB	0d7H
	DB	08bH
	DB	086H
	DB	069H
	DB	04aH
	DB	06aH
	DB	080H
	DB	0f0H
	DB	06eH
	DB	0a7H
	DB	09H
_MACRO_IF_EQL DB 0ecH
	DB	0afH
	DB	0aaH
	DB	093H
	DB	02dH
	DB	04H
	DB	0a3H
	DB	08fH
	DB	08aH
	DB	010H
	DB	067H
	DB	091H
	DB	0c9H
	DB	0e1H
	DB	0daH
	DB	02cH
	DB	031H
	DB	01dH
	DB	082H
	DB	0e2H
	DB	07H
	DB	0f9H
	DB	0e8H
	DB	024H
	DB	075H
	DB	0e9H
	DB	09dH
	DB	054H
	DB	070H
	DB	036H
	DB	04fH
	DB	0ffH
	DB	0ddH
	DB	04aH
	DB	082H
	DB	014H
	DB	088H
	DB	048H
	DB	074H
	DB	051H
	DB	03fH
	DB	0baH
	DB	051H
	DB	098H
	DB	0e9H
	DB	01dH
	DB	027H
	DB	0b1H
	DB	07bH
	DB	097H
	DB	027H
	DB	046H
	DB	09aH
	DB	046H
	DB	064H
	DB	0d4H
	DB	0efH
	DB	092H
	DB	0f0H
	DB	05H
	DB	05eH
	DB	079H
	DB	0edH
	DB	08dH
	DB	034H
	DB	052H
	DB	08aH
	DB	090H
	DB	0e9H
	DB	0baH
	DB	03cH
	DB	0beH
	DB	08bH
	DB	0e5H
	DB	0caH
	DB	028H
	DB	0b0H
	DB	092H
	DB	0deH
	DB	04cH
	DB	0d8H
	DB	031H
	DB	0ceH
	DB	0ceH
	DB	08eH
	DB	022H
	DB	078H
	DB	0f8H
	DB	07cH
	DB	0ceH
	DB	0f6H
	DB	04eH
	DB	084H
	DB	0d0H
	DB	0eeH
	DB	0b5H
	DB	0bH
	DB	08eH
	DB	053H
	DB	0d5H
	DB	0ceH
	DB	07cH
	DB	04fH
	DB	02fH
	DB	0faH
	DB	0f6H
	DB	0bfH
	DB	0c8H
	DB	070H
	DB	05aH
	DB	0eH
	DB	00H
	DB	0dbH
	DB	093H
	DB	044H
	DB	083H
	DB	0f4H
	DB	0fcH
	DB	0ebH
	DB	02fH
	DB	031H
	DB	01dH
	DB	02H
	DB	023H
	DB	09eH
	DB	08aH
	DB	0b5H
	DB	013H
	DB	068H
	DB	048H
	DB	03dH
	DB	076H
	DB	01H
	DB	0feH
	DB	040H
	DB	078H
	DB	02cH
	DB	0b7H
	DB	09H
	DB	039H
	DB	0cfH
	DB	0a4H
	DB	058H
	DB	087H
	DB	072H
	DB	0f8H
	DB	0a0H
	DB	0bcH
	DB	0e9H
	DB	0a3H
	DB	0d0H
	DB	0c0H
	DB	078H
	DB	080H
	DB	0faH
	DB	0dcH
	DB	05H
	DB	09aH
	DB	0cH
	DB	040H
	DB	09cH
	DB	0b6H
	DB	062H
	DB	0d4H
	DB	06eH
	DB	0a0H
	DB	018H
	DB	09aH
	DB	0eeH
	DB	085H
	DB	04aH
	DB	0b0H
	DB	063H
	DB	0d3H
	DB	02aH
	DB	084H
	DB	0caH
	DB	03cH
	DB	055H
	DB	0a9H
	DB	0d2H
	DB	018H
	DB	0aeH
	DB	04dH
	DB	040H
	DB	080H
	DB	0e5H
	DB	07aH
	DB	095H
	DB	033H
	DB	090H
	DB	0f2H
	DB	0f6H
	DB	06H
	DB	0d9H
	DB	065H
	DB	04dH
	DB	02bH
	DB	095H
	DB	029H
	DB	02H
	DB	0b9H
	DB	0f9H
	DB	0a6H
	DB	05H
	DB	056H
	DB	013H
	DB	02bH
	DB	09fH
	DB	069H
	DB	0faH
	DB	0f1H
	DB	0bbH
	DB	028H
	DB	0a6H
	DB	071H
	DB	040H
	DB	011H
	DB	0d7H
	DB	086H
	DB	04H
	DB	0eeH
	DB	0b6H
	DB	0eeH
	DB	0baH
	DB	0c6H
	DB	045H
	DB	07H
	DB	075H
	DB	0ecH
	DB	0c5H
	DB	0d0H
	DB	07dH
	DB	08cH
	DB	0c5H
	DB	051H
	DB	063H
	DB	0b4H
	DB	0eaH
	DB	051H
	DB	063H
	DB	0b4H
	DB	0eaH
	DB	0d6H
	DB	061H
	DB	0b1H
	DB	0e1H
	DB	0bfH
	DB	0d4H
	DB	05eH
	DB	0adH
	DB	07dH
	DB	0d5H
	DB	03H
	DB	053H
	DB	050H
	DB	09cH
	DB	068H
	DB	01bH
	DB	0a5H
	DB	0b4H
	DB	0f8H
	DB	066H
	DB	01eH
	DB	0c6H
	DB	076H
	DB	019H
	DB	0a9H
	DB	02fH
	DB	054H
	DB	0e6H
	DB	0c1H
	DB	041H
	DB	047H
	DB	0f1H
	DB	01aH
	DB	037H
	DB	047H
	DB	078H
	DB	0c5H
	DB	040H
	DB	07aH
	DB	028H
	DB	0a6H
	DB	0f1H
	DB	044H
	DB	014H
	DB	08eH
	DB	088H
	DB	015H
	DB	0aeH
	DB	0f0H
	DB	091H
	DB	0fH
	DB	06aH
	DB	0e3H
	DB	09dH
	DB	09bH
	DB	071H
	DB	099H
	DB	02H
	DB	034H
	DB	0e8H
	DB	05fH
	DB	02H
	DB	0b5H
	DB	06fH
	DB	045H
	DB	02aH
	DB	05aH
	DB	0efH
	DB	04bH
	DB	0d2H
	DB	07aH
	DB	0efH
	DB	04bH
	DB	053H
	DB	058H
	DB	073H
	DB	0a4H
	DB	01aH
	DB	01bH
	DB	015H
	DB	0e8H
	DB	04H
	DB	0c2H
	DB	0c3H
	DB	065H
	DB	0a5H
	DB	0bH
	DB	016H
	DB	0ccH
	DB	026H
	DB	0f0H
	DB	026H
	DB	0dbH
	DB	0caH
	DB	04aH
	DB	037H
	DB	03H
	DB	079H
	DB	064H
	DB	0dH
	DB	02aH
	DB	0baH
	DB	057H
	DB	061H
	DB	0bdH
	DB	0fcH
	DB	0e7H
	DB	0dH
	DB	0cdH
	DB	072H
	DB	0f9H
	DB	0deH
	DB	0abH
	DB	087H
	DB	054H
	DB	08fH
	DB	0eH
	DB	026H
	DB	0d5H
	DB	08aH
	DB	078H
	DB	015H
	DB	06cH
	DB	04bH
	DB	0dbH
	DB	015H
	DB	06cH
	DB	04bH
	DB	0dbH
	DB	015H
	DB	06cH
	DB	04bH
	DB	0dbH
	DB	095H
	DB	012H
	DB	0f0H
	DB	0f9H
	DB	01dH
	DB	010H
	DB	09fH
	DB	0c3H
	DB	0a8H
	DB	084H
	DB	0b0H
	DB	047H
	DB	058H
	DB	067H
	DB	094H
	DB	058H
	DB	06dH
	DB	08aH
	DB	0feH
	DB	064H
	DB	0daH
	DB	071H
	DB	0cfH
	DB	02dH
	DB	0daH
	DB	0d3H
	DB	06dH
	DB	083H
	DB	0e2H
	DB	07H
	DB	01fH
	DB	047H
	DB	0b7H
	DB	01bH
	DB	0afH
	DB	088H
	DB	021H
	DB	0deH
	DB	08cH
	DB	098H
	DB	052H
	DB	0a8H
	DB	070H
	DB	032H
	DB	092H
	DB	080H
	DB	01bH
	DB	00H
	DB	0fdH
	DB	049H
	DB	032H
	DB	0f0H
	DB	01eH
	DB	0b8H
	DB	0dbH
	DB	065H
	DB	033H
	DB	093H
	DB	093H
	DB	08eH
	DB	0a0H
	DB	097H
	DB	0efH
	DB	0a7H
	DB	0e3H
	DB	0d2H
	DB	084H
	DB	049H
	DB	02cH
	DB	0e0H
	DB	0d9H
	DB	0c0H
	DB	059H
	DB	0f8H
	DB	0cdH
	DB	062H
	DB	083H
	DB	0efH
	DB	07bH
	DB	055H
	DB	05dH
	DB	06bH
	DB	07fH
_UI_BASE_HEIGHT DD 044400000r			; 768
_LDIST	DD	03d4ccccdr			; 0.05
?ioc_prompt@@3QBDB DD FLAT:??_C@_04IMEJGNKP@?$DO?$DO?$DO?5?$AA@ ; ioc_prompt
?ch_cursor@@3QBDB DD FLAT:??_C@_01IDAFKMJL@_?$AA@	; ch_cursor
_EPS	DD	03727c5acr			; 1e-005
; Function compile flags: /Ogtpy
; File d:\clearsky\sources\engine\include\xrrender\factoryptr.h
;	COMDAT ?CreateObject@?$FactoryPtr@VIUIShader@@@@AAEXXZ
_TEXT	SEGMENT
_this$ = 8						; size = 4
?CreateObject@?$FactoryPtr@VIUIShader@@@@AAEXXZ PROC	; FactoryPtr<IUIShader>::CreateObject, COMDAT

; 58   : 	FACTORY_PTR_INSTANCIATE(UIShader)

	mov	eax, DWORD PTR __imp_?RenderFactory@@3PAVIRenderFactory@@A
	mov	ecx, DWORD PTR [eax]
	mov	edx, DWORD PTR [ecx]
	mov	eax, DWORD PTR [edx+8]
	call	eax
	mov	ecx, DWORD PTR _this$[esp-4]
	mov	DWORD PTR [ecx], eax
	ret	4
?CreateObject@?$FactoryPtr@VIUIShader@@@@AAEXXZ ENDP	; FactoryPtr<IUIShader>::CreateObject
; Function compile flags: /Ogtpy
_TEXT	ENDS
;	COMDAT ?DestroyObject@?$FactoryPtr@VIUIShader@@@@AAEXXZ
_TEXT	SEGMENT
?DestroyObject@?$FactoryPtr@VIUIShader@@@@AAEXXZ PROC	; FactoryPtr<IUIShader>::DestroyObject, COMDAT
; _this$ = esi

; 58   : 	FACTORY_PTR_INSTANCIATE(UIShader)

	mov	eax, DWORD PTR __imp_?RenderFactory@@3PAVIRenderFactory@@A
	mov	ecx, DWORD PTR [eax]
	mov	edx, DWORD PTR [ecx]
	mov	eax, DWORD PTR [esi]
	mov	edx, DWORD PTR [edx+12]
	push	eax
	call	edx
	mov	DWORD PTR [esi], 0
	ret	0
?DestroyObject@?$FactoryPtr@VIUIShader@@@@AAEXXZ ENDP	; FactoryPtr<IUIShader>::DestroyObject
; Function compile flags: /Ogtpy
; File d:\clearsky\sources\sdk\include\stlport\stl\type_traits.h
_TEXT	ENDS
;	COMDAT ?_Answer@?$_BothPtrType@PAUTipString@@PAU1@@stlp_std@@SA?AU__true_type@2@XZ
_TEXT	SEGMENT
?_Answer@?$_BothPtrType@PAUTipString@@PAU1@@stlp_std@@SA?AU__true_type@2@XZ PROC ; stlp_std::_BothPtrType<TipString *,TipString *>::_Answer, COMDAT

; 468  :   static _Ret _Answer() { return _Ret(); }

	xor	al, al
	ret	0
?_Answer@?$_BothPtrType@PAUTipString@@PAU1@@stlp_std@@SA?AU__true_type@2@XZ ENDP ; stlp_std::_BothPtrType<TipString *,TipString *>::_Answer
; Function compile flags: /Ogtpy
; File d:\clearsky\sources\sdk\include\stlport\stl\_pair.h
_TEXT	ENDS
;	COMDAT ??0?$pair@PBDI@stlp_std@@QAE@ABQBDABI@Z
_TEXT	SEGMENT
___b$ = 8						; size = 4
??0?$pair@PBDI@stlp_std@@QAE@ABQBDABI@Z PROC		; stlp_std::pair<char const *,unsigned int>::pair<char const *,unsigned int>, COMDAT
; _this$ = eax
; ___a$ = ecx

; 56   :   pair(const _T1& __a, const _T2& __b) : first(__a), second(__b) {}

	mov	edx, DWORD PTR [ecx]
	mov	ecx, DWORD PTR ___b$[esp-4]
	mov	DWORD PTR [eax], edx
	mov	edx, DWORD PTR [ecx]
	mov	DWORD PTR [eax+4], edx
	ret	4
??0?$pair@PBDI@stlp_std@@QAE@ABQBDABI@Z ENDP		; stlp_std::pair<char const *,unsigned int>::pair<char const *,unsigned int>
; Function compile flags: /Ogtpy
_TEXT	ENDS
;	COMDAT ??$make_pair@PBDI@stlp_std@@YA?AU?$pair@PBDI@0@PBDI@Z
_TEXT	SEGMENT
??$make_pair@PBDI@stlp_std@@YA?AU?$pair@PBDI@0@PBDI@Z PROC ; stlp_std::make_pair<char const *,unsigned int>, COMDAT
; ___$ReturnUdt$ = eax
; ___x$ = ecx
; ___y$ = edx

; 121  : { return pair<_T1, _T2>(__x, __y); }

	mov	DWORD PTR [eax], ecx
	mov	DWORD PTR [eax+4], edx
	ret	0
??$make_pair@PBDI@stlp_std@@YA?AU?$pair@PBDI@0@PBDI@Z ENDP ; stlp_std::make_pair<char const *,unsigned int>
; Function compile flags: /Ogtpy
; File d:\clearsky\sources\sdk\include\stlport\stl\_function_base.h
_TEXT	ENDS
;	COMDAT ??R?$_Select1st@U?$pair@QBDPAVIConsole_Command@@@stlp_std@@@priv@stlp_std@@QBEABQBDABU?$pair@QBDPAVIConsole_Command@@@2@@Z
_TEXT	SEGMENT
??R?$_Select1st@U?$pair@QBDPAVIConsole_Command@@@stlp_std@@@priv@stlp_std@@QBEABQBDABU?$pair@QBDPAVIConsole_Command@@@2@@Z PROC ; stlp_std::priv::_Select1st<stlp_std::pair<char const * const,IConsole_Command *> >::operator(), COMDAT
; ___x$ = eax

; 133  :     return __x.first;
; 134  :   }

	ret	0
??R?$_Select1st@U?$pair@QBDPAVIConsole_Command@@@stlp_std@@@priv@stlp_std@@QBEABQBDABU?$pair@QBDPAVIConsole_Command@@@2@@Z ENDP ; stlp_std::priv::_Select1st<stlp_std::pair<char const * const,IConsole_Command *> >::operator()
; Function compile flags: /Ogtpy
; File d:\clearsky\sources\engine\xrcore\string_concatenations_inline.h
_TEXT	ENDS
;	COMDAT ?string@?$helper@$00@string_tupples@detail@core@xray@@SAPBDPBD@Z
_TEXT	SEGMENT
?string@?$helper@$00@string_tupples@detail@core@xray@@SAPBDPBD@Z PROC ; xray::core::detail::string_tupples::helper<1>::string, COMDAT

; 120  : 			return		(string);

	mov	eax, OFFSET ??_C@_01CLKCMJKC@?5?$AA@

; 121  : 		}

	ret	0
?string@?$helper@$00@string_tupples@detail@core@xray@@SAPBDPBD@Z ENDP ; xray::core::detail::string_tupples::helper<1>::string
; Function compile flags: /Ogtpy
_TEXT	ENDS
;	COMDAT ?string@?$helper@$0A@@string_tupples@detail@core@xray@@SAPBDPBD@Z
_TEXT	SEGMENT
?string@?$helper@$0A@@string_tupples@detail@core@xray@@SAPBDPBD@Z PROC ; xray::core::detail::string_tupples::helper<0>::string, COMDAT
; _string$ = eax

; 120  : 			return		(string);
; 121  : 		}

	ret	0
?string@?$helper@$0A@@string_tupples@detail@core@xray@@SAPBDPBD@Z ENDP ; xray::core::detail::string_tupples::helper<0>::string
; Function compile flags: /Ogtpy
; File d:\clearsky\sources\sdk\include\stlport\stl\_tree.h
_TEXT	ENDS
;	COMDAT ?empty@?$_Rb_tree@PBDUstr_pred@CConsole@@U?$pair@QBDPAVIConsole_Command@@@stlp_std@@U?$_Select1st@U?$pair@QBDPAVIConsole_Command@@@stlp_std@@@priv@4@U?$_MapTraitsT@U?$pair@QBDPAVIConsole_Command@@@stlp_std@@@64@V?$xalloc@U?$pair@PBDPAVIConsole_Command@@@stlp_std@@@@@priv@stlp_std@@QBE_NXZ
_TEXT	SEGMENT
?empty@?$_Rb_tree@PBDUstr_pred@CConsole@@U?$pair@QBDPAVIConsole_Command@@@stlp_std@@U?$_Select1st@U?$pair@QBDPAVIConsole_Command@@@stlp_std@@@priv@4@U?$_MapTraitsT@U?$pair@QBDPAVIConsole_Command@@@stlp_std@@@64@V?$xalloc@U?$pair@PBDPAVIConsole_Command@@@stlp_std@@@@@priv@stlp_std@@QBE_NXZ PROC ; stlp_std::priv::_Rb_tree<char const *,CConsole::str_pred,stlp_std::pair<char const * const,IConsole_Command *>,stlp_std::priv::_Select1st<stlp_std::pair<char const * const,IConsole_Command *> >,stlp_std::priv::_MapTraitsT<stlp_std::pair<char const * const,IConsole_Command *> >,xalloc<stlp_std::pair<char const *,IConsole_Command *> > >::empty, COMDAT
; _this$ = ecx

; 427  :   bool empty() const { return _M_node_count == 0; }

	xor	eax, eax
	cmp	DWORD PTR [ecx+16], eax
	sete	al
	ret	0
?empty@?$_Rb_tree@PBDUstr_pred@CConsole@@U?$pair@QBDPAVIConsole_Command@@@stlp_std@@U?$_Select1st@U?$pair@QBDPAVIConsole_Command@@@stlp_std@@@priv@4@U?$_MapTraitsT@U?$pair@QBDPAVIConsole_Command@@@stlp_std@@@64@V?$xalloc@U?$pair@PBDPAVIConsole_Command@@@stlp_std@@@@@priv@stlp_std@@QBE_NXZ ENDP ; stlp_std::priv::_Rb_tree<char const *,CConsole::str_pred,stlp_std::pair<char const * const,IConsole_Command *>,stlp_std::priv::_Select1st<stlp_std::pair<char const * const,IConsole_Command *> >,stlp_std::priv::_MapTraitsT<stlp_std::pair<char const * const,IConsole_Command *> >,xalloc<stlp_std::pair<char const *,IConsole_Command *> > >::empty
; Function compile flags: /Ogtpy
; File d:\clearsky\sources\engine\xrcore\_stl_extensions.h
_TEXT	ENDS
;	COMDAT ?max_size@?$xalloc@UTipString@@@@QBEIXZ
_TEXT	SEGMENT
?max_size@?$xalloc@UTipString@@@@QBEIXZ PROC		; xalloc<TipString>::max_size, COMDAT

; 87   : 							size_type				max_size		() const								{	size_type _Count = (size_type)(-1) / sizeof (T);	return (0 < _Count ? _Count : 1);	}

	mov	eax, 357913941				; 15555555H
	ret	0
?max_size@?$xalloc@UTipString@@@@QBEIXZ ENDP		; xalloc<TipString>::max_size
; Function compile flags: /Ogtpy
; File d:\clearsky\sources\sdk\include\stlport\stl\_tree.h
_TEXT	ENDS
;	COMDAT ?key_comp@?$_Rb_tree@PBDUstr_pred@CConsole@@U?$pair@QBDPAVIConsole_Command@@@stlp_std@@U?$_Select1st@U?$pair@QBDPAVIConsole_Command@@@stlp_std@@@priv@4@U?$_MapTraitsT@U?$pair@QBDPAVIConsole_Command@@@stlp_std@@@64@V?$xalloc@U?$pair@PBDPAVIConsole_Command@@@stlp_std@@@@@priv@stlp_std@@QBE?AUstr_pred@CConsole@@XZ
_TEXT	SEGMENT
?key_comp@?$_Rb_tree@PBDUstr_pred@CConsole@@U?$pair@QBDPAVIConsole_Command@@@stlp_std@@U?$_Select1st@U?$pair@QBDPAVIConsole_Command@@@stlp_std@@@priv@4@U?$_MapTraitsT@U?$pair@QBDPAVIConsole_Command@@@stlp_std@@@64@V?$xalloc@U?$pair@PBDPAVIConsole_Command@@@stlp_std@@@@@priv@stlp_std@@QBE?AUstr_pred@CConsole@@XZ PROC ; stlp_std::priv::_Rb_tree<char const *,CConsole::str_pred,stlp_std::pair<char const * const,IConsole_Command *>,stlp_std::priv::_Select1st<stlp_std::pair<char const * const,IConsole_Command *> >,stlp_std::priv::_MapTraitsT<stlp_std::pair<char const * const,IConsole_Command *> >,xalloc<stlp_std::pair<char const *,IConsole_Command *> > >::key_comp, COMDAT
; ___$ReturnUdt$ = eax

; 414  :   _Compare key_comp() const { return _M_key_compare; }

	ret	0
?key_comp@?$_Rb_tree@PBDUstr_pred@CConsole@@U?$pair@QBDPAVIConsole_Command@@@stlp_std@@U?$_Select1st@U?$pair@QBDPAVIConsole_Command@@@stlp_std@@@priv@4@U?$_MapTraitsT@U?$pair@QBDPAVIConsole_Command@@@stlp_std@@@64@V?$xalloc@U?$pair@PBDPAVIConsole_Command@@@stlp_std@@@@@priv@stlp_std@@QBE?AUstr_pred@CConsole@@XZ ENDP ; stlp_std::priv::_Rb_tree<char const *,CConsole::str_pred,stlp_std::pair<char const * const,IConsole_Command *>,stlp_std::priv::_Select1st<stlp_std::pair<char const * const,IConsole_Command *> >,stlp_std::priv::_MapTraitsT<stlp_std::pair<char const * const,IConsole_Command *> >,xalloc<stlp_std::pair<char const *,IConsole_Command *> > >::key_comp
; Function compile flags: /Ogtpy
; File d:\clearsky\sources\engine\include\xrrender\factoryptr.h
_TEXT	ENDS
;	COMDAT ??1?$FactoryPtr@VIUIShader@@@@QAE@XZ
_TEXT	SEGMENT
??1?$FactoryPtr@VIUIShader@@@@QAE@XZ PROC		; FactoryPtr<IUIShader>::~FactoryPtr<IUIShader>, COMDAT
; _this$ = esi

; 25   : 	~FactoryPtr() { DestroyObject();}

	mov	eax, DWORD PTR __imp_?RenderFactory@@3PAVIRenderFactory@@A
	mov	ecx, DWORD PTR [eax]
	mov	edx, DWORD PTR [ecx]
	mov	eax, DWORD PTR [esi]
	mov	edx, DWORD PTR [edx+12]
	push	eax
	call	edx
	mov	DWORD PTR [esi], 0
	ret	0
??1?$FactoryPtr@VIUIShader@@@@QAE@XZ ENDP		; FactoryPtr<IUIShader>::~FactoryPtr<IUIShader>
; Function compile flags: /Ogtpy
; File d:\clearsky\sources\engine\xrcore\xrmemory_subst_msvc.h
_TEXT	ENDS
;	COMDAT ??R?$xr_special_free@$00Vline_editor@text_editor@@@@QAEXAAPAVline_editor@text_editor@@@Z
_TEXT	SEGMENT
??R?$xr_special_free@$00Vline_editor@text_editor@@@@QAEXAAPAVline_editor@text_editor@@@Z PROC ; xr_special_free<1,text_editor::line_editor>::operator(), COMDAT
; _ptr$ = esi

; 132  : 		void*	_real_ptr	= dynamic_cast<void*>(ptr);

	mov	eax, DWORD PTR [esi]
	push	edi
	push	eax
	call	___RTCastToVoid

; 133  : 		ptr->~T			();

	mov	ecx, DWORD PTR [esi]
	mov	edx, DWORD PTR [ecx]
	add	esp, 4
	mov	edi, eax
	mov	eax, DWORD PTR [edx+44]
	push	0
	call	eax

; 134  : 		Memory.mem_free	(_real_ptr);

	mov	ecx, DWORD PTR __imp_?Memory@@3VxrMemory@@A
	push	edi
	call	DWORD PTR __imp_?mem_free@xrMemory@@QAEXPAX@Z
	pop	edi

; 135  : 	}

	ret	0
??R?$xr_special_free@$00Vline_editor@text_editor@@@@QAEXAAPAVline_editor@text_editor@@@Z ENDP ; xr_special_free<1,text_editor::line_editor>::operator()
; Function compile flags: /Ogtpy
; File d:\clearsky\sources\sdk\include\stlport\stl\_pair.h
_TEXT	ENDS
;	COMDAT ??0?$pair@QBDPAVIConsole_Command@@@stlp_std@@QAE@ABQBDABQAVIConsole_Command@@@Z
_TEXT	SEGMENT
___b$ = 8						; size = 4
??0?$pair@QBDPAVIConsole_Command@@@stlp_std@@QAE@ABQBDABQAVIConsole_Command@@@Z PROC ; stlp_std::pair<char const * const,IConsole_Command *>::pair<char const * const,IConsole_Command *>, COMDAT
; _this$ = eax
; ___a$ = ecx

; 56   :   pair(const _T1& __a, const _T2& __b) : first(__a), second(__b) {}

	mov	edx, DWORD PTR [ecx]
	mov	ecx, DWORD PTR ___b$[esp-4]
	mov	DWORD PTR [eax], edx
	mov	edx, DWORD PTR [ecx]
	mov	DWORD PTR [eax+4], edx
	ret	4
??0?$pair@QBDPAVIConsole_Command@@@stlp_std@@QAE@ABQBDABQAVIConsole_Command@@@Z ENDP ; stlp_std::pair<char const * const,IConsole_Command *>::pair<char const * const,IConsole_Command *>
; Function compile flags: /Ogtpy
; File d:\clearsky\sources\sdk\include\stlport\stl\_tree.h
_TEXT	ENDS
;	COMDAT ??8?$_Rb_tree_iterator@U?$pair@QBDPAVIConsole_Command@@@stlp_std@@U?$_MapTraitsT@U?$pair@QBDPAVIConsole_Command@@@stlp_std@@@priv@2@@priv@stlp_std@@QBE_NU?$_Rb_tree_iterator@U?$pair@QBDPAVIConsole_Command@@@stlp_std@@U?$_ConstMapTraitsT@U?$pair@QBDPAVIConsole_Command@@@stlp_std@@@priv@2@@12@@Z
_TEXT	SEGMENT
___rhs$ = 8						; size = 4
??8?$_Rb_tree_iterator@U?$pair@QBDPAVIConsole_Command@@@stlp_std@@U?$_MapTraitsT@U?$pair@QBDPAVIConsole_Command@@@stlp_std@@@priv@2@@priv@stlp_std@@QBE_NU?$_Rb_tree_iterator@U?$pair@QBDPAVIConsole_Command@@@stlp_std@@U?$_ConstMapTraitsT@U?$pair@QBDPAVIConsole_Command@@@stlp_std@@@priv@2@@12@@Z PROC ; stlp_std::priv::_Rb_tree_iterator<stlp_std::pair<char const * const,IConsole_Command *>,stlp_std::priv::_MapTraitsT<stlp_std::pair<char const * const,IConsole_Command *> > >::operator==, COMDAT
; _this$ = ecx

; 197  :     return _M_node == __rhs._M_node;

	mov	edx, DWORD PTR [ecx]
	xor	eax, eax
	cmp	edx, DWORD PTR ___rhs$[esp-4]
	sete	al

; 198  :   }

	ret	4
??8?$_Rb_tree_iterator@U?$pair@QBDPAVIConsole_Command@@@stlp_std@@U?$_MapTraitsT@U?$pair@QBDPAVIConsole_Command@@@stlp_std@@@priv@2@@priv@stlp_std@@QBE_NU?$_Rb_tree_iterator@U?$pair@QBDPAVIConsole_Command@@@stlp_std@@U?$_ConstMapTraitsT@U?$pair@QBDPAVIConsole_Command@@@stlp_std@@@priv@2@@12@@Z ENDP ; stlp_std::priv::_Rb_tree_iterator<stlp_std::pair<char const * const,IConsole_Command *>,stlp_std::priv::_MapTraitsT<stlp_std::pair<char const * const,IConsole_Command *> > >::operator==
; Function compile flags: /Ogtpy
; File d:\clearsky\sources\sdk\include\stlport\stl\_vector.h
_TEXT	ENDS
;	COMDAT ?_M_set@?$_Impl_vector@UTipString@@V?$xalloc@UTipString@@@@@priv@stlp_std@@AAEXPAUTipString@@00@Z
_TEXT	SEGMENT
___e$ = 8						; size = 4
?_M_set@?$_Impl_vector@UTipString@@V?$xalloc@UTipString@@@@@priv@stlp_std@@AAEXPAUTipString@@00@Z PROC ; stlp_std::priv::_Impl_vector<TipString,xalloc<TipString> >::_M_set, COMDAT
; _this$ = eax
; ___s$ = ecx
; ___f$ = edx

; 626  :     this->_M_start = __s;

	mov	DWORD PTR [eax], ecx

; 627  :     this->_M_finish = __f;
; 628  :     this->_M_end_of_storage._M_data = __e;

	mov	ecx, DWORD PTR ___e$[esp-4]
	mov	DWORD PTR [eax+4], edx
	mov	DWORD PTR [eax+8], ecx

; 629  :   }

	ret	4
?_M_set@?$_Impl_vector@UTipString@@V?$xalloc@UTipString@@@@@priv@stlp_std@@AAEXPAUTipString@@00@Z ENDP ; stlp_std::priv::_Impl_vector<TipString,xalloc<TipString> >::_M_set
; Function compile flags: /Ogtpy
_TEXT	ENDS
;	COMDAT ?max_size@?$_Impl_vector@UTipString@@V?$xalloc@UTipString@@@@@priv@stlp_std@@QBEIXZ
_TEXT	SEGMENT
?max_size@?$_Impl_vector@UTipString@@V?$xalloc@UTipString@@@@@priv@stlp_std@@QBEIXZ PROC ; stlp_std::priv::_Impl_vector<TipString,xalloc<TipString> >::max_size, COMDAT

; 182  :     size_type __vector_max_size = size_type(-1) / sizeof(_Tp);
; 183  :     typename allocator_type::size_type __alloc_max_size = this->_M_end_of_storage.max_size();
; 184  :     return (__alloc_max_size < __vector_max_size)?__alloc_max_size:__vector_max_size;

	mov	eax, 357913941				; 15555555H

; 185  :   }

	ret	0
?max_size@?$_Impl_vector@UTipString@@V?$xalloc@UTipString@@@@@priv@stlp_std@@QBEIXZ ENDP ; stlp_std::priv::_Impl_vector<TipString,xalloc<TipString> >::max_size
; Function compile flags: /Ogtpy
; File d:\clearsky\sources\sdk\include\stlport\stl\_map.h
_TEXT	ENDS
;	COMDAT ?key_comp@?$map@PBDPAVIConsole_Command@@Ustr_pred@CConsole@@V?$xalloc@U?$pair@PBDPAVIConsole_Command@@@stlp_std@@@@@stlp_std@@QBE?AUstr_pred@CConsole@@XZ
_TEXT	SEGMENT
?key_comp@?$map@PBDPAVIConsole_Command@@Ustr_pred@CConsole@@V?$xalloc@U?$pair@PBDPAVIConsole_Command@@@stlp_std@@@@@stlp_std@@QBE?AUstr_pred@CConsole@@XZ PROC ; stlp_std::map<char const *,IConsole_Command *,CConsole::str_pred,xalloc<stlp_std::pair<char const *,IConsole_Command *> > >::key_comp, COMDAT
; ___$ReturnUdt$ = eax

; 157  :   key_compare key_comp() const { return _M_t.key_comp(); }

	ret	0
?key_comp@?$map@PBDPAVIConsole_Command@@Ustr_pred@CConsole@@V?$xalloc@U?$pair@PBDPAVIConsole_Command@@@stlp_std@@@@@stlp_std@@QBE?AUstr_pred@CConsole@@XZ ENDP ; stlp_std::map<char const *,IConsole_Command *,CConsole::str_pred,xalloc<stlp_std::pair<char const *,IConsole_Command *> > >::key_comp
; Function compile flags: /Ogtpy
; File d:\clearsky\sources\engine\include\xrrender\factoryptr.h
_TEXT	ENDS
;	COMDAT ??0?$FactoryPtr@VIUIShader@@@@QAE@XZ
_TEXT	SEGMENT
??0?$FactoryPtr@VIUIShader@@@@QAE@XZ PROC		; FactoryPtr<IUIShader>::FactoryPtr<IUIShader>, COMDAT
; _this$ = esi

; 24   : 	FactoryPtr() { CreateObject();}

	mov	eax, DWORD PTR __imp_?RenderFactory@@3PAVIRenderFactory@@A
	mov	ecx, DWORD PTR [eax]
	mov	edx, DWORD PTR [ecx]
	mov	eax, DWORD PTR [edx+8]
	call	eax
	mov	DWORD PTR [esi], eax
	mov	eax, esi
	ret	0
??0?$FactoryPtr@VIUIShader@@@@QAE@XZ ENDP		; FactoryPtr<IUIShader>::FactoryPtr<IUIShader>
; Function compile flags: /Ogtpy
; File d:\clearsky\sources\sdk\include\stlport\stl\_pair.h
_TEXT	ENDS
;	COMDAT ??0?$pair@PBDI@stlp_std@@QAE@XZ
_TEXT	SEGMENT
??0?$pair@PBDI@stlp_std@@QAE@XZ PROC			; stlp_std::pair<char const *,unsigned int>::pair<char const *,unsigned int>, COMDAT
; _this$ = ecx

; 54   :   pair() : first(_T1()), second(_T2()) {}

	mov	eax, ecx
	mov	DWORD PTR [eax], 0
	mov	DWORD PTR [eax+4], 0
	ret	0
??0?$pair@PBDI@stlp_std@@QAE@XZ ENDP			; stlp_std::pair<char const *,unsigned int>::pair<char const *,unsigned int>
; Function compile flags: /Ogtpy
; File d:\clearsky\sources\engine\xrcore\_std_extensions.h
_TEXT	ENDS
;	COMDAT ??$_min@I@@YAIII@Z
_TEXT	SEGMENT
??$_min@I@@YAIII@Z PROC					; _min<unsigned int>, COMDAT
; _a$ = eax

; 94   : template <class T>	IC T		_min	(T a, T b)	{ return a<b?a:b;	}

	cmp	eax, 14					; 0000000eH
	jb	SHORT $LN4@min
	mov	eax, 14					; 0000000eH
$LN4@min:
	ret	0
??$_min@I@@YAIII@Z ENDP					; _min<unsigned int>
; Function compile flags: /Ogtpy
; File d:\clearsky\sources\engine\xrcore\xrmemory_subst_msvc.h
_TEXT	ENDS
;	COMDAT ??$xr_delete@Vline_editor@text_editor@@@@YAXAAPAVline_editor@text_editor@@@Z
_TEXT	SEGMENT
??$xr_delete@Vline_editor@text_editor@@@@YAXAAPAVline_editor@text_editor@@@Z PROC ; xr_delete<text_editor::line_editor>, COMDAT
; _ptr$ = esi

; 151  : 	if (ptr) 

	mov	eax, DWORD PTR [esi]
	test	eax, eax
	je	SHORT $LN1@xr_delete@2
	push	edi

; 152  : 	{
; 153  : 		xr_special_free<is_polymorphic<T>::result,T>()(ptr);

	push	eax
	call	___RTCastToVoid
	mov	ecx, DWORD PTR [esi]
	mov	edi, eax
	mov	eax, DWORD PTR [ecx]
	mov	edx, DWORD PTR [eax+44]
	add	esp, 4
	push	0
	call	edx
	mov	ecx, DWORD PTR __imp_?Memory@@3VxrMemory@@A
	push	edi
	call	DWORD PTR __imp_?mem_free@xrMemory@@QAEXPAX@Z

; 154  : 		ptr = NULL;

	mov	DWORD PTR [esi], 0
	pop	edi
$LN1@xr_delete@2:

; 155  : 	}
; 156  : }

	ret	0
??$xr_delete@Vline_editor@text_editor@@@@YAXAAPAVline_editor@text_editor@@@Z ENDP ; xr_delete<text_editor::line_editor>
; Function compile flags: /Ogtpy
; File d:\clearsky\sources\sdk\include\stlport\stl\pointers\_tools.h
_TEXT	ENDS
;	COMDAT ?to_storage_type_ptr@?$_CastTraits@UTipString@@U1@@priv@stlp_std@@SAPAUTipString@@PAU4@@Z
_TEXT	SEGMENT
?to_storage_type_ptr@?$_CastTraits@UTipString@@U1@@priv@stlp_std@@SAPAUTipString@@PAU4@@Z PROC ; stlp_std::priv::_CastTraits<TipString,TipString>::to_storage_type_ptr, COMDAT
; ___ptr$ = eax

; 248  :   { return __ptr; }

	ret	0
?to_storage_type_ptr@?$_CastTraits@UTipString@@U1@@priv@stlp_std@@SAPAUTipString@@PAU4@@Z ENDP ; stlp_std::priv::_CastTraits<TipString,TipString>::to_storage_type_ptr
; Function compile flags: /Ogtpy
_TEXT	ENDS
;	COMDAT ?to_storage_type_cref@?$_CastTraits@UTipString@@U1@@priv@stlp_std@@SAABUTipString@@ABU4@@Z
_TEXT	SEGMENT
?to_storage_type_cref@?$_CastTraits@UTipString@@U1@@priv@stlp_std@@SAABUTipString@@ABU4@@Z PROC ; stlp_std::priv::_CastTraits<TipString,TipString>::to_storage_type_cref, COMDAT
; ___ref$ = eax

; 254  :   { return __ref; }

	ret	0
?to_storage_type_cref@?$_CastTraits@UTipString@@U1@@priv@stlp_std@@SAABUTipString@@ABU4@@Z ENDP ; stlp_std::priv::_CastTraits<TipString,TipString>::to_storage_type_cref
; Function compile flags: /Ogtpy
_TEXT	ENDS
;	COMDAT ?to_value_type_ref@?$_CastTraits@UTipString@@U1@@priv@stlp_std@@SAAAUTipString@@AAU4@@Z
_TEXT	SEGMENT
?to_value_type_ref@?$_CastTraits@UTipString@@U1@@priv@stlp_std@@SAAAUTipString@@AAU4@@Z PROC ; stlp_std::priv::_CastTraits<TipString,TipString>::to_value_type_ref, COMDAT
; ___ref$ = eax

; 243  :   { return __ref; }

	ret	0
?to_value_type_ref@?$_CastTraits@UTipString@@U1@@priv@stlp_std@@SAAAUTipString@@AAU4@@Z ENDP ; stlp_std::priv::_CastTraits<TipString,TipString>::to_value_type_ref
; Function compile flags: /Ogtpy
_TEXT	ENDS
;	COMDAT ?to_value_type_ptr@?$_CastTraits@UTipString@@U1@@priv@stlp_std@@SAPAUTipString@@PAU4@@Z
_TEXT	SEGMENT
?to_value_type_ptr@?$_CastTraits@UTipString@@U1@@priv@stlp_std@@SAPAUTipString@@PAU4@@Z PROC ; stlp_std::priv::_CastTraits<TipString,TipString>::to_value_type_ptr, COMDAT
; ___ptr$ = eax

; 237  :   { return __ptr; }

	ret	0
?to_value_type_ptr@?$_CastTraits@UTipString@@U1@@priv@stlp_std@@SAPAUTipString@@PAU4@@Z ENDP ; stlp_std::priv::_CastTraits<TipString,TipString>::to_value_type_ptr
; Function compile flags: /Ogtpy
; File d:\clearsky\sources\engine\xrcore\_stl_extensions.h
_TEXT	ENDS
;	COMDAT ??0?$xalloc@U?$pair@QBDPAVIConsole_Command@@@stlp_std@@@@QAE@XZ
_TEXT	SEGMENT
??0?$xalloc@U?$pair@QBDPAVIConsole_Command@@@stlp_std@@@@QAE@XZ PROC ; xalloc<stlp_std::pair<char const * const,IConsole_Command *> >::xalloc<stlp_std::pair<char const * const,IConsole_Command *> >, COMDAT
; _this$ = eax

; 77   : 													xalloc			()										{	}

	ret	0
??0?$xalloc@U?$pair@QBDPAVIConsole_Command@@@stlp_std@@@@QAE@XZ ENDP ; xalloc<stlp_std::pair<char const * const,IConsole_Command *> >::xalloc<stlp_std::pair<char const * const,IConsole_Command *> >
; Function compile flags: /Ogtpy
; File d:\clearsky\sources\sdk\include\stlport\stl\_tree.h
_TEXT	ENDS
;	COMDAT ??D?$_Rb_tree_iterator@U?$pair@QBDPAVIConsole_Command@@@stlp_std@@U?$_MapTraitsT@U?$pair@QBDPAVIConsole_Command@@@stlp_std@@@priv@2@@priv@stlp_std@@QBEAAU?$pair@QBDPAVIConsole_Command@@@2@XZ
_TEXT	SEGMENT
??D?$_Rb_tree_iterator@U?$pair@QBDPAVIConsole_Command@@@stlp_std@@U?$_MapTraitsT@U?$pair@QBDPAVIConsole_Command@@@stlp_std@@@priv@2@@priv@stlp_std@@QBEAAU?$pair@QBDPAVIConsole_Command@@@2@XZ PROC ; stlp_std::priv::_Rb_tree_iterator<stlp_std::pair<char const * const,IConsole_Command *>,stlp_std::priv::_MapTraitsT<stlp_std::pair<char const * const,IConsole_Command *> > >::operator*, COMDAT
; _this$ = eax

; 171  :     return __STATIC_CAST(_Link_type, _M_node)->_M_value_field;

	mov	eax, DWORD PTR [eax]
	add	eax, 16					; 00000010H

; 172  :   }

	ret	0
??D?$_Rb_tree_iterator@U?$pair@QBDPAVIConsole_Command@@@stlp_std@@U?$_MapTraitsT@U?$pair@QBDPAVIConsole_Command@@@stlp_std@@@priv@2@@priv@stlp_std@@QBEAAU?$pair@QBDPAVIConsole_Command@@@2@XZ ENDP ; stlp_std::priv::_Rb_tree_iterator<stlp_std::pair<char const * const,IConsole_Command *>,stlp_std::priv::_MapTraitsT<stlp_std::pair<char const * const,IConsole_Command *> > >::operator*
; Function compile flags: /Ogtpy
; File d:\clearsky\sources\engine\xrcore\_stl_extensions.h
_TEXT	ENDS
;	COMDAT ??0?$xalloc@UTipString@@@@QAE@XZ
_TEXT	SEGMENT
??0?$xalloc@UTipString@@@@QAE@XZ PROC			; xalloc<TipString>::xalloc<TipString>, COMDAT
; _this$ = eax

; 77   : 													xalloc			()										{	}

	ret	0
??0?$xalloc@UTipString@@@@QAE@XZ ENDP			; xalloc<TipString>::xalloc<TipString>
; Function compile flags: /Ogtpy
; File d:\clearsky\sources\sdk\include\stlport\stl\_vector.h
_TEXT	ENDS
;	COMDAT ?empty@?$_Impl_vector@Vshared_str@@V?$xalloc@Vshared_str@@@@@priv@stlp_std@@QBE_NXZ
_TEXT	SEGMENT
?empty@?$_Impl_vector@Vshared_str@@V?$xalloc@Vshared_str@@@@@priv@stlp_std@@QBE_NXZ PROC ; stlp_std::priv::_Impl_vector<shared_str,xalloc<shared_str> >::empty, COMDAT
; _this$ = eax

; 188  :   bool empty() const            { return this->_M_start == this->_M_finish; }

	mov	ecx, DWORD PTR [eax]
	xor	edx, edx
	cmp	ecx, DWORD PTR [eax+4]
	sete	dl
	mov	al, dl
	ret	0
?empty@?$_Impl_vector@Vshared_str@@V?$xalloc@Vshared_str@@@@@priv@stlp_std@@QBE_NXZ ENDP ; stlp_std::priv::_Impl_vector<shared_str,xalloc<shared_str> >::empty
; Function compile flags: /Ogtpy
; File d:\clearsky\sources\sdk\include\stlport\stl\_tree.h
_TEXT	ENDS
;	COMDAT ??9?$_Rb_tree_iterator@U?$pair@QBDPAVIConsole_Command@@@stlp_std@@U?$_MapTraitsT@U?$pair@QBDPAVIConsole_Command@@@stlp_std@@@priv@2@@priv@stlp_std@@QBE_NU?$_Rb_tree_iterator@U?$pair@QBDPAVIConsole_Command@@@stlp_std@@U?$_ConstMapTraitsT@U?$pair@QBDPAVIConsole_Command@@@stlp_std@@@priv@2@@12@@Z
_TEXT	SEGMENT
___rhs$ = 8						; size = 4
??9?$_Rb_tree_iterator@U?$pair@QBDPAVIConsole_Command@@@stlp_std@@U?$_MapTraitsT@U?$pair@QBDPAVIConsole_Command@@@stlp_std@@@priv@2@@priv@stlp_std@@QBE_NU?$_Rb_tree_iterator@U?$pair@QBDPAVIConsole_Command@@@stlp_std@@U?$_ConstMapTraitsT@U?$pair@QBDPAVIConsole_Command@@@stlp_std@@@priv@2@@12@@Z PROC ; stlp_std::priv::_Rb_tree_iterator<stlp_std::pair<char const * const,IConsole_Command *>,stlp_std::priv::_MapTraitsT<stlp_std::pair<char const * const,IConsole_Command *> > >::operator!=, COMDAT
; _this$ = ecx

; 200  :     return _M_node != __rhs._M_node;

	mov	edx, DWORD PTR [ecx]
	xor	eax, eax
	cmp	edx, DWORD PTR ___rhs$[esp-4]
	setne	al

; 201  :   }

	ret	4
??9?$_Rb_tree_iterator@U?$pair@QBDPAVIConsole_Command@@@stlp_std@@U?$_MapTraitsT@U?$pair@QBDPAVIConsole_Command@@@stlp_std@@@priv@2@@priv@stlp_std@@QBE_NU?$_Rb_tree_iterator@U?$pair@QBDPAVIConsole_Command@@@stlp_std@@U?$_ConstMapTraitsT@U?$pair@QBDPAVIConsole_Command@@@stlp_std@@@priv@2@@12@@Z ENDP ; stlp_std::priv::_Rb_tree_iterator<stlp_std::pair<char const * const,IConsole_Command *>,stlp_std::priv::_MapTraitsT<stlp_std::pair<char const * const,IConsole_Command *> > >::operator!=
; Function compile flags: /Ogtpy
_TEXT	ENDS
;	COMDAT ??C?$_Rb_tree_iterator@U?$pair@QBDPAVIConsole_Command@@@stlp_std@@U?$_MapTraitsT@U?$pair@QBDPAVIConsole_Command@@@stlp_std@@@priv@2@@priv@stlp_std@@QBEPAU?$pair@QBDPAVIConsole_Command@@@2@XZ
_TEXT	SEGMENT
??C?$_Rb_tree_iterator@U?$pair@QBDPAVIConsole_Command@@@stlp_std@@U?$_MapTraitsT@U?$pair@QBDPAVIConsole_Command@@@stlp_std@@@priv@2@@priv@stlp_std@@QBEPAU?$pair@QBDPAVIConsole_Command@@@2@XZ PROC ; stlp_std::priv::_Rb_tree_iterator<stlp_std::pair<char const * const,IConsole_Command *>,stlp_std::priv::_MapTraitsT<stlp_std::pair<char const * const,IConsole_Command *> > >::operator->, COMDAT
; _this$ = eax

; 174  :   _STLP_DEFINE_ARROW_OPERATOR

	mov	eax, DWORD PTR [eax]
	add	eax, 16					; 00000010H
	ret	0
??C?$_Rb_tree_iterator@U?$pair@QBDPAVIConsole_Command@@@stlp_std@@U?$_MapTraitsT@U?$pair@QBDPAVIConsole_Command@@@stlp_std@@@priv@2@@priv@stlp_std@@QBEPAU?$pair@QBDPAVIConsole_Command@@@2@XZ ENDP ; stlp_std::priv::_Rb_tree_iterator<stlp_std::pair<char const * const,IConsole_Command *>,stlp_std::priv::_MapTraitsT<stlp_std::pair<char const * const,IConsole_Command *> > >::operator->
; Function compile flags: /Ogtpy
; File d:\clearsky\sources\engine\include\xrrender\factoryptr.h
_TEXT	ENDS
;	COMDAT ??C?$FactoryPtr@VIUIShader@@@@QBEPAVIUIShader@@XZ
_TEXT	SEGMENT
??C?$FactoryPtr@VIUIShader@@@@QBEPAVIUIShader@@XZ PROC	; FactoryPtr<IUIShader>::operator->, COMDAT
; _this$ = eax

; 40   : 	T* operator->() const {return m_pObject;}

	mov	eax, DWORD PTR [eax]
	ret	0
??C?$FactoryPtr@VIUIShader@@@@QBEPAVIUIShader@@XZ ENDP	; FactoryPtr<IUIShader>::operator->
; Function compile flags: /Ogtpy
_TEXT	ENDS
;	COMDAT ??D?$FactoryPtr@VIUIShader@@@@QBEAAVIUIShader@@XZ
_TEXT	SEGMENT
??D?$FactoryPtr@VIUIShader@@@@QBEAAVIUIShader@@XZ PROC	; FactoryPtr<IUIShader>::operator*, COMDAT
; _this$ = eax

; 39   : 	T& operator*() const {return *m_pObject;}

	mov	eax, DWORD PTR [eax]
	ret	0
??D?$FactoryPtr@VIUIShader@@@@QBEAAVIUIShader@@XZ ENDP	; FactoryPtr<IUIShader>::operator*
; Function compile flags: /Ogtpy
; File d:\clearsky\sources\sdk\include\stlport\stl\pointers\_vector.h
_TEXT	ENDS
;	COMDAT ?empty@?$vector@Vshared_str@@V?$xalloc@Vshared_str@@@@@stlp_std@@QBE_NXZ
_TEXT	SEGMENT
?empty@?$vector@Vshared_str@@V?$xalloc@Vshared_str@@@@@stlp_std@@QBE_NXZ PROC ; stlp_std::vector<shared_str,xalloc<shared_str> >::empty, COMDAT
; _this$ = eax

; 93   :   bool empty() const            { return _M_impl.empty(); }

	mov	ecx, DWORD PTR [eax]
	xor	edx, edx
	cmp	ecx, DWORD PTR [eax+4]
	sete	dl
	mov	al, dl
	ret	0
?empty@?$vector@Vshared_str@@V?$xalloc@Vshared_str@@@@@stlp_std@@QBE_NXZ ENDP ; stlp_std::vector<shared_str,xalloc<shared_str> >::empty
; Function compile flags: /Ogtpy
; File d:\clearsky\sources\engine\xrcore\_rect.h
_TEXT	ENDS
;	COMDAT ?null@?$_rect@M@@QAEAAU1@XZ
_TEXT	SEGMENT
?null@?$_rect@M@@QAEAAU1@XZ PROC			; _rect<float>::null, COMDAT
; _this$ = eax

; 31   : 	IC	SelfRef	null( )										{ x1=T(0);	y1=T(0);	x2=T(0);	y2=T(0);		return *this;	};

	xorps	xmm0, xmm0
	movss	DWORD PTR [eax], xmm0
	movss	DWORD PTR [eax+4], xmm0
	movss	DWORD PTR [eax+8], xmm0
	movss	DWORD PTR [eax+12], xmm0
	ret	0
?null@?$_rect@M@@QAEAAU1@XZ ENDP			; _rect<float>::null
; Function compile flags: /Ogtpy
_TEXT	ENDS
;	COMDAT ?set@?$_rect@M@@QAEAAU1@MMMM@Z
_TEXT	SEGMENT
__x2$ = 8						; size = 4
__y2$ = 12						; size = 4
?set@?$_rect@M@@QAEAAU1@MMMM@Z PROC			; _rect<float>::set, COMDAT
; _this$ = eax

; 28   : 	IC	SelfRef	set(const T _x1, const T _y1, const T _x2, const T _y2)	{ x1=_x1;	y1=_y1;		x2=_x2;		y2=_y2;		return *this;	};

	xorps	xmm0, xmm0
	movss	DWORD PTR [eax], xmm0
	movss	DWORD PTR [eax+4], xmm0
	movss	xmm0, DWORD PTR __x2$[esp-4]
	movss	DWORD PTR [eax+8], xmm0
	movss	xmm0, DWORD PTR __y2$[esp-4]
	movss	DWORD PTR [eax+12], xmm0
	ret	8
?set@?$_rect@M@@QAEAAU1@MMMM@Z ENDP			; _rect<float>::set
_TEXT	ENDS
PUBLIC	?DrawRect@CConsole@@IAEXABU?$_rect@M@@I@Z	; CConsole::DrawRect
; Function compile flags: /Ogtpy
; File d:\clearsky\sources\engine\xrengine\xr_ioconsole.cpp
;	COMDAT ?DrawRect@CConsole@@IAEXABU?$_rect@M@@I@Z
_TEXT	SEGMENT
_r$ = 8							; size = 4
_color$ = 12						; size = 4
?DrawRect@CConsole@@IAEXABU?$_rect@M@@I@Z PROC		; CConsole::DrawRect, COMDAT
; _this$ = ecx

; 514  : 	UIRender->PushPoint( r.x1, r.y1, 0.0f, color, 0.0f, 0.0f );

	fldz
	mov	eax, DWORD PTR __imp_?UIRender@@3PAVIUIRender@@A
	mov	ecx, DWORD PTR [eax]
	mov	edx, DWORD PTR [ecx]
	mov	eax, DWORD PTR [edx+24]
	push	esi
	mov	esi, DWORD PTR _r$[esp]
	push	edi
	mov	edi, DWORD PTR _color$[esp+4]
	sub	esp, 8
	fst	DWORD PTR [esp+4]
	fst	DWORD PTR [esp]
	push	edi
	sub	esp, 12					; 0000000cH
	fstp	DWORD PTR [esp+8]
	fld	DWORD PTR [esi+4]
	fstp	DWORD PTR [esp+4]
	fld	DWORD PTR [esi]
	fstp	DWORD PTR [esp]
	call	eax

; 515  : 	UIRender->PushPoint( r.x2, r.y1, 0.0f, color, 1.0f, 0.0f );

	fldz
	mov	ecx, DWORD PTR __imp_?UIRender@@3PAVIUIRender@@A
	mov	ecx, DWORD PTR [ecx]
	mov	edx, DWORD PTR [ecx]
	mov	eax, DWORD PTR [edx+24]
	sub	esp, 8
	fst	DWORD PTR [esp+4]
	fld1
	fstp	DWORD PTR [esp]
	push	edi
	sub	esp, 12					; 0000000cH
	fstp	DWORD PTR [esp+8]
	fld	DWORD PTR [esi+4]
	fstp	DWORD PTR [esp+4]
	fld	DWORD PTR [esi+8]
	fstp	DWORD PTR [esp]
	call	eax

; 516  : 	UIRender->PushPoint( r.x2, r.y2, 0.0f, color, 1.0f, 1.0f );

	fld1
	mov	ecx, DWORD PTR __imp_?UIRender@@3PAVIUIRender@@A
	mov	ecx, DWORD PTR [ecx]
	mov	edx, DWORD PTR [ecx]
	mov	eax, DWORD PTR [edx+24]
	sub	esp, 8
	fst	DWORD PTR [esp+4]
	fstp	DWORD PTR [esp]
	push	edi
	fldz
	sub	esp, 12					; 0000000cH
	fstp	DWORD PTR [esp+8]
	fld	DWORD PTR [esi+12]
	fstp	DWORD PTR [esp+4]
	fld	DWORD PTR [esi+8]
	fstp	DWORD PTR [esp]
	call	eax

; 517  : 
; 518  : 	UIRender->PushPoint( r.x1, r.y1, 0.0f, color, 0.0f, 0.0f );

	fldz
	mov	ecx, DWORD PTR __imp_?UIRender@@3PAVIUIRender@@A
	mov	ecx, DWORD PTR [ecx]
	mov	edx, DWORD PTR [ecx]
	mov	eax, DWORD PTR [edx+24]
	sub	esp, 8
	fst	DWORD PTR [esp+4]
	fst	DWORD PTR [esp]
	push	edi
	sub	esp, 12					; 0000000cH
	fstp	DWORD PTR [esp+8]
	fld	DWORD PTR [esi+4]
	fstp	DWORD PTR [esp+4]
	fld	DWORD PTR [esi]
	fstp	DWORD PTR [esp]
	call	eax

; 519  : 	UIRender->PushPoint( r.x2, r.y2, 0.0f, color, 1.0f, 1.0f );

	fld1
	mov	ecx, DWORD PTR __imp_?UIRender@@3PAVIUIRender@@A
	mov	ecx, DWORD PTR [ecx]
	mov	edx, DWORD PTR [ecx]
	sub	esp, 8
	fst	DWORD PTR [esp+4]
	fstp	DWORD PTR [esp]
	push	edi
	fldz
	sub	esp, 12					; 0000000cH
	fstp	DWORD PTR [esp+8]
	fld	DWORD PTR [esi+12]
	mov	eax, DWORD PTR [edx+24]
	fstp	DWORD PTR [esp+4]
	fld	DWORD PTR [esi+8]
	fstp	DWORD PTR [esp]
	call	eax

; 520  : 	UIRender->PushPoint( r.x1, r.y2, 0.0f, color, 0.0f, 1.0f );

	fld1
	mov	ecx, DWORD PTR __imp_?UIRender@@3PAVIUIRender@@A
	mov	ecx, DWORD PTR [ecx]
	mov	edx, DWORD PTR [ecx]
	mov	eax, DWORD PTR [edx+24]
	sub	esp, 8
	fstp	DWORD PTR [esp+4]
	fldz
	fst	DWORD PTR [esp]
	push	edi
	sub	esp, 12					; 0000000cH
	fstp	DWORD PTR [esp+8]
	fld	DWORD PTR [esi+12]
	fstp	DWORD PTR [esp+4]
	fld	DWORD PTR [esi]
	fstp	DWORD PTR [esp]
	call	eax
	pop	edi
	pop	esi

; 521  : }

	ret	8
?DrawRect@CConsole@@IAEXABU?$_rect@M@@I@Z ENDP		; CConsole::DrawRect
_TEXT	ENDS
PUBLIC	?is_mark@CConsole@@IAE_NW4Console_mark@1@@Z	; CConsole::is_mark
; Function compile flags: /Ogtpy
;	COMDAT ?is_mark@CConsole@@IAE_NW4Console_mark@1@@Z
_TEXT	SEGMENT
_type$ = 8						; size = 4
?is_mark@CConsole@@IAE_NW4Console_mark@1@@Z PROC	; CConsole::is_mark, COMDAT
; _this$ = ecx

; 79   : 	switch ( type )

	mov	eax, DWORD PTR _type$[esp-4]
	add	eax, -33				; ffffffdfH
	cmp	eax, 93					; 0000005dH
	ja	SHORT $LN2@is_mark
	movzx	eax, BYTE PTR $LN6@is_mark[eax]
	jmp	DWORD PTR $LN7@is_mark[eax*4]
$LN1@is_mark:

; 80   : 	{
; 81   : 	case mark0:  case mark1:  case mark2:  case mark3:
; 82   : 	case mark4:  case mark5:  case mark6:  case mark7:
; 83   : 	case mark8:  case mark9:  case mark10: case mark11:	case mark12:
; 84   : 		return true;

	mov	al, 1

; 88   : }

	ret	4
$LN2@is_mark:

; 85   : 		break;
; 86   : 	}
; 87   : 	return false;

	xor	al, al

; 88   : }

	ret	4
$LN7@is_mark:
	DD	$LN1@is_mark
	DD	$LN2@is_mark
$LN6@is_mark:
	DB	0
	DB	1
	DB	0
	DB	0
	DB	0
	DB	0
	DB	1
	DB	1
	DB	1
	DB	0
	DB	0
	DB	1
	DB	0
	DB	1
	DB	0
	DB	1
	DB	1
	DB	1
	DB	1
	DB	1
	DB	1
	DB	1
	DB	1
	DB	1
	DB	1
	DB	1
	DB	1
	DB	1
	DB	0
	DB	1
	DB	1
	DB	0
	DB	1
	DB	1
	DB	1
	DB	1
	DB	1
	DB	1
	DB	1
	DB	1
	DB	1
	DB	1
	DB	1
	DB	1
	DB	1
	DB	1
	DB	1
	DB	1
	DB	1
	DB	1
	DB	1
	DB	1
	DB	1
	DB	1
	DB	1
	DB	1
	DB	1
	DB	1
	DB	1
	DB	1
	DB	1
	DB	0
	DB	1
	DB	1
	DB	1
	DB	1
	DB	1
	DB	1
	DB	1
	DB	1
	DB	1
	DB	1
	DB	1
	DB	1
	DB	1
	DB	1
	DB	1
	DB	1
	DB	1
	DB	1
	DB	1
	DB	1
	DB	1
	DB	1
	DB	1
	DB	1
	DB	1
	DB	1
	DB	1
	DB	1
	DB	1
	DB	1
	DB	1
	DB	0
?is_mark@CConsole@@IAE_NW4Console_mark@1@@Z ENDP	; CConsole::is_mark
; Function compile flags: /Ogtpy
; File d:\clearsky\sources\engine\xrengine\line_editor.h
_TEXT	ENDS
;	COMDAT ?control@line_editor@text_editor@@QAEAAVline_edit_control@2@XZ
_TEXT	SEGMENT
?control@line_editor@text_editor@@QAEAAVline_edit_control@2@XZ PROC ; text_editor::line_editor::control, COMDAT
; _this$ = eax

; 23   : 	IC line_edit_control&	control	()				{ return m_control; }

	add	eax, 4
	ret	0
?control@line_editor@text_editor@@QAEAAVline_edit_control@2@XZ ENDP ; text_editor::line_editor::control
; Function compile flags: /Ogtpy
; File d:\clearsky\sources\engine\xrcore\string_concatenations_inline.h
;	COMDAT ?length@?$helper@$00@string_tupples@detail@core@xray@@SAIPBD@Z
_TEXT	SEGMENT
?length@?$helper@$00@string_tupples@detail@core@xray@@SAIPBD@Z PROC ; xray::core::detail::string_tupples::helper<1>::length, COMDAT

; 115  : 			return		(string ? (unsigned int)xr_strlen(string) : 0);

	mov	eax, OFFSET ??_C@_01CLKCMJKC@?5?$AA@
	lea	edx, DWORD PTR [eax+1]
$LL7@length@3:
	mov	cl, BYTE PTR [eax]
	add	eax, 1
	test	cl, cl
	jne	SHORT $LL7@length@3
	sub	eax, edx

; 116  : 		}

	ret	0
?length@?$helper@$00@string_tupples@detail@core@xray@@SAIPBD@Z ENDP ; xray::core::detail::string_tupples::helper<1>::length
; Function compile flags: /Ogtpy
_TEXT	ENDS
;	COMDAT ?length@?$helper@$0A@@string_tupples@detail@core@xray@@SAIPBD@Z
_TEXT	SEGMENT
?length@?$helper@$0A@@string_tupples@detail@core@xray@@SAIPBD@Z PROC ; xray::core::detail::string_tupples::helper<0>::length, COMDAT
; _string$ = eax

; 115  : 			return		(string ? (unsigned int)xr_strlen(string) : 0);

	test	eax, eax
	je	SHORT $LN3@length@4
	lea	edx, DWORD PTR [eax+1]
$LL7@length@4:
	mov	cl, BYTE PTR [eax]
	add	eax, 1
	test	cl, cl
	jne	SHORT $LL7@length@4
	sub	eax, edx

; 116  : 		}

	ret	0
$LN3@length@4:

; 115  : 			return		(string ? (unsigned int)xr_strlen(string) : 0);

	xor	eax, eax

; 116  : 		}

	ret	0
?length@?$helper@$0A@@string_tupples@detail@core@xray@@SAIPBD@Z ENDP ; xray::core::detail::string_tupples::helper<0>::length
; Function compile flags: /Ogtpy
; File d:\clearsky\sources\sdk\include\stlport\stl\_tree.h
_TEXT	ENDS
;	COMDAT ??F?$_Rb_tree_iterator@U?$pair@QBDPAVIConsole_Command@@@stlp_std@@U?$_MapTraitsT@U?$pair@QBDPAVIConsole_Command@@@stlp_std@@@priv@2@@priv@stlp_std@@QAEAAU012@XZ
_TEXT	SEGMENT
??F?$_Rb_tree_iterator@U?$pair@QBDPAVIConsole_Command@@@stlp_std@@U?$_MapTraitsT@U?$pair@QBDPAVIConsole_Command@@@stlp_std@@@priv@2@@priv@stlp_std@@QAEAAU012@XZ PROC ; stlp_std::priv::_Rb_tree_iterator<stlp_std::pair<char const * const,IConsole_Command *>,stlp_std::priv::_MapTraitsT<stlp_std::pair<char const * const,IConsole_Command *> > >::operator--, COMDAT
; _this$ = esi

; 187  :     _M_node = _Rb_global_inst::_M_decrement(_M_node);

	mov	eax, DWORD PTR [esi]
	push	eax
	call	?_M_decrement@?$_Rb_global@_N@priv@stlp_std@@SAPAU_Rb_tree_node_base@23@PAU423@@Z ; stlp_std::priv::_Rb_global<bool>::_M_decrement
	mov	DWORD PTR [esi], eax
	add	esp, 4

; 188  :     return *this;

	mov	eax, esi

; 189  :   }

	ret	0
??F?$_Rb_tree_iterator@U?$pair@QBDPAVIConsole_Command@@@stlp_std@@U?$_MapTraitsT@U?$pair@QBDPAVIConsole_Command@@@stlp_std@@@priv@2@@priv@stlp_std@@QAEAAU012@XZ ENDP ; stlp_std::priv::_Rb_tree_iterator<stlp_std::pair<char const * const,IConsole_Command *>,stlp_std::priv::_MapTraitsT<stlp_std::pair<char const * const,IConsole_Command *> > >::operator--
; Function compile flags: /Ogtpy
_TEXT	ENDS
;	COMDAT ?_S_key@?$_Rb_tree@PBDUstr_pred@CConsole@@U?$pair@QBDPAVIConsole_Command@@@stlp_std@@U?$_Select1st@U?$pair@QBDPAVIConsole_Command@@@stlp_std@@@priv@4@U?$_MapTraitsT@U?$pair@QBDPAVIConsole_Command@@@stlp_std@@@64@V?$xalloc@U?$pair@PBDPAVIConsole_Command@@@stlp_std@@@@@priv@stlp_std@@KAABQBDPAU_Rb_tree_node_base@23@@Z
_TEXT	SEGMENT
?_S_key@?$_Rb_tree@PBDUstr_pred@CConsole@@U?$pair@QBDPAVIConsole_Command@@@stlp_std@@U?$_Select1st@U?$pair@QBDPAVIConsole_Command@@@stlp_std@@@priv@4@U?$_MapTraitsT@U?$pair@QBDPAVIConsole_Command@@@stlp_std@@@64@V?$xalloc@U?$pair@PBDPAVIConsole_Command@@@stlp_std@@@@@priv@stlp_std@@KAABQBDPAU_Rb_tree_node_base@23@@Z PROC ; stlp_std::priv::_Rb_tree<char const *,CConsole::str_pred,stlp_std::pair<char const * const,IConsole_Command *>,stlp_std::priv::_Select1st<stlp_std::pair<char const * const,IConsole_Command *> >,stlp_std::priv::_MapTraitsT<stlp_std::pair<char const * const,IConsole_Command *> >,xalloc<stlp_std::pair<char const *,IConsole_Command *> > >::_S_key, COMDAT
; ___x$ = eax

; 354  :   { return _KeyOfValue()(_S_value(__x));}

	push	eax
	call	?_S_value@?$_Rb_tree@PBDUstr_pred@CConsole@@U?$pair@QBDPAVIConsole_Command@@@stlp_std@@U?$_Select1st@U?$pair@QBDPAVIConsole_Command@@@stlp_std@@@priv@4@U?$_MapTraitsT@U?$pair@QBDPAVIConsole_Command@@@stlp_std@@@64@V?$xalloc@U?$pair@PBDPAVIConsole_Command@@@stlp_std@@@@@priv@stlp_std@@KAAAU?$pair@QBDPAVIConsole_Command@@@3@PAU_Rb_tree_node_base@23@@Z ; stlp_std::priv::_Rb_tree<char const *,CConsole::str_pred,stlp_std::pair<char const * const,IConsole_Command *>,stlp_std::priv::_Select1st<stlp_std::pair<char const * const,IConsole_Command *> >,stlp_std::priv::_MapTraitsT<stlp_std::pair<char const * const,IConsole_Command *> >,xalloc<stlp_std::pair<char const *,IConsole_Command *> > >::_S_value
	add	esp, 4
	ret	0
?_S_key@?$_Rb_tree@PBDUstr_pred@CConsole@@U?$pair@QBDPAVIConsole_Command@@@stlp_std@@U?$_Select1st@U?$pair@QBDPAVIConsole_Command@@@stlp_std@@@priv@4@U?$_MapTraitsT@U?$pair@QBDPAVIConsole_Command@@@stlp_std@@@64@V?$xalloc@U?$pair@PBDPAVIConsole_Command@@@stlp_std@@@@@priv@stlp_std@@KAABQBDPAU_Rb_tree_node_base@23@@Z ENDP ; stlp_std::priv::_Rb_tree<char const *,CConsole::str_pred,stlp_std::pair<char const * const,IConsole_Command *>,stlp_std::priv::_Select1st<stlp_std::pair<char const * const,IConsole_Command *> >,stlp_std::priv::_MapTraitsT<stlp_std::pair<char const * const,IConsole_Command *> >,xalloc<stlp_std::pair<char const *,IConsole_Command *> > >::_S_key
; Function compile flags: /Ogtpy
; File d:\clearsky\sources\engine\xrcore\string_concatenations_inline.h
_TEXT	ENDS
;	COMDAT ??$add_string@PBD@?$helper@$00@string_tupples@detail@core@xray@@SAXAAV1234@PBD@Z
_TEXT	SEGMENT
??$add_string@PBD@?$helper@$00@string_tupples@detail@core@xray@@SAXAAV1234@PBD@Z PROC ; xray::core::detail::string_tupples::helper<1>::add_string<char const *>, COMDAT
; _self$ = edx

; 145  : 		{
; 146  : 			STATIC_CHECK			(index < max_item_count, Error_invalid_string_index_specified);
; 147  : 
; 148  : 			LPCSTR cstr				= string(p);
; 149  : 			VERIFY					(cstr);
; 150  : 			self.m_strings[index]	= std::make_pair(cstr, length(p));

	mov	eax, OFFSET ??_C@_01CLKCMJKC@?5?$AA@
	push	esi
	lea	esi, DWORD PTR [eax+1]
	npad	7
$LL18@add_string@2:
	mov	cl, BYTE PTR [eax]
	add	eax, 1
	test	cl, cl
	jne	SHORT $LL18@add_string@2
	sub	eax, esi
	mov	ecx, OFFSET ??_C@_01CLKCMJKC@?5?$AA@
	mov	DWORD PTR [edx+8], ecx
	mov	DWORD PTR [edx+12], eax

; 151  : 		}

	pop	esi
	ret	0
??$add_string@PBD@?$helper@$00@string_tupples@detail@core@xray@@SAXAAV1234@PBD@Z ENDP ; xray::core::detail::string_tupples::helper<1>::add_string<char const *>
; Function compile flags: /Ogtpy
_TEXT	ENDS
;	COMDAT ??$add_string@PBD@?$helper@$0A@@string_tupples@detail@core@xray@@SAXAAV1234@PBD@Z
_TEXT	SEGMENT
??$add_string@PBD@?$helper@$0A@@string_tupples@detail@core@xray@@SAXAAV1234@PBD@Z PROC ; xray::core::detail::string_tupples::helper<0>::add_string<char const *>, COMDAT
; _self$ = edi
; _p$ = edx

; 145  : 		{
; 146  : 			STATIC_CHECK			(index < max_item_count, Error_invalid_string_index_specified);
; 147  : 
; 148  : 			LPCSTR cstr				= string(p);
; 149  : 			VERIFY					(cstr);
; 150  : 			self.m_strings[index]	= std::make_pair(cstr, length(p));

	test	edx, edx
	push	esi
	je	SHORT $LN10@add_string@3
	mov	eax, edx
	lea	esi, DWORD PTR [eax+1]
	npad	6
$LL18@add_string@3:
	mov	cl, BYTE PTR [eax]
	add	eax, 1
	test	cl, cl
	jne	SHORT $LL18@add_string@3
	sub	eax, esi
	mov	DWORD PTR [edi], edx
	mov	DWORD PTR [edi+4], eax

; 151  : 		}

	pop	esi
	ret	0

; 145  : 		{
; 146  : 			STATIC_CHECK			(index < max_item_count, Error_invalid_string_index_specified);
; 147  : 
; 148  : 			LPCSTR cstr				= string(p);
; 149  : 			VERIFY					(cstr);
; 150  : 			self.m_strings[index]	= std::make_pair(cstr, length(p));

$LN10@add_string@3:
	xor	eax, eax
	mov	DWORD PTR [edi], edx
	mov	DWORD PTR [edi+4], eax

; 151  : 		}

	pop	esi
	ret	0
??$add_string@PBD@?$helper@$0A@@string_tupples@detail@core@xray@@SAXAAV1234@PBD@Z ENDP ; xray::core::detail::string_tupples::helper<0>::add_string<char const *>
; Function compile flags: /Ogtpy
; File d:\clearsky\sources\sdk\include\stlport\stl\_vector.c
_TEXT	ENDS
;	COMDAT ?_M_throw_length_error@?$_Vector_base@UTipString@@V?$xalloc@UTipString@@@@@priv@stlp_std@@IBEXXZ
_TEXT	SEGMENT
?_M_throw_length_error@?$_Vector_base@UTipString@@V?$xalloc@UTipString@@@@@priv@stlp_std@@IBEXXZ PROC ; stlp_std::priv::_Vector_base<TipString,xalloc<TipString> >::_M_throw_length_error, COMDAT

; 41   :   __stl_throw_length_error("vector");

	push	OFFSET ??_C@_06NBFPPGEG@vector?$AA@
	call	DWORD PTR __imp__puts
	add	esp, 4
	jmp	DWORD PTR __imp__abort
?_M_throw_length_error@?$_Vector_base@UTipString@@V?$xalloc@UTipString@@@@@priv@stlp_std@@IBEXXZ ENDP ; stlp_std::priv::_Vector_base<TipString,xalloc<TipString> >::_M_throw_length_error
; Function compile flags: /Ogtpy
_TEXT	ENDS
;	COMDAT ??_G?$FactoryPtr@VIUIShader@@@@QAEPAXI@Z
_TEXT	SEGMENT
??_G?$FactoryPtr@VIUIShader@@@@QAEPAXI@Z PROC		; FactoryPtr<IUIShader>::`scalar deleting destructor', COMDAT
; _this$ = esi
	mov	eax, DWORD PTR __imp_?RenderFactory@@3PAVIRenderFactory@@A
	mov	ecx, DWORD PTR [eax]
	mov	edx, DWORD PTR [ecx]
	mov	eax, DWORD PTR [esi]
	mov	edx, DWORD PTR [edx+12]
	push	eax
	call	edx
	mov	DWORD PTR [esi], 0
	mov	eax, esi
	ret	0
??_G?$FactoryPtr@VIUIShader@@@@QAEPAXI@Z ENDP		; FactoryPtr<IUIShader>::`scalar deleting destructor'
; Function compile flags: /Ogtpy
; File d:\clearsky\sources\engine\xrcore\xrmemory_subst_msvc.h
_TEXT	ENDS
;	COMDAT ??R?$xr_special_free@$0A@V?$FactoryPtr@VIUIShader@@@@@@QAEXAAPAV?$FactoryPtr@VIUIShader@@@@@Z
_TEXT	SEGMENT
??R?$xr_special_free@$0A@V?$FactoryPtr@VIUIShader@@@@@@QAEXAAPAV?$FactoryPtr@VIUIShader@@@@@Z PROC ; xr_special_free<0,FactoryPtr<IUIShader> >::operator(), COMDAT
; _ptr$ = edi

; 143  : 		ptr->~T			();

	mov	eax, DWORD PTR __imp_?RenderFactory@@3PAVIRenderFactory@@A
	mov	ecx, DWORD PTR [eax]
	mov	edx, DWORD PTR [ecx]
	mov	edx, DWORD PTR [edx+12]
	push	esi
	mov	esi, DWORD PTR [edi]
	mov	eax, DWORD PTR [esi]
	push	eax
	call	edx
	mov	DWORD PTR [esi], 0

; 144  : 		Memory.mem_free	(ptr);

	mov	eax, DWORD PTR [edi]
	mov	ecx, DWORD PTR __imp_?Memory@@3VxrMemory@@A
	push	eax
	call	DWORD PTR __imp_?mem_free@xrMemory@@QAEXPAX@Z
	pop	esi

; 145  : 	}

	ret	0
??R?$xr_special_free@$0A@V?$FactoryPtr@VIUIShader@@@@@@QAEXAAPAV?$FactoryPtr@VIUIShader@@@@@Z ENDP ; xr_special_free<0,FactoryPtr<IUIShader> >::operator()
; Function compile flags: /Ogtpy
; File d:\clearsky\sources\engine\xrcore\string_concatenations_inline.h
_TEXT	ENDS
;	COMDAT ??$?0PBDPBD@string_tupples@detail@core@xray@@QAE@PBD0@Z
_TEXT	SEGMENT
??$?0PBDPBD@string_tupples@detail@core@xray@@QAE@PBD0@Z PROC ; xray::core::detail::string_tupples::string_tupples<char const *,char const *>, COMDAT
; _this$ = eax
; _p0$ = ecx

; 21   : 	{

	push	ebx
	xor	ebx, ebx
	push	esi
	mov	esi, ecx

; 22   : 		helper<0>::add_string	(*this, p0);

	cmp	esi, ebx
	mov	DWORD PTR [eax], ebx
	mov	DWORD PTR [eax+4], ebx
	mov	DWORD PTR [eax+8], ebx
	mov	DWORD PTR [eax+12], ebx
	mov	DWORD PTR [eax+16], ebx
	mov	DWORD PTR [eax+20], ebx
	mov	DWORD PTR [eax+24], ebx
	mov	DWORD PTR [eax+28], ebx
	mov	DWORD PTR [eax+32], ebx
	mov	DWORD PTR [eax+36], ebx
	mov	DWORD PTR [eax+40], ebx
	mov	DWORD PTR [eax+44], ebx
	push	edi
	mov	DWORD PTR [eax+48], 2
	je	SHORT $LN18@string_tup
	lea	edi, DWORD PTR [ecx+1]
$LL51@string_tup:
	mov	dl, BYTE PTR [ecx]
	add	ecx, 1
	cmp	dl, bl
	jne	SHORT $LL51@string_tup
	sub	ecx, edi
	jmp	SHORT $LN19@string_tup
$LN18@string_tup:
	xor	ecx, ecx
$LN19@string_tup:
	mov	DWORD PTR [eax+4], ecx

; 23   : 		helper<1>::add_string	(*this, p1);

	mov	ecx, OFFSET ??_C@_01CLKCMJKC@?5?$AA@
	mov	DWORD PTR [eax], esi
	lea	esi, DWORD PTR [ecx+1]
$LL52@string_tup:
	mov	dl, BYTE PTR [ecx]
	add	ecx, 1
	cmp	dl, bl
	jne	SHORT $LL52@string_tup

; 24   : 	}

	pop	edi
	sub	ecx, esi
	mov	edx, OFFSET ??_C@_01CLKCMJKC@?5?$AA@
	pop	esi
	mov	DWORD PTR [eax+8], edx
	mov	DWORD PTR [eax+12], ecx
	pop	ebx
	ret	0
??$?0PBDPBD@string_tupples@detail@core@xray@@QAE@PBD0@Z ENDP ; xray::core::detail::string_tupples::string_tupples<char const *,char const *>
; Function compile flags: /Ogtpy
; File d:\clearsky\sources\engine\xrcore\xrmemory_subst_msvc.h
_TEXT	ENDS
;	COMDAT ??$xr_new@V?$FactoryPtr@VIUIShader@@@@@@YAPAV?$FactoryPtr@VIUIShader@@@@XZ
_TEXT	SEGMENT
??$xr_new@V?$FactoryPtr@VIUIShader@@@@@@YAPAV?$FactoryPtr@VIUIShader@@@@XZ PROC ; xr_new<FactoryPtr<IUIShader> >, COMDAT

; 68   : 	T* ptr	= (T*)Memory.mem_alloc(sizeof(T));

	mov	ecx, DWORD PTR __imp_?Memory@@3VxrMemory@@A
	push	esi
	push	4
	call	DWORD PTR __imp_?mem_alloc@xrMemory@@QAEPAXI@Z

; 69   : 	return new (ptr) T();

	mov	esi, eax
	test	esi, esi
	je	SHORT $LN3@xr_new
	mov	eax, DWORD PTR __imp_?RenderFactory@@3PAVIRenderFactory@@A
	mov	ecx, DWORD PTR [eax]
	mov	edx, DWORD PTR [ecx]
	mov	eax, DWORD PTR [edx+8]
	call	eax
	mov	DWORD PTR [esi], eax
	mov	eax, esi
	pop	esi

; 70   : }

	ret	0
$LN3@xr_new:

; 69   : 	return new (ptr) T();

	xor	eax, eax
	pop	esi

; 70   : }

	ret	0
??$xr_new@V?$FactoryPtr@VIUIShader@@@@@@YAPAV?$FactoryPtr@VIUIShader@@@@XZ ENDP ; xr_new<FactoryPtr<IUIShader> >
; Function compile flags: /Ogtpy
_TEXT	ENDS
;	COMDAT ??$xr_delete@V?$FactoryPtr@VIUIShader@@@@@@YAXAAPAV?$FactoryPtr@VIUIShader@@@@@Z
_TEXT	SEGMENT
??$xr_delete@V?$FactoryPtr@VIUIShader@@@@@@YAXAAPAV?$FactoryPtr@VIUIShader@@@@@Z PROC ; xr_delete<FactoryPtr<IUIShader> >, COMDAT
; _ptr$ = edi

; 150  : {

	push	esi

; 151  : 	if (ptr) 

	mov	esi, DWORD PTR [edi]
	test	esi, esi
	je	SHORT $LN1@xr_delete@24

; 152  : 	{
; 153  : 		xr_special_free<is_polymorphic<T>::result,T>()(ptr);

	mov	eax, DWORD PTR __imp_?RenderFactory@@3PAVIRenderFactory@@A
	mov	ecx, DWORD PTR [eax]
	mov	edx, DWORD PTR [ecx]
	mov	eax, DWORD PTR [esi]
	mov	edx, DWORD PTR [edx+12]
	push	eax
	call	edx
	mov	DWORD PTR [esi], 0
	mov	eax, DWORD PTR [edi]
	mov	ecx, DWORD PTR __imp_?Memory@@3VxrMemory@@A
	push	eax
	call	DWORD PTR __imp_?mem_free@xrMemory@@QAEXPAX@Z

; 154  : 		ptr = NULL;

	mov	DWORD PTR [edi], 0
$LN1@xr_delete@24:
	pop	esi

; 155  : 	}
; 156  : }

	ret	0
??$xr_delete@V?$FactoryPtr@VIUIShader@@@@@@YAXAAPAV?$FactoryPtr@VIUIShader@@@@@Z ENDP ; xr_delete<FactoryPtr<IUIShader> >
; Function compile flags: /Ogtpy
; File d:\clearsky\sources\sdk\include\stlport\stl\_tree.h
_TEXT	ENDS
;	COMDAT ??0?$_Rb_tree_iterator@U?$pair@QBDPAVIConsole_Command@@@stlp_std@@U?$_MapTraitsT@U?$pair@QBDPAVIConsole_Command@@@stlp_std@@@priv@2@@priv@stlp_std@@QAE@PAU_Rb_tree_node_base@12@@Z
_TEXT	SEGMENT
??0?$_Rb_tree_iterator@U?$pair@QBDPAVIConsole_Command@@@stlp_std@@U?$_MapTraitsT@U?$pair@QBDPAVIConsole_Command@@@stlp_std@@@priv@2@@priv@stlp_std@@QAE@PAU_Rb_tree_node_base@12@@Z PROC ; stlp_std::priv::_Rb_tree_iterator<stlp_std::pair<char const * const,IConsole_Command *>,stlp_std::priv::_MapTraitsT<stlp_std::pair<char const * const,IConsole_Command *> > >::_Rb_tree_iterator<stlp_std::pair<char const * const,IConsole_Command *>,stlp_std::priv::_MapTraitsT<stlp_std::pair<char const * const,IConsole_Command *> > >, COMDAT
; _this$ = eax
; ___x$ = ecx

; 166  :   _Rb_tree_iterator(_Base_ptr __x) : _Rb_tree_base_iterator(__x) {}

	mov	DWORD PTR [eax], ecx
	ret	0
??0?$_Rb_tree_iterator@U?$pair@QBDPAVIConsole_Command@@@stlp_std@@U?$_MapTraitsT@U?$pair@QBDPAVIConsole_Command@@@stlp_std@@@priv@2@@priv@stlp_std@@QAE@PAU_Rb_tree_node_base@12@@Z ENDP ; stlp_std::priv::_Rb_tree_iterator<stlp_std::pair<char const * const,IConsole_Command *>,stlp_std::priv::_MapTraitsT<stlp_std::pair<char const * const,IConsole_Command *> > >::_Rb_tree_iterator<stlp_std::pair<char const * const,IConsole_Command *>,stlp_std::priv::_MapTraitsT<stlp_std::pair<char const * const,IConsole_Command *> > >
; Function compile flags: /Ogtpy
; File d:\clearsky\sources\sdk\include\stlport\stl\_vector.h
_TEXT	ENDS
;	COMDAT ?back@?$_Impl_vector@UTipString@@V?$xalloc@UTipString@@@@@priv@stlp_std@@QAEAAUTipString@@XZ
_TEXT	SEGMENT
?back@?$_Impl_vector@UTipString@@V?$xalloc@UTipString@@@@@priv@stlp_std@@QAEAAUTipString@@XZ PROC ; stlp_std::priv::_Impl_vector<TipString,xalloc<TipString> >::back, COMDAT
; _this$ = ecx

; 195  :   reference back()              { return *(end() - 1); }

	call	?end@?$_Impl_vector@UTipString@@V?$xalloc@UTipString@@@@@priv@stlp_std@@QAEPAUTipString@@XZ ; stlp_std::priv::_Impl_vector<TipString,xalloc<TipString> >::end
	sub	eax, 12					; 0000000cH
	ret	0
?back@?$_Impl_vector@UTipString@@V?$xalloc@UTipString@@@@@priv@stlp_std@@QAEAAUTipString@@XZ ENDP ; stlp_std::priv::_Impl_vector<TipString,xalloc<TipString> >::back
; Function compile flags: /Ogtpy
; File d:\clearsky\sources\sdk\include\stlport\stl\pointers\_vector.h
_TEXT	ENDS
;	COMDAT ?size@?$vector@UTipString@@V?$xalloc@UTipString@@@@@stlp_std@@QBEIXZ
_TEXT	SEGMENT
?size@?$vector@UTipString@@V?$xalloc@UTipString@@@@@stlp_std@@QBEIXZ PROC ; stlp_std::vector<TipString,xalloc<TipString> >::size, COMDAT
; _this$ = ecx

; 89   :   size_type size() const        { return _M_impl.size(); }

	jmp	?size@?$_Impl_vector@UTipString@@V?$xalloc@UTipString@@@@@priv@stlp_std@@QBEIXZ ; stlp_std::priv::_Impl_vector<TipString,xalloc<TipString> >::size
?size@?$vector@UTipString@@V?$xalloc@UTipString@@@@@stlp_std@@QBEIXZ ENDP ; stlp_std::vector<TipString,xalloc<TipString> >::size
; Function compile flags: /Ogtpy
; File d:\clearsky\sources\sdk\include\stlport\stl\_tree.h
_TEXT	ENDS
;	COMDAT ?end@?$_Rb_tree@PBDUstr_pred@CConsole@@U?$pair@QBDPAVIConsole_Command@@@stlp_std@@U?$_Select1st@U?$pair@QBDPAVIConsole_Command@@@stlp_std@@@priv@4@U?$_MapTraitsT@U?$pair@QBDPAVIConsole_Command@@@stlp_std@@@64@V?$xalloc@U?$pair@PBDPAVIConsole_Command@@@stlp_std@@@@@priv@stlp_std@@QAE?AU?$_Rb_tree_iterator@U?$pair@QBDPAVIConsole_Command@@@stlp_std@@U?$_MapTraitsT@U?$pair@QBDPAVIConsole_Command@@@stlp_std@@@priv@2@@23@XZ
_TEXT	SEGMENT
?end@?$_Rb_tree@PBDUstr_pred@CConsole@@U?$pair@QBDPAVIConsole_Command@@@stlp_std@@U?$_Select1st@U?$pair@QBDPAVIConsole_Command@@@stlp_std@@@priv@4@U?$_MapTraitsT@U?$pair@QBDPAVIConsole_Command@@@stlp_std@@@64@V?$xalloc@U?$pair@PBDPAVIConsole_Command@@@stlp_std@@@@@priv@stlp_std@@QAE?AU?$_Rb_tree_iterator@U?$pair@QBDPAVIConsole_Command@@@stlp_std@@U?$_MapTraitsT@U?$pair@QBDPAVIConsole_Command@@@stlp_std@@@priv@2@@23@XZ PROC ; stlp_std::priv::_Rb_tree<char const *,CConsole::str_pred,stlp_std::pair<char const * const,IConsole_Command *>,stlp_std::priv::_Select1st<stlp_std::pair<char const * const,IConsole_Command *> >,stlp_std::priv::_MapTraitsT<stlp_std::pair<char const * const,IConsole_Command *> >,xalloc<stlp_std::pair<char const *,IConsole_Command *> > >::end, COMDAT
; _this$ = ecx
; ___$ReturnUdt$ = eax

; 418  :   iterator end() { return iterator(&this->_M_header._M_data); }

	mov	DWORD PTR [eax], ecx
	ret	0
?end@?$_Rb_tree@PBDUstr_pred@CConsole@@U?$pair@QBDPAVIConsole_Command@@@stlp_std@@U?$_Select1st@U?$pair@QBDPAVIConsole_Command@@@stlp_std@@@priv@4@U?$_MapTraitsT@U?$pair@QBDPAVIConsole_Command@@@stlp_std@@@64@V?$xalloc@U?$pair@PBDPAVIConsole_Command@@@stlp_std@@@@@priv@stlp_std@@QAE?AU?$_Rb_tree_iterator@U?$pair@QBDPAVIConsole_Command@@@stlp_std@@U?$_MapTraitsT@U?$pair@QBDPAVIConsole_Command@@@stlp_std@@@priv@2@@23@XZ ENDP ; stlp_std::priv::_Rb_tree<char const *,CConsole::str_pred,stlp_std::pair<char const * const,IConsole_Command *>,stlp_std::priv::_Select1st<stlp_std::pair<char const * const,IConsole_Command *> >,stlp_std::priv::_MapTraitsT<stlp_std::pair<char const * const,IConsole_Command *> >,xalloc<stlp_std::pair<char const *,IConsole_Command *> > >::end
; Function compile flags: /Ogtpy
_TEXT	ENDS
;	COMDAT ?begin@?$_Rb_tree@PBDUstr_pred@CConsole@@U?$pair@QBDPAVIConsole_Command@@@stlp_std@@U?$_Select1st@U?$pair@QBDPAVIConsole_Command@@@stlp_std@@@priv@4@U?$_MapTraitsT@U?$pair@QBDPAVIConsole_Command@@@stlp_std@@@64@V?$xalloc@U?$pair@PBDPAVIConsole_Command@@@stlp_std@@@@@priv@stlp_std@@QAE?AU?$_Rb_tree_iterator@U?$pair@QBDPAVIConsole_Command@@@stlp_std@@U?$_MapTraitsT@U?$pair@QBDPAVIConsole_Command@@@stlp_std@@@priv@2@@23@XZ
_TEXT	SEGMENT
?begin@?$_Rb_tree@PBDUstr_pred@CConsole@@U?$pair@QBDPAVIConsole_Command@@@stlp_std@@U?$_Select1st@U?$pair@QBDPAVIConsole_Command@@@stlp_std@@@priv@4@U?$_MapTraitsT@U?$pair@QBDPAVIConsole_Command@@@stlp_std@@@64@V?$xalloc@U?$pair@PBDPAVIConsole_Command@@@stlp_std@@@@@priv@stlp_std@@QAE?AU?$_Rb_tree_iterator@U?$pair@QBDPAVIConsole_Command@@@stlp_std@@U?$_MapTraitsT@U?$pair@QBDPAVIConsole_Command@@@stlp_std@@@priv@2@@23@XZ PROC ; stlp_std::priv::_Rb_tree<char const *,CConsole::str_pred,stlp_std::pair<char const * const,IConsole_Command *>,stlp_std::priv::_Select1st<stlp_std::pair<char const * const,IConsole_Command *> >,stlp_std::priv::_MapTraitsT<stlp_std::pair<char const * const,IConsole_Command *> >,xalloc<stlp_std::pair<char const *,IConsole_Command *> > >::begin, COMDAT
; _this$ = ecx
; ___$ReturnUdt$ = esi

; 416  :   iterator begin() { return iterator(_M_leftmost()); }

	call	?_M_leftmost@?$_Rb_tree@PBDUstr_pred@CConsole@@U?$pair@QBDPAVIConsole_Command@@@stlp_std@@U?$_Select1st@U?$pair@QBDPAVIConsole_Command@@@stlp_std@@@priv@4@U?$_MapTraitsT@U?$pair@QBDPAVIConsole_Command@@@stlp_std@@@64@V?$xalloc@U?$pair@PBDPAVIConsole_Command@@@stlp_std@@@@@priv@stlp_std@@IAEAAPAU_Rb_tree_node_base@23@XZ ; stlp_std::priv::_Rb_tree<char const *,CConsole::str_pred,stlp_std::pair<char const * const,IConsole_Command *>,stlp_std::priv::_Select1st<stlp_std::pair<char const * const,IConsole_Command *> >,stlp_std::priv::_MapTraitsT<stlp_std::pair<char const * const,IConsole_Command *> >,xalloc<stlp_std::pair<char const *,IConsole_Command *> > >::_M_leftmost
	mov	eax, DWORD PTR [eax]
	mov	DWORD PTR [esi], eax
	mov	eax, esi
	ret	0
?begin@?$_Rb_tree@PBDUstr_pred@CConsole@@U?$pair@QBDPAVIConsole_Command@@@stlp_std@@U?$_Select1st@U?$pair@QBDPAVIConsole_Command@@@stlp_std@@@priv@4@U?$_MapTraitsT@U?$pair@QBDPAVIConsole_Command@@@stlp_std@@@64@V?$xalloc@U?$pair@PBDPAVIConsole_Command@@@stlp_std@@@@@priv@stlp_std@@QAE?AU?$_Rb_tree_iterator@U?$pair@QBDPAVIConsole_Command@@@stlp_std@@U?$_MapTraitsT@U?$pair@QBDPAVIConsole_Command@@@stlp_std@@@priv@2@@23@XZ ENDP ; stlp_std::priv::_Rb_tree<char const *,CConsole::str_pred,stlp_std::pair<char const * const,IConsole_Command *>,stlp_std::priv::_Select1st<stlp_std::pair<char const * const,IConsole_Command *> >,stlp_std::priv::_MapTraitsT<stlp_std::pair<char const * const,IConsole_Command *> >,xalloc<stlp_std::pair<char const *,IConsole_Command *> > >::begin
; Function compile flags: /Ogtpy
_TEXT	ENDS
;	COMDAT ??0?$_Rb_tree@PBDUstr_pred@CConsole@@U?$pair@QBDPAVIConsole_Command@@@stlp_std@@U?$_Select1st@U?$pair@QBDPAVIConsole_Command@@@stlp_std@@@priv@4@U?$_MapTraitsT@U?$pair@QBDPAVIConsole_Command@@@stlp_std@@@64@V?$xalloc@U?$pair@PBDPAVIConsole_Command@@@stlp_std@@@@@priv@stlp_std@@QAE@ABUstr_pred@CConsole@@ABV?$xalloc@U?$pair@QBDPAVIConsole_Command@@@stlp_std@@@@@Z
_TEXT	SEGMENT
??0?$_Rb_tree@PBDUstr_pred@CConsole@@U?$pair@QBDPAVIConsole_Command@@@stlp_std@@U?$_Select1st@U?$pair@QBDPAVIConsole_Command@@@stlp_std@@@priv@4@U?$_MapTraitsT@U?$pair@QBDPAVIConsole_Command@@@stlp_std@@@64@V?$xalloc@U?$pair@PBDPAVIConsole_Command@@@stlp_std@@@@@priv@stlp_std@@QAE@ABUstr_pred@CConsole@@ABV?$xalloc@U?$pair@QBDPAVIConsole_Command@@@stlp_std@@@@@Z PROC ; stlp_std::priv::_Rb_tree<char const *,CConsole::str_pred,stlp_std::pair<char const * const,IConsole_Command *>,stlp_std::priv::_Select1st<stlp_std::pair<char const * const,IConsole_Command *> >,stlp_std::priv::_MapTraitsT<stlp_std::pair<char const * const,IConsole_Command *> >,xalloc<stlp_std::pair<char const *,IConsole_Command *> > >::_Rb_tree<char const *,CConsole::str_pred,stlp_std::pair<char const * const,IConsole_Command *>,stlp_std::priv::_Select1st<stlp_std::pair<char const * const,IConsole_Command *> >,stlp_std::priv::_MapTraitsT<stlp_std::pair<char const * const,IConsole_Command *> >,xalloc<stlp_std::pair<char const *,IConsole_Command *> > >, COMDAT
; _this$ = esi
; ___a$ = eax

; 388  :     {}

	push	eax
	mov	ecx, esi
	call	??0?$_Rb_tree_base@U?$pair@QBDPAVIConsole_Command@@@stlp_std@@V?$xalloc@U?$pair@PBDPAVIConsole_Command@@@stlp_std@@@@@priv@stlp_std@@IAE@ABV?$xalloc@U?$pair@QBDPAVIConsole_Command@@@stlp_std@@@@@Z ; stlp_std::priv::_Rb_tree_base<stlp_std::pair<char const * const,IConsole_Command *>,xalloc<stlp_std::pair<char const *,IConsole_Command *> > >::_Rb_tree_base<stlp_std::pair<char const * const,IConsole_Command *>,xalloc<stlp_std::pair<char const *,IConsole_Command *> > >
	mov	DWORD PTR [esi+16], 0
	mov	eax, esi
	ret	0
??0?$_Rb_tree@PBDUstr_pred@CConsole@@U?$pair@QBDPAVIConsole_Command@@@stlp_std@@U?$_Select1st@U?$pair@QBDPAVIConsole_Command@@@stlp_std@@@priv@4@U?$_MapTraitsT@U?$pair@QBDPAVIConsole_Command@@@stlp_std@@@64@V?$xalloc@U?$pair@PBDPAVIConsole_Command@@@stlp_std@@@@@priv@stlp_std@@QAE@ABUstr_pred@CConsole@@ABV?$xalloc@U?$pair@QBDPAVIConsole_Command@@@stlp_std@@@@@Z ENDP ; stlp_std::priv::_Rb_tree<char const *,CConsole::str_pred,stlp_std::pair<char const * const,IConsole_Command *>,stlp_std::priv::_Select1st<stlp_std::pair<char const * const,IConsole_Command *> >,stlp_std::priv::_MapTraitsT<stlp_std::pair<char const * const,IConsole_Command *> >,xalloc<stlp_std::pair<char const *,IConsole_Command *> > >::_Rb_tree<char const *,CConsole::str_pred,stlp_std::pair<char const * const,IConsole_Command *>,stlp_std::priv::_Select1st<stlp_std::pair<char const * const,IConsole_Command *> >,stlp_std::priv::_MapTraitsT<stlp_std::pair<char const * const,IConsole_Command *> >,xalloc<stlp_std::pair<char const *,IConsole_Command *> > >
; Function compile flags: /Ogtpy
_TEXT	ENDS
;	COMDAT ??0?$_Rb_tree_iterator@U?$pair@QBDPAVIConsole_Command@@@stlp_std@@U?$_ConstMapTraitsT@U?$pair@QBDPAVIConsole_Command@@@stlp_std@@@priv@2@@priv@stlp_std@@QAE@ABU?$_Rb_tree_iterator@U?$pair@QBDPAVIConsole_Command@@@stlp_std@@U?$_MapTraitsT@U?$pair@QBDPAVIConsole_Command@@@stlp_std@@@priv@2@@12@@Z
_TEXT	SEGMENT
??0?$_Rb_tree_iterator@U?$pair@QBDPAVIConsole_Command@@@stlp_std@@U?$_ConstMapTraitsT@U?$pair@QBDPAVIConsole_Command@@@stlp_std@@@priv@2@@priv@stlp_std@@QAE@ABU?$_Rb_tree_iterator@U?$pair@QBDPAVIConsole_Command@@@stlp_std@@U?$_MapTraitsT@U?$pair@QBDPAVIConsole_Command@@@stlp_std@@@priv@2@@12@@Z PROC ; stlp_std::priv::_Rb_tree_iterator<stlp_std::pair<char const * const,IConsole_Command *>,stlp_std::priv::_ConstMapTraitsT<stlp_std::pair<char const * const,IConsole_Command *> > >::_Rb_tree_iterator<stlp_std::pair<char const * const,IConsole_Command *>,stlp_std::priv::_ConstMapTraitsT<stlp_std::pair<char const * const,IConsole_Command *> > >, COMDAT
; _this$ = eax
; ___it$ = ecx

; 168  :   _Rb_tree_iterator(const iterator& __it) : _Rb_tree_base_iterator(__it._M_node) {}

	mov	edx, DWORD PTR [ecx]
	mov	DWORD PTR [eax], edx
	ret	0
??0?$_Rb_tree_iterator@U?$pair@QBDPAVIConsole_Command@@@stlp_std@@U?$_ConstMapTraitsT@U?$pair@QBDPAVIConsole_Command@@@stlp_std@@@priv@2@@priv@stlp_std@@QAE@ABU?$_Rb_tree_iterator@U?$pair@QBDPAVIConsole_Command@@@stlp_std@@U?$_MapTraitsT@U?$pair@QBDPAVIConsole_Command@@@stlp_std@@@priv@2@@12@@Z ENDP ; stlp_std::priv::_Rb_tree_iterator<stlp_std::pair<char const * const,IConsole_Command *>,stlp_std::priv::_ConstMapTraitsT<stlp_std::pair<char const * const,IConsole_Command *> > >::_Rb_tree_iterator<stlp_std::pair<char const * const,IConsole_Command *>,stlp_std::priv::_ConstMapTraitsT<stlp_std::pair<char const * const,IConsole_Command *> > >
; Function compile flags: /Ogtpy
_TEXT	ENDS
;	COMDAT ??0?$_Rb_tree_iterator@U?$pair@QBDPAVIConsole_Command@@@stlp_std@@U?$_MapTraitsT@U?$pair@QBDPAVIConsole_Command@@@stlp_std@@@priv@2@@priv@stlp_std@@QAE@ABU012@@Z
_TEXT	SEGMENT
??0?$_Rb_tree_iterator@U?$pair@QBDPAVIConsole_Command@@@stlp_std@@U?$_MapTraitsT@U?$pair@QBDPAVIConsole_Command@@@stlp_std@@@priv@2@@priv@stlp_std@@QAE@ABU012@@Z PROC ; stlp_std::priv::_Rb_tree_iterator<stlp_std::pair<char const * const,IConsole_Command *>,stlp_std::priv::_MapTraitsT<stlp_std::pair<char const * const,IConsole_Command *> > >::_Rb_tree_iterator<stlp_std::pair<char const * const,IConsole_Command *>,stlp_std::priv::_MapTraitsT<stlp_std::pair<char const * const,IConsole_Command *> > >, COMDAT
; _this$ = eax
; ___it$ = ecx

; 168  :   _Rb_tree_iterator(const iterator& __it) : _Rb_tree_base_iterator(__it._M_node) {}

	mov	edx, DWORD PTR [ecx]
	mov	DWORD PTR [eax], edx
	ret	0
??0?$_Rb_tree_iterator@U?$pair@QBDPAVIConsole_Command@@@stlp_std@@U?$_MapTraitsT@U?$pair@QBDPAVIConsole_Command@@@stlp_std@@@priv@2@@priv@stlp_std@@QAE@ABU012@@Z ENDP ; stlp_std::priv::_Rb_tree_iterator<stlp_std::pair<char const * const,IConsole_Command *>,stlp_std::priv::_MapTraitsT<stlp_std::pair<char const * const,IConsole_Command *> > >::_Rb_tree_iterator<stlp_std::pair<char const * const,IConsole_Command *>,stlp_std::priv::_MapTraitsT<stlp_std::pair<char const * const,IConsole_Command *> > >
; Function compile flags: /Ogtpy
; File d:\clearsky\sources\sdk\include\stlport\stl\pointers\_vector.h
_TEXT	ENDS
;	COMDAT ?back@?$vector@UTipString@@V?$xalloc@UTipString@@@@@stlp_std@@QAEAAUTipString@@XZ
_TEXT	SEGMENT
?back@?$vector@UTipString@@V?$xalloc@UTipString@@@@@stlp_std@@QAEAAUTipString@@XZ PROC ; stlp_std::vector<TipString,xalloc<TipString> >::back, COMDAT
; _this$ = ecx

; 100  :   reference back()              { return cast_traits::to_value_type_ref(_M_impl.back()); }

	call	?end@?$_Impl_vector@UTipString@@V?$xalloc@UTipString@@@@@priv@stlp_std@@QAEPAUTipString@@XZ ; stlp_std::priv::_Impl_vector<TipString,xalloc<TipString> >::end
	sub	eax, 12					; 0000000cH
	ret	0
?back@?$vector@UTipString@@V?$xalloc@UTipString@@@@@stlp_std@@QAEAAUTipString@@XZ ENDP ; stlp_std::vector<TipString,xalloc<TipString> >::back
; Function compile flags: /Ogtpy
_TEXT	ENDS
;	COMDAT ?end@?$vector@UTipString@@V?$xalloc@UTipString@@@@@stlp_std@@QAEPAUTipString@@XZ
_TEXT	SEGMENT
?end@?$vector@UTipString@@V?$xalloc@UTipString@@@@@stlp_std@@QAEPAUTipString@@XZ PROC ; stlp_std::vector<TipString,xalloc<TipString> >::end, COMDAT
; _this$ = ecx

; 81   :   iterator end()               { return cast_traits::to_value_type_ptr(_M_impl.end()); }

	jmp	?end@?$_Impl_vector@UTipString@@V?$xalloc@UTipString@@@@@priv@stlp_std@@QAEPAUTipString@@XZ ; stlp_std::priv::_Impl_vector<TipString,xalloc<TipString> >::end
?end@?$vector@UTipString@@V?$xalloc@UTipString@@@@@stlp_std@@QAEPAUTipString@@XZ ENDP ; stlp_std::vector<TipString,xalloc<TipString> >::end
; Function compile flags: /Ogtpy
_TEXT	ENDS
;	COMDAT ?begin@?$vector@UTipString@@V?$xalloc@UTipString@@@@@stlp_std@@QAEPAUTipString@@XZ
_TEXT	SEGMENT
?begin@?$vector@UTipString@@V?$xalloc@UTipString@@@@@stlp_std@@QAEPAUTipString@@XZ PROC ; stlp_std::vector<TipString,xalloc<TipString> >::begin, COMDAT
; _this$ = ecx

; 79   :   iterator begin()             { return cast_traits::to_value_type_ptr(_M_impl.begin()); }

	jmp	?begin@?$_Impl_vector@UTipString@@V?$xalloc@UTipString@@@@@priv@stlp_std@@QAEPAUTipString@@XZ ; stlp_std::priv::_Impl_vector<TipString,xalloc<TipString> >::begin
?begin@?$vector@UTipString@@V?$xalloc@UTipString@@@@@stlp_std@@QAEPAUTipString@@XZ ENDP ; stlp_std::vector<TipString,xalloc<TipString> >::begin
; Function compile flags: /Ogtpy
; File d:\clearsky\sources\engine\xrcore\_stl_extensions.h
_TEXT	ENDS
;	COMDAT ?size@?$xr_vector@UTipString@@V?$xalloc@UTipString@@@@@@QBEIXZ
_TEXT	SEGMENT
?size@?$xr_vector@UTipString@@V?$xalloc@UTipString@@@@@@QBEIXZ PROC ; xr_vector<TipString,xalloc<TipString> >::size, COMDAT
; _this$ = ecx

; 126  : 	u32		size				() const							{ return (u32)inherited::size();} 

	jmp	?size@?$_Impl_vector@UTipString@@V?$xalloc@UTipString@@@@@priv@stlp_std@@QBEIXZ ; stlp_std::priv::_Impl_vector<TipString,xalloc<TipString> >::size
?size@?$xr_vector@UTipString@@V?$xalloc@UTipString@@@@@@QBEIXZ ENDP ; xr_vector<TipString,xalloc<TipString> >::size
; Function compile flags: /Ogtpy
; File d:\clearsky\sources\sdk\include\stlport\stl\_map.h
_TEXT	ENDS
;	COMDAT ?clear@?$map@PBDPAVIConsole_Command@@Ustr_pred@CConsole@@V?$xalloc@U?$pair@PBDPAVIConsole_Command@@@stlp_std@@@@@stlp_std@@QAEXXZ
_TEXT	SEGMENT
?clear@?$map@PBDPAVIConsole_Command@@Ustr_pred@CConsole@@V?$xalloc@U?$pair@PBDPAVIConsole_Command@@@stlp_std@@@@@stlp_std@@QAEXXZ PROC ; stlp_std::map<char const *,IConsole_Command *,CConsole::str_pred,xalloc<stlp_std::pair<char const *,IConsole_Command *> > >::clear, COMDAT
; _this$ = ecx

; 201  :   void clear() { _M_t.clear(); }

	jmp	?clear@?$_Rb_tree@PBDUstr_pred@CConsole@@U?$pair@QBDPAVIConsole_Command@@@stlp_std@@U?$_Select1st@U?$pair@QBDPAVIConsole_Command@@@stlp_std@@@priv@4@U?$_MapTraitsT@U?$pair@QBDPAVIConsole_Command@@@stlp_std@@@64@V?$xalloc@U?$pair@PBDPAVIConsole_Command@@@stlp_std@@@@@priv@stlp_std@@QAEXXZ ; stlp_std::priv::_Rb_tree<char const *,CConsole::str_pred,stlp_std::pair<char const * const,IConsole_Command *>,stlp_std::priv::_Select1st<stlp_std::pair<char const * const,IConsole_Command *> >,stlp_std::priv::_MapTraitsT<stlp_std::pair<char const * const,IConsole_Command *> >,xalloc<stlp_std::pair<char const *,IConsole_Command *> > >::clear
?clear@?$map@PBDPAVIConsole_Command@@Ustr_pred@CConsole@@V?$xalloc@U?$pair@PBDPAVIConsole_Command@@@stlp_std@@@@@stlp_std@@QAEXXZ ENDP ; stlp_std::map<char const *,IConsole_Command *,CConsole::str_pred,xalloc<stlp_std::pair<char const *,IConsole_Command *> > >::clear
; Function compile flags: /Ogtpy
_TEXT	ENDS
;	COMDAT ?end@?$map@PBDPAVIConsole_Command@@Ustr_pred@CConsole@@V?$xalloc@U?$pair@PBDPAVIConsole_Command@@@stlp_std@@@@@stlp_std@@QAE?AU?$_Rb_tree_iterator@U?$pair@QBDPAVIConsole_Command@@@stlp_std@@U?$_MapTraitsT@U?$pair@QBDPAVIConsole_Command@@@stlp_std@@@priv@2@@priv@2@XZ
_TEXT	SEGMENT
?end@?$map@PBDPAVIConsole_Command@@Ustr_pred@CConsole@@V?$xalloc@U?$pair@PBDPAVIConsole_Command@@@stlp_std@@@@@stlp_std@@QAE?AU?$_Rb_tree_iterator@U?$pair@QBDPAVIConsole_Command@@@stlp_std@@U?$_MapTraitsT@U?$pair@QBDPAVIConsole_Command@@@stlp_std@@@priv@2@@priv@2@XZ PROC ; stlp_std::map<char const *,IConsole_Command *,CConsole::str_pred,xalloc<stlp_std::pair<char const *,IConsole_Command *> > >::end, COMDAT
; _this$ = ecx
; ___$ReturnUdt$ = eax

; 163  :   iterator end() { return _M_t.end(); }

	mov	DWORD PTR [eax], ecx
	ret	0
?end@?$map@PBDPAVIConsole_Command@@Ustr_pred@CConsole@@V?$xalloc@U?$pair@PBDPAVIConsole_Command@@@stlp_std@@@@@stlp_std@@QAE?AU?$_Rb_tree_iterator@U?$pair@QBDPAVIConsole_Command@@@stlp_std@@U?$_MapTraitsT@U?$pair@QBDPAVIConsole_Command@@@stlp_std@@@priv@2@@priv@2@XZ ENDP ; stlp_std::map<char const *,IConsole_Command *,CConsole::str_pred,xalloc<stlp_std::pair<char const *,IConsole_Command *> > >::end
; Function compile flags: /Ogtpy
_TEXT	ENDS
;	COMDAT ?begin@?$map@PBDPAVIConsole_Command@@Ustr_pred@CConsole@@V?$xalloc@U?$pair@PBDPAVIConsole_Command@@@stlp_std@@@@@stlp_std@@QAE?AU?$_Rb_tree_iterator@U?$pair@QBDPAVIConsole_Command@@@stlp_std@@U?$_MapTraitsT@U?$pair@QBDPAVIConsole_Command@@@stlp_std@@@priv@2@@priv@2@XZ
_TEXT	SEGMENT
?begin@?$map@PBDPAVIConsole_Command@@Ustr_pred@CConsole@@V?$xalloc@U?$pair@PBDPAVIConsole_Command@@@stlp_std@@@@@stlp_std@@QAE?AU?$_Rb_tree_iterator@U?$pair@QBDPAVIConsole_Command@@@stlp_std@@U?$_MapTraitsT@U?$pair@QBDPAVIConsole_Command@@@stlp_std@@@priv@2@@priv@2@XZ PROC ; stlp_std::map<char const *,IConsole_Command *,CConsole::str_pred,xalloc<stlp_std::pair<char const *,IConsole_Command *> > >::begin, COMDAT
; _this$ = ecx
; ___$ReturnUdt$ = esi

; 161  :   iterator begin() { return _M_t.begin(); }

	call	?_M_leftmost@?$_Rb_tree@PBDUstr_pred@CConsole@@U?$pair@QBDPAVIConsole_Command@@@stlp_std@@U?$_Select1st@U?$pair@QBDPAVIConsole_Command@@@stlp_std@@@priv@4@U?$_MapTraitsT@U?$pair@QBDPAVIConsole_Command@@@stlp_std@@@64@V?$xalloc@U?$pair@PBDPAVIConsole_Command@@@stlp_std@@@@@priv@stlp_std@@IAEAAPAU_Rb_tree_node_base@23@XZ ; stlp_std::priv::_Rb_tree<char const *,CConsole::str_pred,stlp_std::pair<char const * const,IConsole_Command *>,stlp_std::priv::_Select1st<stlp_std::pair<char const * const,IConsole_Command *> >,stlp_std::priv::_MapTraitsT<stlp_std::pair<char const * const,IConsole_Command *> >,xalloc<stlp_std::pair<char const *,IConsole_Command *> > >::_M_leftmost
	mov	eax, DWORD PTR [eax]
	mov	DWORD PTR [esi], eax
	mov	eax, esi
	ret	0
?begin@?$map@PBDPAVIConsole_Command@@Ustr_pred@CConsole@@V?$xalloc@U?$pair@PBDPAVIConsole_Command@@@stlp_std@@@@@stlp_std@@QAE?AU?$_Rb_tree_iterator@U?$pair@QBDPAVIConsole_Command@@@stlp_std@@U?$_MapTraitsT@U?$pair@QBDPAVIConsole_Command@@@stlp_std@@@priv@2@@priv@2@XZ ENDP ; stlp_std::map<char const *,IConsole_Command *,CConsole::str_pred,xalloc<stlp_std::pair<char const *,IConsole_Command *> > >::begin
; Function compile flags: /Ogtpy
_TEXT	ENDS
;	COMDAT ??0?$map@PBDPAVIConsole_Command@@Ustr_pred@CConsole@@V?$xalloc@U?$pair@PBDPAVIConsole_Command@@@stlp_std@@@@@stlp_std@@QAE@XZ
_TEXT	SEGMENT
$T239204 = -1						; size = 1
??0?$map@PBDPAVIConsole_Command@@Ustr_pred@CConsole@@V?$xalloc@U?$pair@PBDPAVIConsole_Command@@@stlp_std@@@@@stlp_std@@QAE@XZ PROC ; stlp_std::map<char const *,IConsole_Command *,CConsole::str_pred,xalloc<stlp_std::pair<char const *,IConsole_Command *> > >::map<char const *,IConsole_Command *,CConsole::str_pred,xalloc<stlp_std::pair<char const *,IConsole_Command *> > >, COMDAT
; _this$ = esi

; 99   :   map() : _M_t(_Compare(), allocator_type()) {}

	push	ecx
	lea	eax, DWORD PTR $T239204[esp+4]
	push	eax
	mov	ecx, esi
	call	??0?$_Rb_tree_base@U?$pair@QBDPAVIConsole_Command@@@stlp_std@@V?$xalloc@U?$pair@PBDPAVIConsole_Command@@@stlp_std@@@@@priv@stlp_std@@IAE@ABV?$xalloc@U?$pair@QBDPAVIConsole_Command@@@stlp_std@@@@@Z ; stlp_std::priv::_Rb_tree_base<stlp_std::pair<char const * const,IConsole_Command *>,xalloc<stlp_std::pair<char const *,IConsole_Command *> > >::_Rb_tree_base<stlp_std::pair<char const * const,IConsole_Command *>,xalloc<stlp_std::pair<char const *,IConsole_Command *> > >
	mov	DWORD PTR [esi+16], 0
	mov	eax, esi
	pop	ecx
	ret	0
??0?$map@PBDPAVIConsole_Command@@Ustr_pred@CConsole@@V?$xalloc@U?$pair@PBDPAVIConsole_Command@@@stlp_std@@@@@stlp_std@@QAE@XZ ENDP ; stlp_std::map<char const *,IConsole_Command *,CConsole::str_pred,xalloc<stlp_std::pair<char const *,IConsole_Command *> > >::map<char const *,IConsole_Command *,CConsole::str_pred,xalloc<stlp_std::pair<char const *,IConsole_Command *> > >
; Function compile flags: /Ogtpy
; File d:\clearsky\sources\sdk\include\stlport\stl\_iterator.h
_TEXT	ENDS
;	COMDAT ??H?$reverse_iterator@PAVshared_str@@@stlp_std@@QBE?AV01@H@Z
_TEXT	SEGMENT
_this$ = 8						; size = 4
??H?$reverse_iterator@PAVshared_str@@@stlp_std@@QBE?AV01@H@Z PROC ; stlp_std::reverse_iterator<shared_str *>::operator+, COMDAT
; ___$ReturnUdt$ = eax
; ___n$ = ecx

; 100  :   _Self operator+(difference_type __n) const { return _Self(current - __n); }

	lea	edx, DWORD PTR [ecx*4]
	mov	ecx, DWORD PTR _this$[esp-4]
	mov	ecx, DWORD PTR [ecx]
	sub	ecx, edx
	mov	DWORD PTR [eax], ecx
	ret	4
??H?$reverse_iterator@PAVshared_str@@@stlp_std@@QBE?AV01@H@Z ENDP ; stlp_std::reverse_iterator<shared_str *>::operator+
; Function compile flags: /Ogtpy
_TEXT	ENDS
;	COMDAT ??0?$xr_map@PBDPAVIConsole_Command@@Ustr_pred@CConsole@@V?$xalloc@U?$pair@PBDPAVIConsole_Command@@@stlp_std@@@@@@QAE@XZ
_TEXT	SEGMENT
$T239232 = -1						; size = 1
??0?$xr_map@PBDPAVIConsole_Command@@Ustr_pred@CConsole@@V?$xalloc@U?$pair@PBDPAVIConsole_Command@@@stlp_std@@@@@@QAE@XZ PROC ; xr_map<char const *,IConsole_Command *,CConsole::str_pred,xalloc<stlp_std::pair<char const *,IConsole_Command *> > >::xr_map<char const *,IConsole_Command *,CConsole::str_pred,xalloc<stlp_std::pair<char const *,IConsole_Command *> > >, COMDAT
; _this$ = esi
	push	ecx
	lea	eax, DWORD PTR $T239232[esp+4]
	push	eax
	mov	ecx, esi
	call	??0?$_Rb_tree_base@U?$pair@QBDPAVIConsole_Command@@@stlp_std@@V?$xalloc@U?$pair@PBDPAVIConsole_Command@@@stlp_std@@@@@priv@stlp_std@@IAE@ABV?$xalloc@U?$pair@QBDPAVIConsole_Command@@@stlp_std@@@@@Z ; stlp_std::priv::_Rb_tree_base<stlp_std::pair<char const * const,IConsole_Command *>,xalloc<stlp_std::pair<char const *,IConsole_Command *> > >::_Rb_tree_base<stlp_std::pair<char const * const,IConsole_Command *>,xalloc<stlp_std::pair<char const *,IConsole_Command *> > >
	mov	DWORD PTR [esi+16], 0
	mov	eax, esi
	pop	ecx
	ret	0
??0?$xr_map@PBDPAVIConsole_Command@@Ustr_pred@CConsole@@V?$xalloc@U?$pair@PBDPAVIConsole_Command@@@stlp_std@@@@@@QAE@XZ ENDP ; xr_map<char const *,IConsole_Command *,CConsole::str_pred,xalloc<stlp_std::pair<char const *,IConsole_Command *> > >::xr_map<char const *,IConsole_Command *,CConsole::str_pred,xalloc<stlp_std::pair<char const *,IConsole_Command *> > >
_TEXT	ENDS
PUBLIC	?get_mark_color@CConsole@@IAEIW4Console_mark@1@@Z ; CConsole::get_mark_color
; Function compile flags: /Ogtpy
; File d:\clearsky\sources\engine\xrengine\xr_ioconsole.cpp
;	COMDAT ?get_mark_color@CConsole@@IAEIW4Console_mark@1@@Z
_TEXT	SEGMENT
_type$ = 8						; size = 4
?get_mark_color@CConsole@@IAEIW4Console_mark@1@@Z PROC	; CConsole::get_mark_color, COMDAT
; _this$ = ecx

; 55   : 	u32 color = default_font_color;
; 56   : 	switch ( type )

	mov	ecx, DWORD PTR _type$[esp-4]
	mov	eax, DWORD PTR _default_font_color
	add	ecx, -33				; ffffffdfH
	cmp	ecx, 93					; 0000005dH
	ja	SHORT $LN1@get_mark_c
	movzx	ecx, BYTE PTR $LN71@get_mark_c[ecx]
	jmp	DWORD PTR $LN72@get_mark_c[ecx*4]
$LN14@get_mark_c:

; 57   : 	{
; 58   : 	case mark0:  color = color_rgba( 255, 255,   0, 255 ); break;

	mov	eax, -256				; ffffff00H

; 71   : 	case no_mark:
; 72   : 	default: break;
; 73   : 	}
; 74   : 	return color;
; 75   : }

	ret	4
$LN13@get_mark_c:

; 59   : 	case mark1:  color = color_rgba( 255,   0,   0, 255 ); break;

	mov	eax, -65536				; ffff0000H

; 71   : 	case no_mark:
; 72   : 	default: break;
; 73   : 	}
; 74   : 	return color;
; 75   : }

	ret	4
$LN12@get_mark_c:

; 60   : 	case mark2:  color = color_rgba( 100, 100, 255, 255 ); break;

	mov	eax, -10197761				; ff6464ffH

; 71   : 	case no_mark:
; 72   : 	default: break;
; 73   : 	}
; 74   : 	return color;
; 75   : }

	ret	4
$LN11@get_mark_c:

; 61   : 	case mark3:  color = color_rgba(   0, 222, 205, 155 ); break;

	mov	eax, -1694441779			; 9b00decdH

; 71   : 	case no_mark:
; 72   : 	default: break;
; 73   : 	}
; 74   : 	return color;
; 75   : }

	ret	4
$LN10@get_mark_c:

; 62   : 	case mark4:  color = color_rgba( 255,   0, 255, 255 ); break;

	mov	eax, -65281				; ffff00ffH

; 71   : 	case no_mark:
; 72   : 	default: break;
; 73   : 	}
; 74   : 	return color;
; 75   : }

	ret	4
$LN9@get_mark_c:

; 63   : 	case mark5:  color = color_rgba( 155,  55, 170, 155 ); break;

	mov	eax, -1684326486			; 9b9b37aaH

; 71   : 	case no_mark:
; 72   : 	default: break;
; 73   : 	}
; 74   : 	return color;
; 75   : }

	ret	4
$LN8@get_mark_c:

; 64   : 	case mark6:  color = color_rgba(  25, 200,  50, 255 ); break;

	mov	eax, -15087566				; ff19c832H

; 71   : 	case no_mark:
; 72   : 	default: break;
; 73   : 	}
; 74   : 	return color;
; 75   : }

	ret	4
$LN6@get_mark_c:

; 65   : 	case mark7:  color = color_rgba( 255, 255,   0, 255 ); break;
; 66   : 	case mark8:  color = color_rgba( 128, 128, 128, 255 ); break;

	mov	eax, -8355712				; ff808080H

; 71   : 	case no_mark:
; 72   : 	default: break;
; 73   : 	}
; 74   : 	return color;
; 75   : }

	ret	4
$LN5@get_mark_c:

; 67   : 	case mark9:  color = color_rgba(   0, 255,   0, 255 ); break;

	mov	eax, -16711936				; ff00ff00H

; 71   : 	case no_mark:
; 72   : 	default: break;
; 73   : 	}
; 74   : 	return color;
; 75   : }

	ret	4
$LN4@get_mark_c:

; 68   : 	case mark10: color = color_rgba(  55, 155, 140, 255 ); break;

	mov	eax, -13132916				; ff379b8cH

; 71   : 	case no_mark:
; 72   : 	default: break;
; 73   : 	}
; 74   : 	return color;
; 75   : }

	ret	4
$LN3@get_mark_c:

; 69   : 	case mark11: color = color_rgba( 205, 205, 105, 255 ); break;

	mov	eax, -3289751				; ffcdcd69H

; 71   : 	case no_mark:
; 72   : 	default: break;
; 73   : 	}
; 74   : 	return color;
; 75   : }

	ret	4
$LN2@get_mark_c:

; 70   : 	case mark12: color = color_rgba( 128, 128, 250, 255 ); break;

	mov	eax, -8355590				; ff8080faH
$LN1@get_mark_c:

; 71   : 	case no_mark:
; 72   : 	default: break;
; 73   : 	}
; 74   : 	return color;
; 75   : }

	ret	4
	npad	1
$LN72@get_mark_c:
	DD	$LN13@get_mark_c
	DD	$LN11@get_mark_c
	DD	$LN10@get_mark_c
	DD	$LN9@get_mark_c
	DD	$LN14@get_mark_c
	DD	$LN6@get_mark_c
	DD	$LN4@get_mark_c
	DD	$LN5@get_mark_c
	DD	$LN2@get_mark_c
	DD	$LN3@get_mark_c
	DD	$LN12@get_mark_c
	DD	$LN8@get_mark_c
	DD	$LN1@get_mark_c
$LN71@get_mark_c:
	DB	0
	DB	12					; 0000000cH
	DB	1
	DB	2
	DB	3
	DB	4
	DB	12					; 0000000cH
	DB	12					; 0000000cH
	DB	12					; 0000000cH
	DB	5
	DB	6
	DB	12					; 0000000cH
	DB	7
	DB	12					; 0000000cH
	DB	8
	DB	12					; 0000000cH
	DB	12					; 0000000cH
	DB	12					; 0000000cH
	DB	12					; 0000000cH
	DB	12					; 0000000cH
	DB	12					; 0000000cH
	DB	12					; 0000000cH
	DB	12					; 0000000cH
	DB	12					; 0000000cH
	DB	12					; 0000000cH
	DB	12					; 0000000cH
	DB	12					; 0000000cH
	DB	12					; 0000000cH
	DB	9
	DB	12					; 0000000cH
	DB	12					; 0000000cH
	DB	10					; 0000000aH
	DB	12					; 0000000cH
	DB	12					; 0000000cH
	DB	12					; 0000000cH
	DB	12					; 0000000cH
	DB	12					; 0000000cH
	DB	12					; 0000000cH
	DB	12					; 0000000cH
	DB	12					; 0000000cH
	DB	12					; 0000000cH
	DB	12					; 0000000cH
	DB	12					; 0000000cH
	DB	12					; 0000000cH
	DB	12					; 0000000cH
	DB	12					; 0000000cH
	DB	12					; 0000000cH
	DB	12					; 0000000cH
	DB	12					; 0000000cH
	DB	12					; 0000000cH
	DB	12					; 0000000cH
	DB	12					; 0000000cH
	DB	12					; 0000000cH
	DB	12					; 0000000cH
	DB	12					; 0000000cH
	DB	12					; 0000000cH
	DB	12					; 0000000cH
	DB	12					; 0000000cH
	DB	12					; 0000000cH
	DB	12					; 0000000cH
	DB	12					; 0000000cH
	DB	11					; 0000000bH
	DB	12					; 0000000cH
	DB	12					; 0000000cH
	DB	12					; 0000000cH
	DB	12					; 0000000cH
	DB	12					; 0000000cH
	DB	12					; 0000000cH
	DB	12					; 0000000cH
	DB	12					; 0000000cH
	DB	12					; 0000000cH
	DB	12					; 0000000cH
	DB	12					; 0000000cH
	DB	12					; 0000000cH
	DB	12					; 0000000cH
	DB	12					; 0000000cH
	DB	12					; 0000000cH
	DB	12					; 0000000cH
	DB	12					; 0000000cH
	DB	12					; 0000000cH
	DB	12					; 0000000cH
	DB	12					; 0000000cH
	DB	12					; 0000000cH
	DB	12					; 0000000cH
	DB	12					; 0000000cH
	DB	12					; 0000000cH
	DB	12					; 0000000cH
	DB	12					; 0000000cH
	DB	12					; 0000000cH
	DB	12					; 0000000cH
	DB	12					; 0000000cH
	DB	12					; 0000000cH
	DB	12					; 0000000cH
	DB	4
?get_mark_color@CConsole@@IAEIW4Console_mark@1@@Z ENDP	; CConsole::get_mark_color
_TEXT	ENDS
PUBLIC	?ec@CConsole@@IAEAAVline_edit_control@text_editor@@XZ ; CConsole::ec
; Function compile flags: /Ogtpy
;	COMDAT ?ec@CConsole@@IAEAAVline_edit_control@text_editor@@XZ
_TEXT	SEGMENT
?ec@CConsole@@IAEAAVline_edit_control@text_editor@@XZ PROC ; CConsole::ec, COMDAT
; _this$ = ecx

; 50   : 	return m_editor->control();

	mov	eax, DWORD PTR [ecx+200]
	add	eax, 4

; 51   : }

	ret	0
?ec@CConsole@@IAEAAVline_edit_control@text_editor@@XZ ENDP ; CConsole::ec
; Function compile flags: /Ogtpy
; File d:\clearsky\sources\engine\xrengine\xr_ioconsole.h
_TEXT	ENDS
;	COMDAT ??Rstr_pred@CConsole@@QBE_NPBD0@Z
_TEXT	SEGMENT
??Rstr_pred@CConsole@@QBE_NPBD0@Z PROC			; CConsole::str_pred::operator(), COMDAT
; _x$ = eax
; _y$ = ecx

; 65   : 		{

$LL5@operator@20:

; 66   : 			return (xr_strcmp( x, y ) < 0);

	mov	dl, BYTE PTR [eax]
	cmp	dl, BYTE PTR [ecx]
	jne	SHORT $LN6@operator@20
	test	dl, dl
	je	SHORT $LN7@operator@20
	mov	dl, BYTE PTR [eax+1]
	cmp	dl, BYTE PTR [ecx+1]
	jne	SHORT $LN6@operator@20
	add	eax, 2
	add	ecx, 2
	test	dl, dl
	jne	SHORT $LL5@operator@20
$LN7@operator@20:
	xor	eax, eax
	xor	ecx, ecx
	test	eax, eax
	setl	cl
	mov	al, cl

; 67   : 		}

	ret	0
$LN6@operator@20:

; 66   : 			return (xr_strcmp( x, y ) < 0);

	sbb	eax, eax
	sbb	eax, -1
	xor	ecx, ecx
	test	eax, eax
	setl	cl
	mov	al, cl

; 67   : 		}

	ret	0
??Rstr_pred@CConsole@@QBE_NPBD0@Z ENDP			; CConsole::str_pred::operator()
; Function compile flags: /Ogtpy
_TEXT	ENDS
;	COMDAT ??8TipString@@QAE_NABVshared_str@@@Z
_TEXT	SEGMENT
??8TipString@@QAE_NABVshared_str@@@Z PROC		; TipString::operator==, COMDAT
; _this$ = eax
; _tips_text$ = edx

; 52   : 		return ( text == tips_text );

	mov	ecx, DWORD PTR [eax]
	xor	eax, eax
	cmp	ecx, DWORD PTR [edx]
	sete	al

; 53   : 	}

	ret	0
??8TipString@@QAE_NABVshared_str@@@Z ENDP		; TipString::operator==
; Function compile flags: /Ogtpy
; File d:\clearsky\sources\sdk\include\stlport\stl\_tree.h
;	COMDAT ??$_M_lower_bound@PBD@?$_Rb_tree@PBDUstr_pred@CConsole@@U?$pair@QBDPAVIConsole_Command@@@stlp_std@@U?$_Select1st@U?$pair@QBDPAVIConsole_Command@@@stlp_std@@@priv@4@U?$_MapTraitsT@U?$pair@QBDPAVIConsole_Command@@@stlp_std@@@64@V?$xalloc@U?$pair@PBDPAVIConsole_Command@@@stlp_std@@@@@priv@stlp_std@@ABEPAU_Rb_tree_node_base@12@ABQBD@Z
_TEXT	SEGMENT
??$_M_lower_bound@PBD@?$_Rb_tree@PBDUstr_pred@CConsole@@U?$pair@QBDPAVIConsole_Command@@@stlp_std@@U?$_Select1st@U?$pair@QBDPAVIConsole_Command@@@stlp_std@@@priv@4@U?$_MapTraitsT@U?$pair@QBDPAVIConsole_Command@@@stlp_std@@@64@V?$xalloc@U?$pair@PBDPAVIConsole_Command@@@stlp_std@@@@@priv@stlp_std@@ABEPAU_Rb_tree_node_base@12@ABQBD@Z PROC ; stlp_std::priv::_Rb_tree<char const *,CConsole::str_pred,stlp_std::pair<char const * const,IConsole_Command *>,stlp_std::priv::_Select1st<stlp_std::pair<char const * const,IConsole_Command *> >,stlp_std::priv::_MapTraitsT<stlp_std::pair<char const * const,IConsole_Command *> >,xalloc<stlp_std::pair<char const *,IConsole_Command *> > >::_M_lower_bound<char const *>, COMDAT
; _this$ = ecx
; ___k$ = ebx

; 562  :   _Base_ptr _M_lower_bound(const _KT& __k) const {

	push	esi
	push	edi

; 563  :     _Base_ptr __y = __CONST_CAST(_Base_ptr, &this->_M_header._M_data); /* Last node which is not less than __k. */

	mov	edi, ecx

; 564  :     _Base_ptr __x = _M_root(); /* Current node. */

	call	?_M_root@?$_Rb_tree@PBDUstr_pred@CConsole@@U?$pair@QBDPAVIConsole_Command@@@stlp_std@@U?$_Select1st@U?$pair@QBDPAVIConsole_Command@@@stlp_std@@@priv@4@U?$_MapTraitsT@U?$pair@QBDPAVIConsole_Command@@@stlp_std@@@64@V?$xalloc@U?$pair@PBDPAVIConsole_Command@@@stlp_std@@@@@priv@stlp_std@@IBEPAU_Rb_tree_node_base@23@XZ ; stlp_std::priv::_Rb_tree<char const *,CConsole::str_pred,stlp_std::pair<char const * const,IConsole_Command *>,stlp_std::priv::_Select1st<stlp_std::pair<char const * const,IConsole_Command *> >,stlp_std::priv::_MapTraitsT<stlp_std::pair<char const * const,IConsole_Command *> >,xalloc<stlp_std::pair<char const *,IConsole_Command *> > >::_M_root
	mov	esi, eax

; 565  : 
; 566  :     while (__x != 0)

	test	esi, esi
	je	SHORT $LN28@M_lower_bo
	npad	1
$LL4@M_lower_bo:

; 567  :       if (!_M_key_compare(_S_key(__x), __k))

	push	esi
	call	?_S_value@?$_Rb_tree@PBDUstr_pred@CConsole@@U?$pair@QBDPAVIConsole_Command@@@stlp_std@@U?$_Select1st@U?$pair@QBDPAVIConsole_Command@@@stlp_std@@@priv@4@U?$_MapTraitsT@U?$pair@QBDPAVIConsole_Command@@@stlp_std@@@64@V?$xalloc@U?$pair@PBDPAVIConsole_Command@@@stlp_std@@@@@priv@stlp_std@@KAAAU?$pair@QBDPAVIConsole_Command@@@3@PAU_Rb_tree_node_base@23@@Z ; stlp_std::priv::_Rb_tree<char const *,CConsole::str_pred,stlp_std::pair<char const * const,IConsole_Command *>,stlp_std::priv::_Select1st<stlp_std::pair<char const * const,IConsole_Command *> >,stlp_std::priv::_MapTraitsT<stlp_std::pair<char const * const,IConsole_Command *> >,xalloc<stlp_std::pair<char const *,IConsole_Command *> > >::_S_value
	mov	ecx, DWORD PTR [ebx]
	mov	eax, DWORD PTR [eax]
	add	esp, 4
	npad	3
$LL24@M_lower_bo:
	mov	dl, BYTE PTR [eax]
	cmp	dl, BYTE PTR [ecx]
	jne	SHORT $LN25@M_lower_bo
	test	dl, dl
	je	SHORT $LN26@M_lower_bo
	mov	dl, BYTE PTR [eax+1]
	cmp	dl, BYTE PTR [ecx+1]
	jne	SHORT $LN25@M_lower_bo
	add	eax, 2
	add	ecx, 2
	test	dl, dl
	jne	SHORT $LL24@M_lower_bo
$LN26@M_lower_bo:
	xor	eax, eax
	jmp	SHORT $LN27@M_lower_bo
$LN25@M_lower_bo:
	sbb	eax, eax
	sbb	eax, -1
$LN27@M_lower_bo:
	test	eax, eax

; 568  :         __y = __x, __x = _S_left(__x);

	push	esi
	jl	SHORT $LN2@M_lower_bo
	mov	edi, esi
	call	?_S_left@?$_Rb_tree@PBDUstr_pred@CConsole@@U?$pair@QBDPAVIConsole_Command@@@stlp_std@@U?$_Select1st@U?$pair@QBDPAVIConsole_Command@@@stlp_std@@@priv@4@U?$_MapTraitsT@U?$pair@QBDPAVIConsole_Command@@@stlp_std@@@64@V?$xalloc@U?$pair@PBDPAVIConsole_Command@@@stlp_std@@@@@priv@stlp_std@@KAAAPAU_Rb_tree_node_base@23@PAU423@@Z ; stlp_std::priv::_Rb_tree<char const *,CConsole::str_pred,stlp_std::pair<char const * const,IConsole_Command *>,stlp_std::priv::_Select1st<stlp_std::pair<char const * const,IConsole_Command *> >,stlp_std::priv::_MapTraitsT<stlp_std::pair<char const * const,IConsole_Command *> >,xalloc<stlp_std::pair<char const *,IConsole_Command *> > >::_S_left

; 569  :       else

	jmp	SHORT $LN29@M_lower_bo
$LN2@M_lower_bo:

; 570  :         __x = _S_right(__x);

	call	?_S_right@?$_Rb_tree@PBDUstr_pred@CConsole@@U?$pair@QBDPAVIConsole_Command@@@stlp_std@@U?$_Select1st@U?$pair@QBDPAVIConsole_Command@@@stlp_std@@@priv@4@U?$_MapTraitsT@U?$pair@QBDPAVIConsole_Command@@@stlp_std@@@64@V?$xalloc@U?$pair@PBDPAVIConsole_Command@@@stlp_std@@@@@priv@stlp_std@@KAAAPAU_Rb_tree_node_base@23@PAU423@@Z ; stlp_std::priv::_Rb_tree<char const *,CConsole::str_pred,stlp_std::pair<char const * const,IConsole_Command *>,stlp_std::priv::_Select1st<stlp_std::pair<char const * const,IConsole_Command *> >,stlp_std::priv::_MapTraitsT<stlp_std::pair<char const * const,IConsole_Command *> >,xalloc<stlp_std::pair<char const *,IConsole_Command *> > >::_S_right
$LN29@M_lower_bo:
	mov	esi, DWORD PTR [eax]
	add	esp, 4
	test	esi, esi
	jne	SHORT $LL4@M_lower_bo
$LN28@M_lower_bo:

; 571  : 
; 572  :     return __y;

	mov	eax, edi
	pop	edi
	pop	esi

; 573  :   }

	ret	0
??$_M_lower_bound@PBD@?$_Rb_tree@PBDUstr_pred@CConsole@@U?$pair@QBDPAVIConsole_Command@@@stlp_std@@U?$_Select1st@U?$pair@QBDPAVIConsole_Command@@@stlp_std@@@priv@4@U?$_MapTraitsT@U?$pair@QBDPAVIConsole_Command@@@stlp_std@@@64@V?$xalloc@U?$pair@PBDPAVIConsole_Command@@@stlp_std@@@@@priv@stlp_std@@ABEPAU_Rb_tree_node_base@12@ABQBD@Z ENDP ; stlp_std::priv::_Rb_tree<char const *,CConsole::str_pred,stlp_std::pair<char const * const,IConsole_Command *>,stlp_std::priv::_Select1st<stlp_std::pair<char const * const,IConsole_Command *> >,stlp_std::priv::_MapTraitsT<stlp_std::pair<char const * const,IConsole_Command *> >,xalloc<stlp_std::pair<char const *,IConsole_Command *> > >::_M_lower_bound<char const *>
; Function compile flags: /Ogtpy
; File d:\clearsky\sources\sdk\include\stlport\stl\_pair.h
_TEXT	ENDS
;	COMDAT ??0?$pair@U?$_Rb_tree_iterator@U?$pair@QBDPAVIConsole_Command@@@stlp_std@@U?$_MapTraitsT@U?$pair@QBDPAVIConsole_Command@@@stlp_std@@@priv@2@@priv@stlp_std@@_N@stlp_std@@QAE@ABU?$_Rb_tree_iterator@U?$pair@QBDPAVIConsole_Command@@@stlp_std@@U?$_MapTraitsT@U?$pair@QBDPAVIConsole_Command@@@stlp_std@@@priv@2@@priv@1@AB_N@Z
_TEXT	SEGMENT
___b$ = 8						; size = 4
??0?$pair@U?$_Rb_tree_iterator@U?$pair@QBDPAVIConsole_Command@@@stlp_std@@U?$_MapTraitsT@U?$pair@QBDPAVIConsole_Command@@@stlp_std@@@priv@2@@priv@stlp_std@@_N@stlp_std@@QAE@ABU?$_Rb_tree_iterator@U?$pair@QBDPAVIConsole_Command@@@stlp_std@@U?$_MapTraitsT@U?$pair@QBDPAVIConsole_Command@@@stlp_std@@@priv@2@@priv@1@AB_N@Z PROC ; stlp_std::pair<stlp_std::priv::_Rb_tree_iterator<stlp_std::pair<char const * const,IConsole_Command *>,stlp_std::priv::_MapTraitsT<stlp_std::pair<char const * const,IConsole_Command *> > >,bool>::pair<stlp_std::priv::_Rb_tree_iterator<stlp_std::pair<char const * const,IConsole_Command *>,stlp_std::priv::_MapTraitsT<stlp_std::pair<char const * const,IConsole_Command *> > >,bool>, COMDAT
; _this$ = eax
; ___a$ = ecx

; 56   :   pair(const _T1& __a, const _T2& __b) : first(__a), second(__b) {}

	mov	edx, DWORD PTR [ecx]
	mov	ecx, DWORD PTR ___b$[esp-4]
	mov	DWORD PTR [eax], edx
	mov	dl, BYTE PTR [ecx]
	mov	BYTE PTR [eax+4], dl
	ret	4
??0?$pair@U?$_Rb_tree_iterator@U?$pair@QBDPAVIConsole_Command@@@stlp_std@@U?$_MapTraitsT@U?$pair@QBDPAVIConsole_Command@@@stlp_std@@@priv@2@@priv@stlp_std@@_N@stlp_std@@QAE@ABU?$_Rb_tree_iterator@U?$pair@QBDPAVIConsole_Command@@@stlp_std@@U?$_MapTraitsT@U?$pair@QBDPAVIConsole_Command@@@stlp_std@@@priv@2@@priv@1@AB_N@Z ENDP ; stlp_std::pair<stlp_std::priv::_Rb_tree_iterator<stlp_std::pair<char const * const,IConsole_Command *>,stlp_std::priv::_MapTraitsT<stlp_std::pair<char const * const,IConsole_Command *> > >,bool>::pair<stlp_std::priv::_Rb_tree_iterator<stlp_std::pair<char const * const,IConsole_Command *>,stlp_std::priv::_MapTraitsT<stlp_std::pair<char const * const,IConsole_Command *> > >,bool>
; Function compile flags: /Ogtpy
; File d:\clearsky\sources\sdk\include\stlport\stl\_tree.h
_TEXT	ENDS
;	COMDAT ??$_M_lower_bound@PAD@?$_Rb_tree@PBDUstr_pred@CConsole@@U?$pair@QBDPAVIConsole_Command@@@stlp_std@@U?$_Select1st@U?$pair@QBDPAVIConsole_Command@@@stlp_std@@@priv@4@U?$_MapTraitsT@U?$pair@QBDPAVIConsole_Command@@@stlp_std@@@64@V?$xalloc@U?$pair@PBDPAVIConsole_Command@@@stlp_std@@@@@priv@stlp_std@@ABEPAU_Rb_tree_node_base@12@ABQAD@Z
_TEXT	SEGMENT
??$_M_lower_bound@PAD@?$_Rb_tree@PBDUstr_pred@CConsole@@U?$pair@QBDPAVIConsole_Command@@@stlp_std@@U?$_Select1st@U?$pair@QBDPAVIConsole_Command@@@stlp_std@@@priv@4@U?$_MapTraitsT@U?$pair@QBDPAVIConsole_Command@@@stlp_std@@@64@V?$xalloc@U?$pair@PBDPAVIConsole_Command@@@stlp_std@@@@@priv@stlp_std@@ABEPAU_Rb_tree_node_base@12@ABQAD@Z PROC ; stlp_std::priv::_Rb_tree<char const *,CConsole::str_pred,stlp_std::pair<char const * const,IConsole_Command *>,stlp_std::priv::_Select1st<stlp_std::pair<char const * const,IConsole_Command *> >,stlp_std::priv::_MapTraitsT<stlp_std::pair<char const * const,IConsole_Command *> >,xalloc<stlp_std::pair<char const *,IConsole_Command *> > >::_M_lower_bound<char *>, COMDAT
; _this$ = ecx
; ___k$ = ebx

; 562  :   _Base_ptr _M_lower_bound(const _KT& __k) const {

	push	esi
	push	edi

; 563  :     _Base_ptr __y = __CONST_CAST(_Base_ptr, &this->_M_header._M_data); /* Last node which is not less than __k. */

	mov	edi, ecx

; 564  :     _Base_ptr __x = _M_root(); /* Current node. */

	call	?_M_root@?$_Rb_tree@PBDUstr_pred@CConsole@@U?$pair@QBDPAVIConsole_Command@@@stlp_std@@U?$_Select1st@U?$pair@QBDPAVIConsole_Command@@@stlp_std@@@priv@4@U?$_MapTraitsT@U?$pair@QBDPAVIConsole_Command@@@stlp_std@@@64@V?$xalloc@U?$pair@PBDPAVIConsole_Command@@@stlp_std@@@@@priv@stlp_std@@IBEPAU_Rb_tree_node_base@23@XZ ; stlp_std::priv::_Rb_tree<char const *,CConsole::str_pred,stlp_std::pair<char const * const,IConsole_Command *>,stlp_std::priv::_Select1st<stlp_std::pair<char const * const,IConsole_Command *> >,stlp_std::priv::_MapTraitsT<stlp_std::pair<char const * const,IConsole_Command *> >,xalloc<stlp_std::pair<char const *,IConsole_Command *> > >::_M_root
	mov	esi, eax

; 565  : 
; 566  :     while (__x != 0)

	test	esi, esi
	je	SHORT $LN28@M_lower_bo@2
	npad	1
$LL4@M_lower_bo@2:

; 567  :       if (!_M_key_compare(_S_key(__x), __k))

	push	esi
	call	?_S_value@?$_Rb_tree@PBDUstr_pred@CConsole@@U?$pair@QBDPAVIConsole_Command@@@stlp_std@@U?$_Select1st@U?$pair@QBDPAVIConsole_Command@@@stlp_std@@@priv@4@U?$_MapTraitsT@U?$pair@QBDPAVIConsole_Command@@@stlp_std@@@64@V?$xalloc@U?$pair@PBDPAVIConsole_Command@@@stlp_std@@@@@priv@stlp_std@@KAAAU?$pair@QBDPAVIConsole_Command@@@3@PAU_Rb_tree_node_base@23@@Z ; stlp_std::priv::_Rb_tree<char const *,CConsole::str_pred,stlp_std::pair<char const * const,IConsole_Command *>,stlp_std::priv::_Select1st<stlp_std::pair<char const * const,IConsole_Command *> >,stlp_std::priv::_MapTraitsT<stlp_std::pair<char const * const,IConsole_Command *> >,xalloc<stlp_std::pair<char const *,IConsole_Command *> > >::_S_value
	mov	ecx, DWORD PTR [ebx]
	mov	eax, DWORD PTR [eax]
	add	esp, 4
	npad	3
$LL24@M_lower_bo@2:
	mov	dl, BYTE PTR [eax]
	cmp	dl, BYTE PTR [ecx]
	jne	SHORT $LN25@M_lower_bo@2
	test	dl, dl
	je	SHORT $LN26@M_lower_bo@2
	mov	dl, BYTE PTR [eax+1]
	cmp	dl, BYTE PTR [ecx+1]
	jne	SHORT $LN25@M_lower_bo@2
	add	eax, 2
	add	ecx, 2
	test	dl, dl
	jne	SHORT $LL24@M_lower_bo@2
$LN26@M_lower_bo@2:
	xor	eax, eax
	jmp	SHORT $LN27@M_lower_bo@2
$LN25@M_lower_bo@2:
	sbb	eax, eax
	sbb	eax, -1
$LN27@M_lower_bo@2:
	test	eax, eax

; 568  :         __y = __x, __x = _S_left(__x);

	push	esi
	jl	SHORT $LN2@M_lower_bo@2
	mov	edi, esi
	call	?_S_left@?$_Rb_tree@PBDUstr_pred@CConsole@@U?$pair@QBDPAVIConsole_Command@@@stlp_std@@U?$_Select1st@U?$pair@QBDPAVIConsole_Command@@@stlp_std@@@priv@4@U?$_MapTraitsT@U?$pair@QBDPAVIConsole_Command@@@stlp_std@@@64@V?$xalloc@U?$pair@PBDPAVIConsole_Command@@@stlp_std@@@@@priv@stlp_std@@KAAAPAU_Rb_tree_node_base@23@PAU423@@Z ; stlp_std::priv::_Rb_tree<char const *,CConsole::str_pred,stlp_std::pair<char const * const,IConsole_Command *>,stlp_std::priv::_Select1st<stlp_std::pair<char const * const,IConsole_Command *> >,stlp_std::priv::_MapTraitsT<stlp_std::pair<char const * const,IConsole_Command *> >,xalloc<stlp_std::pair<char const *,IConsole_Command *> > >::_S_left

; 569  :       else

	jmp	SHORT $LN29@M_lower_bo@2
$LN2@M_lower_bo@2:

; 570  :         __x = _S_right(__x);

	call	?_S_right@?$_Rb_tree@PBDUstr_pred@CConsole@@U?$pair@QBDPAVIConsole_Command@@@stlp_std@@U?$_Select1st@U?$pair@QBDPAVIConsole_Command@@@stlp_std@@@priv@4@U?$_MapTraitsT@U?$pair@QBDPAVIConsole_Command@@@stlp_std@@@64@V?$xalloc@U?$pair@PBDPAVIConsole_Command@@@stlp_std@@@@@priv@stlp_std@@KAAAPAU_Rb_tree_node_base@23@PAU423@@Z ; stlp_std::priv::_Rb_tree<char const *,CConsole::str_pred,stlp_std::pair<char const * const,IConsole_Command *>,stlp_std::priv::_Select1st<stlp_std::pair<char const * const,IConsole_Command *> >,stlp_std::priv::_MapTraitsT<stlp_std::pair<char const * const,IConsole_Command *> >,xalloc<stlp_std::pair<char const *,IConsole_Command *> > >::_S_right
$LN29@M_lower_bo@2:
	mov	esi, DWORD PTR [eax]
	add	esp, 4
	test	esi, esi
	jne	SHORT $LL4@M_lower_bo@2
$LN28@M_lower_bo@2:

; 571  : 
; 572  :     return __y;

	mov	eax, edi
	pop	edi
	pop	esi

; 573  :   }

	ret	0
??$_M_lower_bound@PAD@?$_Rb_tree@PBDUstr_pred@CConsole@@U?$pair@QBDPAVIConsole_Command@@@stlp_std@@U?$_Select1st@U?$pair@QBDPAVIConsole_Command@@@stlp_std@@@priv@4@U?$_MapTraitsT@U?$pair@QBDPAVIConsole_Command@@@stlp_std@@@64@V?$xalloc@U?$pair@PBDPAVIConsole_Command@@@stlp_std@@@@@priv@stlp_std@@ABEPAU_Rb_tree_node_base@12@ABQAD@Z ENDP ; stlp_std::priv::_Rb_tree<char const *,CConsole::str_pred,stlp_std::pair<char const * const,IConsole_Command *>,stlp_std::priv::_Select1st<stlp_std::pair<char const * const,IConsole_Command *> >,stlp_std::priv::_MapTraitsT<stlp_std::pair<char const * const,IConsole_Command *> >,xalloc<stlp_std::pair<char const *,IConsole_Command *> > >::_M_lower_bound<char *>
; Function compile flags: /Ogtpy
_TEXT	ENDS
;	COMDAT ??$_M_find@PAD@?$_Rb_tree@PBDUstr_pred@CConsole@@U?$pair@QBDPAVIConsole_Command@@@stlp_std@@U?$_Select1st@U?$pair@QBDPAVIConsole_Command@@@stlp_std@@@priv@4@U?$_MapTraitsT@U?$pair@QBDPAVIConsole_Command@@@stlp_std@@@64@V?$xalloc@U?$pair@PBDPAVIConsole_Command@@@stlp_std@@@@@priv@stlp_std@@ABEPAU_Rb_tree_node_base@12@ABQAD@Z
_TEXT	SEGMENT
_this$ = 8						; size = 4
??$_M_find@PAD@?$_Rb_tree@PBDUstr_pred@CConsole@@U?$pair@QBDPAVIConsole_Command@@@stlp_std@@U?$_Select1st@U?$pair@QBDPAVIConsole_Command@@@stlp_std@@@priv@4@U?$_MapTraitsT@U?$pair@QBDPAVIConsole_Command@@@stlp_std@@@64@V?$xalloc@U?$pair@PBDPAVIConsole_Command@@@stlp_std@@@@@priv@stlp_std@@ABEPAU_Rb_tree_node_base@12@ABQAD@Z PROC ; stlp_std::priv::_Rb_tree<char const *,CConsole::str_pred,stlp_std::pair<char const * const,IConsole_Command *>,stlp_std::priv::_Select1st<stlp_std::pair<char const * const,IConsole_Command *> >,stlp_std::priv::_MapTraitsT<stlp_std::pair<char const * const,IConsole_Command *> >,xalloc<stlp_std::pair<char const *,IConsole_Command *> > >::_M_find<char *>, COMDAT
; ___k$ = edi

; 543  :   _Base_ptr _M_find(const _KT& __k) const {

	push	ebx
	push	ebp
	mov	ebp, DWORD PTR _this$[esp+4]
	push	esi

; 544  :     _Base_ptr __y = __CONST_CAST(_Base_ptr, &this->_M_header._M_data);      // Last node which is not less than __k.
; 545  :     _Base_ptr __x = _M_root();      // Current node.

	mov	ecx, ebp
	mov	ebx, ebp
	call	?_M_root@?$_Rb_tree@PBDUstr_pred@CConsole@@U?$pair@QBDPAVIConsole_Command@@@stlp_std@@U?$_Select1st@U?$pair@QBDPAVIConsole_Command@@@stlp_std@@@priv@4@U?$_MapTraitsT@U?$pair@QBDPAVIConsole_Command@@@stlp_std@@@64@V?$xalloc@U?$pair@PBDPAVIConsole_Command@@@stlp_std@@@@@priv@stlp_std@@IBEPAU_Rb_tree_node_base@23@XZ ; stlp_std::priv::_Rb_tree<char const *,CConsole::str_pred,stlp_std::pair<char const * const,IConsole_Command *>,stlp_std::priv::_Select1st<stlp_std::pair<char const * const,IConsole_Command *> >,stlp_std::priv::_MapTraitsT<stlp_std::pair<char const * const,IConsole_Command *> >,xalloc<stlp_std::pair<char const *,IConsole_Command *> > >::_M_root
	mov	esi, eax

; 546  : 
; 547  :     while (__x != 0)

	test	esi, esi
	je	$LN46@M_find@2
	npad	6
$LL6@M_find@2:

; 548  :       if (!_M_key_compare(_S_key(__x), __k))

	push	esi
	call	?_S_value@?$_Rb_tree@PBDUstr_pred@CConsole@@U?$pair@QBDPAVIConsole_Command@@@stlp_std@@U?$_Select1st@U?$pair@QBDPAVIConsole_Command@@@stlp_std@@@priv@4@U?$_MapTraitsT@U?$pair@QBDPAVIConsole_Command@@@stlp_std@@@64@V?$xalloc@U?$pair@PBDPAVIConsole_Command@@@stlp_std@@@@@priv@stlp_std@@KAAAU?$pair@QBDPAVIConsole_Command@@@3@PAU_Rb_tree_node_base@23@@Z ; stlp_std::priv::_Rb_tree<char const *,CConsole::str_pred,stlp_std::pair<char const * const,IConsole_Command *>,stlp_std::priv::_Select1st<stlp_std::pair<char const * const,IConsole_Command *> >,stlp_std::priv::_MapTraitsT<stlp_std::pair<char const * const,IConsole_Command *> >,xalloc<stlp_std::pair<char const *,IConsole_Command *> > >::_S_value
	mov	ecx, DWORD PTR [edi]
	mov	eax, DWORD PTR [eax]
	add	esp, 4
	npad	3
$LL36@M_find@2:
	mov	dl, BYTE PTR [eax]
	cmp	dl, BYTE PTR [ecx]
	jne	SHORT $LN37@M_find@2
	test	dl, dl
	je	SHORT $LN38@M_find@2
	mov	dl, BYTE PTR [eax+1]
	cmp	dl, BYTE PTR [ecx+1]
	jne	SHORT $LN37@M_find@2
	add	eax, 2
	add	ecx, 2
	test	dl, dl
	jne	SHORT $LL36@M_find@2
$LN38@M_find@2:
	xor	eax, eax
	jmp	SHORT $LN39@M_find@2
$LN37@M_find@2:
	sbb	eax, eax
	sbb	eax, -1
$LN39@M_find@2:
	test	eax, eax

; 549  :         __y = __x, __x = _S_left(__x);

	push	esi
	jl	SHORT $LN4@M_find@2
	mov	ebx, esi
	call	?_S_left@?$_Rb_tree@PBDUstr_pred@CConsole@@U?$pair@QBDPAVIConsole_Command@@@stlp_std@@U?$_Select1st@U?$pair@QBDPAVIConsole_Command@@@stlp_std@@@priv@4@U?$_MapTraitsT@U?$pair@QBDPAVIConsole_Command@@@stlp_std@@@64@V?$xalloc@U?$pair@PBDPAVIConsole_Command@@@stlp_std@@@@@priv@stlp_std@@KAAAPAU_Rb_tree_node_base@23@PAU423@@Z ; stlp_std::priv::_Rb_tree<char const *,CConsole::str_pred,stlp_std::pair<char const * const,IConsole_Command *>,stlp_std::priv::_Select1st<stlp_std::pair<char const * const,IConsole_Command *> >,stlp_std::priv::_MapTraitsT<stlp_std::pair<char const * const,IConsole_Command *> >,xalloc<stlp_std::pair<char const *,IConsole_Command *> > >::_S_left

; 550  :       else

	jmp	SHORT $LN47@M_find@2
$LN4@M_find@2:

; 551  :         __x = _S_right(__x);

	call	?_S_right@?$_Rb_tree@PBDUstr_pred@CConsole@@U?$pair@QBDPAVIConsole_Command@@@stlp_std@@U?$_Select1st@U?$pair@QBDPAVIConsole_Command@@@stlp_std@@@priv@4@U?$_MapTraitsT@U?$pair@QBDPAVIConsole_Command@@@stlp_std@@@64@V?$xalloc@U?$pair@PBDPAVIConsole_Command@@@stlp_std@@@@@priv@stlp_std@@KAAAPAU_Rb_tree_node_base@23@PAU423@@Z ; stlp_std::priv::_Rb_tree<char const *,CConsole::str_pred,stlp_std::pair<char const * const,IConsole_Command *>,stlp_std::priv::_Select1st<stlp_std::pair<char const * const,IConsole_Command *> >,stlp_std::priv::_MapTraitsT<stlp_std::pair<char const * const,IConsole_Command *> >,xalloc<stlp_std::pair<char const *,IConsole_Command *> > >::_S_right
$LN47@M_find@2:
	mov	esi, DWORD PTR [eax]
	add	esp, 4
	test	esi, esi
	jne	SHORT $LL6@M_find@2

; 552  : 
; 553  :     if (__y != &this->_M_header._M_data) {

	cmp	ebx, ebp
	je	SHORT $LN46@M_find@2

; 554  :       if (_M_key_compare(__k, _S_key(__y))) {

	push	ebx
	call	?_S_value@?$_Rb_tree@PBDUstr_pred@CConsole@@U?$pair@QBDPAVIConsole_Command@@@stlp_std@@U?$_Select1st@U?$pair@QBDPAVIConsole_Command@@@stlp_std@@@priv@4@U?$_MapTraitsT@U?$pair@QBDPAVIConsole_Command@@@stlp_std@@@64@V?$xalloc@U?$pair@PBDPAVIConsole_Command@@@stlp_std@@@@@priv@stlp_std@@KAAAU?$pair@QBDPAVIConsole_Command@@@3@PAU_Rb_tree_node_base@23@@Z ; stlp_std::priv::_Rb_tree<char const *,CConsole::str_pred,stlp_std::pair<char const * const,IConsole_Command *>,stlp_std::priv::_Select1st<stlp_std::pair<char const * const,IConsole_Command *> >,stlp_std::priv::_MapTraitsT<stlp_std::pair<char const * const,IConsole_Command *> >,xalloc<stlp_std::pair<char const *,IConsole_Command *> > >::_S_value
	mov	ecx, DWORD PTR [eax]
	mov	eax, DWORD PTR [edi]
	add	esp, 4
$LL40@M_find@2:
	mov	dl, BYTE PTR [eax]
	cmp	dl, BYTE PTR [ecx]
	jne	SHORT $LN41@M_find@2
	test	dl, dl
	je	SHORT $LN42@M_find@2
	mov	dl, BYTE PTR [eax+1]
	cmp	dl, BYTE PTR [ecx+1]
	jne	SHORT $LN41@M_find@2
	add	eax, 2
	add	ecx, 2
	test	dl, dl
	jne	SHORT $LL40@M_find@2
$LN42@M_find@2:
	xor	eax, eax
	jmp	SHORT $LN43@M_find@2
$LN41@M_find@2:
	sbb	eax, eax
	sbb	eax, -1
$LN43@M_find@2:
	test	eax, eax

; 555  :         __y = __CONST_CAST(_Base_ptr, &this->_M_header._M_data);
; 556  :       }
; 557  :     }
; 558  :     return __y;

	mov	eax, ebp
	jl	SHORT $LN1@M_find@2
$LN46@M_find@2:
	mov	eax, ebx
$LN1@M_find@2:
	pop	esi
	pop	ebp
	pop	ebx

; 559  :   }

	ret	4
??$_M_find@PAD@?$_Rb_tree@PBDUstr_pred@CConsole@@U?$pair@QBDPAVIConsole_Command@@@stlp_std@@U?$_Select1st@U?$pair@QBDPAVIConsole_Command@@@stlp_std@@@priv@4@U?$_MapTraitsT@U?$pair@QBDPAVIConsole_Command@@@stlp_std@@@64@V?$xalloc@U?$pair@PBDPAVIConsole_Command@@@stlp_std@@@@@priv@stlp_std@@ABEPAU_Rb_tree_node_base@12@ABQAD@Z ENDP ; stlp_std::priv::_Rb_tree<char const *,CConsole::str_pred,stlp_std::pair<char const * const,IConsole_Command *>,stlp_std::priv::_Select1st<stlp_std::pair<char const * const,IConsole_Command *> >,stlp_std::priv::_MapTraitsT<stlp_std::pair<char const * const,IConsole_Command *> >,xalloc<stlp_std::pair<char const *,IConsole_Command *> > >::_M_find<char *>
; Function compile flags: /Ogtpy
_TEXT	ENDS
;	COMDAT ??$_M_find@PBD@?$_Rb_tree@PBDUstr_pred@CConsole@@U?$pair@QBDPAVIConsole_Command@@@stlp_std@@U?$_Select1st@U?$pair@QBDPAVIConsole_Command@@@stlp_std@@@priv@4@U?$_MapTraitsT@U?$pair@QBDPAVIConsole_Command@@@stlp_std@@@64@V?$xalloc@U?$pair@PBDPAVIConsole_Command@@@stlp_std@@@@@priv@stlp_std@@ABEPAU_Rb_tree_node_base@12@ABQBD@Z
_TEXT	SEGMENT
_this$ = 8						; size = 4
??$_M_find@PBD@?$_Rb_tree@PBDUstr_pred@CConsole@@U?$pair@QBDPAVIConsole_Command@@@stlp_std@@U?$_Select1st@U?$pair@QBDPAVIConsole_Command@@@stlp_std@@@priv@4@U?$_MapTraitsT@U?$pair@QBDPAVIConsole_Command@@@stlp_std@@@64@V?$xalloc@U?$pair@PBDPAVIConsole_Command@@@stlp_std@@@@@priv@stlp_std@@ABEPAU_Rb_tree_node_base@12@ABQBD@Z PROC ; stlp_std::priv::_Rb_tree<char const *,CConsole::str_pred,stlp_std::pair<char const * const,IConsole_Command *>,stlp_std::priv::_Select1st<stlp_std::pair<char const * const,IConsole_Command *> >,stlp_std::priv::_MapTraitsT<stlp_std::pair<char const * const,IConsole_Command *> >,xalloc<stlp_std::pair<char const *,IConsole_Command *> > >::_M_find<char const *>, COMDAT
; ___k$ = edi

; 543  :   _Base_ptr _M_find(const _KT& __k) const {

	push	ebx
	push	ebp
	mov	ebp, DWORD PTR _this$[esp+4]
	push	esi

; 544  :     _Base_ptr __y = __CONST_CAST(_Base_ptr, &this->_M_header._M_data);      // Last node which is not less than __k.
; 545  :     _Base_ptr __x = _M_root();      // Current node.

	mov	ecx, ebp
	mov	ebx, ebp
	call	?_M_root@?$_Rb_tree@PBDUstr_pred@CConsole@@U?$pair@QBDPAVIConsole_Command@@@stlp_std@@U?$_Select1st@U?$pair@QBDPAVIConsole_Command@@@stlp_std@@@priv@4@U?$_MapTraitsT@U?$pair@QBDPAVIConsole_Command@@@stlp_std@@@64@V?$xalloc@U?$pair@PBDPAVIConsole_Command@@@stlp_std@@@@@priv@stlp_std@@IBEPAU_Rb_tree_node_base@23@XZ ; stlp_std::priv::_Rb_tree<char const *,CConsole::str_pred,stlp_std::pair<char const * const,IConsole_Command *>,stlp_std::priv::_Select1st<stlp_std::pair<char const * const,IConsole_Command *> >,stlp_std::priv::_MapTraitsT<stlp_std::pair<char const * const,IConsole_Command *> >,xalloc<stlp_std::pair<char const *,IConsole_Command *> > >::_M_root
	mov	esi, eax

; 546  : 
; 547  :     while (__x != 0)

	test	esi, esi
	je	$LN46@M_find@3
	npad	6
$LL6@M_find@3:

; 548  :       if (!_M_key_compare(_S_key(__x), __k))

	push	esi
	call	?_S_value@?$_Rb_tree@PBDUstr_pred@CConsole@@U?$pair@QBDPAVIConsole_Command@@@stlp_std@@U?$_Select1st@U?$pair@QBDPAVIConsole_Command@@@stlp_std@@@priv@4@U?$_MapTraitsT@U?$pair@QBDPAVIConsole_Command@@@stlp_std@@@64@V?$xalloc@U?$pair@PBDPAVIConsole_Command@@@stlp_std@@@@@priv@stlp_std@@KAAAU?$pair@QBDPAVIConsole_Command@@@3@PAU_Rb_tree_node_base@23@@Z ; stlp_std::priv::_Rb_tree<char const *,CConsole::str_pred,stlp_std::pair<char const * const,IConsole_Command *>,stlp_std::priv::_Select1st<stlp_std::pair<char const * const,IConsole_Command *> >,stlp_std::priv::_MapTraitsT<stlp_std::pair<char const * const,IConsole_Command *> >,xalloc<stlp_std::pair<char const *,IConsole_Command *> > >::_S_value
	mov	ecx, DWORD PTR [edi]
	mov	eax, DWORD PTR [eax]
	add	esp, 4
	npad	3
$LL36@M_find@3:
	mov	dl, BYTE PTR [eax]
	cmp	dl, BYTE PTR [ecx]
	jne	SHORT $LN37@M_find@3
	test	dl, dl
	je	SHORT $LN38@M_find@3
	mov	dl, BYTE PTR [eax+1]
	cmp	dl, BYTE PTR [ecx+1]
	jne	SHORT $LN37@M_find@3
	add	eax, 2
	add	ecx, 2
	test	dl, dl
	jne	SHORT $LL36@M_find@3
$LN38@M_find@3:
	xor	eax, eax
	jmp	SHORT $LN39@M_find@3
$LN37@M_find@3:
	sbb	eax, eax
	sbb	eax, -1
$LN39@M_find@3:
	test	eax, eax

; 549  :         __y = __x, __x = _S_left(__x);

	push	esi
	jl	SHORT $LN4@M_find@3
	mov	ebx, esi
	call	?_S_left@?$_Rb_tree@PBDUstr_pred@CConsole@@U?$pair@QBDPAVIConsole_Command@@@stlp_std@@U?$_Select1st@U?$pair@QBDPAVIConsole_Command@@@stlp_std@@@priv@4@U?$_MapTraitsT@U?$pair@QBDPAVIConsole_Command@@@stlp_std@@@64@V?$xalloc@U?$pair@PBDPAVIConsole_Command@@@stlp_std@@@@@priv@stlp_std@@KAAAPAU_Rb_tree_node_base@23@PAU423@@Z ; stlp_std::priv::_Rb_tree<char const *,CConsole::str_pred,stlp_std::pair<char const * const,IConsole_Command *>,stlp_std::priv::_Select1st<stlp_std::pair<char const * const,IConsole_Command *> >,stlp_std::priv::_MapTraitsT<stlp_std::pair<char const * const,IConsole_Command *> >,xalloc<stlp_std::pair<char const *,IConsole_Command *> > >::_S_left

; 550  :       else

	jmp	SHORT $LN47@M_find@3
$LN4@M_find@3:

; 551  :         __x = _S_right(__x);

	call	?_S_right@?$_Rb_tree@PBDUstr_pred@CConsole@@U?$pair@QBDPAVIConsole_Command@@@stlp_std@@U?$_Select1st@U?$pair@QBDPAVIConsole_Command@@@stlp_std@@@priv@4@U?$_MapTraitsT@U?$pair@QBDPAVIConsole_Command@@@stlp_std@@@64@V?$xalloc@U?$pair@PBDPAVIConsole_Command@@@stlp_std@@@@@priv@stlp_std@@KAAAPAU_Rb_tree_node_base@23@PAU423@@Z ; stlp_std::priv::_Rb_tree<char const *,CConsole::str_pred,stlp_std::pair<char const * const,IConsole_Command *>,stlp_std::priv::_Select1st<stlp_std::pair<char const * const,IConsole_Command *> >,stlp_std::priv::_MapTraitsT<stlp_std::pair<char const * const,IConsole_Command *> >,xalloc<stlp_std::pair<char const *,IConsole_Command *> > >::_S_right
$LN47@M_find@3:
	mov	esi, DWORD PTR [eax]
	add	esp, 4
	test	esi, esi
	jne	SHORT $LL6@M_find@3

; 552  : 
; 553  :     if (__y != &this->_M_header._M_data) {

	cmp	ebx, ebp
	je	SHORT $LN46@M_find@3

; 554  :       if (_M_key_compare(__k, _S_key(__y))) {

	push	ebx
	call	?_S_value@?$_Rb_tree@PBDUstr_pred@CConsole@@U?$pair@QBDPAVIConsole_Command@@@stlp_std@@U?$_Select1st@U?$pair@QBDPAVIConsole_Command@@@stlp_std@@@priv@4@U?$_MapTraitsT@U?$pair@QBDPAVIConsole_Command@@@stlp_std@@@64@V?$xalloc@U?$pair@PBDPAVIConsole_Command@@@stlp_std@@@@@priv@stlp_std@@KAAAU?$pair@QBDPAVIConsole_Command@@@3@PAU_Rb_tree_node_base@23@@Z ; stlp_std::priv::_Rb_tree<char const *,CConsole::str_pred,stlp_std::pair<char const * const,IConsole_Command *>,stlp_std::priv::_Select1st<stlp_std::pair<char const * const,IConsole_Command *> >,stlp_std::priv::_MapTraitsT<stlp_std::pair<char const * const,IConsole_Command *> >,xalloc<stlp_std::pair<char const *,IConsole_Command *> > >::_S_value
	mov	ecx, DWORD PTR [eax]
	mov	eax, DWORD PTR [edi]
	add	esp, 4
$LL40@M_find@3:
	mov	dl, BYTE PTR [eax]
	cmp	dl, BYTE PTR [ecx]
	jne	SHORT $LN41@M_find@3
	test	dl, dl
	je	SHORT $LN42@M_find@3
	mov	dl, BYTE PTR [eax+1]
	cmp	dl, BYTE PTR [ecx+1]
	jne	SHORT $LN41@M_find@3
	add	eax, 2
	add	ecx, 2
	test	dl, dl
	jne	SHORT $LL40@M_find@3
$LN42@M_find@3:
	xor	eax, eax
	jmp	SHORT $LN43@M_find@3
$LN41@M_find@3:
	sbb	eax, eax
	sbb	eax, -1
$LN43@M_find@3:
	test	eax, eax

; 555  :         __y = __CONST_CAST(_Base_ptr, &this->_M_header._M_data);
; 556  :       }
; 557  :     }
; 558  :     return __y;

	mov	eax, ebp
	jl	SHORT $LN1@M_find@3
$LN46@M_find@3:
	mov	eax, ebx
$LN1@M_find@3:
	pop	esi
	pop	ebp
	pop	ebx

; 559  :   }

	ret	4
??$_M_find@PBD@?$_Rb_tree@PBDUstr_pred@CConsole@@U?$pair@QBDPAVIConsole_Command@@@stlp_std@@U?$_Select1st@U?$pair@QBDPAVIConsole_Command@@@stlp_std@@@priv@4@U?$_MapTraitsT@U?$pair@QBDPAVIConsole_Command@@@stlp_std@@@64@V?$xalloc@U?$pair@PBDPAVIConsole_Command@@@stlp_std@@@@@priv@stlp_std@@ABEPAU_Rb_tree_node_base@12@ABQBD@Z ENDP ; stlp_std::priv::_Rb_tree<char const *,CConsole::str_pred,stlp_std::pair<char const * const,IConsole_Command *>,stlp_std::priv::_Select1st<stlp_std::pair<char const * const,IConsole_Command *> >,stlp_std::priv::_MapTraitsT<stlp_std::pair<char const * const,IConsole_Command *> >,xalloc<stlp_std::pair<char const *,IConsole_Command *> > >::_M_find<char const *>
; Function compile flags: /Ogtpy
_TEXT	ENDS
;	COMDAT ??$lower_bound@PBD@?$_Rb_tree@PBDUstr_pred@CConsole@@U?$pair@QBDPAVIConsole_Command@@@stlp_std@@U?$_Select1st@U?$pair@QBDPAVIConsole_Command@@@stlp_std@@@priv@4@U?$_MapTraitsT@U?$pair@QBDPAVIConsole_Command@@@stlp_std@@@64@V?$xalloc@U?$pair@PBDPAVIConsole_Command@@@stlp_std@@@@@priv@stlp_std@@QAE?AU?$_Rb_tree_iterator@U?$pair@QBDPAVIConsole_Command@@@stlp_std@@U?$_MapTraitsT@U?$pair@QBDPAVIConsole_Command@@@stlp_std@@@priv@2@@12@ABQBD@Z
_TEXT	SEGMENT
??$lower_bound@PBD@?$_Rb_tree@PBDUstr_pred@CConsole@@U?$pair@QBDPAVIConsole_Command@@@stlp_std@@U?$_Select1st@U?$pair@QBDPAVIConsole_Command@@@stlp_std@@@priv@4@U?$_MapTraitsT@U?$pair@QBDPAVIConsole_Command@@@stlp_std@@@64@V?$xalloc@U?$pair@PBDPAVIConsole_Command@@@stlp_std@@@@@priv@stlp_std@@QAE?AU?$_Rb_tree_iterator@U?$pair@QBDPAVIConsole_Command@@@stlp_std@@U?$_MapTraitsT@U?$pair@QBDPAVIConsole_Command@@@stlp_std@@@priv@2@@12@ABQBD@Z PROC ; stlp_std::priv::_Rb_tree<char const *,CConsole::str_pred,stlp_std::pair<char const * const,IConsole_Command *>,stlp_std::priv::_Select1st<stlp_std::pair<char const * const,IConsole_Command *> >,stlp_std::priv::_MapTraitsT<stlp_std::pair<char const * const,IConsole_Command *> >,xalloc<stlp_std::pair<char const *,IConsole_Command *> > >::lower_bound<char const *>, COMDAT
; _this$ = ecx
; ___$ReturnUdt$ = esi
; ___x$ = ebx

; 596  :   iterator lower_bound(const _KT& __x) { return iterator(_M_lower_bound(__x)); }

	call	??$_M_lower_bound@PBD@?$_Rb_tree@PBDUstr_pred@CConsole@@U?$pair@QBDPAVIConsole_Command@@@stlp_std@@U?$_Select1st@U?$pair@QBDPAVIConsole_Command@@@stlp_std@@@priv@4@U?$_MapTraitsT@U?$pair@QBDPAVIConsole_Command@@@stlp_std@@@64@V?$xalloc@U?$pair@PBDPAVIConsole_Command@@@stlp_std@@@@@priv@stlp_std@@ABEPAU_Rb_tree_node_base@12@ABQBD@Z ; stlp_std::priv::_Rb_tree<char const *,CConsole::str_pred,stlp_std::pair<char const * const,IConsole_Command *>,stlp_std::priv::_Select1st<stlp_std::pair<char const * const,IConsole_Command *> >,stlp_std::priv::_MapTraitsT<stlp_std::pair<char const * const,IConsole_Command *> >,xalloc<stlp_std::pair<char const *,IConsole_Command *> > >::_M_lower_bound<char const *>
	mov	DWORD PTR [esi], eax
	mov	eax, esi
	ret	0
??$lower_bound@PBD@?$_Rb_tree@PBDUstr_pred@CConsole@@U?$pair@QBDPAVIConsole_Command@@@stlp_std@@U?$_Select1st@U?$pair@QBDPAVIConsole_Command@@@stlp_std@@@priv@4@U?$_MapTraitsT@U?$pair@QBDPAVIConsole_Command@@@stlp_std@@@64@V?$xalloc@U?$pair@PBDPAVIConsole_Command@@@stlp_std@@@@@priv@stlp_std@@QAE?AU?$_Rb_tree_iterator@U?$pair@QBDPAVIConsole_Command@@@stlp_std@@U?$_MapTraitsT@U?$pair@QBDPAVIConsole_Command@@@stlp_std@@@priv@2@@12@ABQBD@Z ENDP ; stlp_std::priv::_Rb_tree<char const *,CConsole::str_pred,stlp_std::pair<char const * const,IConsole_Command *>,stlp_std::priv::_Select1st<stlp_std::pair<char const * const,IConsole_Command *> >,stlp_std::priv::_MapTraitsT<stlp_std::pair<char const * const,IConsole_Command *> >,xalloc<stlp_std::pair<char const *,IConsole_Command *> > >::lower_bound<char const *>
; Function compile flags: /Ogtpy
; File d:\clearsky\sources\sdk\include\stlport\stl\_tree.c
_TEXT	ENDS
;	COMDAT ?_M_insert@?$_Rb_tree@PBDUstr_pred@CConsole@@U?$pair@QBDPAVIConsole_Command@@@stlp_std@@U?$_Select1st@U?$pair@QBDPAVIConsole_Command@@@stlp_std@@@priv@4@U?$_MapTraitsT@U?$pair@QBDPAVIConsole_Command@@@stlp_std@@@64@V?$xalloc@U?$pair@PBDPAVIConsole_Command@@@stlp_std@@@@@priv@stlp_std@@AAE?AU?$_Rb_tree_iterator@U?$pair@QBDPAVIConsole_Command@@@stlp_std@@U?$_MapTraitsT@U?$pair@QBDPAVIConsole_Command@@@stlp_std@@@priv@2@@23@PAU_Rb_tree_node_base@23@ABU?$pair@QBDPAVIConsole_Command@@@3@00@Z
_TEXT	SEGMENT
___$ReturnUdt$ = 8					; size = 4
___on_left$ = 12					; size = 4
___on_right$ = 16					; size = 4
?_M_insert@?$_Rb_tree@PBDUstr_pred@CConsole@@U?$pair@QBDPAVIConsole_Command@@@stlp_std@@U?$_Select1st@U?$pair@QBDPAVIConsole_Command@@@stlp_std@@@priv@4@U?$_MapTraitsT@U?$pair@QBDPAVIConsole_Command@@@stlp_std@@@64@V?$xalloc@U?$pair@PBDPAVIConsole_Command@@@stlp_std@@@@@priv@stlp_std@@AAE?AU?$_Rb_tree_iterator@U?$pair@QBDPAVIConsole_Command@@@stlp_std@@U?$_MapTraitsT@U?$pair@QBDPAVIConsole_Command@@@stlp_std@@@priv@2@@23@PAU_Rb_tree_node_base@23@ABU?$pair@QBDPAVIConsole_Command@@@3@00@Z PROC ; stlp_std::priv::_Rb_tree<char const *,CConsole::str_pred,stlp_std::pair<char const * const,IConsole_Command *>,stlp_std::priv::_Select1st<stlp_std::pair<char const * const,IConsole_Command *> >,stlp_std::priv::_MapTraitsT<stlp_std::pair<char const * const,IConsole_Command *> >,xalloc<stlp_std::pair<char const *,IConsole_Command *> > >::_M_insert, COMDAT
; _this$ = ebx
; ___parent$ = ecx
; ___val$ = eax

; 353  :                                                                       _Rb_tree_node_base * __on_right) {

	push	ebp
	mov	ebp, DWORD PTR ___$ReturnUdt$[esp]
	push	esi
	push	edi
	mov	edi, ecx

; 354  :   // We do not create the node here as, depending on tests, we might call
; 355  :   // _M_key_compare that can throw an exception.
; 356  :   _Base_ptr __new_node;
; 357  : 
; 358  :   if ( __parent == &this->_M_header._M_data ) {

	cmp	edi, ebx
	mov	esi, eax
	jne	SHORT $LN7@M_insert

; 359  :     __new_node = _M_create_node(__val);

	push	esi
	mov	ecx, ebx
	call	?_M_create_node@?$_Rb_tree@PBDUstr_pred@CConsole@@U?$pair@QBDPAVIConsole_Command@@@stlp_std@@U?$_Select1st@U?$pair@QBDPAVIConsole_Command@@@stlp_std@@@priv@4@U?$_MapTraitsT@U?$pair@QBDPAVIConsole_Command@@@stlp_std@@@64@V?$xalloc@U?$pair@PBDPAVIConsole_Command@@@stlp_std@@@@@priv@stlp_std@@IAEPAU_Rb_tree_node_base@23@ABU?$pair@QBDPAVIConsole_Command@@@3@@Z ; stlp_std::priv::_Rb_tree<char const *,CConsole::str_pred,stlp_std::pair<char const * const,IConsole_Command *>,stlp_std::priv::_Select1st<stlp_std::pair<char const * const,IConsole_Command *> >,stlp_std::priv::_MapTraitsT<stlp_std::pair<char const * const,IConsole_Command *> >,xalloc<stlp_std::pair<char const *,IConsole_Command *> > >::_M_create_node

; 360  :     _S_left(__parent) = __new_node;   // also makes _M_leftmost() = __new_node

	push	edi
	mov	esi, eax
	call	?_S_left@?$_Rb_tree@PBDUstr_pred@CConsole@@U?$pair@QBDPAVIConsole_Command@@@stlp_std@@U?$_Select1st@U?$pair@QBDPAVIConsole_Command@@@stlp_std@@@priv@4@U?$_MapTraitsT@U?$pair@QBDPAVIConsole_Command@@@stlp_std@@@64@V?$xalloc@U?$pair@PBDPAVIConsole_Command@@@stlp_std@@@@@priv@stlp_std@@KAAAPAU_Rb_tree_node_base@23@PAU423@@Z ; stlp_std::priv::_Rb_tree<char const *,CConsole::str_pred,stlp_std::pair<char const * const,IConsole_Command *>,stlp_std::priv::_Select1st<stlp_std::pair<char const * const,IConsole_Command *> >,stlp_std::priv::_MapTraitsT<stlp_std::pair<char const * const,IConsole_Command *> >,xalloc<stlp_std::pair<char const *,IConsole_Command *> > >::_S_left
	add	esp, 4

; 361  :     _M_root() = __new_node;

	mov	ecx, ebx
	mov	DWORD PTR [eax], esi
	call	?_M_root@?$_Rb_tree@PBDUstr_pred@CConsole@@U?$pair@QBDPAVIConsole_Command@@@stlp_std@@U?$_Select1st@U?$pair@QBDPAVIConsole_Command@@@stlp_std@@@priv@4@U?$_MapTraitsT@U?$pair@QBDPAVIConsole_Command@@@stlp_std@@@64@V?$xalloc@U?$pair@PBDPAVIConsole_Command@@@stlp_std@@@@@priv@stlp_std@@IAEAAPAU_Rb_tree_node_base@23@XZ ; stlp_std::priv::_Rb_tree<char const *,CConsole::str_pred,stlp_std::pair<char const * const,IConsole_Command *>,stlp_std::priv::_Select1st<stlp_std::pair<char const * const,IConsole_Command *> >,stlp_std::priv::_MapTraitsT<stlp_std::pair<char const * const,IConsole_Command *> >,xalloc<stlp_std::pair<char const *,IConsole_Command *> > >::_M_root
	mov	DWORD PTR [eax], esi

; 362  :     _M_rightmost() = __new_node;
; 363  :   }
; 364  :   else if ( __on_right == 0 &&     // If __on_right != 0, the remainder fails to false

	jmp	SHORT $LN42@M_insert
$LN7@M_insert:

; 365  :            ( __on_left != 0 ||     // If __on_left != 0, the remainder succeeds to true
; 366  :              _M_key_compare( _KeyOfValue()(__val), _S_key(__parent) ) ) ) {

	cmp	DWORD PTR ___on_right$[esp+8], 0
	jne	SHORT $LN5@M_insert
	cmp	DWORD PTR ___on_left$[esp+8], 0
	jne	SHORT $LN4@M_insert
	push	edi
	call	?_S_value@?$_Rb_tree@PBDUstr_pred@CConsole@@U?$pair@QBDPAVIConsole_Command@@@stlp_std@@U?$_Select1st@U?$pair@QBDPAVIConsole_Command@@@stlp_std@@@priv@4@U?$_MapTraitsT@U?$pair@QBDPAVIConsole_Command@@@stlp_std@@@64@V?$xalloc@U?$pair@PBDPAVIConsole_Command@@@stlp_std@@@@@priv@stlp_std@@KAAAU?$pair@QBDPAVIConsole_Command@@@3@PAU_Rb_tree_node_base@23@@Z ; stlp_std::priv::_Rb_tree<char const *,CConsole::str_pred,stlp_std::pair<char const * const,IConsole_Command *>,stlp_std::priv::_Select1st<stlp_std::pair<char const * const,IConsole_Command *> >,stlp_std::priv::_MapTraitsT<stlp_std::pair<char const * const,IConsole_Command *> >,xalloc<stlp_std::pair<char const *,IConsole_Command *> > >::_S_value
	mov	ecx, DWORD PTR [eax]
	mov	eax, DWORD PTR [esi]
	add	esp, 4
	call	??Rstr_pred@CConsole@@QBE_NPBD0@Z	; CConsole::str_pred::operator()
	test	al, al
	je	SHORT $LN5@M_insert
$LN4@M_insert:

; 367  :     __new_node = _M_create_node(__val);

	push	esi
	mov	ecx, ebx
	call	?_M_create_node@?$_Rb_tree@PBDUstr_pred@CConsole@@U?$pair@QBDPAVIConsole_Command@@@stlp_std@@U?$_Select1st@U?$pair@QBDPAVIConsole_Command@@@stlp_std@@@priv@4@U?$_MapTraitsT@U?$pair@QBDPAVIConsole_Command@@@stlp_std@@@64@V?$xalloc@U?$pair@PBDPAVIConsole_Command@@@stlp_std@@@@@priv@stlp_std@@IAEPAU_Rb_tree_node_base@23@ABU?$pair@QBDPAVIConsole_Command@@@3@@Z ; stlp_std::priv::_Rb_tree<char const *,CConsole::str_pred,stlp_std::pair<char const * const,IConsole_Command *>,stlp_std::priv::_Select1st<stlp_std::pair<char const * const,IConsole_Command *> >,stlp_std::priv::_MapTraitsT<stlp_std::pair<char const * const,IConsole_Command *> >,xalloc<stlp_std::pair<char const *,IConsole_Command *> > >::_M_create_node

; 368  :     _S_left(__parent) = __new_node;

	push	edi
	mov	esi, eax
	call	?_S_left@?$_Rb_tree@PBDUstr_pred@CConsole@@U?$pair@QBDPAVIConsole_Command@@@stlp_std@@U?$_Select1st@U?$pair@QBDPAVIConsole_Command@@@stlp_std@@@priv@4@U?$_MapTraitsT@U?$pair@QBDPAVIConsole_Command@@@stlp_std@@@64@V?$xalloc@U?$pair@PBDPAVIConsole_Command@@@stlp_std@@@@@priv@stlp_std@@KAAAPAU_Rb_tree_node_base@23@PAU423@@Z ; stlp_std::priv::_Rb_tree<char const *,CConsole::str_pred,stlp_std::pair<char const * const,IConsole_Command *>,stlp_std::priv::_Select1st<stlp_std::pair<char const * const,IConsole_Command *> >,stlp_std::priv::_MapTraitsT<stlp_std::pair<char const * const,IConsole_Command *> >,xalloc<stlp_std::pair<char const *,IConsole_Command *> > >::_S_left
	add	esp, 4

; 369  :     if (__parent == _M_leftmost())

	mov	ecx, ebx
	mov	DWORD PTR [eax], esi
	call	?_M_leftmost@?$_Rb_tree@PBDUstr_pred@CConsole@@U?$pair@QBDPAVIConsole_Command@@@stlp_std@@U?$_Select1st@U?$pair@QBDPAVIConsole_Command@@@stlp_std@@@priv@4@U?$_MapTraitsT@U?$pair@QBDPAVIConsole_Command@@@stlp_std@@@64@V?$xalloc@U?$pair@PBDPAVIConsole_Command@@@stlp_std@@@@@priv@stlp_std@@IAEAAPAU_Rb_tree_node_base@23@XZ ; stlp_std::priv::_Rb_tree<char const *,CConsole::str_pred,stlp_std::pair<char const * const,IConsole_Command *>,stlp_std::priv::_Select1st<stlp_std::pair<char const * const,IConsole_Command *> >,stlp_std::priv::_MapTraitsT<stlp_std::pair<char const * const,IConsole_Command *> >,xalloc<stlp_std::pair<char const *,IConsole_Command *> > >::_M_leftmost
	cmp	edi, DWORD PTR [eax]
	jne	SHORT $LN1@M_insert

; 370  :       _M_leftmost() = __new_node;   // maintain _M_leftmost() pointing to min node

	mov	ecx, ebx
	call	?_M_leftmost@?$_Rb_tree@PBDUstr_pred@CConsole@@U?$pair@QBDPAVIConsole_Command@@@stlp_std@@U?$_Select1st@U?$pair@QBDPAVIConsole_Command@@@stlp_std@@@priv@4@U?$_MapTraitsT@U?$pair@QBDPAVIConsole_Command@@@stlp_std@@@64@V?$xalloc@U?$pair@PBDPAVIConsole_Command@@@stlp_std@@@@@priv@stlp_std@@IAEAAPAU_Rb_tree_node_base@23@XZ ; stlp_std::priv::_Rb_tree<char const *,CConsole::str_pred,stlp_std::pair<char const * const,IConsole_Command *>,stlp_std::priv::_Select1st<stlp_std::pair<char const * const,IConsole_Command *> >,stlp_std::priv::_MapTraitsT<stlp_std::pair<char const * const,IConsole_Command *> >,xalloc<stlp_std::pair<char const *,IConsole_Command *> > >::_M_leftmost

; 371  :   }
; 372  :   else {

	jmp	SHORT $LN43@M_insert
$LN5@M_insert:

; 373  :     __new_node = _M_create_node(__val);

	push	esi
	mov	ecx, ebx
	call	?_M_create_node@?$_Rb_tree@PBDUstr_pred@CConsole@@U?$pair@QBDPAVIConsole_Command@@@stlp_std@@U?$_Select1st@U?$pair@QBDPAVIConsole_Command@@@stlp_std@@@priv@4@U?$_MapTraitsT@U?$pair@QBDPAVIConsole_Command@@@stlp_std@@@64@V?$xalloc@U?$pair@PBDPAVIConsole_Command@@@stlp_std@@@@@priv@stlp_std@@IAEPAU_Rb_tree_node_base@23@ABU?$pair@QBDPAVIConsole_Command@@@3@@Z ; stlp_std::priv::_Rb_tree<char const *,CConsole::str_pred,stlp_std::pair<char const * const,IConsole_Command *>,stlp_std::priv::_Select1st<stlp_std::pair<char const * const,IConsole_Command *> >,stlp_std::priv::_MapTraitsT<stlp_std::pair<char const * const,IConsole_Command *> >,xalloc<stlp_std::pair<char const *,IConsole_Command *> > >::_M_create_node

; 374  :     _S_right(__parent) = __new_node;

	push	edi
	mov	esi, eax
	call	?_S_right@?$_Rb_tree@PBDUstr_pred@CConsole@@U?$pair@QBDPAVIConsole_Command@@@stlp_std@@U?$_Select1st@U?$pair@QBDPAVIConsole_Command@@@stlp_std@@@priv@4@U?$_MapTraitsT@U?$pair@QBDPAVIConsole_Command@@@stlp_std@@@64@V?$xalloc@U?$pair@PBDPAVIConsole_Command@@@stlp_std@@@@@priv@stlp_std@@KAAAPAU_Rb_tree_node_base@23@PAU423@@Z ; stlp_std::priv::_Rb_tree<char const *,CConsole::str_pred,stlp_std::pair<char const * const,IConsole_Command *>,stlp_std::priv::_Select1st<stlp_std::pair<char const * const,IConsole_Command *> >,stlp_std::priv::_MapTraitsT<stlp_std::pair<char const * const,IConsole_Command *> >,xalloc<stlp_std::pair<char const *,IConsole_Command *> > >::_S_right
	add	esp, 4

; 375  :     if (__parent == _M_rightmost())

	mov	ecx, ebx
	mov	DWORD PTR [eax], esi
	call	?_M_rightmost@?$_Rb_tree@PBDUstr_pred@CConsole@@U?$pair@QBDPAVIConsole_Command@@@stlp_std@@U?$_Select1st@U?$pair@QBDPAVIConsole_Command@@@stlp_std@@@priv@4@U?$_MapTraitsT@U?$pair@QBDPAVIConsole_Command@@@stlp_std@@@64@V?$xalloc@U?$pair@PBDPAVIConsole_Command@@@stlp_std@@@@@priv@stlp_std@@IAEAAPAU_Rb_tree_node_base@23@XZ ; stlp_std::priv::_Rb_tree<char const *,CConsole::str_pred,stlp_std::pair<char const * const,IConsole_Command *>,stlp_std::priv::_Select1st<stlp_std::pair<char const * const,IConsole_Command *> >,stlp_std::priv::_MapTraitsT<stlp_std::pair<char const * const,IConsole_Command *> >,xalloc<stlp_std::pair<char const *,IConsole_Command *> > >::_M_rightmost
	cmp	edi, DWORD PTR [eax]
	jne	SHORT $LN1@M_insert
$LN42@M_insert:

; 376  :       _M_rightmost() = __new_node;  // maintain _M_rightmost() pointing to max node

	mov	ecx, ebx
	call	?_M_rightmost@?$_Rb_tree@PBDUstr_pred@CConsole@@U?$pair@QBDPAVIConsole_Command@@@stlp_std@@U?$_Select1st@U?$pair@QBDPAVIConsole_Command@@@stlp_std@@@priv@4@U?$_MapTraitsT@U?$pair@QBDPAVIConsole_Command@@@stlp_std@@@64@V?$xalloc@U?$pair@PBDPAVIConsole_Command@@@stlp_std@@@@@priv@stlp_std@@IAEAAPAU_Rb_tree_node_base@23@XZ ; stlp_std::priv::_Rb_tree<char const *,CConsole::str_pred,stlp_std::pair<char const * const,IConsole_Command *>,stlp_std::priv::_Select1st<stlp_std::pair<char const * const,IConsole_Command *> >,stlp_std::priv::_MapTraitsT<stlp_std::pair<char const * const,IConsole_Command *> >,xalloc<stlp_std::pair<char const *,IConsole_Command *> > >::_M_rightmost
$LN43@M_insert:
	mov	DWORD PTR [eax], esi
$LN1@M_insert:

; 377  :   }
; 378  :   _S_parent(__new_node) = __parent;

	push	esi
	call	?_S_parent@?$_Rb_tree@PBDUstr_pred@CConsole@@U?$pair@QBDPAVIConsole_Command@@@stlp_std@@U?$_Select1st@U?$pair@QBDPAVIConsole_Command@@@stlp_std@@@priv@4@U?$_MapTraitsT@U?$pair@QBDPAVIConsole_Command@@@stlp_std@@@64@V?$xalloc@U?$pair@PBDPAVIConsole_Command@@@stlp_std@@@@@priv@stlp_std@@KAAAPAU_Rb_tree_node_base@23@PAU423@@Z ; stlp_std::priv::_Rb_tree<char const *,CConsole::str_pred,stlp_std::pair<char const * const,IConsole_Command *>,stlp_std::priv::_Select1st<stlp_std::pair<char const * const,IConsole_Command *> >,stlp_std::priv::_MapTraitsT<stlp_std::pair<char const * const,IConsole_Command *> >,xalloc<stlp_std::pair<char const *,IConsole_Command *> > >::_S_parent
	mov	DWORD PTR [eax], edi
	add	esp, 4

; 379  :   _Rb_global_inst::_Rebalance(__new_node, this->_M_header._M_data._M_parent);

	lea	edi, DWORD PTR [ebx+4]
	mov	eax, esi
	call	?_Rebalance@?$_Rb_global@_N@priv@stlp_std@@SAXPAU_Rb_tree_node_base@23@AAPAU423@@Z ; stlp_std::priv::_Rb_global<bool>::_Rebalance

; 380  :   ++_M_node_count;

	add	DWORD PTR [ebx+16], 1
	pop	edi

; 381  :   return iterator(__new_node);

	mov	DWORD PTR [ebp], esi
	pop	esi
	mov	eax, ebp
	pop	ebp

; 382  : }

	ret	12					; 0000000cH
?_M_insert@?$_Rb_tree@PBDUstr_pred@CConsole@@U?$pair@QBDPAVIConsole_Command@@@stlp_std@@U?$_Select1st@U?$pair@QBDPAVIConsole_Command@@@stlp_std@@@priv@4@U?$_MapTraitsT@U?$pair@QBDPAVIConsole_Command@@@stlp_std@@@64@V?$xalloc@U?$pair@PBDPAVIConsole_Command@@@stlp_std@@@@@priv@stlp_std@@AAE?AU?$_Rb_tree_iterator@U?$pair@QBDPAVIConsole_Command@@@stlp_std@@U?$_MapTraitsT@U?$pair@QBDPAVIConsole_Command@@@stlp_std@@@priv@2@@23@PAU_Rb_tree_node_base@23@ABU?$pair@QBDPAVIConsole_Command@@@3@00@Z ENDP ; stlp_std::priv::_Rb_tree<char const *,CConsole::str_pred,stlp_std::pair<char const * const,IConsole_Command *>,stlp_std::priv::_Select1st<stlp_std::pair<char const * const,IConsole_Command *> >,stlp_std::priv::_MapTraitsT<stlp_std::pair<char const * const,IConsole_Command *> >,xalloc<stlp_std::pair<char const *,IConsole_Command *> > >::_M_insert
; Function compile flags: /Ogtpy
; File d:\clearsky\sources\sdk\include\stlport\stl\_algobase.c
_TEXT	ENDS
;	COMDAT ??$__find@PAUTipString@@Vshared_str@@@priv@stlp_std@@YAPAUTipString@@PAU2@0ABVshared_str@@ABUrandom_access_iterator_tag@1@@Z
_TEXT	SEGMENT
??$__find@PAUTipString@@Vshared_str@@@priv@stlp_std@@YAPAUTipString@@PAU2@0ABVshared_str@@ABUrandom_access_iterator_tag@1@@Z PROC ; stlp_std::priv::__find<TipString *,shared_str>, COMDAT
; ___first$ = ecx
; ___last$ = esi
; ___val$ = edi

; 108  :   _STLP_DIFFERENCE_TYPE(_RandomAccessIter) __trip_count = (__last - __first) >> 2;

	mov	edx, esi
	sub	edx, ecx
	mov	eax, 715827883				; 2aaaaaabH
	imul	edx
	sar	edx, 1
	mov	eax, edx
	shr	eax, 31					; 0000001fH
	add	eax, edx
	sar	eax, 2

; 109  : 
; 110  :   for ( ; __trip_count > 0 ; --__trip_count) {

	test	eax, eax
	jle	SHORT $LN14@find@7
	mov	edx, DWORD PTR [edi]
	npad	3
$LL16@find@7:

; 111  :     if (*__first == __val) return __first;

	cmp	DWORD PTR [ecx], edx
	je	SHORT $LN76@find@7

; 112  :     ++__first;

	add	ecx, 12					; 0000000cH

; 113  : 
; 114  :     if (*__first == __val) return __first;

	cmp	DWORD PTR [ecx], edx
	je	SHORT $LN76@find@7

; 115  :     ++__first;

	add	ecx, 12					; 0000000cH

; 116  : 
; 117  :     if (*__first == __val) return __first;

	cmp	DWORD PTR [ecx], edx
	je	SHORT $LN76@find@7

; 118  :     ++__first;

	add	ecx, 12					; 0000000cH

; 119  : 
; 120  :     if (*__first == __val) return __first;

	cmp	DWORD PTR [ecx], edx
	je	SHORT $LN76@find@7
	sub	eax, 1

; 121  :     ++__first;

	add	ecx, 12					; 0000000cH
	test	eax, eax
	jg	SHORT $LL16@find@7
$LN14@find@7:

; 122  :   }
; 123  : 
; 124  :   switch (__last - __first) {

	mov	edx, esi
	sub	edx, ecx
	mov	eax, 715827883				; 2aaaaaabH
	imul	edx
	sar	edx, 1
	mov	eax, edx
	shr	eax, 31					; 0000001fH
	add	eax, edx
	sub	eax, 1
	je	SHORT $LN3@find@7
	sub	eax, 1
	je	SHORT $LN5@find@7
	sub	eax, 1
	jne	SHORT $LN2@find@7

; 125  :   case 3:
; 126  :     if (*__first == __val) return __first;

	mov	edx, DWORD PTR [ecx]
	cmp	edx, DWORD PTR [edi]
	je	SHORT $LN76@find@7

; 127  :     ++__first;

	add	ecx, 12					; 0000000cH
$LN5@find@7:

; 128  :   case 2:
; 129  :     if (*__first == __val) return __first;

	mov	eax, DWORD PTR [ecx]
	cmp	eax, DWORD PTR [edi]
	je	SHORT $LN76@find@7

; 130  :     ++__first;

	add	ecx, 12					; 0000000cH
$LN3@find@7:

; 131  :   case 1:
; 132  :     if (*__first == __val) return __first;

	mov	edx, DWORD PTR [ecx]
	cmp	edx, DWORD PTR [edi]
	mov	eax, ecx
	je	SHORT $LN8@find@7
$LN2@find@7:

; 133  :     //++__first;
; 134  :   case 0:
; 135  :   default:
; 136  :     return __last;

	mov	eax, esi
$LN8@find@7:

; 137  :   }
; 138  : }

	ret	0
$LN76@find@7:

; 111  :     if (*__first == __val) return __first;

	mov	eax, ecx

; 137  :   }
; 138  : }

	ret	0
??$__find@PAUTipString@@Vshared_str@@@priv@stlp_std@@YAPAUTipString@@PAU2@0ABVshared_str@@ABUrandom_access_iterator_tag@1@@Z ENDP ; stlp_std::priv::__find<TipString *,shared_str>
; Function compile flags: /Ogtpy
; File d:\clearsky\sources\sdk\include\stlport\stl\_tree.h
_TEXT	ENDS
;	COMDAT ??$lower_bound@PAD@?$_Rb_tree@PBDUstr_pred@CConsole@@U?$pair@QBDPAVIConsole_Command@@@stlp_std@@U?$_Select1st@U?$pair@QBDPAVIConsole_Command@@@stlp_std@@@priv@4@U?$_MapTraitsT@U?$pair@QBDPAVIConsole_Command@@@stlp_std@@@64@V?$xalloc@U?$pair@PBDPAVIConsole_Command@@@stlp_std@@@@@priv@stlp_std@@QAE?AU?$_Rb_tree_iterator@U?$pair@QBDPAVIConsole_Command@@@stlp_std@@U?$_MapTraitsT@U?$pair@QBDPAVIConsole_Command@@@stlp_std@@@priv@2@@12@ABQAD@Z
_TEXT	SEGMENT
??$lower_bound@PAD@?$_Rb_tree@PBDUstr_pred@CConsole@@U?$pair@QBDPAVIConsole_Command@@@stlp_std@@U?$_Select1st@U?$pair@QBDPAVIConsole_Command@@@stlp_std@@@priv@4@U?$_MapTraitsT@U?$pair@QBDPAVIConsole_Command@@@stlp_std@@@64@V?$xalloc@U?$pair@PBDPAVIConsole_Command@@@stlp_std@@@@@priv@stlp_std@@QAE?AU?$_Rb_tree_iterator@U?$pair@QBDPAVIConsole_Command@@@stlp_std@@U?$_MapTraitsT@U?$pair@QBDPAVIConsole_Command@@@stlp_std@@@priv@2@@12@ABQAD@Z PROC ; stlp_std::priv::_Rb_tree<char const *,CConsole::str_pred,stlp_std::pair<char const * const,IConsole_Command *>,stlp_std::priv::_Select1st<stlp_std::pair<char const * const,IConsole_Command *> >,stlp_std::priv::_MapTraitsT<stlp_std::pair<char const * const,IConsole_Command *> >,xalloc<stlp_std::pair<char const *,IConsole_Command *> > >::lower_bound<char *>, COMDAT
; _this$ = ecx
; ___$ReturnUdt$ = esi
; ___x$ = ebx

; 596  :   iterator lower_bound(const _KT& __x) { return iterator(_M_lower_bound(__x)); }

	call	??$_M_lower_bound@PAD@?$_Rb_tree@PBDUstr_pred@CConsole@@U?$pair@QBDPAVIConsole_Command@@@stlp_std@@U?$_Select1st@U?$pair@QBDPAVIConsole_Command@@@stlp_std@@@priv@4@U?$_MapTraitsT@U?$pair@QBDPAVIConsole_Command@@@stlp_std@@@64@V?$xalloc@U?$pair@PBDPAVIConsole_Command@@@stlp_std@@@@@priv@stlp_std@@ABEPAU_Rb_tree_node_base@12@ABQAD@Z ; stlp_std::priv::_Rb_tree<char const *,CConsole::str_pred,stlp_std::pair<char const * const,IConsole_Command *>,stlp_std::priv::_Select1st<stlp_std::pair<char const * const,IConsole_Command *> >,stlp_std::priv::_MapTraitsT<stlp_std::pair<char const * const,IConsole_Command *> >,xalloc<stlp_std::pair<char const *,IConsole_Command *> > >::_M_lower_bound<char *>
	mov	DWORD PTR [esi], eax
	mov	eax, esi
	ret	0
??$lower_bound@PAD@?$_Rb_tree@PBDUstr_pred@CConsole@@U?$pair@QBDPAVIConsole_Command@@@stlp_std@@U?$_Select1st@U?$pair@QBDPAVIConsole_Command@@@stlp_std@@@priv@4@U?$_MapTraitsT@U?$pair@QBDPAVIConsole_Command@@@stlp_std@@@64@V?$xalloc@U?$pair@PBDPAVIConsole_Command@@@stlp_std@@@@@priv@stlp_std@@QAE?AU?$_Rb_tree_iterator@U?$pair@QBDPAVIConsole_Command@@@stlp_std@@U?$_MapTraitsT@U?$pair@QBDPAVIConsole_Command@@@stlp_std@@@priv@2@@12@ABQAD@Z ENDP ; stlp_std::priv::_Rb_tree<char const *,CConsole::str_pred,stlp_std::pair<char const * const,IConsole_Command *>,stlp_std::priv::_Select1st<stlp_std::pair<char const * const,IConsole_Command *> >,stlp_std::priv::_MapTraitsT<stlp_std::pair<char const * const,IConsole_Command *> >,xalloc<stlp_std::pair<char const *,IConsole_Command *> > >::lower_bound<char *>
; Function compile flags: /Ogtpy
_TEXT	ENDS
;	COMDAT ??$find@PAD@?$_Rb_tree@PBDUstr_pred@CConsole@@U?$pair@QBDPAVIConsole_Command@@@stlp_std@@U?$_Select1st@U?$pair@QBDPAVIConsole_Command@@@stlp_std@@@priv@4@U?$_MapTraitsT@U?$pair@QBDPAVIConsole_Command@@@stlp_std@@@64@V?$xalloc@U?$pair@PBDPAVIConsole_Command@@@stlp_std@@@@@priv@stlp_std@@QAE?AU?$_Rb_tree_iterator@U?$pair@QBDPAVIConsole_Command@@@stlp_std@@U?$_MapTraitsT@U?$pair@QBDPAVIConsole_Command@@@stlp_std@@@priv@2@@12@ABQAD@Z
_TEXT	SEGMENT
??$find@PAD@?$_Rb_tree@PBDUstr_pred@CConsole@@U?$pair@QBDPAVIConsole_Command@@@stlp_std@@U?$_Select1st@U?$pair@QBDPAVIConsole_Command@@@stlp_std@@@priv@4@U?$_MapTraitsT@U?$pair@QBDPAVIConsole_Command@@@stlp_std@@@64@V?$xalloc@U?$pair@PBDPAVIConsole_Command@@@stlp_std@@@@@priv@stlp_std@@QAE?AU?$_Rb_tree_iterator@U?$pair@QBDPAVIConsole_Command@@@stlp_std@@U?$_MapTraitsT@U?$pair@QBDPAVIConsole_Command@@@stlp_std@@@priv@2@@12@ABQAD@Z PROC ; stlp_std::priv::_Rb_tree<char const *,CConsole::str_pred,stlp_std::pair<char const * const,IConsole_Command *>,stlp_std::priv::_Select1st<stlp_std::pair<char const * const,IConsole_Command *> >,stlp_std::priv::_MapTraitsT<stlp_std::pair<char const * const,IConsole_Command *> >,xalloc<stlp_std::pair<char const *,IConsole_Command *> > >::find<char *>, COMDAT
; _this$ = eax
; ___$ReturnUdt$ = esi
; ___k$ = edi

; 538  :   iterator find(const _KT& __k) { return iterator(_M_find(__k)); }

	push	eax
	call	??$_M_find@PAD@?$_Rb_tree@PBDUstr_pred@CConsole@@U?$pair@QBDPAVIConsole_Command@@@stlp_std@@U?$_Select1st@U?$pair@QBDPAVIConsole_Command@@@stlp_std@@@priv@4@U?$_MapTraitsT@U?$pair@QBDPAVIConsole_Command@@@stlp_std@@@64@V?$xalloc@U?$pair@PBDPAVIConsole_Command@@@stlp_std@@@@@priv@stlp_std@@ABEPAU_Rb_tree_node_base@12@ABQAD@Z ; stlp_std::priv::_Rb_tree<char const *,CConsole::str_pred,stlp_std::pair<char const * const,IConsole_Command *>,stlp_std::priv::_Select1st<stlp_std::pair<char const * const,IConsole_Command *> >,stlp_std::priv::_MapTraitsT<stlp_std::pair<char const * const,IConsole_Command *> >,xalloc<stlp_std::pair<char const *,IConsole_Command *> > >::_M_find<char *>
	mov	DWORD PTR [esi], eax
	mov	eax, esi
	ret	0
??$find@PAD@?$_Rb_tree@PBDUstr_pred@CConsole@@U?$pair@QBDPAVIConsole_Command@@@stlp_std@@U?$_Select1st@U?$pair@QBDPAVIConsole_Command@@@stlp_std@@@priv@4@U?$_MapTraitsT@U?$pair@QBDPAVIConsole_Command@@@stlp_std@@@64@V?$xalloc@U?$pair@PBDPAVIConsole_Command@@@stlp_std@@@@@priv@stlp_std@@QAE?AU?$_Rb_tree_iterator@U?$pair@QBDPAVIConsole_Command@@@stlp_std@@U?$_MapTraitsT@U?$pair@QBDPAVIConsole_Command@@@stlp_std@@@priv@2@@12@ABQAD@Z ENDP ; stlp_std::priv::_Rb_tree<char const *,CConsole::str_pred,stlp_std::pair<char const * const,IConsole_Command *>,stlp_std::priv::_Select1st<stlp_std::pair<char const * const,IConsole_Command *> >,stlp_std::priv::_MapTraitsT<stlp_std::pair<char const * const,IConsole_Command *> >,xalloc<stlp_std::pair<char const *,IConsole_Command *> > >::find<char *>
; Function compile flags: /Ogtpy
_TEXT	ENDS
;	COMDAT ??$find@PBD@?$_Rb_tree@PBDUstr_pred@CConsole@@U?$pair@QBDPAVIConsole_Command@@@stlp_std@@U?$_Select1st@U?$pair@QBDPAVIConsole_Command@@@stlp_std@@@priv@4@U?$_MapTraitsT@U?$pair@QBDPAVIConsole_Command@@@stlp_std@@@64@V?$xalloc@U?$pair@PBDPAVIConsole_Command@@@stlp_std@@@@@priv@stlp_std@@QAE?AU?$_Rb_tree_iterator@U?$pair@QBDPAVIConsole_Command@@@stlp_std@@U?$_MapTraitsT@U?$pair@QBDPAVIConsole_Command@@@stlp_std@@@priv@2@@12@ABQBD@Z
_TEXT	SEGMENT
??$find@PBD@?$_Rb_tree@PBDUstr_pred@CConsole@@U?$pair@QBDPAVIConsole_Command@@@stlp_std@@U?$_Select1st@U?$pair@QBDPAVIConsole_Command@@@stlp_std@@@priv@4@U?$_MapTraitsT@U?$pair@QBDPAVIConsole_Command@@@stlp_std@@@64@V?$xalloc@U?$pair@PBDPAVIConsole_Command@@@stlp_std@@@@@priv@stlp_std@@QAE?AU?$_Rb_tree_iterator@U?$pair@QBDPAVIConsole_Command@@@stlp_std@@U?$_MapTraitsT@U?$pair@QBDPAVIConsole_Command@@@stlp_std@@@priv@2@@12@ABQBD@Z PROC ; stlp_std::priv::_Rb_tree<char const *,CConsole::str_pred,stlp_std::pair<char const * const,IConsole_Command *>,stlp_std::priv::_Select1st<stlp_std::pair<char const * const,IConsole_Command *> >,stlp_std::priv::_MapTraitsT<stlp_std::pair<char const * const,IConsole_Command *> >,xalloc<stlp_std::pair<char const *,IConsole_Command *> > >::find<char const *>, COMDAT
; _this$ = eax
; ___$ReturnUdt$ = esi
; ___k$ = edi

; 538  :   iterator find(const _KT& __k) { return iterator(_M_find(__k)); }

	push	eax
	call	??$_M_find@PBD@?$_Rb_tree@PBDUstr_pred@CConsole@@U?$pair@QBDPAVIConsole_Command@@@stlp_std@@U?$_Select1st@U?$pair@QBDPAVIConsole_Command@@@stlp_std@@@priv@4@U?$_MapTraitsT@U?$pair@QBDPAVIConsole_Command@@@stlp_std@@@64@V?$xalloc@U?$pair@PBDPAVIConsole_Command@@@stlp_std@@@@@priv@stlp_std@@ABEPAU_Rb_tree_node_base@12@ABQBD@Z ; stlp_std::priv::_Rb_tree<char const *,CConsole::str_pred,stlp_std::pair<char const * const,IConsole_Command *>,stlp_std::priv::_Select1st<stlp_std::pair<char const * const,IConsole_Command *> >,stlp_std::priv::_MapTraitsT<stlp_std::pair<char const * const,IConsole_Command *> >,xalloc<stlp_std::pair<char const *,IConsole_Command *> > >::_M_find<char const *>
	mov	DWORD PTR [esi], eax
	mov	eax, esi
	ret	0
??$find@PBD@?$_Rb_tree@PBDUstr_pred@CConsole@@U?$pair@QBDPAVIConsole_Command@@@stlp_std@@U?$_Select1st@U?$pair@QBDPAVIConsole_Command@@@stlp_std@@@priv@4@U?$_MapTraitsT@U?$pair@QBDPAVIConsole_Command@@@stlp_std@@@64@V?$xalloc@U?$pair@PBDPAVIConsole_Command@@@stlp_std@@@@@priv@stlp_std@@QAE?AU?$_Rb_tree_iterator@U?$pair@QBDPAVIConsole_Command@@@stlp_std@@U?$_MapTraitsT@U?$pair@QBDPAVIConsole_Command@@@stlp_std@@@priv@2@@12@ABQBD@Z ENDP ; stlp_std::priv::_Rb_tree<char const *,CConsole::str_pred,stlp_std::pair<char const * const,IConsole_Command *>,stlp_std::priv::_Select1st<stlp_std::pair<char const * const,IConsole_Command *> >,stlp_std::priv::_MapTraitsT<stlp_std::pair<char const * const,IConsole_Command *> >,xalloc<stlp_std::pair<char const *,IConsole_Command *> > >::find<char const *>
; Function compile flags: /Ogtpy
; File d:\clearsky\sources\sdk\include\stlport\stl\_map.h
_TEXT	ENDS
;	COMDAT ??$lower_bound@PBD@?$map@PBDPAVIConsole_Command@@Ustr_pred@CConsole@@V?$xalloc@U?$pair@PBDPAVIConsole_Command@@@stlp_std@@@@@stlp_std@@QAE?AU?$_Rb_tree_iterator@U?$pair@QBDPAVIConsole_Command@@@stlp_std@@U?$_MapTraitsT@U?$pair@QBDPAVIConsole_Command@@@stlp_std@@@priv@2@@priv@1@ABQBD@Z
_TEXT	SEGMENT
??$lower_bound@PBD@?$map@PBDPAVIConsole_Command@@Ustr_pred@CConsole@@V?$xalloc@U?$pair@PBDPAVIConsole_Command@@@stlp_std@@@@@stlp_std@@QAE?AU?$_Rb_tree_iterator@U?$pair@QBDPAVIConsole_Command@@@stlp_std@@U?$_MapTraitsT@U?$pair@QBDPAVIConsole_Command@@@stlp_std@@@priv@2@@priv@1@ABQBD@Z PROC ; stlp_std::map<char const *,IConsole_Command *,CConsole::str_pred,xalloc<stlp_std::pair<char const *,IConsole_Command *> > >::lower_bound<char const *>, COMDAT
; _this$ = ecx
; ___$ReturnUdt$ = esi
; ___x$ = ebx

; 211  :   iterator lower_bound(const _KT& __x) { return _M_t.lower_bound(__x); }

	call	??$_M_lower_bound@PBD@?$_Rb_tree@PBDUstr_pred@CConsole@@U?$pair@QBDPAVIConsole_Command@@@stlp_std@@U?$_Select1st@U?$pair@QBDPAVIConsole_Command@@@stlp_std@@@priv@4@U?$_MapTraitsT@U?$pair@QBDPAVIConsole_Command@@@stlp_std@@@64@V?$xalloc@U?$pair@PBDPAVIConsole_Command@@@stlp_std@@@@@priv@stlp_std@@ABEPAU_Rb_tree_node_base@12@ABQBD@Z ; stlp_std::priv::_Rb_tree<char const *,CConsole::str_pred,stlp_std::pair<char const * const,IConsole_Command *>,stlp_std::priv::_Select1st<stlp_std::pair<char const * const,IConsole_Command *> >,stlp_std::priv::_MapTraitsT<stlp_std::pair<char const * const,IConsole_Command *> >,xalloc<stlp_std::pair<char const *,IConsole_Command *> > >::_M_lower_bound<char const *>
	mov	DWORD PTR [esi], eax
	mov	eax, esi
	ret	0
??$lower_bound@PBD@?$map@PBDPAVIConsole_Command@@Ustr_pred@CConsole@@V?$xalloc@U?$pair@PBDPAVIConsole_Command@@@stlp_std@@@@@stlp_std@@QAE?AU?$_Rb_tree_iterator@U?$pair@QBDPAVIConsole_Command@@@stlp_std@@U?$_MapTraitsT@U?$pair@QBDPAVIConsole_Command@@@stlp_std@@@priv@2@@priv@1@ABQBD@Z ENDP ; stlp_std::map<char const *,IConsole_Command *,CConsole::str_pred,xalloc<stlp_std::pair<char const *,IConsole_Command *> > >::lower_bound<char const *>
; Function compile flags: /Ogtpy
; File d:\clearsky\sources\sdk\include\stlport\stl\_algobase.c
_TEXT	ENDS
;	COMDAT ??$find@PAUTipString@@Vshared_str@@@stlp_std@@YAPAUTipString@@PAU1@0ABVshared_str@@@Z
_TEXT	SEGMENT
??$find@PAUTipString@@Vshared_str@@@stlp_std@@YAPAUTipString@@PAU1@0ABVshared_str@@@Z PROC ; stlp_std::find<TipString *,shared_str>, COMDAT
; ___first$ = ecx
; ___last$ = esi
; ___val$ = edi

; 215  :   _STLP_DEBUG_CHECK(_STLP_PRIV __check_range(__first, __last))
; 216  :   return _STLP_PRIV __find(__first, __last, __val, _STLP_ITERATOR_CATEGORY(__first, _InputIter));

	jmp	??$__find@PAUTipString@@Vshared_str@@@priv@stlp_std@@YAPAUTipString@@PAU2@0ABVshared_str@@ABUrandom_access_iterator_tag@1@@Z ; stlp_std::priv::__find<TipString *,shared_str>
??$find@PAUTipString@@Vshared_str@@@stlp_std@@YAPAUTipString@@PAU1@0ABVshared_str@@@Z ENDP ; stlp_std::find<TipString *,shared_str>
; Function compile flags: /Ogtpy
; File d:\clearsky\sources\sdk\include\stlport\stl\_map.h
_TEXT	ENDS
;	COMDAT ??$lower_bound@PAD@?$map@PBDPAVIConsole_Command@@Ustr_pred@CConsole@@V?$xalloc@U?$pair@PBDPAVIConsole_Command@@@stlp_std@@@@@stlp_std@@QAE?AU?$_Rb_tree_iterator@U?$pair@QBDPAVIConsole_Command@@@stlp_std@@U?$_MapTraitsT@U?$pair@QBDPAVIConsole_Command@@@stlp_std@@@priv@2@@priv@1@ABQAD@Z
_TEXT	SEGMENT
??$lower_bound@PAD@?$map@PBDPAVIConsole_Command@@Ustr_pred@CConsole@@V?$xalloc@U?$pair@PBDPAVIConsole_Command@@@stlp_std@@@@@stlp_std@@QAE?AU?$_Rb_tree_iterator@U?$pair@QBDPAVIConsole_Command@@@stlp_std@@U?$_MapTraitsT@U?$pair@QBDPAVIConsole_Command@@@stlp_std@@@priv@2@@priv@1@ABQAD@Z PROC ; stlp_std::map<char const *,IConsole_Command *,CConsole::str_pred,xalloc<stlp_std::pair<char const *,IConsole_Command *> > >::lower_bound<char *>, COMDAT
; _this$ = ecx
; ___$ReturnUdt$ = esi
; ___x$ = ebx

; 211  :   iterator lower_bound(const _KT& __x) { return _M_t.lower_bound(__x); }

	call	??$_M_lower_bound@PAD@?$_Rb_tree@PBDUstr_pred@CConsole@@U?$pair@QBDPAVIConsole_Command@@@stlp_std@@U?$_Select1st@U?$pair@QBDPAVIConsole_Command@@@stlp_std@@@priv@4@U?$_MapTraitsT@U?$pair@QBDPAVIConsole_Command@@@stlp_std@@@64@V?$xalloc@U?$pair@PBDPAVIConsole_Command@@@stlp_std@@@@@priv@stlp_std@@ABEPAU_Rb_tree_node_base@12@ABQAD@Z ; stlp_std::priv::_Rb_tree<char const *,CConsole::str_pred,stlp_std::pair<char const * const,IConsole_Command *>,stlp_std::priv::_Select1st<stlp_std::pair<char const * const,IConsole_Command *> >,stlp_std::priv::_MapTraitsT<stlp_std::pair<char const * const,IConsole_Command *> >,xalloc<stlp_std::pair<char const *,IConsole_Command *> > >::_M_lower_bound<char *>
	mov	DWORD PTR [esi], eax
	mov	eax, esi
	ret	0
??$lower_bound@PAD@?$map@PBDPAVIConsole_Command@@Ustr_pred@CConsole@@V?$xalloc@U?$pair@PBDPAVIConsole_Command@@@stlp_std@@@@@stlp_std@@QAE?AU?$_Rb_tree_iterator@U?$pair@QBDPAVIConsole_Command@@@stlp_std@@U?$_MapTraitsT@U?$pair@QBDPAVIConsole_Command@@@stlp_std@@@priv@2@@priv@1@ABQAD@Z ENDP ; stlp_std::map<char const *,IConsole_Command *,CConsole::str_pred,xalloc<stlp_std::pair<char const *,IConsole_Command *> > >::lower_bound<char *>
; Function compile flags: /Ogtpy
_TEXT	ENDS
;	COMDAT ??$find@PAD@?$map@PBDPAVIConsole_Command@@Ustr_pred@CConsole@@V?$xalloc@U?$pair@PBDPAVIConsole_Command@@@stlp_std@@@@@stlp_std@@QAE?AU?$_Rb_tree_iterator@U?$pair@QBDPAVIConsole_Command@@@stlp_std@@U?$_MapTraitsT@U?$pair@QBDPAVIConsole_Command@@@stlp_std@@@priv@2@@priv@1@ABQAD@Z
_TEXT	SEGMENT
??$find@PAD@?$map@PBDPAVIConsole_Command@@Ustr_pred@CConsole@@V?$xalloc@U?$pair@PBDPAVIConsole_Command@@@stlp_std@@@@@stlp_std@@QAE?AU?$_Rb_tree_iterator@U?$pair@QBDPAVIConsole_Command@@@stlp_std@@U?$_MapTraitsT@U?$pair@QBDPAVIConsole_Command@@@stlp_std@@@priv@2@@priv@1@ABQAD@Z PROC ; stlp_std::map<char const *,IConsole_Command *,CConsole::str_pred,xalloc<stlp_std::pair<char const *,IConsole_Command *> > >::find<char *>, COMDAT
; _this$ = eax
; ___$ReturnUdt$ = esi
; ___x$ = edi

; 205  :   iterator find(const _KT& __x) { return _M_t.find(__x); }

	push	eax
	call	??$_M_find@PAD@?$_Rb_tree@PBDUstr_pred@CConsole@@U?$pair@QBDPAVIConsole_Command@@@stlp_std@@U?$_Select1st@U?$pair@QBDPAVIConsole_Command@@@stlp_std@@@priv@4@U?$_MapTraitsT@U?$pair@QBDPAVIConsole_Command@@@stlp_std@@@64@V?$xalloc@U?$pair@PBDPAVIConsole_Command@@@stlp_std@@@@@priv@stlp_std@@ABEPAU_Rb_tree_node_base@12@ABQAD@Z ; stlp_std::priv::_Rb_tree<char const *,CConsole::str_pred,stlp_std::pair<char const * const,IConsole_Command *>,stlp_std::priv::_Select1st<stlp_std::pair<char const * const,IConsole_Command *> >,stlp_std::priv::_MapTraitsT<stlp_std::pair<char const * const,IConsole_Command *> >,xalloc<stlp_std::pair<char const *,IConsole_Command *> > >::_M_find<char *>
	mov	DWORD PTR [esi], eax
	mov	eax, esi
	ret	0
??$find@PAD@?$map@PBDPAVIConsole_Command@@Ustr_pred@CConsole@@V?$xalloc@U?$pair@PBDPAVIConsole_Command@@@stlp_std@@@@@stlp_std@@QAE?AU?$_Rb_tree_iterator@U?$pair@QBDPAVIConsole_Command@@@stlp_std@@U?$_MapTraitsT@U?$pair@QBDPAVIConsole_Command@@@stlp_std@@@priv@2@@priv@1@ABQAD@Z ENDP ; stlp_std::map<char const *,IConsole_Command *,CConsole::str_pred,xalloc<stlp_std::pair<char const *,IConsole_Command *> > >::find<char *>
; Function compile flags: /Ogtpy
_TEXT	ENDS
;	COMDAT ??$find@PBD@?$map@PBDPAVIConsole_Command@@Ustr_pred@CConsole@@V?$xalloc@U?$pair@PBDPAVIConsole_Command@@@stlp_std@@@@@stlp_std@@QAE?AU?$_Rb_tree_iterator@U?$pair@QBDPAVIConsole_Command@@@stlp_std@@U?$_MapTraitsT@U?$pair@QBDPAVIConsole_Command@@@stlp_std@@@priv@2@@priv@1@ABQBD@Z
_TEXT	SEGMENT
??$find@PBD@?$map@PBDPAVIConsole_Command@@Ustr_pred@CConsole@@V?$xalloc@U?$pair@PBDPAVIConsole_Command@@@stlp_std@@@@@stlp_std@@QAE?AU?$_Rb_tree_iterator@U?$pair@QBDPAVIConsole_Command@@@stlp_std@@U?$_MapTraitsT@U?$pair@QBDPAVIConsole_Command@@@stlp_std@@@priv@2@@priv@1@ABQBD@Z PROC ; stlp_std::map<char const *,IConsole_Command *,CConsole::str_pred,xalloc<stlp_std::pair<char const *,IConsole_Command *> > >::find<char const *>, COMDAT
; _this$ = eax
; ___$ReturnUdt$ = esi
; ___x$ = edi

; 205  :   iterator find(const _KT& __x) { return _M_t.find(__x); }

	push	eax
	call	??$_M_find@PBD@?$_Rb_tree@PBDUstr_pred@CConsole@@U?$pair@QBDPAVIConsole_Command@@@stlp_std@@U?$_Select1st@U?$pair@QBDPAVIConsole_Command@@@stlp_std@@@priv@4@U?$_MapTraitsT@U?$pair@QBDPAVIConsole_Command@@@stlp_std@@@64@V?$xalloc@U?$pair@PBDPAVIConsole_Command@@@stlp_std@@@@@priv@stlp_std@@ABEPAU_Rb_tree_node_base@12@ABQBD@Z ; stlp_std::priv::_Rb_tree<char const *,CConsole::str_pred,stlp_std::pair<char const * const,IConsole_Command *>,stlp_std::priv::_Select1st<stlp_std::pair<char const * const,IConsole_Command *> >,stlp_std::priv::_MapTraitsT<stlp_std::pair<char const * const,IConsole_Command *> >,xalloc<stlp_std::pair<char const *,IConsole_Command *> > >::_M_find<char const *>
	mov	DWORD PTR [esi], eax
	mov	eax, esi
	ret	0
??$find@PBD@?$map@PBDPAVIConsole_Command@@Ustr_pred@CConsole@@V?$xalloc@U?$pair@PBDPAVIConsole_Command@@@stlp_std@@@@@stlp_std@@QAE?AU?$_Rb_tree_iterator@U?$pair@QBDPAVIConsole_Command@@@stlp_std@@U?$_MapTraitsT@U?$pair@QBDPAVIConsole_Command@@@stlp_std@@@priv@2@@priv@1@ABQBD@Z ENDP ; stlp_std::map<char const *,IConsole_Command *,CConsole::str_pred,xalloc<stlp_std::pair<char const *,IConsole_Command *> > >::find<char const *>
; Function compile flags: /Ogtpy
; File d:\clearsky\sources\sdk\include\stlport\stl\_vector.h
_TEXT	ENDS
;	COMDAT ??0?$_Vector_base@UTipString@@V?$xalloc@UTipString@@@@@priv@stlp_std@@QAE@ABV?$xalloc@UTipString@@@@@Z
_TEXT	SEGMENT
??0?$_Vector_base@UTipString@@V?$xalloc@UTipString@@@@@priv@stlp_std@@QAE@ABV?$xalloc@UTipString@@@@@Z PROC ; stlp_std::priv::_Vector_base<TipString,xalloc<TipString> >::_Vector_base<TipString,xalloc<TipString> >, COMDAT
; _this$ = esi
; ___a$ = eax

; 67   :     : _M_start(0), _M_finish(0), _M_end_of_storage(__a, 0) {}

	push	0
	push	eax
	lea	ecx, DWORD PTR [esi+8]
	mov	DWORD PTR [esi], 0
	mov	DWORD PTR [esi+4], 0
	call	??0?$_STLP_alloc_proxy@PAUTipString@@U1@V?$xalloc@UTipString@@@@@priv@stlp_std@@QAE@ABV?$xalloc@UTipString@@@@PAUTipString@@@Z ; stlp_std::priv::_STLP_alloc_proxy<TipString *,TipString,xalloc<TipString> >::_STLP_alloc_proxy<TipString *,TipString,xalloc<TipString> >
	mov	eax, esi
	ret	0
??0?$_Vector_base@UTipString@@V?$xalloc@UTipString@@@@@priv@stlp_std@@QAE@ABV?$xalloc@UTipString@@@@@Z ENDP ; stlp_std::priv::_Vector_base<TipString,xalloc<TipString> >::_Vector_base<TipString,xalloc<TipString> >
; Function compile flags: /Ogtpy
_TEXT	ENDS
;	COMDAT ??0?$_Impl_vector@UTipString@@V?$xalloc@UTipString@@@@@priv@stlp_std@@QAE@ABV?$xalloc@UTipString@@@@@Z
_TEXT	SEGMENT
??0?$_Impl_vector@UTipString@@V?$xalloc@UTipString@@@@@priv@stlp_std@@QAE@ABV?$xalloc@UTipString@@@@@Z PROC ; stlp_std::priv::_Impl_vector<TipString,xalloc<TipString> >::_Impl_vector<TipString,xalloc<TipString> >, COMDAT
; _this$ = esi
; ___a$ = eax

; 208  :     : _STLP_PRIV _Vector_base<_Tp, _Alloc>(__a) {}

	push	0
	push	eax
	lea	ecx, DWORD PTR [esi+8]
	mov	DWORD PTR [esi], 0
	mov	DWORD PTR [esi+4], 0
	call	??0?$_STLP_alloc_proxy@PAUTipString@@U1@V?$xalloc@UTipString@@@@@priv@stlp_std@@QAE@ABV?$xalloc@UTipString@@@@PAUTipString@@@Z ; stlp_std::priv::_STLP_alloc_proxy<TipString *,TipString,xalloc<TipString> >::_STLP_alloc_proxy<TipString *,TipString,xalloc<TipString> >
	mov	eax, esi
	ret	0
??0?$_Impl_vector@UTipString@@V?$xalloc@UTipString@@@@@priv@stlp_std@@QAE@ABV?$xalloc@UTipString@@@@@Z ENDP ; stlp_std::priv::_Impl_vector<TipString,xalloc<TipString> >::_Impl_vector<TipString,xalloc<TipString> >
; Function compile flags: /Ogtpy
; File d:\clearsky\sources\sdk\include\stlport\stl\_tree.h
_TEXT	ENDS
;	COMDAT ?erase@?$_Rb_tree@PBDUstr_pred@CConsole@@U?$pair@QBDPAVIConsole_Command@@@stlp_std@@U?$_Select1st@U?$pair@QBDPAVIConsole_Command@@@stlp_std@@@priv@4@U?$_MapTraitsT@U?$pair@QBDPAVIConsole_Command@@@stlp_std@@@64@V?$xalloc@U?$pair@PBDPAVIConsole_Command@@@stlp_std@@@@@priv@stlp_std@@QAEXU?$_Rb_tree_iterator@U?$pair@QBDPAVIConsole_Command@@@stlp_std@@U?$_MapTraitsT@U?$pair@QBDPAVIConsole_Command@@@stlp_std@@@priv@2@@23@@Z
_TEXT	SEGMENT
___pos$ = 8						; size = 4
?erase@?$_Rb_tree@PBDUstr_pred@CConsole@@U?$pair@QBDPAVIConsole_Command@@@stlp_std@@U?$_Select1st@U?$pair@QBDPAVIConsole_Command@@@stlp_std@@@priv@4@U?$_MapTraitsT@U?$pair@QBDPAVIConsole_Command@@@stlp_std@@@64@V?$xalloc@U?$pair@PBDPAVIConsole_Command@@@stlp_std@@@@@priv@stlp_std@@QAEXU?$_Rb_tree_iterator@U?$pair@QBDPAVIConsole_Command@@@stlp_std@@U?$_MapTraitsT@U?$pair@QBDPAVIConsole_Command@@@stlp_std@@@priv@2@@23@@Z PROC ; stlp_std::priv::_Rb_tree<char const *,CConsole::str_pred,stlp_std::pair<char const * const,IConsole_Command *>,stlp_std::priv::_Select1st<stlp_std::pair<char const * const,IConsole_Command *> >,stlp_std::priv::_MapTraitsT<stlp_std::pair<char const * const,IConsole_Command *> >,xalloc<stlp_std::pair<char const *,IConsole_Command *> > >::erase, COMDAT
; _this$ = esi

; 488  :     _Base_ptr __x = _Rb_global_inst::_Rebalance_for_erase(__pos._M_node,
; 489  :                                                           this->_M_header._M_data._M_parent,
; 490  :                                                           this->_M_header._M_data._M_left,
; 491  :                                                           this->_M_header._M_data._M_right);

	lea	ecx, DWORD PTR [esi+4]
	push	edi
	push	ecx
	mov	ecx, DWORD PTR ___pos$[esp+4]
	lea	eax, DWORD PTR [esi+12]
	lea	edx, DWORD PTR [esi+8]
	call	?_Rebalance_for_erase@?$_Rb_global@_N@priv@stlp_std@@SAPAU_Rb_tree_node_base@23@PAU423@AAPAU423@11@Z ; stlp_std::priv::_Rb_global<bool>::_Rebalance_for_erase
	mov	edi, eax

; 492  :     _STLP_STD::_Destroy(&_S_value(__x));

	push	edi
	call	?_S_value@?$_Rb_tree@PBDUstr_pred@CConsole@@U?$pair@QBDPAVIConsole_Command@@@stlp_std@@U?$_Select1st@U?$pair@QBDPAVIConsole_Command@@@stlp_std@@@priv@4@U?$_MapTraitsT@U?$pair@QBDPAVIConsole_Command@@@stlp_std@@@64@V?$xalloc@U?$pair@PBDPAVIConsole_Command@@@stlp_std@@@@@priv@stlp_std@@KAAAU?$pair@QBDPAVIConsole_Command@@@3@PAU_Rb_tree_node_base@23@@Z ; stlp_std::priv::_Rb_tree<char const *,CConsole::str_pred,stlp_std::pair<char const * const,IConsole_Command *>,stlp_std::priv::_Select1st<stlp_std::pair<char const * const,IConsole_Command *> >,stlp_std::priv::_MapTraitsT<stlp_std::pair<char const * const,IConsole_Command *> >,xalloc<stlp_std::pair<char const *,IConsole_Command *> > >::_S_value
	push	eax
	call	??$_Destroy@U?$pair@QBDPAVIConsole_Command@@@stlp_std@@@stlp_std@@YAXPAU?$pair@QBDPAVIConsole_Command@@@0@@Z ; stlp_std::_Destroy<stlp_std::pair<char const * const,IConsole_Command *> >
	add	esp, 12					; 0000000cH

; 493  :     this->_M_header.deallocate(__STATIC_CAST(_Link_type, __x), 1);

	push	1
	push	edi
	mov	ecx, esi
	call	?deallocate@?$xalloc@U?$_Rb_tree_node@U?$pair@QBDPAVIConsole_Command@@@stlp_std@@@priv@stlp_std@@@@QBEXPAU?$_Rb_tree_node@U?$pair@QBDPAVIConsole_Command@@@stlp_std@@@priv@stlp_std@@I@Z ; xalloc<stlp_std::priv::_Rb_tree_node<stlp_std::pair<char const * const,IConsole_Command *> > >::deallocate

; 494  :     --_M_node_count;

	add	DWORD PTR [esi+16], -1
	pop	edi

; 495  :   }

	ret	4
?erase@?$_Rb_tree@PBDUstr_pred@CConsole@@U?$pair@QBDPAVIConsole_Command@@@stlp_std@@U?$_Select1st@U?$pair@QBDPAVIConsole_Command@@@stlp_std@@@priv@4@U?$_MapTraitsT@U?$pair@QBDPAVIConsole_Command@@@stlp_std@@@64@V?$xalloc@U?$pair@PBDPAVIConsole_Command@@@stlp_std@@@@@priv@stlp_std@@QAEXU?$_Rb_tree_iterator@U?$pair@QBDPAVIConsole_Command@@@stlp_std@@U?$_MapTraitsT@U?$pair@QBDPAVIConsole_Command@@@stlp_std@@@priv@2@@23@@Z ENDP ; stlp_std::priv::_Rb_tree<char const *,CConsole::str_pred,stlp_std::pair<char const * const,IConsole_Command *>,stlp_std::priv::_Select1st<stlp_std::pair<char const * const,IConsole_Command *> >,stlp_std::priv::_MapTraitsT<stlp_std::pair<char const * const,IConsole_Command *> >,xalloc<stlp_std::pair<char const *,IConsole_Command *> > >::erase
; Function compile flags: /Ogtpy
_TEXT	ENDS
;	COMDAT ??E?$_Rb_tree_iterator@U?$pair@QBDPAVIConsole_Command@@@stlp_std@@U?$_MapTraitsT@U?$pair@QBDPAVIConsole_Command@@@stlp_std@@@priv@2@@priv@stlp_std@@QAEAAU012@XZ
_TEXT	SEGMENT
??E?$_Rb_tree_iterator@U?$pair@QBDPAVIConsole_Command@@@stlp_std@@U?$_MapTraitsT@U?$pair@QBDPAVIConsole_Command@@@stlp_std@@@priv@2@@priv@stlp_std@@QAEAAU012@XZ PROC ; stlp_std::priv::_Rb_tree_iterator<stlp_std::pair<char const * const,IConsole_Command *>,stlp_std::priv::_MapTraitsT<stlp_std::pair<char const * const,IConsole_Command *> > >::operator++, COMDAT
; _this$ = eax

; 177  :     _M_node = _Rb_global_inst::_M_increment(_M_node);

	mov	ecx, DWORD PTR [eax]
	mov	edx, DWORD PTR [ecx+12]
	test	edx, edx
	je	SHORT $LN7@operator@42
	mov	ecx, DWORD PTR [edx+8]
	test	ecx, ecx
	je	SHORT $LN10@operator@42
$LL11@operator@42:
	mov	edx, ecx
	mov	ecx, DWORD PTR [edx+8]
	test	ecx, ecx
	jne	SHORT $LL11@operator@42
$LN10@operator@42:
	mov	DWORD PTR [eax], edx

; 178  :     return *this;
; 179  :   }

	ret	0

; 177  :     _M_node = _Rb_global_inst::_M_increment(_M_node);

$LN7@operator@42:
	mov	edx, DWORD PTR [ecx+4]
	cmp	ecx, DWORD PTR [edx+12]
	jne	SHORT $LN4@operator@42
$LL5@operator@42:
	mov	ecx, edx
	mov	edx, DWORD PTR [edx+4]
	cmp	ecx, DWORD PTR [edx+12]
	je	SHORT $LL5@operator@42
$LN4@operator@42:
	cmp	DWORD PTR [ecx+12], edx
	jne	SHORT $LN10@operator@42
	mov	DWORD PTR [eax], ecx

; 178  :     return *this;
; 179  :   }

	ret	0
??E?$_Rb_tree_iterator@U?$pair@QBDPAVIConsole_Command@@@stlp_std@@U?$_MapTraitsT@U?$pair@QBDPAVIConsole_Command@@@stlp_std@@@priv@2@@priv@stlp_std@@QAEAAU012@XZ ENDP ; stlp_std::priv::_Rb_tree_iterator<stlp_std::pair<char const * const,IConsole_Command *>,stlp_std::priv::_MapTraitsT<stlp_std::pair<char const * const,IConsole_Command *> > >::operator++
; Function compile flags: /Ogtpy
; File d:\clearsky\sources\sdk\include\stlport\stl\_map.h
_TEXT	ENDS
;	COMDAT ?erase@?$map@PBDPAVIConsole_Command@@Ustr_pred@CConsole@@V?$xalloc@U?$pair@PBDPAVIConsole_Command@@@stlp_std@@@@@stlp_std@@QAEXU?$_Rb_tree_iterator@U?$pair@QBDPAVIConsole_Command@@@stlp_std@@U?$_MapTraitsT@U?$pair@QBDPAVIConsole_Command@@@stlp_std@@@priv@2@@priv@2@@Z
_TEXT	SEGMENT
___pos$ = 8						; size = 4
?erase@?$map@PBDPAVIConsole_Command@@Ustr_pred@CConsole@@V?$xalloc@U?$pair@PBDPAVIConsole_Command@@@stlp_std@@@@@stlp_std@@QAEXU?$_Rb_tree_iterator@U?$pair@QBDPAVIConsole_Command@@@stlp_std@@U?$_MapTraitsT@U?$pair@QBDPAVIConsole_Command@@@stlp_std@@@priv@2@@priv@2@@Z PROC ; stlp_std::map<char const *,IConsole_Command *,CConsole::str_pred,xalloc<stlp_std::pair<char const *,IConsole_Command *> > >::erase, COMDAT
; _this$ = esi

; 198  :   void erase(iterator __pos) { _M_t.erase(__pos); }

	lea	ecx, DWORD PTR [esi+4]
	push	edi
	push	ecx
	mov	ecx, DWORD PTR ___pos$[esp+4]
	lea	eax, DWORD PTR [esi+12]
	lea	edx, DWORD PTR [esi+8]
	call	?_Rebalance_for_erase@?$_Rb_global@_N@priv@stlp_std@@SAPAU_Rb_tree_node_base@23@PAU423@AAPAU423@11@Z ; stlp_std::priv::_Rb_global<bool>::_Rebalance_for_erase
	mov	edi, eax
	push	edi
	call	?_S_value@?$_Rb_tree@PBDUstr_pred@CConsole@@U?$pair@QBDPAVIConsole_Command@@@stlp_std@@U?$_Select1st@U?$pair@QBDPAVIConsole_Command@@@stlp_std@@@priv@4@U?$_MapTraitsT@U?$pair@QBDPAVIConsole_Command@@@stlp_std@@@64@V?$xalloc@U?$pair@PBDPAVIConsole_Command@@@stlp_std@@@@@priv@stlp_std@@KAAAU?$pair@QBDPAVIConsole_Command@@@3@PAU_Rb_tree_node_base@23@@Z ; stlp_std::priv::_Rb_tree<char const *,CConsole::str_pred,stlp_std::pair<char const * const,IConsole_Command *>,stlp_std::priv::_Select1st<stlp_std::pair<char const * const,IConsole_Command *> >,stlp_std::priv::_MapTraitsT<stlp_std::pair<char const * const,IConsole_Command *> >,xalloc<stlp_std::pair<char const *,IConsole_Command *> > >::_S_value
	push	eax
	call	??$_Destroy@U?$pair@QBDPAVIConsole_Command@@@stlp_std@@@stlp_std@@YAXPAU?$pair@QBDPAVIConsole_Command@@@0@@Z ; stlp_std::_Destroy<stlp_std::pair<char const * const,IConsole_Command *> >
	add	esp, 12					; 0000000cH
	push	1
	push	edi
	mov	ecx, esi
	call	?deallocate@?$xalloc@U?$_Rb_tree_node@U?$pair@QBDPAVIConsole_Command@@@stlp_std@@@priv@stlp_std@@@@QBEXPAU?$_Rb_tree_node@U?$pair@QBDPAVIConsole_Command@@@stlp_std@@@priv@stlp_std@@I@Z ; xalloc<stlp_std::priv::_Rb_tree_node<stlp_std::pair<char const * const,IConsole_Command *> > >::deallocate
	add	DWORD PTR [esi+16], -1
	pop	edi
	ret	4
?erase@?$map@PBDPAVIConsole_Command@@Ustr_pred@CConsole@@V?$xalloc@U?$pair@PBDPAVIConsole_Command@@@stlp_std@@@@@stlp_std@@QAEXU?$_Rb_tree_iterator@U?$pair@QBDPAVIConsole_Command@@@stlp_std@@U?$_MapTraitsT@U?$pair@QBDPAVIConsole_Command@@@stlp_std@@@priv@2@@priv@2@@Z ENDP ; stlp_std::map<char const *,IConsole_Command *,CConsole::str_pred,xalloc<stlp_std::pair<char const *,IConsole_Command *> > >::erase
; Function compile flags: /Ogtpy
; File d:\clearsky\sources\sdk\include\stlport\stl\pointers\_vector.h
_TEXT	ENDS
;	COMDAT ?rbegin@?$vector@Vshared_str@@V?$xalloc@Vshared_str@@@@@stlp_std@@QAE?AV?$reverse_iterator@PAVshared_str@@@2@XZ
_TEXT	SEGMENT
?rbegin@?$vector@Vshared_str@@V?$xalloc@Vshared_str@@@@@stlp_std@@QAE?AV?$reverse_iterator@PAVshared_str@@@2@XZ PROC ; stlp_std::vector<shared_str,xalloc<shared_str> >::rbegin, COMDAT
; _this$ = ecx
; ___$ReturnUdt$ = esi

; 84   :   reverse_iterator rbegin()              { return reverse_iterator(end()); }

	call	?end@?$vector@Vshared_str@@V?$xalloc@Vshared_str@@@@@stlp_std@@QAEPAVshared_str@@XZ ; stlp_std::vector<shared_str,xalloc<shared_str> >::end
	mov	DWORD PTR [esi], eax
	mov	eax, esi
	ret	0
?rbegin@?$vector@Vshared_str@@V?$xalloc@Vshared_str@@@@@stlp_std@@QAE?AV?$reverse_iterator@PAVshared_str@@@2@XZ ENDP ; stlp_std::vector<shared_str,xalloc<shared_str> >::rbegin
_TEXT	ENDS
PUBLIC	?find_next_cmd@CConsole@@IAEPAVIConsole_Command@@PBDAAVshared_str@@@Z ; CConsole::find_next_cmd
; Function compile flags: /Ogtpy
; File d:\clearsky\sources\engine\xrengine\xr_ioconsole.cpp
;	COMDAT ?find_next_cmd@CConsole@@IAEPAVIConsole_Command@@PBDAAVshared_str@@@Z
_TEXT	SEGMENT
_STRCONCAT_tupples_unique_identifier$132825 = -60	; size = 52
_cc$132845 = -8						; size = 4
_t2$ = -8						; size = 4
_this$ = -4						; size = 4
_in_str$ = 8						; size = 4
_b_ra$ = 11						; size = 1
_out_str$ = 12						; size = 4
?find_next_cmd@CConsole@@IAEPAVIConsole_Command@@PBDAAVshared_str@@@Z PROC ; CConsole::find_next_cmd, COMDAT
; _this$ = ecx

; 691  : {

	push	ebp
	mov	ebp, esp
	sub	esp, 60					; 0000003cH
	push	ebx
	push	esi

; 692  : 	LPCSTR radmin_cmd_name = "ra ";
; 693  : 	bool b_ra  = (in_str == strstr( in_str, radmin_cmd_name ) );

	mov	esi, DWORD PTR _in_str$[ebp]
	push	edi
	push	OFFSET ??_C@_03MDBMMNEB@ra?5?$AA@
	push	esi
	mov	DWORD PTR _this$[ebp], ecx
	call	DWORD PTR __imp__strstr
	add	esp, 8
	cmp	esi, eax
	sete	al

; 694  : 	u32 offset = (b_ra)? xr_strlen( radmin_cmd_name ) : 0;

	xor	ebx, ebx
	cmp	al, bl
	mov	BYTE PTR _b_ra$[ebp], al
	je	SHORT $LN7@find_next_
	mov	eax, OFFSET ??_C@_03MDBMMNEB@ra?5?$AA@
	lea	edx, DWORD PTR [eax+1]
$LL96@find_next_:
	mov	cl, BYTE PTR [eax]
	add	eax, 1
	cmp	cl, bl
	jne	SHORT $LL96@find_next_
	sub	eax, edx
	mov	edi, eax
	jmp	SHORT $LN8@find_next_
$LN7@find_next_:
	xor	edi, edi
$LN8@find_next_:

; 695  : 
; 696  : 	LPSTR t2;
; 697  : 	STRCONCAT( t2, in_str + offset, " " );

	lea	edx, DWORD PTR [edi+esi]
	lea	eax, DWORD PTR _STRCONCAT_tupples_unique_identifier$132825[ebp]
	mov	ecx, 5
$LL16@find_next_:
	mov	DWORD PTR [eax], ebx
	mov	DWORD PTR [eax+4], ebx
	add	eax, 8
	sub	ecx, 1
	jns	SHORT $LL16@find_next_
	cmp	edx, ebx
	mov	DWORD PTR _STRCONCAT_tupples_unique_identifier$132825[ebp+48], 2
	je	SHORT $LN30@find_next_
	mov	eax, edx
	lea	esi, DWORD PTR [eax+1]
	npad	3
$LL97@find_next_:
	mov	cl, BYTE PTR [eax]
	add	eax, 1
	cmp	cl, bl
	jne	SHORT $LL97@find_next_
	sub	eax, esi
	jmp	SHORT $LN31@find_next_
$LN30@find_next_:
	xor	eax, eax
$LN31@find_next_:
	mov	ecx, 1
	mov	DWORD PTR _STRCONCAT_tupples_unique_identifier$132825[ebp+4], eax
	mov	eax, OFFSET ??_C@_01CLKCMJKC@?5?$AA@
	mov	DWORD PTR _STRCONCAT_tupples_unique_identifier$132825[ebp+12], ecx
	lea	ecx, DWORD PTR _STRCONCAT_tupples_unique_identifier$132825[ebp]
	mov	DWORD PTR _STRCONCAT_tupples_unique_identifier$132825[ebp], edx
	mov	DWORD PTR _STRCONCAT_tupples_unique_identifier$132825[ebp+8], eax
	call	DWORD PTR __imp_?size@string_tupples@detail@core@xray@@QBEIXZ
	mov	esi, eax
	push	esi
	call	DWORD PTR __imp_?check_stack_overflow@detail@core@xray@@YAXI@Z
	add	esp, 4
	mov	eax, esi
	call	__alloca_probe_16
	mov	eax, esp
	push	eax
	lea	ecx, DWORD PTR _STRCONCAT_tupples_unique_identifier$132825[ebp]
	mov	DWORD PTR _t2$[ebp], eax
	call	DWORD PTR __imp_?concat@string_tupples@detail@core@xray@@QBEXQBD@Z

; 698  : 
; 699  : 	vecCMD_IT it = Commands.lower_bound( t2 );

	mov	esi, DWORD PTR _this$[ebp]
	add	esi, 176				; 000000b0H
	lea	ebx, DWORD PTR _t2$[ebp]
	mov	ecx, esi
	call	??$_M_lower_bound@PAD@?$_Rb_tree@PBDUstr_pred@CConsole@@U?$pair@QBDPAVIConsole_Command@@@stlp_std@@U?$_Select1st@U?$pair@QBDPAVIConsole_Command@@@stlp_std@@@priv@4@U?$_MapTraitsT@U?$pair@QBDPAVIConsole_Command@@@stlp_std@@@64@V?$xalloc@U?$pair@PBDPAVIConsole_Command@@@stlp_std@@@@@priv@stlp_std@@ABEPAU_Rb_tree_node_base@12@ABQAD@Z ; stlp_std::priv::_Rb_tree<char const *,CConsole::str_pred,stlp_std::pair<char const * const,IConsole_Command *>,stlp_std::priv::_Select1st<stlp_std::pair<char const * const,IConsole_Command *> >,stlp_std::priv::_MapTraitsT<stlp_std::pair<char const * const,IConsole_Command *> >,xalloc<stlp_std::pair<char const *,IConsole_Command *> > >::_M_lower_bound<char *>

; 700  : 	if ( it != Commands.end() )

	cmp	eax, esi
	je	$LN1@find_next_

; 701  : 	{
; 702  : 		IConsole_Command* cc = it->second;

	mov	eax, DWORD PTR [eax+20]

; 703  : 		LPCSTR name_cmd      = cc->Name();

	mov	ebx, DWORD PTR [eax+4]
	mov	DWORD PTR _cc$132845[ebp], eax

; 704  : 		u32    name_cmd_size = xr_strlen( name_cmd );

	mov	eax, ebx
	lea	edx, DWORD PTR [eax+1]
	npad	7
$LL98@find_next_:
	mov	cl, BYTE PTR [eax]
	add	eax, 1
	test	cl, cl
	jne	SHORT $LL98@find_next_
	sub	eax, edx

; 705  : 		PSTR   new_str       = (PSTR)_alloca( (offset + name_cmd_size + 2) * sizeof(char) );

	lea	esi, DWORD PTR [eax+edi+2]
	mov	eax, esi
	call	__alloca_probe_16

; 706  : 
; 707  : 		xr_strcpy( new_str, offset + name_cmd_size + 2, (b_ra)? radmin_cmd_name : "" );

	cmp	BYTE PTR _b_ra$[ebp], 0
	mov	edi, esp
	mov	eax, OFFSET ??_C@_03MDBMMNEB@ra?5?$AA@
	jne	SHORT $LN10@find_next_
	mov	eax, OFFSET ??_C@_00CNPNBAHC@?$AA@
$LN10@find_next_:
	push	esi
	push	eax
	push	esi
	push	edi
	call	DWORD PTR __imp__strncpy_s

; 708  : 		xr_strcat( new_str, offset + name_cmd_size + 2, name_cmd );

	push	esi
	mov	ecx, ebx
	mov	edx, edi
	call	?xr_strcat@@YAHPADIPBD@Z		; xr_strcat

; 709  : 
; 710  : 		out_str._set( (LPCSTR)new_str );

	mov	eax, DWORD PTR __imp_?g_pStringContainer@@3PAVstr_container@@A
	mov	ecx, DWORD PTR [eax]
	add	esp, 20					; 00000014H
	push	edi
	call	DWORD PTR __imp_?dock@str_container@@QAEPAUstr_value@@PBD@Z
	test	eax, eax
	je	SHORT $LN87@find_next_
	add	DWORD PTR [eax], 1
$LN87@find_next_:
	mov	edx, DWORD PTR _out_str$[ebp]
	mov	ecx, DWORD PTR [edx]
	test	ecx, ecx
	je	SHORT $LN90@find_next_
	add	DWORD PTR [ecx], -1
	mov	ecx, DWORD PTR [edx]
	cmp	DWORD PTR [ecx], 0
	jne	SHORT $LN90@find_next_
	mov	DWORD PTR [edx], 0
$LN90@find_next_:
	mov	DWORD PTR [edx], eax

; 711  : 		return cc;

	mov	eax, DWORD PTR _cc$132845[ebp]

; 714  : }

	lea	esp, DWORD PTR [ebp-72]
	pop	edi
	pop	esi
	pop	ebx
	mov	esp, ebp
	pop	ebp
	ret	8
$LN1@find_next_:

; 712  : 	}
; 713  : 	return NULL;

	xor	eax, eax

; 714  : }

	lea	esp, DWORD PTR [ebp-72]
	pop	edi
	pop	esi
	pop	ebx
	mov	esp, ebp
	pop	ebp
	ret	8
?find_next_cmd@CConsole@@IAEPAVIConsole_Command@@PBDAAVshared_str@@@Z ENDP ; CConsole::find_next_cmd
_TEXT	ENDS
PUBLIC	?SelectCommand@CConsole@@QAEXXZ			; CConsole::SelectCommand
; Function compile flags: /Ogtpy
;	COMDAT ?SelectCommand@CConsole@@QAEXXZ
_TEXT	SEGMENT
?SelectCommand@CConsole@@QAEXXZ PROC			; CConsole::SelectCommand, COMDAT
; _this$ = ecx

; 662  : {

	push	esi
	mov	esi, ecx

; 663  : 	if ( m_cmd_history.empty() )

	mov	eax, DWORD PTR [esi+40]
	cmp	eax, DWORD PTR [esi+44]
	lea	ecx, DWORD PTR [esi+40]
	je	SHORT $LN35@SelectComm

; 664  : 	{
; 665  : 		return;
; 666  : 	}
; 667  : 	VERIFY( 0 <= m_cmd_history_idx && m_cmd_history_idx < (int)m_cmd_history.size() );
; 668  : 		
; 669  : 	vecHistory::reverse_iterator	it_rb = m_cmd_history.rbegin() + m_cmd_history_idx;

	call	?end@?$vector@Vshared_str@@V?$xalloc@Vshared_str@@@@@stlp_std@@QAEPAVshared_str@@XZ ; stlp_std::vector<shared_str,xalloc<shared_str> >::end

; 670  : 	ec().set_edit( (*it_rb).c_str() );

	mov	ecx, DWORD PTR [esi+56]
	lea	edx, DWORD PTR [ecx*4+4]
	sub	eax, edx
	mov	eax, DWORD PTR [eax]
	test	eax, eax
	je	SHORT $LN29@SelectComm
	add	eax, 16					; 00000010H
	jmp	SHORT $LN30@SelectComm
$LN29@SelectComm:
	xor	eax, eax
$LN30@SelectComm:
	mov	ecx, DWORD PTR [esi+200]
	push	eax
	add	ecx, 4
	call	?set_edit@line_edit_control@text_editor@@QAEXPBD@Z ; text_editor::line_edit_control::set_edit

; 671  : 	reset_selected_tip();

	mov	DWORD PTR [esi+96], -1
	mov	DWORD PTR [esi+100], 0
	mov	BYTE PTR [esi+36], 0
$LN35@SelectComm:
	pop	esi

; 672  : }

	ret	0
?SelectCommand@CConsole@@QAEXXZ ENDP			; CConsole::SelectCommand
_TEXT	ENDS
PUBLIC	__real@41600000
PUBLIC	__real@40a00000
PUBLIC	?DrawBackgrounds@CConsole@@IAEX_N@Z		; CConsole::DrawBackgrounds
;	COMDAT __real@41600000
; File d:\clearsky\sources\sdk\include\stlport\stl\_vector.h
CONST	SEGMENT
__real@41600000 DD 041600000r			; 14
CONST	ENDS
;	COMDAT __real@40a00000
CONST	SEGMENT
__real@40a00000 DD 040a00000r			; 5
; Function compile flags: /Ogtpy
; File d:\clearsky\sources\engine\xrengine\xr_ioconsole.cpp
CONST	ENDS
;	COMDAT ?DrawBackgrounds@CConsole@@IAEX_N@Z
_TEXT	SEGMENT
_rb$132684 = -60					; size = 16
_r$132664 = -60						; size = 16
_sr$ = -60						; size = 16
_r$ = -60						; size = 16
_rs$132685 = -44					; size = 16
_pr$ = -44						; size = 16
tv809 = -28						; size = 4
tv807 = -28						; size = 4
tv770 = -28						; size = 4
_ite$132666 = -28					; size = 4
_select_y$ = -28					; size = 4
_tips_h$ = -28						; size = 4
tv763 = -24						; size = 4
tv741 = -24						; size = 4
_select_h$ = -24					; size = 4
_list_w$ = -24						; size = 4
_ioc_w$ = -20						; size = 4
tv524 = -16						; size = 4
tv754 = -12						; size = 4
tv202 = -12						; size = 4
_i$132667 = -8						; size = 4
_cur_cmd_w$ = -8					; size = 4
_font_h$ = -4						; size = 4
_max_str$ = -4						; size = 4
tv725 = 8						; size = 4
tv688 = 8						; size = 4
tv597 = 8						; size = 4
_w1$ = 8						; size = 4
_ky$ = 8						; size = 4
_bGame$ = 8						; size = 1
?DrawBackgrounds@CConsole@@IAEX_N@Z PROC		; CConsole::DrawBackgrounds, COMDAT
; _this$ = ecx

; 367  : {

	push	ebp
	mov	ebp, esp
	sub	esp, 60					; 0000003cH

; 368  : 	float ky = (bGame)? 0.5f : 1.0f;

	cmp	BYTE PTR _bGame$[ebp], 0
	push	ebx
	push	esi
	push	edi
	mov	edi, ecx
	je	SHORT $LN24@DrawBackgr
	movss	xmm0, DWORD PTR __real@3f000000
	jmp	SHORT $LN143@DrawBackgr
$LN24@DrawBackgr:
	movss	xmm0, DWORD PTR __real@3f800000
$LN143@DrawBackgr:

; 369  : 
; 370  : 	Frect r;
; 371  : 	r.set( 0.0f, 0.0f, float(Device.dwWidth), ky * float(Device.dwHeight) );

	mov	eax, DWORD PTR ?Device@@3VCRenderDevice@@A+4
	fild	DWORD PTR ?Device@@3VCRenderDevice@@A+4
	test	eax, eax
	movss	DWORD PTR _ky$[ebp], xmm0
	xorps	xmm0, xmm0
	movss	DWORD PTR _r$[ebp], xmm0
	movss	DWORD PTR _r$[ebp+4], xmm0
	jge	SHORT $LN137@DrawBackgr
	fadd	DWORD PTR __real@4f800000
$LN137@DrawBackgr:
	mov	ecx, DWORD PTR ?Device@@3VCRenderDevice@@A+8
	fstp	DWORD PTR _r$[ebp+8]
	test	ecx, ecx
	fild	DWORD PTR ?Device@@3VCRenderDevice@@A+8
	jge	SHORT $LN138@DrawBackgr
	fadd	DWORD PTR __real@4f800000
$LN138@DrawBackgr:

; 372  : 
; 373  : 	UIRender->SetShader( **m_hShader_back );

	mov	edx, DWORD PTR __imp_?UIRender@@3PAVIUIRender@@A
	fmul	DWORD PTR _ky$[ebp]
	mov	ecx, DWORD PTR [edx]
	mov	edx, DWORD PTR [edi+24]
	mov	eax, DWORD PTR [ecx]
	fstp	DWORD PTR _r$[ebp+12]
	mov	edx, DWORD PTR [edx]
	mov	eax, DWORD PTR [eax+8]
	push	edx
	call	eax

; 374  : 	// 6 = back, 12 = tips, (VIEW_TIPS_COUNT+1)*6 = highlight_words, 12 = scroll
; 375  : 	UIRender->StartPrimitive( 6 + 12 + (VIEW_TIPS_COUNT+1)*6 + 12, IUIRender::ptTriList, IUIRender::pttTL );

	mov	ecx, DWORD PTR __imp_?UIRender@@3PAVIUIRender@@A
	mov	ecx, DWORD PTR [ecx]
	mov	edx, DWORD PTR [ecx]
	mov	eax, DWORD PTR [edx+28]
	push	0
	push	0
	push	120					; 00000078H
	call	eax

; 376  : 
; 377  : 	DrawRect( r, back_color );

	mov	ecx, DWORD PTR _back_color
	push	ecx
	lea	edx, DWORD PTR _r$[ebp]
	push	edx
	mov	ecx, edi
	call	?DrawRect@CConsole@@IAEXABU?$_rect@M@@I@Z ; CConsole::DrawRect

; 378  : 
; 379  : 	if ( m_tips.size() == 0 || m_disable_tips )

	lea	ebx, DWORD PTR [edi+76]
	mov	ecx, ebx
	call	?size@?$_Impl_vector@UTipString@@V?$xalloc@UTipString@@@@@priv@stlp_std@@QBEIXZ ; stlp_std::priv::_Impl_vector<TipString,xalloc<TipString> >::size
	test	eax, eax
	je	$LN20@DrawBackgr
	cmp	BYTE PTR [edi+36], 0
	jne	$LN20@DrawBackgr

; 380  : 	{
; 381  : 		UIRender->FlushPrimitive();
; 382  : 		return;
; 383  : 	}
; 384  : 
; 385  : 	LPCSTR max_str = "xxxxx";
; 386  : 	vecTipsEx::iterator itb = m_tips.begin();

	mov	ecx, ebx
	mov	DWORD PTR _max_str$[ebp], OFFSET ??_C@_05HDGBDIJL@xxxxx?$AA@
	call	?begin@?$_Impl_vector@UTipString@@V?$xalloc@UTipString@@@@@priv@stlp_std@@QAEPAUTipString@@XZ ; stlp_std::priv::_Impl_vector<TipString,xalloc<TipString> >::begin

; 387  : 	vecTipsEx::iterator ite = m_tips.end();

	mov	ecx, ebx
	mov	esi, eax
	call	?end@?$_Impl_vector@UTipString@@V?$xalloc@UTipString@@@@@priv@stlp_std@@QAEPAUTipString@@XZ ; stlp_std::priv::_Impl_vector<TipString,xalloc<TipString> >::end
	mov	ebx, eax

; 388  : 	for ( ; itb != ite; ++itb )

	cmp	esi, ebx
	je	SHORT $LN17@DrawBackgr
	npad	2
$LL19@DrawBackgr:

; 389  : 	{
; 390  : 		if ( pFont->SizeOf_( (*itb).text.c_str() ) > pFont->SizeOf_( max_str ) )

	mov	eax, DWORD PTR [esi]
	test	eax, eax
	je	SHORT $LN54@DrawBackgr
	add	eax, 16					; 00000010H
	jmp	SHORT $LN55@DrawBackgr
$LN54@DrawBackgr:
	xor	eax, eax
$LN55@DrawBackgr:
	mov	ecx, DWORD PTR [edi+16]
	push	eax
	call	?SizeOf_@CGameFont@@QAEMPBD@Z		; CGameFont::SizeOf_
	fstp	DWORD PTR tv688[ebp]
	mov	eax, DWORD PTR _max_str$[ebp]
	mov	ecx, DWORD PTR [edi+16]
	push	eax
	call	?SizeOf_@CGameFont@@QAEMPBD@Z		; CGameFont::SizeOf_
	fld	DWORD PTR tv688[ebp]
	fcomip	ST(1)
	fstp	ST(0)
	jbe	SHORT $LN18@DrawBackgr

; 391  : 		{
; 392  : 			max_str = (*itb).text.c_str();

	mov	eax, DWORD PTR [esi]
	test	eax, eax
	je	SHORT $LN58@DrawBackgr
	add	eax, 16					; 00000010H
	mov	DWORD PTR _max_str$[ebp], eax
	jmp	SHORT $LN18@DrawBackgr
$LN58@DrawBackgr:
	mov	DWORD PTR _max_str$[ebp], 0
$LN18@DrawBackgr:

; 388  : 	for ( ; itb != ite; ++itb )

	add	esi, 12					; 0000000cH
	cmp	esi, ebx
	jne	SHORT $LL19@DrawBackgr
$LN17@DrawBackgr:

; 393  : 		}
; 394  : 	}
; 395  : 
; 396  : 	float w1        = pFont->SizeOf_( "_" );

	mov	ecx, DWORD PTR [edi+16]
	push	OFFSET ??_C@_01IDAFKMJL@_?$AA@
	call	?SizeOf_@CGameFont@@QAEMPBD@Z		; CGameFont::SizeOf_
	fstp	DWORD PTR _w1$[ebp]

; 397  : 	float ioc_w     = pFont->SizeOf_( ioc_prompt ) - w1;

	mov	ecx, DWORD PTR [edi+16]
	push	OFFSET ??_C@_04IMEJGNKP@?$DO?$DO?$DO?5?$AA@
	call	?SizeOf_@CGameFont@@QAEMPBD@Z		; CGameFont::SizeOf_
	fsub	DWORD PTR _w1$[ebp]

; 398  : 	float cur_cmd_w = pFont->SizeOf_( m_cur_cmd.c_str() );

	mov	eax, DWORD PTR [edi+92]
	test	eax, eax
	fstp	DWORD PTR _ioc_w$[ebp]
	je	SHORT $LN62@DrawBackgr
	add	eax, 16					; 00000010H
	jmp	SHORT $LN63@DrawBackgr
$LN62@DrawBackgr:
	xor	eax, eax
$LN63@DrawBackgr:
	mov	ecx, DWORD PTR [edi+16]
	push	eax
	call	?SizeOf_@CGameFont@@QAEMPBD@Z		; CGameFont::SizeOf_
	fst	DWORD PTR _cur_cmd_w$[ebp]

; 399  : 	cur_cmd_w		+= (cur_cmd_w > 0.01f) ? w1 : 0.0f;

	fld	DWORD PTR __real@3c23d70a
	fxch	ST(1)
	fcomip	ST(1)
	fstp	ST(0)
	jbe	SHORT $LN26@DrawBackgr
	movss	xmm0, DWORD PTR _w1$[ebp]
	jmp	SHORT $LN27@DrawBackgr
$LN26@DrawBackgr:
	xorps	xmm0, xmm0
$LN27@DrawBackgr:

; 400  : 
; 401  : 	float list_w    = pFont->SizeOf_( max_str ) + 2.0f * w1;

	fld	DWORD PTR _w1$[ebp]
	mov	ecx, DWORD PTR _max_str$[ebp]
	addss	xmm0, DWORD PTR _cur_cmd_w$[ebp]
	fadd	ST(0), ST(0)
	push	ecx
	mov	ecx, DWORD PTR [edi+16]
	fstp	DWORD PTR tv524[ebp]
	movss	DWORD PTR _cur_cmd_w$[ebp], xmm0
	call	?SizeOf_@CGameFont@@QAEMPBD@Z		; CGameFont::SizeOf_
	fadd	DWORD PTR tv524[ebp]

; 402  : 
; 403  : 	float font_h    = pFont->CurrentHeight_();

	mov	eax, DWORD PTR [edi+16]
	movss	xmm0, DWORD PTR [eax+40]
	mulss	xmm0, DWORD PTR [eax+24]
	fstp	DWORD PTR _list_w$[ebp]

; 404  : 	float tips_h    = _min( m_tips.size(), (u32)VIEW_TIPS_COUNT ) * font_h;

	lea	esi, DWORD PTR [edi+76]
	mov	ecx, esi
	movss	DWORD PTR _font_h$[ebp], xmm0
	call	?size@?$_Impl_vector@UTipString@@V?$xalloc@UTipString@@@@@priv@stlp_std@@QBEIXZ ; stlp_std::priv::_Impl_vector<TipString,xalloc<TipString> >::size
	cmp	eax, 14					; 0000000eH
	jb	SHORT $LN75@DrawBackgr
	mov	eax, 14					; 0000000eH
$LN75@DrawBackgr:
	test	eax, eax
	mov	DWORD PTR tv770[ebp], eax
	fild	DWORD PTR tv770[ebp]
	jge	SHORT $LN139@DrawBackgr
	fadd	DWORD PTR __real@4f800000
$LN139@DrawBackgr:
	fmul	DWORD PTR _font_h$[ebp]

; 405  : 	tips_h			+= ( m_tips.size() > 0 )? 5.0f : 0.0f;

	mov	ecx, esi
	fstp	DWORD PTR _tips_h$[ebp]
	call	?size@?$_Impl_vector@UTipString@@V?$xalloc@UTipString@@@@@priv@stlp_std@@QBEIXZ ; stlp_std::priv::_Impl_vector<TipString,xalloc<TipString> >::size
	test	eax, eax
	jbe	SHORT $LN28@DrawBackgr
	movss	xmm0, DWORD PTR __real@40a00000
	movss	DWORD PTR tv202[ebp], xmm0
	xorps	xmm0, xmm0
	jmp	SHORT $LN29@DrawBackgr
$LN28@DrawBackgr:
	xorps	xmm0, xmm0
	movss	DWORD PTR tv202[ebp], xmm0
$LN29@DrawBackgr:

; 406  : 
; 407  : 	Frect pr, sr;
; 408  : 	pr.x1 = ioc_w + cur_cmd_w;

	movss	xmm1, DWORD PTR _cur_cmd_w$[ebp]

; 409  : 	pr.x2 = pr.x1 + list_w;
; 410  : 
; 411  : 	pr.y1 = UI_BASE_HEIGHT * 0.5f;
; 412  : 	pr.y1 *= float(Device.dwHeight)/UI_BASE_HEIGHT;

	fild	DWORD PTR ?Device@@3VCRenderDevice@@A+8
	addss	xmm1, DWORD PTR _ioc_w$[ebp]
	mov	edx, DWORD PTR ?Device@@3VCRenderDevice@@A+8
	test	edx, edx
	movss	DWORD PTR _pr$[ebp], xmm1
	addss	xmm1, DWORD PTR _list_w$[ebp]
	movss	DWORD PTR _pr$[ebp+8], xmm1
	jge	SHORT $LN140@DrawBackgr
	fadd	DWORD PTR __real@4f800000
$LN140@DrawBackgr:

; 413  : 
; 414  : 	pr.y2 = pr.y1 + tips_h;
; 415  : 
; 416  : 	float select_y = 0.0f;
; 417  : 	float select_h = 0.0f;
; 418  : 	
; 419  : 	if ( m_select_tip >= 0 && m_select_tip < (int)m_tips.size() )

	cmp	DWORD PTR [edi+96], 0
	fmul	DWORD PTR __real@3f000000
	movaps	xmm2, xmm0
	movss	DWORD PTR _select_h$[ebp], xmm2
	fst	DWORD PTR _pr$[ebp+4]
	fld	DWORD PTR tv202[ebp]
	fadd	DWORD PTR _tips_h$[ebp]
	movss	DWORD PTR _select_y$[ebp], xmm0
	faddp	ST(1), ST(0)
	fstp	DWORD PTR _pr$[ebp+12]
	jl	SHORT $LN15@DrawBackgr
	mov	ecx, esi
	call	?size@?$_Impl_vector@UTipString@@V?$xalloc@UTipString@@@@@priv@stlp_std@@QBEIXZ ; stlp_std::priv::_Impl_vector<TipString,xalloc<TipString> >::size
	mov	ecx, DWORD PTR [edi+96]
	cmp	ecx, eax

; 420  : 	{
; 421  : 		int sel_pos = m_select_tip - m_start_tip;
; 422  : 
; 423  : 		select_y = sel_pos * font_h;
; 424  : 		select_h = font_h; //1 string

	movss	xmm1, DWORD PTR _pr$[ebp+8]
	jge	SHORT $LN131@DrawBackgr
	sub	ecx, DWORD PTR [edi+100]
	movss	xmm2, DWORD PTR _font_h$[ebp]
	cvtsi2ss xmm0, ecx
	mulss	xmm0, xmm2
	jmp	SHORT $LN15@DrawBackgr
$LN131@DrawBackgr:
	movss	xmm0, DWORD PTR _select_y$[ebp]
	movss	xmm2, DWORD PTR _select_h$[ebp]
$LN15@DrawBackgr:

; 425  : 	}
; 426  : 	
; 427  : 	sr.x1 = pr.x1;
; 428  : 	sr.y1 = pr.y1 + select_y;
; 429  : 
; 430  : 	sr.x2 = pr.x2;
; 431  : 	sr.y2 = sr.y1 + select_h;
; 432  : 
; 433  : 	DrawRect( pr, tips_back_color );

	mov	eax, DWORD PTR _tips_back_color
	addss	xmm0, DWORD PTR _pr$[ebp+4]
	movss	xmm3, DWORD PTR _pr$[ebp]
	push	eax
	lea	ecx, DWORD PTR _pr$[ebp]
	movss	DWORD PTR _sr$[ebp+4], xmm0
	push	ecx
	addss	xmm0, xmm2
	mov	ecx, edi
	movss	DWORD PTR _sr$[ebp], xmm3
	movss	DWORD PTR _sr$[ebp+8], xmm1
	movss	DWORD PTR _sr$[ebp+12], xmm0
	call	?DrawRect@CConsole@@IAEXABU?$_rect@M@@I@Z ; CConsole::DrawRect

; 434  : 	DrawRect( sr, tips_select_color );

	mov	edx, DWORD PTR _tips_select_color
	push	edx
	lea	eax, DWORD PTR _sr$[ebp]
	push	eax
	mov	ecx, edi
	call	?DrawRect@CConsole@@IAEXABU?$_rect@M@@I@Z ; CConsole::DrawRect

; 435  : 
; 436  : 	// --------------------------- highlight words --------------------
; 437  : 
; 438  : 	if ( m_select_tip < (int)m_tips.size() )

	mov	ecx, esi
	call	?size@?$_Impl_vector@UTipString@@V?$xalloc@UTipString@@@@@priv@stlp_std@@QBEIXZ ; stlp_std::priv::_Impl_vector<TipString,xalloc<TipString> >::size
	cmp	DWORD PTR [edi+96], eax
	jge	$LN128@DrawBackgr

; 439  : 	{
; 440  : 		Frect r;
; 441  : 
; 442  : 		vecTipsEx::iterator itb = m_tips.begin() + m_start_tip;

	mov	ecx, esi
	call	?begin@?$_Impl_vector@UTipString@@V?$xalloc@UTipString@@@@@priv@stlp_std@@QAEPAUTipString@@XZ ; stlp_std::priv::_Impl_vector<TipString,xalloc<TipString> >::begin
	mov	ecx, DWORD PTR [edi+100]
	lea	ecx, DWORD PTR [ecx+ecx*2]
	lea	ebx, DWORD PTR [eax+ecx*4]

; 443  : 		vecTipsEx::iterator ite = m_tips.end();

	mov	ecx, esi
	call	?end@?$_Impl_vector@UTipString@@V?$xalloc@UTipString@@@@@priv@stlp_std@@QAEPAUTipString@@XZ ; stlp_std::priv::_Impl_vector<TipString,xalloc<TipString> >::end

; 444  : 		for ( u32 i = 0; itb != ite; ++itb, ++i ) // tips

	cmp	ebx, eax
	mov	DWORD PTR _ite$132666[ebp], eax
	mov	DWORD PTR _i$132667[ebp], 0
	je	$LN128@DrawBackgr
$LN13@DrawBackgr:

; 445  : 		{
; 446  : 			TipString const& ts = (*itb);
; 447  : 			if ( (ts.HL_start < 0) || (ts.HL_finish < 0) || (ts.HL_start > ts.HL_finish) )

	mov	esi, DWORD PTR [ebx+4]
	test	esi, esi
	jl	$LN12@DrawBackgr
	mov	edx, DWORD PTR [ebx+8]
	test	edx, edx
	jl	$LN12@DrawBackgr
	cmp	esi, edx
	jg	$LN12@DrawBackgr

; 448  : 			{
; 449  : 				continue;
; 450  : 			}
; 451  : 			int    str_size = (int)ts.text.size();

	mov	ecx, DWORD PTR [ebx]
	test	ecx, ecx
	je	SHORT $LN106@DrawBackgr
$LN107@DrawBackgr:
	mov	ecx, DWORD PTR [ecx+4]
$LN106@DrawBackgr:

; 452  : 			if ( (ts.HL_start >= str_size) || (ts.HL_finish > str_size) )

	cmp	esi, ecx
	jge	$LN12@DrawBackgr
	cmp	edx, ecx
	jg	$LN12@DrawBackgr

; 453  : 			{
; 454  : 				continue;
; 455  : 			}
; 456  : 
; 457  : 			r.null();
; 458  : 			LPSTR  tmp      = (PSTR)_alloca( (str_size + 1) * sizeof(char) );

	lea	eax, DWORD PTR [ecx+1]
	mov	DWORD PTR tv754[ebp], eax
	call	__alloca_probe_16

; 459  : 
; 460  : 			strncpy_s( tmp, str_size+1, ts.text.c_str(), ts.HL_start );

	mov	eax, DWORD PTR [ebx]
	test	eax, eax
	mov	esi, esp
	je	SHORT $LN114@DrawBackgr
	add	eax, 16					; 00000010H
	jmp	SHORT $LN115@DrawBackgr
$LN114@DrawBackgr:
	xor	eax, eax
$LN115@DrawBackgr:
	mov	ecx, DWORD PTR [ebx+4]
	mov	edx, DWORD PTR tv754[ebp]
	push	ecx
	push	eax
	push	edx
	push	esi
	call	DWORD PTR __imp__strncpy_s

; 461  : 			r.x1 = pr.x1 + w1 + pFont->SizeOf_( tmp );

	mov	ecx, DWORD PTR [edi+16]
	add	esp, 16					; 00000010H
	push	esi
	call	?SizeOf_@CGameFont@@QAEMPBD@Z		; CGameFont::SizeOf_
	fadd	DWORD PTR _pr$[ebp]

; 462  : 			r.y1 = pr.y1 + i * font_h;

	mov	eax, DWORD PTR _i$132667[ebp]
	test	eax, eax
	fadd	DWORD PTR _w1$[ebp]
	fstp	DWORD PTR _r$132664[ebp]
	fild	DWORD PTR _i$132667[ebp]
	jge	SHORT $LN141@DrawBackgr
	fadd	DWORD PTR __real@4f800000
$LN141@DrawBackgr:
	fmul	DWORD PTR _font_h$[ebp]

; 463  : 
; 464  : 			strncpy_s( tmp, str_size+1, ts.text.c_str(), ts.HL_finish );

	mov	eax, DWORD PTR [ebx]
	test	eax, eax
	fadd	DWORD PTR _pr$[ebp+4]
	fstp	DWORD PTR _r$132664[ebp+4]
	je	SHORT $LN118@DrawBackgr
	add	eax, 16					; 00000010H
	jmp	SHORT $LN119@DrawBackgr
$LN118@DrawBackgr:
	xor	eax, eax
$LN119@DrawBackgr:
	mov	ecx, DWORD PTR [ebx+8]
	mov	edx, DWORD PTR tv754[ebp]
	push	ecx
	push	eax
	push	edx
	push	esi
	call	DWORD PTR __imp__strncpy_s

; 465  : 			r.x2 = pr.x1 + w1 + pFont->SizeOf_( tmp );

	mov	ecx, DWORD PTR [edi+16]
	add	esp, 16					; 00000010H
	push	esi
	call	?SizeOf_@CGameFont@@QAEMPBD@Z		; CGameFont::SizeOf_
	fadd	DWORD PTR _pr$[ebp]

; 466  : 			r.y2 = r.y1 + font_h;
; 467  : 
; 468  : 			DrawRect( r, tips_word_color );

	mov	eax, DWORD PTR _tips_word_color
	movss	xmm0, DWORD PTR _r$132664[ebp+4]
	fadd	DWORD PTR _w1$[ebp]
	addss	xmm0, DWORD PTR _font_h$[ebp]
	push	eax
	lea	ecx, DWORD PTR _r$132664[ebp]
	push	ecx
	fstp	DWORD PTR _r$132664[ebp+8]
	mov	ecx, edi
	movss	DWORD PTR _r$132664[ebp+12], xmm0
	call	?DrawRect@CConsole@@IAEXABU?$_rect@M@@I@Z ; CConsole::DrawRect

; 469  : 
; 470  : 			if ( i >= VIEW_TIPS_COUNT-1 )

	cmp	DWORD PTR _i$132667[ebp], 13		; 0000000dH
	jae	SHORT $LN128@DrawBackgr
	mov	eax, DWORD PTR _ite$132666[ebp]
$LN12@DrawBackgr:

; 444  : 		for ( u32 i = 0; itb != ite; ++itb, ++i ) // tips

	add	DWORD PTR _i$132667[ebp], 1
	add	ebx, 12					; 0000000cH
	cmp	ebx, eax
	jne	$LN13@DrawBackgr
$LN128@DrawBackgr:

; 471  : 			{
; 472  : 				break; // for itb
; 473  : 			}
; 474  : 		}// for itb
; 475  : 	} // if
; 476  : 
; 477  : 	// --------------------------- scroll bar --------------------
; 478  : 
; 479  : 	u32 tips_sz = m_tips.size();

	lea	ecx, DWORD PTR [edi+76]
	call	?size@?$_Impl_vector@UTipString@@V?$xalloc@UTipString@@@@@priv@stlp_std@@QBEIXZ ; stlp_std::priv::_Impl_vector<TipString,xalloc<TipString> >::size
	mov	esi, eax

; 480  : 	if ( tips_sz > VIEW_TIPS_COUNT )

	cmp	esi, 14					; 0000000eH
	jbe	$LN20@DrawBackgr

; 481  : 	{
; 482  : 		Frect rb, rs;
; 483  : 		
; 484  : 		rb.x1 = pr.x2;
; 485  : 		rb.y1 = pr.y1;

	movss	xmm1, DWORD PTR _pr$[ebp+4]
	movss	xmm0, DWORD PTR _pr$[ebp+8]

; 486  : 		rb.x2 = rb.x1 + 2 * w1;
; 487  : 		rb.y2 = pr.y2;
; 488  : 		DrawRect( rb, tips_scroll_back_color );

	mov	edx, DWORD PTR _tips_scroll_back_color
	movss	DWORD PTR _rb$132684[ebp+4], xmm1
	movss	xmm1, DWORD PTR tv524[ebp]
	addss	xmm1, xmm0
	push	edx
	lea	eax, DWORD PTR _rb$132684[ebp]
	movss	DWORD PTR _rb$132684[ebp], xmm0
	movss	xmm0, DWORD PTR _pr$[ebp+12]
	push	eax
	mov	ecx, edi
	movss	DWORD PTR _rb$132684[ebp+8], xmm1
	movss	DWORD PTR _rb$132684[ebp+12], xmm0
	call	?DrawRect@CConsole@@IAEXABU?$_rect@M@@I@Z ; CConsole::DrawRect

; 489  : 
; 490  : 		VERIFY( rb.y2 - rb.y1 >= 1.0f );
; 491  : 		float back_height = rb.y2 - rb.y1;
; 492  : 		float u_height = (back_height * VIEW_TIPS_COUNT)/ float(tips_sz);

	test	esi, esi
	movss	xmm0, DWORD PTR _pr$[ebp+12]
	movss	xmm4, DWORD PTR _pr$[ebp+4]
	mov	DWORD PTR tv725[ebp], esi
	fild	DWORD PTR tv725[ebp]
	subss	xmm0, xmm4
	movaps	xmm2, xmm0
	jge	SHORT $LN142@DrawBackgr
	fadd	DWORD PTR __real@4f800000
$LN142@DrawBackgr:

; 493  : 		if ( u_height < 0.5f * font_h )

	movss	xmm1, DWORD PTR _font_h$[ebp]
	fstp	DWORD PTR tv597[ebp]
	movss	xmm3, DWORD PTR tv597[ebp]
	mulss	xmm1, DWORD PTR __real@3f000000
	movaps	xmm0, xmm2
	mulss	xmm0, DWORD PTR __real@41600000
	divss	xmm0, xmm3
	comiss	xmm1, xmm0
	jbe	SHORT $LN1@DrawBackgr

; 494  : 		{
; 495  : 			u_height = 0.5f * font_h;

	movaps	xmm0, xmm1
$LN1@DrawBackgr:

; 496  : 		}
; 497  : 
; 498  : 		//float u_pos = (back_height - u_height) * float(m_start_tip) / float(tips_sz);
; 499  : 		float u_pos = back_height * float(m_start_tip) / float(tips_sz);
; 500  : 		
; 501  : 		//clamp( u_pos, 0.0f, back_height - u_height );
; 502  : 		
; 503  : 		rs = rb;

	mov	edx, DWORD PTR _rb$132684[ebp+4]
	mov	ecx, DWORD PTR _rb$132684[ebp]
	mov	eax, DWORD PTR _rb$132684[ebp+8]

; 504  : 		rs.y1 = pr.y1 + u_pos;

	cvtsi2ss xmm1, DWORD PTR [edi+100]
	mov	DWORD PTR _rs$132685[ebp+4], edx

; 505  : 		rs.y2 = rs.y1 + u_height;
; 506  : 		DrawRect( rs, tips_scroll_pos_color );

	mov	edx, DWORD PTR _tips_scroll_pos_color
	mulss	xmm1, xmm2
	mov	DWORD PTR _rs$132685[ebp], ecx
	mov	ecx, DWORD PTR _rb$132684[ebp+12]
	divss	xmm1, xmm3
	mov	DWORD PTR _rs$132685[ebp+8], eax
	addss	xmm1, xmm4
	mov	DWORD PTR _rs$132685[ebp+12], ecx
	push	edx
	lea	eax, DWORD PTR _rs$132685[ebp]
	movss	DWORD PTR _rs$132685[ebp+4], xmm1
	addss	xmm1, xmm0
	push	eax
	mov	ecx, edi
	movss	DWORD PTR _rs$132685[ebp+12], xmm1
	call	?DrawRect@CConsole@@IAEXABU?$_rect@M@@I@Z ; CConsole::DrawRect
$LN20@DrawBackgr:
	mov	ecx, DWORD PTR __imp_?UIRender@@3PAVIUIRender@@A
	mov	ecx, DWORD PTR [ecx]
	mov	edx, DWORD PTR [ecx]
	mov	eax, DWORD PTR [edx+32]
	call	eax

; 507  : 	}
; 508  : 
; 509  : 	UIRender->FlushPrimitive();
; 510  : }

	lea	esp, DWORD PTR [ebp-72]
	pop	edi
	pop	esi
	pop	ebx
	mov	esp, ebp
	pop	ebp
	ret	4
?DrawBackgrounds@CConsole@@IAEX_N@Z ENDP		; CConsole::DrawBackgrounds
_TEXT	ENDS
PUBLIC	?RemoveCommand@CConsole@@QAEXPAVIConsole_Command@@@Z ; CConsole::RemoveCommand
; Function compile flags: /Ogtpy
;	COMDAT ?RemoveCommand@CConsole@@QAEXPAVIConsole_Command@@@Z
_TEXT	SEGMENT
$T291139 = 8						; size = 4
_cc$ = 8						; size = 4
?RemoveCommand@CConsole@@QAEXPAVIConsole_Command@@@Z PROC ; CConsole::RemoveCommand, COMDAT
; _this$ = ecx

; 154  : 	vecCMD_IT it = Commands.find( cc->Name() );

	mov	eax, DWORD PTR _cc$[esp-4]
	mov	edx, DWORD PTR [eax+4]
	push	esi
	push	edi
	lea	esi, DWORD PTR [ecx+176]
	push	esi
	lea	edi, DWORD PTR $T291139[esp+8]
	mov	DWORD PTR $T291139[esp+8], edx
	call	??$_M_find@PBD@?$_Rb_tree@PBDUstr_pred@CConsole@@U?$pair@QBDPAVIConsole_Command@@@stlp_std@@U?$_Select1st@U?$pair@QBDPAVIConsole_Command@@@stlp_std@@@priv@4@U?$_MapTraitsT@U?$pair@QBDPAVIConsole_Command@@@stlp_std@@@64@V?$xalloc@U?$pair@PBDPAVIConsole_Command@@@stlp_std@@@@@priv@stlp_std@@ABEPAU_Rb_tree_node_base@12@ABQBD@Z ; stlp_std::priv::_Rb_tree<char const *,CConsole::str_pred,stlp_std::pair<char const * const,IConsole_Command *>,stlp_std::priv::_Select1st<stlp_std::pair<char const * const,IConsole_Command *> >,stlp_std::priv::_MapTraitsT<stlp_std::pair<char const * const,IConsole_Command *> >,xalloc<stlp_std::pair<char const *,IConsole_Command *> > >::_M_find<char const *>
	mov	ecx, eax

; 155  : 	if ( Commands.end() != it )

	cmp	esi, ecx
	je	SHORT $LN38@RemoveComm

; 156  : 	{
; 157  : 		Commands.erase(it);

	lea	edi, DWORD PTR [esi+4]
	lea	eax, DWORD PTR [esi+12]
	lea	edx, DWORD PTR [esi+8]
	push	edi
	call	?_Rebalance_for_erase@?$_Rb_global@_N@priv@stlp_std@@SAPAU_Rb_tree_node_base@23@PAU423@AAPAU423@11@Z ; stlp_std::priv::_Rb_global<bool>::_Rebalance_for_erase
	mov	edi, eax
	push	edi
	call	?_S_value@?$_Rb_tree@PBDUstr_pred@CConsole@@U?$pair@QBDPAVIConsole_Command@@@stlp_std@@U?$_Select1st@U?$pair@QBDPAVIConsole_Command@@@stlp_std@@@priv@4@U?$_MapTraitsT@U?$pair@QBDPAVIConsole_Command@@@stlp_std@@@64@V?$xalloc@U?$pair@PBDPAVIConsole_Command@@@stlp_std@@@@@priv@stlp_std@@KAAAU?$pair@QBDPAVIConsole_Command@@@3@PAU_Rb_tree_node_base@23@@Z ; stlp_std::priv::_Rb_tree<char const *,CConsole::str_pred,stlp_std::pair<char const * const,IConsole_Command *>,stlp_std::priv::_Select1st<stlp_std::pair<char const * const,IConsole_Command *> >,stlp_std::priv::_MapTraitsT<stlp_std::pair<char const * const,IConsole_Command *> >,xalloc<stlp_std::pair<char const *,IConsole_Command *> > >::_S_value
	push	eax
	call	??$_Destroy@U?$pair@QBDPAVIConsole_Command@@@stlp_std@@@stlp_std@@YAXPAU?$pair@QBDPAVIConsole_Command@@@0@@Z ; stlp_std::_Destroy<stlp_std::pair<char const * const,IConsole_Command *> >
	add	esp, 12					; 0000000cH
	push	1
	push	edi
	mov	ecx, esi
	call	?deallocate@?$xalloc@U?$_Rb_tree_node@U?$pair@QBDPAVIConsole_Command@@@stlp_std@@@priv@stlp_std@@@@QBEXPAU?$_Rb_tree_node@U?$pair@QBDPAVIConsole_Command@@@stlp_std@@@priv@stlp_std@@I@Z ; xalloc<stlp_std::priv::_Rb_tree_node<stlp_std::pair<char const * const,IConsole_Command *> > >::deallocate
	add	DWORD PTR [esi+16], -1
$LN38@RemoveComm:
	pop	edi
	pop	esi

; 158  : 	}
; 159  : }

	ret	4
?RemoveCommand@CConsole@@QAEXPAVIConsole_Command@@@Z ENDP ; CConsole::RemoveCommand
; Function compile flags: /Ogtpy
; File d:\clearsky\sources\engine\xrengine\xr_ioconsole.h
_TEXT	ENDS
;	COMDAT ??0TipString@@QAE@ABVshared_str@@@Z
_TEXT	SEGMENT
??0TipString@@QAE@ABVshared_str@@@Z PROC		; TipString::TipString, COMDAT
; _this$ = eax
; _tips_text$ = ecx

; 44   : 	TipString( shared_str const& tips_text )

	mov	DWORD PTR [eax], 0

; 45   : 	{
; 46   : 		text._set( tips_text );

	mov	edx, DWORD PTR [ecx]
	test	edx, edx
	je	SHORT $LN5@TipString
	add	DWORD PTR [edx], 1
$LN5@TipString:
	mov	ecx, DWORD PTR [eax]
	test	ecx, ecx
	je	SHORT $LN8@TipString
	add	DWORD PTR [ecx], -1
	mov	ecx, DWORD PTR [eax]
	cmp	DWORD PTR [ecx], 0
	jne	SHORT $LN8@TipString
	mov	DWORD PTR [eax], 0
$LN8@TipString:
	mov	DWORD PTR [eax], edx

; 47   : 		HL_start = 0;

	mov	DWORD PTR [eax+4], 0

; 48   : 		HL_finish = 0;

	mov	DWORD PTR [eax+8], 0

; 49   : 	}

	ret	0
??0TipString@@QAE@ABVshared_str@@@Z ENDP		; TipString::TipString
; Function compile flags: /Ogtpy
_TEXT	ENDS
;	COMDAT ??0TipString@@QAE@ABVshared_str@@HH@Z
_TEXT	SEGMENT
_start_pos$ = 8						; size = 4
_finish_pos$ = 12					; size = 4
??0TipString@@QAE@ABVshared_str@@HH@Z PROC		; TipString::TipString, COMDAT
; _this$ = eax
; _tips_text$ = ecx

; 32   : 	TipString( shared_str const& tips_text, int start_pos, int finish_pos )

	mov	DWORD PTR [eax], 0

; 33   : 	{
; 34   : 		text._set( tips_text );

	mov	ecx, DWORD PTR [ecx]
	test	ecx, ecx
	je	SHORT $LN5@TipString@2
	add	DWORD PTR [ecx], 1
$LN5@TipString@2:
	mov	edx, DWORD PTR [eax]
	test	edx, edx
	je	SHORT $LN8@TipString@2
	add	DWORD PTR [edx], -1
	mov	edx, DWORD PTR [eax]
	cmp	DWORD PTR [edx], 0
	jne	SHORT $LN8@TipString@2
	mov	DWORD PTR [eax], 0
$LN8@TipString@2:

; 35   : 		HL_start = start_pos;
; 36   : 		HL_finish = finish_pos;

	mov	edx, DWORD PTR _finish_pos$[esp-4]
	mov	DWORD PTR [eax], ecx
	mov	ecx, DWORD PTR _start_pos$[esp-4]
	mov	DWORD PTR [eax+4], ecx
	mov	DWORD PTR [eax+8], edx

; 37   : 	}

	ret	8
??0TipString@@QAE@ABVshared_str@@HH@Z ENDP		; TipString::TipString
; Function compile flags: /Ogtpy
; File d:\clearsky\sources\sdk\include\stlport\stl\_construct.h
;	COMDAT ??$__destroy_mv_srcs@V?$reverse_iterator@PAUTipString@@@stlp_std@@UTipString@@@stlp_std@@YAXV?$reverse_iterator@PAUTipString@@@0@0PAUTipString@@@Z
_TEXT	SEGMENT
$T366478 = -1						; size = 1
___first$ = 8						; size = 4
___last$ = 12						; size = 4
??$__destroy_mv_srcs@V?$reverse_iterator@PAUTipString@@@stlp_std@@UTipString@@@stlp_std@@YAXV?$reverse_iterator@PAUTipString@@@0@0PAUTipString@@@Z PROC ; stlp_std::__destroy_mv_srcs<stlp_std::reverse_iterator<TipString *>,TipString>, COMDAT

; 192  : __destroy_mv_srcs(_ForwardIterator __first, _ForwardIterator __last, _Tp *__ptr) {

	push	ecx

; 193  :   typedef typename __move_traits<_Tp>::complete _CompleteMove;
; 194  :   __destroy_range_aux(__first, __last, __ptr, _CompleteMove());

	lea	eax, DWORD PTR $T366478[esp+4]
	push	eax
	push	0
	push	ecx
	lea	edx, DWORD PTR ___last$[esp+12]
	mov	ecx, esp
	push	edx
	mov	BYTE PTR $T366478[esp+20], 0
	call	??0?$reverse_iterator@PAUTipString@@@stlp_std@@QAE@ABV01@@Z ; stlp_std::reverse_iterator<TipString *>::reverse_iterator<TipString *>
	push	ecx
	lea	eax, DWORD PTR ___first$[esp+16]
	mov	ecx, esp
	push	eax
	call	??0?$reverse_iterator@PAUTipString@@@stlp_std@@QAE@ABV01@@Z ; stlp_std::reverse_iterator<TipString *>::reverse_iterator<TipString *>
	call	??$__destroy_range_aux@V?$reverse_iterator@PAUTipString@@@stlp_std@@UTipString@@@stlp_std@@YAXV?$reverse_iterator@PAUTipString@@@0@0PAUTipString@@ABU__false_type@0@@Z ; stlp_std::__destroy_range_aux<stlp_std::reverse_iterator<TipString *>,TipString>

; 195  : }

	add	esp, 20					; 00000014H
	ret	0
??$__destroy_mv_srcs@V?$reverse_iterator@PAUTipString@@@stlp_std@@UTipString@@@stlp_std@@YAXV?$reverse_iterator@PAUTipString@@@0@0PAUTipString@@@Z ENDP ; stlp_std::__destroy_mv_srcs<stlp_std::reverse_iterator<TipString *>,TipString>
; Function compile flags: /Ogtpy
; File d:\clearsky\sources\sdk\include\stlport\stl\_tree.c
_TEXT	ENDS
;	COMDAT ?insert_unique@?$_Rb_tree@PBDUstr_pred@CConsole@@U?$pair@QBDPAVIConsole_Command@@@stlp_std@@U?$_Select1st@U?$pair@QBDPAVIConsole_Command@@@stlp_std@@@priv@4@U?$_MapTraitsT@U?$pair@QBDPAVIConsole_Command@@@stlp_std@@@64@V?$xalloc@U?$pair@PBDPAVIConsole_Command@@@stlp_std@@@@@priv@stlp_std@@QAE?AU?$pair@U?$_Rb_tree_iterator@U?$pair@QBDPAVIConsole_Command@@@stlp_std@@U?$_MapTraitsT@U?$pair@QBDPAVIConsole_Command@@@stlp_std@@@priv@2@@priv@stlp_std@@_N@3@ABU?$pair@QBDPAVIConsole_Command@@@3@@Z
_TEXT	SEGMENT
_this$ = 8						; size = 4
___$ReturnUdt$ = 12					; size = 4
$T366495 = 16						; size = 4
$T366492 = 16						; size = 4
___val$ = 16						; size = 4
?insert_unique@?$_Rb_tree@PBDUstr_pred@CConsole@@U?$pair@QBDPAVIConsole_Command@@@stlp_std@@U?$_Select1st@U?$pair@QBDPAVIConsole_Command@@@stlp_std@@@priv@4@U?$_MapTraitsT@U?$pair@QBDPAVIConsole_Command@@@stlp_std@@@64@V?$xalloc@U?$pair@PBDPAVIConsole_Command@@@stlp_std@@@@@priv@stlp_std@@QAE?AU?$pair@U?$_Rb_tree_iterator@U?$pair@QBDPAVIConsole_Command@@@stlp_std@@U?$_MapTraitsT@U?$pair@QBDPAVIConsole_Command@@@stlp_std@@@priv@2@@priv@stlp_std@@_N@3@ABU?$pair@QBDPAVIConsole_Command@@@3@@Z PROC ; stlp_std::priv::_Rb_tree<char const *,CConsole::str_pred,stlp_std::pair<char const * const,IConsole_Command *>,stlp_std::priv::_Select1st<stlp_std::pair<char const * const,IConsole_Command *> >,stlp_std::priv::_MapTraitsT<stlp_std::pair<char const * const,IConsole_Command *> >,xalloc<stlp_std::pair<char const *,IConsole_Command *> > >::insert_unique, COMDAT

; 406  :   _Base_ptr __y = &this->_M_header._M_data;

	mov	ecx, DWORD PTR _this$[esp-4]
	push	ebx
	push	ebp
	push	esi
	push	edi
	mov	ebp, ecx

; 407  :   _Base_ptr __x = _M_root();

	call	?_M_root@?$_Rb_tree@PBDUstr_pred@CConsole@@U?$pair@QBDPAVIConsole_Command@@@stlp_std@@U?$_Select1st@U?$pair@QBDPAVIConsole_Command@@@stlp_std@@@priv@4@U?$_MapTraitsT@U?$pair@QBDPAVIConsole_Command@@@stlp_std@@@64@V?$xalloc@U?$pair@PBDPAVIConsole_Command@@@stlp_std@@@@@priv@stlp_std@@IAEAAPAU_Rb_tree_node_base@23@XZ ; stlp_std::priv::_Rb_tree<char const *,CConsole::str_pred,stlp_std::pair<char const * const,IConsole_Command *>,stlp_std::priv::_Select1st<stlp_std::pair<char const * const,IConsole_Command *> >,stlp_std::priv::_MapTraitsT<stlp_std::pair<char const * const,IConsole_Command *> >,xalloc<stlp_std::pair<char const *,IConsole_Command *> > >::_M_root
	mov	esi, DWORD PTR [eax]

; 408  :   bool __comp = true;
; 409  :   while (__x != 0) {

	test	esi, esi
	mov	bl, 1
	je	SHORT $LN5@insert_uni@2
$LL6@insert_uni@2:

; 410  :     __y = __x;
; 411  :     __comp = _M_key_compare(_KeyOfValue()(__val), _S_key(__x));

	push	esi
	mov	ebp, esi
	call	?_S_value@?$_Rb_tree@PBDUstr_pred@CConsole@@U?$pair@QBDPAVIConsole_Command@@@stlp_std@@U?$_Select1st@U?$pair@QBDPAVIConsole_Command@@@stlp_std@@@priv@4@U?$_MapTraitsT@U?$pair@QBDPAVIConsole_Command@@@stlp_std@@@64@V?$xalloc@U?$pair@PBDPAVIConsole_Command@@@stlp_std@@@@@priv@stlp_std@@KAAAU?$pair@QBDPAVIConsole_Command@@@3@PAU_Rb_tree_node_base@23@@Z ; stlp_std::priv::_Rb_tree<char const *,CConsole::str_pred,stlp_std::pair<char const * const,IConsole_Command *>,stlp_std::priv::_Select1st<stlp_std::pair<char const * const,IConsole_Command *> >,stlp_std::priv::_MapTraitsT<stlp_std::pair<char const * const,IConsole_Command *> >,xalloc<stlp_std::pair<char const *,IConsole_Command *> > >::_S_value
	mov	ecx, DWORD PTR [eax]
	mov	eax, DWORD PTR ___val$[esp+16]
	mov	eax, DWORD PTR [eax]
	add	esp, 4
	npad	6
$LL81@insert_uni@2:
	mov	dl, BYTE PTR [eax]
	cmp	dl, BYTE PTR [ecx]
	jne	SHORT $LN82@insert_uni@2
	test	dl, dl
	je	SHORT $LN83@insert_uni@2
	mov	dl, BYTE PTR [eax+1]
	cmp	dl, BYTE PTR [ecx+1]
	jne	SHORT $LN82@insert_uni@2
	add	eax, 2
	add	ecx, 2
	test	dl, dl
	jne	SHORT $LL81@insert_uni@2
$LN83@insert_uni@2:
	xor	eax, eax
	jmp	SHORT $LN84@insert_uni@2
$LN82@insert_uni@2:
	sbb	eax, eax
	sbb	eax, -1
$LN84@insert_uni@2:
	test	eax, eax
	setl	bl

; 412  :     __x = __comp ? _S_left(__x) : _S_right(__x);

	test	bl, bl
	push	esi
	je	SHORT $LN9@insert_uni@2
	call	?_S_left@?$_Rb_tree@PBDUstr_pred@CConsole@@U?$pair@QBDPAVIConsole_Command@@@stlp_std@@U?$_Select1st@U?$pair@QBDPAVIConsole_Command@@@stlp_std@@@priv@4@U?$_MapTraitsT@U?$pair@QBDPAVIConsole_Command@@@stlp_std@@@64@V?$xalloc@U?$pair@PBDPAVIConsole_Command@@@stlp_std@@@@@priv@stlp_std@@KAAAPAU_Rb_tree_node_base@23@PAU423@@Z ; stlp_std::priv::_Rb_tree<char const *,CConsole::str_pred,stlp_std::pair<char const * const,IConsole_Command *>,stlp_std::priv::_Select1st<stlp_std::pair<char const * const,IConsole_Command *> >,stlp_std::priv::_MapTraitsT<stlp_std::pair<char const * const,IConsole_Command *> >,xalloc<stlp_std::pair<char const *,IConsole_Command *> > >::_S_left
	jmp	SHORT $LN89@insert_uni@2
$LN9@insert_uni@2:
	call	?_S_right@?$_Rb_tree@PBDUstr_pred@CConsole@@U?$pair@QBDPAVIConsole_Command@@@stlp_std@@U?$_Select1st@U?$pair@QBDPAVIConsole_Command@@@stlp_std@@@priv@4@U?$_MapTraitsT@U?$pair@QBDPAVIConsole_Command@@@stlp_std@@@64@V?$xalloc@U?$pair@PBDPAVIConsole_Command@@@stlp_std@@@@@priv@stlp_std@@KAAAPAU_Rb_tree_node_base@23@PAU423@@Z ; stlp_std::priv::_Rb_tree<char const *,CConsole::str_pred,stlp_std::pair<char const * const,IConsole_Command *>,stlp_std::priv::_Select1st<stlp_std::pair<char const * const,IConsole_Command *> >,stlp_std::priv::_MapTraitsT<stlp_std::pair<char const * const,IConsole_Command *> >,xalloc<stlp_std::pair<char const *,IConsole_Command *> > >::_S_right
$LN89@insert_uni@2:
	mov	esi, DWORD PTR [eax]
	add	esp, 4
	test	esi, esi
	jne	SHORT $LL6@insert_uni@2
$LN5@insert_uni@2:

; 413  :   }
; 414  :   iterator __j = iterator(__y);
; 415  :   if (__comp) {

	test	bl, bl
	mov	edi, ebp
	je	SHORT $LN53@insert_uni@2

; 416  :     if (__j == begin())

	mov	ebx, DWORD PTR _this$[esp+12]
	mov	ecx, ebx
	call	?_M_leftmost@?$_Rb_tree@PBDUstr_pred@CConsole@@U?$pair@QBDPAVIConsole_Command@@@stlp_std@@U?$_Select1st@U?$pair@QBDPAVIConsole_Command@@@stlp_std@@@priv@4@U?$_MapTraitsT@U?$pair@QBDPAVIConsole_Command@@@stlp_std@@@64@V?$xalloc@U?$pair@PBDPAVIConsole_Command@@@stlp_std@@@@@priv@stlp_std@@IAEAAPAU_Rb_tree_node_base@23@XZ ; stlp_std::priv::_Rb_tree<char const *,CConsole::str_pred,stlp_std::pair<char const * const,IConsole_Command *>,stlp_std::priv::_Select1st<stlp_std::pair<char const * const,IConsole_Command *> >,stlp_std::priv::_MapTraitsT<stlp_std::pair<char const * const,IConsole_Command *> >,xalloc<stlp_std::pair<char const *,IConsole_Command *> > >::_M_leftmost
