; Listing generated by Microsoft (R) Optimizing Compiler Version 14.00.50727.762 

	TITLE	D:\CLEARSKY\sources\engine\xrEngine\XR_IOConsole_get.cpp
	.686P
	.XMM
	include listing.inc
	.model	flat

INCLUDELIB OLDNAMES

PUBLIC	?end@?$_Rb_tree@PBDUstr_pred@CConsole@@U?$pair@QBDPAVIConsole_Command@@@stlp_std@@U?$_Select1st@U?$pair@QBDPAVIConsole_Command@@@stlp_std@@@priv@4@U?$_MapTraitsT@U?$pair@QBDPAVIConsole_Command@@@stlp_std@@@64@V?$xalloc@U?$pair@PBDPAVIConsole_Command@@@stlp_std@@@@@priv@stlp_std@@QBE?AU?$_Rb_tree_iterator@U?$pair@QBDPAVIConsole_Command@@@stlp_std@@U?$_ConstMapTraitsT@U?$pair@QBDPAVIConsole_Command@@@stlp_std@@@priv@2@@23@XZ ; stlp_std::priv::_Rb_tree<char const *,CConsole::str_pred,stlp_std::pair<char const * const,IConsole_Command *>,stlp_std::priv::_Select1st<stlp_std::pair<char const * const,IConsole_Command *> >,stlp_std::priv::_MapTraitsT<stlp_std::pair<char const * const,IConsole_Command *> >,xalloc<stlp_std::pair<char const *,IConsole_Command *> > >::end
PUBLIC	?end@?$map@PBDPAVIConsole_Command@@Ustr_pred@CConsole@@V?$xalloc@U?$pair@PBDPAVIConsole_Command@@@stlp_std@@@@@stlp_std@@QBE?AU?$_Rb_tree_iterator@U?$pair@QBDPAVIConsole_Command@@@stlp_std@@U?$_ConstMapTraitsT@U?$pair@QBDPAVIConsole_Command@@@stlp_std@@@priv@2@@priv@2@XZ ; stlp_std::map<char const *,IConsole_Command *,CConsole::str_pred,xalloc<stlp_std::pair<char const *,IConsole_Command *> > >::end
PUBLIC	??D?$_Rb_tree_iterator@U?$pair@QBDPAVIConsole_Command@@@stlp_std@@U?$_ConstMapTraitsT@U?$pair@QBDPAVIConsole_Command@@@stlp_std@@@priv@2@@priv@stlp_std@@QBEABU?$pair@QBDPAVIConsole_Command@@@2@XZ ; stlp_std::priv::_Rb_tree_iterator<stlp_std::pair<char const * const,IConsole_Command *>,stlp_std::priv::_ConstMapTraitsT<stlp_std::pair<char const * const,IConsole_Command *> > >::operator*
PUBLIC	??C?$_Rb_tree_iterator@U?$pair@QBDPAVIConsole_Command@@@stlp_std@@U?$_ConstMapTraitsT@U?$pair@QBDPAVIConsole_Command@@@stlp_std@@@priv@2@@priv@stlp_std@@QBEPBU?$pair@QBDPAVIConsole_Command@@@2@XZ ; stlp_std::priv::_Rb_tree_iterator<stlp_std::pair<char const * const,IConsole_Command *>,stlp_std::priv::_ConstMapTraitsT<stlp_std::pair<char const * const,IConsole_Command *> > >::operator->
PUBLIC	??8?$_Rb_tree_iterator@U?$pair@QBDPAVIConsole_Command@@@stlp_std@@U?$_ConstMapTraitsT@U?$pair@QBDPAVIConsole_Command@@@stlp_std@@@priv@2@@priv@stlp_std@@QBE_NU012@@Z ; stlp_std::priv::_Rb_tree_iterator<stlp_std::pair<char const * const,IConsole_Command *>,stlp_std::priv::_ConstMapTraitsT<stlp_std::pair<char const * const,IConsole_Command *> > >::operator==
PUBLIC	??0?$_Rb_tree_iterator@U?$pair@QBDPAVIConsole_Command@@@stlp_std@@U?$_ConstMapTraitsT@U?$pair@QBDPAVIConsole_Command@@@stlp_std@@@priv@2@@priv@stlp_std@@QAE@PAU_Rb_tree_node_base@12@@Z ; stlp_std::priv::_Rb_tree_iterator<stlp_std::pair<char const * const,IConsole_Command *>,stlp_std::priv::_ConstMapTraitsT<stlp_std::pair<char const * const,IConsole_Command *> > >::_Rb_tree_iterator<stlp_std::pair<char const * const,IConsole_Command *>,stlp_std::priv::_ConstMapTraitsT<stlp_std::pair<char const * const,IConsole_Command *> > >
PUBLIC	??$find@PBD@?$_Rb_tree@PBDUstr_pred@CConsole@@U?$pair@QBDPAVIConsole_Command@@@stlp_std@@U?$_Select1st@U?$pair@QBDPAVIConsole_Command@@@stlp_std@@@priv@4@U?$_MapTraitsT@U?$pair@QBDPAVIConsole_Command@@@stlp_std@@@64@V?$xalloc@U?$pair@PBDPAVIConsole_Command@@@stlp_std@@@@@priv@stlp_std@@QBE?AU?$_Rb_tree_iterator@U?$pair@QBDPAVIConsole_Command@@@stlp_std@@U?$_ConstMapTraitsT@U?$pair@QBDPAVIConsole_Command@@@stlp_std@@@priv@2@@12@ABQBD@Z ; stlp_std::priv::_Rb_tree<char const *,CConsole::str_pred,stlp_std::pair<char const * const,IConsole_Command *>,stlp_std::priv::_Select1st<stlp_std::pair<char const * const,IConsole_Command *> >,stlp_std::priv::_MapTraitsT<stlp_std::pair<char const * const,IConsole_Command *> >,xalloc<stlp_std::pair<char const *,IConsole_Command *> > >::find<char const *>
PUBLIC	??$find@PBD@?$map@PBDPAVIConsole_Command@@Ustr_pred@CConsole@@V?$xalloc@U?$pair@PBDPAVIConsole_Command@@@stlp_std@@@@@stlp_std@@QBE?AU?$_Rb_tree_iterator@U?$pair@QBDPAVIConsole_Command@@@stlp_std@@U?$_ConstMapTraitsT@U?$pair@QBDPAVIConsole_Command@@@stlp_std@@@priv@2@@priv@1@ABQBD@Z ; stlp_std::map<char const *,IConsole_Command *,CConsole::str_pred,xalloc<stlp_std::pair<char const *,IConsole_Command *> > >::find<char const *>
_EPS	DD	03727c5acr			; 1e-005
; Function compile flags: /Ogtpy
; File d:\clearsky\sources\sdk\include\stlport\stl\_tree.h
;	COMDAT ??D?$_Rb_tree_iterator@U?$pair@QBDPAVIConsole_Command@@@stlp_std@@U?$_ConstMapTraitsT@U?$pair@QBDPAVIConsole_Command@@@stlp_std@@@priv@2@@priv@stlp_std@@QBEABU?$pair@QBDPAVIConsole_Command@@@2@XZ
_TEXT	SEGMENT
??D?$_Rb_tree_iterator@U?$pair@QBDPAVIConsole_Command@@@stlp_std@@U?$_ConstMapTraitsT@U?$pair@QBDPAVIConsole_Command@@@stlp_std@@@priv@2@@priv@stlp_std@@QBEABU?$pair@QBDPAVIConsole_Command@@@2@XZ PROC ; stlp_std::priv::_Rb_tree_iterator<stlp_std::pair<char const * const,IConsole_Command *>,stlp_std::priv::_ConstMapTraitsT<stlp_std::pair<char const * const,IConsole_Command *> > >::operator*, COMDAT
; _this$ = eax

; 171  :     return __STATIC_CAST(_Link_type, _M_node)->_M_value_field;

	mov	eax, DWORD PTR [eax]
	add	eax, 16					; 00000010H

; 172  :   }

	ret	0
??D?$_Rb_tree_iterator@U?$pair@QBDPAVIConsole_Command@@@stlp_std@@U?$_ConstMapTraitsT@U?$pair@QBDPAVIConsole_Command@@@stlp_std@@@priv@2@@priv@stlp_std@@QBEABU?$pair@QBDPAVIConsole_Command@@@2@XZ ENDP ; stlp_std::priv::_Rb_tree_iterator<stlp_std::pair<char const * const,IConsole_Command *>,stlp_std::priv::_ConstMapTraitsT<stlp_std::pair<char const * const,IConsole_Command *> > >::operator*
; Function compile flags: /Ogtpy
_TEXT	ENDS
;	COMDAT ??8?$_Rb_tree_iterator@U?$pair@QBDPAVIConsole_Command@@@stlp_std@@U?$_ConstMapTraitsT@U?$pair@QBDPAVIConsole_Command@@@stlp_std@@@priv@2@@priv@stlp_std@@QBE_NU012@@Z
_TEXT	SEGMENT
___rhs$ = 8						; size = 4
??8?$_Rb_tree_iterator@U?$pair@QBDPAVIConsole_Command@@@stlp_std@@U?$_ConstMapTraitsT@U?$pair@QBDPAVIConsole_Command@@@stlp_std@@@priv@2@@priv@stlp_std@@QBE_NU012@@Z PROC ; stlp_std::priv::_Rb_tree_iterator<stlp_std::pair<char const * const,IConsole_Command *>,stlp_std::priv::_ConstMapTraitsT<stlp_std::pair<char const * const,IConsole_Command *> > >::operator==, COMDAT
; _this$ = ecx

; 197  :     return _M_node == __rhs._M_node;

	mov	edx, DWORD PTR [ecx]
	xor	eax, eax
	cmp	edx, DWORD PTR ___rhs$[esp-4]
	sete	al

; 198  :   }

	ret	4
??8?$_Rb_tree_iterator@U?$pair@QBDPAVIConsole_Command@@@stlp_std@@U?$_ConstMapTraitsT@U?$pair@QBDPAVIConsole_Command@@@stlp_std@@@priv@2@@priv@stlp_std@@QBE_NU012@@Z ENDP ; stlp_std::priv::_Rb_tree_iterator<stlp_std::pair<char const * const,IConsole_Command *>,stlp_std::priv::_ConstMapTraitsT<stlp_std::pair<char const * const,IConsole_Command *> > >::operator==
; Function compile flags: /Ogtpy
_TEXT	ENDS
;	COMDAT ??C?$_Rb_tree_iterator@U?$pair@QBDPAVIConsole_Command@@@stlp_std@@U?$_ConstMapTraitsT@U?$pair@QBDPAVIConsole_Command@@@stlp_std@@@priv@2@@priv@stlp_std@@QBEPBU?$pair@QBDPAVIConsole_Command@@@2@XZ
_TEXT	SEGMENT
??C?$_Rb_tree_iterator@U?$pair@QBDPAVIConsole_Command@@@stlp_std@@U?$_ConstMapTraitsT@U?$pair@QBDPAVIConsole_Command@@@stlp_std@@@priv@2@@priv@stlp_std@@QBEPBU?$pair@QBDPAVIConsole_Command@@@2@XZ PROC ; stlp_std::priv::_Rb_tree_iterator<stlp_std::pair<char const * const,IConsole_Command *>,stlp_std::priv::_ConstMapTraitsT<stlp_std::pair<char const * const,IConsole_Command *> > >::operator->, COMDAT
; _this$ = eax

; 174  :   _STLP_DEFINE_ARROW_OPERATOR

	mov	eax, DWORD PTR [eax]
	add	eax, 16					; 00000010H
	ret	0
??C?$_Rb_tree_iterator@U?$pair@QBDPAVIConsole_Command@@@stlp_std@@U?$_ConstMapTraitsT@U?$pair@QBDPAVIConsole_Command@@@stlp_std@@@priv@2@@priv@stlp_std@@QBEPBU?$pair@QBDPAVIConsole_Command@@@2@XZ ENDP ; stlp_std::priv::_Rb_tree_iterator<stlp_std::pair<char const * const,IConsole_Command *>,stlp_std::priv::_ConstMapTraitsT<stlp_std::pair<char const * const,IConsole_Command *> > >::operator->
; Function compile flags: /Ogtpy
;	COMDAT ??0?$_Rb_tree_iterator@U?$pair@QBDPAVIConsole_Command@@@stlp_std@@U?$_ConstMapTraitsT@U?$pair@QBDPAVIConsole_Command@@@stlp_std@@@priv@2@@priv@stlp_std@@QAE@PAU_Rb_tree_node_base@12@@Z
_TEXT	SEGMENT
??0?$_Rb_tree_iterator@U?$pair@QBDPAVIConsole_Command@@@stlp_std@@U?$_ConstMapTraitsT@U?$pair@QBDPAVIConsole_Command@@@stlp_std@@@priv@2@@priv@stlp_std@@QAE@PAU_Rb_tree_node_base@12@@Z PROC ; stlp_std::priv::_Rb_tree_iterator<stlp_std::pair<char const * const,IConsole_Command *>,stlp_std::priv::_ConstMapTraitsT<stlp_std::pair<char const * const,IConsole_Command *> > >::_Rb_tree_iterator<stlp_std::pair<char const * const,IConsole_Command *>,stlp_std::priv::_ConstMapTraitsT<stlp_std::pair<char const * const,IConsole_Command *> > >, COMDAT
; _this$ = eax
; ___x$ = ecx

; 166  :   _Rb_tree_iterator(_Base_ptr __x) : _Rb_tree_base_iterator(__x) {}

	mov	DWORD PTR [eax], ecx
	ret	0
??0?$_Rb_tree_iterator@U?$pair@QBDPAVIConsole_Command@@@stlp_std@@U?$_ConstMapTraitsT@U?$pair@QBDPAVIConsole_Command@@@stlp_std@@@priv@2@@priv@stlp_std@@QAE@PAU_Rb_tree_node_base@12@@Z ENDP ; stlp_std::priv::_Rb_tree_iterator<stlp_std::pair<char const * const,IConsole_Command *>,stlp_std::priv::_ConstMapTraitsT<stlp_std::pair<char const * const,IConsole_Command *> > >::_Rb_tree_iterator<stlp_std::pair<char const * const,IConsole_Command *>,stlp_std::priv::_ConstMapTraitsT<stlp_std::pair<char const * const,IConsole_Command *> > >
; Function compile flags: /Ogtpy
_TEXT	ENDS
;	COMDAT ?end@?$_Rb_tree@PBDUstr_pred@CConsole@@U?$pair@QBDPAVIConsole_Command@@@stlp_std@@U?$_Select1st@U?$pair@QBDPAVIConsole_Command@@@stlp_std@@@priv@4@U?$_MapTraitsT@U?$pair@QBDPAVIConsole_Command@@@stlp_std@@@64@V?$xalloc@U?$pair@PBDPAVIConsole_Command@@@stlp_std@@@@@priv@stlp_std@@QBE?AU?$_Rb_tree_iterator@U?$pair@QBDPAVIConsole_Command@@@stlp_std@@U?$_ConstMapTraitsT@U?$pair@QBDPAVIConsole_Command@@@stlp_std@@@priv@2@@23@XZ
_TEXT	SEGMENT
?end@?$_Rb_tree@PBDUstr_pred@CConsole@@U?$pair@QBDPAVIConsole_Command@@@stlp_std@@U?$_Select1st@U?$pair@QBDPAVIConsole_Command@@@stlp_std@@@priv@4@U?$_MapTraitsT@U?$pair@QBDPAVIConsole_Command@@@stlp_std@@@64@V?$xalloc@U?$pair@PBDPAVIConsole_Command@@@stlp_std@@@@@priv@stlp_std@@QBE?AU?$_Rb_tree_iterator@U?$pair@QBDPAVIConsole_Command@@@stlp_std@@U?$_ConstMapTraitsT@U?$pair@QBDPAVIConsole_Command@@@stlp_std@@@priv@2@@23@XZ PROC ; stlp_std::priv::_Rb_tree<char const *,CConsole::str_pred,stlp_std::pair<char const * const,IConsole_Command *>,stlp_std::priv::_Select1st<stlp_std::pair<char const * const,IConsole_Command *> >,stlp_std::priv::_MapTraitsT<stlp_std::pair<char const * const,IConsole_Command *> >,xalloc<stlp_std::pair<char const *,IConsole_Command *> > >::end, COMDAT
; _this$ = ecx
; ___$ReturnUdt$ = eax

; 419  :   const_iterator end() const { return const_iterator(__CONST_CAST(_Base_ptr, &this->_M_header._M_data)); }

	mov	DWORD PTR [eax], ecx
	ret	0
?end@?$_Rb_tree@PBDUstr_pred@CConsole@@U?$pair@QBDPAVIConsole_Command@@@stlp_std@@U?$_Select1st@U?$pair@QBDPAVIConsole_Command@@@stlp_std@@@priv@4@U?$_MapTraitsT@U?$pair@QBDPAVIConsole_Command@@@stlp_std@@@64@V?$xalloc@U?$pair@PBDPAVIConsole_Command@@@stlp_std@@@@@priv@stlp_std@@QBE?AU?$_Rb_tree_iterator@U?$pair@QBDPAVIConsole_Command@@@stlp_std@@U?$_ConstMapTraitsT@U?$pair@QBDPAVIConsole_Command@@@stlp_std@@@priv@2@@23@XZ ENDP ; stlp_std::priv::_Rb_tree<char const *,CConsole::str_pred,stlp_std::pair<char const * const,IConsole_Command *>,stlp_std::priv::_Select1st<stlp_std::pair<char const * const,IConsole_Command *> >,stlp_std::priv::_MapTraitsT<stlp_std::pair<char const * const,IConsole_Command *> >,xalloc<stlp_std::pair<char const *,IConsole_Command *> > >::end
; Function compile flags: /Ogtpy
; File d:\clearsky\sources\sdk\include\stlport\stl\_map.h
_TEXT	ENDS
;	COMDAT ?end@?$map@PBDPAVIConsole_Command@@Ustr_pred@CConsole@@V?$xalloc@U?$pair@PBDPAVIConsole_Command@@@stlp_std@@@@@stlp_std@@QBE?AU?$_Rb_tree_iterator@U?$pair@QBDPAVIConsole_Command@@@stlp_std@@U?$_ConstMapTraitsT@U?$pair@QBDPAVIConsole_Command@@@stlp_std@@@priv@2@@priv@2@XZ
_TEXT	SEGMENT
?end@?$map@PBDPAVIConsole_Command@@Ustr_pred@CConsole@@V?$xalloc@U?$pair@PBDPAVIConsole_Command@@@stlp_std@@@@@stlp_std@@QBE?AU?$_Rb_tree_iterator@U?$pair@QBDPAVIConsole_Command@@@stlp_std@@U?$_ConstMapTraitsT@U?$pair@QBDPAVIConsole_Command@@@stlp_std@@@priv@2@@priv@2@XZ PROC ; stlp_std::map<char const *,IConsole_Command *,CConsole::str_pred,xalloc<stlp_std::pair<char const *,IConsole_Command *> > >::end, COMDAT
; _this$ = ecx
; ___$ReturnUdt$ = eax

; 164  :   const_iterator end() const { return _M_t.end(); }

	mov	DWORD PTR [eax], ecx
	ret	0
?end@?$map@PBDPAVIConsole_Command@@Ustr_pred@CConsole@@V?$xalloc@U?$pair@PBDPAVIConsole_Command@@@stlp_std@@@@@stlp_std@@QBE?AU?$_Rb_tree_iterator@U?$pair@QBDPAVIConsole_Command@@@stlp_std@@U?$_ConstMapTraitsT@U?$pair@QBDPAVIConsole_Command@@@stlp_std@@@priv@2@@priv@2@XZ ENDP ; stlp_std::map<char const *,IConsole_Command *,CConsole::str_pred,xalloc<stlp_std::pair<char const *,IConsole_Command *> > >::end
; Function compile flags: /Ogtpy
; File d:\clearsky\sources\sdk\include\stlport\stl\_tree.h
;	COMDAT ??$find@PBD@?$_Rb_tree@PBDUstr_pred@CConsole@@U?$pair@QBDPAVIConsole_Command@@@stlp_std@@U?$_Select1st@U?$pair@QBDPAVIConsole_Command@@@stlp_std@@@priv@4@U?$_MapTraitsT@U?$pair@QBDPAVIConsole_Command@@@stlp_std@@@64@V?$xalloc@U?$pair@PBDPAVIConsole_Command@@@stlp_std@@@@@priv@stlp_std@@QBE?AU?$_Rb_tree_iterator@U?$pair@QBDPAVIConsole_Command@@@stlp_std@@U?$_ConstMapTraitsT@U?$pair@QBDPAVIConsole_Command@@@stlp_std@@@priv@2@@12@ABQBD@Z
_TEXT	SEGMENT
??$find@PBD@?$_Rb_tree@PBDUstr_pred@CConsole@@U?$pair@QBDPAVIConsole_Command@@@stlp_std@@U?$_Select1st@U?$pair@QBDPAVIConsole_Command@@@stlp_std@@@priv@4@U?$_MapTraitsT@U?$pair@QBDPAVIConsole_Command@@@stlp_std@@@64@V?$xalloc@U?$pair@PBDPAVIConsole_Command@@@stlp_std@@@@@priv@stlp_std@@QBE?AU?$_Rb_tree_iterator@U?$pair@QBDPAVIConsole_Command@@@stlp_std@@U?$_ConstMapTraitsT@U?$pair@QBDPAVIConsole_Command@@@stlp_std@@@priv@2@@12@ABQBD@Z PROC ; stlp_std::priv::_Rb_tree<char const *,CConsole::str_pred,stlp_std::pair<char const * const,IConsole_Command *>,stlp_std::priv::_Select1st<stlp_std::pair<char const * const,IConsole_Command *> >,stlp_std::priv::_MapTraitsT<stlp_std::pair<char const * const,IConsole_Command *> >,xalloc<stlp_std::pair<char const *,IConsole_Command *> > >::find<char const *>, COMDAT
; _this$ = eax
; ___$ReturnUdt$ = esi
; ___k$ = edi

; 540  :   const_iterator find(const _KT& __k) const { return const_iterator(_M_find(__k)); }

	push	eax
	call	??$_M_find@PBD@?$_Rb_tree@PBDUstr_pred@CConsole@@U?$pair@QBDPAVIConsole_Command@@@stlp_std@@U?$_Select1st@U?$pair@QBDPAVIConsole_Command@@@stlp_std@@@priv@4@U?$_MapTraitsT@U?$pair@QBDPAVIConsole_Command@@@stlp_std@@@64@V?$xalloc@U?$pair@PBDPAVIConsole_Command@@@stlp_std@@@@@priv@stlp_std@@ABEPAU_Rb_tree_node_base@12@ABQBD@Z ; stlp_std::priv::_Rb_tree<char const *,CConsole::str_pred,stlp_std::pair<char const * const,IConsole_Command *>,stlp_std::priv::_Select1st<stlp_std::pair<char const * const,IConsole_Command *> >,stlp_std::priv::_MapTraitsT<stlp_std::pair<char const * const,IConsole_Command *> >,xalloc<stlp_std::pair<char const *,IConsole_Command *> > >::_M_find<char const *>
	mov	DWORD PTR [esi], eax
	mov	eax, esi
	ret	0
??$find@PBD@?$_Rb_tree@PBDUstr_pred@CConsole@@U?$pair@QBDPAVIConsole_Command@@@stlp_std@@U?$_Select1st@U?$pair@QBDPAVIConsole_Command@@@stlp_std@@@priv@4@U?$_MapTraitsT@U?$pair@QBDPAVIConsole_Command@@@stlp_std@@@64@V?$xalloc@U?$pair@PBDPAVIConsole_Command@@@stlp_std@@@@@priv@stlp_std@@QBE?AU?$_Rb_tree_iterator@U?$pair@QBDPAVIConsole_Command@@@stlp_std@@U?$_ConstMapTraitsT@U?$pair@QBDPAVIConsole_Command@@@stlp_std@@@priv@2@@12@ABQBD@Z ENDP ; stlp_std::priv::_Rb_tree<char const *,CConsole::str_pred,stlp_std::pair<char const * const,IConsole_Command *>,stlp_std::priv::_Select1st<stlp_std::pair<char const * const,IConsole_Command *> >,stlp_std::priv::_MapTraitsT<stlp_std::pair<char const * const,IConsole_Command *> >,xalloc<stlp_std::pair<char const *,IConsole_Command *> > >::find<char const *>
; Function compile flags: /Ogtpy
; File d:\clearsky\sources\sdk\include\stlport\stl\_map.h
_TEXT	ENDS
;	COMDAT ??$find@PBD@?$map@PBDPAVIConsole_Command@@Ustr_pred@CConsole@@V?$xalloc@U?$pair@PBDPAVIConsole_Command@@@stlp_std@@@@@stlp_std@@QBE?AU?$_Rb_tree_iterator@U?$pair@QBDPAVIConsole_Command@@@stlp_std@@U?$_ConstMapTraitsT@U?$pair@QBDPAVIConsole_Command@@@stlp_std@@@priv@2@@priv@1@ABQBD@Z
_TEXT	SEGMENT
??$find@PBD@?$map@PBDPAVIConsole_Command@@Ustr_pred@CConsole@@V?$xalloc@U?$pair@PBDPAVIConsole_Command@@@stlp_std@@@@@stlp_std@@QBE?AU?$_Rb_tree_iterator@U?$pair@QBDPAVIConsole_Command@@@stlp_std@@U?$_ConstMapTraitsT@U?$pair@QBDPAVIConsole_Command@@@stlp_std@@@priv@2@@priv@1@ABQBD@Z PROC ; stlp_std::map<char const *,IConsole_Command *,CConsole::str_pred,xalloc<stlp_std::pair<char const *,IConsole_Command *> > >::find<char const *>, COMDAT
; _this$ = eax
; ___$ReturnUdt$ = esi
; ___x$ = edi

; 207  :   const_iterator find(const _KT& __x) const { return _M_t.find(__x); }

	push	eax
	call	??$_M_find@PBD@?$_Rb_tree@PBDUstr_pred@CConsole@@U?$pair@QBDPAVIConsole_Command@@@stlp_std@@U?$_Select1st@U?$pair@QBDPAVIConsole_Command@@@stlp_std@@@priv@4@U?$_MapTraitsT@U?$pair@QBDPAVIConsole_Command@@@stlp_std@@@64@V?$xalloc@U?$pair@PBDPAVIConsole_Command@@@stlp_std@@@@@priv@stlp_std@@ABEPAU_Rb_tree_node_base@12@ABQBD@Z ; stlp_std::priv::_Rb_tree<char const *,CConsole::str_pred,stlp_std::pair<char const * const,IConsole_Command *>,stlp_std::priv::_Select1st<stlp_std::pair<char const * const,IConsole_Command *> >,stlp_std::priv::_MapTraitsT<stlp_std::pair<char const * const,IConsole_Command *> >,xalloc<stlp_std::pair<char const *,IConsole_Command *> > >::_M_find<char const *>
	mov	DWORD PTR [esi], eax
	mov	eax, esi
	ret	0
??$find@PBD@?$map@PBDPAVIConsole_Command@@Ustr_pred@CConsole@@V?$xalloc@U?$pair@PBDPAVIConsole_Command@@@stlp_std@@@@@stlp_std@@QBE?AU?$_Rb_tree_iterator@U?$pair@QBDPAVIConsole_Command@@@stlp_std@@U?$_ConstMapTraitsT@U?$pair@QBDPAVIConsole_Command@@@stlp_std@@@priv@2@@priv@1@ABQBD@Z ENDP ; stlp_std::map<char const *,IConsole_Command *,CConsole::str_pred,xalloc<stlp_std::pair<char const *,IConsole_Command *> > >::find<char const *>
_TEXT	ENDS
PUBLIC	?GetCommand@CConsole@@QBEPAVIConsole_Command@@PBD@Z ; CConsole::GetCommand
; Function compile flags: /Ogtpy
; File d:\clearsky\sources\engine\xrengine\xr_ioconsole_get.cpp
;	COMDAT ?GetCommand@CConsole@@QBEPAVIConsole_Command@@PBD@Z
_TEXT	SEGMENT
_cmd$ = 8						; size = 4
?GetCommand@CConsole@@QBEPAVIConsole_Command@@PBD@Z PROC ; CConsole::GetCommand, COMDAT
; _this$ = ecx

; 45   : {

	push	esi
	push	edi

; 46   : 	vecCMD_CIT it = Commands.find( cmd );

	lea	esi, DWORD PTR [ecx+176]
	push	esi
	lea	edi, DWORD PTR _cmd$[esp+8]
	call	??$_M_find@PBD@?$_Rb_tree@PBDUstr_pred@CConsole@@U?$pair@QBDPAVIConsole_Command@@@stlp_std@@U?$_Select1st@U?$pair@QBDPAVIConsole_Command@@@stlp_std@@@priv@4@U?$_MapTraitsT@U?$pair@QBDPAVIConsole_Command@@@stlp_std@@@64@V?$xalloc@U?$pair@PBDPAVIConsole_Command@@@stlp_std@@@@@priv@stlp_std@@ABEPAU_Rb_tree_node_base@12@ABQBD@Z ; stlp_std::priv::_Rb_tree<char const *,CConsole::str_pred,stlp_std::pair<char const * const,IConsole_Command *>,stlp_std::priv::_Select1st<stlp_std::pair<char const * const,IConsole_Command *> >,stlp_std::priv::_MapTraitsT<stlp_std::pair<char const * const,IConsole_Command *> >,xalloc<stlp_std::pair<char const *,IConsole_Command *> > >::_M_find<char const *>
	pop	edi

; 47   : 	if ( it == Commands.end() )

	cmp	eax, esi
	pop	esi
	jne	SHORT $LN2@GetCommand

; 48   : 		return NULL;

	xor	eax, eax

; 51   : }

	ret	4
$LN2@GetCommand:

; 49   : 	else
; 50   : 		return it->second;

	mov	eax, DWORD PTR [eax+20]

; 51   : }

	ret	4
?GetCommand@CConsole@@QBEPAVIConsole_Command@@PBD@Z ENDP ; CConsole::GetCommand
_TEXT	ENDS
PUBLIC	?GetFloat@CConsole@@QBEMPBDAAM1@Z		; CConsole::GetFloat
; Function compile flags: /Ogtpy
;	COMDAT ?GetFloat@CConsole@@QBEMPBDAAM1@Z
_TEXT	SEGMENT
_cmd$ = 8						; size = 4
$T365743 = 12						; size = 4
_min$ = 12						; size = 4
_max$ = 16						; size = 4
?GetFloat@CConsole@@QBEMPBDAAM1@Z PROC			; CConsole::GetFloat, COMDAT
; _this$ = ecx

; 32   : 	min						= 0.0f;

	xorps	xmm0, xmm0

; 33   : 	max						= 0.0f;
; 34   : 	IConsole_Command* cc	= GetCommand(cmd);

	mov	eax, DWORD PTR _cmd$[esp-4]
	push	ebx
	mov	ebx, DWORD PTR _min$[esp]
	push	ebp
	mov	ebp, DWORD PTR _max$[esp+4]
	push	esi
	push	edi
	lea	esi, DWORD PTR [ecx+176]
	movss	DWORD PTR [ebx], xmm0
	push	esi
	lea	edi, DWORD PTR $T365743[esp+16]
	movss	DWORD PTR [ebp], xmm0
	mov	DWORD PTR $T365743[esp+16], eax
	call	??$_M_find@PBD@?$_Rb_tree@PBDUstr_pred@CConsole@@U?$pair@QBDPAVIConsole_Command@@@stlp_std@@U?$_Select1st@U?$pair@QBDPAVIConsole_Command@@@stlp_std@@@priv@4@U?$_MapTraitsT@U?$pair@QBDPAVIConsole_Command@@@stlp_std@@@64@V?$xalloc@U?$pair@PBDPAVIConsole_Command@@@stlp_std@@@@@priv@stlp_std@@ABEPAU_Rb_tree_node_base@12@ABQBD@Z ; stlp_std::priv::_Rb_tree<char const *,CConsole::str_pred,stlp_std::pair<char const * const,IConsole_Command *>,stlp_std::priv::_Select1st<stlp_std::pair<char const * const,IConsole_Command *> >,stlp_std::priv::_MapTraitsT<stlp_std::pair<char const * const,IConsole_Command *> >,xalloc<stlp_std::pair<char const *,IConsole_Command *> > >::_M_find<char const *>
	cmp	eax, esi
	jne	SHORT $LN5@GetFloat
	xor	eax, eax
	jmp	SHORT $LN4@GetFloat
$LN5@GetFloat:
	mov	eax, DWORD PTR [eax+20]
$LN4@GetFloat:

; 35   : 	CCC_Float* cf			= dynamic_cast<CCC_Float*>(cc);

	push	0
	push	OFFSET ??_R0?AVCCC_Float@@@8
	push	OFFSET ??_R0?AVIConsole_Command@@@8
	push	0
	push	eax
	call	___RTDynamicCast
	add	esp, 20					; 00000014H

; 36   : 	if ( cf )

	test	eax, eax
	je	SHORT $LN1@GetFloat

; 37   : 	{
; 38   : 		cf->GetBounds(min, max);

	fld	DWORD PTR [eax+28]
	pop	edi
	fstp	DWORD PTR [ebx]
	pop	esi
	fld	DWORD PTR [eax+32]
	fstp	DWORD PTR [ebp]

; 39   : 		return cf->GetValue(); 

	mov	ecx, DWORD PTR [eax+24]
	fld	DWORD PTR [ecx]
	pop	ebp
	pop	ebx

; 42   : }

	ret	12					; 0000000cH
$LN1@GetFloat:

; 40   : 	}
; 41   : 	return 0.0f;

	fldz
	pop	edi
	pop	esi
	pop	ebp
	pop	ebx

; 42   : }

	ret	12					; 0000000cH
?GetFloat@CConsole@@QBEMPBDAAM1@Z ENDP			; CConsole::GetFloat
_TEXT	ENDS
PUBLIC	?GetBool@CConsole@@QBE_NPBD@Z			; CConsole::GetBool
; Function compile flags: /Ogtpy
;	COMDAT ?GetBool@CConsole@@QBE_NPBD@Z
_TEXT	SEGMENT
$T365844 = 8						; size = 4
_cmd$ = 8						; size = 4
?GetBool@CConsole@@QBE_NPBD@Z PROC			; CConsole::GetBool, COMDAT
; _this$ = ecx

; 15   : 	IConsole_Command* cc	= GetCommand(cmd);

	mov	eax, DWORD PTR _cmd$[esp-4]
	push	esi
	push	edi
	lea	esi, DWORD PTR [ecx+176]
	push	esi
	lea	edi, DWORD PTR $T365844[esp+8]
	mov	DWORD PTR $T365844[esp+8], eax
	call	??$_M_find@PBD@?$_Rb_tree@PBDUstr_pred@CConsole@@U?$pair@QBDPAVIConsole_Command@@@stlp_std@@U?$_Select1st@U?$pair@QBDPAVIConsole_Command@@@stlp_std@@@priv@4@U?$_MapTraitsT@U?$pair@QBDPAVIConsole_Command@@@stlp_std@@@64@V?$xalloc@U?$pair@PBDPAVIConsole_Command@@@stlp_std@@@@@priv@stlp_std@@ABEPAU_Rb_tree_node_base@12@ABQBD@Z ; stlp_std::priv::_Rb_tree<char const *,CConsole::str_pred,stlp_std::pair<char const * const,IConsole_Command *>,stlp_std::priv::_Select1st<stlp_std::pair<char const * const,IConsole_Command *> >,stlp_std::priv::_MapTraitsT<stlp_std::pair<char const * const,IConsole_Command *> >,xalloc<stlp_std::pair<char const *,IConsole_Command *> > >::_M_find<char const *>
	cmp	eax, esi
	jne	SHORT $LN6@GetBool
	xor	esi, esi
	jmp	SHORT $LN5@GetBool
$LN6@GetBool:
	mov	esi, DWORD PTR [eax+20]
$LN5@GetBool:

; 16   : 	CCC_Mask* cf			= dynamic_cast<CCC_Mask*>(cc);

	push	0
	push	OFFSET ??_R0?AVCCC_Mask@@@8
	push	OFFSET ??_R0?AVIConsole_Command@@@8
	push	0
	push	esi
	call	___RTDynamicCast
	add	esp, 20					; 00000014H

; 17   : 	if ( cf )

	test	eax, eax
	je	SHORT $LN2@GetBool

; 18   : 	{
; 19   : 		return ( cf->GetValue() != 0 );

	mov	ecx, DWORD PTR [eax+28]
	push	ecx
	mov	ecx, DWORD PTR [eax+24]
	call	?test@?$_flags@I@@QBEHI@Z		; _flags<unsigned int>::test
	neg	eax
	sbb	eax, eax
	pop	edi
	neg	eax
	pop	esi

; 28   : }

	ret	4
$LN2@GetBool:

; 20   : 	}
; 21   : 
; 22   : 	CCC_Integer* ci			= dynamic_cast<CCC_Integer*>(cc);

	push	0
	push	OFFSET ??_R0?AVCCC_Integer@@@8
	push	OFFSET ??_R0?AVIConsole_Command@@@8
	push	0
	push	esi
	call	___RTDynamicCast
	add	esp, 20					; 00000014H

; 23   : 	if ( ci )

	test	eax, eax
	je	SHORT $LN1@GetBool

; 24   : 	{
; 25   : 		return ( ci->GetValue() != 0 );

	mov	edx, DWORD PTR [eax+24]
	xor	eax, eax
	cmp	DWORD PTR [edx], eax
	pop	edi
	setne	al
	pop	esi

; 28   : }

	ret	4
$LN1@GetBool:
	pop	edi

; 26   : 	}
; 27   : 	return false;

	xor	al, al
	pop	esi

; 28   : }

	ret	4
?GetBool@CConsole@@QBE_NPBD@Z ENDP			; CConsole::GetBool
PUBLIC	?GetFVectorPtr@CConsole@@QBEPAU?$_vector3@M@@PBD@Z ; CConsole::GetFVectorPtr
; Function compile flags: /Ogtpy
;	COMDAT ?GetFVectorPtr@CConsole@@QBEPAU?$_vector3@M@@PBD@Z
_TEXT	SEGMENT
$T433333 = 8						; size = 4
_cmd$ = 8						; size = 4
?GetFVectorPtr@CConsole@@QBEPAU?$_vector3@M@@PBD@Z PROC	; CConsole::GetFVectorPtr, COMDAT
; _this$ = ecx

; 106  : 	IConsole_Command* cc	= GetCommand(cmd);

	mov	eax, DWORD PTR _cmd$[esp-4]
	push	esi
	push	edi
	lea	esi, DWORD PTR [ecx+176]
	push	esi
	lea	edi, DWORD PTR $T433333[esp+8]
	mov	DWORD PTR $T433333[esp+8], eax
	call	??$_M_find@PBD@?$_Rb_tree@PBDUstr_pred@CConsole@@U?$pair@QBDPAVIConsole_Command@@@stlp_std@@U?$_Select1st@U?$pair@QBDPAVIConsole_Command@@@stlp_std@@@priv@4@U?$_MapTraitsT@U?$pair@QBDPAVIConsole_Command@@@stlp_std@@@64@V?$xalloc@U?$pair@PBDPAVIConsole_Command@@@stlp_std@@@@@priv@stlp_std@@ABEPAU_Rb_tree_node_base@12@ABQBD@Z ; stlp_std::priv::_Rb_tree<char const *,CConsole::str_pred,stlp_std::pair<char const * const,IConsole_Command *>,stlp_std::priv::_Select1st<stlp_std::pair<char const * const,IConsole_Command *> >,stlp_std::priv::_MapTraitsT<stlp_std::pair<char const * const,IConsole_Command *> >,xalloc<stlp_std::pair<char const *,IConsole_Command *> > >::_M_find<char const *>
	pop	edi
	cmp	eax, esi
	pop	esi
	jne	SHORT $LN5@GetFVector
	xor	eax, eax
	jmp	SHORT $LN4@GetFVector
$LN5@GetFVector:
	mov	eax, DWORD PTR [eax+20]
$LN4@GetFVector:

; 107  : 	CCC_Vector3* cf			= dynamic_cast<CCC_Vector3*>(cc);

	push	0
	push	OFFSET ??_R0?AVCCC_Vector3@@@8
	push	OFFSET ??_R0?AVIConsole_Command@@@8
	push	0
	push	eax
	call	___RTDynamicCast
	add	esp, 20					; 00000014H

; 108  : 	if ( cf )

	test	eax, eax
	je	SHORT $LN1@GetFVector

; 109  : 	{
; 110  : 		return cf->GetValuePtr();

	mov	eax, DWORD PTR [eax+24]

; 113  : }

	ret	4
$LN1@GetFVector:

; 111  : 	}
; 112  : 	return					NULL;

	xor	eax, eax

; 113  : }

	ret	4
?GetFVectorPtr@CConsole@@QBEPAU?$_vector3@M@@PBD@Z ENDP	; CConsole::GetFVectorPtr
_TEXT	ENDS
PUBLIC	?GetXRToken@CConsole@@QBEPAUxr_token@@PBD@Z	; CConsole::GetXRToken
; Function compile flags: /Ogtpy
;	COMDAT ?GetXRToken@CConsole@@QBEPAUxr_token@@PBD@Z
_TEXT	SEGMENT
$T433431 = 8						; size = 4
_cmd$ = 8						; size = 4
?GetXRToken@CConsole@@QBEPAUxr_token@@PBD@Z PROC	; CConsole::GetXRToken, COMDAT
; _this$ = ecx

; 94   : 	IConsole_Command* cc	= GetCommand(cmd);

	mov	eax, DWORD PTR _cmd$[esp-4]
	push	esi
	push	edi
	lea	esi, DWORD PTR [ecx+176]
	push	esi
	lea	edi, DWORD PTR $T433431[esp+8]
	mov	DWORD PTR $T433431[esp+8], eax
	call	??$_M_find@PBD@?$_Rb_tree@PBDUstr_pred@CConsole@@U?$pair@QBDPAVIConsole_Command@@@stlp_std@@U?$_Select1st@U?$pair@QBDPAVIConsole_Command@@@stlp_std@@@priv@4@U?$_MapTraitsT@U?$pair@QBDPAVIConsole_Command@@@stlp_std@@@64@V?$xalloc@U?$pair@PBDPAVIConsole_Command@@@stlp_std@@@@@priv@stlp_std@@ABEPAU_Rb_tree_node_base@12@ABQBD@Z ; stlp_std::priv::_Rb_tree<char const *,CConsole::str_pred,stlp_std::pair<char const * const,IConsole_Command *>,stlp_std::priv::_Select1st<stlp_std::pair<char const * const,IConsole_Command *> >,stlp_std::priv::_MapTraitsT<stlp_std::pair<char const * const,IConsole_Command *> >,xalloc<stlp_std::pair<char const *,IConsole_Command *> > >::_M_find<char const *>
	pop	edi
	cmp	eax, esi
	pop	esi
	jne	SHORT $LN5@GetXRToken
	xor	eax, eax
	jmp	SHORT $LN4@GetXRToken
$LN5@GetXRToken:
	mov	eax, DWORD PTR [eax+20]
$LN4@GetXRToken:

; 95   : 	
; 96   : 	CCC_Token* cf			= dynamic_cast<CCC_Token*>(cc);

	push	0
	push	OFFSET ??_R0?AVCCC_Token@@@8
	push	OFFSET ??_R0?AVIConsole_Command@@@8
	push	0
	push	eax
	call	___RTDynamicCast
	add	esp, 20					; 00000014H

; 97   : 	if ( cf )

	test	eax, eax
	je	SHORT $LN1@GetXRToken

; 98   : 	{
; 99   : 		return cf->GetToken();

	mov	edx, DWORD PTR [eax]
	mov	ecx, eax
	mov	eax, DWORD PTR [edx+28]
	call	eax

; 102  : }

	ret	4
$LN1@GetXRToken:

; 100  : 	}
; 101  : 	return					NULL;

	xor	eax, eax

; 102  : }

	ret	4
?GetXRToken@CConsole@@QBEPAUxr_token@@PBD@Z ENDP	; CConsole::GetXRToken
_TEXT	ENDS
PUBLIC	?GetString@CConsole@@QBEPBDPBD@Z		; CConsole::GetString
;	COMDAT ?stat@?3??GetString@CConsole@@QBEPBDPBD@Z@4PADA
; File d:\clearsky\sources\sdk\include\stlport\stl\_tree.h
_BSS	SEGMENT
?stat@?3??GetString@CConsole@@QBEPBDPBD@Z@4PADA DB 0100H DUP (?) ; `CConsole::GetString'::`4'::stat
; Function compile flags: /Ogtpy
; File d:\clearsky\sources\engine\xrengine\xr_ioconsole_get.cpp
_BSS	ENDS
;	COMDAT ?GetString@CConsole@@QBEPBDPBD@Z
_TEXT	SEGMENT
$T433525 = 8						; size = 4
_cmd$ = 8						; size = 4
?GetString@CConsole@@QBEPBDPBD@Z PROC			; CConsole::GetString, COMDAT
; _this$ = ecx

; 78   : 	IConsole_Command* cc	= GetCommand(cmd);

	mov	eax, DWORD PTR _cmd$[esp-4]
	push	esi
	push	edi
	lea	esi, DWORD PTR [ecx+176]
	push	esi
	lea	edi, DWORD PTR $T433525[esp+8]
	mov	DWORD PTR $T433525[esp+8], eax
	call	??$_M_find@PBD@?$_Rb_tree@PBDUstr_pred@CConsole@@U?$pair@QBDPAVIConsole_Command@@@stlp_std@@U?$_Select1st@U?$pair@QBDPAVIConsole_Command@@@stlp_std@@@priv@4@U?$_MapTraitsT@U?$pair@QBDPAVIConsole_Command@@@stlp_std@@@64@V?$xalloc@U?$pair@PBDPAVIConsole_Command@@@stlp_std@@@@@priv@stlp_std@@ABEPAU_Rb_tree_node_base@12@ABQBD@Z ; stlp_std::priv::_Rb_tree<char const *,CConsole::str_pred,stlp_std::pair<char const * const,IConsole_Command *>,stlp_std::priv::_Select1st<stlp_std::pair<char const * const,IConsole_Command *> >,stlp_std::priv::_MapTraitsT<stlp_std::pair<char const * const,IConsole_Command *> >,xalloc<stlp_std::pair<char const *,IConsole_Command *> > >::_M_find<char const *>
	pop	edi
	cmp	eax, esi
	pop	esi
	je	SHORT $LN30@GetString
	mov	ecx, DWORD PTR [eax+20]

; 79   : 	if(!cc)

	test	ecx, ecx
	jne	SHORT $LN1@GetString
$LN30@GetString:

; 80   : 		return				NULL;

	xor	eax, eax

; 85   : }

	ret	4
$LN1@GetString:

; 81   : 
; 82   : 	static IConsole_Command::TStatus stat;
; 83   : 	cc->Status				( stat );

	mov	edx, DWORD PTR [ecx]
	mov	eax, DWORD PTR [edx+8]
	push	OFFSET ?stat@?3??GetString@CConsole@@QBEPBDPBD@Z@4PADA
	call	eax

; 84   : 	return					stat;

	mov	eax, OFFSET ?stat@?3??GetString@CConsole@@QBEPBDPBD@Z@4PADA

; 85   : }

	ret	4
?GetString@CConsole@@QBEPBDPBD@Z ENDP			; CConsole::GetString
_TEXT	ENDS
PUBLIC	?GetInteger@CConsole@@QBEHPBDAAH1@Z		; CConsole::GetInteger
; Function compile flags: /Ogtpy
;	COMDAT ?GetInteger@CConsole@@QBEHPBDAAH1@Z
_TEXT	SEGMENT
_cmd$ = 8						; size = 4
$T433620 = 12						; size = 4
_min$ = 12						; size = 4
_max$ = 16						; size = 4
?GetInteger@CConsole@@QBEHPBDAAH1@Z PROC		; CConsole::GetInteger, COMDAT
; _this$ = ecx

; 56   : 	min						= 0;
; 57   : 	max						= 1;
; 58   : 	IConsole_Command* cc	= GetCommand(cmd);

	mov	eax, DWORD PTR _cmd$[esp-4]
	push	ebx
	mov	ebx, DWORD PTR _min$[esp]
	push	ebp
	mov	ebp, DWORD PTR _max$[esp+4]
	push	esi
	push	edi
	lea	esi, DWORD PTR [ecx+176]
	mov	DWORD PTR [ebx], 0
	push	esi
	lea	edi, DWORD PTR $T433620[esp+16]
	mov	DWORD PTR [ebp], 1
	mov	DWORD PTR $T433620[esp+16], eax
	call	??$_M_find@PBD@?$_Rb_tree@PBDUstr_pred@CConsole@@U?$pair@QBDPAVIConsole_Command@@@stlp_std@@U?$_Select1st@U?$pair@QBDPAVIConsole_Command@@@stlp_std@@@priv@4@U?$_MapTraitsT@U?$pair@QBDPAVIConsole_Command@@@stlp_std@@@64@V?$xalloc@U?$pair@PBDPAVIConsole_Command@@@stlp_std@@@@@priv@stlp_std@@ABEPAU_Rb_tree_node_base@12@ABQBD@Z ; stlp_std::priv::_Rb_tree<char const *,CConsole::str_pred,stlp_std::pair<char const * const,IConsole_Command *>,stlp_std::priv::_Select1st<stlp_std::pair<char const * const,IConsole_Command *> >,stlp_std::priv::_MapTraitsT<stlp_std::pair<char const * const,IConsole_Command *> >,xalloc<stlp_std::pair<char const *,IConsole_Command *> > >::_M_find<char const *>
	cmp	eax, esi
	jne	SHORT $LN6@GetInteger
	xor	esi, esi
	jmp	SHORT $LN5@GetInteger
$LN6@GetInteger:
	mov	esi, DWORD PTR [eax+20]
$LN5@GetInteger:

; 59   : 
; 60   : 	CCC_Integer* cf			= dynamic_cast<CCC_Integer*>(cc);

	push	0
	push	OFFSET ??_R0?AVCCC_Integer@@@8
	push	OFFSET ??_R0?AVIConsole_Command@@@8
	push	0
	push	esi
	call	___RTDynamicCast
	add	esp, 20					; 00000014H

; 61   : 	if ( cf )

	test	eax, eax
	je	SHORT $LN2@GetInteger

; 62   : 	{
; 63   : 		cf->GetBounds(min, max);

	mov	ecx, DWORD PTR [eax+28]
	mov	DWORD PTR [ebx], ecx
	mov	edx, DWORD PTR [eax+32]
	pop	edi
	mov	DWORD PTR [ebp], edx

; 64   : 		return cf->GetValue();

	mov	eax, DWORD PTR [eax+24]
	mov	eax, DWORD PTR [eax]
	pop	esi
	pop	ebp
	pop	ebx

; 74   : }

	ret	12					; 0000000cH
$LN2@GetInteger:

; 65   : 	}
; 66   : 	CCC_Mask* cm = dynamic_cast<CCC_Mask*>(cc);

	push	0
	push	OFFSET ??_R0?AVCCC_Mask@@@8
	push	OFFSET ??_R0?AVIConsole_Command@@@8
	push	0
	push	esi
	call	___RTDynamicCast
	add	esp, 20					; 00000014H

; 67   : 	if ( cm )

	test	eax, eax
	je	SHORT $LN1@GetInteger

; 68   : 	{
; 69   : 		min = 0;

	mov	DWORD PTR [ebx], 0

; 70   : 		max = 1;

	mov	DWORD PTR [ebp], 1

; 71   : 		return ( cm->GetValue() )? 1 : 0;

	mov	ecx, DWORD PTR [eax+28]
	push	ecx
	mov	ecx, DWORD PTR [eax+24]
	call	?test@?$_flags@I@@QBEHI@Z		; _flags<unsigned int>::test
	pop	edi
	neg	eax
	pop	esi
	sbb	eax, eax
	pop	ebp
	neg	eax
	pop	ebx

; 74   : }

	ret	12					; 0000000cH
$LN1@GetInteger:
	pop	edi
	pop	esi
	pop	ebp

; 72   : 	}
; 73   : 	return 0;

	xor	eax, eax
	pop	ebx

; 74   : }

	ret	12					; 0000000cH
?GetInteger@CConsole@@QBEHPBDAAH1@Z ENDP		; CConsole::GetInteger
PUBLIC	?GetFVector@CConsole@@QBE?AU?$_vector3@M@@PBD@Z	; CConsole::GetFVector
; Function compile flags: /Ogtpy
;	COMDAT ?GetFVector@CConsole@@QBE?AU?$_vector3@M@@PBD@Z
_TEXT	SEGMENT
$T487850 = -12						; size = 12
___$ReturnUdt$ = 8					; size = 4
$T487942 = 12						; size = 4
_cmd$ = 12						; size = 4
?GetFVector@CConsole@@QBE?AU?$_vector3@M@@PBD@Z PROC	; CConsole::GetFVector, COMDAT
; _this$ = ecx

; 116  : {

	sub	esp, 12					; 0000000cH

; 117  : 	Fvector* pV = GetFVectorPtr( cmd );

	mov	eax, DWORD PTR _cmd$[esp+8]
	push	esi
	push	edi
	lea	esi, DWORD PTR [ecx+176]
	push	esi
	lea	edi, DWORD PTR $T487942[esp+20]
	mov	DWORD PTR $T487942[esp+20], eax
	call	??$_M_find@PBD@?$_Rb_tree@PBDUstr_pred@CConsole@@U?$pair@QBDPAVIConsole_Command@@@stlp_std@@U?$_Select1st@U?$pair@QBDPAVIConsole_Command@@@stlp_std@@@priv@4@U?$_MapTraitsT@U?$pair@QBDPAVIConsole_Command@@@stlp_std@@@64@V?$xalloc@U?$pair@PBDPAVIConsole_Command@@@stlp_std@@@@@priv@stlp_std@@ABEPAU_Rb_tree_node_base@12@ABQBD@Z ; stlp_std::priv::_Rb_tree<char const *,CConsole::str_pred,stlp_std::pair<char const * const,IConsole_Command *>,stlp_std::priv::_Select1st<stlp_std::pair<char const * const,IConsole_Command *> >,stlp_std::priv::_MapTraitsT<stlp_std::pair<char const * const,IConsole_Command *> >,xalloc<stlp_std::pair<char const *,IConsole_Command *> > >::_M_find<char const *>
	pop	edi
	cmp	eax, esi
	pop	esi
	jne	SHORT $LN8@GetFVector@2
	xor	eax, eax
	jmp	SHORT $LN7@GetFVector@2
$LN8@GetFVector@2:
	mov	eax, DWORD PTR [eax+20]
$LN7@GetFVector@2:
	push	0
	push	OFFSET ??_R0?AVCCC_Vector3@@@8
	push	OFFSET ??_R0?AVIConsole_Command@@@8
	push	0
	push	eax
	call	___RTDynamicCast
	add	esp, 20					; 00000014H
	test	eax, eax
	je	SHORT $LN1@GetFVector@2
	mov	ecx, DWORD PTR [eax+24]

; 118  : 	if ( pV )

	test	ecx, ecx
	je	SHORT $LN1@GetFVector@2

; 119  : 	{
; 120  : 		return *pV;

	mov	edx, DWORD PTR [ecx]
	mov	eax, DWORD PTR ___$ReturnUdt$[esp+8]
	mov	DWORD PTR [eax], edx
	mov	edx, DWORD PTR [ecx+4]
	mov	ecx, DWORD PTR [ecx+8]
	mov	DWORD PTR [eax+4], edx
	mov	DWORD PTR [eax+8], ecx

; 123  : }

	add	esp, 12					; 0000000cH
	ret	8
$LN1@GetFVector@2:

; 121  : 	}
; 122  : 	return Fvector().set( 0.0f, 0.0f, 0.0f );

	xorps	xmm0, xmm0
	xor	eax, eax
	mov	DWORD PTR $T487850[esp+12], eax
	mov	DWORD PTR $T487850[esp+16], eax
	mov	DWORD PTR $T487850[esp+20], eax
	mov	eax, DWORD PTR ___$ReturnUdt$[esp+8]
	movss	DWORD PTR $T487850[esp+12], xmm0
	mov	edx, DWORD PTR $T487850[esp+12]
	mov	DWORD PTR [eax], edx
	movss	DWORD PTR $T487850[esp+16], xmm0
	mov	ecx, DWORD PTR $T487850[esp+16]
	movss	DWORD PTR $T487850[esp+20], xmm0
	mov	edx, DWORD PTR $T487850[esp+20]
	mov	DWORD PTR [eax+4], ecx
	mov	DWORD PTR [eax+8], edx

; 123  : }

	add	esp, 12					; 0000000cH
	ret	8
?GetFVector@CConsole@@QBE?AU?$_vector3@M@@PBD@Z ENDP	; CConsole::GetFVector
_TEXT	ENDS
PUBLIC	?GetToken@CConsole@@QBEPBDPBD@Z			; CConsole::GetToken
; Function compile flags: /Ogtpy
;	COMDAT ?GetToken@CConsole@@QBEPBDPBD@Z
_TEXT	SEGMENT
$T488079 = 8						; size = 4
_cmd$ = 8						; size = 4
?GetToken@CConsole@@QBEPBDPBD@Z PROC			; CConsole::GetToken, COMDAT
; _this$ = ecx

; 89   : 	return GetString( cmd );

	mov	eax, DWORD PTR _cmd$[esp-4]
	push	esi
	push	edi
	lea	esi, DWORD PTR [ecx+176]
	push	esi
	lea	edi, DWORD PTR $T488079[esp+8]
	mov	DWORD PTR $T488079[esp+8], eax
	call	??$_M_find@PBD@?$_Rb_tree@PBDUstr_pred@CConsole@@U?$pair@QBDPAVIConsole_Command@@@stlp_std@@U?$_Select1st@U?$pair@QBDPAVIConsole_Command@@@stlp_std@@@priv@4@U?$_MapTraitsT@U?$pair@QBDPAVIConsole_Command@@@stlp_std@@@64@V?$xalloc@U?$pair@PBDPAVIConsole_Command@@@stlp_std@@@@@priv@stlp_std@@ABEPAU_Rb_tree_node_base@12@ABQBD@Z ; stlp_std::priv::_Rb_tree<char const *,CConsole::str_pred,stlp_std::pair<char const * const,IConsole_Command *>,stlp_std::priv::_Select1st<stlp_std::pair<char const * const,IConsole_Command *> >,stlp_std::priv::_MapTraitsT<stlp_std::pair<char const * const,IConsole_Command *> >,xalloc<stlp_std::pair<char const *,IConsole_Command *> > >::_M_find<char const *>
	pop	edi
	cmp	eax, esi
	pop	esi
	je	SHORT $LN32@GetToken
	mov	ecx, DWORD PTR [eax+20]
	test	ecx, ecx
	jne	SHORT $LN3@GetToken
$LN32@GetToken:
	xor	eax, eax

; 90   : }

	ret	4

; 89   : 	return GetString( cmd );

$LN3@GetToken:
	mov	edx, DWORD PTR [ecx]
	mov	eax, DWORD PTR [edx+8]
	push	OFFSET ?stat@?3??GetString@CConsole@@QBEPBDPBD@Z@4PADA
	call	eax
	mov	eax, OFFSET ?stat@?3??GetString@CConsole@@QBEPBDPBD@Z@4PADA

; 90   : }

	ret	4
?GetToken@CConsole@@QBEPBDPBD@Z ENDP			; CConsole::GetToken
END
