; Listing generated by Microsoft (R) Optimizing Compiler Version 14.00.50727.762 

	TITLE	D:\CLEARSKY\sources\engine\xrEngine\xrHemisphere.cpp
	.686P
	.XMM
	include listing.inc
	.model	flat

INCLUDELIB OLDNAMES

PUBLIC	??A?$_vector3@M@@QBEAAMH@Z			; _vector3<float>::operator[]
_hemi_1	DD	03f06963er			; 0.52573
	DD	03f59c487r			; 0.850655
	DD	080000000r			; -0
	DD	03e265bear			; 0.16246
	DD	03f59c487r			; 0.850655
	DD	03f000000r			; 0.5
	DD	000000000r			; 0
	DD	03f800000r			; 1
	DD	080000000r			; -0
	DD	0bed9c411r			; -0.425324
	DD	03f59c487r			; 0.850655
	DD	03e9e3737r			; 0.309015
	DD	0bed9c411r			; -0.425324
	DD	03f59c487r			; 0.850655
	DD	0be9e377ar			; -0.309017
	DD	03e265bear			; 0.16246
	DD	03f59c487r			; 0.850655
	DD	0bf000000r			; -0.5
	DD	03f302d7br			; 0.688194
	DD	03f06963er			; 0.52573
	DD	03f000000r			; 0.5
	DD	0be86963er			; -0.262865
	DD	03f06963er			; 0.52573
	DD	03f4f1b7ar			; 0.809013
	DD	0bf59c400r			; -0.850647
	DD	03f06963er			; 0.52573
	DD	0b58637bdr			; -1e-006
	DD	0be86963er			; -0.262865
	DD	03f06963er			; 0.52573
	DD	0bf4f1c00r			; -0.809021
	DD	03f302d7br			; 0.688194
	DD	03f06963er			; 0.52573
	DD	0bf000000r			; -0.5
	DD	03f64f8f9r			; 0.894424
	DD	03ee4f8f9r			; 0.447212
	DD	080000000r			; -0
	DD	03e8d8384r			; 0.276394
	DD	03ee4f8f9r			; 0.447212
	DD	03f59c400r			; 0.850647
	DD	0bf393e81r			; -0.72361
	DD	03ee4f8f9r			; 0.447212
	DD	03f06963er			; 0.52573
	DD	0bf393e81r			; -0.72361
	DD	03ee4f8f9r			; 0.447212
	DD	0bf069681r			; -0.525734
	DD	03e8d8384r			; 0.276394
	DD	03ee4f8f9r			; 0.447212
	DD	0bf59c487r			; -0.850655
	DD	03f737879r			; 0.951057
	DD	000000000r			; 0
	DD	03e9e377ar			; 0.309017
	DD	03f167946r			; 0.587788
	DD	000000000r			; 0
	DD	03f4f1b7ar			; 0.809013
	DD	000000000r			; 0
	DD	000000000r			; 0
	DD	03f800000r			; 1
	DD	0bf167903r			; -0.587784
	DD	000000000r			; 0
	DD	03f4f1b7ar			; 0.809013
	DD	0bf737879r			; -0.951057
	DD	000000000r			; 0
	DD	03e9e3737r			; 0.309015
	DD	0bf737879r			; -0.951057
	DD	000000000r			; 0
	DD	0be9e377ar			; -0.309017
	DD	0bf167903r			; -0.587784
	DD	000000000r			; 0
	DD	0bf4f1c00r			; -0.809021
	DD	000000000r			; 0
	DD	000000000r			; 0
	DD	0bf800000r			; -1
	DD	03f167946r			; 0.587788
	DD	000000000r			; 0
	DD	0bf4f1b7ar			; -0.809013
	DD	03f737879r			; 0.951057
	DD	000000000r			; 0
	DD	0be9e377ar			; -0.309017
_hemi_1v DW	00H
	DW	01H
	DW	02H
	DW	01H
	DW	03H
	DW	02H
	DW	03H
	DW	04H
	DW	02H
	DW	04H
	DW	05H
	DW	02H
	DW	05H
	DW	00H
	DW	02H
	DW	01H
	DW	00H
	DW	06H
	DW	03H
	DW	01H
	DW	07H
	DW	04H
	DW	03H
	DW	08H
	DW	05H
	DW	04H
	DW	09H
	DW	00H
	DW	05H
	DW	0aH
	DW	0aH
	DW	0bH
	DW	00H
	DW	0bH
	DW	06H
	DW	00H
	DW	06H
	DW	0cH
	DW	01H
	DW	0cH
	DW	07H
	DW	01H
	DW	07H
	DW	0dH
	DW	03H
	DW	0dH
	DW	08H
	DW	03H
	DW	08H
	DW	0eH
	DW	04H
	DW	0eH
	DW	09H
	DW	04H
	DW	09H
	DW	0fH
	DW	05H
	DW	0fH
	DW	0aH
	DW	05H
	DW	06H
	DW	0bH
	DW	010H
	DW	0cH
	DW	06H
	DW	011H
	DW	07H
	DW	0cH
	DW	012H
	DW	0dH
	DW	07H
	DW	013H
	DW	08H
	DW	0dH
	DW	014H
	DW	0eH
	DW	08H
	DW	015H
	DW	09H
	DW	0eH
	DW	016H
	DW	0fH
	DW	09H
	DW	017H
	DW	0aH
	DW	0fH
	DW	018H
	DW	0bH
	DW	0aH
	DW	019H
	DW	019H
	DW	010H
	DW	0bH
	DW	010H
	DW	011H
	DW	06H
	DW	011H
	DW	012H
	DW	0cH
	DW	012H
	DW	013H
	DW	07H
	DW	013H
	DW	014H
	DW	0dH
	DW	014H
	DW	015H
	DW	08H
	DW	015H
	DW	016H
	DW	0eH
	DW	016H
	DW	017H
	DW	09H
	DW	017H
	DW	018H
	DW	0fH
	DW	018H
	DW	019H
	DW	0aH
_hemi_2	DD	03e8be9c9r			; 0.273268
	DD	03f764181r			; 0.961937
	DD	080000000r			; -0
	DD	03dacf0far			; 0.084444
	DD	03f764181r			; 0.961937
	DD	03e851090r			; 0.259892
	DD	000000000r			; 0
	DD	03f800000r			; 1
	DD	080000000r			; -0
	DD	03f06963er			; 0.52573
	DD	03f59c487r			; 0.850655
	DD	080000000r			; -0
	DD	03eb93e81r			; 0.361805
	DD	03f64f8f9r			; 0.894424
	DD	03e86963er			; 0.262865
	DD	03e265bear			; 0.16246
	DD	03f59c487r			; 0.850655
	DD	03f000000r			; 0.5
	DD	0be626202r			; -0.221077
	DD	03f764181r			; 0.961937
	DD	03e247a18r			; 0.160622
	DD	0be0d8341r			; -0.138196
	DD	03f64f8f9r			; 0.894424
	DD	03ed9c411r			; 0.425324
	DD	0bed9c411r			; -0.425324
	DD	03f59c487r			; 0.850655
	DD	03e9e3737r			; 0.309015
	DD	0be626202r			; -0.221077
	DD	03f764181r			; 0.961937
	DD	0be247a5br			; -0.160623
	DD	0bee4f8f9r			; -0.447212
	DD	03f64f8f9r			; 0.894424
	DD	0b58637bdr			; -1e-006
	DD	0bed9c411r			; -0.425324
	DD	03f59c487r			; 0.850655
	DD	0be9e377ar			; -0.309017
	DD	03dacf180r			; 0.084445
	DD	03f764181r			; 0.961937
	DD	0be851090r			; -0.259892
	DD	0be0d8341r			; -0.138196
	DD	03f64f8f9r			; 0.894424
	DD	0bed9c476r			; -0.425327
	DD	03e265bear			; 0.16246
	DD	03f59c487r			; 0.850655
	DD	0bf000000r			; -0.5
	DD	03eb93e81r			; 0.361805
	DD	03f64f8f9r			; 0.894424
	DD	0be86963er			; -0.262865
	DD	03ee4f8f9r			; 0.447212
	DD	03f393e81r			; 0.72361
	DD	03f06963er			; 0.52573
	DD	03f2360bfr			; 0.638195
	DD	03f393e81r			; 0.72361
	DD	03e86963er			; 0.262865
	DD	03f302d7br			; 0.688194
	DD	03f06963er			; 0.52573
	DD	03f000000r			; 0.5
	DD	0beb93dfbr			; -0.361801
	DD	03f393e81r			; 0.72361
	DD	03f167903r			; 0.587784
	DD	0bd583622r			; -0.052786
	DD	03f393e81r			; 0.72361
	DD	03f302d06r			; 0.688187
	DD	0be86963er			; -0.262865
	DD	03f06963er			; 0.52573
	DD	03f4f1b7ar			; 0.809013
	DD	0bf2bbafer			; -0.670822
	DD	03f393e81r			; 0.72361
	DD	0be265bear			; -0.16246
	DD	0bf2bbafer			; -0.670822
	DD	03f393e81r			; 0.72361
	DD	03e265b64r			; 0.162458
	DD	0bf59c400r			; -0.850647
	DD	03f06963er			; 0.52573
	DD	0b58637bdr			; -1e-006
	DD	0bd583622r			; -0.052786
	DD	03f393e81r			; 0.72361
	DD	0bf302d7br			; -0.688194
	DD	0beb93dfbr			; -0.361801
	DD	03f393e81r			; 0.72361
	DD	0bf167946r			; -0.587788
	DD	0be86963er			; -0.262865
	DD	03f06963er			; 0.52573
	DD	0bf4f1c00r			; -0.809021
	DD	03f2360bfr			; 0.638195
	DD	03f393e81r			; 0.72361
	DD	0be86963er			; -0.262865
	DD	03ee4f8f9r			; 0.447212
	DD	03f393e81r			; 0.72361
	DD	0bf069681r			; -0.525734
	DD	03f302d7br			; 0.688194
	DD	03f06963er			; 0.52573
	DD	0bf000000r			; -0.5
	DD	03f3cf8f9r			; 0.738174
	DD	03f2cb2fbr			; 0.674606
	DD	080000000r			; -0
	DD	03f529707r			; 0.822617
	DD	03f0176ffr			; 0.505722
	DD	0be851090r			; -0.259892
	DD	03f64f8f9r			; 0.894424
	DD	03ee4f8f9r			; 0.447212
	DD	080000000r			; -0
	DD	03f529707r			; 0.822617
	DD	03f0176ffr			; 0.505722
	DD	03e851090r			; 0.259892
	DD	03e699568r			; 0.228109
	DD	03f2cb2fbr			; 0.674606
	DD	03f33b97cr			; 0.702049
	DD	03f005a3er			; 0.501377
	DD	03f0176ffr			; 0.505722
	DD	03f33b97cr			; 0.702049
	DD	03e8d8384r			; 0.276394
	DD	03ee4f8f9r			; 0.447212
	DD	03f59c400r			; 0.850647
	DD	03be66cb1r			; 0.007032
	DD	03f0176ffr			; 0.505722
	DD	03f5cd802r			; 0.862671
	DD	0bf18e1c6r			; -0.597195
	DD	03f2cb2fbr			; 0.674606
	DD	03ede2670r			; 0.433887
	DD	0bf0343b7r			; -0.512752
	DD	03f0176ffr			; 0.505722
	DD	03f319b80r			; 0.693779
	DD	0bf393dfbr			; -0.723602
	DD	03ee4f8f9r			; 0.447212
	DD	03f06963er			; 0.52573
	DD	0bf517a78r			; -0.818275
	DD	03f0176ffr			; 0.505722
	DD	03e8be985r			; 0.273266
	DD	0bf18e1c6r			; -0.597195
	DD	03f2cb2fbr			; 0.674606
	DD	0bede2670r			; -0.433887
	DD	0bf517a78r			; -0.818275
	DD	03f0176ffr			; 0.505722
	DD	0be8be9c9r			; -0.273268
	DD	0bf393dfbr			; -0.723602
	DD	03ee4f8f9r			; 0.447212
	DD	0bf069681r			; -0.525734
	DD	0bf0343c8r			; -0.512753
	DD	03f0176ffr			; 0.505722
	DD	0bf319b80r			; -0.693779
	DD	03e699568r			; 0.228109
	DD	03f2cb2fbr			; 0.674606
	DD	0bf33b97cr			; -0.702049
	DD	03be66cb1r			; 0.007032
	DD	03f0176ffr			; 0.505722
	DD	0bf5cd802r			; -0.862671
	DD	03e8d8384r			; 0.276394
	DD	03ee4f8f9r			; 0.447212
	DD	0bf59c487r			; -0.850655
	DD	03f005a3er			; 0.501377
	DD	03f0176ffr			; 0.505722
	DD	0bf33b97cr			; -0.702049
	DD	03f5c9efer			; 0.861801
	DD	03e8d8384r			; 0.276394
	DD	03ed9c3f0r			; 0.425323
	DD	03f759179r			; 0.959251
	DD	03e6e086cr			; 0.232454
	DD	03e247a18r			; 0.160622
	DD	03f737879r			; 0.951057
	DD	000000000r			; 0
	DD	03e9e377ar			; 0.309017
	DD	03ee5fb72r			; 0.449184
	DD	03e6e086cr			; 0.232454
	DD	03f5cd802r			; 0.862671
	DD	03f2bbafer			; 0.670822
	DD	03e8d8384r			; 0.276394
	DD	03f302d06r			; 0.688187
	DD	03f167946r			; 0.587788
	DD	000000000r			; 0
	DD	03f4f1b7ar			; 0.809013
	DD	0be0d8341r			; -0.138196
	DD	03e8d8384r			; 0.276394
	DD	03f737879r			; 0.951057
	DD	03e131cebr			; 0.143665
	DD	03e6e086cr			; 0.232454
	DD	03f764181r			; 0.961937
	DD	000000000r			; 0
	DD	000000000r			; 0
	DD	03f800000r			; 1
	DD	0bf2e8006r			; -0.681641
	DD	03e6e086cr			; 0.232454
	DD	03f319b80r			; 0.693779
	DD	0bee4f8f9r			; -0.447212
	DD	03e8d8384r			; 0.276394
	DD	03f59c400r			; 0.850647
	DD	0bf167903r			; -0.587784
	DD	000000000r			; 0
	DD	03f4f1b7ar			; 0.809013
	DD	0bf727c7cr			; -0.947212
	DD	03e8d8384r			; 0.276394
	DD	03e265b64r			; 0.162458
	DD	0bf5ed677r			; -0.87046
	DD	03e6e086cr			; 0.232454
	DD	03ede2670r			; 0.433887
	DD	0bf737879r			; -0.951057
	DD	000000000r			; 0
	DD	03e9e3737r			; 0.309015
	DD	0bf5ed677r			; -0.87046
	DD	03e6e086cr			; 0.232454
	DD	0bede2670r			; -0.433887
	DD	0bf727c7cr			; -0.947212
	DD	03e8d8384r			; 0.276394
	DD	0be265bear			; -0.16246
	DD	0bf737879r			; -0.951057
	DD	000000000r			; 0
	DD	0be9e377ar			; -0.309017
	DD	0bee4f8f9r			; -0.447212
	DD	03e8d8384r			; 0.276394
	DD	0bf59c487r			; -0.850655
	DD	0bf2e8006r			; -0.681641
	DD	03e6e086cr			; 0.232454
	DD	0bf319b80r			; -0.693779
	DD	0bf167903r			; -0.587784
	DD	000000000r			; 0
	DD	0bf4f1c00r			; -0.809021
	DD	03e131cebr			; 0.143665
	DD	03e6e086cr			; 0.232454
	DD	0bf764181r			; -0.961937
	DD	0be0d8341r			; -0.138196
	DD	03e8d8384r			; 0.276394
	DD	0bf737879r			; -0.951057
	DD	000000000r			; 0
	DD	000000000r			; 0
	DD	0bf800000r			; -1
	DD	03f2bbafer			; 0.670822
	DD	03e8d8384r			; 0.276394
	DD	0bf302d7br			; -0.688194
	DD	03ee5fbf8r			; 0.449188
	DD	03e6e086cr			; 0.232454
	DD	0bf5cd802r			; -0.862671
	DD	03f167946r			; 0.587788
	DD	000000000r			; 0
	DD	0bf4f1b7ar			; -0.809013
	DD	03f759179r			; 0.959251
	DD	03e6e086cr			; 0.232454
	DD	0be247a5br			; -0.160623
	DD	03f5c9efer			; 0.861801
	DD	03e8d8384r			; 0.276394
	DD	0bed9c476r			; -0.425327
	DD	03f737879r			; 0.951057
	DD	000000000r			; 0
	DD	0be9e377ar			; -0.309017
	DD	03f800000r			; 1
	DD	000000000r			; 0
	DD	080000000r			; -0
	DD	03f4f1c00r			; 0.809021
	DD	000000000r			; 0
	DD	03f167903r			; 0.587784
	DD	03e9e377ar			; 0.309017
	DD	000000000r			; 0
	DD	03f737879r			; 0.951057
	DD	0be9e3737r			; -0.309015
	DD	000000000r			; 0
	DD	03f737879r			; 0.951057
	DD	0bf4f1b7ar			; -0.809013
	DD	000000000r			; 0
	DD	03f167903r			; 0.587784
	DD	0bf800000r			; -1
	DD	000000000r			; 0
	DD	0b58637bdr			; -1e-006
	DD	0bf4f1b7ar			; -0.809013
	DD	000000000r			; 0
	DD	0bf167946r			; -0.587788
	DD	0be9e3737r			; -0.309015
	DD	000000000r			; 0
	DD	0bf737879r			; -0.951057
	DD	03e9e377ar			; 0.309017
	DD	000000000r			; 0
	DD	0bf737879r			; -0.951057
	DD	03f4f1c00r			; 0.809021
	DD	000000000r			; 0
	DD	0bf167946r			; -0.587788
_hemi_2v DW	00H
	DW	01H
	DW	02H
	DW	03H
	DW	04H
	DW	00H
	DW	04H
	DW	01H
	DW	00H
	DW	04H
	DW	05H
	DW	01H
	DW	01H
	DW	06H
	DW	02H
	DW	05H
	DW	07H
	DW	01H
	DW	07H
	DW	06H
	DW	01H
	DW	07H
	DW	08H
	DW	06H
	DW	06H
	DW	09H
	DW	02H
	DW	08H
	DW	0aH
	DW	06H
	DW	0aH
	DW	09H
	DW	06H
	DW	0aH
	DW	0bH
	DW	09H
	DW	09H
	DW	0cH
	DW	02H
	DW	0bH
	DW	0dH
	DW	09H
	DW	0dH
	DW	0cH
	DW	09H
	DW	0dH
	DW	0eH
	DW	0cH
	DW	0cH
	DW	00H
	DW	02H
	DW	0eH
	DW	0fH
	DW	0cH
	DW	0fH
	DW	00H
	DW	0cH
	DW	0fH
	DW	03H
	DW	00H
	DW	010H
	DW	011H
	DW	012H
	DW	05H
	DW	04H
	DW	010H
	DW	04H
	DW	011H
	DW	010H
	DW	04H
	DW	03H
	DW	011H
	DW	013H
	DW	014H
	DW	015H
	DW	08H
	DW	07H
	DW	013H
	DW	07H
	DW	014H
	DW	013H
	DW	07H
	DW	05H
	DW	014H
	DW	016H
	DW	017H
	DW	018H
	DW	0bH
	DW	0aH
	DW	016H
	DW	0aH
	DW	017H
	DW	016H
	DW	0aH
	DW	08H
	DW	017H
	DW	019H
	DW	01aH
	DW	01bH
	DW	0eH
	DW	0dH
	DW	019H
	DW	0dH
	DW	01aH
	DW	019H
	DW	0dH
	DW	0bH
	DW	01aH
	DW	01cH
	DW	01dH
	DW	01eH
	DW	03H
	DW	0fH
	DW	01cH
	DW	0fH
	DW	01dH
	DW	01cH
	DW	0fH
	DW	0eH
	DW	01dH
	DW	01cH
	DW	01fH
	DW	03H
	DW	01eH
	DW	020H
	DW	01cH
	DW	020H
	DW	01fH
	DW	01cH
	DW	020H
	DW	021H
	DW	01fH
	DW	01fH
	DW	011H
	DW	03H
	DW	021H
	DW	022H
	DW	01fH
	DW	022H
	DW	011H
	DW	01fH
	DW	022H
	DW	012H
	DW	011H
	DW	010H
	DW	023H
	DW	05H
	DW	012H
	DW	024H
	DW	010H
	DW	024H
	DW	023H
	DW	010H
	DW	024H
	DW	025H
	DW	023H
	DW	023H
	DW	014H
	DW	05H
	DW	025H
	DW	026H
	DW	023H
	DW	026H
	DW	014H
	DW	023H
	DW	026H
	DW	015H
	DW	014H
	DW	013H
	DW	027H
	DW	08H
	DW	015H
	DW	028H
	DW	013H
	DW	028H
	DW	027H
	DW	013H
	DW	028H
	DW	029H
	DW	027H
	DW	027H
	DW	017H
	DW	08H
	DW	029H
	DW	02aH
	DW	027H
	DW	02aH
	DW	017H
	DW	027H
	DW	02aH
	DW	018H
	DW	017H
	DW	016H
	DW	02bH
	DW	0bH
	DW	018H
	DW	02cH
	DW	016H
	DW	02cH
	DW	02bH
	DW	016H
	DW	02cH
	DW	02dH
	DW	02bH
	DW	02bH
	DW	01aH
	DW	0bH
	DW	02dH
	DW	02eH
	DW	02bH
	DW	02eH
	DW	01aH
	DW	02bH
	DW	02eH
	DW	01bH
	DW	01aH
	DW	019H
	DW	02fH
	DW	0eH
	DW	01bH
	DW	030H
	DW	019H
	DW	030H
	DW	02fH
	DW	019H
	DW	030H
	DW	031H
	DW	02fH
	DW	02fH
	DW	01dH
	DW	0eH
	DW	031H
	DW	032H
	DW	02fH
	DW	032H
	DW	01dH
	DW	02fH
	DW	032H
	DW	01eH
	DW	01dH
	DW	033H
	DW	034H
	DW	035H
	DW	012H
	DW	022H
	DW	033H
	DW	022H
	DW	034H
	DW	033H
	DW	022H
	DW	021H
	DW	034H
	DW	036H
	DW	037H
	DW	038H
	DW	025H
	DW	024H
	DW	036H
	DW	024H
	DW	037H
	DW	036H
	DW	024H
	DW	012H
	DW	037H
	DW	039H
	DW	03aH
	DW	03bH
	DW	015H
	DW	026H
	DW	039H
	DW	026H
	DW	03aH
	DW	039H
	DW	026H
	DW	025H
	DW	03aH
	DW	03cH
	DW	03dH
	DW	03eH
	DW	029H
	DW	028H
	DW	03cH
	DW	028H
	DW	03dH
	DW	03cH
	DW	028H
	DW	015H
	DW	03dH
	DW	03fH
	DW	040H
	DW	041H
	DW	018H
	DW	02aH
	DW	03fH
	DW	02aH
	DW	040H
	DW	03fH
	DW	02aH
	DW	029H
	DW	040H
	DW	042H
	DW	043H
	DW	044H
	DW	02dH
	DW	02cH
	DW	042H
	DW	02cH
	DW	043H
	DW	042H
	DW	02cH
	DW	018H
	DW	043H
	DW	045H
	DW	046H
	DW	047H
	DW	01bH
	DW	02eH
	DW	045H
	DW	02eH
	DW	046H
	DW	045H
	DW	02eH
	DW	02dH
	DW	046H
	DW	048H
	DW	049H
	DW	04aH
	DW	031H
	DW	030H
	DW	048H
	DW	030H
	DW	049H
	DW	048H
	DW	030H
	DW	01bH
	DW	049H
	DW	04bH
	DW	04cH
	DW	04dH
	DW	01eH
	DW	032H
	DW	04bH
	DW	032H
	DW	04cH
	DW	04bH
	DW	032H
	DW	031H
	DW	04cH
	DW	04eH
	DW	04fH
	DW	050H
	DW	021H
	DW	020H
	DW	04eH
	DW	020H
	DW	04fH
	DW	04eH
	DW	020H
	DW	01eH
	DW	04fH
	DW	04eH
	DW	034H
	DW	021H
	DW	050H
	DW	051H
	DW	04eH
	DW	051H
	DW	034H
	DW	04eH
	DW	051H
	DW	035H
	DW	034H
	DW	033H
	DW	037H
	DW	012H
	DW	035H
	DW	052H
	DW	033H
	DW	052H
	DW	037H
	DW	033H
	DW	052H
	DW	038H
	DW	037H
	DW	036H
	DW	03aH
	DW	025H
	DW	038H
	DW	053H
	DW	036H
	DW	053H
	DW	03aH
	DW	036H
	DW	053H
	DW	03bH
	DW	03aH
	DW	039H
	DW	03dH
	DW	015H
	DW	03bH
	DW	054H
	DW	039H
	DW	054H
	DW	03dH
	DW	039H
	DW	054H
	DW	03eH
	DW	03dH
	DW	03cH
	DW	040H
	DW	029H
	DW	03eH
	DW	055H
	DW	03cH
	DW	055H
	DW	040H
	DW	03cH
	DW	055H
	DW	041H
	DW	040H
	DW	03fH
	DW	043H
	DW	018H
	DW	041H
	DW	056H
	DW	03fH
	DW	056H
	DW	043H
	DW	03fH
	DW	056H
	DW	044H
	DW	043H
	DW	042H
	DW	046H
	DW	02dH
	DW	044H
	DW	057H
	DW	042H
	DW	057H
	DW	046H
	DW	042H
	DW	057H
	DW	047H
	DW	046H
	DW	045H
	DW	049H
	DW	01bH
	DW	047H
	DW	058H
	DW	045H
	DW	058H
	DW	049H
	DW	045H
	DW	058H
	DW	04aH
	DW	049H
	DW	048H
	DW	04cH
	DW	031H
	DW	04aH
	DW	059H
	DW	048H
	DW	059H
	DW	04cH
	DW	048H
	DW	059H
	DW	04dH
	DW	04cH
	DW	04bH
	DW	04fH
	DW	01eH
	DW	04dH
	DW	05aH
	DW	04bH
	DW	05aH
	DW	04fH
	DW	04bH
	DW	05aH
	DW	050H
	DW	04fH
_hemi_3	DD	000000000r			; 0
	DD	03f000000r			; 0.5
	DD	000000000r			; 0
	DD	03e869ad4r			; 0.2629
	DD	03ed9c0ecr			; 0.4253
	DD	000000000r			; 0
	DD	03da64c30r			; 0.0812
	DD	03ed9c0ecr			; 0.4253
	DD	03e800000r			; 0.25
	DD	0be59ce07r			; -0.2127
	DD	03ed9c0ecr			; 0.4253
	DD	03e1e353fr			; 0.1545
	DD	0be59ce07r			; -0.2127
	DD	03ed9c0ecr			; 0.4253
	DD	0be1e353fr			; -0.1545
	DD	03da64c30r			; 0.0812
	DD	03ed9c0ecr			; 0.4253
	DD	0be800000r			; -0.25
	DD	03ee4f766r			; 0.4472
	DD	03e64f766r			; 0.2236
	DD	000000000r			; 0
	DD	03e0d844dr			; 0.1382
	DD	03e64f766r			; 0.2236
	DD	03ed9c0ecr			; 0.4253
	DD	0beb93dd9r			; -0.3618
	DD	03e64f766r			; 0.2236
	DD	03e869ad4r			; 0.2629
	DD	0beb93dd9r			; -0.3618
	DD	03e64f766r			; 0.2236
	DD	0be869ad4r			; -0.2629
	DD	03e0d844dr			; 0.1382
	DD	03e64f766r			; 0.2236
	DD	0bed9c0ecr			; -0.4253
	DD	03eb02de0r			; 0.3441
	DD	03e869ad4r			; 0.2629
	DD	03e800000r			; 0.25
	DD	0be068db9r			; -0.1314
	DD	03e869ad4r			; 0.2629
	DD	03ecf1aa0r			; 0.4045
	DD	0bed9c0ecr			; -0.4253
	DD	03e869ad4r			; 0.2629
	DD	080000000r			; -0
	DD	0be068db9r			; -0.1314
	DD	03e869ad4r			; 0.2629
	DD	0becf1aa0r			; -0.4045
	DD	03eb02de0r			; 0.3441
	DD	03e869ad4r			; 0.2629
	DD	0be800000r			; -0.25
	DD	03ef374bcr			; 0.4755
	DD	000000000r			; 0
	DD	03e1e353fr			; 0.1545
	DD	03e967a10r			; 0.2939
	DD	000000000r			; 0
	DD	03ecf1aa0r			; 0.4045
	DD	080000000r			; -0
	DD	000000000r			; 0
	DD	03f000000r			; 0.5
	DD	0be967a10r			; -0.2939
	DD	000000000r			; 0
	DD	03ecf1aa0r			; 0.4045
	DD	0bef374bcr			; -0.4755
	DD	000000000r			; 0
	DD	03e1e353fr			; 0.1545
	DD	0bef374bcr			; -0.4755
	DD	000000000r			; 0
	DD	0be1e353fr			; -0.1545
	DD	0be967a10r			; -0.2939
	DD	000000000r			; 0
	DD	0becf1aa0r			; -0.4045
	DD	000000000r			; 0
	DD	000000000r			; 0
	DD	0bf000000r			; -0.5
	DD	03e967a10r			; 0.2939
	DD	000000000r			; 0
	DD	0becf1aa0r			; -0.4045
	DD	03ef374bcr			; 0.4755
	DD	000000000r			; 0
	DD	0be1e353fr			; -0.1545
	DD	03dbbcd36r			; 0.0917
	DD	03efba5e3r			; 0.4915
	DD	000000000r			; 0
	DD	03e38bac7r			; 0.1804
	DD	03eeebee0r			; 0.4663
	DD	000000000r			; 0
	DD	03ce7d567r			; 0.0283
	DD	03efba5e3r			; 0.4915
	DD	03db295ear			; 0.0872
	DD	03d6425afr			; 0.0557
	DD	03eeebee0r			; 0.4663
	DD	03e2f9db2r			; 0.1715
	DD	0bd97f62br			; -0.0742
	DD	03efba5e3r			; 0.4915
	DD	03d5cc63fr			; 0.0539
	DD	0be1566cfr			; -0.1459
	DD	03eeebee0r			; 0.4663
	DD	03dd91687r			; 0.106
	DD	0bd97f62br			; -0.0742
	DD	03efba5e3r			; 0.4915
	DD	0bd5cc63fr			; -0.0539
	DD	0be1566cfr			; -0.1459
	DD	03eeebee0r			; 0.4663
	DD	0bdd91687r			; -0.106
	DD	03ce7d567r			; 0.0283
	DD	03efba5e3r			; 0.4915
	DD	0bdb295ear			; -0.0872
	DD	03d6425afr			; 0.0557
	DD	03eeebee0r			; 0.4663
	DD	0be2f9db2r			; -0.1715
	DD	03e57a787r			; 0.2106
	DD	03ee3bcd3r			; 0.4448
	DD	03db50b0fr			; 0.0884
	DD	03e18c7e3r			; 0.1492
	DD	03ee3bcd3r			; 0.4448
	DD	03e3126e9r			; 0.173
	DD	0bc9ba5e3r			; -0.019
	DD	03ee3bcd3r			; 0.4448
	DD	03e690ff9r			; 0.2276
	DD	0bdf27bb3r			; -0.1184
	DD	03ee3bcd3r			; 0.4448
	DD	03e47fcb9r			; 0.1953
	DD	0be63bcd3r			; -0.2224
	DD	03ee3bcd3r			; 0.4448
	DD	03d563886r			; 0.0523
	DD	0be63bcd3r			; -0.2224
	DD	03ee3bcd3r			; 0.4448
	DD	0bd563886r			; -0.0523
	DD	0bdf27bb3r			; -0.1184
	DD	03ee3bcd3r			; 0.4448
	DD	0be47fcb9r			; -0.1953
	DD	0bc9ba5e3r			; -0.019
	DD	03ee3bcd3r			; 0.4448
	DD	0be690ff9r			; -0.2276
	DD	03e18c7e3r			; 0.1492
	DD	03ee3bcd3r			; 0.4448
	DD	0be3126e9r			; -0.173
	DD	03e57a787r			; 0.2106
	DD	03ee3bcd3r			; 0.4448
	DD	0bdb50b0fr			; -0.0884
	DD	03eac3c9fr			; 0.3364
	DD	03ebd6388r			; 0.3699
	DD	000000000r			; 0
	DD	03ecc154dr			; 0.3986
	DD	03e9a92a3r			; 0.3019
	DD	000000000r			; 0
	DD	03dd4fdf4r			; 0.104
	DD	03ebd6388r			; 0.3699
	DD	03ea3d70ar			; 0.32
	DD	03dfc5048r			; 0.1232
	DD	03e9a92a3r			; 0.3019
	DD	03ec21965r			; 0.3791
	DD	0be8b5dccr			; -0.2722
	DD	03ebd6388r			; 0.3699
	DD	03e4a8c15r			; 0.1978
	DD	0bea51eb8r			; -0.3225
	DD	03e9a92a3r			; 0.3019
	DD	03e6fec57r			; 0.2343
	DD	0be8b5dccr			; -0.2722
	DD	03ebd6388r			; 0.3699
	DD	0be4a8c15r			; -0.1978
	DD	0bea51eb8r			; -0.3225
	DD	03e9a92a3r			; 0.3019
	DD	0be6fec57r			; -0.2343
	DD	03dd4fdf4r			; 0.104
	DD	03ebd6388r			; 0.3699
	DD	0bea3d70ar			; -0.32
	DD	03dfc5048r			; 0.1232
	DD	03e9a92a3r			; 0.3019
	DD	0bec21965r			; -0.3791
	DD	03e9b7176r			; 0.3036
	DD	03ec64c30r			; 0.3873
	DD	03db50b0fr			; 0.0884
	DD	03ea985f0r			; 0.3311
	DD	03eaa233ar			; 0.3323
	DD	03e3126e9r			; 0.173
	DD	03c1eecc0r			; 0.0097
	DD	03ec64c30r			; 0.3873
	DD	03ea1d7dcr			; 0.3161
	DD	0bd7ec56dr			; -0.0622
	DD	03eaa233ar			; 0.3323
	DD	03ebc91d1r			; 0.3683
	DD	0be985f07r			; -0.2976
	DD	03ec64c30r			; 0.3873
	DD	03ddaee63r			; 0.1069
	DD	0bebd2f1br			; -0.3695
	DD	03eaa233ar			; 0.3323
	DD	03d600d1br			; 0.0547
	DD	0be463f14r			; -0.1936
	DD	03ec64c30r			; 0.3873
	DD	0be800000r			; -0.25
	DD	0be2a3055r			; -0.1662
	DD	03eaa233ar			; 0.3323
	DD	0beab50b1r			; -0.3346
	DD	03e362b6br			; 0.1779
	DD	03ec64c30r			; 0.3873
	DD	0be85d639r			; -0.2614
	DD	03e889a02r			; 0.2668
	DD	03eaa233ar			; 0.3323
	DD	0be85d639r			; -0.2614
	DD	03e9b7176r			; 0.3036
	DD	03ec64c30r			; 0.3873
	DD	0bdb50b0fr			; -0.0884
	DD	03ea985f0r			; 0.3311
	DD	03eaa233ar			; 0.3323
	DD	0be3126e9r			; -0.173
	DD	03e362b6br			; 0.1779
	DD	03ec64c30r			; 0.3873
	DD	03e85d639r			; 0.2614
	DD	03e889a02r			; 0.2668
	DD	03eaa233ar			; 0.3323
	DD	03e85d639r			; 0.2614
	DD	0be463f14r			; -0.1936
	DD	03ec64c30r			; 0.3873
	DD	03e800000r			; 0.25
	DD	0be2a3055r			; -0.1662
	DD	03eaa233ar			; 0.3323
	DD	03eab50b1r			; 0.3346
	DD	0be985f07r			; -0.2976
	DD	03ec64c30r			; 0.3873
	DD	0bddaee63r			; -0.1069
	DD	0bebd2f1br			; -0.3695
	DD	03eaa233ar			; 0.3323
	DD	0bd600d1br			; -0.0547
	DD	03c1eecc0r			; 0.0097
	DD	03ec64c30r			; 0.3873
	DD	0bea1d7dcr			; -0.3161
	DD	0bd7ec56dr			; -0.0622
	DD	03eaa233ar			; 0.3323
	DD	0bebc91d1r			; -0.3683
	DD	03eda92a3r			; 0.4269
	DD	03e7b15b5r			; 0.2452
	DD	03db295ear			; 0.0872
	DD	03ec8ce70r			; 0.3922
	DD	03e844d01r			; 0.2584
	DD	03e2f9db2r			; 0.1715
	DD	03d48b439r			; 0.049
	DD	03e7b15b5r			; 0.2452
	DD	03eddb22dr			; 0.433
	DD	0bd2c0831r			; -0.042
	DD	03e844d01r			; 0.2584
	DD	03eda1cacr			; 0.426
	DD	0becb1c43r			; -0.3967
	DD	03e7b15b5r			; 0.2452
	DD	03e38bac7r			; 0.1804
	DD	0bed61134r			; -0.4181
	DD	03e844d01r			; 0.2584
	DD	03dbbcd36r			; 0.0917
	DD	0be969446r			; -0.2941
	DD	03e7b15b5r			; 0.2452
	DD	0bea49ba6r			; -0.3215
	DD	0be5db22dr			; -0.2165
	DD	03e844d01r			; 0.2584
	DD	0bebd14e4r			; -0.3693
	DD	03e5c0ebfr			; 0.2149
	DD	03e7b15b5r			; 0.2452
	DD	0bec21965r			; -0.3791
	DD	03e918fc5r			; 0.2843
	DD	03e844d01r			; 0.2584
	DD	0bea3d70ar			; -0.32
	DD	03ec8ce70r			; 0.3922
	DD	03e844d01r			; 0.2584
	DD	0be2f9db2r			; -0.1715
	DD	03eda92a3r			; 0.4269
	DD	03e7b15b5r			; 0.2452
	DD	0bdb295ear			; -0.0872
	DD	03e918fc5r			; 0.2843
	DD	03e844d01r			; 0.2584
	DD	03ea3d70ar			; 0.32
	DD	03e5c0ebfr			; 0.2149
	DD	03e7b15b5r			; 0.2452
	DD	03ec21965r			; 0.3791
	DD	0be5db22dr			; -0.2165
	DD	03e844d01r			; 0.2584
	DD	03ebd14e4r			; 0.3693
	DD	0be969446r			; -0.2941
	DD	03e7b15b5r			; 0.2452
	DD	03ea49ba6r			; 0.3215
	DD	0bed61134r			; -0.4181
	DD	03e844d01r			; 0.2584
	DD	0bdbbcd36r			; -0.0917
	DD	0becb1c43r			; -0.3967
	DD	03e7b15b5r			; 0.2452
	DD	0be38bac7r			; -0.1804
	DD	0bd2c0831r			; -0.042
	DD	03e844d01r			; 0.2584
	DD	0beda1cacr			; -0.426
	DD	03d48b439r			; 0.049
	DD	03e7b15b5r			; 0.2452
	DD	0beddb22dr			; -0.433
	DD	03ef212d7r			; 0.4728
	DD	03e1d14e4r			; 0.1534
	DD	03d5cc63fr			; 0.0539
	DD	03ef6fd22r			; 0.4824
	DD	03d9fbe77r			; 0.078
	DD	03dd91687r			; 0.106
	DD	03ed0068er			; 0.4063
	DD	03e3a43fer			; 0.1819
	DD	03e690ff9r			; 0.2276
	DD	03ee6cf42r			; 0.4508
	DD	03dbe76c9r			; 0.093
	DD	03e47fcb9r			; 0.1953
	DD	03eaf27bbr			; 0.3421
	DD	03e3a43fer			; 0.1819
	DD	03ea1d7dcr			; 0.3161
	DD	03ea67382r			; 0.3251
	DD	03dbe76c9r			; 0.093
	DD	03ebc91d1r			; 0.3683
	DD	03e4a233ar			; 0.1974
	DD	03e1d14e4r			; 0.1534
	DD	03eddb22dr			; 0.433
	DD	03e7fe5c9r			; 0.2499
	DD	03d9fbe77r			; 0.078
	DD	03eda1cacr			; 0.426
	DD	03dc22681r			; 0.0948
	DD	03e1d14e4r			; 0.1534
	DD	03eeebee0r			; 0.4663
	DD	03d456d5dr			; 0.0482
	DD	03d9fbe77r			; 0.078
	DD	03efba5e3r			; 0.4915
	DD	0bdba29c7r			; -0.0909
	DD	03e3a43fer			; 0.1819
	DD	03ee9e1b1r			; 0.4568
	DD	0bd3e76c9r			; -0.0465
	DD	03dbe76c9r			; 0.093
	DD	03efa6b51r			; 0.4891
	DD	0be4793der			; -0.1949
	DD	03e3a43fer			; 0.1819
	DD	03ed89375r			; 0.423
	DD	0be7fe5c9r			; -0.2499
	DD	03dbe76c9r			; 0.093
	DD	03ed89375r			; 0.423
	DD	0beb39c0fr			; -0.3508
	DD	03e1d14e4r			; 0.1534
	DD	03ea49ba6r			; 0.3215
	DD	0bea7e282r			; -0.3279
	DD	03d9fbe77r			; 0.078
	DD	03ebd14e4r			; 0.3693
	DD	0bed41206r			; -0.4142
	DD	03e1d14e4r			; 0.1534
	DD	03e6fec57r			; 0.2343
	DD	0bee7bb30r			; -0.4526
	DD	03d9fbe77r			; 0.078
	DD	03e4a8c15r			; 0.1978
	DD	0beeccccdr			; -0.4625
	DD	03e3a43fer			; 0.1819
	DD	03d600d1br			; 0.0547
	DD	0bef58106r			; -0.4795
	DD	03dbe76c9r			; 0.093
	DD	03ddaee63r			; 0.1069
	DD	0beeccccdr			; -0.4625
	DD	03e3a43fer			; 0.1819
	DD	0bd600d1br			; -0.0547
	DD	0bef58106r			; -0.4795
	DD	03dbe76c9r			; 0.093
	DD	0bddaee63r			; -0.1069
	DD	0bed41206r			; -0.4142
	DD	03e1d14e4r			; 0.1534
	DD	0be6fec57r			; -0.2343
	DD	0bee7bb30r			; -0.4526
	DD	03d9fbe77r			; 0.078
	DD	0be4a8c15r			; -0.1978
	DD	0beb39c0fr			; -0.3508
	DD	03e1d14e4r			; 0.1534
	DD	0bea49ba6r			; -0.3215
	DD	0bea7e282r			; -0.3279
	DD	03d9fbe77r			; 0.078
	DD	0bebd14e4r			; -0.3693
	DD	0be4793der			; -0.1949
	DD	03e3a43fer			; 0.1819
	DD	0bed89375r			; -0.423
	DD	0be7fe5c9r			; -0.2499
	DD	03dbe76c9r			; 0.093
	DD	0bed89375r			; -0.423
	DD	0bdba29c7r			; -0.0909
	DD	03e3a43fer			; 0.1819
	DD	0bee9e1b1r			; -0.4568
	DD	0bd3e76c9r			; -0.0465
	DD	03dbe76c9r			; 0.093
	DD	0befa6b51r			; -0.4891
	DD	03dc22681r			; 0.0948
	DD	03e1d14e4r			; 0.1534
	DD	0beeebee0r			; -0.4663
	DD	03d456d5dr			; 0.0482
	DD	03d9fbe77r			; 0.078
	DD	0befba5e3r			; -0.4915
	DD	03e4a233ar			; 0.1974
	DD	03e1d14e4r			; 0.1534
	DD	0beddb22dr			; -0.433
	DD	03e7fe5c9r			; 0.2499
	DD	03d9fbe77r			; 0.078
	DD	0beda1cacr			; -0.426
	DD	03eaf27bbr			; 0.3421
	DD	03e3a43fer			; 0.1819
	DD	0bea1d7dcr			; -0.3161
	DD	03ea67382r			; 0.3251
	DD	03dbe76c9r			; 0.093
	DD	0bebc91d1r			; -0.3683
	DD	03ed0068er			; 0.4063
	DD	03e3a43fer			; 0.1819
	DD	0be690ff9r			; -0.2276
	DD	03ee6cf42r			; 0.4508
	DD	03dbe76c9r			; 0.093
	DD	0be47fcb9r			; -0.1953
	DD	03ef212d7r			; 0.4728
	DD	03e1d14e4r			; 0.1534
	DD	0bd5cc63fr			; -0.0539
	DD	03ef6fd22r			; 0.4824
	DD	03d9fbe77r			; 0.078
	DD	0bdd91687r			; -0.106
	DD	03eddb22dr			; 0.433
	DD	000000000r			; 0
	DD	03e800000r			; 0.25
	DD	03ebe425br			; 0.3716
	DD	000000000r			; 0
	DD	03eab50b1r			; 0.3346
	DD	03e504817r			; 0.2034
	DD	000000000r			; 0
	DD	03ee9e1b1r			; 0.4568
	DD	03dd4fdf4r			; 0.104
	DD	000000000r			; 0
	DD	03efa6b51r			; 0.4891
	DD	0bdd4fdf4r			; -0.104
	DD	000000000r			; 0
	DD	03efa6b51r			; 0.4891
	DD	0be504817r			; -0.2034
	DD	000000000r			; 0
	DD	03ee9e1b1r			; 0.4568
	DD	0bebe425br			; -0.3716
	DD	000000000r			; 0
	DD	03eab50b1r			; 0.3346
	DD	0beddb22dr			; -0.433
	DD	000000000r			; 0
	DD	03e800000r			; 0.25
	DD	0befe9e1br			; -0.4973
	DD	000000000r			; 0
	DD	03d563886r			; 0.0523
	DD	0befe9e1br			; -0.4973
	DD	000000000r			; 0
	DD	0bd563886r			; -0.0523
	DD	0beddb22dr			; -0.433
	DD	000000000r			; 0
	DD	0be800000r			; -0.25
	DD	0bebe425br			; -0.3716
	DD	000000000r			; 0
	DD	0beab50b1r			; -0.3346
	DD	0be504817r			; -0.2034
	DD	000000000r			; 0
	DD	0bee9e1b1r			; -0.4568
	DD	0bdd4fdf4r			; -0.104
	DD	000000000r			; 0
	DD	0befa6b51r			; -0.4891
	DD	03dd4fdf4r			; 0.104
	DD	000000000r			; 0
	DD	0befa6b51r			; -0.4891
	DD	03e504817r			; 0.2034
	DD	000000000r			; 0
	DD	0bee9e1b1r			; -0.4568
	DD	03ebe425br			; 0.3716
	DD	000000000r			; 0
	DD	0beab50b1r			; -0.3346
	DD	03eddb22dr			; 0.433
	DD	000000000r			; 0
	DD	0be800000r			; -0.25
	DD	03efe9e1br			; 0.4973
	DD	000000000r			; 0
	DD	0bd563886r			; -0.0523
	DD	03efe9e1br			; 0.4973
	DD	000000000r			; 0
	DD	03d563886r			; 0.0523
	DD	03df765fer			; 0.1208
	DD	03ef4538fr			; 0.4772
	DD	03db3d07dr			; 0.0878
	DD	0bd3cd35br			; -0.0461
	DD	03ef4538fr			; 0.4772
	DD	03e116873r			; 0.142
	DD	0be18e219r			; -0.1493
	DD	03ef4538fr			; 0.4772
	DD	080000000r			; -0
	DD	0bd3cd35br			; -0.0461
	DD	03ef4538fr			; 0.4772
	DD	0be116873r			; -0.142
	DD	03df765fer			; 0.1208
	DD	03ef4538fr			; 0.4772
	DD	0bdb3d07dr			; -0.0878
	DD	03e7c6a7fr			; 0.2465
	DD	03ecb020cr			; 0.3965
	DD	03e3765fer			; 0.1791
	DD	0bdc0b780r			; -0.0941
	DD	03ecb020cr			; 0.3965
	DD	03e94538fr			; 0.2897
	DD	0be9c01a3r			; -0.3047
	DD	03ecb020cr			; 0.3965
	DD	080000000r			; -0
	DD	0bdc0b780r			; -0.0941
	DD	03ecb020cr			; 0.3965
	DD	0be94538fr			; -0.2897
	DD	03e7c6a7fr			; 0.2465
	DD	03ecb020cr			; 0.3965
	DD	0be3765fer			; -0.1791
	DD	03ebe353fr			; 0.3715
	DD	03ea55326r			; 0.3229
	DD	0bdb46dc6r			; -0.0881
	DD	03ebe353fr			; 0.3715
	DD	03ea55326r			; 0.3229
	DD	03db46dc6r			; 0.0881
	DD	03e4b5dccr			; 0.1986
	DD	03ea55326r			; 0.3229
	DD	03ea6f694r			; 0.3261
	DD	03cfdf3b6r			; 0.031
	DD	03ea55326r			; 0.3229
	DD	03ec2d0e5r			; 0.3805
	DD	0be7ec56dr			; -0.2488
	DD	03ea55326r			; 0.3229
	DD	03e944674r			; 0.2896
	DD	0beb460aar			; -0.3523
	DD	03ea55326r			; 0.3229
	DD	03e16a162r			; 0.1471
	DD	0beb460aar			; -0.3523
	DD	03ea55326r			; 0.3229
	DD	0be16a162r			; -0.1471
	DD	0be7ec56dr			; -0.2488
	DD	03ea55326r			; 0.3229
	DD	0be944674r			; -0.2896
	DD	03cfdf3b6r			; 0.031
	DD	03ea55326r			; 0.3229
	DD	0bec2d0e5r			; -0.3805
	DD	03e4b5dccr			; 0.1986
	DD	03ea55326r			; 0.3229
	DD	0bea6f694r			; -0.3261
	DD	03ee52bd4r			; 0.4476
	DD	03e2ecbfbr			; 0.1707
	DD	03e12bd3cr			; 0.1433
	DD	03e8c985fr			; 0.2746
	DD	03e2ecbfbr			; 0.1707
	DD	03ec346dcr			; 0.3814
	DD	03b03126fr			; 0.002
	DD	03e2ecbfbr			; 0.1707
	DD	03ef0a3d7r			; 0.47
	DD	0be8e3bcdr			; -0.2778
	DD	03e2ecbfbr			; 0.1707
	DD	03ec20c4ar			; 0.379
	DD	0bee4816fr			; -0.4463
	DD	03e2ecbfbr			; 0.1707
	DD	03e16a162r			; 0.1471
	DD	0bee4816fr			; -0.4463
	DD	03e2ecbfbr			; 0.1707
	DD	0be16a162r			; -0.1471
	DD	0be8e3bcdr			; -0.2778
	DD	03e2ecbfbr			; 0.1707
	DD	0bec20c4ar			; -0.379
	DD	03b03126fr			; 0.002
	DD	03e2ecbfbr			; 0.1707
	DD	0bef0a3d7r			; -0.47
	DD	03e8c985fr			; 0.2746
	DD	03e2ecbfbr			; 0.1707
	DD	0bec346dcr			; -0.3814
	DD	03ee52bd4r			; 0.4476
	DD	03e2ecbfbr			; 0.1707
	DD	0be12bd3cr			; -0.1433
	DD	03efcb924r			; 0.4936
	DD	03da3a29cr			; 0.0799
	DD	000000000r			; 0
	DD	03ecb50b1r			; 0.3971
	DD	03dc2f838r			; 0.0952
	DD	03e93b646r			; 0.2885
	DD	03e1c28f6r			; 0.1525
	DD	03da3a29cr			; 0.0799
	DD	03ef05532r			; 0.4694
	DD	0be1b573fr			; -0.1517
	DD	03dc2f838r			; 0.0952
	DD	03eef0069r			; 0.4668
	DD	0becc710dr			; -0.3993
	DD	03da3a29cr			; 0.0799
	DD	03e9487fdr			; 0.2901
	DD	0befb573fr			; -0.4909
	DD	03dc2f838r			; 0.0952
	DD	080000000r			; -0
	DD	0becc710dr			; -0.3993
	DD	03da3a29cr			; 0.0799
	DD	0be9487fdr			; -0.2901
	DD	0be1b573fr			; -0.1517
	DD	03dc2f838r			; 0.0952
	DD	0beef0069r			; -0.4668
	DD	03e1c28f6r			; 0.1525
	DD	03da3a29cr			; 0.0799
	DD	0bef05532r			; -0.4694
	DD	03ecb50b1r			; 0.3971
	DD	03dc2f838r			; 0.0952
	DD	0be93b646r			; -0.2885
; Function compile flags: /Ogtpy
; File d:\clearsky\sources\engine\xrcore\_vector3d.h
;	COMDAT ??A?$_vector3@M@@QBEAAMH@Z
_TEXT	SEGMENT
??A?$_vector3@M@@QBEAAMH@Z PROC				; _vector3<float>::operator[], COMDAT
; _this$ = eax
; _i$ = ecx

; 21   : 	ICF	T&			operator[] (int i)	const			{ return *((T*)this + i); }

	lea	eax, DWORD PTR [eax+ecx*4]
	ret	0
??A?$_vector3@M@@QBEAAMH@Z ENDP				; _vector3<float>::operator[]
_TEXT	ENDS
PUBLIC	?xrHemisphereIndices@@YAHHAAPBG@Z		; xrHemisphereIndices
; Function compile flags: /Ogtpy
; File d:\clearsky\sources\engine\xrengine\xrhemisphere.cpp
;	COMDAT ?xrHemisphereIndices@@YAHHAAPBG@Z
_TEXT	SEGMENT
?xrHemisphereIndices@@YAHHAAPBG@Z PROC			; xrHemisphereIndices, COMDAT
; _indices$ = eax

; 587  : 	// SELECT table
; 588  : 	int				h_count	= 0;
; 589  : 	switch (quality)
; 590  : 	{
; 591  : 	case 1:	// LOW quality
; 592  : 		h_count		= HEMI1_FACES*3;
; 593  : 		indices		= hemi_1v;
; 594  : 		break;
; 595  : 	case 2:	// HIGH quality
; 596  : 		h_count		= HEMI2_FACES*3;
; 597  : 		indices		= hemi_2v;

	mov	DWORD PTR [eax], OFFSET _hemi_2v

; 598  : 		break;
; 599  : //	case 3:	// SUPER HIGH quality
; 600  : //		h_count		= HEMI3_FACES*3;
; 601  : //		indices		= hemi_3v;
; 602  : //		break;
; 603  : 	default:// NO 	
; 604  : 		NODEFAULT;
; 605  : 	}
; 606  : 	return h_count;

	mov	eax, 480				; 000001e0H

; 607  : }

	ret	0
?xrHemisphereIndices@@YAHHAAPBG@Z ENDP			; xrHemisphereIndices
_TEXT	ENDS
PUBLIC	?xrHemisphereVertices@@YAHHAAPBU?$_vector3@M@@@Z ; xrHemisphereVertices
; Function compile flags: /Ogtpy
;	COMDAT ?xrHemisphereVertices@@YAHHAAPBU?$_vector3@M@@@Z
_TEXT	SEGMENT
?xrHemisphereVertices@@YAHHAAPBU?$_vector3@M@@@Z PROC	; xrHemisphereVertices, COMDAT
; _verts$ = eax

; 563  : 	// SELECT table
; 564  : 	int				h_count	= 0;
; 565  : 	switch (quality)
; 566  : 	{
; 567  : 	case 1:	// LOW quality
; 568  : 		h_count		= HEMI1_VERTS;
; 569  : 		verts		= hemi_1;
; 570  : 		break;
; 571  : 	case 2:	// HIGH quality
; 572  : 		h_count		= HEMI2_VERTS;
; 573  : 		verts		= hemi_2;

	mov	DWORD PTR [eax], OFFSET _hemi_2

; 574  : 		break;
; 575  : 	case 3:	// SUPER HIGH quality
; 576  : 		h_count		= HEMI3_VERTS;
; 577  : 		verts		= hemi_3;
; 578  : 		break;
; 579  : 	default:// NO 	
; 580  : 		NODEFAULT;
; 581  : 	}
; 582  : 	return h_count;

	mov	eax, 91					; 0000005bH

; 583  : }

	ret	0
?xrHemisphereVertices@@YAHHAAPBU?$_vector3@M@@@Z ENDP	; xrHemisphereVertices
END
